 PhysX3CharacterKinematicDEBUG_x86

 Timestamp is 58ca8083 (Thu Mar 16 12:09:39 2017)

 Preferred load address is 10000000

 Start         Length     Name                   Class
 0001:00000000 00008ec0H .text$di                CODE
 0001:00008ec0 000bd880H .text$mn                CODE
 0001:000c6740 000010e8H .text$x                 CODE
 0002:00000000 00000104H .CRT$XCA                DATA
 0002:00000104 0000011cH .CRT$XCU                DATA
 0002:00000220 00000104H .CRT$XCZ                DATA
 0002:00000324 00000104H .CRT$XIA                DATA
 0002:00000428 00000110H .CRT$XIC                DATA
 0002:00000538 00000104H .CRT$XIZ                DATA
 0002:0000063c 00000104H .CRT$XPA                DATA
 0002:00000740 0000010cH .CRT$XPX                DATA
 0002:0000084c 00000104H .CRT$XPXA               DATA
 0002:00000950 00000104H .CRT$XPZ                DATA
 0002:00000a54 00000104H .CRT$XTA                DATA
 0002:00000b58 00000108H .CRT$XTZ                DATA
 0002:00000c60 00023264H .rdata                  DATA
 0002:00023ec4 0000044cH .rdata$r                DATA
 0002:00024310 0000012cH .rdata$sxdata           DATA
 0002:0002443c 000001a4H .rdata$zzzdbg           DATA
 0002:000245e0 00000104H .rtc$IAA                DATA
 0002:000246e4 0000013cH .rtc$IMZ                DATA
 0002:00024820 00000104H .rtc$IZZ                DATA
 0002:00024924 00000104H .rtc$TAA                DATA
 0002:00024a28 0000013cH .rtc$TMZ                DATA
 0002:00024b64 00000104H .rtc$TZZ                DATA
 0002:00024c68 00000e38H .xdata$x                DATA
 0002:00025aa0 00000ad0H .edata                  DATA
 0003:00000000 00000ae0H .data                   DATA
 0003:00000ae0 00000380H .data$r                 DATA
 0003:00000e60 00001894H .bss                    DATA
 0004:00000000 000002f4H .idata$5                DATA
 0004:000002f4 0000003cH .idata$2                DATA
 0004:00000330 00000014H .idata$3                DATA
 0004:00000344 000002f4H .idata$4                DATA
 0004:00000638 000014f0H .idata$6                DATA
 0005:00000000 00000208H .gfids$x                DATA
 0005:00000208 000001d4H .gfids$y                DATA
 0006:00000000 00000104H .00cfg                  DATA
 0007:00000000 000001c0H .rsrc$01                DATA
 0007:000001c0 00000700H .rsrc$02                DATA

  Address         Publics by Value              Rva+Base       Lib:Object

 0000:00000000       ___guard_fids_count        00000000     <absolute>
 0000:00000000       ___guard_iat_table         00000000     <absolute>
 0000:00000000       __except_list              00000000     <absolute>
 0000:00000000       ___dynamic_value_reloc_table 00000000     <absolute>
 0000:00000000       ___guard_iat_count         00000000     <absolute>
 0000:00000000       ___guard_longjmp_table     00000000     <absolute>
 0000:00000000       ___guard_fids_table        00000000     <absolute>
 0000:00000000       ___guard_longjmp_count     00000000     <absolute>
 0000:00000009       ___safe_se_handler_count   00000009     <absolute>
 0000:00000100       ___guard_flags             00000100     <absolute>
 0000:00000000       ___ImageBase               10000000     <linker-defined>
 0001:00008ec0       ??0BoxController@Cct@physx@@QAE@ABVPxControllerDesc@2@AAVPxPhysics@2@PAVPxScene@2@@Z 10009ec0 f   CctBoxController.obj
 0001:00008fb0       ??1BoxController@Cct@physx@@UAE@XZ 10009fb0 f   CctBoxController.obj
 0001:00008ff0       ?getWorldBox@BoxController@Cct@physx@@UBE_NAAUPxExtendedBounds3@3@@Z 10009ff0 f   CctBoxController.obj
 0001:00009060       ?setFootPosition@BoxController@Cct@physx@@UAE_NABUPxExtendedVec3@3@@Z 1000a060 f   CctBoxController.obj
 0001:000090e0       ?getFootPosition@BoxController@Cct@physx@@UBE?AUPxExtendedVec3@3@XZ 1000a0e0 f   CctBoxController.obj
 0001:00009180       ?invalidateCache@BoxController@Cct@physx@@UAEXXZ 1000a180 f   CctBoxController.obj
 0001:000091e0       ?resize@BoxController@Cct@physx@@UAEXM@Z 1000a1e0 f   CctBoxController.obj
 0001:00009290       ?getHalfHeight@BoxController@Cct@physx@@UBEMXZ 1000a290 f   CctBoxController.obj
 0001:000092b0       ?getHalfSideExtent@BoxController@Cct@physx@@UBEMXZ 1000a2b0 f   CctBoxController.obj
 0001:000092d0       ?getHalfForwardExtent@BoxController@Cct@physx@@UBEMXZ 1000a2d0 f   CctBoxController.obj
 0001:000092f0       ?setHalfHeight@BoxController@Cct@physx@@UAE_NM@Z 1000a2f0 f   CctBoxController.obj
 0001:00009330       ?setHalfSideExtent@BoxController@Cct@physx@@UAE_NM@Z 1000a330 f   CctBoxController.obj
 0001:00009370       ?setHalfForwardExtent@BoxController@Cct@physx@@UAE_NM@Z 1000a370 f   CctBoxController.obj
 0001:000093b0       ?updateKinematicProxy@BoxController@Cct@physx@@QAE_NXZ 1000a3b0 f   CctBoxController.obj
 0001:000094b0       ?getOBB@BoxController@Cct@physx@@QBEXAAVPxExtendedBox@3@@Z 1000a4b0 f   CctBoxController.obj
 0001:00009710       ??0Allocator@shdfnd@physx@@QAE@PBD@Z 1000a710 f i CctBoxController.obj
 0001:00009730       ??0NonTrackingAllocator@shdfnd@physx@@QAE@PBD@Z 1000a730 f i CctBoxController.obj
 0001:00009750       ??0PxBoxController@physx@@IAE@XZ 1000a750 f i CctBoxController.obj
 0001:00009780       ??0PxBoxGeometry@physx@@QAE@XZ 1000a780 f i CctBoxController.obj
 0001:000097d0       ??0PxController@physx@@IAE@XZ 1000a7d0 f i CctBoxController.obj
 0001:000097f0       ??0PxControllerManager@physx@@IAE@XZ 1000a7f0 f i CctBoxController.obj
 0001:00009810       ??0PxControllerManager@physx@@QAE@ABV01@@Z 1000a810 f i CctBoxController.obj
 0001:00009830       ??0PxExtendedBounds3@physx@@QAE@XZ 1000a830 f i CctBoxController.obj
 0001:00009860       ??0PxExtendedVec3@physx@@QAE@NNN@Z 1000a860 f i CctBoxController.obj
 0001:000098b0       ??0PxExtendedVec3@physx@@QAE@XZ 1000a8b0 f i CctBoxController.obj
 0001:000098d0       ??0PxFoundation@physx@@QAE@ABV01@@Z 1000a8d0 f i CctBoxController.obj
 0001:000098f0       ??0PxFoundation@physx@@QAE@XZ 1000a8f0 f i CctBoxController.obj
 0001:00009910       ??0PxGeometry@physx@@IAE@W4Enum@PxGeometryType@1@@Z 1000a910 f i CctBoxController.obj
 0001:00009930       ??0PxVec3@physx@@QAE@ABV01@@Z 1000a930 f i CctBoxController.obj
 0001:00009970       ??0PxVec3@physx@@QAE@MMM@Z 1000a970 f i CctBoxController.obj
 0001:000099c0       ??1PxBoxController@physx@@MAE@XZ 1000a9c0 f i CctBoxController.obj
 0001:000099f0       ??1PxController@physx@@MAE@XZ 1000a9f0 f i CctBoxController.obj
 0001:00009a10       ??1PxControllerManager@physx@@MAE@XZ 1000aa10 f i CctBoxController.obj
 0001:00009a30       ??1PxFoundation@physx@@MAE@XZ 1000aa30 f i CctBoxController.obj
 0001:00009a50       ??3UserAllocated@shdfnd@physx@@SAXPAX@Z 1000aa50 f i CctBoxController.obj
 0001:00009a80       ??4Allocator@shdfnd@physx@@QAEAAV012@$$QAV012@@Z 1000aa80 f i CctBoxController.obj
 0001:00009aa0       ??4Allocator@shdfnd@physx@@QAEAAV012@ABV012@@Z 1000aaa0 f i CctBoxController.obj
 0001:00009ac0       ??4MutexImpl@shdfnd@physx@@QAEAAV012@ABV012@@Z 1000aac0 f i CctBoxController.obj
 0001:00009ae0       ??4PxControllerManager@physx@@QAEAAV01@ABV01@@Z 1000aae0 f i CctBoxController.obj
 0001:00009b00       ??4PxFoundation@physx@@QAEAAV01@ABV01@@Z 1000ab00 f i CctBoxController.obj
 0001:00009b20       ??4PxQuat@physx@@QAEAAV01@ABV01@@Z 1000ab20 f i CctBoxController.obj
 0001:00009b70       ??4PxVec3@physx@@QAEAAV01@ABV01@@Z 1000ab70 f i CctBoxController.obj
 0001:00009bb0       ??DPxVec3@physx@@QBE?AV01@M@Z 1000abb0 f i CctBoxController.obj
 0001:00009c20       ??GPxExtendedVec3@physx@@QBE?AVPxVec3@1@ABU01@@Z 1000ac20 f i CctBoxController.obj
 0001:00009ca0       ??HPxExtendedVec3@physx@@QBE?AU01@ABU01@@Z 1000aca0 f i CctBoxController.obj
 0001:00009d20       ??XPxExtendedVec3@physx@@QAEAAU01@ABM@Z 1000ad20 f i CctBoxController.obj
 0001:00009d90       ??XPxVec3@physx@@QAEAAV01@M@Z 1000ad90 f i CctBoxController.obj
 0001:00009df0       ??YPxExtendedVec3@physx@@QAEAAU01@ABVPxVec3@1@@Z 1000adf0 f i CctBoxController.obj
 0001:00009e60       ??ZPxExtendedVec3@physx@@QAEAAU01@ABVPxVec3@1@@Z 1000ae60 f i CctBoxController.obj
 0001:00009ed9       ??_EBoxController@Cct@physx@@W7AEPAXI@Z 1000aed9 f i CctBoxController.obj
 0001:00009ef0       ??_EPxControllerManager@physx@@MAEPAXI@Z 1000aef0 f i CctBoxController.obj
 0001:00009f90       ??_EPxFoundation@physx@@MAEPAXI@Z 1000af90 f i CctBoxController.obj
 0001:0000a030       ??_FAllocator@shdfnd@physx@@QAEXXZ 1000b030 f i CctBoxController.obj
 0001:0000a050       ??_FNamedAllocator@shdfnd@physx@@QAEXXZ 1000b050 f i CctBoxController.obj
 0001:0000a070       ??_GBoxController@Cct@physx@@UAEPAXI@Z 1000b070 f i CctBoxController.obj
 0001:0000a070       ??_EBoxController@Cct@physx@@UAEPAXI@Z 1000b070 f i CctBoxController.obj
 0001:0000a0d0       ??_GPxBoxController@physx@@MAEPAXI@Z 1000b0d0 f i CctBoxController.obj
 0001:0000a0d0       ??_EPxBoxController@physx@@MAEPAXI@Z 1000b0d0 f i CctBoxController.obj
 0001:0000a110       ??_EPxController@physx@@MAEPAXI@Z 1000b110 f i CctBoxController.obj
 0001:0000a110       ??_GPxController@physx@@MAEPAXI@Z 1000b110 f i CctBoxController.obj
 0001:0000a150       ??_GPxControllerManager@physx@@MAEPAXI@Z 1000b150 f i CctBoxController.obj
 0001:0000a190       ??_GPxFoundation@physx@@MAEPAXI@Z 1000b190 f i CctBoxController.obj
 0001:0000a1d0       ??_H@YGXPAXIIP6EPAX0@Z@Z   1000b1d0 f i CctBoxController.obj
 0001:0000a230       ??_I@YGXPAXIIP6EX0@Z@Z     1000b230 f i CctBoxController.obj
 0001:0000a2a0       ?__empty_global_delete@@YAXPAX@Z 1000b2a0 f i CctBoxController.obj
 0001:0000a2b0       ?__global_delete@@YAXPAXI@Z 1000b2b0 f i CctBoxController.obj
 0001:0000a2b0       ?__empty_global_delete@@YAXPAXI@Z 1000b2b0 f i CctBoxController.obj
 0001:0000a2c0       ?deallocate@NonTrackingAllocator@shdfnd@physx@@QAEXPAX@Z 1000b2c0 f i CctBoxController.obj
 0001:0000a300       ?getActor@BoxController@Cct@physx@@UBEPAVPxRigidDynamic@3@XZ 1000b300 f i CctBoxController.obj
 0001:0000a320       ?getCenter@physx@@YAXABUPxExtendedBounds3@1@AAUPxExtendedVec3@1@@Z 1000b320 f i CctBoxController.obj
 0001:0000a3a0       ?getContactOffset@BoxController@Cct@physx@@UBEMXZ 1000b3a0 f i CctBoxController.obj
 0001:0000a3c0       ?getExtents@physx@@YAXABUPxExtendedBounds3@1@AAVPxVec3@1@@Z 1000b3c0 f i CctBoxController.obj
 0001:0000a410       ?getHalfHeightInternal@BoxController@Cct@physx@@UBEMXZ 1000b410 f i CctBoxController.obj
 0001:0000a430       ?getNonWalkableMode@BoxController@Cct@physx@@UBE?AW4Enum@PxControllerNonWalkableMode@3@XZ 1000b430 f i CctBoxController.obj
 0001:0000a450       ?getPosition@BoxController@Cct@physx@@UBEABUPxExtendedVec3@3@XZ 1000b450 f i CctBoxController.obj
 0001:0000a470       ?getPxController@BoxController@Cct@physx@@UAEPAVPxController@3@XZ 1000b470 f i CctBoxController.obj
 0001:0000a490       ?getScene@BoxController@Cct@physx@@UAEPAVPxScene@3@XZ 1000b490 f i CctBoxController.obj
 0001:0000a4b0       ?getSlopeLimit@BoxController@Cct@physx@@UBEMXZ 1000b4b0 f i CctBoxController.obj
 0001:0000a4d0       ?getState@BoxController@Cct@physx@@UBEXAAUPxControllerState@3@@Z 1000b4d0 f i CctBoxController.obj
 0001:0000a500       ?getStats@BoxController@Cct@physx@@UBEXAAUPxControllerStats@3@@Z 1000b500 f i CctBoxController.obj
 0001:0000a530       ?getStepOffset@BoxController@Cct@physx@@UBEMXZ 1000b530 f i CctBoxController.obj
 0001:0000a550       ?getType@BoxController@Cct@physx@@UBE?AW4Enum@PxControllerShapeType@3@XZ 1000b550 f i CctBoxController.obj
 0001:0000a570       ?getUpDirection@BoxController@Cct@physx@@UBE?AVPxVec3@3@XZ 1000b570 f i CctBoxController.obj
 0001:0000a5a0       ?getUserData@BoxController@Cct@physx@@UBEPAXXZ 1000b5a0 f i CctBoxController.obj
 0001:0000a5c0       ?lock@?$MutexT@V?$ReflectionAllocator@VMutexImpl@shdfnd@physx@@@shdfnd@physx@@@shdfnd@physx@@QBEXXZ 1000b5c0 f i CctBoxController.obj
 0001:0000a5e0       ?release@BoxController@Cct@physx@@UAEXXZ 1000b5e0 f i CctBoxController.obj
 0001:0000a600       ?setCenterExtents@physx@@YAXAAUPxExtendedBounds3@1@ABUPxExtendedVec3@1@ABVPxVec3@1@@Z 1000b600 f i CctBoxController.obj
 0001:0000a690       ?setContactOffset@BoxController@Cct@physx@@UAEXM@Z 1000b690 f i CctBoxController.obj
 0001:0000a6d0       ?setNonWalkableMode@BoxController@Cct@physx@@UAEXW4Enum@PxControllerNonWalkableMode@3@@Z 1000b6d0 f i CctBoxController.obj
 0001:0000a6f0       ?setPosition@BoxController@Cct@physx@@UAE_NABUPxExtendedVec3@3@@Z 1000b6f0 f i CctBoxController.obj
 0001:0000a720       ?setSlopeLimit@BoxController@Cct@physx@@UAEXM@Z 1000b720 f i CctBoxController.obj
 0001:0000a760       ?setStepOffset@BoxController@Cct@physx@@UAEXM@Z 1000b760 f i CctBoxController.obj
 0001:0000a7a0       ?setUpDirection@BoxController@Cct@physx@@UAEXABVPxVec3@3@@Z 1000b7a0 f i CctBoxController.obj
 0001:0000a7d0       ?setUserData@BoxController@Cct@physx@@UAEXPAX@Z 1000b7d0 f i CctBoxController.obj
 0001:0000a7f0       ?unlock@?$MutexT@V?$ReflectionAllocator@VMutexImpl@shdfnd@physx@@@shdfnd@physx@@@shdfnd@physx@@QBEXXZ 1000b7f0 f i CctBoxController.obj
 0001:0000a810       ??0CapsuleController@Cct@physx@@QAE@ABVPxControllerDesc@2@AAVPxPhysics@2@PAVPxScene@2@@Z 1000b810 f   CctCapsuleController.obj
 0001:0000a910       ??1CapsuleController@Cct@physx@@UAE@XZ 1000b910 f   CctCapsuleController.obj
 0001:0000a950       ?getWorldBox@CapsuleController@Cct@physx@@UBE_NAAUPxExtendedBounds3@3@@Z 1000b950 f   CctCapsuleController.obj
 0001:0000a9d0       ?setFootPosition@CapsuleController@Cct@physx@@UAE_NABUPxExtendedVec3@3@@Z 1000b9d0 f   CctCapsuleController.obj
 0001:0000aa60       ?getFootPosition@CapsuleController@Cct@physx@@UBE?AUPxExtendedVec3@3@XZ 1000ba60 f   CctCapsuleController.obj
 0001:0000ab10       ?invalidateCache@CapsuleController@Cct@physx@@UAEXXZ 1000bb10 f   CctCapsuleController.obj
 0001:0000ab70       ?resize@CapsuleController@Cct@physx@@UAEXM@Z 1000bb70 f   CctCapsuleController.obj
 0001:0000ac40       ?getClimbingMode@CapsuleController@Cct@physx@@UBE?AW4Enum@PxCapsuleClimbingMode@3@XZ 1000bc40 f   CctCapsuleController.obj
 0001:0000ac60       ?setRadius@CapsuleController@Cct@physx@@UAE_NM@Z 1000bc60 f   CctCapsuleController.obj
 0001:0000ad40       ?setHeight@CapsuleController@Cct@physx@@UAE_NM@Z 1000bd40 f   CctCapsuleController.obj
 0001:0000ae20       ?setClimbingMode@CapsuleController@Cct@physx@@UAE_NW4Enum@PxCapsuleClimbingMode@3@@Z 1000be20 f   CctCapsuleController.obj
 0001:0000ae50       ?getCapsule@CapsuleController@Cct@physx@@QBEXAAUPxExtendedCapsule@3@@Z 1000be50 f   CctCapsuleController.obj
 0001:0000b1a0       ??0PxCapsuleController@physx@@IAE@XZ 1000c1a0 f i CctCapsuleController.obj
 0001:0000b1d0       ??0PxCapsuleGeometry@physx@@QAE@XZ 1000c1d0 f i CctCapsuleController.obj
 0001:0000b210       ??1PxCapsuleController@physx@@MAE@XZ 1000c210 f i CctCapsuleController.obj
 0001:0000b233       ??_ECapsuleController@Cct@physx@@W7AEPAXI@Z 1000c233 f i CctCapsuleController.obj
 0001:0000b240       ??_ECapsuleController@Cct@physx@@UAEPAXI@Z 1000c240 f i CctCapsuleController.obj
 0001:0000b240       ??_GCapsuleController@Cct@physx@@UAEPAXI@Z 1000c240 f i CctCapsuleController.obj
 0001:0000b2a0       ??_EPxCapsuleController@physx@@MAEPAXI@Z 1000c2a0 f i CctCapsuleController.obj
 0001:0000b2a0       ??_GPxCapsuleController@physx@@MAEPAXI@Z 1000c2a0 f i CctCapsuleController.obj
 0001:0000b2e0       ?getActor@CapsuleController@Cct@physx@@UBEPAVPxRigidDynamic@3@XZ 1000c2e0 f i CctCapsuleController.obj
 0001:0000b300       ?getContactOffset@CapsuleController@Cct@physx@@UBEMXZ 1000c300 f i CctCapsuleController.obj
 0001:0000b320       ?getHalfHeightInternal@CapsuleController@Cct@physx@@UBEMXZ 1000c320 f i CctCapsuleController.obj
 0001:0000b360       ?getHeight@CapsuleController@Cct@physx@@UBEMXZ 1000c360 f i CctCapsuleController.obj
 0001:0000b380       ?getNonWalkableMode@CapsuleController@Cct@physx@@UBE?AW4Enum@PxControllerNonWalkableMode@3@XZ 1000c380 f i CctCapsuleController.obj
 0001:0000b3a0       ?getPosition@CapsuleController@Cct@physx@@UBEABUPxExtendedVec3@3@XZ 1000c3a0 f i CctCapsuleController.obj
 0001:0000b3c0       ?getPxController@CapsuleController@Cct@physx@@UAEPAVPxController@3@XZ 1000c3c0 f i CctCapsuleController.obj
 0001:0000b3e0       ?getRadius@CapsuleController@Cct@physx@@UBEMXZ 1000c3e0 f i CctCapsuleController.obj
 0001:0000b400       ?getScene@CapsuleController@Cct@physx@@UAEPAVPxScene@3@XZ 1000c400 f i CctCapsuleController.obj
 0001:0000b420       ?getSlopeLimit@CapsuleController@Cct@physx@@UBEMXZ 1000c420 f i CctCapsuleController.obj
 0001:0000b440       ?getState@CapsuleController@Cct@physx@@UBEXAAUPxControllerState@3@@Z 1000c440 f i CctCapsuleController.obj
 0001:0000b470       ?getStats@CapsuleController@Cct@physx@@UBEXAAUPxControllerStats@3@@Z 1000c470 f i CctCapsuleController.obj
 0001:0000b4a0       ?getStepOffset@CapsuleController@Cct@physx@@UBEMXZ 1000c4a0 f i CctCapsuleController.obj
 0001:0000b4c0       ?getType@CapsuleController@Cct@physx@@UBE?AW4Enum@PxControllerShapeType@3@XZ 1000c4c0 f i CctCapsuleController.obj
 0001:0000b4e0       ?getUpDirection@CapsuleController@Cct@physx@@UBE?AVPxVec3@3@XZ 1000c4e0 f i CctCapsuleController.obj
 0001:0000b510       ?getUserData@CapsuleController@Cct@physx@@UBEPAXXZ 1000c510 f i CctCapsuleController.obj
 0001:0000b530       ?release@CapsuleController@Cct@physx@@UAEXXZ 1000c530 f i CctCapsuleController.obj
 0001:0000b550       ?setContactOffset@CapsuleController@Cct@physx@@UAEXM@Z 1000c550 f i CctCapsuleController.obj
 0001:0000b590       ?setNonWalkableMode@CapsuleController@Cct@physx@@UAEXW4Enum@PxControllerNonWalkableMode@3@@Z 1000c590 f i CctCapsuleController.obj
 0001:0000b5b0       ?setPosition@CapsuleController@Cct@physx@@UAE_NABUPxExtendedVec3@3@@Z 1000c5b0 f i CctCapsuleController.obj
 0001:0000b5e0       ?setSlopeLimit@CapsuleController@Cct@physx@@UAEXM@Z 1000c5e0 f i CctCapsuleController.obj
 0001:0000b620       ?setStepOffset@CapsuleController@Cct@physx@@UAEXM@Z 1000c620 f i CctCapsuleController.obj
 0001:0000b660       ?setUpDirection@CapsuleController@Cct@physx@@UAEXABVPxVec3@3@@Z 1000c660 f i CctCapsuleController.obj
 0001:0000b690       ?setUserData@CapsuleController@Cct@physx@@UAEXPAX@Z 1000c690 f i CctCapsuleController.obj
 0001:0000b6b0       ??0CCTParams@Cct@physx@@QAE@XZ 1000c6b0 f   CctCharacterController.obj
 0001:0000b750       ??0SweepTest@Cct@physx@@QAE@_N@Z 1000c750 f   CctCharacterController.obj
 0001:0000ba50       ??1SweepTest@Cct@physx@@QAE@XZ 1000ca50 f   CctCharacterController.obj
 0001:0000baa0       ?moveCharacter@SweepTest@Cct@physx@@QAE?AV?$PxFlags@W4Enum@PxControllerCollisionFlag@physx@@E@3@PBUInternalCBData_FindTouchedGeom@23@PAUInternalCBData_OnHit@23@AAVSweptVolume@23@ABVPxVec3@3@ABUUserObstacles@23@MABVPxControllerFilters@3@_N6AAPBVPxRigidActor@3@AAPBVPxShape@3@_K@Z 1000caa0 f   CctCharacterController.obj
 0001:0000c4b0       ?doSweepTest@SweepTest@Cct@physx@@QAE_NPBUInternalCBData_FindTouchedGeom@23@PAUInternalCBData_OnHit@23@ABUUserObstacles@23@AAVSweptVolume@23@ABVPxVec3@3@4IPAIMABVPxControllerFilters@3@W4SweepPass@23@AAPBVPxRigidActor@3@AAPBVPxShape@3@_K@Z 1000d4b0 f   CctCharacterController.obj
 0001:0000cf80       ?findTouchedObstacles@SweepTest@Cct@physx@@QAEXABUUserObstacles@23@ABUPxExtendedBounds3@3@@Z 1000df80 f   CctCharacterController.obj
 0001:0000d460       ?voidTestCache@SweepTest@Cct@physx@@QAEXXZ 1000e460 f   CctCharacterController.obj
 0001:0000d4b0       ?onRelease@SweepTest@Cct@physx@@QAEXABVPxBase@3@@Z 1000e4b0 f   CctCharacterController.obj
 0001:0000d550       ?updateCachedShapesRegistration@SweepTest@Cct@physx@@QAEXI_N@Z 1000e550 f   CctCharacterController.obj
 0001:0000d670       ?onObstacleRemoved@SweepTest@Cct@physx@@QAEXI@Z 1000e670 f   CctCharacterController.obj
 0001:0000d6a0       ?onObstacleUpdated@SweepTest@Cct@physx@@QAEXIPBVPxObstacleContext@3@ABVPxVec3@3@1M@Z 1000e6a0 f   CctCharacterController.obj
 0001:0000d800       ?onObstacleAdded@SweepTest@Cct@physx@@QAEXIPBVPxObstacleContext@3@ABVPxVec3@3@1M@Z 1000e800 f   CctCharacterController.obj
 0001:0000d980       ?onOriginShift@SweepTest@Cct@physx@@QAEXABVPxVec3@3@@Z 1000e980 f   CctCharacterController.obj
 0001:0000da90       ?updateTouchedGeoms@SweepTest@Cct@physx@@AAEXPBUInternalCBData_FindTouchedGeom@23@ABUUserObstacles@23@ABUPxExtendedBounds3@3@ABVPxControllerFilters@3@ABVPxVec3@3@@Z 1000ea90 f   CctCharacterController.obj
 0001:0000e0c0       ?findTouchedObject@Controller@Cct@physx@@IAEXABVPxControllerFilters@3@PBVPxObstacleContext@3@ABVPxVec3@3@@Z 1000f0c0 f   CctCharacterController.obj
 0001:0000e680       ?rideOnTouchedObject@Controller@Cct@physx@@IAE_NAAVSweptVolume@23@ABVPxVec3@3@AAV53@PBVPxObstacleContext@3@@Z 1000f680 f   CctCharacterController.obj
 0001:0000eae0       ?move@Controller@Cct@physx@@IAE?AV?$PxFlags@W4Enum@PxControllerCollisionFlag@physx@@E@3@AAVSweptVolume@23@ABVPxVec3@3@MMABVPxControllerFilters@3@PBVPxObstacleContext@3@_N@Z 1000fae0 f   CctCharacterController.obj
 0001:0000fb30       ?filterTouchedShape@Controller@Cct@physx@@IAE_NABVPxControllerFilters@3@@Z 10010b30 f   CctCharacterController.obj
 0001:00011ee0       ?move@BoxController@Cct@physx@@UAE?AV?$PxFlags@W4Enum@PxControllerCollisionFlag@physx@@E@3@ABVPxVec3@3@MMABVPxControllerFilters@3@PBVPxObstacleContext@3@@Z 10012ee0 f   CctCharacterController.obj
 0001:00011ff0       ?move@CapsuleController@Cct@physx@@UAE?AV?$PxFlags@W4Enum@PxControllerCollisionFlag@physx@@E@3@ABVPxVec3@3@MMABVPxControllerFilters@3@PBVPxObstacleContext@3@@Z 10012ff0 f   CctCharacterController.obj
 0001:00013ba0       ??$PX_UNUSED@I@@YAXABI@Z   10014ba0 f i CctCharacterController.obj
 0001:00013bb0       ??$PX_UNUSED@PBUPxRaycastHit@physx@@@@YAXABQBUPxRaycastHit@physx@@@Z 10014bb0 f i CctCharacterController.obj
 0001:00013bc0       ??$PX_UNUSED@W4PxIDENTITY@physx@@@@YAXABW4PxIDENTITY@physx@@@Z 10014bc0 f i CctCharacterController.obj
 0001:00013bd0       ??$PX_UNUSED@_K@@YAXAB_K@Z 10014bd0 f i CctCharacterController.obj
 0001:00013be0       ??$PxMax@I@physx@@YAIII@Z  10014be0 f i CctCharacterController.obj
 0001:00013c10       ??$PxMax@N@physx@@YANNN@Z  10014c10 f i CctCharacterController.obj
 0001:00013c50       ??$PxMin@N@physx@@YANNN@Z  10014c50 f i CctCharacterController.obj
 0001:00013c90       ??$PxUnionCast@PBVPxGeometry@physx@@PAY03$$CBE@physx@@YAPBVPxGeometry@0@PAY03$$CBE@Z 10014c90 f i CctCharacterController.obj
 0001:00013cb0       ??0?$Array@IVNamedAllocator@shdfnd@physx@@@shdfnd@physx@@QAE@ABVNamedAllocator@12@@Z 10014cb0 f i CctCharacterController.obj
 0001:00013d00       ??0?$Array@VPxTriangle@physx@@VNamedAllocator@shdfnd@2@@shdfnd@physx@@QAE@ABVNamedAllocator@12@@Z 10014d00 f i CctCharacterController.obj
 0001:00013d50       ??0?$PxFlags@W4Enum@PxControllerCollisionFlag@physx@@E@physx@@QAE@ABV01@@Z 10014d50 f i CctCharacterController.obj
 0001:00013d70       ??0?$PxFlags@W4Enum@PxControllerCollisionFlag@physx@@E@physx@@QAE@E@Z 10014d70 f i CctCharacterController.obj
 0001:00013d90       ??0?$PxFlags@W4Enum@PxHitFlag@physx@@G@physx@@QAE@ABV01@@Z 10014d90 f i CctCharacterController.obj
 0001:00013dc0       ??0?$PxFlags@W4Enum@PxHitFlag@physx@@G@physx@@QAE@G@Z 10014dc0 f i CctCharacterController.obj
 0001:00013de0       ??0?$PxFlags@W4Enum@PxHitFlag@physx@@G@physx@@QAE@W4Enum@PxHitFlag@1@@Z 10014de0 f i CctCharacterController.obj
 0001:00013e00       ??0?$PxFlags@W4Enum@PxQueryFlag@physx@@G@physx@@QAE@ABV01@@Z 10014e00 f i CctCharacterController.obj
 0001:00013e30       ??0?$PxFlags@W4Enum@PxQueryFlag@physx@@G@physx@@QAE@W4Enum@PxQueryFlag@1@@Z 10014e30 f i CctCharacterController.obj
 0001:00013e50       ??0?$PxFlags@W4Enum@PxQueryFlag@physx@@G@physx@@QAE@XZ 10014e50 f i CctCharacterController.obj
 0001:00013e70       ??0?$PxFlags@W4Enum@PxRigidBodyFlag@physx@@E@physx@@QAE@ABV01@@Z 10014e70 f i CctCharacterController.obj
 0001:00013e90       ??0?$PxFlags@W4Enum@PxShapeFlag@physx@@E@physx@@QAE@ABV01@@Z 10014e90 f i CctCharacterController.obj
 0001:00013eb0       ??0?$PxHitBuffer@UPxRaycastHit@physx@@@physx@@QAE@PAUPxRaycastHit@1@I@Z 10014eb0 f i CctCharacterController.obj
 0001:00013ef0       ??0?$PxHitCallback@UPxRaycastHit@physx@@@physx@@QAE@PAUPxRaycastHit@1@I@Z 10014ef0 f i CctCharacterController.obj
 0001:00013f50       ??0?$TouchedObject@VPxRigidActor@physx@@@Cct@physx@@QAE@_N@Z 10014f50 f i CctCharacterController.obj
 0001:00013f90       ??0?$TouchedObject@VPxShape@physx@@@Cct@physx@@QAE@_N@Z 10014f90 f i CctCharacterController.obj
 0001:00013ff0       ??0CCTFilter@Cct@physx@@QAE@XZ 10014ff0 f i CctCharacterController.obj
 0001:00014050       ??0ControllerFilter@@QAE@XZ 10015050 f i CctCharacterController.obj
 0001:00014090       ??0DebugBox@Cm@physx@@QAE@ABVPxBounds3@2@_N@Z 10015090 f i CctCharacterController.obj
 0001:000140e0       ??0DebugBox@Cm@physx@@QAE@ABVPxVec3@2@_N@Z 100150e0 f i CctCharacterController.obj
 0001:00014130       ??0PxActorShape@physx@@QAE@XZ 10015130 f i CctCharacterController.obj
 0001:00014160       ??0PxBounds3@physx@@QAE@ABVPxVec3@1@0@Z 10015160 f i CctCharacterController.obj
 0001:000141a0       ??0PxBoxGeometry@physx@@QAE@VPxVec3@1@@Z 100151a0 f i CctCharacterController.obj
 0001:000141e0       ??0PxCapsuleGeometry@physx@@QAE@MM@Z 100151e0 f i CctCharacterController.obj
 0001:00014230       ??0PxExtendedBox@physx@@QAE@ABV01@@Z 10015230 f i CctCharacterController.obj
 0001:000142b0       ??0PxExtendedBox@physx@@QAE@XZ 100152b0 f i CctCharacterController.obj
 0001:000142f0       ??0PxExtendedCapsule@physx@@QAE@XZ 100152f0 f i CctCharacterController.obj
 0001:00014310       ??0PxExtendedSegment@physx@@QAE@XZ 10015310 f i CctCharacterController.obj
 0001:00014340       ??0PxFilterData@physx@@QAE@XZ 10015340 f i CctCharacterController.obj
 0001:00014390       ??0PxLocationHit@physx@@QAE@XZ 10015390 f i CctCharacterController.obj
 0001:00014410       ??0PxMat33@physx@@QAE@ABVPxQuat@1@@Z 10015410 f i CctCharacterController.obj
 0001:00014690       ??0PxMat33@physx@@QAE@W4PxIDENTITY@1@@Z 10015690 f i CctCharacterController.obj
 0001:00014750       ??0PxMat44@physx@@QAE@ABVPxMat33@1@ABVPxVec3@1@@Z 10015750 f i CctCharacterController.obj
 0001:000147f0       ??0PxMat44@physx@@QAE@ABVPxTransform@1@@Z 100157f0 f i CctCharacterController.obj
 0001:00014870       ??0PxProfileScoped@physx@@QAE@PBD_N_K@Z 10015870 f i CctCharacterController.obj
 0001:00014910       ??0PxQuat@physx@@QAE@ABV01@@Z 10015910 f i CctCharacterController.obj
 0001:00014960       ??0PxQuat@physx@@QAE@MMMM@Z 10015960 f i CctCharacterController.obj
 0001:000149c0       ??0PxQuat@physx@@QAE@W4PxIDENTITY@1@@Z 100159c0 f i CctCharacterController.obj
 0001:00014a20       ??0PxQuat@physx@@QAE@XZ    10015a20 f i CctCharacterController.obj
 0001:00014a40       ??0PxQueryFilterCallback@physx@@QAE@XZ 10015a40 f i CctCharacterController.obj
 0001:00014a60       ??0PxQueryFilterData@physx@@QAE@ABUPxFilterData@1@V?$PxFlags@W4Enum@PxQueryFlag@physx@@G@1@@Z 10015a60 f i CctCharacterController.obj
 0001:00014ac0       ??0PxQueryHit@physx@@QAE@XZ 10015ac0 f i CctCharacterController.obj
 0001:00014af0       ??0PxRaycastHit@physx@@QAE@XZ 10015af0 f i CctCharacterController.obj
 0001:00014b30       ??0PxSphereGeometry@physx@@QAE@XZ 10015b30 f i CctCharacterController.obj
 0001:00014b60       ??0PxSweepHit@physx@@QAE@XZ 10015b60 f i CctCharacterController.obj
 0001:00014b80       ??0PxTransform@physx@@QAE@ABVPxVec3@1@ABVPxQuat@1@@Z 10015b80 f i CctCharacterController.obj
 0001:00014c10       ??0PxTransform@physx@@QAE@XZ 10015c10 f i CctCharacterController.obj
 0001:00014c40       ??0PxVec3@physx@@QAE@M@Z   10015c40 f i CctCharacterController.obj
 0001:00014c90       ??0PxVec3@physx@@QAE@XZ    10015c90 f i CctCharacterController.obj
 0001:00014cb0       ??0PxVec4@physx@@QAE@ABVPxVec3@1@M@Z 10015cb0 f i CctCharacterController.obj
 0001:00014d00       ??0PxVec4@physx@@QAE@XZ    10015d00 f i CctCharacterController.obj
 0001:00014d20       ??0SIMDGuard@shdfnd@physx@@QAE@XZ 10015d20 f i CctCharacterController.obj
 0001:00014d50       ??0SweptContact@Cct@physx@@QAE@XZ 10015d50 f i CctCharacterController.obj
 0001:00014d80       ??0TriArray@Cct@physx@@QAE@XZ 10015d80 f i CctCharacterController.obj
 0001:00014dc0       ??1?$Array@IVNamedAllocator@shdfnd@physx@@@shdfnd@physx@@QAE@XZ 10015dc0 f i CctCharacterController.obj
 0001:00014e30       ??1?$Array@VPxTriangle@physx@@VNamedAllocator@shdfnd@2@@shdfnd@physx@@QAE@XZ 10015e30 f i CctCharacterController.obj
 0001:00014ea0       ??1?$PxHitBuffer@UPxRaycastHit@physx@@@physx@@UAE@XZ 10015ea0 f i CctCharacterController.obj
 0001:00014ed0       ??1?$PxHitCallback@UPxRaycastHit@physx@@@physx@@UAE@XZ 10015ed0 f i CctCharacterController.obj
 0001:00014ef0       ??1ControllerFilter@@UAE@XZ 10015ef0 f i CctCharacterController.obj
 0001:00014f10       ??1PxExtendedBox@physx@@QAE@XZ 10015f10 f i CctCharacterController.obj
 0001:00014f20       ??1PxProfileScoped@physx@@QAE@XZ 10015f20 f i CctCharacterController.obj
 0001:00014f80       ??1PxQueryFilterCallback@physx@@UAE@XZ 10015f80 f i CctCharacterController.obj
 0001:00014fa0       ??1PxTriangle@physx@@QAE@XZ 10015fa0 f i CctCharacterController.obj
 0001:00014fb0       ??1SIMDGuard@shdfnd@physx@@QAE@XZ 10015fb0 f i CctCharacterController.obj
 0001:00014fe0       ??1TriArray@Cct@physx@@QAE@XZ 10015fe0 f i CctCharacterController.obj
 0001:00015000       ??2@YAPAXIPAX@Z            10016000 f i CctCharacterController.obj
 0001:00015010       ??4?$PxFlags@W4Enum@PxControllerCollisionFlag@physx@@E@physx@@QAEAAV01@ABV01@@Z 10016010 f i CctCharacterController.obj
 0001:00015030       ??4?$PxFlags@W4Enum@PxHitFlag@physx@@G@physx@@QAEAAV01@ABV01@@Z 10016030 f i CctCharacterController.obj
 0001:00015060       ??4?$PxFlags@W4Enum@PxQueryFlag@physx@@G@physx@@QAEAAV01@ABV01@@Z 10016060 f i CctCharacterController.obj
 0001:00015090       ??4?$TouchedObject@VPxRigidActor@physx@@@Cct@physx@@QAEAAU012@PBVPxRigidActor@2@@Z 10016090 f i CctCharacterController.obj
 0001:00015110       ??4?$TouchedObject@VPxShape@physx@@@Cct@physx@@QAEAAU012@PBVPxShape@2@@Z 10016110 f i CctCharacterController.obj
 0001:00015190       ??4CCTParams@Cct@physx@@QAEAAU012@ABU012@@Z 10016190 f i CctCharacterController.obj
 0001:00015290       ??4FPUGuard@shdfnd@physx@@QAEAAV012@ABV012@@Z 10016290 f i CctCharacterController.obj
 0001:000152c0       ??4PxExtendedBox@physx@@QAEAAV01@ABV01@@Z 100162c0 f i CctCharacterController.obj
 0001:00015340       ??4PxLocationHit@physx@@QAEAAU01@ABU01@@Z 10016340 f i CctCharacterController.obj
 0001:000153d0       ??4PxMat44@physx@@QAEAAV01@ABV01@@Z 100163d0 f i CctCharacterController.obj
 0001:00015440       ??4PxRaycastHit@physx@@QAEAAU01@ABU01@@Z 10016440 f i CctCharacterController.obj
 0001:000154c0       ??4PxTransform@physx@@QAEAAV01@$$QAV01@@Z 100164c0 f i CctCharacterController.obj
 0001:00015500       ??4PxVec4@physx@@QAEAAV01@ABV01@@Z 10016500 f i CctCharacterController.obj
 0001:00015550       ??4SweptContact@Cct@physx@@QAEAAU012@ABU012@@Z 10016550 f i CctCharacterController.obj
 0001:000155f0       ??8?$TouchedObject@VPxRigidActor@physx@@@Cct@physx@@QAE_NPBVPxBase@2@@Z 100165f0 f i CctCharacterController.obj
 0001:00015630       ??8?$TouchedObject@VPxShape@physx@@@Cct@physx@@QAE_NPBVPxBase@2@@Z 10016630 f i CctCharacterController.obj
 0001:00015670       ??8?$TouchedObject@VPxShape@physx@@@Cct@physx@@QAE_NPBVPxShape@2@@Z 10016670 f i CctCharacterController.obj
 0001:000156b0       ??A?$Array@IVNamedAllocator@shdfnd@physx@@@shdfnd@physx@@QAEAAII@Z 100166b0 f i CctCharacterController.obj
 0001:00015720       ??A?$Array@IVNamedAllocator@shdfnd@physx@@@shdfnd@physx@@QBEABII@Z 10016720 f i CctCharacterController.obj
 0001:00015790       ??A?$Array@UInternalBoxObstacle@ObstacleContext@Cct@physx@@VNamedAllocator@shdfnd@4@@shdfnd@physx@@QBEABUInternalBoxObstacle@ObstacleContext@Cct@2@I@Z 10016790 f i CctCharacterController.obj
 0001:00015800       ??A?$Array@UInternalCapsuleObstacle@ObstacleContext@Cct@physx@@VNamedAllocator@shdfnd@4@@shdfnd@physx@@QBEABUInternalCapsuleObstacle@ObstacleContext@Cct@2@I@Z 10016800 f i CctCharacterController.obj
 0001:00015870       ??A?$Array@VPxTriangle@physx@@VNamedAllocator@shdfnd@2@@shdfnd@physx@@QBEABVPxTriangle@2@I@Z 10016870 f i CctCharacterController.obj
 0001:000158e0       ??B?$PxFlags@W4Enum@PxControllerBehaviorFlag@physx@@E@physx@@QBEIXZ 100168e0 f i CctCharacterController.obj
 0001:00015900       ??B?$PxFlags@W4Enum@PxControllerDebugRenderFlag@physx@@I@physx@@QBEIXZ 10016900 f i CctCharacterController.obj
 0001:00015920       ??B?$PxFlags@W4Enum@PxQueryFlag@physx@@G@physx@@QBE_NXZ 10016920 f i CctCharacterController.obj
 0001:00015950       ??B?$PxFlags@W4Enum@PxRigidBodyFlag@physx@@E@physx@@QBE_NXZ 10016950 f i CctCharacterController.obj
 0001:00015980       ??B?$PxFlags@W4Enum@PxShapeFlag@physx@@E@physx@@QBE_NXZ 10016980 f i CctCharacterController.obj
 0001:000159b0       ??B?$TouchedObject@VPxRigidActor@physx@@@Cct@physx@@QBE_NXZ 100169b0 f i CctCharacterController.obj
 0001:000159f0       ??B?$TouchedObject@VPxShape@physx@@@Cct@physx@@QBE_NXZ 100169f0 f i CctCharacterController.obj
 0001:00015a30       ??C?$TouchedObject@VPxRigidActor@physx@@@Cct@physx@@QBEPBVPxRigidActor@2@XZ 10016a30 f i CctCharacterController.obj
 0001:00015a50       ??C?$TouchedObject@VPxShape@physx@@@Cct@physx@@QBEPBVPxShape@2@XZ 10016a50 f i CctCharacterController.obj
 0001:00015a70       ??DPxQuat@physx@@QBE?AV01@ABV01@@Z 10016a70 f i CctCharacterController.obj
 0001:00015c20       ??DPxTransform@physx@@QBE?AV01@ABV01@@Z 10016c20 f i CctCharacterController.obj
 0001:00015ca0       ??GPxVec3@physx@@QBE?AV01@ABV01@@Z 10016ca0 f i CctCharacterController.obj
 0001:00015d10       ??GPxVec3@physx@@QBE?AV01@XZ 10016d10 f i CctCharacterController.obj
 0001:00015d80       ??HPxVec3@physx@@QBE?AV01@ABV01@@Z 10016d80 f i CctCharacterController.obj
 0001:00015df0       ??I?$PxFlags@W4Enum@PxQueryFlag@physx@@G@physx@@QBE?AV01@W4Enum@PxQueryFlag@1@@Z 10016df0 f i CctCharacterController.obj
 0001:00015e40       ??I?$PxFlags@W4Enum@PxRigidBodyFlag@physx@@E@physx@@QBE?AV01@W4Enum@PxRigidBodyFlag@1@@Z 10016e40 f i CctCharacterController.obj
 0001:00015e90       ??I?$PxFlags@W4Enum@PxShapeFlag@physx@@E@physx@@QBE?AV01@W4Enum@PxShapeFlag@1@@Z 10016e90 f i CctCharacterController.obj
 0001:00015ee0       ??R?$Hash@PAVPxShape@physx@@@shdfnd@physx@@QBEIABQAVPxShape@2@@Z 10016ee0 f i CctCharacterController.obj
 0001:00015f10       ??RGetKey@?$HashSetBase@PAVPxShape@physx@@U?$Hash@PAVPxShape@physx@@@shdfnd@2@VNonTrackingAllocator@42@$0A@@internal@shdfnd@physx@@QAEABQAVPxShape@4@ABQAV54@@Z 10016f10 f i CctCharacterController.obj
 0001:00015f30       ??U?$PxFlags@W4Enum@PxQueryFlag@physx@@G@physx@@QBE?AV01@W4Enum@PxQueryFlag@1@@Z 10016f30 f i CctCharacterController.obj
 0001:00015f80       ??Uphysx@@YA?AV?$PxFlags@W4Enum@PxQueryFlag@physx@@G@0@W4Enum@PxQueryFlag@0@0@Z 10016f80 f i CctCharacterController.obj
 0001:00015fc0       ??YPxVec3@physx@@QAEAAV01@ABV01@@Z 10016fc0 f i CctCharacterController.obj
 0001:00016030       ??ZPxVec3@physx@@QAEAAV01@ABV01@@Z 10017030 f i CctCharacterController.obj
 0001:000160a0       ??_0PxVec3@physx@@QAEAAV01@M@Z 100170a0 f i CctCharacterController.obj
 0001:00016120       ??_5?$PxFlags@W4Enum@PxControllerCollisionFlag@physx@@E@physx@@QAEAAV01@W4Enum@PxControllerCollisionFlag@1@@Z 10017120 f i CctCharacterController.obj
 0001:00016150       ??_5?$PxFlags@W4Enum@PxHitFlag@physx@@G@physx@@QAEAAV01@W4Enum@PxHitFlag@1@@Z 10017150 f i CctCharacterController.obj
 0001:00016180       ??_5?$PxFlags@W4Enum@PxQueryFlag@physx@@G@physx@@QAEAAV01@W4Enum@PxQueryFlag@1@@Z 10017180 f i CctCharacterController.obj
 0001:000161b0       ??_G?$PxHitBuffer@UPxRaycastHit@physx@@@physx@@UAEPAXI@Z 100171b0 f i CctCharacterController.obj
 0001:000161b0       ??_E?$PxHitBuffer@UPxRaycastHit@physx@@@physx@@UAEPAXI@Z 100171b0 f i CctCharacterController.obj
 0001:000161f0       ??_G?$PxHitCallback@UPxRaycastHit@physx@@@physx@@UAEPAXI@Z 100171f0 f i CctCharacterController.obj
 0001:000161f0       ??_E?$PxHitCallback@UPxRaycastHit@physx@@@physx@@UAEPAXI@Z 100171f0 f i CctCharacterController.obj
 0001:00016230       ??_GControllerFilter@@UAEPAXI@Z 10017230 f i CctCharacterController.obj
 0001:00016230       ??_EControllerFilter@@UAEPAXI@Z 10017230 f i CctCharacterController.obj
 0001:00016270       ??_GPxExtendedBox@physx@@QAEPAXI@Z 10017270 f i CctCharacterController.obj
 0001:000162b0       ??_GPxQueryFilterCallback@physx@@UAEPAXI@Z 100172b0 f i CctCharacterController.obj
 0001:000162b0       ??_EPxQueryFilterCallback@physx@@UAEPAXI@Z 100172b0 f i CctCharacterController.obj
 0001:000162f0       ??_GPxTriangle@physx@@QAEPAXI@Z 100172f0 f i CctCharacterController.obj
 0001:00016330       ?PxAbs@physx@@YAMM@Z       10017330 f i CctCharacterController.obj
 0001:00016350       ?PxIsFinite@physx@@YA_NM@Z 10017350 f i CctCharacterController.obj
 0001:00016370       ?PxRecipSqrt@physx@@YAMM@Z 10017370 f i CctCharacterController.obj
 0001:00016390       ?PxSqrt@physx@@YAMM@Z      10017390 f i CctCharacterController.obj
 0001:000163b0       ?abs@intrinsics@physx@@YAMM@Z 100173b0 f i CctCharacterController.obj
 0001:000163d0       ?add@physx@@YAXAAUPxExtendedBounds3@1@ABU21@@Z 100173d0 f i CctCharacterController.obj
 0001:00016400       ?allocate@?$Array@IVNamedAllocator@shdfnd@physx@@@shdfnd@physx@@IAEPAII@Z 10017400 f i CctCharacterController.obj
 0001:00016480       ?allocate@?$Array@PBXVNamedAllocator@shdfnd@physx@@@shdfnd@physx@@IAEPAPBXI@Z 10017480 f i CctCharacterController.obj
 0001:00016500       ?allocate@?$Array@UPxExtendedCapsule@physx@@VNamedAllocator@shdfnd@2@@shdfnd@physx@@IAEPAUPxExtendedCapsule@3@I@Z 10017500 f i CctCharacterController.obj
 0001:00016580       ?allocate@?$Array@VPxExtendedBox@physx@@VNamedAllocator@shdfnd@2@@shdfnd@physx@@IAEPAVPxExtendedBox@3@I@Z 10017580 f i CctCharacterController.obj
 0001:00016600       ?any@PxGeometryHolder@physx@@QBEABVPxGeometry@2@XZ 10017600 f i CctCharacterController.obj
 0001:00016620       ?begin@?$Array@IVNamedAllocator@shdfnd@physx@@@shdfnd@physx@@QAEPAIXZ 10017620 f i CctCharacterController.obj
 0001:00016640       ?begin@?$Array@IVNamedAllocator@shdfnd@physx@@@shdfnd@physx@@QBEPBIXZ 10017640 f i CctCharacterController.obj
 0001:00016660       ?begin@?$Array@PBXVNamedAllocator@shdfnd@physx@@@shdfnd@physx@@QAEPAPBXXZ 10017660 f i CctCharacterController.obj
 0001:00016680       ?begin@?$Array@UPxExtendedCapsule@physx@@VNamedAllocator@shdfnd@2@@shdfnd@physx@@QAEPAUPxExtendedCapsule@3@XZ 10017680 f i CctCharacterController.obj
 0001:000166a0       ?begin@?$Array@VPxExtendedBox@physx@@VNamedAllocator@shdfnd@2@@shdfnd@physx@@QAEPAVPxExtendedBox@3@XZ 100176a0 f i CctCharacterController.obj
 0001:000166c0       ?capacity@?$Array@IVNamedAllocator@shdfnd@physx@@@shdfnd@physx@@QBEIXZ 100176c0 f i CctCharacterController.obj
 0001:000166e0       ?capacity@?$Array@PBXVNamedAllocator@shdfnd@physx@@@shdfnd@physx@@QBEIXZ 100176e0 f i CctCharacterController.obj
 0001:00016700       ?capacity@?$Array@UPxExtendedCapsule@physx@@VNamedAllocator@shdfnd@2@@shdfnd@physx@@QBEIXZ 10017700 f i CctCharacterController.obj
 0001:00016720       ?capacity@?$Array@VPxExtendedBox@physx@@VNamedAllocator@shdfnd@2@@shdfnd@physx@@QBEIXZ 10017720 f i CctCharacterController.obj
 0001:00016740       ?capacity@?$Array@VPxTriangle@physx@@VNamedAllocator@shdfnd@2@@shdfnd@physx@@QBEIXZ 10017740 f i CctCharacterController.obj
 0001:00016760       ?capacityIncrement@?$Array@PBXVNamedAllocator@shdfnd@physx@@@shdfnd@physx@@IBEIXZ 10017760 f i CctCharacterController.obj
 0001:000167a0       ?capacityIncrement@?$Array@UPxExtendedCapsule@physx@@VNamedAllocator@shdfnd@2@@shdfnd@physx@@IBEIXZ 100177a0 f i CctCharacterController.obj
 0001:000167e0       ?capacityIncrement@?$Array@VPxExtendedBox@physx@@VNamedAllocator@shdfnd@2@@shdfnd@physx@@IBEIXZ 100177e0 f i CctCharacterController.obj
 0001:00016820       ?clear@?$Array@IVNamedAllocator@shdfnd@physx@@@shdfnd@physx@@QAEXXZ 10017820 f i CctCharacterController.obj
 0001:00016860       ?clear@?$Array@VPxTriangle@physx@@VNamedAllocator@shdfnd@2@@shdfnd@physx@@QAEXXZ 10017860 f i CctCharacterController.obj
 0001:000168a0       ?clear@TriArray@Cct@physx@@QAEXXZ 100178a0 f i CctCharacterController.obj
 0001:000168c0       ?computeTimeCoeff@Controller@Cct@physx@@IAEMXZ 100178c0 f i CctCharacterController.obj
 0001:00016930       ?contains@?$HashSetBase@PAVPxShape@physx@@U?$Hash@PAVPxShape@physx@@@shdfnd@2@VNonTrackingAllocator@42@$0A@@internal@shdfnd@physx@@QBE_NABQAVPxShape@4@@Z 10017930 f i CctCharacterController.obj
 0001:00016970       ?copy@?$Array@IVNamedAllocator@shdfnd@physx@@@shdfnd@physx@@KAXPAI0PBI@Z 10017970 f i CctCharacterController.obj
 0001:00016a20       ?copy@?$Array@PBXVNamedAllocator@shdfnd@physx@@@shdfnd@physx@@KAXPAPBX0PBQBX@Z 10017a20 f i CctCharacterController.obj
 0001:00016ad0       ?copy@?$Array@UPxExtendedCapsule@physx@@VNamedAllocator@shdfnd@2@@shdfnd@physx@@KAXPAUPxExtendedCapsule@3@0PBU43@@Z 10017ad0 f i CctCharacterController.obj
 0001:00016ba0       ?copy@?$Array@VPxExtendedBox@physx@@VNamedAllocator@shdfnd@2@@shdfnd@physx@@KAXPAVPxExtendedBox@3@0PBV43@@Z 10017ba0 f i CctCharacterController.obj
 0001:00016c60       ?cross@PxVec3@physx@@QBE?AV12@ABV12@@Z 10017c60 f i CctCharacterController.obj
 0001:00016d20       ?deallocate@?$Array@IVNamedAllocator@shdfnd@physx@@@shdfnd@physx@@IAEXPAX@Z 10017d20 f i CctCharacterController.obj
 0001:00016d40       ?deallocate@?$Array@PBXVNamedAllocator@shdfnd@physx@@@shdfnd@physx@@IAEXPAX@Z 10017d40 f i CctCharacterController.obj
 0001:00016d60       ?deallocate@?$Array@UPxExtendedCapsule@physx@@VNamedAllocator@shdfnd@2@@shdfnd@physx@@IAEXPAX@Z 10017d60 f i CctCharacterController.obj
 0001:00016d80       ?deallocate@?$Array@VPxExtendedBox@physx@@VNamedAllocator@shdfnd@2@@shdfnd@physx@@IAEXPAX@Z 10017d80 f i CctCharacterController.obj
 0001:00016da0       ?deallocate@?$Array@VPxTriangle@physx@@VNamedAllocator@shdfnd@2@@shdfnd@physx@@IAEXPAX@Z 10017da0 f i CctCharacterController.obj
 0001:00016dc0       ?decomposeVector@shdfnd@physx@@YAXAAVPxVec3@2@0ABV32@1@Z 10017dc0 f i CctCharacterController.obj
 0001:00016e30       ?destroy@?$Array@IVNamedAllocator@shdfnd@physx@@@shdfnd@physx@@KAXPAI0@Z 10017e30 f i CctCharacterController.obj
 0001:00016e60       ?destroy@?$Array@PBXVNamedAllocator@shdfnd@physx@@@shdfnd@physx@@KAXPAPBX0@Z 10017e60 f i CctCharacterController.obj
 0001:00016e90       ?destroy@?$Array@UPxExtendedCapsule@physx@@VNamedAllocator@shdfnd@2@@shdfnd@physx@@KAXPAUPxExtendedCapsule@3@0@Z 10017e90 f i CctCharacterController.obj
 0001:00016ec0       ?destroy@?$Array@VPxExtendedBox@physx@@VNamedAllocator@shdfnd@2@@shdfnd@physx@@KAXPAVPxExtendedBox@3@0@Z 10017ec0 f i CctCharacterController.obj
 0001:00016f00       ?destroy@?$Array@VPxTriangle@physx@@VNamedAllocator@shdfnd@2@@shdfnd@physx@@KAXPAVPxTriangle@3@0@Z 10017f00 f i CctCharacterController.obj
 0001:00016f40       ?dot@PxExtendedVec3@physx@@QBENABVPxVec3@2@@Z 10017f40 f i CctCharacterController.obj
 0001:00016fa0       ?dot@PxVec3@physx@@QBEMABV12@@Z 10017fa0 f i CctCharacterController.obj
 0001:00017000       ?encodeUserObject@Cct@physx@@YAIIW4UserObjectType@12@@Z 10018000 f i CctCharacterController.obj
 0001:000170b0       ?end@?$Array@IVNamedAllocator@shdfnd@physx@@@shdfnd@physx@@QAEPAIXZ 100180b0 f i CctCharacterController.obj
 0001:000170d0       ?end@?$Array@IVNamedAllocator@shdfnd@physx@@@shdfnd@physx@@QBEPBIXZ 100180d0 f i CctCharacterController.obj
 0001:000170f0       ?equal@?$Hash@PAVPxShape@physx@@@shdfnd@physx@@QBE_NABQAVPxShape@3@0@Z 100180f0 f i CctCharacterController.obj
 0001:00017130       ?finalizeQuery@?$PxHitCallback@UPxRaycastHit@physx@@@physx@@UAEXXZ 10018130 f i CctCharacterController.obj
 0001:00017140       ?find@?$HashBase@PAVPxShape@physx@@PAV12@U?$Hash@PAVPxShape@physx@@@shdfnd@2@UGetKey@?$HashSetBase@PAVPxShape@physx@@U?$Hash@PAVPxShape@physx@@@shdfnd@2@VNonTrackingAllocator@42@$0A@@internal@42@VNonTrackingAllocator@42@$0A@@internal@shdfnd@physx@@QBEPBQAVPxShape@4@ABQAV54@@Z 10018140 f i CctCharacterController.obj
 0001:00017210       ?forceSize_Unsafe@?$Array@IVNamedAllocator@shdfnd@physx@@@shdfnd@physx@@QAEXI@Z 10018210 f i CctCharacterController.obj
 0001:00017280       ?forceSize_Unsafe@?$Array@VPxTriangle@physx@@VNamedAllocator@shdfnd@2@@shdfnd@physx@@QAEXI@Z 10018280 f i CctCharacterController.obj
 0001:000172f0       ?forceSize_Unsafe@TriArray@Cct@physx@@QAEXI@Z 100182f0 f i CctCharacterController.obj
 0001:00017310       ?get@?$TouchedObject@VPxRigidActor@physx@@@Cct@physx@@QBEPBVPxRigidActor@3@XZ 10018310 f i CctCharacterController.obj
 0001:00017330       ?get@?$TouchedObject@VPxShape@physx@@@Cct@physx@@QBEPBVPxShape@3@XZ 10018330 f i CctCharacterController.obj
 0001:00017350       ?getAnyHit@?$PxHitBuffer@UPxRaycastHit@physx@@@physx@@QBEABUPxRaycastHit@2@I@Z 10018350 f i CctCharacterController.obj
 0001:00017400       ?getBasisVector0@PxQuat@physx@@QBE?AVPxVec3@2@XZ 10018400 f i CctCharacterController.obj
 0001:000174f0       ?getCenter@PxBounds3@physx@@QBE?AVPxVec3@2@XZ 100184f0 f i CctCharacterController.obj
 0001:000175a0       ?getConcreteType@PxBase@physx@@QBEGXZ 100185a0 f i CctCharacterController.obj
 0001:000175c0       ?getContextId@Controller@Cct@physx@@QBE_KXZ 100185c0 f i CctCharacterController.obj
 0001:000175e0       ?getDimensions@PxBounds3@physx@@QBE?AVPxVec3@2@XZ 100185e0 f i CctCharacterController.obj
 0001:00017670       ?getExtents@PxBounds3@physx@@QBE?AVPxVec3@2@XZ 10018670 f i CctCharacterController.obj
 0001:00017710       ?getGlobalPose@PxShapeExt@physx@@SA?AVPxTransform@2@ABVPxShape@2@ABVPxRigidActor@2@@Z 10018710 f i CctCharacterController.obj
 0001:00017760       ?getNbTouches@?$PxHitBuffer@UPxRaycastHit@physx@@@physx@@QBEIXZ 10018760 f i CctCharacterController.obj
 0001:00017780       ?getNormalized@PxVec3@physx@@QBE?AV12@XZ 10018780 f i CctCharacterController.obj
 0001:00017830       ?getShapeGlobalPose@physx@@YA?AVPxTransform@1@ABVPxShape@1@ABVPxRigidActor@1@@Z 10018830 f i CctCharacterController.obj
 0001:00017860       ?getTouches@?$PxHitBuffer@UPxRaycastHit@physx@@@physx@@QBEPBUPxRaycastHit@2@XZ 10018860 f i CctCharacterController.obj
 0001:00017880       ?getTriangle@TriArray@Cct@physx@@QBEABVPxTriangle@3@I@Z 10018880 f i CctCharacterController.obj
 0001:000178a0       ?getType@SweptVolume@Cct@physx@@QBE?AW4Enum@SweptVolumeType@23@XZ 100188a0 f i CctCharacterController.obj
 0001:000178c0       ?grow@?$Array@IVNamedAllocator@shdfnd@physx@@@shdfnd@physx@@IAEXI@Z 100188c0 f i CctCharacterController.obj
 0001:00017940       ?growAndPushBack@?$Array@PBXVNamedAllocator@shdfnd@physx@@@shdfnd@physx@@IAEAAPBXABQBX@Z 10018940 f i CctCharacterController.obj
 0001:00017ad0       ?growAndPushBack@?$Array@UPxExtendedCapsule@physx@@VNamedAllocator@shdfnd@2@@shdfnd@physx@@IAEAAUPxExtendedCapsule@3@ABU43@@Z 10018ad0 f i CctCharacterController.obj
 0001:00017c60       ?growAndPushBack@?$Array@VPxExtendedBox@physx@@VNamedAllocator@shdfnd@2@@shdfnd@physx@@IAEAAVPxExtendedBox@3@ABV43@@Z 10018c60 f i CctCharacterController.obj
 0001:00017de0       ?hash@?$HashBase@PAVPxShape@physx@@PAV12@U?$Hash@PAVPxShape@physx@@@shdfnd@2@UGetKey@?$HashSetBase@PAVPxShape@physx@@U?$Hash@PAVPxShape@physx@@@shdfnd@2@VNonTrackingAllocator@42@$0A@@internal@42@VNonTrackingAllocator@42@$0A@@internal@shdfnd@physx@@ABEIABQAVPxShape@4@@Z 10018de0 f i CctCharacterController.obj
 0001:00017e10       ?hash@?$HashBase@PAVPxShape@physx@@PAV12@U?$Hash@PAVPxShape@physx@@@shdfnd@2@UGetKey@?$HashSetBase@PAVPxShape@physx@@U?$Hash@PAVPxShape@physx@@@shdfnd@2@VNonTrackingAllocator@42@$0A@@internal@42@VNonTrackingAllocator@42@$0A@@internal@shdfnd@physx@@ABEIABQAVPxShape@4@I@Z 10018e10 f i CctCharacterController.obj
 0001:00017e40       ?hash@shdfnd@physx@@YAII@Z 10018e40 f i CctCharacterController.obj
 0001:00017ec0       ?hash@shdfnd@physx@@YAIPBX@Z 10018ec0 f i CctCharacterController.obj
 0001:00017ee0       ?intersectOBBAABB@Gu@physx@@YA_NABVBox@12@ABVPxBounds3@2@@Z 10018ee0 f i CctCharacterController.obj
 0001:00017f50       ?isAlmostZero@shdfnd@physx@@YA_NABVPxVec3@2@@Z 10018f50 f i CctCharacterController.obj
 0001:00018000       ?isArrayOfPOD@?$Array@IVNamedAllocator@shdfnd@physx@@@shdfnd@physx@@SA_NXZ 10019000 f i CctCharacterController.obj
 0001:00018010       ?isArrayOfPOD@?$Array@PBXVNamedAllocator@shdfnd@physx@@@shdfnd@physx@@SA_NXZ 10019010 f i CctCharacterController.obj
 0001:00018020       ?isArrayOfPOD@?$Array@UPxExtendedCapsule@physx@@VNamedAllocator@shdfnd@2@@shdfnd@physx@@SA_NXZ 10019020 f i CctCharacterController.obj
 0001:00018030       ?isArrayOfPOD@?$Array@VPxExtendedBox@physx@@VNamedAllocator@shdfnd@2@@shdfnd@physx@@SA_NXZ 10019030 f i CctCharacterController.obj
 0001:00018040       ?isArrayOfPOD@?$Array@VPxTriangle@physx@@VNamedAllocator@shdfnd@2@@shdfnd@physx@@SA_NXZ 10019040 f i CctCharacterController.obj
 0001:00018050       ?isFinite@PxBounds3@physx@@QBE_NXZ 10019050 f i CctCharacterController.obj
 0001:000180b0       ?isFinite@PxQuat@physx@@QBE_NXZ 100190b0 f i CctCharacterController.obj
 0001:00018170       ?isFinite@PxTransform@physx@@QBE_NXZ 10019170 f i CctCharacterController.obj
 0001:000181d0       ?isFinite@PxVec3@physx@@QBE_NXZ 100191d0 f i CctCharacterController.obj
 0001:00018270       ?isFinite@intrinsics@physx@@YA_NM@Z 10019270 f i CctCharacterController.obj
 0001:000182c0       ?isInUserMemory@?$Array@IVNamedAllocator@shdfnd@physx@@@shdfnd@physx@@QBEIXZ 100192c0 f i CctCharacterController.obj
 0001:000182e0       ?isInUserMemory@?$Array@PBXVNamedAllocator@shdfnd@physx@@@shdfnd@physx@@QBEIXZ 100192e0 f i CctCharacterController.obj
 0001:00018300       ?isInUserMemory@?$Array@UPxExtendedCapsule@physx@@VNamedAllocator@shdfnd@2@@shdfnd@physx@@QBEIXZ 10019300 f i CctCharacterController.obj
 0001:00018320       ?isInUserMemory@?$Array@VPxExtendedBox@physx@@VNamedAllocator@shdfnd@2@@shdfnd@physx@@QBEIXZ 10019320 f i CctCharacterController.obj
 0001:00018340       ?isInUserMemory@?$Array@VPxTriangle@physx@@VNamedAllocator@shdfnd@2@@shdfnd@physx@@QBEIXZ 10019340 f i CctCharacterController.obj
 0001:00018360       ?isInside@PxExtendedBounds3@physx@@QBE_NABU12@@Z 10019360 f i CctCharacterController.obj
 0001:00018420       ?isSane@PxQuat@physx@@QBE_NXZ 10019420 f i CctCharacterController.obj
 0001:000184b0       ?isSane@PxTransform@physx@@QBE_NXZ 100194b0 f i CctCharacterController.obj
 0001:00018500       ?isValid@PxBounds3@physx@@QBE_NXZ 10019500 f i CctCharacterController.obj
 0001:00018620       ?isZero@PxVec3@physx@@QBE_NXZ 10019620 f i CctCharacterController.obj
 0001:000186a0       ?magnitude@PxQuat@physx@@QBEMXZ 100196a0 f i CctCharacterController.obj
 0001:000186d0       ?magnitude@PxVec3@physx@@QBEMXZ 100196d0 f i CctCharacterController.obj
 0001:00018700       ?magnitudeSquared@PxQuat@physx@@QBEMXZ 10019700 f i CctCharacterController.obj
 0001:00018780       ?magnitudeSquared@PxVec3@physx@@QBEMXZ 10019780 f i CctCharacterController.obj
 0001:000187e0       ?maximum@PxExtendedVec3@physx@@QAEXABU12@@Z 100197e0 f i CctCharacterController.obj
 0001:00018870       ?memCopy@intrinsics@physx@@YAPAXPIAXPIBXI@Z 10019870 f i CctCharacterController.obj
 0001:00018890       ?minimum@PxExtendedVec3@physx@@QAEXABU12@@Z 10019890 f i CctCharacterController.obj
 0001:00018920       ?normal@PxTriangle@physx@@QBEXAAVPxVec3@2@@Z 10019920 f i CctCharacterController.obj
 0001:000189b0       ?normalize@PxVec3@physx@@QAEMXZ 100199b0 f i CctCharacterController.obj
 0001:00018a00       ?postFilter@ControllerFilter@@UAE?AW4Enum@PxQueryHitType@physx@@ABUPxFilterData@4@ABUPxQueryHit@4@@Z 10019a00 f i CctCharacterController.obj
 0001:00018ac0       ?preFilter@ControllerFilter@@UAE?AW4Enum@PxQueryHitType@physx@@ABUPxFilterData@4@PBVPxShape@4@PBVPxRigidActor@4@AAV?$PxFlags@W4Enum@PxHitFlag@physx@@G@4@@Z 10019ac0 f i CctCharacterController.obj
 0001:00018ba0       ?processTouches@?$PxHitBuffer@UPxRaycastHit@physx@@@physx@@MAE_NPBUPxRaycastHit@2@I@Z 10019ba0 f i CctCharacterController.obj
 0001:00018bd0       ?pushBack@?$Array@PBXVNamedAllocator@shdfnd@physx@@@shdfnd@physx@@QAEAAPBXABQBX@Z 10019bd0 f i CctCharacterController.obj
 0001:00018c80       ?pushBack@?$Array@UPxExtendedCapsule@physx@@VNamedAllocator@shdfnd@2@@shdfnd@physx@@QAEAAUPxExtendedCapsule@3@ABU43@@Z 10019c80 f i CctCharacterController.obj
 0001:00018d40       ?pushBack@?$Array@VPxExtendedBox@physx@@VNamedAllocator@shdfnd@2@@shdfnd@physx@@QAEAAVPxExtendedBox@3@ABV43@@Z 10019d40 f i CctCharacterController.obj
 0001:00018df0       ?recipSqrt@intrinsics@physx@@YAMM@Z 10019df0 f i CctCharacterController.obj
 0001:00018e40       ?recreate@?$Array@IVNamedAllocator@shdfnd@physx@@@shdfnd@physx@@IAEXI@Z 10019e40 f i CctCharacterController.obj
 0001:00018f50       ?reserve@?$Array@IVNamedAllocator@shdfnd@physx@@@shdfnd@physx@@QAEXI@Z 10019f50 f i CctCharacterController.obj
 0001:00018f80       ?resetStats@SweepTest@Cct@physx@@QAEXXZ 10019f80 f i CctCharacterController.obj
 0001:00018fd0       ?rotate@PxQuat@physx@@QBE?BVPxVec3@2@ABV32@@Z 10019fd0 f i CctCharacterController.obj
 0001:000191c0       ?rotateInv@PxQuat@physx@@QBE?BVPxVec3@2@ABV32@@Z 1001a1c0 f i CctCharacterController.obj
 0001:000193b0       ?selectMax@intrinsics@physx@@YAMMM@Z 1001a3b0 f i CctCharacterController.obj
 0001:000193f0       ?selectMin@intrinsics@physx@@YAMMM@Z 1001a3f0 f i CctCharacterController.obj
 0001:00019430       ?set@PxExtendedBounds3@physx@@QAEXNNNNNN@Z 1001a430 f i CctCharacterController.obj
 0001:000194c0       ?set@PxExtendedVec3@physx@@QAEXNNN@Z 1001a4c0 f i CctCharacterController.obj
 0001:00019500       ?setEmpty@PxExtendedBounds3@physx@@QAEXXZ 1001a500 f i CctCharacterController.obj
 0001:00019590       ?setWorldPos@SweptContact@Cct@physx@@QAEXABVPxVec3@3@ABUPxExtendedVec3@3@@Z 1001a590 f i CctCharacterController.obj
 0001:00019600       ?size@?$Array@IVNamedAllocator@shdfnd@physx@@@shdfnd@physx@@QBEIXZ 1001a600 f i CctCharacterController.obj
 0001:00019620       ?size@?$Array@PBXVNamedAllocator@shdfnd@physx@@@shdfnd@physx@@QBEIXZ 1001a620 f i CctCharacterController.obj
 0001:00019640       ?size@?$Array@UInternalBoxObstacle@ObstacleContext@Cct@physx@@VNamedAllocator@shdfnd@4@@shdfnd@physx@@QBEIXZ 1001a640 f i CctCharacterController.obj
 0001:00019660       ?size@?$Array@UInternalCapsuleObstacle@ObstacleContext@Cct@physx@@VNamedAllocator@shdfnd@4@@shdfnd@physx@@QBEIXZ 1001a660 f i CctCharacterController.obj
 0001:00019680       ?size@?$Array@UPxExtendedCapsule@physx@@VNamedAllocator@shdfnd@2@@shdfnd@physx@@QBEIXZ 1001a680 f i CctCharacterController.obj
 0001:000196a0       ?size@?$Array@VPxExtendedBox@physx@@VNamedAllocator@shdfnd@2@@shdfnd@physx@@QBEIXZ 1001a6a0 f i CctCharacterController.obj
 0001:000196c0       ?size@?$Array@VPxTriangle@physx@@VNamedAllocator@shdfnd@2@@shdfnd@physx@@QBEIXZ 1001a6c0 f i CctCharacterController.obj
 0001:000196e0       ?size@TriArray@Cct@physx@@QBEIXZ 1001a6e0 f i CctCharacterController.obj
 0001:00019700       ?sqrt@intrinsics@physx@@YAMM@Z 1001a700 f i CctCharacterController.obj
 0001:00019720       ?testSlope@physx@@YA_NABVPxVec3@1@0M@Z 1001a720 f i CctCharacterController.obj
 0001:00019780       ?toVec3@physx@@YA?AVPxVec3@1@ABUPxExtendedVec3@1@@Z 1001a780 f i CctCharacterController.obj
 0001:000197d0       ?transform@PxTransform@physx@@QBE?AV12@ABV12@@Z 1001a7d0 f i CctCharacterController.obj
 0001:000198e0       ?transform@PxTransform@physx@@QBE?AVPxVec3@2@ABV32@@Z 1001a8e0 f i CctCharacterController.obj
 0001:00019980       ?transformInv@PxTransform@physx@@QBE?AVPxVec3@2@ABV32@@Z 1001a980 f i CctCharacterController.obj
 0001:00019a10       _fabsf                     1001aa10 f i CctCharacterController.obj
 0001:00019a40       _sqrtf                     1001aa40 f i CctCharacterController.obj
 0001:00019ac0       ?getSceneTimestamp@Cct@physx@@YAIPBUInternalCBData_FindTouchedGeom@12@@Z 1001aac0 f   CctCharacterControllerCallbacks.obj
 0001:00019b30       ?findTouchedGeometry@Cct@physx@@YAXPBUInternalCBData_FindTouchedGeom@12@ABUPxExtendedBounds3@2@AAVTriArray@12@AAV?$Array@IVNamedAllocator@shdfnd@physx@@@shdfnd@2@3ABVCCTFilter@12@ABUCCTParams@12@AAG@Z 1001ab30 f   CctCharacterControllerCallbacks.obj
 0001:00019fe0       ?shapeHitCallback@Cct@physx@@YAIPBUInternalCBData_OnHit@12@ABUSweptContact@12@ABVPxVec3@2@M@Z 1001afe0 f   CctCharacterControllerCallbacks.obj
 0001:0001a0a0       ?userHitCallback@Cct@physx@@YAIPBUInternalCBData_OnHit@12@ABUSweptContact@12@ABVPxVec3@2@M@Z 1001b0a0 f   CctCharacterControllerCallbacks.obj
 0001:0001ded0       ??$PX_UNUSED@PBUPxOverlapHit@physx@@@@YAXABQBUPxOverlapHit@physx@@@Z 1001eed0 f i CctCharacterControllerCallbacks.obj
 0001:0001dee0       ??0?$PxFlags@W4Enum@PxConvexMeshGeometryFlag@physx@@E@physx@@QAE@XZ 1001eee0 f i CctCharacterControllerCallbacks.obj
 0001:0001df00       ??0?$PxFlags@W4Enum@PxMeshGeometryFlag@physx@@E@physx@@QAE@E@Z 1001ef00 f i CctCharacterControllerCallbacks.obj
 0001:0001df20       ??0?$PxFlags@W4Enum@PxMeshGeometryFlag@physx@@E@physx@@QAE@XZ 1001ef20 f i CctCharacterControllerCallbacks.obj
 0001:0001df40       ??0?$PxHitBuffer@UPxOverlapHit@physx@@@physx@@QAE@PAUPxOverlapHit@1@I@Z 1001ef40 f i CctCharacterControllerCallbacks.obj
 0001:0001df80       ??0?$PxHitCallback@UPxOverlapHit@physx@@@physx@@QAE@PAUPxOverlapHit@1@I@Z 1001ef80 f i CctCharacterControllerCallbacks.obj
 0001:0001dfe0       ??0?$PxPadding@$02@physx@@QAE@XZ 1001efe0 f i CctCharacterControllerCallbacks.obj
 0001:0001e030       ??0PxControllerHit@physx@@QAE@XZ 1001f030 f i CctCharacterControllerCallbacks.obj
 0001:0001e070       ??0PxControllerObstacleHit@physx@@QAE@XZ 1001f070 f i CctCharacterControllerCallbacks.obj
 0001:0001e090       ??0PxControllerShapeHit@physx@@QAE@XZ 1001f090 f i CctCharacterControllerCallbacks.obj
 0001:0001e0b0       ??0PxControllersHit@physx@@QAE@XZ 1001f0b0 f i CctCharacterControllerCallbacks.obj
 0001:0001e0d0       ??0PxConvexMeshGeometry@physx@@QAE@XZ 1001f0d0 f i CctCharacterControllerCallbacks.obj
 0001:0001e140       ??0PxExtendedSphere@physx@@QAE@XZ 1001f140 f i CctCharacterControllerCallbacks.obj
 0001:0001e160       ??0PxHeightFieldGeometry@physx@@QAE@XZ 1001f160 f i CctCharacterControllerCallbacks.obj
 0001:0001e1f0       ??0PxMat33@physx@@QAE@ABVPxVec3@1@00@Z 1001f1f0 f i CctCharacterControllerCallbacks.obj
 0001:0001e240       ??0PxMeshScale@physx@@QAE@M@Z 1001f240 f i CctCharacterControllerCallbacks.obj
 0001:0001e280       ??0PxMeshScale@physx@@QAE@XZ 1001f280 f i CctCharacterControllerCallbacks.obj
 0001:0001e2c0       ??0PxOverlapHit@physx@@QAE@XZ 1001f2c0 f i CctCharacterControllerCallbacks.obj
 0001:0001e2e0       ??0PxPlane@physx@@QAE@ABVPxVec3@1@M@Z 1001f2e0 f i CctCharacterControllerCallbacks.obj
 0001:0001e320       ??0PxPlane@physx@@QAE@MMMM@Z 1001f320 f i CctCharacterControllerCallbacks.obj
 0001:0001e380       ??0PxQueryFilterData@physx@@QAE@$$QAU01@@Z 1001f380 f i CctCharacterControllerCallbacks.obj
 0001:0001e3e0       ??0PxQueryFilterData@physx@@QAE@V?$PxFlags@W4Enum@PxQueryFlag@physx@@G@1@@Z 1001f3e0 f i CctCharacterControllerCallbacks.obj
 0001:0001e420       ??0PxTransform@physx@@QAE@ABVPxVec3@1@@Z 1001f420 f i CctCharacterControllerCallbacks.obj
 0001:0001e460       ??0PxTriangle@physx@@QAE@ABV01@@Z 1001f460 f i CctCharacterControllerCallbacks.obj
 0001:0001e500       ??0PxTriangle@physx@@QAE@ABVPxVec3@1@00@Z 1001f500 f i CctCharacterControllerCallbacks.obj
 0001:0001e580       ??0PxTriangle@physx@@QAE@XZ 1001f580 f i CctCharacterControllerCallbacks.obj
 0001:0001e5b0       ??0PxTriangleMeshGeometry@physx@@QAE@XZ 1001f5b0 f i CctCharacterControllerCallbacks.obj
 0001:0001e610       ??0PxVec4@physx@@QAE@MMMM@Z 1001f610 f i CctCharacterControllerCallbacks.obj
 0001:0001e670       ??0TessParams@@QAE@XZ      1001f670 f i CctCharacterControllerCallbacks.obj
 0001:0001e6a0       ??0TrianglePadded@Gu@physx@@QAE@XZ 1001f6a0 f i CctCharacterControllerCallbacks.obj
 0001:0001e6c0       ??0Vec3p@Gu@physx@@QAE@ABVPxVec3@2@@Z 1001f6c0 f i CctCharacterControllerCallbacks.obj
 0001:0001e6f0       ??1?$PxHitBuffer@UPxOverlapHit@physx@@@physx@@UAE@XZ 1001f6f0 f i CctCharacterControllerCallbacks.obj
 0001:0001e720       ??1?$PxHitCallback@UPxOverlapHit@physx@@@physx@@UAE@XZ 1001f720 f i CctCharacterControllerCallbacks.obj
 0001:0001e740       ??1PxExtendedSphere@physx@@QAE@XZ 1001f740 f i CctCharacterControllerCallbacks.obj
 0001:0001e750       ??1TrianglePadded@Gu@physx@@QAE@XZ 1001f750 f i CctCharacterControllerCallbacks.obj
 0001:0001e770       ??1Vec3p@Gu@physx@@QAE@XZ  1001f770 f i CctCharacterControllerCallbacks.obj
 0001:0001e780       ??APxVec3@physx@@QBEABMI@Z 1001f780 f i CctCharacterControllerCallbacks.obj
 0001:0001e7f0       ??DPxMat33@physx@@QBE?BV01@ABV01@@Z 1001f7f0 f i CctCharacterControllerCallbacks.obj
 0001:0001e860       ??DPxVec4@physx@@QBE?AV01@M@Z 1001f860 f i CctCharacterControllerCallbacks.obj
 0001:0001e8e0       ??HPxVec4@physx@@QBE?AV01@ABV01@@Z 1001f8e0 f i CctCharacterControllerCallbacks.obj
 0001:0001e970       ??_E?$PxHitBuffer@UPxOverlapHit@physx@@@physx@@UAEPAXI@Z 1001f970 f i CctCharacterControllerCallbacks.obj
 0001:0001e970       ??_G?$PxHitBuffer@UPxOverlapHit@physx@@@physx@@UAEPAXI@Z 1001f970 f i CctCharacterControllerCallbacks.obj
 0001:0001e9b0       ??_G?$PxHitCallback@UPxOverlapHit@physx@@@physx@@UAEPAXI@Z 1001f9b0 f i CctCharacterControllerCallbacks.obj
 0001:0001e9b0       ??_E?$PxHitCallback@UPxOverlapHit@physx@@@physx@@UAEPAXI@Z 1001f9b0 f i CctCharacterControllerCallbacks.obj
 0001:0001e9f0       ?FLoad@aos@shdfnd@physx@@YA?AT__m128@@M@Z 1001f9f0 f i CctCharacterControllerCallbacks.obj
 0001:0001ea30       ?PxPlaneEquationFromTransform@physx@@YA?AVPxPlane@1@ABVPxTransform@1@@Z 1001fa30 f i CctCharacterControllerCallbacks.obj
 0001:0001ea90       ?V3Load@aos@shdfnd@physx@@YA?AT__m128@@M@Z 1001fa90 f i CctCharacterControllerCallbacks.obj
 0001:0001eaf0       ?V4Load@aos@shdfnd@physx@@YA?AT__m128@@M@Z 1001faf0 f i CctCharacterControllerCallbacks.obj
 0001:0001eb30       ?allocate@?$Array@VPxTriangle@physx@@VNamedAllocator@shdfnd@2@@shdfnd@physx@@IAEPAVPxTriangle@3@I@Z 1001fb30 f i CctCharacterControllerCallbacks.obj
 0001:0001ebb0       ?capacityIncrement@?$Array@IVNamedAllocator@shdfnd@physx@@@shdfnd@physx@@IBEIXZ 1001fbb0 f i CctCharacterControllerCallbacks.obj
 0001:0001ebf0       ?centerExtents@PxBounds3@physx@@SA?AV12@ABVPxVec3@2@0@Z 1001fbf0 f i CctCharacterControllerCallbacks.obj
 0001:0001ec40       ?computeBasis@shdfnd@physx@@YAXABVPxVec3@2@AAV32@1@Z 1001fc40 f i CctCharacterControllerCallbacks.obj
 0001:0001ee00       ?copy@?$Array@VPxTriangle@physx@@VNamedAllocator@shdfnd@2@@shdfnd@physx@@KAXPAVPxTriangle@3@0PBV43@@Z 1001fe00 f i CctCharacterControllerCallbacks.obj
 0001:0001eec0       ?decodeIndex@Cct@physx@@YAII@Z 1001fec0 f i CctCharacterControllerCallbacks.obj
 0001:0001eed0       ?decodeType@Cct@physx@@YA?AW4UserObjectType@12@I@Z 1001fed0 f i CctCharacterControllerCallbacks.obj
 0001:0001eee0       ?distance@PxPlane@physx@@QBEMABVPxVec3@2@@Z 1001fee0 f i CctCharacterControllerCallbacks.obj
 0001:0001ef20       ?end@?$Array@VPxTriangle@physx@@VNamedAllocator@shdfnd@2@@shdfnd@physx@@QAEPAVPxTriangle@3@XZ 1001ff20 f i CctCharacterControllerCallbacks.obj
 0001:0001ef40       ?finalizeQuery@?$PxHitCallback@UPxOverlapHit@physx@@@physx@@UAEXXZ 1001ff40 f i CctCharacterControllerCallbacks.obj
 0001:0001ef50       ?getAnyHit@?$PxHitBuffer@UPxOverlapHit@physx@@@physx@@QBEABUPxOverlapHit@2@I@Z 1001ff50 f i CctCharacterControllerCallbacks.obj
 0001:0001f000       ?getCctManager@Controller@Cct@physx@@QAEPAVCharacterControllerManager@23@XZ 10020000 f i CctCharacterControllerCallbacks.obj
 0001:0001f020       ?getNbAnyHits@?$PxHitBuffer@UPxOverlapHit@physx@@@physx@@QBEIXZ 10020020 f i CctCharacterControllerCallbacks.obj
 0001:0001f050       ?getNbTouches@?$PxHitBuffer@UPxOverlapHit@physx@@@physx@@QBEIXZ 10020050 f i CctCharacterControllerCallbacks.obj
 0001:0001f070       ?getPosition@PxMat44@physx@@QBE?BVPxVec3@2@XZ 10020070 f i CctCharacterControllerCallbacks.obj
 0001:0001f0a0       ?getResults@PxMeshOverlapUtil@physx@@QBEPBIXZ 100200a0 f i CctCharacterControllerCallbacks.obj
 0001:0001f0c0       ?getTouches@?$PxHitBuffer@UPxOverlapHit@physx@@@physx@@QBEPBUPxOverlapHit@2@XZ 100200c0 f i CctCharacterControllerCallbacks.obj
 0001:0001f0e0       ?getTranspose@PxMat33@physx@@QBE?BV12@XZ 100200e0 f i CctCharacterControllerCallbacks.obj
 0001:0001f1d0       ?getXYZ@PxVec4@physx@@QBE?AVPxVec3@2@XZ 100201d0 f i CctCharacterControllerCallbacks.obj
 0001:0001f230       ?grow@?$Array@VPxTriangle@physx@@VNamedAllocator@shdfnd@2@@shdfnd@physx@@IAEXI@Z 10020230 f i CctCharacterControllerCallbacks.obj
 0001:0001f2b0       ?growAndPushBack@?$Array@IVNamedAllocator@shdfnd@physx@@@shdfnd@physx@@IAEAAIABI@Z 100202b0 f i CctCharacterControllerCallbacks.obj
 0001:0001f440       ?processTouches@?$PxHitBuffer@UPxOverlapHit@physx@@@physx@@MAE_NPBUPxOverlapHit@2@I@Z 10020440 f i CctCharacterControllerCallbacks.obj
 0001:0001f470       ?project@PxPlane@physx@@QBE?AVPxVec3@2@ABV32@@Z 10020470 f i CctCharacterControllerCallbacks.obj
 0001:0001f4c0       ?pushBack@?$Array@IVNamedAllocator@shdfnd@physx@@@shdfnd@physx@@QAEAAIABI@Z 100204c0 f i CctCharacterControllerCallbacks.obj
 0001:0001f570       ?pushBack@TriArray@Cct@physx@@QAEXABVPxTriangle@3@@Z 10020570 f i CctCharacterControllerCallbacks.obj
 0001:0001f600       ?recreate@?$Array@VPxTriangle@physx@@VNamedAllocator@shdfnd@2@@shdfnd@physx@@IAEXI@Z 10020600 f i CctCharacterControllerCallbacks.obj
 0001:0001f700       ?reserve@?$Array@VPxTriangle@physx@@VNamedAllocator@shdfnd@2@@shdfnd@physx@@QAEXI@Z 10020700 f i CctCharacterControllerCallbacks.obj
 0001:0001f730       ?reserve@TriArray@Cct@physx@@QAEPAVPxTriangle@3@I@Z 10020730 f i CctCharacterControllerCallbacks.obj
 0001:0001f7f0       ?rotate@PxMat44@physx@@QBE?BVPxVec3@2@ABV32@@Z 100207f0 f i CctCharacterControllerCallbacks.obj
 0001:0001f850       ?rotate@PxMat44@physx@@QBE?BVPxVec4@2@ABV32@@Z 10020850 f i CctCharacterControllerCallbacks.obj
 0001:0001f8f0       ?rotate@PxTransform@physx@@QBE?AVPxVec3@2@ABV32@@Z 100208f0 f i CctCharacterControllerCallbacks.obj
 0001:0001f970       ?toMat33@PxMeshScale@physx@@QBE?AVPxMat33@2@XZ 10020970 f i CctCharacterControllerCallbacks.obj
 0001:0001fa30       ?transform@PxMat33@physx@@QBE?BVPxVec3@2@ABV32@@Z 10020a30 f i CctCharacterControllerCallbacks.obj
 0001:0001fad0       ?transform@PxTransform@physx@@QBE?AVPxPlane@2@ABV32@@Z 10020ad0 f i CctCharacterControllerCallbacks.obj
 0001:0001fb90       _PxCreateControllerManager 10020b90 f   CctCharacterControllerManager.obj
 0001:0001fbf0       ??0CharacterControllerManager@Cct@physx@@QAE@AAVPxScene@2@_N@Z 10020bf0 f   CctCharacterControllerManager.obj
 0001:0001fdf0       ??1CharacterControllerManager@Cct@physx@@UAE@XZ 10020df0 f   CctCharacterControllerManager.obj
 0001:0001fed0       ?release@CharacterControllerManager@Cct@physx@@UAEXXZ 10020ed0 f   CctCharacterControllerManager.obj
 0001:0001ffb0       ?getScene@CharacterControllerManager@Cct@physx@@UBEAAVPxScene@3@XZ 10020fb0 f   CctCharacterControllerManager.obj
 0001:0001ffd0       ?getNbControllers@CharacterControllerManager@Cct@physx@@UBEIXZ 10020fd0 f   CctCharacterControllerManager.obj
 0001:0001fff0       ?getController@CharacterControllerManager@Cct@physx@@UAEPAVPxController@3@I@Z 10020ff0 f   CctCharacterControllerManager.obj
 0001:000200a0       ?createController@CharacterControllerManager@Cct@physx@@UAEPAVPxController@3@ABVPxControllerDesc@3@@Z 100210a0 f   CctCharacterControllerManager.obj
 0001:00020300       ?purgeControllers@CharacterControllerManager@Cct@physx@@UAEXXZ 10021300 f   CctCharacterControllerManager.obj
 0001:00020350       ?getRenderBuffer@CharacterControllerManager@Cct@physx@@UAEAAVPxRenderBuffer@3@XZ 10021350 f   CctCharacterControllerManager.obj
 0001:000203c0       ?setDebugRenderingFlags@CharacterControllerManager@Cct@physx@@UAEXV?$PxFlags@W4Enum@PxControllerDebugRenderFlag@physx@@I@3@@Z 100213c0 f   CctCharacterControllerManager.obj
 0001:00020430       ?getNbObstacleContexts@CharacterControllerManager@Cct@physx@@UBEIXZ 10021430 f   CctCharacterControllerManager.obj
 0001:00020450       ?getObstacleContext@CharacterControllerManager@Cct@physx@@UAEPAVPxObstacleContext@3@I@Z 10021450 f   CctCharacterControllerManager.obj
 0001:000204f0       ?createObstacleContext@CharacterControllerManager@Cct@physx@@UAEPAVPxObstacleContext@3@XZ 100214f0 f   CctCharacterControllerManager.obj
 0001:00020560       ?computeInteractions@CharacterControllerManager@Cct@physx@@UAEXMPAVPxControllerFilterCallback@3@@Z 10021560 f   CctCharacterControllerManager.obj
 0001:000207b0       ?setTessellation@CharacterControllerManager@Cct@physx@@UAEX_NM@Z 100217b0 f   CctCharacterControllerManager.obj
 0001:000207e0       ?setOverlapRecoveryModule@CharacterControllerManager@Cct@physx@@UAEX_N@Z 100217e0 f   CctCharacterControllerManager.obj
 0001:00020800       ?setPreciseSweeps@CharacterControllerManager@Cct@physx@@UAEX_N@Z 10021800 f   CctCharacterControllerManager.obj
 0001:00020820       ?setPreventVerticalSlidingAgainstCeiling@CharacterControllerManager@Cct@physx@@UAEX_N@Z 10021820 f   CctCharacterControllerManager.obj
 0001:00020840       ?shiftOrigin@CharacterControllerManager@Cct@physx@@UAEXABVPxVec3@3@@Z 10021840 f   CctCharacterControllerManager.obj
 0001:00020980       ?onRelease@CharacterControllerManager@Cct@physx@@UAEXPBVPxBase@3@PAXW4Enum@PxDeletionEventFlag@3@@Z 10021980 f   CctCharacterControllerManager.obj
 0001:00020ae0       ?registerObservedObject@CharacterControllerManager@Cct@physx@@QAEXPBVPxBase@3@@Z 10021ae0 f   CctCharacterControllerManager.obj
 0001:00020b50       ?unregisterObservedObject@CharacterControllerManager@Cct@physx@@QAEXPBVPxBase@3@@Z 10021b50 f   CctCharacterControllerManager.obj
 0001:00020c10       ?onObstacleRemoved@CharacterControllerManager@Cct@physx@@QBEXI@Z 10021c10 f   CctCharacterControllerManager.obj
 0001:00020c60       ?onObstacleUpdated@CharacterControllerManager@Cct@physx@@QBEXIPBVPxObstacleContext@3@@Z 10021c60 f   CctCharacterControllerManager.obj
 0001:00020d30       ?onObstacleAdded@CharacterControllerManager@Cct@physx@@QBEXIPBVPxObstacleContext@3@@Z 10021d30 f   CctCharacterControllerManager.obj
 0001:00020e00       ?releaseController@CharacterControllerManager@Cct@physx@@QAEXAAVPxController@3@@Z 10021e00 f   CctCharacterControllerManager.obj
 0001:00020fc0       ?getControllers@CharacterControllerManager@Cct@physx@@QAEPAPAVController@23@XZ 10021fc0 f   CctCharacterControllerManager.obj
 0001:00020fe0       ?releaseObstacleContext@CharacterControllerManager@Cct@physx@@QAEXAAVObstacleContext@23@@Z 10021fe0 f   CctCharacterControllerManager.obj
 0001:00021090       ?resetObstaclesBuffers@CharacterControllerManager@Cct@physx@@QAEXXZ 10022090 f   CctCharacterControllerManager.obj
 0001:00022720       ??$?2V?$ReflectionAllocator@VBoxController@Cct@physx@@@shdfnd@physx@@@UserAllocated@shdfnd@physx@@SAPAXIV?$ReflectionAllocator@VBoxController@Cct@physx@@@12@PBDH@Z 10023720 f i CctCharacterControllerManager.obj
 0001:00022740       ??$?2V?$ReflectionAllocator@VCapsuleController@Cct@physx@@@shdfnd@physx@@@UserAllocated@shdfnd@physx@@SAPAXIV?$ReflectionAllocator@VCapsuleController@Cct@physx@@@12@PBDH@Z 10023740 f i CctCharacterControllerManager.obj
 0001:00022760       ??$?2V?$ReflectionAllocator@VCharacterControllerManager@Cct@physx@@@shdfnd@physx@@@UserAllocated@shdfnd@physx@@SAPAXIV?$ReflectionAllocator@VCharacterControllerManager@Cct@physx@@@12@PBDH@Z 10023760 f i CctCharacterControllerManager.obj
 0001:00022780       ??$?2V?$ReflectionAllocator@VObstacleContext@Cct@physx@@@shdfnd@physx@@@UserAllocated@shdfnd@physx@@SAPAXIV?$ReflectionAllocator@VObstacleContext@Cct@physx@@@12@PBDH@Z 10023780 f i CctCharacterControllerManager.obj
 0001:000227a0       ??$?2V?$ReflectionAllocator@VRenderBuffer@Cm@physx@@@shdfnd@physx@@@UserAllocated@shdfnd@physx@@SAPAXIV?$ReflectionAllocator@VRenderBuffer@Cm@physx@@@12@PBDH@Z 100237a0 f i CctCharacterControllerManager.obj
 0001:000227c0       ??$PX_UNUSED@W4Enum@PxDeletionEventFlag@physx@@@@YAXABW4Enum@PxDeletionEventFlag@physx@@@Z 100237c0 f i CctCharacterControllerManager.obj
 0001:000227d0       ??$append@UPxDebugLine@physx@@@RenderBuffer@Cm@physx@@AAEXAAV?$Array@UPxDebugLine@physx@@VNamedAllocator@shdfnd@2@@shdfnd@2@PBUPxDebugLine@2@I@Z 100237d0 f i CctCharacterControllerManager.obj
 0001:00022840       ??$append@UPxDebugPoint@physx@@@RenderBuffer@Cm@physx@@AAEXAAV?$Array@UPxDebugPoint@physx@@VNamedAllocator@shdfnd@2@@shdfnd@2@PBUPxDebugPoint@2@I@Z 10023840 f i CctCharacterControllerManager.obj
 0001:000228b0       ??$append@UPxDebugText@physx@@@RenderBuffer@Cm@physx@@AAEXAAV?$Array@UPxDebugText@physx@@VNamedAllocator@shdfnd@2@@shdfnd@2@PBUPxDebugText@2@I@Z 100238b0 f i CctCharacterControllerManager.obj
 0001:00022920       ??$append@UPxDebugTriangle@physx@@@RenderBuffer@Cm@physx@@AAEXAAV?$Array@UPxDebugTriangle@physx@@VNamedAllocator@shdfnd@2@@shdfnd@2@PBUPxDebugTriangle@2@I@Z 10023920 f i CctCharacterControllerManager.obj
 0001:00022990       ??$resetOrClear@V?$Array@PBXVNamedAllocator@shdfnd@physx@@@shdfnd@physx@@@@YAXAAV?$Array@PBXVNamedAllocator@shdfnd@physx@@@shdfnd@physx@@@Z 10023990 f i CctCharacterControllerManager.obj
 0001:000229f0       ??$resetOrClear@V?$Array@UPxExtendedCapsule@physx@@VNamedAllocator@shdfnd@2@@shdfnd@physx@@@@YAXAAV?$Array@UPxExtendedCapsule@physx@@VNamedAllocator@shdfnd@2@@shdfnd@physx@@@Z 100239f0 f i CctCharacterControllerManager.obj
 0001:00022a50       ??$resetOrClear@V?$Array@VPxExtendedBox@physx@@VNamedAllocator@shdfnd@2@@shdfnd@physx@@@@YAXAAV?$Array@VPxExtendedBox@physx@@VNamedAllocator@shdfnd@2@@shdfnd@physx@@@Z 10023a50 f i CctCharacterControllerManager.obj
 0001:00022ab0       ??$swap@PAVController@Cct@physx@@@shdfnd@physx@@YAXAAPAVController@Cct@1@0@Z 10023ab0 f i CctCharacterControllerManager.obj
 0001:00022ae0       ??0?$Array@DVNamedAllocator@shdfnd@physx@@@shdfnd@physx@@QAE@ABVNamedAllocator@12@@Z 10023ae0 f i CctCharacterControllerManager.obj
 0001:00022b30       ??0?$Array@PAVController@Cct@physx@@VNamedAllocator@shdfnd@3@@shdfnd@physx@@QAE@ABVNamedAllocator@12@@Z 10023b30 f i CctCharacterControllerManager.obj
 0001:00022b80       ??0?$Array@PAVObstacleContext@Cct@physx@@VNamedAllocator@shdfnd@3@@shdfnd@physx@@QAE@ABVNamedAllocator@12@@Z 10023b80 f i CctCharacterControllerManager.obj
 0001:00022bd0       ??0?$Array@PBXVNamedAllocator@shdfnd@physx@@@shdfnd@physx@@QAE@ABVNamedAllocator@12@@Z 10023bd0 f i CctCharacterControllerManager.obj
 0001:00022c20       ??0?$Array@UPxDebugLine@physx@@VNamedAllocator@shdfnd@2@@shdfnd@physx@@QAE@ABVNamedAllocator@12@@Z 10023c20 f i CctCharacterControllerManager.obj
 0001:00022c70       ??0?$Array@UPxDebugPoint@physx@@VNamedAllocator@shdfnd@2@@shdfnd@physx@@QAE@ABVNamedAllocator@12@@Z 10023c70 f i CctCharacterControllerManager.obj
 0001:00022cc0       ??0?$Array@UPxDebugText@physx@@VNamedAllocator@shdfnd@2@@shdfnd@physx@@QAE@ABVNamedAllocator@12@@Z 10023cc0 f i CctCharacterControllerManager.obj
 0001:00022d10       ??0?$Array@UPxDebugTriangle@physx@@VNamedAllocator@shdfnd@2@@shdfnd@physx@@QAE@ABVNamedAllocator@12@@Z 10023d10 f i CctCharacterControllerManager.obj
 0001:00022d60       ??0?$Array@UPxExtendedCapsule@physx@@VNamedAllocator@shdfnd@2@@shdfnd@physx@@QAE@ABVNamedAllocator@12@@Z 10023d60 f i CctCharacterControllerManager.obj
 0001:00022db0       ??0?$Array@VPxExtendedBox@physx@@VNamedAllocator@shdfnd@2@@shdfnd@physx@@QAE@ABVNamedAllocator@12@@Z 10023db0 f i CctCharacterControllerManager.obj
 0001:00022e00       ??0?$HashBase@PAVPxShape@physx@@PAV12@U?$Hash@PAVPxShape@physx@@@shdfnd@2@UGetKey@?$HashSetBase@PAVPxShape@physx@@U?$Hash@PAVPxShape@physx@@@shdfnd@2@VNonTrackingAllocator@42@$0A@@internal@42@VNonTrackingAllocator@42@$0A@@internal@shdfnd@physx@@QAE@IM@Z 10023e00 f i CctCharacterControllerManager.obj
 0001:00022e50       ??0?$HashBase@V?$Pair@QBVPxBase@physx@@UObservedRefCounter@Cct@2@@shdfnd@physx@@PBVPxBase@3@U?$Hash@PBVPxBase@physx@@@23@UGetKey@?$HashMapBase@PBVPxBase@physx@@UObservedRefCounter@Cct@2@U?$Hash@PBVPxBase@physx@@@shdfnd@2@VNonTrackingAllocator@62@@internal@23@VNonTrackingAllocator@23@$00@internal@shdfnd@physx@@QAE@IM@Z 10023e50 f i CctCharacterControllerManager.obj
 0001:00022ea0       ??0?$HashMap@PBVPxBase@physx@@UObservedRefCounter@Cct@2@U?$Hash@PBVPxBase@physx@@@shdfnd@2@VNonTrackingAllocator@62@@shdfnd@physx@@QAE@IM@Z 10023ea0 f i CctCharacterControllerManager.obj
 0001:00022ed0       ??0?$HashMapBase@PBVPxBase@physx@@UObservedRefCounter@Cct@2@U?$Hash@PBVPxBase@physx@@@shdfnd@2@VNonTrackingAllocator@62@@internal@shdfnd@physx@@QAE@IM@Z 10023ed0 f i CctCharacterControllerManager.obj
 0001:00022f00       ??0?$HashSet@PAVPxShape@physx@@U?$Hash@PAVPxShape@physx@@@shdfnd@2@VNonTrackingAllocator@42@@shdfnd@physx@@QAE@IM@Z 10023f00 f i CctCharacterControllerManager.obj
 0001:00022f30       ??0?$HashSetBase@PAVPxShape@physx@@U?$Hash@PAVPxShape@physx@@@shdfnd@2@VNonTrackingAllocator@42@$0A@@internal@shdfnd@physx@@QAE@IM@Z 10023f30 f i CctCharacterControllerManager.obj
 0001:00022f60       ??0?$MutexT@V?$ReflectionAllocator@VMutexImpl@shdfnd@physx@@@shdfnd@physx@@@shdfnd@physx@@QAE@ABV?$ReflectionAllocator@VMutexImpl@shdfnd@physx@@@12@@Z 10023f60 f i CctCharacterControllerManager.obj
 0001:00022fe0       ??0?$Pair@QBVPxBase@physx@@UObservedRefCounter@Cct@2@@shdfnd@physx@@QAE@ABQBVPxBase@2@ABUObservedRefCounter@Cct@2@@Z 10023fe0 f i CctCharacterControllerManager.obj
 0001:00023010       ??0?$Pair@QBVPxBase@physx@@UObservedRefCounter@Cct@2@@shdfnd@physx@@QAE@ABV012@@Z 10024010 f i CctCharacterControllerManager.obj
 0001:00023040       ??0?$PxFlags@W4Enum@PxControllerDebugRenderFlag@physx@@I@physx@@QAE@I@Z 10024040 f i CctCharacterControllerManager.obj
 0001:00023060       ??0?$PxFlags@W4Enum@PxDeletionEventFlag@physx@@E@physx@@QAE@W4Enum@PxDeletionEventFlag@1@@Z 10024060 f i CctCharacterControllerManager.obj
 0001:00023080       ??0?$ReflectionAllocator@VBoxController@Cct@physx@@@shdfnd@physx@@QAE@PBD@Z 10024080 f i CctCharacterControllerManager.obj
 0001:000230a0       ??0?$ReflectionAllocator@VCapsuleController@Cct@physx@@@shdfnd@physx@@QAE@PBD@Z 100240a0 f i CctCharacterControllerManager.obj
 0001:000230c0       ??0?$ReflectionAllocator@VCharacterControllerManager@Cct@physx@@@shdfnd@physx@@QAE@PBD@Z 100240c0 f i CctCharacterControllerManager.obj
 0001:000230e0       ??0?$ReflectionAllocator@VMutexImpl@shdfnd@physx@@@shdfnd@physx@@QAE@ABV012@@Z 100240e0 f i CctCharacterControllerManager.obj
 0001:00023100       ??0?$ReflectionAllocator@VMutexImpl@shdfnd@physx@@@shdfnd@physx@@QAE@PBD@Z 10024100 f i CctCharacterControllerManager.obj
 0001:00023120       ??0?$ReflectionAllocator@VObstacleContext@Cct@physx@@@shdfnd@physx@@QAE@PBD@Z 10024120 f i CctCharacterControllerManager.obj
 0001:00023140       ??0?$ReflectionAllocator@VRenderBuffer@Cm@physx@@@shdfnd@physx@@QAE@PBD@Z 10024140 f i CctCharacterControllerManager.obj
 0001:00023160       ??0Axes@Gu@physx@@QAE@W4AxisOrder@12@@Z 10024160 f i CctCharacterControllerManager.obj
 0001:000231b0       ??0ObservedRefCounter@Cct@physx@@QAE@XZ 100241b0 f i CctCharacterControllerManager.obj
 0001:000231d0       ??0PxDebugLine@physx@@QAE@ABU01@@Z 100241d0 f i CctCharacterControllerManager.obj
 0001:00023230       ??0PxDebugPoint@physx@@QAE@ABU01@@Z 10024230 f i CctCharacterControllerManager.obj
 0001:00023270       ??0PxDebugText@physx@@QAE@ABU01@@Z 10024270 f i CctCharacterControllerManager.obj
 0001:000232c0       ??0PxDebugTriangle@physx@@QAE@ABU01@@Z 100242c0 f i CctCharacterControllerManager.obj
 0001:00023340       ??0PxDeletionListener@physx@@IAE@XZ 10024340 f i CctCharacterControllerManager.obj
 0001:00023360       ??0PxRenderBuffer@physx@@QAE@XZ 10024360 f i CctCharacterControllerManager.obj
 0001:00023380       ??0RenderBuffer@Cm@physx@@QAE@XZ 10024380 f i CctCharacterControllerManager.obj
 0001:00023490       ??1?$Array@DVNamedAllocator@shdfnd@physx@@@shdfnd@physx@@QAE@XZ 10024490 f i CctCharacterControllerManager.obj
 0001:00023500       ??1?$Array@PAVController@Cct@physx@@VNamedAllocator@shdfnd@3@@shdfnd@physx@@QAE@XZ 10024500 f i CctCharacterControllerManager.obj
 0001:00023570       ??1?$Array@PAVObstacleContext@Cct@physx@@VNamedAllocator@shdfnd@3@@shdfnd@physx@@QAE@XZ 10024570 f i CctCharacterControllerManager.obj
 0001:000235e0       ??1?$Array@PBXVNamedAllocator@shdfnd@physx@@@shdfnd@physx@@QAE@XZ 100245e0 f i CctCharacterControllerManager.obj
 0001:00023650       ??1?$Array@UPxDebugLine@physx@@VNamedAllocator@shdfnd@2@@shdfnd@physx@@QAE@XZ 10024650 f i CctCharacterControllerManager.obj
 0001:000236c0       ??1?$Array@UPxDebugPoint@physx@@VNamedAllocator@shdfnd@2@@shdfnd@physx@@QAE@XZ 100246c0 f i CctCharacterControllerManager.obj
 0001:00023730       ??1?$Array@UPxDebugText@physx@@VNamedAllocator@shdfnd@2@@shdfnd@physx@@QAE@XZ 10024730 f i CctCharacterControllerManager.obj
 0001:000237a0       ??1?$Array@UPxDebugTriangle@physx@@VNamedAllocator@shdfnd@2@@shdfnd@physx@@QAE@XZ 100247a0 f i CctCharacterControllerManager.obj
 0001:00023810       ??1?$Array@UPxExtendedCapsule@physx@@VNamedAllocator@shdfnd@2@@shdfnd@physx@@QAE@XZ 10024810 f i CctCharacterControllerManager.obj
 0001:00023880       ??1?$Array@VPxExtendedBox@physx@@VNamedAllocator@shdfnd@2@@shdfnd@physx@@QAE@XZ 10024880 f i CctCharacterControllerManager.obj
 0001:000238f0       ??1?$HashBase@PAVPxShape@physx@@PAV12@U?$Hash@PAVPxShape@physx@@@shdfnd@2@UGetKey@?$HashSetBase@PAVPxShape@physx@@U?$Hash@PAVPxShape@physx@@@shdfnd@2@VNonTrackingAllocator@42@$0A@@internal@42@VNonTrackingAllocator@42@$0A@@internal@shdfnd@physx@@QAE@XZ 100248f0 f i CctCharacterControllerManager.obj
 0001:00023930       ??1?$HashBase@V?$Pair@QBVPxBase@physx@@UObservedRefCounter@Cct@2@@shdfnd@physx@@PBVPxBase@3@U?$Hash@PBVPxBase@physx@@@23@UGetKey@?$HashMapBase@PBVPxBase@physx@@UObservedRefCounter@Cct@2@U?$Hash@PBVPxBase@physx@@@shdfnd@2@VNonTrackingAllocator@62@@internal@23@VNonTrackingAllocator@23@$00@internal@shdfnd@physx@@QAE@XZ 10024930 f i CctCharacterControllerManager.obj
 0001:00023970       ??1?$HashMap@PBVPxBase@physx@@UObservedRefCounter@Cct@2@U?$Hash@PBVPxBase@physx@@@shdfnd@2@VNonTrackingAllocator@62@@shdfnd@physx@@QAE@XZ 10024970 f i CctCharacterControllerManager.obj
 0001:00023990       ??1?$HashMapBase@PBVPxBase@physx@@UObservedRefCounter@Cct@2@U?$Hash@PBVPxBase@physx@@@shdfnd@2@VNonTrackingAllocator@62@@internal@shdfnd@physx@@QAE@XZ 10024990 f i CctCharacterControllerManager.obj
 0001:000239b0       ??1?$HashSet@PAVPxShape@physx@@U?$Hash@PAVPxShape@physx@@@shdfnd@2@VNonTrackingAllocator@42@@shdfnd@physx@@QAE@XZ 100249b0 f i CctCharacterControllerManager.obj
 0001:000239d0       ??1?$HashSetBase@PAVPxShape@physx@@U?$Hash@PAVPxShape@physx@@@shdfnd@2@VNonTrackingAllocator@42@$0A@@internal@shdfnd@physx@@QAE@XZ 100249d0 f i CctCharacterControllerManager.obj
 0001:000239f0       ??1?$MutexT@V?$ReflectionAllocator@VMutexImpl@shdfnd@physx@@@shdfnd@physx@@@shdfnd@physx@@QAE@XZ 100249f0 f i CctCharacterControllerManager.obj
 0001:00023a20       ??1Axes@Gu@physx@@QAE@XZ   10024a20 f i CctCharacterControllerManager.obj
 0001:00023a30       ??1PxDeletionListener@physx@@MAE@XZ 10024a30 f i CctCharacterControllerManager.obj
 0001:00023a50       ??1PxRenderBuffer@physx@@UAE@XZ 10024a50 f i CctCharacterControllerManager.obj
 0001:00023a70       ??1RenderBuffer@Cm@physx@@UAE@XZ 10024a70 f i CctCharacterControllerManager.obj
 0001:00023ad0       ??4?$PxFlags@W4Enum@PxControllerDebugRenderFlag@physx@@I@physx@@QAEAAV01@ABV01@@Z 10024ad0 f i CctCharacterControllerManager.obj
 0001:00023af0       ??4PxBounds3@physx@@QAEAAV01@$$QAV01@@Z 10024af0 f i CctCharacterControllerManager.obj
 0001:00023b30       ??A?$Array@PAVController@Cct@physx@@VNamedAllocator@shdfnd@3@@shdfnd@physx@@QAEAAPAVController@Cct@2@I@Z 10024b30 f i CctCharacterControllerManager.obj
 0001:00023ba0       ??A?$Array@PAVController@Cct@physx@@VNamedAllocator@shdfnd@3@@shdfnd@physx@@QBEABQAVController@Cct@2@I@Z 10024ba0 f i CctCharacterControllerManager.obj
 0001:00023c10       ??A?$Array@PAVObstacleContext@Cct@physx@@VNamedAllocator@shdfnd@3@@shdfnd@physx@@QAEAAPAVObstacleContext@Cct@2@I@Z 10024c10 f i CctCharacterControllerManager.obj
 0001:00023c80       ??A?$Array@UPxDebugLine@physx@@VNamedAllocator@shdfnd@2@@shdfnd@physx@@QAEAAUPxDebugLine@2@I@Z 10024c80 f i CctCharacterControllerManager.obj
 0001:00023cf0       ??A?$Array@UPxDebugPoint@physx@@VNamedAllocator@shdfnd@2@@shdfnd@physx@@QAEAAUPxDebugPoint@2@I@Z 10024cf0 f i CctCharacterControllerManager.obj
 0001:00023d60       ??A?$Array@UPxDebugText@physx@@VNamedAllocator@shdfnd@2@@shdfnd@physx@@QAEAAUPxDebugText@2@I@Z 10024d60 f i CctCharacterControllerManager.obj
 0001:00023dd0       ??A?$Array@UPxDebugTriangle@physx@@VNamedAllocator@shdfnd@2@@shdfnd@physx@@QAEAAUPxDebugTriangle@2@I@Z 10024dd0 f i CctCharacterControllerManager.obj
 0001:00023e40       ??A?$HashMapBase@PBVPxBase@physx@@UObservedRefCounter@Cct@2@U?$Hash@PBVPxBase@physx@@@shdfnd@2@VNonTrackingAllocator@62@@internal@shdfnd@physx@@QAEAAUObservedRefCounter@Cct@3@ABQBVPxBase@3@@Z 10024e40 f i CctCharacterControllerManager.obj
 0001:00023ed0       ??APxMat33@physx@@QBEABVPxVec3@1@I@Z 10024ed0 f i CctCharacterControllerManager.obj
 0001:00023ef0       ??B?$PxFlags@W4Enum@PxControllerDebugRenderFlag@physx@@I@physx@@QBE_NXZ 10024ef0 f i CctCharacterControllerManager.obj
 0001:00023f20       ??R?$Hash@PBVPxBase@physx@@@shdfnd@physx@@QBEIABQBVPxBase@2@@Z 10024f20 f i CctCharacterControllerManager.obj
 0001:00023f50       ??RGetKey@?$HashMapBase@PBVPxBase@physx@@UObservedRefCounter@Cct@2@U?$Hash@PBVPxBase@physx@@@shdfnd@2@VNonTrackingAllocator@62@@internal@shdfnd@physx@@QAEABQBVPxBase@4@ABV?$Pair@QBVPxBase@physx@@UObservedRefCounter@Cct@2@@34@@Z 10024f50 f i CctCharacterControllerManager.obj
 0001:00023f64       ??_ECharacterControllerManager@Cct@physx@@W3AEPAXI@Z 10024f64 f i CctCharacterControllerManager.obj
 0001:00023f70       ??_ECharacterControllerManager@Cct@physx@@UAEPAXI@Z 10024f70 f i CctCharacterControllerManager.obj
 0001:00023f70       ??_GCharacterControllerManager@Cct@physx@@UAEPAXI@Z 10024f70 f i CctCharacterControllerManager.obj
 0001:00023fd0       ??_GMutexImpl@shdfnd@physx@@QAEPAXI@Z 10024fd0 f i CctCharacterControllerManager.obj
 0001:00024010       ??_GPxDeletionListener@physx@@MAEPAXI@Z 10025010 f i CctCharacterControllerManager.obj
 0001:00024010       ??_EPxDeletionListener@physx@@MAEPAXI@Z 10025010 f i CctCharacterControllerManager.obj
 0001:00024050       ??_GPxRenderBuffer@physx@@UAEPAXI@Z 10025050 f i CctCharacterControllerManager.obj
 0001:00024050       ??_EPxRenderBuffer@physx@@UAEPAXI@Z 10025050 f i CctCharacterControllerManager.obj
 0001:00024090       ??_GRenderBuffer@Cm@physx@@UAEPAXI@Z 10025090 f i CctCharacterControllerManager.obj
 0001:00024090       ??_ERenderBuffer@Cm@physx@@UAEPAXI@Z 10025090 f i CctCharacterControllerManager.obj
 0001:000240f0       ?allocate@?$Array@PAVController@Cct@physx@@VNamedAllocator@shdfnd@3@@shdfnd@physx@@IAEPAPAVController@Cct@3@I@Z 100250f0 f i CctCharacterControllerManager.obj
 0001:00024170       ?allocate@?$Array@PAVObstacleContext@Cct@physx@@VNamedAllocator@shdfnd@3@@shdfnd@physx@@IAEPAPAVObstacleContext@Cct@3@I@Z 10025170 f i CctCharacterControllerManager.obj
 0001:000241f0       ?allocate@?$Array@UPxDebugLine@physx@@VNamedAllocator@shdfnd@2@@shdfnd@physx@@IAEPAUPxDebugLine@3@I@Z 100251f0 f i CctCharacterControllerManager.obj
 0001:00024270       ?allocate@?$Array@UPxDebugPoint@physx@@VNamedAllocator@shdfnd@2@@shdfnd@physx@@IAEPAUPxDebugPoint@3@I@Z 10025270 f i CctCharacterControllerManager.obj
 0001:000242f0       ?allocate@?$Array@UPxDebugText@physx@@VNamedAllocator@shdfnd@2@@shdfnd@physx@@IAEPAUPxDebugText@3@I@Z 100252f0 f i CctCharacterControllerManager.obj
 0001:00024370       ?allocate@?$Array@UPxDebugTriangle@physx@@VNamedAllocator@shdfnd@2@@shdfnd@physx@@IAEPAUPxDebugTriangle@3@I@Z 10025370 f i CctCharacterControllerManager.obj
 0001:000243f0       ?allocate@?$ReflectionAllocator@VBoxController@Cct@physx@@@shdfnd@physx@@QAEPAXIPBDH@Z 100253f0 f i CctCharacterControllerManager.obj
 0001:00024450       ?allocate@?$ReflectionAllocator@VCapsuleController@Cct@physx@@@shdfnd@physx@@QAEPAXIPBDH@Z 10025450 f i CctCharacterControllerManager.obj
 0001:000244b0       ?allocate@?$ReflectionAllocator@VCharacterControllerManager@Cct@physx@@@shdfnd@physx@@QAEPAXIPBDH@Z 100254b0 f i CctCharacterControllerManager.obj
 0001:00024510       ?allocate@?$ReflectionAllocator@VMutexImpl@shdfnd@physx@@@shdfnd@physx@@QAEPAXIPBDH@Z 10025510 f i CctCharacterControllerManager.obj
 0001:00024570       ?allocate@?$ReflectionAllocator@VObstacleContext@Cct@physx@@@shdfnd@physx@@QAEPAXIPBDH@Z 10025570 f i CctCharacterControllerManager.obj
 0001:000245d0       ?allocate@?$ReflectionAllocator@VRenderBuffer@Cm@physx@@@shdfnd@physx@@QAEPAXIPBDH@Z 100255d0 f i CctCharacterControllerManager.obj
 0001:00024630       ?allocate@NonTrackingAllocator@shdfnd@physx@@QAEPAXIPBDH@Z 10025630 f i CctCharacterControllerManager.obj
 0001:00024690       ?append@RenderBuffer@Cm@physx@@UAEXABVPxRenderBuffer@3@@Z 10025690 f i CctCharacterControllerManager.obj
 0001:00024780       ?begin@?$Array@PAVController@Cct@physx@@VNamedAllocator@shdfnd@3@@shdfnd@physx@@QAEPAPAVController@Cct@3@XZ 10025780 f i CctCharacterControllerManager.obj
 0001:000247a0       ?begin@?$Array@UPxDebugLine@physx@@VNamedAllocator@shdfnd@2@@shdfnd@physx@@QBEPBUPxDebugLine@3@XZ 100257a0 f i CctCharacterControllerManager.obj
 0001:000247c0       ?begin@?$Array@UPxDebugPoint@physx@@VNamedAllocator@shdfnd@2@@shdfnd@physx@@QBEPBUPxDebugPoint@3@XZ 100257c0 f i CctCharacterControllerManager.obj
 0001:000247e0       ?begin@?$Array@UPxDebugText@physx@@VNamedAllocator@shdfnd@2@@shdfnd@physx@@QBEPBUPxDebugText@3@XZ 100257e0 f i CctCharacterControllerManager.obj
 0001:00024800       ?begin@?$Array@UPxDebugTriangle@physx@@VNamedAllocator@shdfnd@2@@shdfnd@physx@@QBEPBUPxDebugTriangle@3@XZ 10025800 f i CctCharacterControllerManager.obj
 0001:00024820       ?capacity@?$Array@DVNamedAllocator@shdfnd@physx@@@shdfnd@physx@@QBEIXZ 10025820 f i CctCharacterControllerManager.obj
 0001:00024840       ?capacity@?$Array@PAVController@Cct@physx@@VNamedAllocator@shdfnd@3@@shdfnd@physx@@QBEIXZ 10025840 f i CctCharacterControllerManager.obj
 0001:00024860       ?capacity@?$Array@PAVObstacleContext@Cct@physx@@VNamedAllocator@shdfnd@3@@shdfnd@physx@@QBEIXZ 10025860 f i CctCharacterControllerManager.obj
 0001:00024880       ?capacity@?$Array@UPxDebugLine@physx@@VNamedAllocator@shdfnd@2@@shdfnd@physx@@QBEIXZ 10025880 f i CctCharacterControllerManager.obj
 0001:000248a0       ?capacity@?$Array@UPxDebugPoint@physx@@VNamedAllocator@shdfnd@2@@shdfnd@physx@@QBEIXZ 100258a0 f i CctCharacterControllerManager.obj
 0001:000248c0       ?capacity@?$Array@UPxDebugText@physx@@VNamedAllocator@shdfnd@2@@shdfnd@physx@@QBEIXZ 100258c0 f i CctCharacterControllerManager.obj
 0001:000248e0       ?capacity@?$Array@UPxDebugTriangle@physx@@VNamedAllocator@shdfnd@2@@shdfnd@physx@@QBEIXZ 100258e0 f i CctCharacterControllerManager.obj
 0001:00024900       ?capacityIncrement@?$Array@PAVController@Cct@physx@@VNamedAllocator@shdfnd@3@@shdfnd@physx@@IBEIXZ 10025900 f i CctCharacterControllerManager.obj
 0001:00024940       ?capacityIncrement@?$Array@PAVObstacleContext@Cct@physx@@VNamedAllocator@shdfnd@3@@shdfnd@physx@@IBEIXZ 10025940 f i CctCharacterControllerManager.obj
 0001:00024980       ?capacityIncrement@?$Array@UPxDebugLine@physx@@VNamedAllocator@shdfnd@2@@shdfnd@physx@@IBEIXZ 10025980 f i CctCharacterControllerManager.obj
 0001:000249c0       ?capacityIncrement@?$Array@UPxDebugPoint@physx@@VNamedAllocator@shdfnd@2@@shdfnd@physx@@IBEIXZ 100259c0 f i CctCharacterControllerManager.obj
 0001:00024a00       ?capacityIncrement@?$Array@UPxDebugText@physx@@VNamedAllocator@shdfnd@2@@shdfnd@physx@@IBEIXZ 10025a00 f i CctCharacterControllerManager.obj
 0001:00024a40       ?capacityIncrement@?$Array@UPxDebugTriangle@physx@@VNamedAllocator@shdfnd@2@@shdfnd@physx@@IBEIXZ 10025a40 f i CctCharacterControllerManager.obj
 0001:00024a80       ?clear@?$Array@DVNamedAllocator@shdfnd@physx@@@shdfnd@physx@@QAEXXZ 10025a80 f i CctCharacterControllerManager.obj
 0001:00024ac0       ?clear@?$Array@PBXVNamedAllocator@shdfnd@physx@@@shdfnd@physx@@QAEXXZ 10025ac0 f i CctCharacterControllerManager.obj
 0001:00024b00       ?clear@?$Array@UPxDebugLine@physx@@VNamedAllocator@shdfnd@2@@shdfnd@physx@@QAEXXZ 10025b00 f i CctCharacterControllerManager.obj
 0001:00024b40       ?clear@?$Array@UPxDebugPoint@physx@@VNamedAllocator@shdfnd@2@@shdfnd@physx@@QAEXXZ 10025b40 f i CctCharacterControllerManager.obj
 0001:00024b80       ?clear@?$Array@UPxDebugText@physx@@VNamedAllocator@shdfnd@2@@shdfnd@physx@@QAEXXZ 10025b80 f i CctCharacterControllerManager.obj
 0001:00024bc0       ?clear@?$Array@UPxDebugTriangle@physx@@VNamedAllocator@shdfnd@2@@shdfnd@physx@@QAEXXZ 10025bc0 f i CctCharacterControllerManager.obj
 0001:00024c00       ?clear@?$Array@UPxExtendedCapsule@physx@@VNamedAllocator@shdfnd@2@@shdfnd@physx@@QAEXXZ 10025c00 f i CctCharacterControllerManager.obj
 0001:00024c40       ?clear@?$Array@VPxExtendedBox@physx@@VNamedAllocator@shdfnd@2@@shdfnd@physx@@QAEXXZ 10025c40 f i CctCharacterControllerManager.obj
 0001:00024c80       ?clear@RenderBuffer@Cm@physx@@UAEXXZ 10025c80 f i CctCharacterControllerManager.obj
 0001:00024ce0       ?copy@?$Array@PAVController@Cct@physx@@VNamedAllocator@shdfnd@3@@shdfnd@physx@@KAXPAPAVController@Cct@3@0PBQAV453@@Z 10025ce0 f i CctCharacterControllerManager.obj
 0001:00024d90       ?copy@?$Array@PAVObstacleContext@Cct@physx@@VNamedAllocator@shdfnd@3@@shdfnd@physx@@KAXPAPAVObstacleContext@Cct@3@0PBQAV453@@Z 10025d90 f i CctCharacterControllerManager.obj
 0001:00024e40       ?copy@?$Array@UPxDebugLine@physx@@VNamedAllocator@shdfnd@2@@shdfnd@physx@@KAXPAUPxDebugLine@3@0PBU43@@Z 10025e40 f i CctCharacterControllerManager.obj
 0001:00024ef0       ?copy@?$Array@UPxDebugPoint@physx@@VNamedAllocator@shdfnd@2@@shdfnd@physx@@KAXPAUPxDebugPoint@3@0PBU43@@Z 10025ef0 f i CctCharacterControllerManager.obj
 0001:00024fa0       ?copy@?$Array@UPxDebugText@physx@@VNamedAllocator@shdfnd@2@@shdfnd@physx@@KAXPAUPxDebugText@3@0PBU43@@Z 10025fa0 f i CctCharacterControllerManager.obj
 0001:00025060       ?copy@?$Array@UPxDebugTriangle@physx@@VNamedAllocator@shdfnd@2@@shdfnd@physx@@KAXPAUPxDebugTriangle@3@0PBU43@@Z 10026060 f i CctCharacterControllerManager.obj
 0001:00025120       ?create@?$Array@PBXVNamedAllocator@shdfnd@physx@@@shdfnd@physx@@KAXPAPBX0ABQBX@Z 10026120 f i CctCharacterControllerManager.obj
 0001:000251d0       ?create@?$Array@UPxExtendedCapsule@physx@@VNamedAllocator@shdfnd@2@@shdfnd@physx@@KAXPAUPxExtendedCapsule@3@0ABU43@@Z 100261d0 f i CctCharacterControllerManager.obj
 0001:00025290       ?create@?$Array@VPxExtendedBox@physx@@VNamedAllocator@shdfnd@2@@shdfnd@physx@@KAXPAVPxExtendedBox@3@0ABV43@@Z 10026290 f i CctCharacterControllerManager.obj
 0001:00025340       ?create@?$HashBase@PAVPxShape@physx@@PAV12@U?$Hash@PAVPxShape@physx@@@shdfnd@2@UGetKey@?$HashSetBase@PAVPxShape@physx@@U?$Hash@PAVPxShape@physx@@@shdfnd@2@VNonTrackingAllocator@42@$0A@@internal@42@VNonTrackingAllocator@42@$0A@@internal@shdfnd@physx@@QAEPAPAVPxShape@4@ABQAV54@AA_N@Z 10026340 f i CctCharacterControllerManager.obj
 0001:000254e0       ?create@?$HashBase@V?$Pair@QBVPxBase@physx@@UObservedRefCounter@Cct@2@@shdfnd@physx@@PBVPxBase@3@U?$Hash@PBVPxBase@physx@@@23@UGetKey@?$HashMapBase@PBVPxBase@physx@@UObservedRefCounter@Cct@2@U?$Hash@PBVPxBase@physx@@@shdfnd@2@VNonTrackingAllocator@62@@internal@23@VNonTrackingAllocator@23@$00@internal@shdfnd@physx@@QAEPAV?$Pair@QBVPxBase@physx@@UObservedRefCounter@Cct@2@@34@ABQBVPxBase@4@AA_N@Z 100264e0 f i CctCharacterControllerManager.obj
 0001:00025680       ?deallocate@?$Array@DVNamedAllocator@shdfnd@physx@@@shdfnd@physx@@IAEXPAX@Z 10026680 f i CctCharacterControllerManager.obj
 0001:000256a0       ?deallocate@?$Array@PAVController@Cct@physx@@VNamedAllocator@shdfnd@3@@shdfnd@physx@@IAEXPAX@Z 100266a0 f i CctCharacterControllerManager.obj
 0001:000256c0       ?deallocate@?$Array@PAVObstacleContext@Cct@physx@@VNamedAllocator@shdfnd@3@@shdfnd@physx@@IAEXPAX@Z 100266c0 f i CctCharacterControllerManager.obj
 0001:000256e0       ?deallocate@?$Array@UPxDebugLine@physx@@VNamedAllocator@shdfnd@2@@shdfnd@physx@@IAEXPAX@Z 100266e0 f i CctCharacterControllerManager.obj
 0001:00025700       ?deallocate@?$Array@UPxDebugPoint@physx@@VNamedAllocator@shdfnd@2@@shdfnd@physx@@IAEXPAX@Z 10026700 f i CctCharacterControllerManager.obj
 0001:00025720       ?deallocate@?$Array@UPxDebugText@physx@@VNamedAllocator@shdfnd@2@@shdfnd@physx@@IAEXPAX@Z 10026720 f i CctCharacterControllerManager.obj
 0001:00025740       ?deallocate@?$Array@UPxDebugTriangle@physx@@VNamedAllocator@shdfnd@2@@shdfnd@physx@@IAEXPAX@Z 10026740 f i CctCharacterControllerManager.obj
 0001:00025760       ?deallocate@?$ReflectionAllocator@VMutexImpl@shdfnd@physx@@@shdfnd@physx@@QAEXPAX@Z 10026760 f i CctCharacterControllerManager.obj
 0001:000257a0       ?destroy@?$Array@DVNamedAllocator@shdfnd@physx@@@shdfnd@physx@@KAXPAD0@Z 100267a0 f i CctCharacterControllerManager.obj
 0001:000257d0       ?destroy@?$Array@PAVController@Cct@physx@@VNamedAllocator@shdfnd@3@@shdfnd@physx@@KAXPAPAVController@Cct@3@0@Z 100267d0 f i CctCharacterControllerManager.obj
 0001:00025800       ?destroy@?$Array@PAVObstacleContext@Cct@physx@@VNamedAllocator@shdfnd@3@@shdfnd@physx@@KAXPAPAVObstacleContext@Cct@3@0@Z 10026800 f i CctCharacterControllerManager.obj
 0001:00025830       ?destroy@?$Array@UPxDebugLine@physx@@VNamedAllocator@shdfnd@2@@shdfnd@physx@@KAXPAUPxDebugLine@3@0@Z 10026830 f i CctCharacterControllerManager.obj
 0001:00025860       ?destroy@?$Array@UPxDebugPoint@physx@@VNamedAllocator@shdfnd@2@@shdfnd@physx@@KAXPAUPxDebugPoint@3@0@Z 10026860 f i CctCharacterControllerManager.obj
 0001:00025890       ?destroy@?$Array@UPxDebugText@physx@@VNamedAllocator@shdfnd@2@@shdfnd@physx@@KAXPAUPxDebugText@3@0@Z 10026890 f i CctCharacterControllerManager.obj
 0001:000258c0       ?destroy@?$Array@UPxDebugTriangle@physx@@VNamedAllocator@shdfnd@2@@shdfnd@physx@@KAXPAUPxDebugTriangle@3@0@Z 100268c0 f i CctCharacterControllerManager.obj
 0001:000258f0       ?destroy@?$HashBase@PAVPxShape@physx@@PAV12@U?$Hash@PAVPxShape@physx@@@shdfnd@2@UGetKey@?$HashSetBase@PAVPxShape@physx@@U?$Hash@PAVPxShape@physx@@@shdfnd@2@VNonTrackingAllocator@42@$0A@@internal@42@VNonTrackingAllocator@42@$0A@@internal@shdfnd@physx@@AAEXXZ 100268f0 f i CctCharacterControllerManager.obj
 0001:00025960       ?destroy@?$HashBase@V?$Pair@QBVPxBase@physx@@UObservedRefCounter@Cct@2@@shdfnd@physx@@PBVPxBase@3@U?$Hash@PBVPxBase@physx@@@23@UGetKey@?$HashMapBase@PBVPxBase@physx@@UObservedRefCounter@Cct@2@U?$Hash@PBVPxBase@physx@@@shdfnd@2@VNonTrackingAllocator@62@@internal@23@VNonTrackingAllocator@23@$00@internal@shdfnd@physx@@AAEXXZ 10026960 f i CctCharacterControllerManager.obj
 0001:000259d0       ?end@?$Array@PAVObstacleContext@Cct@physx@@VNamedAllocator@shdfnd@3@@shdfnd@physx@@QAEPAPAVObstacleContext@Cct@3@XZ 100269d0 f i CctCharacterControllerManager.obj
 0001:000259f0       ?equal@?$Hash@PBVPxBase@physx@@@shdfnd@physx@@QBE_NABQBVPxBase@3@0@Z 100269f0 f i CctCharacterControllerManager.obj
 0001:00025a30       ?erase@?$HashBase@PAVPxShape@physx@@PAV12@U?$Hash@PAVPxShape@physx@@@shdfnd@2@UGetKey@?$HashSetBase@PAVPxShape@physx@@U?$Hash@PAVPxShape@physx@@@shdfnd@2@VNonTrackingAllocator@42@$0A@@internal@42@VNonTrackingAllocator@42@$0A@@internal@shdfnd@physx@@QAE_NABQAVPxShape@4@@Z 10026a30 f i CctCharacterControllerManager.obj
 0001:00025af0       ?erase@?$HashBase@V?$Pair@QBVPxBase@physx@@UObservedRefCounter@Cct@2@@shdfnd@physx@@PBVPxBase@3@U?$Hash@PBVPxBase@physx@@@23@UGetKey@?$HashMapBase@PBVPxBase@physx@@UObservedRefCounter@Cct@2@U?$Hash@PBVPxBase@physx@@@shdfnd@2@VNonTrackingAllocator@62@@internal@23@VNonTrackingAllocator@23@$00@internal@shdfnd@physx@@QAE_NABQBVPxBase@4@@Z 10026af0 f i CctCharacterControllerManager.obj
 0001:00025bb0       ?erase@?$HashMapBase@PBVPxBase@physx@@UObservedRefCounter@Cct@2@U?$Hash@PBVPxBase@physx@@@shdfnd@2@VNonTrackingAllocator@62@@internal@shdfnd@physx@@QAE_NABQBVPxBase@4@@Z 10026bb0 f i CctCharacterControllerManager.obj
 0001:00025bd0       ?erase@?$HashSetBase@PAVPxShape@physx@@U?$Hash@PAVPxShape@physx@@@shdfnd@2@VNonTrackingAllocator@42@$0A@@internal@shdfnd@physx@@QAE_NABQAVPxShape@4@@Z 10026bd0 f i CctCharacterControllerManager.obj
 0001:00025bf0       ?eraseInternal@?$HashBase@PAVPxShape@physx@@PAV12@U?$Hash@PAVPxShape@physx@@@shdfnd@2@UGetKey@?$HashSetBase@PAVPxShape@physx@@U?$Hash@PAVPxShape@physx@@@shdfnd@2@VNonTrackingAllocator@42@$0A@@internal@42@VNonTrackingAllocator@42@$0A@@internal@shdfnd@physx@@AAE_NPAI@Z 10026bf0 f i CctCharacterControllerManager.obj
 0001:00025c70       ?eraseInternal@?$HashBase@V?$Pair@QBVPxBase@physx@@UObservedRefCounter@Cct@2@@shdfnd@physx@@PBVPxBase@3@U?$Hash@PBVPxBase@physx@@@23@UGetKey@?$HashMapBase@PBVPxBase@physx@@UObservedRefCounter@Cct@2@U?$Hash@PBVPxBase@physx@@@shdfnd@2@VNonTrackingAllocator@62@@internal@23@VNonTrackingAllocator@23@$00@internal@shdfnd@physx@@AAE_NPAI@Z 10026c70 f i CctCharacterControllerManager.obj
 0001:00025d10       ?find@?$Array@PAVObstacleContext@Cct@physx@@VNamedAllocator@shdfnd@3@@shdfnd@physx@@QAEPAPAVObstacleContext@Cct@3@ABQAV453@@Z 10026d10 f i CctCharacterControllerManager.obj
 0001:00025d70       ?find@?$HashBase@V?$Pair@QBVPxBase@physx@@UObservedRefCounter@Cct@2@@shdfnd@physx@@PBVPxBase@3@U?$Hash@PBVPxBase@physx@@@23@UGetKey@?$HashMapBase@PBVPxBase@physx@@UObservedRefCounter@Cct@2@U?$Hash@PBVPxBase@physx@@@shdfnd@2@VNonTrackingAllocator@62@@internal@23@VNonTrackingAllocator@23@$00@internal@shdfnd@physx@@QBEPBV?$Pair@QBVPxBase@physx@@UObservedRefCounter@Cct@2@@34@ABQBVPxBase@4@@Z 10026d70 f i CctCharacterControllerManager.obj
 0001:00025e40       ?find@?$HashMapBase@PBVPxBase@physx@@UObservedRefCounter@Cct@2@U?$Hash@PBVPxBase@physx@@@shdfnd@2@VNonTrackingAllocator@62@@internal@shdfnd@physx@@QBEPBV?$Pair@QBVPxBase@physx@@UObservedRefCounter@Cct@2@@34@ABQBVPxBase@4@@Z 10026e40 f i CctCharacterControllerManager.obj
 0001:00025e60       ?findAndReplaceWithLast@?$Array@PAVObstacleContext@Cct@physx@@VNamedAllocator@shdfnd@3@@shdfnd@physx@@QAE_NABQAVObstacleContext@Cct@3@@Z 10026e60 f i CctCharacterControllerManager.obj
 0001:00025ee0       ?freeListAdd@?$HashBase@PAVPxShape@physx@@PAV12@U?$Hash@PAVPxShape@physx@@@shdfnd@2@UGetKey@?$HashSetBase@PAVPxShape@physx@@U?$Hash@PAVPxShape@physx@@@shdfnd@2@VNonTrackingAllocator@42@$0A@@internal@42@VNonTrackingAllocator@42@$0A@@internal@shdfnd@physx@@AAEXI@Z 10026ee0 f i CctCharacterControllerManager.obj
 0001:00025f90       ?freeListAdd@?$HashBase@PAVPxShape@physx@@PAV12@U?$Hash@PAVPxShape@physx@@@shdfnd@2@UGetKey@?$HashSetBase@PAVPxShape@physx@@U?$Hash@PAVPxShape@physx@@@shdfnd@2@VNonTrackingAllocator@42@$0A@@internal@42@VNonTrackingAllocator@42@$0A@@internal@shdfnd@physx@@AAEXII@Z 10026f90 f i CctCharacterControllerManager.obj
 0001:00026080       ?freeListAdd@?$HashBase@V?$Pair@QBVPxBase@physx@@UObservedRefCounter@Cct@2@@shdfnd@physx@@PBVPxBase@3@U?$Hash@PBVPxBase@physx@@@23@UGetKey@?$HashMapBase@PBVPxBase@physx@@UObservedRefCounter@Cct@2@U?$Hash@PBVPxBase@physx@@@shdfnd@2@VNonTrackingAllocator@62@@internal@23@VNonTrackingAllocator@23@$00@internal@shdfnd@physx@@AAEXI@Z 10027080 f i CctCharacterControllerManager.obj
 0001:00026130       ?freeListAdd@?$HashBase@V?$Pair@QBVPxBase@physx@@UObservedRefCounter@Cct@2@@shdfnd@physx@@PBVPxBase@3@U?$Hash@PBVPxBase@physx@@@23@UGetKey@?$HashMapBase@PBVPxBase@physx@@UObservedRefCounter@Cct@2@U?$Hash@PBVPxBase@physx@@@shdfnd@2@VNonTrackingAllocator@62@@internal@23@VNonTrackingAllocator@23@$00@internal@shdfnd@physx@@AAEXII@Z 10027130 f i CctCharacterControllerManager.obj
 0001:00026220       ?freeListEmpty@?$HashBase@PAVPxShape@physx@@PAV12@U?$Hash@PAVPxShape@physx@@@shdfnd@2@UGetKey@?$HashSetBase@PAVPxShape@physx@@U?$Hash@PAVPxShape@physx@@@shdfnd@2@VNonTrackingAllocator@42@$0A@@internal@42@VNonTrackingAllocator@42@$0A@@internal@shdfnd@physx@@ABE_NXZ 10027220 f i CctCharacterControllerManager.obj
 0001:00026290       ?freeListEmpty@?$HashBase@V?$Pair@QBVPxBase@physx@@UObservedRefCounter@Cct@2@@shdfnd@physx@@PBVPxBase@3@U?$Hash@PBVPxBase@physx@@@23@UGetKey@?$HashMapBase@PBVPxBase@physx@@UObservedRefCounter@Cct@2@U?$Hash@PBVPxBase@physx@@@shdfnd@2@VNonTrackingAllocator@62@@internal@23@VNonTrackingAllocator@23@$00@internal@shdfnd@physx@@ABE_NXZ 10027290 f i CctCharacterControllerManager.obj
 0001:00026300       ?freeListGetNext@?$HashBase@PAVPxShape@physx@@PAV12@U?$Hash@PAVPxShape@physx@@@shdfnd@2@UGetKey@?$HashSetBase@PAVPxShape@physx@@U?$Hash@PAVPxShape@physx@@@shdfnd@2@VNonTrackingAllocator@42@$0A@@internal@42@VNonTrackingAllocator@42@$0A@@internal@shdfnd@physx@@AAEIXZ 10027300 f i CctCharacterControllerManager.obj
 0001:00026410       ?freeListGetNext@?$HashBase@V?$Pair@QBVPxBase@physx@@UObservedRefCounter@Cct@2@@shdfnd@physx@@PBVPxBase@3@U?$Hash@PBVPxBase@physx@@@23@UGetKey@?$HashMapBase@PBVPxBase@physx@@UObservedRefCounter@Cct@2@U?$Hash@PBVPxBase@physx@@@shdfnd@2@VNonTrackingAllocator@62@@internal@23@VNonTrackingAllocator@23@$00@internal@shdfnd@physx@@AAEIXZ 10027410 f i CctCharacterControllerManager.obj
 0001:00026530       ?getAllocator@Foundation@shdfnd@physx@@QAEAAVPxAllocatorCallback@3@XZ 10027530 f i CctCharacterControllerManager.obj
 0001:00026550       ?getAllocatorCallback@Foundation@shdfnd@physx@@UAEAAVPxAllocatorCallback@3@XZ 10027550 f i CctCharacterControllerManager.obj
 0001:00026570       ?getErrorCallback@Foundation@shdfnd@physx@@UAEAAVPxErrorCallback@3@XZ 10027570 f i CctCharacterControllerManager.obj
 0001:00026590       ?getErrorLevel@Foundation@shdfnd@physx@@UBE?AW4Enum@PxErrorCode@3@XZ 10027590 f i CctCharacterControllerManager.obj
 0001:000265b0       ?getFoundation@shdfnd@physx@@YAAAVFoundation@12@XZ 100275b0 f i CctCharacterControllerManager.obj
 0001:000265c0       ?getInternalErrorCallback@Foundation@shdfnd@physx@@QAEAAVPxErrorCallback@3@XZ 100275c0 f i CctCharacterControllerManager.obj
 0001:000265e0       ?getLines@RenderBuffer@Cm@physx@@UBEPBUPxDebugLine@3@XZ 100275e0 f i CctCharacterControllerManager.obj
 0001:00026600       ?getName@?$ReflectionAllocator@VBoxController@Cct@physx@@@shdfnd@physx@@CAPBDXZ 10027600 f i CctCharacterControllerManager.obj
 0001:00026650       ?getName@?$ReflectionAllocator@VCapsuleController@Cct@physx@@@shdfnd@physx@@CAPBDXZ 10027650 f i CctCharacterControllerManager.obj
 0001:000266a0       ?getName@?$ReflectionAllocator@VCharacterControllerManager@Cct@physx@@@shdfnd@physx@@CAPBDXZ 100276a0 f i CctCharacterControllerManager.obj
 0001:000266f0       ?getName@?$ReflectionAllocator@VMutexImpl@shdfnd@physx@@@shdfnd@physx@@CAPBDXZ 100276f0 f i CctCharacterControllerManager.obj
 0001:00026740       ?getName@?$ReflectionAllocator@VObstacleContext@Cct@physx@@@shdfnd@physx@@CAPBDXZ 10027740 f i CctCharacterControllerManager.obj
 0001:00026790       ?getName@?$ReflectionAllocator@VRenderBuffer@Cm@physx@@@shdfnd@physx@@CAPBDXZ 10027790 f i CctCharacterControllerManager.obj
 0001:000267e0       ?getNamedAllocMap@Foundation@shdfnd@physx@@QAEAAV?$HashMap@PBVNamedAllocator@shdfnd@physx@@PBDU?$Hash@PBVNamedAllocator@shdfnd@physx@@@23@VNonTrackingAllocator@23@@23@XZ 100277e0 f i CctCharacterControllerManager.obj
 0001:00026800       ?getNamedAllocMutex@Foundation@shdfnd@physx@@QAEAAV?$MutexT@VAllocator@shdfnd@physx@@@23@XZ 10027800 f i CctCharacterControllerManager.obj
 0001:00026820       ?getNbLines@RenderBuffer@Cm@physx@@UBEIXZ 10027820 f i CctCharacterControllerManager.obj
 0001:00026840       ?getNbPoints@RenderBuffer@Cm@physx@@UBEIXZ 10027840 f i CctCharacterControllerManager.obj
 0001:00026860       ?getNbTexts@RenderBuffer@Cm@physx@@UBEIXZ 10027860 f i CctCharacterControllerManager.obj
 0001:00026880       ?getNbTriangles@RenderBuffer@Cm@physx@@UBEIXZ 10027880 f i CctCharacterControllerManager.obj
 0001:000268a0       ?getPoints@RenderBuffer@Cm@physx@@UBEPBUPxDebugPoint@3@XZ 100278a0 f i CctCharacterControllerManager.obj
 0001:000268c0       ?getReportAllocationNames@Foundation@shdfnd@physx@@UBE_NXZ 100278c0 f i CctCharacterControllerManager.obj
 0001:000268e0       ?getTempAllocFreeTable@Foundation@shdfnd@physx@@QAEAAV?$Array@PATTempAllocatorChunk@shdfnd@physx@@VAllocator@23@@23@XZ 100278e0 f i CctCharacterControllerManager.obj
 0001:00026900       ?getTempAllocMutex@Foundation@shdfnd@physx@@QAEAAV?$MutexT@VAllocator@shdfnd@physx@@@23@XZ 10027900 f i CctCharacterControllerManager.obj
 0001:00026920       ?getTexts@RenderBuffer@Cm@physx@@UBEPBUPxDebugText@3@XZ 10027920 f i CctCharacterControllerManager.obj
 0001:00026940       ?getTriangles@RenderBuffer@Cm@physx@@UBEPBUPxDebugTriangle@3@XZ 10027940 f i CctCharacterControllerManager.obj
 0001:00026960       ?getType@PxControllerDesc@physx@@QBE?AW4Enum@PxControllerShapeType@2@XZ 10027960 f i CctCharacterControllerManager.obj
 0001:00026980       ?grow@?$Array@PBXVNamedAllocator@shdfnd@physx@@@shdfnd@physx@@IAEXI@Z 10027980 f i CctCharacterControllerManager.obj
 0001:00026a00       ?grow@?$Array@UPxDebugLine@physx@@VNamedAllocator@shdfnd@2@@shdfnd@physx@@IAEXI@Z 10027a00 f i CctCharacterControllerManager.obj
 0001:00026a80       ?grow@?$Array@UPxDebugPoint@physx@@VNamedAllocator@shdfnd@2@@shdfnd@physx@@IAEXI@Z 10027a80 f i CctCharacterControllerManager.obj
 0001:00026b00       ?grow@?$Array@UPxDebugText@physx@@VNamedAllocator@shdfnd@2@@shdfnd@physx@@IAEXI@Z 10027b00 f i CctCharacterControllerManager.obj
 0001:00026b80       ?grow@?$Array@UPxDebugTriangle@physx@@VNamedAllocator@shdfnd@2@@shdfnd@physx@@IAEXI@Z 10027b80 f i CctCharacterControllerManager.obj
 0001:00026c00       ?grow@?$Array@UPxExtendedCapsule@physx@@VNamedAllocator@shdfnd@2@@shdfnd@physx@@IAEXI@Z 10027c00 f i CctCharacterControllerManager.obj
 0001:00026c80       ?grow@?$Array@VPxExtendedBox@physx@@VNamedAllocator@shdfnd@2@@shdfnd@physx@@IAEXI@Z 10027c80 f i CctCharacterControllerManager.obj
 0001:00026d00       ?grow@?$HashBase@PAVPxShape@physx@@PAV12@U?$Hash@PAVPxShape@physx@@@shdfnd@2@UGetKey@?$HashSetBase@PAVPxShape@physx@@U?$Hash@PAVPxShape@physx@@@shdfnd@2@VNonTrackingAllocator@42@$0A@@internal@42@VNonTrackingAllocator@42@$0A@@internal@shdfnd@physx@@AAEXXZ 10027d00 f i CctCharacterControllerManager.obj
 0001:00026da0       ?grow@?$HashBase@V?$Pair@QBVPxBase@physx@@UObservedRefCounter@Cct@2@@shdfnd@physx@@PBVPxBase@3@U?$Hash@PBVPxBase@physx@@@23@UGetKey@?$HashMapBase@PBVPxBase@physx@@UObservedRefCounter@Cct@2@U?$Hash@PBVPxBase@physx@@@shdfnd@2@VNonTrackingAllocator@62@@internal@23@VNonTrackingAllocator@23@$00@internal@shdfnd@physx@@AAEXXZ 10027da0 f i CctCharacterControllerManager.obj
 0001:00026e60       ?growAndPushBack@?$Array@PAVController@Cct@physx@@VNamedAllocator@shdfnd@3@@shdfnd@physx@@IAEAAPAVController@Cct@3@ABQAV453@@Z 10027e60 f i CctCharacterControllerManager.obj
 0001:00026ff0       ?growAndPushBack@?$Array@PAVObstacleContext@Cct@physx@@VNamedAllocator@shdfnd@3@@shdfnd@physx@@IAEAAPAVObstacleContext@Cct@3@ABQAV453@@Z 10027ff0 f i CctCharacterControllerManager.obj
 0001:00027180       ?growAndPushBack@?$Array@UPxDebugLine@physx@@VNamedAllocator@shdfnd@2@@shdfnd@physx@@IAEAAUPxDebugLine@3@ABU43@@Z 10028180 f i CctCharacterControllerManager.obj
 0001:00027310       ?growAndPushBack@?$Array@UPxDebugPoint@physx@@VNamedAllocator@shdfnd@2@@shdfnd@physx@@IAEAAUPxDebugPoint@3@ABU43@@Z 10028310 f i CctCharacterControllerManager.obj
 0001:000274a0       ?growAndPushBack@?$Array@UPxDebugText@physx@@VNamedAllocator@shdfnd@2@@shdfnd@physx@@IAEAAUPxDebugText@3@ABU43@@Z 100284a0 f i CctCharacterControllerManager.obj
 0001:00027620       ?growAndPushBack@?$Array@UPxDebugTriangle@physx@@VNamedAllocator@shdfnd@2@@shdfnd@physx@@IAEAAUPxDebugTriangle@3@ABU43@@Z 10028620 f i CctCharacterControllerManager.obj
 0001:000277a0       ?hash@?$HashBase@V?$Pair@QBVPxBase@physx@@UObservedRefCounter@Cct@2@@shdfnd@physx@@PBVPxBase@3@U?$Hash@PBVPxBase@physx@@@23@UGetKey@?$HashMapBase@PBVPxBase@physx@@UObservedRefCounter@Cct@2@U?$Hash@PBVPxBase@physx@@@shdfnd@2@VNonTrackingAllocator@62@@internal@23@VNonTrackingAllocator@23@$00@internal@shdfnd@physx@@ABEIABQBVPxBase@4@@Z 100287a0 f i CctCharacterControllerManager.obj
 0001:000277d0       ?hash@?$HashBase@V?$Pair@QBVPxBase@physx@@UObservedRefCounter@Cct@2@@shdfnd@physx@@PBVPxBase@3@U?$Hash@PBVPxBase@physx@@@23@UGetKey@?$HashMapBase@PBVPxBase@physx@@UObservedRefCounter@Cct@2@U?$Hash@PBVPxBase@physx@@@shdfnd@2@VNonTrackingAllocator@62@@internal@23@VNonTrackingAllocator@23@$00@internal@shdfnd@physx@@ABEIABQBVPxBase@4@I@Z 100287d0 f i CctCharacterControllerManager.obj
 0001:00027800       ?init@?$HashBase@PAVPxShape@physx@@PAV12@U?$Hash@PAVPxShape@physx@@@shdfnd@2@UGetKey@?$HashSetBase@PAVPxShape@physx@@U?$Hash@PAVPxShape@physx@@@shdfnd@2@VNonTrackingAllocator@42@$0A@@internal@42@VNonTrackingAllocator@42@$0A@@internal@shdfnd@physx@@AAEXIM@Z 10028800 f i CctCharacterControllerManager.obj
 0001:000278b0       ?init@?$HashBase@V?$Pair@QBVPxBase@physx@@UObservedRefCounter@Cct@2@@shdfnd@physx@@PBVPxBase@3@U?$Hash@PBVPxBase@physx@@@23@UGetKey@?$HashMapBase@PBVPxBase@physx@@UObservedRefCounter@Cct@2@U?$Hash@PBVPxBase@physx@@@shdfnd@2@VNonTrackingAllocator@62@@internal@23@VNonTrackingAllocator@23@$00@internal@shdfnd@physx@@AAEXIM@Z 100288b0 f i CctCharacterControllerManager.obj
 0001:00027960       ?insert@?$HashSetBase@PAVPxShape@physx@@U?$Hash@PAVPxShape@physx@@@shdfnd@2@VNonTrackingAllocator@42@$0A@@internal@shdfnd@physx@@QAE_NABQAVPxShape@4@@Z 10028960 f i CctCharacterControllerManager.obj
 0001:00027a00       ?isArrayOfPOD@?$Array@DVNamedAllocator@shdfnd@physx@@@shdfnd@physx@@SA_NXZ 10028a00 f i CctCharacterControllerManager.obj
 0001:00027a10       ?isArrayOfPOD@?$Array@PAVController@Cct@physx@@VNamedAllocator@shdfnd@3@@shdfnd@physx@@SA_NXZ 10028a10 f i CctCharacterControllerManager.obj
 0001:00027a20       ?isArrayOfPOD@?$Array@PAVObstacleContext@Cct@physx@@VNamedAllocator@shdfnd@3@@shdfnd@physx@@SA_NXZ 10028a20 f i CctCharacterControllerManager.obj
 0001:00027a30       ?isArrayOfPOD@?$Array@UPxDebugLine@physx@@VNamedAllocator@shdfnd@2@@shdfnd@physx@@SA_NXZ 10028a30 f i CctCharacterControllerManager.obj
 0001:00027a40       ?isArrayOfPOD@?$Array@UPxDebugPoint@physx@@VNamedAllocator@shdfnd@2@@shdfnd@physx@@SA_NXZ 10028a40 f i CctCharacterControllerManager.obj
 0001:00027a50       ?isArrayOfPOD@?$Array@UPxDebugText@physx@@VNamedAllocator@shdfnd@2@@shdfnd@physx@@SA_NXZ 10028a50 f i CctCharacterControllerManager.obj
 0001:00027a60       ?isArrayOfPOD@?$Array@UPxDebugTriangle@physx@@VNamedAllocator@shdfnd@2@@shdfnd@physx@@SA_NXZ 10028a60 f i CctCharacterControllerManager.obj
 0001:00027a70       ?isInUserMemory@?$Array@DVNamedAllocator@shdfnd@physx@@@shdfnd@physx@@QBEIXZ 10028a70 f i CctCharacterControllerManager.obj
 0001:00027a90       ?isInUserMemory@?$Array@PAVController@Cct@physx@@VNamedAllocator@shdfnd@3@@shdfnd@physx@@QBEIXZ 10028a90 f i CctCharacterControllerManager.obj
 0001:00027ab0       ?isInUserMemory@?$Array@PAVObstacleContext@Cct@physx@@VNamedAllocator@shdfnd@3@@shdfnd@physx@@QBEIXZ 10028ab0 f i CctCharacterControllerManager.obj
 0001:00027ad0       ?isInUserMemory@?$Array@UPxDebugLine@physx@@VNamedAllocator@shdfnd@2@@shdfnd@physx@@QBEIXZ 10028ad0 f i CctCharacterControllerManager.obj
 0001:00027af0       ?isInUserMemory@?$Array@UPxDebugPoint@physx@@VNamedAllocator@shdfnd@2@@shdfnd@physx@@QBEIXZ 10028af0 f i CctCharacterControllerManager.obj
 0001:00027b10       ?isInUserMemory@?$Array@UPxDebugText@physx@@VNamedAllocator@shdfnd@2@@shdfnd@physx@@QBEIXZ 10028b10 f i CctCharacterControllerManager.obj
 0001:00027b30       ?isInUserMemory@?$Array@UPxDebugTriangle@physx@@VNamedAllocator@shdfnd@2@@shdfnd@physx@@QBEIXZ 10028b30 f i CctCharacterControllerManager.obj
 0001:00027b50       ?isPowerOfTwo@shdfnd@physx@@YA_NI@Z 10028b50 f i CctCharacterControllerManager.obj
 0001:00027b90       ?isZeroInit@?$Array@PBXVNamedAllocator@shdfnd@physx@@@shdfnd@physx@@KA_NABQBX@Z 10028b90 f i CctCharacterControllerManager.obj
 0001:00027bf0       ?isZeroInit@?$Array@UPxExtendedCapsule@physx@@VNamedAllocator@shdfnd@2@@shdfnd@physx@@KA_NABUPxExtendedCapsule@3@@Z 10028bf0 f i CctCharacterControllerManager.obj
 0001:00027c60       ?isZeroInit@?$Array@VPxExtendedBox@physx@@VNamedAllocator@shdfnd@2@@shdfnd@physx@@KA_NABVPxExtendedBox@3@@Z 10028c60 f i CctCharacterControllerManager.obj
 0001:00027cd0       ?memSet@intrinsics@physx@@YAPAXPAXHI@Z 10028cd0 f i CctCharacterControllerManager.obj
 0001:00027cf0       ?memZero@intrinsics@physx@@YAPAXPAXI@Z 10028cf0 f i CctCharacterControllerManager.obj
 0001:00027d10       ?name@type_info@@QBEPBDXZ  10028d10 f i CctCharacterControllerManager.obj
 0001:00027d40       ?nextPowerOfTwo@shdfnd@physx@@YAII@Z 10028d40 f i CctCharacterControllerManager.obj
 0001:00027da0       ?pushBack@?$Array@PAVController@Cct@physx@@VNamedAllocator@shdfnd@3@@shdfnd@physx@@QAEAAPAVController@Cct@3@ABQAV453@@Z 10028da0 f i CctCharacterControllerManager.obj
 0001:00027e50       ?pushBack@?$Array@PAVObstacleContext@Cct@physx@@VNamedAllocator@shdfnd@3@@shdfnd@physx@@QAEAAPAVObstacleContext@Cct@3@ABQAV453@@Z 10028e50 f i CctCharacterControllerManager.obj
 0001:00027f00       ?pushBack@?$Array@UPxDebugLine@physx@@VNamedAllocator@shdfnd@2@@shdfnd@physx@@QAEAAUPxDebugLine@3@ABU43@@Z 10028f00 f i CctCharacterControllerManager.obj
 0001:00027fb0       ?pushBack@?$Array@UPxDebugPoint@physx@@VNamedAllocator@shdfnd@2@@shdfnd@physx@@QAEAAUPxDebugPoint@3@ABU43@@Z 10028fb0 f i CctCharacterControllerManager.obj
 0001:00028060       ?pushBack@?$Array@UPxDebugText@physx@@VNamedAllocator@shdfnd@2@@shdfnd@physx@@QAEAAUPxDebugText@3@ABU43@@Z 10029060 f i CctCharacterControllerManager.obj
 0001:00028110       ?pushBack@?$Array@UPxDebugTriangle@physx@@VNamedAllocator@shdfnd@2@@shdfnd@physx@@QAEAAUPxDebugTriangle@3@ABU43@@Z 10029110 f i CctCharacterControllerManager.obj
 0001:000281c0       ?recreate@?$Array@PBXVNamedAllocator@shdfnd@physx@@@shdfnd@physx@@IAEXI@Z 100291c0 f i CctCharacterControllerManager.obj
 0001:000282d0       ?recreate@?$Array@UPxDebugLine@physx@@VNamedAllocator@shdfnd@2@@shdfnd@physx@@IAEXI@Z 100292d0 f i CctCharacterControllerManager.obj
 0001:000283e0       ?recreate@?$Array@UPxDebugPoint@physx@@VNamedAllocator@shdfnd@2@@shdfnd@physx@@IAEXI@Z 100293e0 f i CctCharacterControllerManager.obj
 0001:000284f0       ?recreate@?$Array@UPxDebugText@physx@@VNamedAllocator@shdfnd@2@@shdfnd@physx@@IAEXI@Z 100294f0 f i CctCharacterControllerManager.obj
 0001:000285f0       ?recreate@?$Array@UPxDebugTriangle@physx@@VNamedAllocator@shdfnd@2@@shdfnd@physx@@IAEXI@Z 100295f0 f i CctCharacterControllerManager.obj
 0001:000286f0       ?recreate@?$Array@UPxExtendedCapsule@physx@@VNamedAllocator@shdfnd@2@@shdfnd@physx@@IAEXI@Z 100296f0 f i CctCharacterControllerManager.obj
 0001:000287f0       ?recreate@?$Array@VPxExtendedBox@physx@@VNamedAllocator@shdfnd@2@@shdfnd@physx@@IAEXI@Z 100297f0 f i CctCharacterControllerManager.obj
 0001:000288f0       ?replaceWithLast@?$Array@PAVController@Cct@physx@@VNamedAllocator@shdfnd@3@@shdfnd@physx@@QAEXI@Z 100298f0 f i CctCharacterControllerManager.obj
 0001:00028990       ?replaceWithLast@?$Array@PAVObstacleContext@Cct@physx@@VNamedAllocator@shdfnd@3@@shdfnd@physx@@QAEXI@Z 10029990 f i CctCharacterControllerManager.obj
 0001:00028a30       ?replaceWithLast@?$HashBase@PAVPxShape@physx@@PAV12@U?$Hash@PAVPxShape@physx@@@shdfnd@2@UGetKey@?$HashSetBase@PAVPxShape@physx@@U?$Hash@PAVPxShape@physx@@@shdfnd@2@VNonTrackingAllocator@42@$0A@@internal@42@VNonTrackingAllocator@42@$0A@@internal@shdfnd@physx@@AAEXI@Z 10029a30 f i CctCharacterControllerManager.obj
 0001:00028b80       ?replaceWithLast@?$HashBase@V?$Pair@QBVPxBase@physx@@UObservedRefCounter@Cct@2@@shdfnd@physx@@PBVPxBase@3@U?$Hash@PBVPxBase@physx@@@23@UGetKey@?$HashMapBase@PBVPxBase@physx@@UObservedRefCounter@Cct@2@U?$Hash@PBVPxBase@physx@@@shdfnd@2@VNonTrackingAllocator@62@@internal@23@VNonTrackingAllocator@23@$00@internal@shdfnd@physx@@AAEXI@Z 10029b80 f i CctCharacterControllerManager.obj
 0001:00028cd0       ?reserve@?$Array@PBXVNamedAllocator@shdfnd@physx@@@shdfnd@physx@@QAEXI@Z 10029cd0 f i CctCharacterControllerManager.obj
 0001:00028d00       ?reserve@?$Array@UPxDebugLine@physx@@VNamedAllocator@shdfnd@2@@shdfnd@physx@@QAEXI@Z 10029d00 f i CctCharacterControllerManager.obj
 0001:00028d30       ?reserve@?$Array@UPxDebugPoint@physx@@VNamedAllocator@shdfnd@2@@shdfnd@physx@@QAEXI@Z 10029d30 f i CctCharacterControllerManager.obj
 0001:00028d60       ?reserve@?$Array@UPxDebugText@physx@@VNamedAllocator@shdfnd@2@@shdfnd@physx@@QAEXI@Z 10029d60 f i CctCharacterControllerManager.obj
 0001:00028d90       ?reserve@?$Array@UPxDebugTriangle@physx@@VNamedAllocator@shdfnd@2@@shdfnd@physx@@QAEXI@Z 10029d90 f i CctCharacterControllerManager.obj
 0001:00028dc0       ?reserve@?$Array@UPxExtendedCapsule@physx@@VNamedAllocator@shdfnd@2@@shdfnd@physx@@QAEXI@Z 10029dc0 f i CctCharacterControllerManager.obj
 0001:00028df0       ?reserve@?$Array@VPxExtendedBox@physx@@VNamedAllocator@shdfnd@2@@shdfnd@physx@@QAEXI@Z 10029df0 f i CctCharacterControllerManager.obj
 0001:00028e20       ?reserve@?$HashBase@PAVPxShape@physx@@PAV12@U?$Hash@PAVPxShape@physx@@@shdfnd@2@UGetKey@?$HashSetBase@PAVPxShape@physx@@U?$Hash@PAVPxShape@physx@@@shdfnd@2@VNonTrackingAllocator@42@$0A@@internal@42@VNonTrackingAllocator@42@$0A@@internal@shdfnd@physx@@QAEXI@Z 10029e20 f i CctCharacterControllerManager.obj
 0001:00028e50       ?reserve@?$HashBase@V?$Pair@QBVPxBase@physx@@UObservedRefCounter@Cct@2@@shdfnd@physx@@PBVPxBase@3@U?$Hash@PBVPxBase@physx@@@23@UGetKey@?$HashMapBase@PBVPxBase@physx@@UObservedRefCounter@Cct@2@U?$Hash@PBVPxBase@physx@@@shdfnd@2@VNonTrackingAllocator@62@@internal@23@VNonTrackingAllocator@23@$00@internal@shdfnd@physx@@QAEXI@Z 10029e50 f i CctCharacterControllerManager.obj
 0001:00028e80       ?reserveInternal@?$HashBase@PAVPxShape@physx@@PAV12@U?$Hash@PAVPxShape@physx@@@shdfnd@2@UGetKey@?$HashSetBase@PAVPxShape@physx@@U?$Hash@PAVPxShape@physx@@@shdfnd@2@VNonTrackingAllocator@42@$0A@@internal@42@VNonTrackingAllocator@42@$0A@@internal@shdfnd@physx@@AAEXI@Z 10029e80 f i CctCharacterControllerManager.obj
 0001:000293b0       ?reserveInternal@?$HashBase@V?$Pair@QBVPxBase@physx@@UObservedRefCounter@Cct@2@@shdfnd@physx@@PBVPxBase@3@U?$Hash@PBVPxBase@physx@@@23@UGetKey@?$HashMapBase@PBVPxBase@physx@@UObservedRefCounter@Cct@2@U?$Hash@PBVPxBase@physx@@@shdfnd@2@VNonTrackingAllocator@62@@internal@23@VNonTrackingAllocator@23@$00@internal@shdfnd@physx@@AAEXI@Z 1002a3b0 f i CctCharacterControllerManager.obj
 0001:00029860       ?reset@?$Array@PBXVNamedAllocator@shdfnd@physx@@@shdfnd@physx@@QAEXXZ 1002a860 f i CctCharacterControllerManager.obj
 0001:000298a0       ?reset@?$Array@UPxExtendedCapsule@physx@@VNamedAllocator@shdfnd@2@@shdfnd@physx@@QAEXXZ 1002a8a0 f i CctCharacterControllerManager.obj
 0001:000298f0       ?reset@?$Array@VPxExtendedBox@physx@@VNamedAllocator@shdfnd@2@@shdfnd@physx@@QAEXXZ 1002a8f0 f i CctCharacterControllerManager.obj
 0001:00029930       ?resize@?$Array@PBXVNamedAllocator@shdfnd@physx@@@shdfnd@physx@@QAEXIABQBX@Z 1002a930 f i CctCharacterControllerManager.obj
 0001:000299c0       ?resize@?$Array@UPxExtendedCapsule@physx@@VNamedAllocator@shdfnd@2@@shdfnd@physx@@QAEXIABUPxExtendedCapsule@3@@Z 1002a9c0 f i CctCharacterControllerManager.obj
 0001:00029a40       ?resize@?$Array@VPxExtendedBox@physx@@VNamedAllocator@shdfnd@2@@shdfnd@physx@@QAEXIABVPxExtendedBox@3@@Z 1002aa40 f i CctCharacterControllerManager.obj
 0001:00029ac0       ?setCctManager@?$TouchedObject@VPxRigidActor@physx@@@Cct@physx@@QAEXPAVCharacterControllerManager@23@@Z 1002aac0 f i CctCharacterControllerManager.obj
 0001:00029ae0       ?setCctManager@?$TouchedObject@VPxShape@physx@@@Cct@physx@@QAEXPAVCharacterControllerManager@23@@Z 1002aae0 f i CctCharacterControllerManager.obj
 0001:00029b00       ?setCctManager@Controller@Cct@physx@@QAEXPAVCharacterControllerManager@23@@Z 1002ab00 f i CctCharacterControllerManager.obj
 0001:00029b40       ?setCctManager@SweepTest@Cct@physx@@QAEXPAVCharacterControllerManager@23@@Z 1002ab40 f i CctCharacterControllerManager.obj
 0001:00029b90       ?setErrorLevel@Foundation@shdfnd@physx@@UAEXW4Enum@PxErrorCode@3@@Z 1002ab90 f i CctCharacterControllerManager.obj
 0001:00029bb0       ?setReportAllocationNames@Foundation@shdfnd@physx@@UAEX_N@Z 1002abb0 f i CctCharacterControllerManager.obj
 0001:00029bd0       ?shift@RenderBuffer@Cm@physx@@QAEXABVPxVec3@3@@Z 1002abd0 f i CctCharacterControllerManager.obj
 0001:00029d90       ?shrink@?$Array@PBXVNamedAllocator@shdfnd@physx@@@shdfnd@physx@@QAEXXZ 1002ad90 f i CctCharacterControllerManager.obj
 0001:00029db0       ?shrink@?$Array@UPxExtendedCapsule@physx@@VNamedAllocator@shdfnd@2@@shdfnd@physx@@QAEXXZ 1002adb0 f i CctCharacterControllerManager.obj
 0001:00029dd0       ?shrink@?$Array@VPxExtendedBox@physx@@VNamedAllocator@shdfnd@2@@shdfnd@physx@@QAEXXZ 1002add0 f i CctCharacterControllerManager.obj
 0001:00029df0       ?size@?$Array@PAVController@Cct@physx@@VNamedAllocator@shdfnd@3@@shdfnd@physx@@QBEIXZ 1002adf0 f i CctCharacterControllerManager.obj
 0001:00029e10       ?size@?$Array@PAVObstacleContext@Cct@physx@@VNamedAllocator@shdfnd@3@@shdfnd@physx@@QBEIXZ 1002ae10 f i CctCharacterControllerManager.obj
 0001:00029e30       ?size@?$Array@UPxDebugLine@physx@@VNamedAllocator@shdfnd@2@@shdfnd@physx@@QBEIXZ 1002ae30 f i CctCharacterControllerManager.obj
 0001:00029e50       ?size@?$Array@UPxDebugPoint@physx@@VNamedAllocator@shdfnd@2@@shdfnd@physx@@QBEIXZ 1002ae50 f i CctCharacterControllerManager.obj
 0001:00029e70       ?size@?$Array@UPxDebugText@physx@@VNamedAllocator@shdfnd@2@@shdfnd@physx@@QBEIXZ 1002ae70 f i CctCharacterControllerManager.obj
 0001:00029e90       ?size@?$Array@UPxDebugTriangle@physx@@VNamedAllocator@shdfnd@2@@shdfnd@physx@@QBEIXZ 1002ae90 f i CctCharacterControllerManager.obj
 0001:00029eb0       ??0Controller@Cct@physx@@QAE@ABVPxControllerDesc@2@PAVPxScene@2@@Z 1002aeb0 f   CctController.obj
 0001:0002a130       ??1Controller@Cct@physx@@UAE@XZ 1002b130 f   CctController.obj
 0001:0002a190       ?releaseInternal@Controller@Cct@physx@@QAEXXZ 1002b190 f   CctController.obj
 0001:0002a1c0       ?getInternalState@Controller@Cct@physx@@QBEXAAUPxControllerState@3@@Z 1002b1c0 f   CctController.obj
 0001:0002a2f0       ?getInternalStats@Controller@Cct@physx@@QBEXAAUPxControllerStats@3@@Z 1002b2f0 f   CctController.obj
 0001:0002a340       ?onOriginShift@Controller@Cct@physx@@QAEXABVPxVec3@3@@Z 1002b340 f   CctController.obj
 0001:0002a3d0       ?onRelease@Controller@Cct@physx@@QAEXABVPxBase@3@@Z 1002b3d0 f   CctController.obj
 0001:0002a3f0       ?setUpDirectionInternal@Controller@Cct@physx@@IAEXABVPxVec3@3@@Z 1002b3f0 f   CctController.obj
 0001:0002a4a0       ?getKineShape@Controller@Cct@physx@@IBEPAVPxShape@3@XZ 1002b4a0 f   CctController.obj
 0001:0002a530       ?createProxyActor@Controller@Cct@physx@@IAE_NAAVPxPhysics@3@ABVPxGeometry@3@ABVPxMaterial@3@@Z 1002b530 f   CctController.obj
 0001:0002a670       ?setPos@Controller@Cct@physx@@IAE_NABUPxExtendedVec3@3@@Z 1002b670 f   CctController.obj
 0001:0002a950       ??0?$PxFlags@W4Enum@PxShapeFlag@physx@@E@physx@@QAE@W4Enum@PxShapeFlag@1@@Z 1002b950 f i CctController.obj
 0001:0002a970       ??8PxVec3@physx@@QBE_NABV01@@Z 1002b970 f i CctController.obj
 0001:0002a9f0       ??B?$PxFlags@W4Enum@PxControllerCollisionFlag@physx@@E@physx@@QBEIXZ 1002b9f0 f i CctController.obj
 0001:0002aa10       ??U?$PxFlags@W4Enum@PxShapeFlag@physx@@E@physx@@QBE?AV01@W4Enum@PxShapeFlag@1@@Z 1002ba10 f i CctController.obj
 0001:0002aa60       ??Uphysx@@YA?AV?$PxFlags@W4Enum@PxShapeFlag@physx@@E@0@W4Enum@PxShapeFlag@0@0@Z 1002ba60 f i CctController.obj
 0001:0002aaa0       ??_5?$PxFlags@W4Enum@PxShapeFlag@physx@@E@physx@@QAEAAV01@W4Enum@PxShapeFlag@1@@Z 1002baa0 f i CctController.obj
 0001:0002aad0       ??_EController@Cct@physx@@UAEPAXI@Z 1002bad0 f i CctController.obj
 0001:0002aad0       ??_GController@Cct@physx@@UAEPAXI@Z 1002bad0 f i CctController.obj
 0001:0002ab30       ?createShape@PxPhysics@physx@@QAEPAVPxShape@2@ABVPxGeometry@2@ABVPxMaterial@2@_NV?$PxFlags@W4Enum@PxShapeFlag@physx@@E@2@@Z 1002bb30 f i CctController.obj
 0001:0002ab80       ?isNormalized@PxVec3@physx@@QBE_NXZ 1002bb80 f i CctController.obj
 0001:0002ac10       ??0HandleManager@Cct@physx@@QAE@XZ 1002bc10 f   CctObstacleContext.obj
 0001:0002ad60       ??1HandleManager@Cct@physx@@QAE@XZ 1002bd60 f   CctObstacleContext.obj
 0001:0002ad80       ?Add@HandleManager@Cct@physx@@QAEIPAX@Z 1002bd80 f   CctObstacleContext.obj
 0001:0002b0d0       ?Remove@HandleManager@Cct@physx@@QAEXI@Z 1002c0d0 f   CctObstacleContext.obj
 0001:0002b220       ?GetObject@HandleManager@Cct@physx@@QBEPAXI@Z 1002c220 f   CctObstacleContext.obj
 0001:0002b2b0       ?UpdateObject@HandleManager@Cct@physx@@QAE_NIPAX@Z 1002c2b0 f   CctObstacleContext.obj
 0001:0002b340       ?SetupLists@HandleManager@Cct@physx@@AAE_NPAPAXPAG11@Z 1002c340 f   CctObstacleContext.obj
 0001:0002b400       ??0ObstacleContext@Cct@physx@@QAE@AAVCharacterControllerManager@12@@Z 1002c400 f   CctObstacleContext.obj
 0001:0002b480       ??1ObstacleContext@Cct@physx@@UAE@XZ 1002c480 f   CctObstacleContext.obj
 0001:0002b4c0       ?release@ObstacleContext@Cct@physx@@UAEXXZ 1002c4c0 f   CctObstacleContext.obj
 0001:0002b4e0       ?getControllerManager@ObstacleContext@Cct@physx@@UBEAAVPxControllerManager@3@XZ 1002c4e0 f   CctObstacleContext.obj
 0001:0002b500       ?addObstacle@ObstacleContext@Cct@physx@@UAEIABVPxObstacle@3@@Z 1002c500 f   CctObstacleContext.obj
 0001:0002b600       ?removeObstacle@ObstacleContext@Cct@physx@@UAE_NI@Z 1002c600 f   CctObstacleContext.obj
 0001:0002b7b0       ?updateObstacle@ObstacleContext@Cct@physx@@UAE_NIABVPxObstacle@3@@Z 1002c7b0 f   CctObstacleContext.obj
 0001:0002b990       ?getNbObstacles@ObstacleContext@Cct@physx@@UBEIXZ 1002c990 f   CctObstacleContext.obj
 0001:0002b9c0       ?getObstacle@ObstacleContext@Cct@physx@@UBEPBVPxObstacle@3@I@Z 1002c9c0 f   CctObstacleContext.obj
 0001:0002ba30       ?getObstacleByHandle@ObstacleContext@Cct@physx@@UBEPBVPxObstacle@3@I@Z 1002ca30 f   CctObstacleContext.obj
 0001:0002bb90       ?raycastSingle@ObstacleContext@Cct@physx@@QBEPBVPxObstacle@3@AAUPxRaycastHit@3@ABVPxVec3@3@1MAAI@Z 1002cb90 f   CctObstacleContext.obj
 0001:0002be70       ?raycastSingle@ObstacleContext@Cct@physx@@QBEPBVPxObstacle@3@AAUPxRaycastHit@3@ABIABVPxVec3@3@2M@Z 1002ce70 f   CctObstacleContext.obj
 0001:0002c060       ?onOriginShift@ObstacleContext@Cct@physx@@QAEXABVPxVec3@3@@Z 1002d060 f   CctObstacleContext.obj
 0001:0002c890       ??$PX_UNUSED@_N@@YAXAB_N@Z 1002d890 f i CctObstacleContext.obj
 0001:0002c8a0       ??0?$Array@UInternalBoxObstacle@ObstacleContext@Cct@physx@@VNamedAllocator@shdfnd@4@@shdfnd@physx@@QAE@ABVNamedAllocator@12@@Z 1002d8a0 f i CctObstacleContext.obj
 0001:0002c8f0       ??0?$Array@UInternalCapsuleObstacle@ObstacleContext@Cct@physx@@VNamedAllocator@shdfnd@4@@shdfnd@physx@@QAE@ABVNamedAllocator@12@@Z 1002d8f0 f i CctObstacleContext.obj
 0001:0002c940       ??0InternalBoxObstacle@ObstacleContext@Cct@physx@@QAE@ABU0123@@Z 1002d940 f i CctObstacleContext.obj
 0001:0002c980       ??0InternalBoxObstacle@ObstacleContext@Cct@physx@@QAE@IABVPxBoxObstacle@3@@Z 1002d980 f i CctObstacleContext.obj
 0001:0002c9b0       ??0InternalCapsuleObstacle@ObstacleContext@Cct@physx@@QAE@ABU0123@@Z 1002d9b0 f i CctObstacleContext.obj
 0001:0002c9f0       ??0InternalCapsuleObstacle@ObstacleContext@Cct@physx@@QAE@IABVPxCapsuleObstacle@3@@Z 1002d9f0 f i CctObstacleContext.obj
 0001:0002ca20       ??0PxBoxObstacle@physx@@QAE@ABV01@@Z 1002da20 f i CctObstacleContext.obj
 0001:0002ca60       ??0PxCapsuleObstacle@physx@@QAE@ABV01@@Z 1002da60 f i CctObstacleContext.obj
 0001:0002cab0       ??0PxObstacle@physx@@QAE@ABV01@@Z 1002dab0 f i CctObstacleContext.obj
 0001:0002cb30       ??0PxObstacleContext@physx@@QAE@XZ 1002db30 f i CctObstacleContext.obj
 0001:0002cb50       ??1?$Array@UInternalBoxObstacle@ObstacleContext@Cct@physx@@VNamedAllocator@shdfnd@4@@shdfnd@physx@@QAE@XZ 1002db50 f i CctObstacleContext.obj
 0001:0002cbc0       ??1?$Array@UInternalCapsuleObstacle@ObstacleContext@Cct@physx@@VNamedAllocator@shdfnd@4@@shdfnd@physx@@QAE@XZ 1002dbc0 f i CctObstacleContext.obj
 0001:0002cc30       ??1PxObstacleContext@physx@@UAE@XZ 1002dc30 f i CctObstacleContext.obj
 0001:0002cc50       ??4InternalBoxObstacle@ObstacleContext@Cct@physx@@QAEAAU0123@ABU0123@@Z 1002dc50 f i CctObstacleContext.obj
 0001:0002cc90       ??4InternalCapsuleObstacle@ObstacleContext@Cct@physx@@QAEAAU0123@ABU0123@@Z 1002dc90 f i CctObstacleContext.obj
 0001:0002ccd0       ??4PxBoxObstacle@physx@@QAEAAV01@ABV01@@Z 1002dcd0 f i CctObstacleContext.obj
 0001:0002cd10       ??4PxCapsuleObstacle@physx@@QAEAAV01@ABV01@@Z 1002dd10 f i CctObstacleContext.obj
 0001:0002cd60       ??4PxObstacle@physx@@QAEAAV01@ABV01@@Z 1002dd60 f i CctObstacleContext.obj
 0001:0002cde0       ??A?$Array@UInternalBoxObstacle@ObstacleContext@Cct@physx@@VNamedAllocator@shdfnd@4@@shdfnd@physx@@QAEAAUInternalBoxObstacle@ObstacleContext@Cct@2@I@Z 1002dde0 f i CctObstacleContext.obj
 0001:0002ce50       ??A?$Array@UInternalCapsuleObstacle@ObstacleContext@Cct@physx@@VNamedAllocator@shdfnd@4@@shdfnd@physx@@QAEAAUInternalCapsuleObstacle@ObstacleContext@Cct@2@I@Z 1002de50 f i CctObstacleContext.obj
 0001:0002cec0       ??_GObstacleContext@Cct@physx@@UAEPAXI@Z 1002dec0 f i CctObstacleContext.obj
 0001:0002cec0       ??_EObstacleContext@Cct@physx@@UAEPAXI@Z 1002dec0 f i CctObstacleContext.obj
 0001:0002cf20       ??_GPxObstacleContext@physx@@UAEPAXI@Z 1002df20 f i CctObstacleContext.obj
 0001:0002cf20       ??_EPxObstacleContext@physx@@UAEPAXI@Z 1002df20 f i CctObstacleContext.obj
 0001:0002cf60       ?PxMemCopy@physx@@YAPAXPIAXPIBXI@Z 1002df60 f i CctObstacleContext.obj
 0001:0002cf80       ?PxMemSet@physx@@YAPAXPAXHI@Z 1002df80 f i CctObstacleContext.obj
 0001:0002cfa0       ?PxMemZero@physx@@YAPAXPAXI@Z 1002dfa0 f i CctObstacleContext.obj
 0001:0002cfc0       ?allocate@?$Array@UInternalBoxObstacle@ObstacleContext@Cct@physx@@VNamedAllocator@shdfnd@4@@shdfnd@physx@@IAEPAUInternalBoxObstacle@ObstacleContext@Cct@3@I@Z 1002dfc0 f i CctObstacleContext.obj
 0001:0002d040       ?allocate@?$Array@UInternalCapsuleObstacle@ObstacleContext@Cct@physx@@VNamedAllocator@shdfnd@4@@shdfnd@physx@@IAEPAUInternalCapsuleObstacle@ObstacleContext@Cct@3@I@Z 1002e040 f i CctObstacleContext.obj
 0001:0002d0c0       ?capacity@?$Array@UInternalBoxObstacle@ObstacleContext@Cct@physx@@VNamedAllocator@shdfnd@4@@shdfnd@physx@@QBEIXZ 1002e0c0 f i CctObstacleContext.obj
 0001:0002d0e0       ?capacity@?$Array@UInternalCapsuleObstacle@ObstacleContext@Cct@physx@@VNamedAllocator@shdfnd@4@@shdfnd@physx@@QBEIXZ 1002e0e0 f i CctObstacleContext.obj
 0001:0002d100       ?capacityIncrement@?$Array@UInternalBoxObstacle@ObstacleContext@Cct@physx@@VNamedAllocator@shdfnd@4@@shdfnd@physx@@IBEIXZ 1002e100 f i CctObstacleContext.obj
 0001:0002d140       ?capacityIncrement@?$Array@UInternalCapsuleObstacle@ObstacleContext@Cct@physx@@VNamedAllocator@shdfnd@4@@shdfnd@physx@@IBEIXZ 1002e140 f i CctObstacleContext.obj
 0001:0002d180       ?copy@?$Array@UInternalBoxObstacle@ObstacleContext@Cct@physx@@VNamedAllocator@shdfnd@4@@shdfnd@physx@@KAXPAUInternalBoxObstacle@ObstacleContext@Cct@3@0PBU4563@@Z 1002e180 f i CctObstacleContext.obj
 0001:0002d240       ?copy@?$Array@UInternalCapsuleObstacle@ObstacleContext@Cct@physx@@VNamedAllocator@shdfnd@4@@shdfnd@physx@@KAXPAUInternalCapsuleObstacle@ObstacleContext@Cct@3@0PBU4563@@Z 1002e240 f i CctObstacleContext.obj
 0001:0002d2f0       ?deallocate@?$Array@UInternalBoxObstacle@ObstacleContext@Cct@physx@@VNamedAllocator@shdfnd@4@@shdfnd@physx@@IAEXPAX@Z 1002e2f0 f i CctObstacleContext.obj
 0001:0002d310       ?deallocate@?$Array@UInternalCapsuleObstacle@ObstacleContext@Cct@physx@@VNamedAllocator@shdfnd@4@@shdfnd@physx@@IAEXPAX@Z 1002e310 f i CctObstacleContext.obj
 0001:0002d330       ?destroy@?$Array@UInternalBoxObstacle@ObstacleContext@Cct@physx@@VNamedAllocator@shdfnd@4@@shdfnd@physx@@KAXPAUInternalBoxObstacle@ObstacleContext@Cct@3@0@Z 1002e330 f i CctObstacleContext.obj
 0001:0002d360       ?destroy@?$Array@UInternalCapsuleObstacle@ObstacleContext@Cct@physx@@VNamedAllocator@shdfnd@4@@shdfnd@physx@@KAXPAUInternalCapsuleObstacle@ObstacleContext@Cct@3@0@Z 1002e360 f i CctObstacleContext.obj
 0001:0002d390       ?getType@PxObstacle@physx@@QBE?AW4Enum@PxGeometryType@2@XZ 1002e390 f i CctObstacleContext.obj
 0001:0002d3b0       ?growAndPushBack@?$Array@UInternalBoxObstacle@ObstacleContext@Cct@physx@@VNamedAllocator@shdfnd@4@@shdfnd@physx@@IAEAAUInternalBoxObstacle@ObstacleContext@Cct@3@ABU4563@@Z 1002e3b0 f i CctObstacleContext.obj
 0001:0002d530       ?growAndPushBack@?$Array@UInternalCapsuleObstacle@ObstacleContext@Cct@physx@@VNamedAllocator@shdfnd@4@@shdfnd@physx@@IAEAAUInternalCapsuleObstacle@ObstacleContext@Cct@3@ABU4563@@Z 1002e530 f i CctObstacleContext.obj
 0001:0002d6c0       ?isArrayOfPOD@?$Array@UInternalBoxObstacle@ObstacleContext@Cct@physx@@VNamedAllocator@shdfnd@4@@shdfnd@physx@@SA_NXZ 1002e6c0 f i CctObstacleContext.obj
 0001:0002d6d0       ?isArrayOfPOD@?$Array@UInternalCapsuleObstacle@ObstacleContext@Cct@physx@@VNamedAllocator@shdfnd@4@@shdfnd@physx@@SA_NXZ 1002e6d0 f i CctObstacleContext.obj
 0001:0002d6e0       ?isInUserMemory@?$Array@UInternalBoxObstacle@ObstacleContext@Cct@physx@@VNamedAllocator@shdfnd@4@@shdfnd@physx@@QBEIXZ 1002e6e0 f i CctObstacleContext.obj
 0001:0002d700       ?isInUserMemory@?$Array@UInternalCapsuleObstacle@ObstacleContext@Cct@physx@@VNamedAllocator@shdfnd@4@@shdfnd@physx@@QBEIXZ 1002e700 f i CctObstacleContext.obj
 0001:0002d720       ?pushBack@?$Array@UInternalBoxObstacle@ObstacleContext@Cct@physx@@VNamedAllocator@shdfnd@4@@shdfnd@physx@@QAEAAUInternalBoxObstacle@ObstacleContext@Cct@3@ABU4563@@Z 1002e720 f i CctObstacleContext.obj
 0001:0002d7d0       ?pushBack@?$Array@UInternalCapsuleObstacle@ObstacleContext@Cct@physx@@VNamedAllocator@shdfnd@4@@shdfnd@physx@@QAEAAUInternalCapsuleObstacle@ObstacleContext@Cct@3@ABU4563@@Z 1002e7d0 f i CctObstacleContext.obj
 0001:0002d880       ?replaceWithLast@?$Array@UInternalBoxObstacle@ObstacleContext@Cct@physx@@VNamedAllocator@shdfnd@4@@shdfnd@physx@@QAEXI@Z 1002e880 f i CctObstacleContext.obj
 0001:0002d920       ?replaceWithLast@?$Array@UInternalCapsuleObstacle@ObstacleContext@Cct@physx@@VNamedAllocator@shdfnd@4@@shdfnd@physx@@QAEXI@Z 1002e920 f i CctObstacleContext.obj
 0001:0002d9d0       ?to16@shdfnd@physx@@YAGI@Z 1002e9d0 f i CctObstacleContext.obj
 0001:0002da30       ??0SweptBox@Cct@physx@@QAE@XZ 1002ea30 f   CctSweptBox.obj
 0001:0002da70       ??1SweptBox@Cct@physx@@UAE@XZ 1002ea70 f   CctSweptBox.obj
 0001:0002da90       ?computeTemporalBox@SweptBox@Cct@physx@@UBEXABVSweepTest@23@AAUPxExtendedBounds3@3@ABUPxExtendedVec3@3@ABVPxVec3@3@@Z 1002ea90 f   CctSweptBox.obj
 0001:0002db80       ??$PxMax@M@physx@@YAMMM@Z  1002eb80 f i CctSweptBox.obj
 0001:0002dbb0       ??_GSweptBox@Cct@physx@@UAEPAXI@Z 1002ebb0 f i CctSweptBox.obj
 0001:0002dbb0       ??_ESweptBox@Cct@physx@@UAEPAXI@Z 1002ebb0 f i CctSweptBox.obj
 0001:0002dbf0       ??0SweptCapsule@Cct@physx@@QAE@XZ 1002ebf0 f   CctSweptCapsule.obj
 0001:0002dc20       ??1SweptCapsule@Cct@physx@@UAE@XZ 1002ec20 f   CctSweptCapsule.obj
 0001:0002dc40       ?computeTemporalBox@SweptCapsule@Cct@physx@@UBEXABVSweepTest@23@AAUPxExtendedBounds3@3@ABUPxExtendedVec3@3@ABVPxVec3@3@@Z 1002ec40 f   CctSweptCapsule.obj
 0001:0002dce0       ??_ESweptCapsule@Cct@physx@@UAEPAXI@Z 1002ece0 f i CctSweptCapsule.obj
 0001:0002dce0       ??_GSweptCapsule@Cct@physx@@UAEPAXI@Z 1002ece0 f i CctSweptCapsule.obj
 0001:0002dd20       ??0SweptVolume@Cct@physx@@QAE@XZ 1002ed20 f   CctSweptVolume.obj
 0001:0002dd50       ??1SweptVolume@Cct@physx@@UAE@XZ 1002ed50 f   CctSweptVolume.obj
 0001:0002dd70       ?computeTemporalBox@Cct@physx@@YAXAAUPxExtendedBounds3@2@MMMMABVPxVec3@2@ABUPxExtendedVec3@2@1@Z 1002ed70 f   CctSweptVolume.obj
 0001:0002dff0       ??_ESweptVolume@Cct@physx@@UAEPAXI@Z 1002eff0 f i CctSweptVolume.obj
 0001:0002dff0       ??_GSweptVolume@Cct@physx@@UAEPAXI@Z 1002eff0 f i CctSweptVolume.obj
 0001:0002e030       ??0PxMeshOverlapUtil@physx@@QAE@XZ 1002f030 f   PhysX3ExtensionsDEBUG:ExtTriangleMeshExt.obj
 0001:0002e070       ??1PxMeshOverlapUtil@physx@@QAE@XZ 1002f070 f   PhysX3ExtensionsDEBUG:ExtTriangleMeshExt.obj
 0001:0002e0b0       ?findOverlap@PxMeshOverlapUtil@physx@@QAEIABVPxGeometry@2@ABVPxTransform@2@ABVPxTriangleMeshGeometry@2@1@Z 1002f0b0 f   PhysX3ExtensionsDEBUG:ExtTriangleMeshExt.obj
 0001:0002e250       ?findOverlap@PxMeshOverlapUtil@physx@@QAEIABVPxGeometry@2@ABVPxTransform@2@ABVPxHeightFieldGeometry@2@1@Z 1002f250 f   PhysX3ExtensionsDEBUG:ExtTriangleMeshExt.obj
 0001:0002e330       ?PxComputeMeshPenetration@physx@@YA?AVPxVec3@1@IABVPxGeometry@1@ABVPxTransform@1@ABVPxTriangleMeshGeometry@1@1AAI@Z 1002f330 f   PhysX3ExtensionsDEBUG:ExtTriangleMeshExt.obj
 0001:0002e390       ?PxComputeTriangleMeshPenetration@physx@@YA_NAAVPxVec3@1@AAMABVPxGeometry@1@ABVPxTransform@1@ABVPxTriangleMeshGeometry@1@3IPAI@Z 1002f390 f   PhysX3ExtensionsDEBUG:ExtTriangleMeshExt.obj
 0001:0002e3c0       ?PxComputeHeightFieldPenetration@physx@@YA?AVPxVec3@1@IABVPxGeometry@1@ABVPxTransform@1@ABVPxHeightFieldGeometry@1@1AAI@Z 1002f3c0 f   PhysX3ExtensionsDEBUG:ExtTriangleMeshExt.obj
 0001:0002e420       ?PxComputeHeightFieldPenetration@physx@@YA_NAAVPxVec3@1@AAMABVPxGeometry@1@ABVPxTransform@1@ABVPxHeightFieldGeometry@1@3IPAI@Z 1002f420 f   PhysX3ExtensionsDEBUG:ExtTriangleMeshExt.obj
 0001:0002e7e0       ??0PxTransform@physx@@QAE@ABV01@@Z 1002f7e0 f i PhysX3ExtensionsDEBUG:ExtTriangleMeshExt.obj
 0001:0002e820       ??KPxVec3@physx@@QBE?AV01@M@Z 1002f820 f i PhysX3ExtensionsDEBUG:ExtTriangleMeshExt.obj
 0001:0002e8a0       ?updateMassAndInertia@PxRigidBodyExt@physx@@SA_NAAVPxRigidBody@2@PBMIPBVPxVec3@2@_N@Z 1002f8a0 f   PhysX3ExtensionsDEBUG:ExtRigidBodyExt.obj
 0001:0002e8d0       ?updateMassAndInertia@PxRigidBodyExt@physx@@SA_NAAVPxRigidBody@2@MPBVPxVec3@2@_N@Z 1002f8d0 f   PhysX3ExtensionsDEBUG:ExtRigidBodyExt.obj
 0001:0002e900       ?setMassAndUpdateInertia@PxRigidBodyExt@physx@@SA_NAAVPxRigidBody@2@PBMIPBVPxVec3@2@_N@Z 1002f900 f   PhysX3ExtensionsDEBUG:ExtRigidBodyExt.obj
 0001:0002e930       ?setMassAndUpdateInertia@PxRigidBodyExt@physx@@SA_NAAVPxRigidBody@2@MPBVPxVec3@2@_N@Z 1002f930 f   PhysX3ExtensionsDEBUG:ExtRigidBodyExt.obj
 0001:0002e960       ?computeMassPropertiesFromShapes@PxRigidBodyExt@physx@@SA?AVPxMassProperties@2@PBQBVPxShape@2@I@Z 1002f960 f   PhysX3ExtensionsDEBUG:ExtRigidBodyExt.obj
 0001:0002ea90       ?addForceAtPos@PxRigidBodyExt@physx@@SAXAAVPxRigidBody@2@ABVPxVec3@2@1W4Enum@PxForceMode@2@_N@Z 1002fa90 f   PhysX3ExtensionsDEBUG:ExtRigidBodyExt.obj
 0001:0002eac0       ?addForceAtLocalPos@PxRigidBodyExt@physx@@SAXAAVPxRigidBody@2@ABVPxVec3@2@1W4Enum@PxForceMode@2@_N@Z 1002fac0 f   PhysX3ExtensionsDEBUG:ExtRigidBodyExt.obj
 0001:0002eb10       ?addLocalForceAtPos@PxRigidBodyExt@physx@@SAXAAVPxRigidBody@2@ABVPxVec3@2@1W4Enum@PxForceMode@2@_N@Z 1002fb10 f   PhysX3ExtensionsDEBUG:ExtRigidBodyExt.obj
 0001:0002eb60       ?addLocalForceAtLocalPos@PxRigidBodyExt@physx@@SAXAAVPxRigidBody@2@ABVPxVec3@2@1W4Enum@PxForceMode@2@_N@Z 1002fb60 f   PhysX3ExtensionsDEBUG:ExtRigidBodyExt.obj
 0001:0002ebc0       ?getVelocityAtPos@PxRigidBodyExt@physx@@SA?AVPxVec3@2@ABVPxRigidBody@2@ABV32@@Z 1002fbc0 f   PhysX3ExtensionsDEBUG:ExtRigidBodyExt.obj
 0001:0002ec30       ?getLocalVelocityAtLocalPos@PxRigidBodyExt@physx@@SA?AVPxVec3@2@ABVPxRigidBody@2@ABV32@@Z 1002fc30 f   PhysX3ExtensionsDEBUG:ExtRigidBodyExt.obj
 0001:0002ecb0       ?getVelocityAtOffset@PxRigidBodyExt@physx@@SA?AVPxVec3@2@ABVPxRigidBody@2@ABV32@@Z 1002fcb0 f   PhysX3ExtensionsDEBUG:ExtRigidBodyExt.obj
 0001:0002ed20       ?linearSweepSingle@PxRigidBodyExt@physx@@SA_NAAVPxRigidBody@2@AAVPxScene@2@ABVPxVec3@2@MV?$PxFlags@W4Enum@PxHitFlag@physx@@G@2@AAUPxSweepHit@2@AAIABUPxQueryFilterData@2@PAVPxQueryFilterCallback@2@PBUPxQueryCache@2@M@Z 1002fd20 f   PhysX3ExtensionsDEBUG:ExtRigidBodyExt.obj
 0001:0002ef50       ?linearSweepMultiple@PxRigidBodyExt@physx@@SAIAAVPxRigidBody@2@AAVPxScene@2@ABVPxVec3@2@MV?$PxFlags@W4Enum@PxHitFlag@physx@@G@2@PAUPxSweepHit@2@PAIIAAU72@AAHAA_NABUPxQueryFilterData@2@PAVPxQueryFilterCallback@2@PBUPxQueryCache@2@M@Z 1002ff50 f   PhysX3ExtensionsDEBUG:ExtRigidBodyExt.obj
 0001:0002f380       ?computeVelocityDeltaFromImpulse@PxRigidBodyExt@physx@@SAXABVPxRigidBody@2@ABVPxVec3@2@1AAV42@2@Z 10030380 f   PhysX3ExtensionsDEBUG:ExtRigidBodyExt.obj
 0001:0002f890       ?computeVelocityDeltaFromImpulse@PxRigidBodyExt@physx@@SAXABVPxRigidBody@2@ABVPxTransform@2@ABVPxVec3@2@2MMAAV52@3@Z 10030890 f   PhysX3ExtensionsDEBUG:ExtRigidBodyExt.obj
 0001:0002f990       ?computeLinearAngularImpulse@PxRigidBodyExt@physx@@SAXABVPxRigidBody@2@ABVPxTransform@2@ABVPxVec3@2@2MMAAV52@3@Z 10030990 f   PhysX3ExtensionsDEBUG:ExtRigidBodyExt.obj
 0001:0002fa20       ??0InertiaTensorComputer@Ext@physx@@QAE@_N@Z 10030a20 f   PhysX3ExtensionsDEBUG:ExtRigidBodyExt.obj
 0001:0002fa60       ??0InertiaTensorComputer@Ext@physx@@QAE@ABVPxMat33@2@ABVPxVec3@2@M@Z 10030a60 f   PhysX3ExtensionsDEBUG:ExtRigidBodyExt.obj
 0001:0002faa0       ??1InertiaTensorComputer@Ext@physx@@QAE@XZ 10030aa0 f   PhysX3ExtensionsDEBUG:ExtRigidBodyExt.obj
 0001:0002fab0       ?translate@InertiaTensorComputer@Ext@physx@@QAEXABVPxVec3@3@@Z 10030ab0 f   PhysX3ExtensionsDEBUG:ExtRigidBodyExt.obj
 0001:0002fdd0       ?setBox@InertiaTensorComputer@Ext@physx@@QAEXABVPxVec3@3@@Z 10030dd0 f   PhysX3ExtensionsDEBUG:ExtRigidBodyExt.obj
 0001:0002fec0       ?setSphere@InertiaTensorComputer@Ext@physx@@QAEXM@Z 10030ec0 f   PhysX3ExtensionsDEBUG:ExtRigidBodyExt.obj
 0001:0002ff40       ?setCylinder@InertiaTensorComputer@Ext@physx@@QAEXHMM@Z 10030f40 f   PhysX3ExtensionsDEBUG:ExtRigidBodyExt.obj
 0001:000300a0       ?setCapsule@InertiaTensorComputer@Ext@physx@@QAEXHMM@Z 100310a0 f   PhysX3ExtensionsDEBUG:ExtRigidBodyExt.obj
 0001:00030290       ?setEllipsoid@InertiaTensorComputer@Ext@physx@@QAEXMMM@Z 10031290 f   PhysX3ExtensionsDEBUG:ExtRigidBodyExt.obj
 0001:00030350       ?computeSphereMass@Ext@physx@@YAMMM@Z 10031350 f   PhysX3ExtensionsDEBUG:ExtRigidBodyExt.obj
 0001:00030390       ?computeSphereDensity@Ext@physx@@YAMMM@Z 10031390 f   PhysX3ExtensionsDEBUG:ExtRigidBodyExt.obj
 0001:000303d0       ?computeBoxMass@Ext@physx@@YAMABVPxVec3@2@M@Z 100313d0 f   PhysX3ExtensionsDEBUG:ExtRigidBodyExt.obj
 0001:00030400       ?computeBoxDensity@Ext@physx@@YAMABVPxVec3@2@M@Z 10031400 f   PhysX3ExtensionsDEBUG:ExtRigidBodyExt.obj
 0001:00030430       ?computeEllipsoidMass@Ext@physx@@YAMABVPxVec3@2@M@Z 10031430 f   PhysX3ExtensionsDEBUG:ExtRigidBodyExt.obj
 0001:00030460       ?computeEllipsoidDensity@Ext@physx@@YAMABVPxVec3@2@M@Z 10031460 f   PhysX3ExtensionsDEBUG:ExtRigidBodyExt.obj
 0001:00030490       ?computeCylinderMass@Ext@physx@@YAMMMM@Z 10031490 f   PhysX3ExtensionsDEBUG:ExtRigidBodyExt.obj
 0001:000304d0       ?computeCylinderDensity@Ext@physx@@YAMMMM@Z 100314d0 f   PhysX3ExtensionsDEBUG:ExtRigidBodyExt.obj
 0001:00030510       ?computeCapsuleMass@Ext@physx@@YAMMMM@Z 10031510 f   PhysX3ExtensionsDEBUG:ExtRigidBodyExt.obj
 0001:00030550       ?computeCapsuleDensity@Ext@physx@@YAMMMM@Z 10031550 f   PhysX3ExtensionsDEBUG:ExtRigidBodyExt.obj
 0001:00030590       ?computeConeMass@Ext@physx@@YAMMMM@Z 10031590 f   PhysX3ExtensionsDEBUG:ExtRigidBodyExt.obj
 0001:000305d0       ?computeConeDensity@Ext@physx@@YAMMMM@Z 100315d0 f   PhysX3ExtensionsDEBUG:ExtRigidBodyExt.obj
 0001:00030610       ?computeBoxInertiaTensor@Ext@physx@@YAXAAVPxVec3@2@MMMM@Z 10031610 f   PhysX3ExtensionsDEBUG:ExtRigidBodyExt.obj
 0001:000307c0       ?computeSphereInertiaTensor@Ext@physx@@YAXAAVPxVec3@2@MM_N@Z 100317c0 f   PhysX3ExtensionsDEBUG:ExtRigidBodyExt.obj
 0001:00032500       ??$PX_UNUSED@PBUPxSweepHit@physx@@@@YAXABQBUPxSweepHit@physx@@@Z 10033500 f i PhysX3ExtensionsDEBUG:ExtRigidBodyExt.obj
 0001:00032510       ??$PX_UNUSED@W4PxZERO@physx@@@@YAXABW4PxZERO@physx@@@Z 10033510 f i PhysX3ExtensionsDEBUG:ExtRigidBodyExt.obj
 0001:00032520       ??$PxUnionCast@PAVPxGeometry@physx@@PAY03E@physx@@YAPAVPxGeometry@0@PAY03E@Z 10033520 f i PhysX3ExtensionsDEBUG:ExtRigidBodyExt.obj
 0001:00032540       ??0?$Array@PAVPxShape@physx@@V?$InlineAllocator@$0EA@VNamedAllocator@shdfnd@physx@@@shdfnd@2@@shdfnd@physx@@QAE@ABV?$InlineAllocator@$0EA@VNamedAllocator@shdfnd@physx@@@12@@Z 10033540 f i PhysX3ExtensionsDEBUG:ExtRigidBodyExt.obj
 0001:00032590       ??0?$Array@VPxMassProperties@physx@@V?$InlineAllocator@$0DEA@VNamedAllocator@shdfnd@physx@@@shdfnd@2@@shdfnd@physx@@QAE@ABV?$InlineAllocator@$0DEA@VNamedAllocator@shdfnd@physx@@@12@@Z 10033590 f i PhysX3ExtensionsDEBUG:ExtRigidBodyExt.obj
 0001:000325f0       ??0?$Array@VPxTransform@physx@@V?$InlineAllocator@$0BMA@VNamedAllocator@shdfnd@physx@@@shdfnd@2@@shdfnd@physx@@QAE@ABV?$InlineAllocator@$0BMA@VNamedAllocator@shdfnd@physx@@@12@@Z 100335f0 f i PhysX3ExtensionsDEBUG:ExtRigidBodyExt.obj
 0001:00032650       ??0?$InlineAllocator@$0BMA@VNamedAllocator@shdfnd@physx@@@shdfnd@physx@@QAE@ABV012@@Z 10033650 f i PhysX3ExtensionsDEBUG:ExtRigidBodyExt.obj
 0001:00032680       ??0?$InlineAllocator@$0BMA@VNamedAllocator@shdfnd@physx@@@shdfnd@physx@@QAE@ABVNamedAllocator@12@@Z 10033680 f i PhysX3ExtensionsDEBUG:ExtRigidBodyExt.obj
 0001:000326b0       ??0?$InlineAllocator@$0DEA@VNamedAllocator@shdfnd@physx@@@shdfnd@physx@@QAE@ABV012@@Z 100336b0 f i PhysX3ExtensionsDEBUG:ExtRigidBodyExt.obj
 0001:000326e0       ??0?$InlineAllocator@$0DEA@VNamedAllocator@shdfnd@physx@@@shdfnd@physx@@QAE@ABVNamedAllocator@12@@Z 100336e0 f i PhysX3ExtensionsDEBUG:ExtRigidBodyExt.obj
 0001:00032710       ??0?$InlineAllocator@$0EA@VNamedAllocator@shdfnd@physx@@@shdfnd@physx@@QAE@ABV012@@Z 10033710 f i PhysX3ExtensionsDEBUG:ExtRigidBodyExt.obj
 0001:00032740       ??0?$InlineAllocator@$0EA@VNamedAllocator@shdfnd@physx@@@shdfnd@physx@@QAE@ABVNamedAllocator@12@@Z 10033740 f i PhysX3ExtensionsDEBUG:ExtRigidBodyExt.obj
 0001:00032770       ??0?$InlineArray@PAVPxShape@physx@@$0BA@VNamedAllocator@shdfnd@2@@shdfnd@physx@@QAE@ABVNamedAllocator@12@@Z 10033770 f i PhysX3ExtensionsDEBUG:ExtRigidBodyExt.obj
 0001:000327d0       ??0?$InlineArray@VPxMassProperties@physx@@$0BA@VNamedAllocator@shdfnd@2@@shdfnd@physx@@QAE@ABVNamedAllocator@12@@Z 100337d0 f i PhysX3ExtensionsDEBUG:ExtRigidBodyExt.obj
 0001:00032850       ??0?$InlineArray@VPxTransform@physx@@$0BA@VNamedAllocator@shdfnd@2@@shdfnd@physx@@QAE@ABVNamedAllocator@12@@Z 10033850 f i PhysX3ExtensionsDEBUG:ExtRigidBodyExt.obj
 0001:000328d0       ??0?$PxHitBuffer@UPxSweepHit@physx@@@physx@@QAE@PAUPxSweepHit@1@I@Z 100338d0 f i PhysX3ExtensionsDEBUG:ExtRigidBodyExt.obj
 0001:00032910       ??0?$PxHitCallback@UPxSweepHit@physx@@@physx@@QAE@PAUPxSweepHit@1@I@Z 10033910 f i PhysX3ExtensionsDEBUG:ExtRigidBodyExt.obj
 0001:00032990       ??0PxMassProperties@physx@@QAE@ABV01@@Z 10033990 f i PhysX3ExtensionsDEBUG:ExtRigidBodyExt.obj
 0001:000329e0       ??0PxMassProperties@physx@@QAE@ABVPxGeometry@1@@Z 100339e0 f i PhysX3ExtensionsDEBUG:ExtRigidBodyExt.obj
 0001:00033400       ??0PxMassProperties@physx@@QAE@MABVPxMat33@1@ABVPxVec3@1@@Z 10034400 f i PhysX3ExtensionsDEBUG:ExtRigidBodyExt.obj
 0001:00033450       ??0PxMassProperties@physx@@QAE@XZ 10034450 f i PhysX3ExtensionsDEBUG:ExtRigidBodyExt.obj
 0001:000334a0       ??0PxMat33@physx@@QAE@ABV01@@Z 100344a0 f i PhysX3ExtensionsDEBUG:ExtRigidBodyExt.obj
 0001:000334f0       ??0PxMat33@physx@@QAE@W4PxZERO@1@@Z 100344f0 f i PhysX3ExtensionsDEBUG:ExtRigidBodyExt.obj
 0001:00033560       ??0PxMat33@physx@@QAE@XZ   10034560 f i PhysX3ExtensionsDEBUG:ExtRigidBodyExt.obj
 0001:000335a0       ??0PxQueryFilterData@physx@@QAE@XZ 100345a0 f i PhysX3ExtensionsDEBUG:ExtRigidBodyExt.obj
 0001:000335e0       ??1?$Array@PAVPxShape@physx@@V?$InlineAllocator@$0EA@VNamedAllocator@shdfnd@physx@@@shdfnd@2@@shdfnd@physx@@QAE@XZ 100345e0 f i PhysX3ExtensionsDEBUG:ExtRigidBodyExt.obj
 0001:00033650       ??1?$Array@VPxMassProperties@physx@@V?$InlineAllocator@$0DEA@VNamedAllocator@shdfnd@physx@@@shdfnd@2@@shdfnd@physx@@QAE@XZ 10034650 f i PhysX3ExtensionsDEBUG:ExtRigidBodyExt.obj
 0001:000336d0       ??1?$Array@VPxTransform@physx@@V?$InlineAllocator@$0BMA@VNamedAllocator@shdfnd@physx@@@shdfnd@2@@shdfnd@physx@@QAE@XZ 100346d0 f i PhysX3ExtensionsDEBUG:ExtRigidBodyExt.obj
 0001:00033750       ??1?$InlineAllocator@$0BMA@VNamedAllocator@shdfnd@physx@@@shdfnd@physx@@QAE@XZ 10034750 f i PhysX3ExtensionsDEBUG:ExtRigidBodyExt.obj
 0001:00033770       ??1?$InlineAllocator@$0DEA@VNamedAllocator@shdfnd@physx@@@shdfnd@physx@@QAE@XZ 10034770 f i PhysX3ExtensionsDEBUG:ExtRigidBodyExt.obj
 0001:00033790       ??1?$InlineAllocator@$0EA@VNamedAllocator@shdfnd@physx@@@shdfnd@physx@@QAE@XZ 10034790 f i PhysX3ExtensionsDEBUG:ExtRigidBodyExt.obj
 0001:000337b0       ??1?$InlineArray@PAVPxShape@physx@@$0BA@VNamedAllocator@shdfnd@2@@shdfnd@physx@@QAE@XZ 100347b0 f i PhysX3ExtensionsDEBUG:ExtRigidBodyExt.obj
 0001:000337d0       ??1?$InlineArray@VPxMassProperties@physx@@$0BA@VNamedAllocator@shdfnd@2@@shdfnd@physx@@QAE@XZ 100347d0 f i PhysX3ExtensionsDEBUG:ExtRigidBodyExt.obj
 0001:000337f0       ??1?$InlineArray@VPxTransform@physx@@$0BA@VNamedAllocator@shdfnd@2@@shdfnd@physx@@QAE@XZ 100347f0 f i PhysX3ExtensionsDEBUG:ExtRigidBodyExt.obj
 0001:00033810       ??1?$PxHitBuffer@UPxSweepHit@physx@@@physx@@UAE@XZ 10034810 f i PhysX3ExtensionsDEBUG:ExtRigidBodyExt.obj
 0001:00033840       ??1?$PxHitCallback@UPxSweepHit@physx@@@physx@@UAE@XZ 10034840 f i PhysX3ExtensionsDEBUG:ExtRigidBodyExt.obj
 0001:00033860       ??4InertiaTensorComputer@Ext@physx@@QAEAAV012@ABV012@@Z 10034860 f i PhysX3ExtensionsDEBUG:ExtRigidBodyExt.obj
 0001:000338b0       ??4PxMassProperties@physx@@QAEAAV01@$$QAV01@@Z 100348b0 f i PhysX3ExtensionsDEBUG:ExtRigidBodyExt.obj
 0001:00033900       ??4PxMat33@physx@@QAEAAV01@ABV01@@Z 10034900 f i PhysX3ExtensionsDEBUG:ExtRigidBodyExt.obj
 0001:00033950       ??4PxSweepHit@physx@@QAEAAU01@ABU01@@Z 10034950 f i PhysX3ExtensionsDEBUG:ExtRigidBodyExt.obj
 0001:00033990       ??A?$Array@PAVPxShape@physx@@V?$InlineAllocator@$0EA@VNamedAllocator@shdfnd@physx@@@shdfnd@2@@shdfnd@physx@@QAEAAPAVPxShape@2@I@Z 10034990 f i PhysX3ExtensionsDEBUG:ExtRigidBodyExt.obj
 0001:00033a10       ??APxMat33@physx@@QAEAAVPxVec3@1@I@Z 10034a10 f i PhysX3ExtensionsDEBUG:ExtRigidBodyExt.obj
 0001:00033a30       ??APxVec3@physx@@QAEAAMI@Z 10034a30 f i PhysX3ExtensionsDEBUG:ExtRigidBodyExt.obj
 0001:00033aa0       ??DPxMat33@physx@@QBE?BV01@M@Z 10034aa0 f i PhysX3ExtensionsDEBUG:ExtRigidBodyExt.obj
 0001:00033b30       ??DPxMat33@physx@@QBE?BVPxVec3@1@ABV21@@Z 10034b30 f i PhysX3ExtensionsDEBUG:ExtRigidBodyExt.obj
 0001:00033b60       ??GPxMat33@physx@@QBE?BV01@ABV01@@Z 10034b60 f i PhysX3ExtensionsDEBUG:ExtRigidBodyExt.obj
 0001:00033bd0       ??HPxMat33@physx@@QBE?BV01@ABV01@@Z 10034bd0 f i PhysX3ExtensionsDEBUG:ExtRigidBodyExt.obj
 0001:00033c40       ??RPxMat33@physx@@QAEAAMII@Z 10034c40 f i PhysX3ExtensionsDEBUG:ExtRigidBodyExt.obj
 0001:00033c70       ??RPxMat33@physx@@QBEMII@Z 10034c70 f i PhysX3ExtensionsDEBUG:ExtRigidBodyExt.obj
 0001:00033ca0       ??XPxMat33@physx@@QAEAAV01@M@Z 10034ca0 f i PhysX3ExtensionsDEBUG:ExtRigidBodyExt.obj
 0001:00033d10       ??YPxMat33@physx@@QAEAAV01@ABV01@@Z 10034d10 f i PhysX3ExtensionsDEBUG:ExtRigidBodyExt.obj
 0001:00033d60       ??_G?$PxHitBuffer@UPxSweepHit@physx@@@physx@@UAEPAXI@Z 10034d60 f i PhysX3ExtensionsDEBUG:ExtRigidBodyExt.obj
 0001:00033d60       ??_E?$PxHitBuffer@UPxSweepHit@physx@@@physx@@UAEPAXI@Z 10034d60 f i PhysX3ExtensionsDEBUG:ExtRigidBodyExt.obj
 0001:00033da0       ??_E?$PxHitCallback@UPxSweepHit@physx@@@physx@@UAEPAXI@Z 10034da0 f i PhysX3ExtensionsDEBUG:ExtRigidBodyExt.obj
 0001:00033da0       ??_G?$PxHitCallback@UPxSweepHit@physx@@@physx@@UAEPAXI@Z 10034da0 f i PhysX3ExtensionsDEBUG:ExtRigidBodyExt.obj
 0001:00033de0       ?add@InertiaTensorComputer@Ext@physx@@QAEXABV123@@Z 10034de0 f i PhysX3ExtensionsDEBUG:ExtRigidBodyExt.obj
 0001:00033ff0       ?addForceAtPosInternal@@YAXAAVPxRigidBody@physx@@ABVPxVec3@2@1W4Enum@PxForceMode@2@_N@Z 10034ff0 f i PhysX3ExtensionsDEBUG:ExtRigidBodyExt.obj
 0001:000340f0       ?allocate@?$Array@PAVPxShape@physx@@V?$InlineAllocator@$0EA@VNamedAllocator@shdfnd@physx@@@shdfnd@2@@shdfnd@physx@@IAEPAPAVPxShape@3@I@Z 100350f0 f i PhysX3ExtensionsDEBUG:ExtRigidBodyExt.obj
 0001:00034170       ?allocate@?$Array@VPxMassProperties@physx@@V?$InlineAllocator@$0DEA@VNamedAllocator@shdfnd@physx@@@shdfnd@2@@shdfnd@physx@@IAEPAVPxMassProperties@3@I@Z 10035170 f i PhysX3ExtensionsDEBUG:ExtRigidBodyExt.obj
 0001:000341f0       ?allocate@?$Array@VPxTransform@physx@@V?$InlineAllocator@$0BMA@VNamedAllocator@shdfnd@physx@@@shdfnd@2@@shdfnd@physx@@IAEPAVPxTransform@3@I@Z 100351f0 f i PhysX3ExtensionsDEBUG:ExtRigidBodyExt.obj
 0001:00034270       ?allocate@?$InlineAllocator@$0BMA@VNamedAllocator@shdfnd@physx@@@shdfnd@physx@@QAEPAXIPBDH@Z 10035270 f i PhysX3ExtensionsDEBUG:ExtRigidBodyExt.obj
 0001:000342d0       ?allocate@?$InlineAllocator@$0DEA@VNamedAllocator@shdfnd@physx@@@shdfnd@physx@@QAEPAXIPBDH@Z 100352d0 f i PhysX3ExtensionsDEBUG:ExtRigidBodyExt.obj
 0001:00034330       ?allocate@?$InlineAllocator@$0EA@VNamedAllocator@shdfnd@physx@@@shdfnd@physx@@QAEPAXIPBDH@Z 10035330 f i PhysX3ExtensionsDEBUG:ExtRigidBodyExt.obj
 0001:00034380       ?any@PxGeometryHolder@physx@@QAEAAVPxGeometry@2@XZ 10035380 f i PhysX3ExtensionsDEBUG:ExtRigidBodyExt.obj
 0001:000343a0       ?basisExtent@PxBounds3@physx@@SA?AV12@ABVPxVec3@2@ABVPxMat33@2@0@Z 100353a0 f i PhysX3ExtensionsDEBUG:ExtRigidBodyExt.obj
 0001:000345f0       ?begin@?$Array@PAVPxShape@physx@@V?$InlineAllocator@$0EA@VNamedAllocator@shdfnd@physx@@@shdfnd@2@@shdfnd@physx@@QAEPAPAVPxShape@3@XZ 100355f0 f i PhysX3ExtensionsDEBUG:ExtRigidBodyExt.obj
 0001:00034610       ?begin@?$Array@VPxMassProperties@physx@@V?$InlineAllocator@$0DEA@VNamedAllocator@shdfnd@physx@@@shdfnd@2@@shdfnd@physx@@QAEPAVPxMassProperties@3@XZ 10035610 f i PhysX3ExtensionsDEBUG:ExtRigidBodyExt.obj
 0001:00034630       ?begin@?$Array@VPxTransform@physx@@V?$InlineAllocator@$0BMA@VNamedAllocator@shdfnd@physx@@@shdfnd@2@@shdfnd@physx@@QAEPAVPxTransform@3@XZ 10035630 f i PhysX3ExtensionsDEBUG:ExtRigidBodyExt.obj
 0001:00034650       ?capacity@?$Array@PAVPxShape@physx@@V?$InlineAllocator@$0EA@VNamedAllocator@shdfnd@physx@@@shdfnd@2@@shdfnd@physx@@QBEIXZ 10035650 f i PhysX3ExtensionsDEBUG:ExtRigidBodyExt.obj
 0001:00034670       ?capacity@?$Array@VPxMassProperties@physx@@V?$InlineAllocator@$0DEA@VNamedAllocator@shdfnd@physx@@@shdfnd@2@@shdfnd@physx@@QBEIXZ 10035670 f i PhysX3ExtensionsDEBUG:ExtRigidBodyExt.obj
 0001:00034690       ?capacity@?$Array@VPxTransform@physx@@V?$InlineAllocator@$0BMA@VNamedAllocator@shdfnd@physx@@@shdfnd@2@@shdfnd@physx@@QBEIXZ 10035690 f i PhysX3ExtensionsDEBUG:ExtRigidBodyExt.obj
 0001:000346b0       ?capacityIncrement@?$Array@VPxMassProperties@physx@@V?$InlineAllocator@$0DEA@VNamedAllocator@shdfnd@physx@@@shdfnd@2@@shdfnd@physx@@IBEIXZ 100356b0 f i PhysX3ExtensionsDEBUG:ExtRigidBodyExt.obj
 0001:000346f0       ?capacityIncrement@?$Array@VPxTransform@physx@@V?$InlineAllocator@$0BMA@VNamedAllocator@shdfnd@physx@@@shdfnd@2@@shdfnd@physx@@IBEIXZ 100356f0 f i PhysX3ExtensionsDEBUG:ExtRigidBodyExt.obj
 0001:00034730       ?center@InertiaTensorComputer@Ext@physx@@QAEXXZ 10035730 f i PhysX3ExtensionsDEBUG:ExtRigidBodyExt.obj
 0001:00034770       ?computeBoxRatio@Ext@physx@@YAMABVPxVec3@2@@Z 10035770 f i PhysX3ExtensionsDEBUG:ExtRigidBodyExt.obj
 0001:00034790       ?computeCapsuleRatio@Ext@physx@@YAMMM@Z 10035790 f i PhysX3ExtensionsDEBUG:ExtRigidBodyExt.obj
 0001:00034810       ?computeConeRatio@Ext@physx@@YAMMM@Z 10035810 f i PhysX3ExtensionsDEBUG:ExtRigidBodyExt.obj
 0001:00034880       ?computeCylinderRatio@Ext@physx@@YAMMM@Z 10035880 f i PhysX3ExtensionsDEBUG:ExtRigidBodyExt.obj
 0001:000348c0       ?computeEllipsoidRatio@Ext@physx@@YAMABVPxVec3@2@@Z 100358c0 f i PhysX3ExtensionsDEBUG:ExtRigidBodyExt.obj
 0001:00034900       ?computeSphereRatio@Ext@physx@@YAMM@Z 10035900 f i PhysX3ExtensionsDEBUG:ExtRigidBodyExt.obj
 0001:00034930       ?copy@?$Array@PAVPxShape@physx@@V?$InlineAllocator@$0EA@VNamedAllocator@shdfnd@physx@@@shdfnd@2@@shdfnd@physx@@KAXPAPAVPxShape@3@0PBQAV43@@Z 10035930 f i PhysX3ExtensionsDEBUG:ExtRigidBodyExt.obj
 0001:000349e0       ?copy@?$Array@VPxMassProperties@physx@@V?$InlineAllocator@$0DEA@VNamedAllocator@shdfnd@physx@@@shdfnd@2@@shdfnd@physx@@KAXPAVPxMassProperties@3@0PBV43@@Z 100359e0 f i PhysX3ExtensionsDEBUG:ExtRigidBodyExt.obj
 0001:00034aa0       ?copy@?$Array@VPxTransform@physx@@V?$InlineAllocator@$0BMA@VNamedAllocator@shdfnd@physx@@@shdfnd@2@@shdfnd@physx@@KAXPAVPxTransform@3@0PBV43@@Z 10035aa0 f i PhysX3ExtensionsDEBUG:ExtRigidBodyExt.obj
 0001:00034b60       ?create@?$Array@PAVPxShape@physx@@V?$InlineAllocator@$0EA@VNamedAllocator@shdfnd@physx@@@shdfnd@2@@shdfnd@physx@@KAXPAPAVPxShape@3@0ABQAV43@@Z 10035b60 f i PhysX3ExtensionsDEBUG:ExtRigidBodyExt.obj
 0001:00034c10       ?createDiagonal@PxMat33@physx@@SA?BV12@ABVPxVec3@2@@Z 10035c10 f i PhysX3ExtensionsDEBUG:ExtRigidBodyExt.obj
 0001:00034cd0       ?deallocate@?$Array@PAVPxShape@physx@@V?$InlineAllocator@$0EA@VNamedAllocator@shdfnd@physx@@@shdfnd@2@@shdfnd@physx@@IAEXPAX@Z 10035cd0 f i PhysX3ExtensionsDEBUG:ExtRigidBodyExt.obj
 0001:00034cf0       ?deallocate@?$Array@VPxMassProperties@physx@@V?$InlineAllocator@$0DEA@VNamedAllocator@shdfnd@physx@@@shdfnd@2@@shdfnd@physx@@IAEXPAX@Z 10035cf0 f i PhysX3ExtensionsDEBUG:ExtRigidBodyExt.obj
 0001:00034d10       ?deallocate@?$Array@VPxTransform@physx@@V?$InlineAllocator@$0BMA@VNamedAllocator@shdfnd@physx@@@shdfnd@2@@shdfnd@physx@@IAEXPAX@Z 10035d10 f i PhysX3ExtensionsDEBUG:ExtRigidBodyExt.obj
 0001:00034d30       ?deallocate@?$InlineAllocator@$0BMA@VNamedAllocator@shdfnd@physx@@@shdfnd@physx@@QAEXPAX@Z 10035d30 f i PhysX3ExtensionsDEBUG:ExtRigidBodyExt.obj
 0001:00034d70       ?deallocate@?$InlineAllocator@$0DEA@VNamedAllocator@shdfnd@physx@@@shdfnd@physx@@QAEXPAX@Z 10035d70 f i PhysX3ExtensionsDEBUG:ExtRigidBodyExt.obj
 0001:00034db0       ?deallocate@?$InlineAllocator@$0EA@VNamedAllocator@shdfnd@physx@@@shdfnd@physx@@QAEXPAX@Z 10035db0 f i PhysX3ExtensionsDEBUG:ExtRigidBodyExt.obj
 0001:00034df0       ?destroy@?$Array@PAVPxShape@physx@@V?$InlineAllocator@$0EA@VNamedAllocator@shdfnd@physx@@@shdfnd@2@@shdfnd@physx@@KAXPAPAVPxShape@3@0@Z 10035df0 f i PhysX3ExtensionsDEBUG:ExtRigidBodyExt.obj
 0001:00034e20       ?destroy@?$Array@VPxMassProperties@physx@@V?$InlineAllocator@$0DEA@VNamedAllocator@shdfnd@physx@@@shdfnd@2@@shdfnd@physx@@KAXPAVPxMassProperties@3@0@Z 10035e20 f i PhysX3ExtensionsDEBUG:ExtRigidBodyExt.obj
 0001:00034e50       ?destroy@?$Array@VPxTransform@physx@@V?$InlineAllocator@$0BMA@VNamedAllocator@shdfnd@physx@@@shdfnd@2@@shdfnd@physx@@KAXPAVPxTransform@3@0@Z 10035e50 f i PhysX3ExtensionsDEBUG:ExtRigidBodyExt.obj
 0001:00034e80       ?finalizeQuery@?$PxHitCallback@UPxSweepHit@physx@@@physx@@UAEXXZ 10035e80 f i PhysX3ExtensionsDEBUG:ExtRigidBodyExt.obj
 0001:00034e90       ?getCenterOfMass@InertiaTensorComputer@Ext@physx@@QBE?AVPxVec3@3@XZ 10035e90 f i PhysX3ExtensionsDEBUG:ExtRigidBodyExt.obj
 0001:00034ec0       ?getConjugate@PxQuat@physx@@QBE?AV12@XZ 10035ec0 f i PhysX3ExtensionsDEBUG:ExtRigidBodyExt.obj
 0001:00034f40       ?getInertia@InertiaTensorComputer@Ext@physx@@QBE?AVPxMat33@3@XZ 10035f40 f i PhysX3ExtensionsDEBUG:ExtRigidBodyExt.obj
 0001:00034f70       ?getInverse@PxTransform@physx@@QBE?AV12@XZ 10035f70 f i PhysX3ExtensionsDEBUG:ExtRigidBodyExt.obj
 0001:00035020       ?getMass@InertiaTensorComputer@Ext@physx@@QBEMXZ 10036020 f i PhysX3ExtensionsDEBUG:ExtRigidBodyExt.obj
 0001:00035040       ?getNbTouches@?$PxHitBuffer@UPxSweepHit@physx@@@physx@@QBEIXZ 10036040 f i PhysX3ExtensionsDEBUG:ExtRigidBodyExt.obj
 0001:00035060       ?getType@PxGeometry@physx@@QBE?AW4Enum@PxGeometryType@2@XZ 10036060 f i PhysX3ExtensionsDEBUG:ExtRigidBodyExt.obj
 0001:00035080       ?getVelocityAtPosInternal@@YA?AVPxVec3@physx@@ABVPxRigidBody@2@ABV12@@Z 10036080 f i PhysX3ExtensionsDEBUG:ExtRigidBodyExt.obj
 0001:000350f0       ?grow@?$Array@PAVPxShape@physx@@V?$InlineAllocator@$0EA@VNamedAllocator@shdfnd@physx@@@shdfnd@2@@shdfnd@physx@@IAEXI@Z 100360f0 f i PhysX3ExtensionsDEBUG:ExtRigidBodyExt.obj
 0001:00035170       ?grow@?$Array@VPxMassProperties@physx@@V?$InlineAllocator@$0DEA@VNamedAllocator@shdfnd@physx@@@shdfnd@2@@shdfnd@physx@@IAEXI@Z 10036170 f i PhysX3ExtensionsDEBUG:ExtRigidBodyExt.obj
 0001:000351f0       ?grow@?$Array@VPxTransform@physx@@V?$InlineAllocator@$0BMA@VNamedAllocator@shdfnd@physx@@@shdfnd@2@@shdfnd@physx@@IAEXI@Z 100361f0 f i PhysX3ExtensionsDEBUG:ExtRigidBodyExt.obj
 0001:00035270       ?growAndPushBack@?$Array@VPxMassProperties@physx@@V?$InlineAllocator@$0DEA@VNamedAllocator@shdfnd@physx@@@shdfnd@2@@shdfnd@physx@@IAEAAVPxMassProperties@3@ABV43@@Z 10036270 f i PhysX3ExtensionsDEBUG:ExtRigidBodyExt.obj
 0001:00035430       ?growAndPushBack@?$Array@VPxTransform@physx@@V?$InlineAllocator@$0BMA@VNamedAllocator@shdfnd@physx@@@shdfnd@2@@shdfnd@physx@@IAEAAVPxTransform@3@ABV43@@Z 10036430 f i PhysX3ExtensionsDEBUG:ExtRigidBodyExt.obj
 0001:000355f0       ?isArrayOfPOD@?$Array@PAVPxShape@physx@@V?$InlineAllocator@$0EA@VNamedAllocator@shdfnd@physx@@@shdfnd@2@@shdfnd@physx@@SA_NXZ 100365f0 f i PhysX3ExtensionsDEBUG:ExtRigidBodyExt.obj
 0001:00035600       ?isArrayOfPOD@?$Array@VPxMassProperties@physx@@V?$InlineAllocator@$0DEA@VNamedAllocator@shdfnd@physx@@@shdfnd@2@@shdfnd@physx@@SA_NXZ 10036600 f i PhysX3ExtensionsDEBUG:ExtRigidBodyExt.obj
 0001:00035610       ?isArrayOfPOD@?$Array@VPxTransform@physx@@V?$InlineAllocator@$0BMA@VNamedAllocator@shdfnd@physx@@@shdfnd@2@@shdfnd@physx@@SA_NXZ 10036610 f i PhysX3ExtensionsDEBUG:ExtRigidBodyExt.obj
 0001:00035620       ?isIdentity@PxMeshScale@physx@@QBE_NXZ 10036620 f i PhysX3ExtensionsDEBUG:ExtRigidBodyExt.obj
 0001:000356a0       ?isInUserMemory@?$Array@PAVPxShape@physx@@V?$InlineAllocator@$0EA@VNamedAllocator@shdfnd@physx@@@shdfnd@2@@shdfnd@physx@@QBEIXZ 100366a0 f i PhysX3ExtensionsDEBUG:ExtRigidBodyExt.obj
 0001:000356c0       ?isInUserMemory@?$Array@VPxMassProperties@physx@@V?$InlineAllocator@$0DEA@VNamedAllocator@shdfnd@physx@@@shdfnd@2@@shdfnd@physx@@QBEIXZ 100366c0 f i PhysX3ExtensionsDEBUG:ExtRigidBodyExt.obj
 0001:000356e0       ?isInUserMemory@?$Array@VPxTransform@physx@@V?$InlineAllocator@$0BMA@VNamedAllocator@shdfnd@physx@@@shdfnd@2@@shdfnd@physx@@QBEIXZ 100366e0 f i PhysX3ExtensionsDEBUG:ExtRigidBodyExt.obj
 0001:00035700       ?isUnit@PxQuat@physx@@QBE_NXZ 10036700 f i PhysX3ExtensionsDEBUG:ExtRigidBodyExt.obj
 0001:00035790       ?isZeroInit@?$Array@PAVPxShape@physx@@V?$InlineAllocator@$0EA@VNamedAllocator@shdfnd@physx@@@shdfnd@2@@shdfnd@physx@@KA_NABQAVPxShape@3@@Z 10036790 f i PhysX3ExtensionsDEBUG:ExtRigidBodyExt.obj
 0001:000357f0       ?multiply@PxVec3@physx@@QBE?AV12@ABV12@@Z 100367f0 f i PhysX3ExtensionsDEBUG:ExtRigidBodyExt.obj
 0001:00035860       ?processTouches@?$PxHitBuffer@UPxSweepHit@physx@@@physx@@MAE_NPBUPxSweepHit@2@I@Z 10036860 f i PhysX3ExtensionsDEBUG:ExtRigidBodyExt.obj
 0001:00035890       ?pushBack@?$Array@VPxMassProperties@physx@@V?$InlineAllocator@$0DEA@VNamedAllocator@shdfnd@physx@@@shdfnd@2@@shdfnd@physx@@QAEAAVPxMassProperties@3@ABV43@@Z 10036890 f i PhysX3ExtensionsDEBUG:ExtRigidBodyExt.obj
 0001:00035960       ?pushBack@?$Array@VPxTransform@physx@@V?$InlineAllocator@$0BMA@VNamedAllocator@shdfnd@physx@@@shdfnd@2@@shdfnd@physx@@QAEAAVPxTransform@3@ABV43@@Z 10036960 f i PhysX3ExtensionsDEBUG:ExtRigidBodyExt.obj
 0001:00035a30       ?recreate@?$Array@PAVPxShape@physx@@V?$InlineAllocator@$0EA@VNamedAllocator@shdfnd@physx@@@shdfnd@2@@shdfnd@physx@@IAEXI@Z 10036a30 f i PhysX3ExtensionsDEBUG:ExtRigidBodyExt.obj
 0001:00035b40       ?recreate@?$Array@VPxMassProperties@physx@@V?$InlineAllocator@$0DEA@VNamedAllocator@shdfnd@physx@@@shdfnd@2@@shdfnd@physx@@IAEXI@Z 10036b40 f i PhysX3ExtensionsDEBUG:ExtRigidBodyExt.obj
 0001:00035c70       ?recreate@?$Array@VPxTransform@physx@@V?$InlineAllocator@$0BMA@VNamedAllocator@shdfnd@physx@@@shdfnd@2@@shdfnd@physx@@IAEXI@Z 10036c70 f i PhysX3ExtensionsDEBUG:ExtRigidBodyExt.obj
 0001:00035da0       ?reserve@?$Array@PAVPxShape@physx@@V?$InlineAllocator@$0EA@VNamedAllocator@shdfnd@physx@@@shdfnd@2@@shdfnd@physx@@QAEXI@Z 10036da0 f i PhysX3ExtensionsDEBUG:ExtRigidBodyExt.obj
 0001:00035dd0       ?reserve@?$Array@VPxMassProperties@physx@@V?$InlineAllocator@$0DEA@VNamedAllocator@shdfnd@physx@@@shdfnd@2@@shdfnd@physx@@QAEXI@Z 10036dd0 f i PhysX3ExtensionsDEBUG:ExtRigidBodyExt.obj
 0001:00035e00       ?reserve@?$Array@VPxTransform@physx@@V?$InlineAllocator@$0BMA@VNamedAllocator@shdfnd@physx@@@shdfnd@2@@shdfnd@physx@@QAEXI@Z 10036e00 f i PhysX3ExtensionsDEBUG:ExtRigidBodyExt.obj
 0001:00035e30       ?resize@?$Array@PAVPxShape@physx@@V?$InlineAllocator@$0EA@VNamedAllocator@shdfnd@physx@@@shdfnd@2@@shdfnd@physx@@QAEXIABQAVPxShape@3@@Z 10036e30 f i PhysX3ExtensionsDEBUG:ExtRigidBodyExt.obj
 0001:00035ec0       ?rotate@InertiaTensorComputer@Ext@physx@@QAEXABVPxMat33@3@@Z 10036ec0 f i PhysX3ExtensionsDEBUG:ExtRigidBodyExt.obj
 0001:00036020       ?rotateInertia@PxMassProperties@physx@@SA?AVPxMat33@2@ABV32@ABVPxQuat@2@@Z 10037020 f i PhysX3ExtensionsDEBUG:ExtRigidBodyExt.obj
 0001:000361e0       ?scaleDensity@InertiaTensorComputer@Ext@physx@@QAEXM@Z 100371e0 f i PhysX3ExtensionsDEBUG:ExtRigidBodyExt.obj
 0001:00036310       ?scaleInertia@PxMassProperties@physx@@SA?AVPxMat33@2@ABV32@ABVPxQuat@2@ABVPxVec3@2@@Z 10037310 f i PhysX3ExtensionsDEBUG:ExtRigidBodyExt.obj
 0001:000367f0       ?setBox@InertiaTensorComputer@Ext@physx@@QAEXABVPxVec3@3@PBVPxTransform@3@@Z 100377f0 f i PhysX3ExtensionsDEBUG:ExtRigidBodyExt.obj
 0001:00036830       ?setCapsule@InertiaTensorComputer@Ext@physx@@QAEXHMMPBVPxTransform@3@@Z 10037830 f i PhysX3ExtensionsDEBUG:ExtRigidBodyExt.obj
 0001:00036890       ?setDiagonal@InertiaTensorComputer@Ext@physx@@QAEXMABVPxVec3@3@@Z 10037890 f i PhysX3ExtensionsDEBUG:ExtRigidBodyExt.obj
 0001:000369e0       ?setSphere@InertiaTensorComputer@Ext@physx@@QAEXMPBVPxTransform@3@@Z 100379e0 f i PhysX3ExtensionsDEBUG:ExtRigidBodyExt.obj
 0001:00036a20       ?size@?$Array@PAVPxShape@physx@@V?$InlineAllocator@$0EA@VNamedAllocator@shdfnd@physx@@@shdfnd@2@@shdfnd@physx@@QBEIXZ 10037a20 f i PhysX3ExtensionsDEBUG:ExtRigidBodyExt.obj
 0001:00036a40       ?sum@PxMassProperties@physx@@SA?AV12@PBV12@PBVPxTransform@2@I@Z 10037a40 f i PhysX3ExtensionsDEBUG:ExtRigidBodyExt.obj
 0001:00036eb0       ?transform@InertiaTensorComputer@Ext@physx@@QAEXABVPxTransform@3@@Z 10037eb0 f i PhysX3ExtensionsDEBUG:ExtRigidBodyExt.obj
 0001:00036ef0       ?transformFast@PxBounds3@physx@@SA?AV12@ABVPxTransform@2@ABV12@@Z 10037ef0 f i PhysX3ExtensionsDEBUG:ExtRigidBodyExt.obj
 0001:00036fb0       ?transformInertiaTensor@Cm@physx@@YAXABVPxVec3@2@ABVPxMat33@2@AAV42@@Z 10037fb0 f i PhysX3ExtensionsDEBUG:ExtRigidBodyExt.obj
 0001:000375f0       ?translateInertia@PxMassProperties@physx@@SA?AVPxMat33@2@ABV32@MABVPxVec3@2@@Z 100385f0 f i PhysX3ExtensionsDEBUG:ExtRigidBodyExt.obj
 0001:000378f0       ?volume@Ext@physx@@YAMABVPxVec3@2@@Z 100388f0 f i PhysX3ExtensionsDEBUG:ExtRigidBodyExt.obj
 0001:000379a0       ?zero@InertiaTensorComputer@Ext@physx@@QAEXXZ 100389a0 f i PhysX3ExtensionsDEBUG:ExtRigidBodyExt.obj
 0001:000379fa       ?PxGetAssertHandler@physx@@YAAAVPxAssertHandler@1@XZ 100389fa f   PxFoundationDEBUG_x86:PxFoundationDEBUG_x86.dll
 0001:00037a00       ?getAllocator@shdfnd@physx@@YAAAVPxAllocatorCallback@2@XZ 10038a00 f   PxFoundationDEBUG_x86:PxFoundationDEBUG_x86.dll
 0001:00037a06       ??0NamedAllocator@shdfnd@physx@@QAE@PBD@Z 10038a06 f   PxFoundationDEBUG_x86:PxFoundationDEBUG_x86.dll
 0001:00037a0c       ?lock@MutexImpl@shdfnd@physx@@QAEXXZ 10038a0c f   PxFoundationDEBUG_x86:PxFoundationDEBUG_x86.dll
 0001:00037a12       ?unlock@MutexImpl@shdfnd@physx@@QAEXXZ 10038a12 f   PxFoundationDEBUG_x86:PxFoundationDEBUG_x86.dll
 0001:00037a18       _PxGetProfilerCallback     10038a18 f   PxFoundationDEBUG_x86:PxFoundationDEBUG_x86.dll
 0001:00037a1e       ??0NamedAllocator@shdfnd@physx@@QAE@ABV012@@Z 10038a1e f   PxFoundationDEBUG_x86:PxFoundationDEBUG_x86.dll
 0001:00037a24       ??1NamedAllocator@shdfnd@physx@@QAE@XZ 10038a24 f   PxFoundationDEBUG_x86:PxFoundationDEBUG_x86.dll
 0001:00037a2a       ?allocate@NamedAllocator@shdfnd@physx@@QAEPAXIPBDH@Z 10038a2a f   PxFoundationDEBUG_x86:PxFoundationDEBUG_x86.dll
 0001:00037a30       ?deallocate@NamedAllocator@shdfnd@physx@@QAEXPAX@Z 10038a30 f   PxFoundationDEBUG_x86:PxFoundationDEBUG_x86.dll
 0001:00037a36       _PxGetFoundation           10038a36 f   PxFoundationDEBUG_x86:PxFoundationDEBUG_x86.dll
 0001:00037a3c       ??0MutexImpl@shdfnd@physx@@QAE@XZ 10038a3c f   PxFoundationDEBUG_x86:PxFoundationDEBUG_x86.dll
 0001:00037a42       ??1MutexImpl@shdfnd@physx@@QAE@XZ 10038a42 f   PxFoundationDEBUG_x86:PxFoundationDEBUG_x86.dll
 0001:00037a48       ?getSize@MutexImpl@shdfnd@physx@@SAABIXZ 10038a48 f   PxFoundationDEBUG_x86:PxFoundationDEBUG_x86.dll
 0001:00037a4e       ?getInstance@Foundation@shdfnd@physx@@SAAAV123@XZ 10038a4e f   PxFoundationDEBUG_x86:PxFoundationDEBUG_x86.dll
 0001:00037a54       ?incRefCount@Foundation@shdfnd@physx@@SAXXZ 10038a54 f   PxFoundationDEBUG_x86:PxFoundationDEBUG_x86.dll
 0001:00037a5a       ?decRefCount@Foundation@shdfnd@physx@@SAXXZ 10038a5a f   PxFoundationDEBUG_x86:PxFoundationDEBUG_x86.dll
 0001:00037a60       ?error@Foundation@shdfnd@physx@@QAAXW4Enum@PxErrorCode@3@PBDH1ZZ 10038a60 f   PxFoundationDEBUG_x86:PxFoundationDEBUG_x86.dll
 0001:00037a66       ?PxShortestRotation@physx@@YA?AVPxQuat@1@ABVPxVec3@1@0@Z 10038a66 f   PxFoundationDEBUG_x86:PxFoundationDEBUG_x86.dll
 0001:00037a6c       ?PxDiagonalize@physx@@YA?AVPxVec3@1@ABVPxMat33@1@AAVPxQuat@1@@Z 10038a6c f   PxFoundationDEBUG_x86:PxFoundationDEBUG_x86.dll
 0001:00037a72       ?sweep@PxMeshQuery@physx@@SA_NABVPxVec3@2@MABVPxGeometry@2@ABVPxTransform@2@IPBVPxTriangle@2@AAUPxSweepHit@2@V?$PxFlags@W4Enum@PxHitFlag@physx@@G@2@PBIM_N@Z 10038a72 f   PhysX3CommonDEBUG_x86:PhysX3CommonDEBUG_x86.dll
 0001:00037a78       ??0RenderOutput@Cm@physx@@QAE@AAVRenderBuffer@12@@Z 10038a78 f   PhysX3CommonDEBUG_x86:PhysX3CommonDEBUG_x86.dll
 0001:00037a7e       ??6RenderOutput@Cm@physx@@QAEAAV012@I@Z 10038a7e f   PhysX3CommonDEBUG_x86:PhysX3CommonDEBUG_x86.dll
 0001:00037a84       ??6RenderOutput@Cm@physx@@QAEAAV012@ABVPxTransform@2@@Z 10038a84 f   PhysX3CommonDEBUG_x86:PhysX3CommonDEBUG_x86.dll
 0001:00037a8a       ?outputCapsule@RenderOutput@Cm@physx@@QAEAAV123@MMABVPxMat44@3@@Z 10038a8a f   PhysX3CommonDEBUG_x86:PhysX3CommonDEBUG_x86.dll
 0001:00037a90       ??6Cm@physx@@YAAAVRenderOutput@01@AAV201@ABUDebugBox@01@@Z 10038a90 f   PhysX3CommonDEBUG_x86:PhysX3CommonDEBUG_x86.dll
 0001:00037a96       ?PxTransformFromSegment@physx@@YA?AVPxTransform@1@ABVPxVec3@1@0PAM@Z 10038a96 f   PhysX3CommonDEBUG_x86:PhysX3CommonDEBUG_x86.dll
 0001:00037a9c       ?sweep@PxGeometryQuery@physx@@SA_NABVPxVec3@2@MABVPxGeometry@2@ABVPxTransform@2@12AAUPxSweepHit@2@V?$PxFlags@W4Enum@PxHitFlag@physx@@G@2@M@Z 10038a9c f   PhysX3CommonDEBUG_x86:PhysX3CommonDEBUG_x86.dll
 0001:00037aa2       ?computePenetration@PxGeometryQuery@physx@@SA_NAAVPxVec3@2@AAMABVPxGeometry@2@ABVPxTransform@2@23@Z 10038aa2 f   PhysX3CommonDEBUG_x86:PhysX3CommonDEBUG_x86.dll
 0001:00037aa8       ??0Box@Gu@physx@@QAE@ABVPxVec3@2@0ABVPxMat33@2@@Z 10038aa8 f   PhysX3CommonDEBUG_x86:PhysX3CommonDEBUG_x86.dll
 0001:00037aae       ??1Box@Gu@physx@@QAE@XZ    10038aae f   PhysX3CommonDEBUG_x86:PhysX3CommonDEBUG_x86.dll
 0001:00037ab4       ?intersectOBBOBB@Gu@physx@@YA_NABVPxVec3@2@0ABVPxMat33@2@001_N@Z 10038ab4 f   PhysX3CommonDEBUG_x86:PhysX3CommonDEBUG_x86.dll
 0001:00037aba       ?distanceSegmentBoxSquared@Gu@physx@@YAMABVPxVec3@2@000ABVPxMat33@2@PAMPAV32@@Z 10038aba f   PhysX3CommonDEBUG_x86:PhysX3CommonDEBUG_x86.dll
 0001:00037ac0       ?getTriangle@PxMeshQuery@physx@@SAXABVPxTriangleMeshGeometry@2@ABVPxTransform@2@IAAVPxTriangle@2@PAI3@Z 10038ac0 f   PhysX3CommonDEBUG_x86:PhysX3CommonDEBUG_x86.dll
 0001:00037ac6       ?getTriangle@PxMeshQuery@physx@@SAXABVPxHeightFieldGeometry@2@ABVPxTransform@2@IAAVPxTriangle@2@PAI3@Z 10038ac6 f   PhysX3CommonDEBUG_x86:PhysX3CommonDEBUG_x86.dll
 0001:00037acc       ??6RenderOutput@Cm@physx@@QAEAAV012@W4Primitive@012@@Z 10038acc f   PhysX3CommonDEBUG_x86:PhysX3CommonDEBUG_x86.dll
 0001:00037ad2       ??6RenderOutput@Cm@physx@@QAEAAV012@VPxVec3@2@@Z 10038ad2 f   PhysX3CommonDEBUG_x86:PhysX3CommonDEBUG_x86.dll
 0001:00037ad8       ?intersectTriangleBox_Unsafe@Gu@physx@@YAHABVPxVec3@2@0000@Z 10038ad8 f   PhysX3CommonDEBUG_x86:PhysX3CommonDEBUG_x86.dll
 0001:00037ade       ?CompleteBoxPruning@Cm@physx@@YA_NPBVPxBounds3@2@IAAV?$Array@IVNamedAllocator@shdfnd@physx@@@shdfnd@2@ABVAxes@Gu@2@@Z 10038ade f   PhysX3CommonDEBUG_x86:PhysX3CommonDEBUG_x86.dll
 0001:00037ae4       ?distanceSegmentSegmentSquared@Gu@physx@@YAMABVPxVec3@2@000PAM1@Z 10038ae4 f   PhysX3CommonDEBUG_x86:PhysX3CommonDEBUG_x86.dll
 0001:00037aea       ?getRaycastFuncTable@Gu@physx@@YAAAY06Q6AIABVPxGeometry@2@ABVPxTransform@2@ABVPxVec3@2@2MV?$PxFlags@W4Enum@PxHitFlag@physx@@G@2@IPIAUPxRaycastHit@2@@ZXZ 10038aea f   PhysX3CommonDEBUG_x86:PhysX3CommonDEBUG_x86.dll
 0001:00037af0       ?findOverlapTriangleMesh@PxMeshQuery@physx@@SAIABVPxGeometry@2@ABVPxTransform@2@ABVPxTriangleMeshGeometry@2@1PAIIIAA_N@Z 10038af0 f   PhysX3CommonDEBUG_x86:PhysX3CommonDEBUG_x86.dll
 0001:00037af6       ?findOverlapHeightField@PxMeshQuery@physx@@SAIABVPxGeometry@2@ABVPxTransform@2@ABVPxHeightFieldGeometry@2@1PAIIIAA_N@Z 10038af6 f   PhysX3CommonDEBUG_x86:PhysX3CommonDEBUG_x86.dll
 0001:00037b00       ??3@YAXPAXI@Z              10038b00 f   LIBCMTD:delete_scalar_size.obj
 0001:00037b20       ??_V@YAXPAXI@Z             10038b20 f   LIBCMTD:delete_array_size.obj
 0001:00037b40       __CRT_RTC_INIT             10038b40 f   LIBCMTD:_init_.obj
 0001:00037b50       __CRT_RTC_INITW            10038b50 f   LIBCMTD:_init_.obj
 0001:00037b60       __RTC_InitBase             10038b60 f   LIBCMTD:_init_.obj
 0001:00037ba0       __RTC_Shutdown             10038ba0 f   LIBCMTD:_init_.obj
 0001:00037bc0       __alloca_probe_16          10038bc0 f   LIBCMTD:alloca16.obj
 0001:00037bd6       __alloca_probe_8           10038bd6     LIBCMTD:alloca16.obj
 0001:00037c00       __ftoui3                   10038c00 f   LIBCMTD:_ftol3_.obj
 0001:00037c0f       __ftoul3                   10038c0f f   LIBCMTD:_ftol3_.obj
 0001:00037c1e       __ftol3                    10038c1e f   LIBCMTD:_ftol3_.obj
 0001:00037c2b       __ftol3_NaN                10038c2b f   LIBCMTD:_ftol3_.obj
 0001:00037c43       __ftol3_work               10038c43 f   LIBCMTD:_ftol3_.obj
 0001:00037cc9       __ftol3_common             10038cc9 f   LIBCMTD:_ftol3_.obj
 0001:00037d8b       __ftol3_arg_error          10038d8b f   LIBCMTD:_ftol3_.obj
 0001:00037d9d       __ftol3_except             10038d9d f   LIBCMTD:_ftol3_.obj
 0001:00037de1       __dtoui3                   10038de1 f   LIBCMTD:_ftol3_.obj
 0001:00037df0       __dtoul3                   10038df0 f   LIBCMTD:_ftol3_.obj
 0001:00037dff       __dtol3                    10038dff f   LIBCMTD:_ftol3_.obj
 0001:00037e0c       __dtol3_NaN                10038e0c f   LIBCMTD:_ftol3_.obj
 0001:00037e29       __dtol3_work               10038e29 f   LIBCMTD:_ftol3_.obj
 0001:00037f10       __ultod3                   10038f10 f   LIBCMTD:_ftol3_.obj
 0001:00037f50       __ltod3                    10038f50 f   LIBCMTD:_ftol3_.obj
 0001:00038060       ?__scrt_initialize_type_info@@YAXXZ 10039060 f   LIBCMTD:tncleanup.obj
 0001:00038080       ?__scrt_uninitialize_type_info@@YAXXZ 10039080 f   LIBCMTD:tncleanup.obj
 0001:000380a0       ??1type_info@@UAE@XZ       100390a0 f   LIBCMTD:std_type_info_static.obj
 0001:000380c0       ??_Etype_info@@UAEPAXI@Z   100390c0 f i LIBCMTD:std_type_info_static.obj
 0001:000380c0       ??_Gtype_info@@UAEPAXI@Z   100390c0 f i LIBCMTD:std_type_info_static.obj
 0001:000386c0       __CRT_INIT@12              100396c0 f   LIBCMTD:dll_dllmain.obj
 0001:000386e0       __DllMainCRTStartup@12     100396e0 f   LIBCMTD:dll_dllmain.obj
 0001:00038710       ??3@YAXPAX@Z               10039710 f   LIBCMTD:delete_scalar.obj
 0001:00038730       ??_V@YAXPAX@Z              10039730 f   LIBCMTD:delete_array.obj
 0001:00038750       ?_RTC_GetErrorFunc@@YAP6AHHPBDH00ZZPBX@Z 10039750 f   LIBCMTD:_userapi_.obj
 0001:00038760       ?_RTC_GetErrorFuncW@@YAP6AHHPB_WH00ZZPBX@Z 10039760 f   LIBCMTD:_userapi_.obj
 0001:00038770       __RTC_GetErrDesc           10039770 f   LIBCMTD:_userapi_.obj
 0001:00038790       __RTC_NumErrors            10039790 f   LIBCMTD:_userapi_.obj
 0001:000387a0       __RTC_SetErrorFunc         100397a0 f   LIBCMTD:_userapi_.obj
 0001:000387d0       __RTC_SetErrorFuncW        100397d0 f   LIBCMTD:_userapi_.obj
 0001:00038800       __RTC_SetErrorType         10039800 f   LIBCMTD:_userapi_.obj
 0001:00038830       __chkstk                   10039830 f   LIBCMTD:chkstk.obj
 0001:00038830       __alloca_probe             10039830 f   LIBCMTD:chkstk.obj
 0001:00038870       ??$__crt_fast_decode_pointer@PAP6AXXZ@@YAPAP6AXXZQAP6AXXZ@Z 10039870 f i LIBCMTD:utility.obj
 0001:000388a0       ??$__crt_fast_encode_pointer@PAP6AXXZ@@YAPAP6AXXZQAP6AXXZ@Z 100398a0 f i LIBCMTD:utility.obj
 0001:000388e0       ?__crt_rotate_pointer_value@@YAIIH@Z 100398e0 f i LIBCMTD:utility.obj
 0001:000388f0       ?configure_argv@__scrt_narrow_argv_policy@@SAHXZ 100398f0 f i LIBCMTD:utility.obj
 0001:00038a50       _NtCurrentTeb              10039a50 f i LIBCMTD:utility.obj
 0001:00038a60       ___scrt_acquire_startup_lock 10039a60 f   LIBCMTD:utility.obj
 0001:00038ac0       ___scrt_dllmain_after_initialize_c 10039ac0 f   LIBCMTD:utility.obj
 0001:00038b00       ___scrt_dllmain_before_initialize_c 10039b00 f   LIBCMTD:utility.obj
 0001:00038b30       ___scrt_dllmain_crt_thread_attach 10039b30 f   LIBCMTD:utility.obj
 0001:00038b70       ___scrt_dllmain_crt_thread_detach 10039b70 f   LIBCMTD:utility.obj
 0001:00038b90       ___scrt_dllmain_exception_filter 10039b90 f   LIBCMTD:utility.obj
 0001:00038bf0       ___scrt_dllmain_uninitialize_c 10039bf0 f   LIBCMTD:utility.obj
 0001:00038c30       ___scrt_dllmain_uninitialize_critical 10039c30 f   LIBCMTD:utility.obj
 0001:00038c50       ___scrt_initialize_crt     10039c50 f   LIBCMTD:utility.obj
 0001:00038cb0       ___scrt_initialize_onexit_tables 10039cb0 f   LIBCMTD:utility.obj
 0001:00038db0       ___scrt_is_nonwritable_in_current_image 10039db0 f   LIBCMTD:utility.obj
 0001:00038f30       ___scrt_release_startup_lock 10039f30 f   LIBCMTD:utility.obj
 0001:00038f60       ___scrt_uninitialize_crt   10039f60 f   LIBCMTD:utility.obj
 0001:00038fb0       __onexit                   10039fb0 f   LIBCMTD:utility.obj
 0001:00039040       _at_quick_exit             1003a040 f   LIBCMTD:utility.obj
 0001:000390a0       _atexit                    1003a0a0 f   LIBCMTD:utility.obj
 0001:000390e0       ___security_init_cookie    1003a0e0 f   LIBCMTD:gs_support.obj
 0001:00039200       _DllMain@12                1003a200 f   LIBCMTD:dll_dllmain_stub.obj
 0001:00039210       ___local_stdio_printf_options 1003a210 f i LIBCMTD:default_local_stdio_options.obj
 0001:00039220       ___local_stdio_scanf_options 1003a220 f i LIBCMTD:default_local_stdio_options.obj
 0001:00039230       ___scrt_initialize_default_local_stdio_options 1003a230 f   LIBCMTD:default_local_stdio_options.obj
 0001:00039280       ___scrt_get_dyn_tls_init_callback 1003a280 f   LIBCMTD:dyn_tls_init.obj
 0001:00039290       ___scrt_fastfail           1003a290 f   LIBCMTD:utility_desktop.obj
 0001:00039420       ___scrt_get_show_window_mode 1003a420 f   LIBCMTD:utility_desktop.obj
 0001:00039470       ___scrt_initialize_winrt   1003a470 f   LIBCMTD:utility_desktop.obj
 0001:00039480       ___scrt_is_managed_app     1003a480 f   LIBCMTD:utility_desktop.obj
 0001:00039530       ___scrt_set_unhandled_exception_filter 1003a530 f   LIBCMTD:utility_desktop.obj
 0001:00039550       ___scrt_unhandled_exception_filter@4 1003a550 f   LIBCMTD:utility_desktop.obj
 0001:000395d0       __crt_debugger_hook        1003a5d0 f   LIBCMTD:utility_desktop.obj
 0001:000395f0       __RTC_Initialize           1003a5f0 f   LIBCMTD:_initsect_.obj
 0001:00039630       __RTC_Terminate            1003a630 f   LIBCMTD:_initsect_.obj
 0001:00039670       @_guard_check_icall@4      1003a670 f i LIBCMTD:checkcfg.obj
 0001:00039690       ??$__vcrt_va_start_verify_argument_type@QBD@@YAXXZ 1003a690 f i LIBCMTD:_error_.obj
 0001:00039840       ?_RTC_AllocaFailure@@YAXPAXPAU_RTC_ALLOCA_NODE@@H@Z 1003a840 f   LIBCMTD:_error_.obj
 0001:000399b0       ?_RTC_Failure@@YAXPAXH@Z   1003a9b0 f   LIBCMTD:_error_.obj
 0001:00039a20       ?_RTC_StackFailure@@YAXPAXPBD@Z 1003aa20 f   LIBCMTD:_error_.obj
 0001:00039ea0       __RTC_UninitUse            1003aea0 f   LIBCMTD:_error_.obj
 0001:00039fd0       __vsprintf_s_l             1003afd0 f i LIBCMTD:_error_.obj
 0001:0003a010       _sprintf_s                 1003b010 f i LIBCMTD:_error_.obj
 0001:0003a040       ___isa_available_init      1003b040 f   LIBCMTD:_cpu_disp_.obj
 0001:0003a3d0       __get_startup_argv_mode    1003b3d0 f   LIBCMTD:argv_mode.obj
 0001:0003a3e0       ___scrt_is_ucrt_dll_in_use 1003b3e0 f   LIBCMTD:ucrt_detection.obj
 0001:0003a410       @_guard_check_icall_nop@4  1003b410 f i LIBCMTD:guard_support.obj
 0001:0003a420       __guard_icall_checks_enforced 1003b420 f i LIBCMTD:guard_support.obj
 0001:0003aa10       ?_RTC_GetSrcLine@@YAHPAEPA_WKPAH1K@Z 1003ba10 f   LIBCMTD:_pdblkup_.obj
 0001:0003ae40       @__security_check_cookie@4 1003be40 f   LIBCMTD:_secchk_.obj
 0001:0003ae60       ___raise_securityfailure   1003be60 f   LIBCMTD:gs_report.obj
 0001:0003aea0       ___report_gsfailure        1003bea0 f   LIBCMTD:gs_report.obj
 0001:0003aff0       ___report_rangecheckfailure 1003bff0 f   LIBCMTD:gs_report.obj
 0001:0003b000       ___report_securityfailure  1003c000 f   LIBCMTD:gs_report.obj
 0001:0003b110       ___report_securityfailureEx 1003c110 f   LIBCMTD:gs_report.obj
 0001:0003b280       ??$__crt_fast_decode_pointer@P6AXXZ@@YAP6AXXZQ6AXXZ@Z 1003c280 f i libvcruntimed:purevirt.obj
 0001:0003b2b0       ??$__crt_fast_encode_pointer@P6AXXZ@@YAP6AXXZQ6AXXZ@Z 1003c2b0 f i libvcruntimed:purevirt.obj
 0001:0003b2f0       ??$__crt_interlocked_compare_exchange_pointer@$$A6AXXZ$$T$$T@@YAP6AXXZPDS6AXXZ$$T1@Z 1003c2f0 f i libvcruntimed:purevirt.obj
 0001:0003b310       ??$__crt_interlocked_exchange_pointer@$$A6AXXZP6AXXZ@@YAP6AXXZPDS6AXXZQ6AXXZ@Z 1003c310 f i libvcruntimed:purevirt.obj
 0001:0003b320       ??$__crt_interlocked_read_pointer@$$A6AXXZ@@YAP6AXXZPDS6AXXZ@Z 1003c320 f i libvcruntimed:purevirt.obj
 0001:0003b340       __get_purecall_handler     1003c340 f   libvcruntimed:purevirt.obj
 0001:0003b370       __purecall                 1003c370 f   libvcruntimed:purevirt.obj
 0001:0003b3b0       __set_purecall_handler     1003c3b0 f   libvcruntimed:purevirt.obj
 0001:0003b3f0       _memcpy                    1003c3f0 f   libvcruntimed:memcpy.obj
 0001:0003bad0       _memset                    1003cad0 f   libvcruntimed:memset.obj
 0001:0003bcc0       ??$?RD@__crt_internal_free_policy@@QBEXQBD@Z 1003ccc0 f i libvcruntimed:std_type_info.obj
 0001:0003bcf0       ??$?RX@__crt_internal_free_policy@@QBEXQBX@Z 1003ccf0 f i libvcruntimed:std_type_info.obj
 0001:0003bd20       ??$__crt_interlocked_compare_exchange_pointer@$$CBD$$T$$T@@YAPBDPDSBD$$T1@Z 1003cd20 f i libvcruntimed:std_type_info.obj
 0001:0003bd40       ??$__crt_interlocked_compare_exchange_pointer@$$CBDPAD$$T@@YAPBDPDSBDQAD$$T@Z 1003cd40 f i libvcruntimed:std_type_info.obj
 0001:0003bd60       ??$__crt_interlocked_read_pointer@$$CBD@@YAPBDPDSBD@Z 1003cd60 f i libvcruntimed:std_type_info.obj
 0001:0003bd80       ??0?$__crt_unique_heap_ptr@DU__crt_internal_free_policy@@@@QAE@QAD@Z 1003cd80 f i libvcruntimed:std_type_info.obj
 0001:0003bda0       ??0?$__crt_unique_heap_ptr@XU__crt_internal_free_policy@@@@QAE@QAX@Z 1003cda0 f i libvcruntimed:std_type_info.obj
 0001:0003bdc0       ??1?$__crt_unique_heap_ptr@DU__crt_internal_free_policy@@@@QAE@XZ 1003cdc0 f i libvcruntimed:std_type_info.obj
 0001:0003bde0       ??1?$__crt_unique_heap_ptr@XU__crt_internal_free_policy@@@@QAE@XZ 1003cde0 f i libvcruntimed:std_type_info.obj
 0001:0003be40       ??B?$__crt_unique_heap_ptr@DU__crt_internal_free_policy@@@@QBE_NXZ 1003ce40 f i libvcruntimed:std_type_info.obj
 0001:0003be60       ??B?$__crt_unique_heap_ptr@XU__crt_internal_free_policy@@@@QBE_NXZ 1003ce60 f i libvcruntimed:std_type_info.obj
 0001:0003bee0       ?detach@?$__crt_unique_heap_ptr@XU__crt_internal_free_policy@@@@QAEPAXXZ 1003cee0 f i libvcruntimed:std_type_info.obj
 0001:0003bf10       ?get@?$__crt_unique_heap_ptr@DU__crt_internal_free_policy@@@@QBEPADXZ 1003cf10 f i libvcruntimed:std_type_info.obj
 0001:0003bf30       ?get@?$__crt_unique_heap_ptr@XU__crt_internal_free_policy@@@@QBEPAXXZ 1003cf30 f i libvcruntimed:std_type_info.obj
 0001:0003bf50       ?is_valid@?$__crt_unique_heap_ptr@DU__crt_internal_free_policy@@@@QBE_NXZ 1003cf50 f i libvcruntimed:std_type_info.obj
 0001:0003bf90       ?is_valid@?$__crt_unique_heap_ptr@XU__crt_internal_free_policy@@@@QBE_NXZ 1003cf90 f i libvcruntimed:std_type_info.obj
 0001:0003bfd0       ?release@?$__crt_unique_heap_ptr@DU__crt_internal_free_policy@@@@QAEXXZ 1003cfd0 f i libvcruntimed:std_type_info.obj
 0001:0003c000       ?release@?$__crt_unique_heap_ptr@XU__crt_internal_free_policy@@@@QAEXXZ 1003d000 f i libvcruntimed:std_type_info.obj
 0001:0003c030       ___std_type_info_compare   1003d030 f   libvcruntimed:std_type_info.obj
 0001:0003c060       ___std_type_info_destroy_list 1003d060 f   libvcruntimed:std_type_info.obj
 0001:0003c0b0       ___std_type_info_hash      1003d0b0 f   libvcruntimed:std_type_info.obj
 0001:0003c120       ___std_type_info_name      1003d120 f   libvcruntimed:std_type_info.obj
 0001:0003c580       _memcmp                    1003d580 f   libvcruntimed:_memcmp_.obj
 0001:0003d100       __except_handler4          1003e100 f   libvcruntimed:_chandler4_.obj
 0001:0003d350       ___vcrt_initialize         1003e350 f   libvcruntimed:initialization.obj
 0001:0003d3a0       ___vcrt_thread_attach      1003e3a0 f   libvcruntimed:initialization.obj
 0001:0003d3c0       ___vcrt_thread_detach      1003e3c0 f   libvcruntimed:initialization.obj
 0001:0003d3e0       ___vcrt_uninitialize       1003e3e0 f   libvcruntimed:initialization.obj
 0001:0003d410       ___vcrt_uninitialize_critical 1003e410 f   libvcruntimed:initialization.obj
 0001:0003d430       ___vcrt_GetModuleFileNameW 1003e430 f   libvcruntimed:winapi_thunks.obj
 0001:0003d450       ___vcrt_GetModuleHandleW   1003e450 f   libvcruntimed:winapi_thunks.obj
 0001:0003d470       ___vcrt_LoadLibraryExW     1003e470 f   libvcruntimed:winapi_thunks.obj
 0001:0003d490       ??$?B$$A6AXXZ@__crt_fast_encoded_nullptr_t@@QBEP6AXXZXZ 1003e490 f i libvcruntimed:purevirt_data.obj
 0001:0003d4b0       ?__crt_fast_encode_pointer@@YA?AU__crt_fast_encoded_nullptr_t@@$$T@Z 1003e4b0 f i libvcruntimed:purevirt_data.obj
 0001:0003d4c0       ___vcrt_initialize_pure_virtual_call_handler 1003e4c0 f   libvcruntimed:purevirt_data.obj
 0001:0003d4f0       ??0Block@_HeapManager@@QAE@XZ 1003e4f0 f i libvcruntimed:undname.obj
 0001:0003d510       ??0DName@@QAE@AAPBDD@Z     1003e510 f   libvcruntimed:undname.obj
 0001:0003d880       ??0DName@@QAE@ABV0@@Z      1003e880 f i libvcruntimed:undname.obj
 0001:0003d8b0       ??0DName@@QAE@D@Z          1003e8b0 f   libvcruntimed:undname.obj
 0001:0003d9c0       ??0DName@@QAE@PAV0@@Z      1003e9c0 f   libvcruntimed:undname.obj
 0001:0003db40       ??0DName@@QAE@PBD@Z        1003eb40 f   libvcruntimed:undname.obj
 0001:0003dc70       ??0DName@@QAE@W4DNameStatus@@@Z 1003ec70 f   libvcruntimed:undname.obj
 0001:0003ddd0       ??0DName@@QAE@XZ           1003edd0 f i libvcruntimed:undname.obj
 0001:0003dec0       ??0DName@@QAE@_J@Z         1003eec0 f   libvcruntimed:undname.obj
 0001:0003e0a0       ??0DName@@QAE@_K@Z         1003f0a0 f   libvcruntimed:undname.obj
 0001:0003e230       ??0DNameNode@@IAE@XZ       1003f230 f   libvcruntimed:undname.obj
 0001:0003e250       ??0DNameStatusNode@@AAE@W4DNameStatus@@@Z 1003f250 f   libvcruntimed:undname.obj
 0001:0003e2c0       ??0Replicator@@QAE@XZ      1003f2c0 f i libvcruntimed:undname.obj
 0001:0003e2e0       ??0UnDecorator@@QAE@PADPBDHP6APADJ@ZK@Z 1003f2e0 f i libvcruntimed:undname.obj
 0001:0003e3a0       ??0charNode@@QAE@D@Z       1003f3a0 f   libvcruntimed:undname.obj
 0001:0003e3e0       ??0pDNameNode@@QAE@PAVDName@@@Z 1003f3e0 f   libvcruntimed:undname.obj
 0001:0003e460       ??0pairNode@@QAE@PAVDNameNode@@0@Z 1003f460 f   libvcruntimed:undname.obj
 0001:0003e4b0       ??0pcharNode@@QAE@PBDH@Z   1003f4b0 f   libvcruntimed:undname.obj
 0001:0003e570       ??2@YAPAXIAAV_HeapManager@@H@Z 1003f570 f i libvcruntimed:undname.obj
 0001:0003e590       ??4DName@@QAEAAV0@ABV0@@Z  1003f590 f   libvcruntimed:undname.obj
 0001:0003e5c0       ??4DName@@QAEAAV0@D@Z      1003f5c0 f i libvcruntimed:undname.obj
 0001:0003e6d0       ??4DName@@QAEAAV0@PAV0@@Z  1003f6d0 f   libvcruntimed:undname.obj
 0001:0003e850       ??4DName@@QAEAAV0@PBD@Z    1003f850 f   libvcruntimed:undname.obj
 0001:0003e960       ??4DName@@QAEAAV0@W4DNameStatus@@@Z 1003f960 f   libvcruntimed:undname.obj
 0001:0003eaa0       ??AReplicator@@QBE?AVDName@@H@Z 1003faa0 f   libvcruntimed:undname.obj
 0001:0003eb20       ??BUnDecorator@@QAEPADXZ   1003fb20 f i libvcruntimed:undname.obj
 0001:0003ee70       ??H@YA?AVDName@@DABV0@@Z   1003fe70 f i libvcruntimed:undname.obj
 0001:0003eeb0       ??H@YA?AVDName@@PBDABV0@@Z 1003feb0 f i libvcruntimed:undname.obj
 0001:0003eef0       ??H@YA?AVDName@@W4DNameStatus@@ABV0@@Z 1003fef0 f i libvcruntimed:undname.obj
 0001:0003ef30       ??HDName@@QBE?AV0@ABV0@@Z  1003ff30 f   libvcruntimed:undname.obj
 0001:0003ef80       ??HDName@@QBE?AV0@D@Z      1003ff80 f   libvcruntimed:undname.obj
 0001:0003efd0       ??HDName@@QBE?AV0@PAV0@@Z  1003ffd0 f   libvcruntimed:undname.obj
 0001:0003f020       ??HDName@@QBE?AV0@PBD@Z    10040020 f   libvcruntimed:undname.obj
 0001:0003f070       ??HDName@@QBE?AV0@W4DNameStatus@@@Z 10040070 f   libvcruntimed:undname.obj
 0001:0003f0c0       ??YDName@@QAEAAV0@ABV0@@Z  100400c0 f   libvcruntimed:undname.obj
 0001:0003f140       ??YDName@@QAEAAV0@D@Z      10040140 f   libvcruntimed:undname.obj
 0001:0003f1e0       ??YDName@@QAEAAV0@PAV0@@Z  100401e0 f   libvcruntimed:undname.obj
 0001:0003f2c0       ??YDName@@QAEAAV0@PBD@Z    100402c0 f   libvcruntimed:undname.obj
 0001:0003f380       ??YDName@@QAEAAV0@W4DNameStatus@@@Z 10040380 f   libvcruntimed:undname.obj
 0001:0003f400       ??YReplicator@@QAEAAV0@ABVDName@@@Z 10040400 f   libvcruntimed:undname.obj
 0001:0003f4b0       ??_5DName@@QAEAAV0@ABV0@@Z 100404b0 f   libvcruntimed:undname.obj
 0001:0003f520       ?Constructor@_HeapManager@@QAEXP6APAXI@ZP6AXPAX@Z@Z 10040520 f i libvcruntimed:undname.obj
 0001:0003f570       ?Destructor@_HeapManager@@QAEXXZ 10040570 f i libvcruntimed:undname.obj
 0001:0003f5e0       ?UScore@UnDecorator@@SAPBDW4Tokens@@@Z 100405e0 f   libvcruntimed:undname.obj
 0001:0003f620       ?append@DName@@AAEXPAVDNameNode@@@Z 10040620 f   libvcruntimed:undname.obj
 0001:0003f6d0       ?composeDeclaration@UnDecorator@@CA?AVDName@@ABV2@@Z 100406d0 f i libvcruntimed:undname.obj
 0001:00041a80       ?dbGetString@DName@@QBEPADXZ 10042a80 f   libvcruntimed:undname.obj
 0001:00041ab0       ?doAccessSpecifiers@UnDecorator@@SAHXZ 10042ab0 f i libvcruntimed:undname.obj
 0001:00041ae0       ?doAllocationLanguage@UnDecorator@@SAHXZ 10042ae0 f i libvcruntimed:undname.obj
 0001:00041b10       ?doAllocationModel@UnDecorator@@SAHXZ 10042b10 f i libvcruntimed:undname.obj
 0001:00041b40       ?doEcsu@UnDecorator@@SAHXZ 10042b40 f i libvcruntimed:undname.obj
 0001:00041b70       ?doEllipsis@UnDecorator@@SAHXZ 10042b70 f i libvcruntimed:undname.obj
 0001:00041ba0       ?doFunctionReturns@UnDecorator@@SAHXZ 10042ba0 f i libvcruntimed:undname.obj
 0001:00041bd0       ?doMSKeywords@UnDecorator@@SAHXZ 10042bd0 f i libvcruntimed:undname.obj
 0001:00041c00       ?doMemberTypes@UnDecorator@@SAHXZ 10042c00 f i libvcruntimed:undname.obj
 0001:00041c30       ?doNameOnly@UnDecorator@@SAHXZ 10042c30 f i libvcruntimed:undname.obj
 0001:00041c50       ?doNoIdentCharCheck@UnDecorator@@SAHXZ 10042c50 f i libvcruntimed:undname.obj
 0001:00041c70       ?doPchar@DName@@AAEXPBDH@Z 10042c70 f   libvcruntimed:undname.obj
 0001:00041e00       ?doPtr64@UnDecorator@@SAHXZ 10042e00 f i libvcruntimed:undname.obj
 0001:00041e30       ?doRestrictionSpec@UnDecorator@@SAHXZ 10042e30 f i libvcruntimed:undname.obj
 0001:00041e60       ?doThisTypes@UnDecorator@@SAHXZ 10042e60 f i libvcruntimed:undname.obj
 0001:00041ea0       ?doThrowTypes@UnDecorator@@SAHXZ 10042ea0 f i libvcruntimed:undname.obj
 0001:00041ed0       ?doTypeOnly@UnDecorator@@SAHXZ 10042ed0 f i libvcruntimed:undname.obj
 0001:00041ef0       ?doUnderScore@UnDecorator@@SAHXZ 10042ef0 f i libvcruntimed:undname.obj
 0001:00041f20       ?getArgumentList@UnDecorator@@CA?AVDName@@XZ 10042f20 f   libvcruntimed:undname.obj
 0001:000420c0       ?getArgumentTypes@UnDecorator@@CA?AVDName@@XZ 100430c0 f   libvcruntimed:undname.obj
 0001:00042270       ?getArrayType@UnDecorator@@CA?AVDName@@ABV2@@Z 10043270 f i libvcruntimed:undname.obj
 0001:00042530       ?getBasedType@UnDecorator@@CA?AVDName@@XZ 10043530 f   libvcruntimed:undname.obj
 0001:00042620       ?getBasicDataType@UnDecorator@@CA?AVDName@@ABV2@@Z 10043620 f   libvcruntimed:undname.obj
 0001:00042d80       ?getCallIndex@UnDecorator@@CA?AVDName@@XZ 10043d80 f i libvcruntimed:undname.obj
 0001:00042da0       ?getCallingConvention@UnDecorator@@CA?AVDName@@XZ 10043da0 f   libvcruntimed:undname.obj
 0001:00042f90       ?getDataIndirectType@UnDecorator@@CA?AVDName@@ABV2@PBD0H@Z 10043f90 f   libvcruntimed:undname.obj
 0001:00043940       ?getDataIndirectType@UnDecorator@@CA?AVDName@@XZ 10044940 f i libvcruntimed:undname.obj
 0001:00043990       ?getDataType@UnDecorator@@CA?AVDName@@PAV2@@Z 10044990 f   libvcruntimed:undname.obj
 0001:00043af0       ?getDecoratedName@UnDecorator@@CA?AVDName@@XZ 10044af0 f   libvcruntimed:undname.obj
 0001:00043ee0       ?getDimension@UnDecorator@@CA?AVDName@@_N@Z 10044ee0 f   libvcruntimed:undname.obj
 0001:00044240       ?getDispatchTarget@UnDecorator@@CA?AVDName@@XZ 10045240 f   libvcruntimed:undname.obj
 0001:00044300       ?getDisplacement@UnDecorator@@CA?AVDName@@XZ 10045300 f i libvcruntimed:undname.obj
 0001:00044320       ?getECSUDataType@UnDecorator@@CA?AVDName@@XZ 10045320 f   libvcruntimed:undname.obj
 0001:00044560       ?getECSUName@UnDecorator@@CA?AVDName@@XZ 10045560 f i libvcruntimed:undname.obj
 0001:00044580       ?getEnumType@UnDecorator@@CA?AVDName@@XZ 10045580 f i libvcruntimed:undname.obj
 0001:00044720       ?getExtendedDataIndirectType@UnDecorator@@CA?AVDName@@AAPBDAA_NH@Z 10045720 f   libvcruntimed:undname.obj
 0001:00044a00       ?getExternalDataType@UnDecorator@@CA?AVDName@@ABV2@@Z 10045a00 f i libvcruntimed:undname.obj
 0001:00044ac0       ?getFunctionIndirectType@UnDecorator@@CA?AVDName@@ABV2@@Z 10045ac0 f   libvcruntimed:undname.obj
 0001:00045070       ?getGuardNumber@UnDecorator@@CA?AVDName@@XZ 10046070 f i libvcruntimed:undname.obj
 0001:00045090       ?getLastChar@DName@@QBEDXZ 10046090 f i libvcruntimed:undname.obj
 0001:000450e0       ?getLastChar@DNameStatusNode@@UBEDXZ 100460e0 f i libvcruntimed:undname.obj
 0001:00045120       ?getLastChar@charNode@@UBEDXZ 10046120 f i libvcruntimed:undname.obj
 0001:00045140       ?getLastChar@pDNameNode@@UBEDXZ 10046140 f i libvcruntimed:undname.obj
 0001:00045180       ?getLastChar@pairNode@@UBEDXZ 10046180 f i libvcruntimed:undname.obj
 0001:00045200       ?getLastChar@pcharNode@@UBEDXZ 10046200 f i libvcruntimed:undname.obj
 0001:00045240       ?getLexicalFrame@UnDecorator@@CA?AVDName@@XZ 10046240 f i libvcruntimed:undname.obj
 0001:00045290       ?getMemory@_HeapManager@@QAEPAXIH@Z 10046290 f   libvcruntimed:undname.obj
 0001:000453f0       ?getNumberOfDimensions@UnDecorator@@CAHXZ 100463f0 f   libvcruntimed:undname.obj
 0001:00045530       ?getOperatorName@UnDecorator@@CA?AVDName@@_NPA_N@Z 10046530 f i libvcruntimed:undname.obj
 0001:000461f0       ?getPointerType@UnDecorator@@CA?AVDName@@ABV2@0@Z 100471f0 f i libvcruntimed:undname.obj
 0001:00046230       ?getPointerTypeArray@UnDecorator@@CA?AVDName@@ABV2@0@Z 10047230 f i libvcruntimed:undname.obj
 0001:00046270       ?getPrimaryDataType@UnDecorator@@CA?AVDName@@ABV2@@Z 10047270 f   libvcruntimed:undname.obj
 0001:00046760       ?getPtrRefDataType@UnDecorator@@CA?AVDName@@ABV2@H@Z 10047760 f   libvcruntimed:undname.obj
 0001:00046960       ?getPtrRefType@UnDecorator@@CA?AVDName@@ABV2@0PBD@Z 10047960 f   libvcruntimed:undname.obj
 0001:00046b30       ?getReferenceType@UnDecorator@@CA?AVDName@@ABV2@0PBD@Z 10047b30 f i libvcruntimed:undname.obj
 0001:00046b60       ?getRestrictionSpec@UnDecorator@@CA?AVDName@@XZ 10047b60 f   libvcruntimed:undname.obj
 0001:00046d00       ?getReturnType@UnDecorator@@CA?AVDName@@PAV2@@Z 10047d00 f   libvcruntimed:undname.obj
 0001:00046d60       ?getScope@UnDecorator@@CA?AVDName@@XZ 10047d60 f   libvcruntimed:undname.obj
 0001:00047390       ?getScopedName@UnDecorator@@CA?AVDName@@XZ 10048390 f   libvcruntimed:undname.obj
 0001:000474f0       ?getSignedDimension@UnDecorator@@CA?AVDName@@XZ 100484f0 f   libvcruntimed:undname.obj
 0001:00047590       ?getStorageConvention@UnDecorator@@CA?AVDName@@XZ 10048590 f i libvcruntimed:undname.obj
 0001:000475b0       ?getString@DName@@QBEPADPAD0@Z 100485b0 f i libvcruntimed:undname.obj
 0001:00047610       ?getString@DName@@QBEPADPADH@Z 10048610 f i libvcruntimed:undname.obj
 0001:000476c0       ?getString@DNameStatusNode@@UBEPADPAD0@Z 100486c0 f i libvcruntimed:undname.obj
 0001:00047700       ?getString@charNode@@UBEPADPAD0@Z 10048700 f i libvcruntimed:undname.obj
 0001:00047740       ?getString@pDNameNode@@UBEPADPAD0@Z 10048740 f i libvcruntimed:undname.obj
 0001:00047790       ?getString@pairNode@@UBEPADPAD0@Z 10048790 f i libvcruntimed:undname.obj
 0001:00047830       ?getString@pcharNode@@UBEPADPAD0@Z 10048830 f i libvcruntimed:undname.obj
 0001:00047870       ?getStringEncoding@UnDecorator@@CA?AVDName@@PADH@Z 10048870 f   libvcruntimed:undname.obj
 0001:000479c0       ?getStringHelper@@YAPADPAD00H@Z 100489c0 f i libvcruntimed:undname.obj
 0001:00047a10       ?getSymbolName@UnDecorator@@CA?AVDName@@XZ 10048a10 f i libvcruntimed:undname.obj
 0001:00047ac0       ?getTemplateArgumentList@UnDecorator@@CA?AVDName@@XZ 10048ac0 f   libvcruntimed:undname.obj
 0001:00047fa0       ?getTemplateConstant@UnDecorator@@CA?AVDName@@XZ 10048fa0 f   libvcruntimed:undname.obj
 0001:000486b0       ?getTemplateName@UnDecorator@@CA?AVDName@@_N@Z 100496b0 f   libvcruntimed:undname.obj
 0001:000488f0       ?getThisType@UnDecorator@@CA?AVDName@@XZ 100498f0 f i libvcruntimed:undname.obj
 0001:00048940       ?getThrowTypes@UnDecorator@@CA?AVDName@@XZ 10049940 f   libvcruntimed:undname.obj
 0001:00048a10       ?getTypeEncoding@UnDecorator@@CAHXZ 10049a10 f i libvcruntimed:undname.obj
 0001:000496e0       ?getVCallThunkType@UnDecorator@@CA?AVDName@@XZ 1004a6e0 f i libvcruntimed:undname.obj
 0001:00049760       ?getVbTableType@UnDecorator@@CA?AVDName@@ABV2@@Z 1004a760 f i libvcruntimed:undname.obj
 0001:00049780       ?getVdispMapType@UnDecorator@@CA?AVDName@@ABV2@@Z 1004a780 f i libvcruntimed:undname.obj
 0001:00049810       ?getVfTableType@UnDecorator@@CA?AVDName@@ABV2@@Z 1004a810 f i libvcruntimed:undname.obj
 0001:00049a40       ?getZName@UnDecorator@@CA?AVDName@@_N0@Z 1004aa40 f   libvcruntimed:undname.obj
 0001:00049dc0       ?haveTemplateParameters@UnDecorator@@SAHXZ 1004adc0 f i libvcruntimed:undname.obj
 0001:00049de0       ?isArray@DName@@QBEHXZ     1004ade0 f i libvcruntimed:undname.obj
 0001:00049e00       ?isComArray@DName@@QBEHXZ  1004ae00 f i libvcruntimed:undname.obj
 0001:00049e20       ?isEmpty@DName@@QBEHXZ     1004ae20 f i libvcruntimed:undname.obj
 0001:00049e60       ?isFull@Replicator@@QBEHXZ 1004ae60 f i libvcruntimed:undname.obj
 0001:00049ea0       ?isNoTE@DName@@QBEHXZ      1004aea0 f i libvcruntimed:undname.obj
 0001:00049ec0       ?isPinPtr@DName@@QBEHXZ    1004aec0 f i libvcruntimed:undname.obj
 0001:00049ee0       ?isPtrRef@DName@@QBEHXZ    1004aee0 f i libvcruntimed:undname.obj
 0001:00049f00       ?isUDC@DName@@QBEHXZ       1004af00 f i libvcruntimed:undname.obj
 0001:00049f50       ?isUDTThunk@DName@@QBEHXZ  1004af50 f i libvcruntimed:undname.obj
 0001:00049fa0       ?isVCallThunk@DName@@QBEHXZ 1004afa0 f i libvcruntimed:undname.obj
 0001:00049fc0       ?isValid@DName@@QBEHXZ     1004afc0 f i libvcruntimed:undname.obj
 0001:0004a000       ?length@DName@@QBEHXZ      1004b000 f i libvcruntimed:undname.obj
 0001:0004a050       ?length@DNameStatusNode@@UBEHXZ 1004b050 f i libvcruntimed:undname.obj
 0001:0004a070       ?length@charNode@@UBEHXZ   1004b070 f i libvcruntimed:undname.obj
 0001:0004a090       ?length@pDNameNode@@UBEHXZ 1004b090 f i libvcruntimed:undname.obj
 0001:0004a0d0       ?length@pairNode@@UBEHXZ   1004b0d0 f i libvcruntimed:undname.obj
 0001:0004a160       ?length@pcharNode@@UBEHXZ  1004b160 f i libvcruntimed:undname.obj
 0001:0004a180       ?make@DNameStatusNode@@SAPAV1@W4DNameStatus@@@Z 1004b180 f i libvcruntimed:undname.obj
 0001:0004a210       ?setIsArray@DName@@QAEXXZ  1004b210 f i libvcruntimed:undname.obj
 0001:0004a240       ?setIsComArray@DName@@QAEXXZ 1004b240 f i libvcruntimed:undname.obj
 0001:0004a270       ?setIsNoTE@DName@@QAEXXZ   1004b270 f i libvcruntimed:undname.obj
 0001:0004a2a0       ?setIsPinPtr@DName@@QAEXXZ 1004b2a0 f i libvcruntimed:undname.obj
 0001:0004a2d0       ?setIsUDC@DName@@QAEXXZ    1004b2d0 f i libvcruntimed:undname.obj
 0001:0004a310       ?setIsVCallThunk@DName@@QAEXXZ 1004b310 f i libvcruntimed:undname.obj
 0001:0004a340       ?setPtrRef@DName@@QAEAAV1@XZ 1004b340 f i libvcruntimed:undname.obj
 0001:0004a370       ?status@DName@@QBE?AW4DNameStatus@@XZ 1004b370 f i libvcruntimed:undname.obj
 0001:0004a490       ___unDName                 1004b490 f   libvcruntimed:undname.obj
 0001:0004a590       ___unDNameEx               1004b590 f   libvcruntimed:undname.obj
 0001:0004a690       __local_unwind4            1004b690 f   libvcruntimed:_exsup4_.obj
 0001:0004a766       __seh_longjmp_unwind4@4    1004b766 f   libvcruntimed:_exsup4_.obj
 0001:0004a78e       @_EH4_CallFilterFunc@8     1004b78e f   libvcruntimed:_exsup4_.obj
 0001:0004a7a5       @_EH4_TransferToHandler@8  1004b7a5 f   libvcruntimed:_exsup4_.obj
 0001:0004a7be       @_EH4_GlobalUnwind2@8      1004b7be f   libvcruntimed:_exsup4_.obj
 0001:0004a7d7       @_EH4_LocalUnwind@16       1004b7d7 f   libvcruntimed:_exsup4_.obj
 0001:0004a850       ___except_validate_context_record 1004b850 f   libvcruntimed:jbcxrval.obj
 0001:0004a8b0       ___except_validate_jump_buffer 1004b8b0 f   libvcruntimed:jbcxrval.obj
 0001:0004a910       ??$?RU__vcrt_ptd@@@__crt_internal_free_policy@@QBEXQBU__vcrt_ptd@@@Z 1004b910 f i libvcruntimed:per_thread_data.obj
 0001:0004a940       ??0?$__crt_unique_heap_ptr@U__vcrt_ptd@@U__crt_internal_free_policy@@@@QAE@QAU__vcrt_ptd@@@Z 1004b940 f i libvcruntimed:per_thread_data.obj
 0001:0004a980       ??1?$__crt_unique_heap_ptr@U__vcrt_ptd@@U__crt_internal_free_policy@@@@QAE@XZ 1004b980 f i libvcruntimed:per_thread_data.obj
 0001:0004a9c0       ??B?$__crt_unique_heap_ptr@U__vcrt_ptd@@U__crt_internal_free_policy@@@@QBE_NXZ 1004b9c0 f i libvcruntimed:per_thread_data.obj
 0001:0004a9e0       ?detach@?$__crt_unique_heap_ptr@U__vcrt_ptd@@U__crt_internal_free_policy@@@@QAEPAU__vcrt_ptd@@XZ 1004b9e0 f i libvcruntimed:per_thread_data.obj
 0001:0004aa10       ?get@?$__crt_unique_heap_ptr@U__vcrt_ptd@@U__crt_internal_free_policy@@@@QBEPAU__vcrt_ptd@@XZ 1004ba10 f i libvcruntimed:per_thread_data.obj
 0001:0004aa30       ?is_valid@?$__crt_unique_heap_ptr@U__vcrt_ptd@@U__crt_internal_free_policy@@@@QBE_NXZ 1004ba30 f i libvcruntimed:per_thread_data.obj
 0001:0004aa70       ?release@?$__crt_unique_heap_ptr@U__vcrt_ptd@@U__crt_internal_free_policy@@@@QAEXXZ 1004ba70 f i libvcruntimed:per_thread_data.obj
 0001:0004aad0       ___vcrt_freefls@4          1004bad0 f   libvcruntimed:per_thread_data.obj
 0001:0004ab00       ___vcrt_freeptd            1004bb00 f   libvcruntimed:per_thread_data.obj
 0001:0004ab70       ___vcrt_getptd             1004bb70 f   libvcruntimed:per_thread_data.obj
 0001:0004aba0       ___vcrt_getptd_noexit      1004bba0 f   libvcruntimed:per_thread_data.obj
 0001:0004ad60       ___vcrt_initialize_ptd     1004bd60 f   libvcruntimed:per_thread_data.obj
 0001:0004adc0       ___vcrt_uninitialize_ptd   1004bdc0 f   libvcruntimed:per_thread_data.obj
 0001:0004ae00       ___vcrt_initialize_locks   1004be00 f   libvcruntimed:locks.obj
 0001:0004ae70       ___vcrt_lock               1004be70 f   libvcruntimed:locks.obj
 0001:0004ae90       ___vcrt_uninitialize_locks 1004be90 f   libvcruntimed:locks.obj
 0001:0004aef0       ___vcrt_unlock             1004bef0 f   libvcruntimed:locks.obj
 0001:0004af10       ??$?BX@__crt_fast_encoded_nullptr_t@@QBEPAXXZ 1004bf10 f i libvcruntimed:winapi_downlevel.obj
 0001:0004af30       ??$__crt_fast_decode_pointer@PAX@@YAPAXQAX@Z 1004bf30 f i libvcruntimed:winapi_downlevel.obj
 0001:0004af60       ??$__crt_fast_encode_pointer@PAX@@YAPAXQAX@Z 1004bf60 f i libvcruntimed:winapi_downlevel.obj
 0001:0004afa0       ??$__crt_interlocked_compare_exchange_pointer@UHINSTANCE__@@$$T$$T@@YAPAUHINSTANCE__@@PDSAU0@$$T1@Z 1004bfa0 f i libvcruntimed:winapi_downlevel.obj
 0001:0004afc0       ??$__crt_interlocked_compare_exchange_pointer@X$$T$$T@@YAPAXPDSAX$$T1@Z 1004bfc0 f i libvcruntimed:winapi_downlevel.obj
 0001:0004afe0       ??$__crt_interlocked_exchange_pointer@UHINSTANCE__@@PAU1@@@YAPAUHINSTANCE__@@PDSAU0@QAU0@@Z 1004bfe0 f i libvcruntimed:winapi_downlevel.obj
 0001:0004aff0       ??$__crt_interlocked_exchange_pointer@UHINSTANCE__@@PAX@@YAPAUHINSTANCE__@@PDSAU0@QAX@Z 1004bff0 f i libvcruntimed:winapi_downlevel.obj
 0001:0004b000       ??$__crt_interlocked_exchange_pointer@XPAX@@YAPAXPDSAXQAX@Z 1004c000 f i libvcruntimed:winapi_downlevel.obj
 0001:0004b010       ??$__crt_interlocked_read_pointer@UHINSTANCE__@@@@YAPAUHINSTANCE__@@PDSAU0@@Z 1004c010 f i libvcruntimed:winapi_downlevel.obj
 0001:0004b030       ??$__crt_interlocked_read_pointer@X@@YAPAXPDSAX@Z 1004c030 f i libvcruntimed:winapi_downlevel.obj
 0001:0004b5d0       ___vcrt_EventRegister      1004c5d0 f   libvcruntimed:winapi_downlevel.obj
 0001:0004b620       ___vcrt_EventSetInformation 1004c620 f   libvcruntimed:winapi_downlevel.obj
 0001:0004b680       ___vcrt_EventUnregister    1004c680 f   libvcruntimed:winapi_downlevel.obj
 0001:0004b6d0       ___vcrt_EventWriteTransfer 1004c6d0 f   libvcruntimed:winapi_downlevel.obj
 0001:0004b730       ___vcrt_FlsAlloc           1004c730 f   libvcruntimed:winapi_downlevel.obj
 0001:0004b780       ___vcrt_FlsFree            1004c780 f   libvcruntimed:winapi_downlevel.obj
 0001:0004b7d0       ___vcrt_FlsGetValue        1004c7d0 f   libvcruntimed:winapi_downlevel.obj
 0001:0004b820       ___vcrt_FlsSetValue        1004c820 f   libvcruntimed:winapi_downlevel.obj
 0001:0004b880       ___vcrt_InitializeCriticalSectionEx 1004c880 f   libvcruntimed:winapi_downlevel.obj
 0001:0004b8e0       ___vcrt_initialize_winapi_thunks 1004c8e0 f   libvcruntimed:winapi_downlevel.obj
 0001:0004b960       ___vcrt_uninitialize_winapi_thunks 1004c960 f   libvcruntimed:winapi_downlevel.obj
 0001:0004b9f0       __global_unwind2           1004c9f0 f   libvcruntimed:_exsup_.obj
 0001:0004ba55       __local_unwind2            1004ca55 f   libvcruntimed:_exsup_.obj
 0001:0004bad9       __abnormal_termination     1004cad9 f   libvcruntimed:_exsup_.obj
 0001:0004bafc       __NLG_Notify1              1004cafc f   libvcruntimed:_exsup_.obj
 0001:0004bb05       __NLG_Notify               1004cb05 f   libvcruntimed:_exsup_.obj
 0001:0004bb1c       __NLG_Dispatch             1004cb1c     libvcruntimed:_exsup_.obj
 0001:0004bb1c       __NLG_Dispatch2            1004cb1c     libvcruntimed:_exsup_.obj
 0001:0004bb24       __NLG_Call                 1004cb24 f   libvcruntimed:_exsup_.obj
 0001:0004bb26       __NLG_Return2              1004cb26     libvcruntimed:_exsup_.obj
 0001:0004bb80       _fabs                      1004cb80 f   libucrtd:fabs.obj
 0001:0004bca0       __CIsqrt                   1004cca0 f   libucrtd:sqrt.obj
 0001:0004bcb4       _sqrt                      1004ccb4     libucrtd:sqrt.obj
 0001:0004bd90       __chgsign                  1004cd90 f   libucrtd:ieeemisc.obj
 0001:0004bdd0       __chgsignf                 1004cdd0 f   libucrtd:ieeemisc.obj
 0001:0004be20       __copysign                 1004ce20 f   libucrtd:ieeemisc.obj
 0001:0004be60       __copysignf                1004ce60 f   libucrtd:ieeemisc.obj
 0001:0004bec0       __finite                   1004cec0 f   libucrtd:ieeemisc.obj
 0001:0004bef0       __fpclass                  1004cef0 f   libucrtd:ieeemisc.obj
 0001:0004c020       __isnan                    1004d020 f   libucrtd:ieeemisc.obj
 0001:0004c080       __logb                     1004d080 f   libucrtd:ieeemisc.obj
 0001:0004c1e0       __nextafter                1004d1e0 f   libucrtd:ieeemisc.obj
 0001:0004c210       __scalb                    1004d210 f   libucrtd:ieeemisc.obj
 0001:0004c240       ??$?RU?$__crt_report_hook_node@D@@@__crt_internal_free_policy@@QBEXQBU?$__crt_report_hook_node@D@@@Z 1004d240 f i libucrtd:dbgrpt.obj
 0001:0004c270       ??$?RU?$__crt_report_hook_node@_W@@@__crt_internal_free_policy@@QBEXQBU?$__crt_report_hook_node@_W@@@Z 1004d270 f i libucrtd:dbgrpt.obj
 0001:0004c2a0       ??$?RV<lambda_4385efabcfedf7d3ecea3114bb4d80a3>@@AAV<lambda_0e04737ef8baea6dabca2b8414b05b67>@@V<lambda_d865d276f220a9fa71140df531e906d8>@@@?$__crt_seh_guarded_call@H@@QAEH$$QAV<lambda_4385efabcfedf7d3ecea3114bb4d80a3>@@AAV<lambda_0e04737ef8baea6dabca2b8414b05b67>@@$$QAV<lambda_d865d276f220a9fa71140df531e906d8>@@@Z 1004d2a0 f i libucrtd:dbgrpt.obj
 0001:0004c350       ??$?RV<lambda_cc3a1c0f52e01ba2b29fe175588291fc>@@AAV<lambda_fe667bea668416e0f0232b481cd5c955>@@V<lambda_bb8fdd70844b93de4445abd0f0332611>@@@?$__crt_seh_guarded_call@H@@QAEH$$QAV<lambda_cc3a1c0f52e01ba2b29fe175588291fc>@@AAV<lambda_fe667bea668416e0f0232b481cd5c955>@@$$QAV<lambda_bb8fdd70844b93de4445abd0f0332611>@@@Z 1004d350 f i libucrtd:dbgrpt.obj
 0001:0004c400       ??$__acrt_lock_and_call@V<lambda_0e04737ef8baea6dabca2b8414b05b67>@@@@YAHW4__acrt_lock_id@@$$QAV<lambda_0e04737ef8baea6dabca2b8414b05b67>@@@Z 1004d400 f i libucrtd:dbgrpt.obj
 0001:0004c450       ??$__acrt_lock_and_call@V<lambda_fe667bea668416e0f0232b481cd5c955>@@@@YAHW4__acrt_lock_id@@$$QAV<lambda_fe667bea668416e0f0232b481cd5c955>@@@Z 1004d450 f i libucrtd:dbgrpt.obj
 0001:0004c4a0       ??$__vcrt_va_start_verify_argument_type@QB_W@@YAXXZ 1004d4a0 f i libucrtd:dbgrpt.obj
 0001:0004d3a0       ??$get_module_file_name@AAPAUHINSTANCE__@@AAY0BAF@DK@?$__crt_char_traits@D@@SAKAAPAUHINSTANCE__@@AAY0BAF@D$$QAK@Z 1004e3a0 f i libucrtd:dbgrpt.obj
 0001:0004d3d0       ??$get_module_file_name@AAPAUHINSTANCE__@@AAY0BAF@_WK@?$__crt_char_traits@_W@@SAKAAPAUHINSTANCE__@@AAY0BAF@_W$$QAK@Z 1004e3d0 f i libucrtd:dbgrpt.obj
 0001:0004d400       ??$tcscpy_s@AAY0BAF@DIPBD@?$__crt_char_traits@D@@SAHAAY0BAF@D$$QAI$$QAPBD@Z 1004e400 f i libucrtd:dbgrpt.obj
 0001:0004d430       ??$tcscpy_s@AAY0BAF@_WIPB_W@?$__crt_char_traits@_W@@SAHAAY0BAF@_W$$QAI$$QAPB_W@Z 1004e430 f i libucrtd:dbgrpt.obj
 0001:0004d460       ??$tcslen@AAY0BAF@D@?$__crt_char_traits@D@@SAIAAY0BAF@D@Z 1004e460 f i libucrtd:dbgrpt.obj
 0001:0004d480       ??$tcslen@AAY0BAF@_W@?$__crt_char_traits@_W@@SAIAAY0BAF@_W@Z 1004e480 f i libucrtd:dbgrpt.obj
 0001:0004d4a0       ??$tcslen@ABQBD@?$__crt_char_traits@D@@SAIABQBD@Z 1004e4a0 f i libucrtd:dbgrpt.obj
 0001:0004d4c0       ??$tcslen@ABQB_W@?$__crt_char_traits@_W@@SAIABQB_W@Z 1004e4c0 f i libucrtd:dbgrpt.obj
 0001:0004d600       ??0?$__crt_unique_heap_ptr@U?$__crt_report_hook_node@D@@U__crt_internal_free_policy@@@@QAE@QAU?$__crt_report_hook_node@D@@@Z 1004e600 f i libucrtd:dbgrpt.obj
 0001:0004d620       ??0?$__crt_unique_heap_ptr@U?$__crt_report_hook_node@_W@@U__crt_internal_free_policy@@@@QAE@QAU?$__crt_report_hook_node@_W@@@Z 1004e620 f i libucrtd:dbgrpt.obj
 0001:0004d640       ??1?$__crt_unique_heap_ptr@U?$__crt_report_hook_node@D@@U__crt_internal_free_policy@@@@QAE@XZ 1004e640 f i libucrtd:dbgrpt.obj
 0001:0004d660       ??1?$__crt_unique_heap_ptr@U?$__crt_report_hook_node@_W@@U__crt_internal_free_policy@@@@QAE@XZ 1004e660 f i libucrtd:dbgrpt.obj
 0001:0004d680       ??B?$__crt_unique_heap_ptr@U?$__crt_report_hook_node@D@@U__crt_internal_free_policy@@@@QBE_NXZ 1004e680 f i libucrtd:dbgrpt.obj
 0001:0004d6a0       ??B?$__crt_unique_heap_ptr@U?$__crt_report_hook_node@_W@@U__crt_internal_free_policy@@@@QBE_NXZ 1004e6a0 f i libucrtd:dbgrpt.obj
 0001:0004dd40       ?detach@?$__crt_unique_heap_ptr@U?$__crt_report_hook_node@D@@U__crt_internal_free_policy@@@@QAEPAU?$__crt_report_hook_node@D@@XZ 1004ed40 f i libucrtd:dbgrpt.obj
 0001:0004dd70       ?detach@?$__crt_unique_heap_ptr@U?$__crt_report_hook_node@_W@@U__crt_internal_free_policy@@@@QAEPAU?$__crt_report_hook_node@_W@@XZ 1004ed70 f i libucrtd:dbgrpt.obj
 0001:0004dda0       ?get@?$__crt_unique_heap_ptr@U?$__crt_report_hook_node@D@@U__crt_internal_free_policy@@@@QBEPAU?$__crt_report_hook_node@D@@XZ 1004eda0 f i libucrtd:dbgrpt.obj
 0001:0004ddc0       ?get@?$__crt_unique_heap_ptr@U?$__crt_report_hook_node@_W@@U__crt_internal_free_policy@@@@QBEPAU?$__crt_report_hook_node@_W@@XZ 1004edc0 f i libucrtd:dbgrpt.obj
 0001:0004de40       ?is_valid@?$__crt_unique_heap_ptr@U?$__crt_report_hook_node@D@@U__crt_internal_free_policy@@@@QBE_NXZ 1004ee40 f i libucrtd:dbgrpt.obj
 0001:0004de80       ?is_valid@?$__crt_unique_heap_ptr@U?$__crt_report_hook_node@_W@@U__crt_internal_free_policy@@@@QBE_NXZ 1004ee80 f i libucrtd:dbgrpt.obj
 0001:0004dec0       ?release@?$__crt_unique_heap_ptr@U?$__crt_report_hook_node@D@@U__crt_internal_free_policy@@@@QAEXXZ 1004eec0 f i libucrtd:dbgrpt.obj
 0001:0004df00       ?release@?$__crt_unique_heap_ptr@U?$__crt_report_hook_node@_W@@U__crt_internal_free_policy@@@@QAEXXZ 1004ef00 f i libucrtd:dbgrpt.obj
 0001:0004df40       __CrtDbgReport             1004ef40 f   libucrtd:dbgrpt.obj
 0001:0004dfa0       __CrtDbgReportW            1004efa0 f   libucrtd:dbgrpt.obj
 0001:0004e000       __CrtSetReportHook2        1004f000 f   libucrtd:dbgrpt.obj
 0001:0004e020       __CrtSetReportHookW2       1004f020 f   libucrtd:dbgrpt.obj
 0001:0004e040       ___acrt_MessageWindowA     1004f040 f   libucrtd:dbgrpt.obj
 0001:0004e070       ___acrt_MessageWindowW     1004f070 f   libucrtd:dbgrpt.obj
 0001:0004e0a0       __invoke_watson_if_error   1004f0a0 f i libucrtd:dbgrpt.obj
 0001:0004e0e0       __invoke_watson_if_oneof   1004f0e0 f i libucrtd:dbgrpt.obj
 0001:0004e130       __snwprintf_s              1004f130 f i libucrtd:dbgrpt.obj
 0001:0004e190       __vsnwprintf_s_l           1004f190 f i libucrtd:dbgrpt.obj
 0001:0004e200       __errcode                  1004f200 f   libucrtd:fpexcept.obj
 0001:0004e290       __except1                  1004f290 f   libucrtd:fpexcept.obj
 0001:0004e3d0       __except2                  1004f3d0 f   libucrtd:fpexcept.obj
 0001:0004e580       __handle_exc               1004f580 f   libucrtd:fpexcept.obj
 0001:0004e960       __handle_qnan2             1004f960 f   libucrtd:fpexcept.obj
 0001:0004e980       __raise_exc                1004f980 f   libucrtd:fpexcept.obj
 0001:0004e9c0       __raise_exc_ex             1004f9c0 f   libucrtd:fpexcept.obj
 0001:0004f0a0       __raise_excf               100500a0 f   libucrtd:fpexcept.obj
 0001:0004f0e0       __set_errno_from_matherr   100500e0 f   libucrtd:fpexcept.obj
 0001:0004f130       __umatherr                 10050130 f   libucrtd:fpexcept.obj
 0001:0004f200       __initterm                 10050200 f   libucrtd:initterm.obj
 0001:0004f270       __initterm_e               10050270 f   libucrtd:initterm.obj
 0001:0004f300       ??$__crt_interlocked_read@J@@YAJPDJ@Z 10050300 f i libucrtd:debug_heap.obj
 0001:0004f320       ??0_LocaleUpdate@@QAE@QAU__crt_locale_pointers@@@Z 10050320 f i libucrtd:debug_heap.obj
 0001:0004f440       ??1_LocaleUpdate@@QAE@XZ   10050440 f i libucrtd:debug_heap.obj
 0001:0004f480       ?GetLocaleT@_LocaleUpdate@@QAEPAU__crt_locale_pointers@@XZ 10050480 f i libucrtd:debug_heap.obj
 0001:0004f4a0       ?__crt_interlocked_read_32@@YAHPDH@Z 100504a0 f i libucrtd:debug_heap.obj
 0001:00051360       __CrtCheckMemory           10052360 f   libucrtd:debug_heap.obj
 0001:00051550       __CrtDoForAllClientObjects 10052550 f   libucrtd:debug_heap.obj
 0001:00051700       __CrtDumpMemoryLeaks       10052700 f   libucrtd:debug_heap.obj
 0001:000517c0       __CrtGetAllocHook          100527c0 f   libucrtd:debug_heap.obj
 0001:000517d0       __CrtGetDumpClient         100527d0 f   libucrtd:debug_heap.obj
 0001:000517e0       __CrtIsMemoryBlock         100527e0 f   libucrtd:debug_heap.obj
 0001:00051980       __CrtIsValidHeapPointer    10052980 f   libucrtd:debug_heap.obj
 0001:000519c0       __CrtIsValidPointer        100529c0 f   libucrtd:debug_heap.obj
 0001:000519f0       __CrtMemCheckpoint         100529f0 f   libucrtd:debug_heap.obj
 0001:00051cb0       __CrtMemDifference         10052cb0 f   libucrtd:debug_heap.obj
 0001:00051fc0       __CrtMemDumpAllObjectsSince 10052fc0 f   libucrtd:debug_heap.obj
 0001:00052080       __CrtMemDumpStatistics     10053080 f   libucrtd:debug_heap.obj
 0001:000521f0       __CrtReportBlockType       100531f0 f   libucrtd:debug_heap.obj
 0001:00052230       __CrtSetAllocHook          10053230 f   libucrtd:debug_heap.obj
 0001:00052260       __CrtSetBreakAlloc         10053260 f   libucrtd:debug_heap.obj
 0001:00052290       __CrtSetDbgBlockType       10053290 f   libucrtd:debug_heap.obj
 0001:000523a0       __CrtSetDbgFlag            100533a0 f   libucrtd:debug_heap.obj
 0001:00052570       __CrtSetDumpClient         10053570 f   libucrtd:debug_heap.obj
 0001:000525a0       ___acrt_get_locale_data_prefix 100535a0 f i libucrtd:debug_heap.obj
 0001:000525c0       ___acrt_locale_changed     100535c0 f i libucrtd:debug_heap.obj
 0001:00052600       ___p__crtBreakAlloc        10053600 f   libucrtd:debug_heap.obj
 0001:00052610       ___p__crtDbgFlag           10053610 f   libucrtd:debug_heap.obj
 0001:00052620       __aligned_free_dbg         10053620 f   libucrtd:debug_heap.obj
 0001:00052700       __aligned_malloc_dbg       10053700 f   libucrtd:debug_heap.obj
 0001:00052730       __aligned_msize_dbg        10053730 f   libucrtd:debug_heap.obj
 0001:000528a0       __aligned_offset_malloc_dbg 100538a0 f   libucrtd:debug_heap.obj
 0001:00052af0       __aligned_offset_realloc_dbg 10053af0 f   libucrtd:debug_heap.obj
 0001:00052ec0       __aligned_offset_recalloc_dbg 10053ec0 f   libucrtd:debug_heap.obj
 0001:00052fb0       __aligned_realloc_dbg      10053fb0 f   libucrtd:debug_heap.obj
 0001:00052fe0       __aligned_recalloc_dbg     10053fe0 f   libucrtd:debug_heap.obj
 0001:00053020       __calloc_dbg               10054020 f   libucrtd:debug_heap.obj
 0001:000530b0       __chvalidchk_l             100540b0 f i libucrtd:debug_heap.obj
 0001:000530e0       __expand_dbg               100540e0 f   libucrtd:debug_heap.obj
 0001:00053260       __free_dbg                 10054260 f   libucrtd:debug_heap.obj
 0001:00053340       __ischartype_l             10054340 f i libucrtd:debug_heap.obj
 0001:000533a0       __malloc_dbg               100543a0 f   libucrtd:debug_heap.obj
 0001:000533d0       __msize_dbg                100543d0 f   libucrtd:debug_heap.obj
 0001:000535c0       __realloc_dbg              100545c0 f   libucrtd:debug_heap.obj
 0001:00053690       __recalloc_dbg             10054690 f   libucrtd:debug_heap.obj
 0001:000537d0       __seh_filter_dll           100547d0 f   libucrtd:exception_filter.obj
 0001:00053800       __seh_filter_exe           10054800 f   libucrtd:exception_filter.obj
 0001:00053ab0       ??$?B$$A6GXPAXK0@Z@__crt_fast_encoded_nullptr_t@@QBEP6GXPAXK0@ZXZ 10054ab0 f i libucrtd:exit.obj
 0001:00053ad0       ??$__crt_fast_decode_pointer@P6GXPAXK0@Z@@YAP6GXPAXK0@ZQ6GX0K0@Z@Z 10054ad0 f i libucrtd:exit.obj
 0001:00053b10       ??$__crt_fast_encode_pointer@P6GXPAXK0@Z@@YAP6GXPAXK0@ZQ6GX0K0@Z@Z 10054b10 f i libucrtd:exit.obj
 0001:00053b50       ??$__crt_get_proc_address@P6GXI@Z@@YAP6GXI@ZQAUHINSTANCE__@@QBD@Z 10054b50 f i libucrtd:exit.obj
 0001:00053b70       ??0?$__crt_unique_handle_t@U__crt_hmodule_traits@@@@QAE@QAUHINSTANCE__@@@Z 10054b70 f i libucrtd:exit.obj
 0001:00053b90       ??1?$__crt_unique_handle_t@U__crt_hmodule_traits@@@@QAE@XZ 10054b90 f i libucrtd:exit.obj
 0001:00053bd0       ?close@?$__crt_unique_handle_t@U__crt_hmodule_traits@@@@QAEXXZ 10054bd0 f i libucrtd:exit.obj
 0001:00053c10       ?close@__crt_hmodule_traits@@SA_NPAUHINSTANCE__@@@Z 10054c10 f i libucrtd:exit.obj
 0001:00053ed0       ?get@?$__crt_unique_handle_t@U__crt_hmodule_traits@@@@QBEPAUHINSTANCE__@@XZ 10054ed0 f i libucrtd:exit.obj
 0001:00053ef0       ?get_address_of@?$__crt_unique_handle_t@U__crt_hmodule_traits@@@@QAEPAPAUHINSTANCE__@@XZ 10054ef0 f i libucrtd:exit.obj
 0001:00053f10       ?get_invalid_value@__crt_hmodule_traits@@SAPAUHINSTANCE__@@XZ 10054f10 f i libucrtd:exit.obj
 0001:000540f0       __Exit                     100550f0 f   libucrtd:exit.obj
 0001:00054110       ___acrt_initialize_thread_local_exit_callback 10055110 f   libucrtd:exit.obj
 0001:00054130       __c_exit                   10055130 f   libucrtd:exit.obj
 0001:00054150       __cexit                    10055150 f   libucrtd:exit.obj
 0001:00054170       __exit                     10055170 f   libucrtd:exit.obj
 0001:00054190       __is_c_termination_complete 10055190 f   libucrtd:exit.obj
 0001:000541b0       __register_thread_local_exe_atexit_callback 100551b0 f   libucrtd:exit.obj
 0001:00054200       _exit                      10055200 f   libucrtd:exit.obj
 0001:00054220       _quick_exit                10055220 f   libucrtd:exit.obj
 0001:00054240       ??$?RE@__crt_internal_free_policy@@QBEXQBE@Z 10055240 f i libucrtd:argv_parsing.obj
 0001:00054270       ??$?RPAD@__crt_internal_free_policy@@QBEXQBQAD@Z 10055270 f i libucrtd:argv_parsing.obj
 0001:000542a0       ??$?RPA_W@__crt_internal_free_policy@@QBEXQBQA_W@Z 100552a0 f i libucrtd:argv_parsing.obj
 0001:00054950       ??$get_module_file_name@$$TAAY0BAF@DH@?$__crt_char_traits@D@@SAK$$QA$$TAAY0BAF@D$$QAH@Z 10055950 f i libucrtd:argv_parsing.obj
 0001:00054980       ??$get_module_file_name@$$TAAY0BAF@_WH@?$__crt_char_traits@_W@@SAK$$QA$$TAAY0BAF@_W$$QAH@Z 10055980 f i libucrtd:argv_parsing.obj
 0001:00055270       ??$set_program_name@PAD@?$__crt_char_traits@D@@SAX$$QAPAD@Z 10056270 f i libucrtd:argv_parsing.obj
 0001:00055290       ??$set_program_name@PA_W@?$__crt_char_traits@_W@@SAX$$QAPA_W@Z 10056290 f i libucrtd:argv_parsing.obj
 0001:000552f0       ??0?$__crt_unique_heap_ptr@EU__crt_internal_free_policy@@@@QAE@QAE@Z 100562f0 f i libucrtd:argv_parsing.obj
 0001:00055310       ??0?$__crt_unique_heap_ptr@PADU__crt_internal_free_policy@@@@QAE@QAPAD@Z 10056310 f i libucrtd:argv_parsing.obj
 0001:00055330       ??0?$__crt_unique_heap_ptr@PA_WU__crt_internal_free_policy@@@@QAE@QAPA_W@Z 10056330 f i libucrtd:argv_parsing.obj
 0001:00055350       ??1?$__crt_unique_heap_ptr@EU__crt_internal_free_policy@@@@QAE@XZ 10056350 f i libucrtd:argv_parsing.obj
 0001:00055370       ??1?$__crt_unique_heap_ptr@PADU__crt_internal_free_policy@@@@QAE@XZ 10056370 f i libucrtd:argv_parsing.obj
 0001:00055390       ??1?$__crt_unique_heap_ptr@PA_WU__crt_internal_free_policy@@@@QAE@XZ 10056390 f i libucrtd:argv_parsing.obj
 0001:000553b0       ??B?$__crt_unique_heap_ptr@EU__crt_internal_free_policy@@@@QBE_NXZ 100563b0 f i libucrtd:argv_parsing.obj
 0001:00055490       ?detach@?$__crt_unique_heap_ptr@EU__crt_internal_free_policy@@@@QAEPAEXZ 10056490 f i libucrtd:argv_parsing.obj
 0001:000554c0       ?detach@?$__crt_unique_heap_ptr@PADU__crt_internal_free_policy@@@@QAEPAPADXZ 100564c0 f i libucrtd:argv_parsing.obj
 0001:000554f0       ?detach@?$__crt_unique_heap_ptr@PA_WU__crt_internal_free_policy@@@@QAEPAPA_WXZ 100564f0 f i libucrtd:argv_parsing.obj
 0001:00055580       ?get@?$__crt_unique_heap_ptr@EU__crt_internal_free_policy@@@@QBEPAEXZ 10056580 f i libucrtd:argv_parsing.obj
 0001:000555a0       ?get@?$__crt_unique_heap_ptr@PADU__crt_internal_free_policy@@@@QBEPAPADXZ 100565a0 f i libucrtd:argv_parsing.obj
 0001:000555c0       ?get@?$__crt_unique_heap_ptr@PA_WU__crt_internal_free_policy@@@@QBEPAPA_WXZ 100565c0 f i libucrtd:argv_parsing.obj
 0001:000555e0       ?get_address_of@?$__crt_unique_heap_ptr@PADU__crt_internal_free_policy@@@@QAEPAPAPADXZ 100565e0 f i libucrtd:argv_parsing.obj
 0001:00055600       ?get_address_of@?$__crt_unique_heap_ptr@PA_WU__crt_internal_free_policy@@@@QAEPAPAPA_WXZ 10056600 f i libucrtd:argv_parsing.obj
 0001:00055660       ?is_valid@?$__crt_unique_heap_ptr@EU__crt_internal_free_policy@@@@QBE_NXZ 10056660 f i libucrtd:argv_parsing.obj
 0001:000556a0       ?release@?$__crt_unique_heap_ptr@EU__crt_internal_free_policy@@@@QAEXXZ 100566a0 f i libucrtd:argv_parsing.obj
 0001:000556e0       ?release@?$__crt_unique_heap_ptr@PADU__crt_internal_free_policy@@@@QAEXXZ 100566e0 f i libucrtd:argv_parsing.obj
 0001:00055720       ?release@?$__crt_unique_heap_ptr@PA_WU__crt_internal_free_policy@@@@QAEXXZ 10056720 f i libucrtd:argv_parsing.obj
 0001:000557b0       ___acrt_allocate_buffer_for_argv 100567b0 f   libucrtd:argv_parsing.obj
 0001:000558a0       __configure_narrow_argv    100568a0 f   libucrtd:argv_parsing.obj
 0001:000558c0       __configure_wide_argv      100568c0 f   libucrtd:argv_parsing.obj
 0001:000558e0       __set_pgmptr               100568e0 f i libucrtd:argv_parsing.obj
 0001:00055900       __set_wpgmptr              10056900 f i libucrtd:argv_parsing.obj
 0001:00055912       ??$?R_W@__crt_internal_free_policy@@QBEXQB_W@Z 10056912 f i libucrtd:environment_initialization.obj
 0001:00055e8d       ??$get_environment_from_os@$$$V@?$__crt_char_traits@D@@SAPADXZ 10056e8d f i libucrtd:environment_initialization.obj
 0001:00055e92       ??$get_environment_from_os@$$$V@?$__crt_char_traits@_W@@SAPA_WXZ 10056e92 f i libucrtd:environment_initialization.obj
 0001:00055ff9       ??$set_variable_in_environment_nolock@PADH@?$__crt_char_traits@D@@SAH$$QAPAD$$QAH@Z 10056ff9 f i libucrtd:environment_initialization.obj
 0001:00056017       ??$set_variable_in_environment_nolock@PA_WH@?$__crt_char_traits@_W@@SAH$$QAPA_W$$QAH@Z 10057017 f i libucrtd:environment_initialization.obj
 0001:00056035       ??$tcscpy_s@PADABIAAPAD@?$__crt_char_traits@D@@SAH$$QAPADABIAAPAD@Z 10057035 f i libucrtd:environment_initialization.obj
 0001:0005605a       ??$tcscpy_s@PA_WABIAAPA_W@?$__crt_char_traits@_W@@SAH$$QAPA_WABIAAPA_W@Z 1005705a f i libucrtd:environment_initialization.obj
 0001:0005607f       ??$tcslen@AAPAD@?$__crt_char_traits@D@@SAIAAPAD@Z 1005707f f i libucrtd:environment_initialization.obj
 0001:0005609d       ??$tcslen@AAPA_W@?$__crt_char_traits@_W@@SAIAAPA_W@Z 1005709d f i libucrtd:environment_initialization.obj
 0001:000560c2       ??$uninitialize@A6AXAAPAPAD@Z@?$dual_state_global@PAPAD@__crt_state_management@@QAEXA6AXAAPAPAD@Z@Z 100570c2 f i libucrtd:environment_initialization.obj
 0001:00056112       ??$uninitialize@A6AXAAPAPA_W@Z@?$dual_state_global@PAPA_W@__crt_state_management@@QAEXA6AXAAPAPA_W@Z@Z 10057112 f i libucrtd:environment_initialization.obj
 0001:000561a4       ??0?$__crt_unique_heap_ptr@_WU__crt_internal_free_policy@@@@QAE@QA_W@Z 100571a4 f i libucrtd:environment_initialization.obj
 0001:000561b8       ??1?$__crt_unique_heap_ptr@_WU__crt_internal_free_policy@@@@QAE@XZ 100571b8 f i libucrtd:environment_initialization.obj
 0001:000561d2       ??B?$__crt_unique_heap_ptr@PADU__crt_internal_free_policy@@@@QBE_NXZ 100571d2 f i libucrtd:environment_initialization.obj
 0001:000561dc       ??B?$__crt_unique_heap_ptr@PA_WU__crt_internal_free_policy@@@@QBE_NXZ 100571dc f i libucrtd:environment_initialization.obj
 0001:000561e6       ??B?$__crt_unique_heap_ptr@_WU__crt_internal_free_policy@@@@QBE_NXZ 100571e6 f i libucrtd:environment_initialization.obj
 0001:000561f0       ?__crt_compute_required_transform_buffer_count@@YAIIQBD@Z 100571f0 f i libucrtd:environment_initialization.obj
 0001:00056210       ?__crt_compute_required_transform_buffer_count@@YAIIQB_W@Z 10057210 f i libucrtd:environment_initialization.obj
 0001:00056233       ?__crt_transform_string@@YAIIQBDQA_WI@Z 10057233 f i libucrtd:environment_initialization.obj
 0001:00056257       ?__crt_transform_string@@YAIIQB_WQADI@Z 10057257 f i libucrtd:environment_initialization.obj
 0001:0005627f       ?detach@?$__crt_unique_heap_ptr@DU__crt_internal_free_policy@@@@QAEPADXZ 1005727f f i libucrtd:environment_initialization.obj
 0001:00056285       ?detach@?$__crt_unique_heap_ptr@_WU__crt_internal_free_policy@@@@QAEPA_WXZ 10057285 f i libucrtd:environment_initialization.obj
 0001:0005628b       ?get@?$__crt_unique_heap_ptr@_WU__crt_internal_free_policy@@@@QBEPA_WXZ 1005728b f i libucrtd:environment_initialization.obj
 0001:0005628e       ?get_current_state_index@__crt_state_management@@YAIXZ 1005728e f i libucrtd:environment_initialization.obj
 0001:000562b5       ?initialize@?$dual_state_global@PAPAD@__crt_state_management@@QAEXQAPAD@Z 100572b5 f i libucrtd:environment_initialization.obj
 0001:000562f2       ?initialize@?$dual_state_global@PAPA_W@__crt_state_management@@QAEXQAPA_W@Z 100572f2 f i libucrtd:environment_initialization.obj
 0001:0005632f       ?is_valid@?$__crt_unique_heap_ptr@PADU__crt_internal_free_policy@@@@QBE_NXZ 1005732f f i libucrtd:environment_initialization.obj
 0001:00056339       ?is_valid@?$__crt_unique_heap_ptr@PA_WU__crt_internal_free_policy@@@@QBE_NXZ 10057339 f i libucrtd:environment_initialization.obj
 0001:00056343       ?is_valid@?$__crt_unique_heap_ptr@_WU__crt_internal_free_policy@@@@QBE_NXZ 10057343 f i libucrtd:environment_initialization.obj
 0001:00056353       ?release@?$__crt_unique_heap_ptr@_WU__crt_internal_free_policy@@@@QAEXXZ 10057353 f i libucrtd:environment_initialization.obj
 0001:0005636d       ?value@?$dual_state_global@PAPAD@__crt_state_management@@QAEAAPAPADXZ 1005736d f i libucrtd:environment_initialization.obj
 0001:00056370       ?value@?$dual_state_global@PAPA_W@__crt_state_management@@QAEAAPAPA_WXZ 10057370 f i libucrtd:environment_initialization.obj
 0001:00056373       ___dcrt_get_or_create_narrow_environment_nolock 10057373 f   libucrtd:environment_initialization.obj
 0001:00056378       ___dcrt_get_or_create_wide_environment_nolock 10057378 f   libucrtd:environment_initialization.obj
 0001:0005637d       ___dcrt_uninitialize_environments_nolock 1005737d f   libucrtd:environment_initialization.obj
 0001:000563c1       ___p__environ              100573c1 f   libucrtd:environment_initialization.obj
 0001:000563c7       ___p__wenviron             100573c7 f   libucrtd:environment_initialization.obj
 0001:000563cd       __get_initial_narrow_environment 100573cd f   libucrtd:environment_initialization.obj
 0001:000563e6       __get_initial_wide_environment 100573e6 f   libucrtd:environment_initialization.obj
 0001:000563ff       __initialize_narrow_environment 100573ff f   libucrtd:environment_initialization.obj
 0001:00056404       __initialize_wide_environment 10057404 f   libucrtd:environment_initialization.obj
 0001:00056410       ??$?BP6AXXZ@__crt_fast_encoded_nullptr_t@@QBEPAP6AXXZXZ 10057410 f i libucrtd:onexit.obj
 0001:00056430       ??$?RP6AXXZ@__crt_internal_free_policy@@QBEXQBQ6AXXZ@Z 10057430 f i libucrtd:onexit.obj
 0001:00056460       ??$?RV<lambda_821a00fc0e15a7fd532972332124005d>@@AAV<lambda_942beefa13ab35ff55f86422493ffd6a>@@V<lambda_3ab53bf64df1f1ff33dbc5b1929ce7a7>@@@?$__crt_seh_guarded_call@H@@QAEH$$QAV<lambda_821a00fc0e15a7fd532972332124005d>@@AAV<lambda_942beefa13ab35ff55f86422493ffd6a>@@$$QAV<lambda_3ab53bf64df1f1ff33dbc5b1929ce7a7>@@@Z 10057460 f i libucrtd:onexit.obj
 0001:00056510       ??$?RV<lambda_a12890e7f9ac9927a62bd0bbd5044c78>@@AAV<lambda_e971338317bfa523bb8920b43d823727>@@V<lambda_e618b16d59e79e236350cab8485990d2>@@@?$__crt_seh_guarded_call@H@@QAEH$$QAV<lambda_a12890e7f9ac9927a62bd0bbd5044c78>@@AAV<lambda_e971338317bfa523bb8920b43d823727>@@$$QAV<lambda_e618b16d59e79e236350cab8485990d2>@@@Z 10057510 f i libucrtd:onexit.obj
 0001:000565c0       ??$__acrt_lock_and_call@V<lambda_942beefa13ab35ff55f86422493ffd6a>@@@@YAHW4__acrt_lock_id@@$$QAV<lambda_942beefa13ab35ff55f86422493ffd6a>@@@Z 100575c0 f i libucrtd:onexit.obj
 0001:00056610       ??$__acrt_lock_and_call@V<lambda_e971338317bfa523bb8920b43d823727>@@@@YAHW4__acrt_lock_id@@$$QAV<lambda_e971338317bfa523bb8920b43d823727>@@@Z 10057610 f i libucrtd:onexit.obj
 0001:00056660       ??$__crt_fast_encode_pointer@P6AHXZ@@YAP6AHXZQ6AHXZ@Z 10057660 f i libucrtd:onexit.obj
 0001:000567b0       ??0?$__crt_unique_heap_ptr@P6AXXZU__crt_internal_free_policy@@@@QAE@QAP6AXXZ@Z 100577b0 f i libucrtd:onexit.obj
 0001:000567d0       ??1?$__crt_unique_heap_ptr@P6AXXZU__crt_internal_free_policy@@@@QAE@XZ 100577d0 f i libucrtd:onexit.obj
 0001:00056d40       ?detach@?$__crt_unique_heap_ptr@P6AXXZU__crt_internal_free_policy@@@@QAEPAP6AXXZXZ 10057d40 f i libucrtd:onexit.obj
 0001:00056d70       ?release@?$__crt_unique_heap_ptr@P6AXXZU__crt_internal_free_policy@@@@QAEXXZ 10057d70 f i libucrtd:onexit.obj
 0001:00056db0       __crt_at_quick_exit        10057db0 f   libucrtd:onexit.obj
 0001:00056dd0       __crt_atexit               10057dd0 f   libucrtd:onexit.obj
 0001:00056df0       __execute_onexit_table     10057df0 f   libucrtd:onexit.obj
 0001:00056e20       __initialize_onexit_table  10057e20 f   libucrtd:onexit.obj
 0001:00056ea0       __register_onexit_function 10057ea0 f   libucrtd:onexit.obj
 0001:00057130       ?initialize@?$dual_state_global@PAU__crt_locale_data@@@__crt_state_management@@QAEXQAU__crt_locale_data@@@Z 10058130 f i libucrtd:initialization.obj
 0001:00057180       ___acrt_initialize         10058180 f   libucrtd:initialization.obj
 0001:000571a0       ___acrt_thread_attach      100581a0 f   libucrtd:initialization.obj
 0001:000571c0       ___acrt_thread_detach      100581c0 f   libucrtd:initialization.obj
 0001:000571e0       ___acrt_uninitialize       100581e0 f   libucrtd:initialization.obj
 0001:00057200       ___acrt_uninitialize_critical 10058200 f   libucrtd:initialization.obj
 0001:00057260       __get_terminate            10058260 f   libucrtd:terminate.obj
 0001:00057280       _set_terminate             10058280 f   libucrtd:terminate.obj
 0001:000572c0       _terminate                 100582c0 f   libucrtd:terminate.obj
 0001:00057390       ??$?0ABV?$stream_output_adapter@D@__crt_stdio_output@@AB_KABQBDABQAU__crt_locale_pointers@@ABQAD@?$format_validation_base@DV?$stream_output_adapter@D@__crt_stdio_output@@@__crt_stdio_output@@IAE@ABV?$stream_output_adapter@D@1@AB_KABQBDABQAU__crt_locale_pointers@@ABQAD@Z 10058390 f i libucrtd:output.obj
 0001:000573d0       ??$?0ABV?$stream_output_adapter@D@__crt_stdio_output@@AB_KABQBDABQAU__crt_locale_pointers@@ABQAD@?$positional_parameter_base@DV?$stream_output_adapter@D@__crt_stdio_output@@@__crt_stdio_output@@IAE@ABV?$stream_output_adapter@D@1@AB_KABQBDABQAU__crt_locale_pointers@@ABQAD@Z 100583d0 f i libucrtd:output.obj
 0001:00057460       ??$?0ABV?$stream_output_adapter@D@__crt_stdio_output@@AB_KABQBDABQAU__crt_locale_pointers@@ABQAD@?$standard_base@DV?$stream_output_adapter@D@__crt_stdio_output@@@__crt_stdio_output@@IAE@ABV?$stream_output_adapter@D@1@AB_KABQBDABQAU__crt_locale_pointers@@ABQAD@Z 10058460 f i libucrtd:output.obj
 0001:000574c0       ??$?0ABV?$stream_output_adapter@_W@__crt_stdio_output@@AB_KABQB_WABQAU__crt_locale_pointers@@ABQAD@?$format_validation_base@_WV?$stream_output_adapter@_W@__crt_stdio_output@@@__crt_stdio_output@@IAE@ABV?$stream_output_adapter@_W@1@AB_KABQB_WABQAU__crt_locale_pointers@@ABQAD@Z 100584c0 f i libucrtd:output.obj
 0001:00057500       ??$?0ABV?$stream_output_adapter@_W@__crt_stdio_output@@AB_KABQB_WABQAU__crt_locale_pointers@@ABQAD@?$positional_parameter_base@_WV?$stream_output_adapter@_W@__crt_stdio_output@@@__crt_stdio_output@@IAE@ABV?$stream_output_adapter@_W@1@AB_KABQB_WABQAU__crt_locale_pointers@@ABQAD@Z 10058500 f i libucrtd:output.obj
 0001:00057590       ??$?0ABV?$stream_output_adapter@_W@__crt_stdio_output@@AB_KABQB_WABQAU__crt_locale_pointers@@ABQAD@?$standard_base@_WV?$stream_output_adapter@_W@__crt_stdio_output@@@__crt_stdio_output@@IAE@ABV?$stream_output_adapter@_W@1@AB_KABQB_WABQAU__crt_locale_pointers@@ABQAD@Z 10058590 f i libucrtd:output.obj
 0001:000575f0       ??$?0ABV?$string_output_adapter@D@__crt_stdio_output@@AB_KABQBDABQAU__crt_locale_pointers@@ABQAD@?$format_validation_base@DV?$string_output_adapter@D@__crt_stdio_output@@@__crt_stdio_output@@IAE@ABV?$string_output_adapter@D@1@AB_KABQBDABQAU__crt_locale_pointers@@ABQAD@Z 100585f0 f i libucrtd:output.obj
 0001:00057630       ??$?0ABV?$string_output_adapter@D@__crt_stdio_output@@AB_KABQBDABQAU__crt_locale_pointers@@ABQAD@?$positional_parameter_base@DV?$string_output_adapter@D@__crt_stdio_output@@@__crt_stdio_output@@IAE@ABV?$string_output_adapter@D@1@AB_KABQBDABQAU__crt_locale_pointers@@ABQAD@Z 10058630 f i libucrtd:output.obj
 0001:000576c0       ??$?0ABV?$string_output_adapter@D@__crt_stdio_output@@AB_KABQBDABQAU__crt_locale_pointers@@ABQAD@?$standard_base@DV?$string_output_adapter@D@__crt_stdio_output@@@__crt_stdio_output@@IAE@ABV?$string_output_adapter@D@1@AB_KABQBDABQAU__crt_locale_pointers@@ABQAD@Z 100586c0 f i libucrtd:output.obj
 0001:00057720       ??$?0ABV?$string_output_adapter@_W@__crt_stdio_output@@AB_KABQB_WABQAU__crt_locale_pointers@@ABQAD@?$format_validation_base@_WV?$string_output_adapter@_W@__crt_stdio_output@@@__crt_stdio_output@@IAE@ABV?$string_output_adapter@_W@1@AB_KABQB_WABQAU__crt_locale_pointers@@ABQAD@Z 10058720 f i libucrtd:output.obj
 0001:00057760       ??$?0ABV?$string_output_adapter@_W@__crt_stdio_output@@AB_KABQB_WABQAU__crt_locale_pointers@@ABQAD@?$positional_parameter_base@_WV?$string_output_adapter@_W@__crt_stdio_output@@@__crt_stdio_output@@IAE@ABV?$string_output_adapter@_W@1@AB_KABQB_WABQAU__crt_locale_pointers@@ABQAD@Z 10058760 f i libucrtd:output.obj
 0001:000577f0       ??$?0ABV?$string_output_adapter@_W@__crt_stdio_output@@AB_KABQB_WABQAU__crt_locale_pointers@@ABQAD@?$standard_base@_WV?$string_output_adapter@_W@__crt_stdio_output@@@__crt_stdio_output@@IAE@ABV?$string_output_adapter@_W@1@AB_KABQB_WABQAU__crt_locale_pointers@@ABQAD@Z 100587f0 f i libucrtd:output.obj
 0001:00057850       ??$?RV<lambda_2293f24e3ce1ad6fe22ccfb9dec07671>@@AAV<lambda_2565fc715a641e539f44ad02d6823606>@@V<lambda_d3217f279b832965d9ca670dc2993570>@@@?$__crt_seh_guarded_call@H@@QAEH$$QAV<lambda_2293f24e3ce1ad6fe22ccfb9dec07671>@@AAV<lambda_2565fc715a641e539f44ad02d6823606>@@$$QAV<lambda_d3217f279b832965d9ca670dc2993570>@@@Z 10058850 f i libucrtd:output.obj
 0001:00057900       ??$?RV<lambda_4d4ac866be0fa3c441830420fabdd2cb>@@AAV<lambda_63a10c2dc8dbb9e4dd1890be52af7c93>@@V<lambda_002af9fa0f8fe472b648c51882d4fc32>@@@?$__crt_seh_guarded_call@H@@QAEH$$QAV<lambda_4d4ac866be0fa3c441830420fabdd2cb>@@AAV<lambda_63a10c2dc8dbb9e4dd1890be52af7c93>@@$$QAV<lambda_002af9fa0f8fe472b648c51882d4fc32>@@@Z 10058900 f i libucrtd:output.obj
 0001:000579b0       ??$?RV<lambda_5be909dfbae0a631386585770cd7b676>@@AAV<lambda_e516058a9c289d98c8ca9fea99247804>@@V<lambda_afe2e0cdc5e0ecf6f0d6f5e2f8985e38>@@@?$__crt_seh_guarded_call@H@@QAEH$$QAV<lambda_5be909dfbae0a631386585770cd7b676>@@AAV<lambda_e516058a9c289d98c8ca9fea99247804>@@$$QAV<lambda_afe2e0cdc5e0ecf6f0d6f5e2f8985e38>@@@Z 100589b0 f i libucrtd:output.obj
 0001:00057a60       ??$?RV<lambda_823d65812123d985753d53e2a8c25d20>@@AAV<lambda_0a97c9e57da7be065955385c79108ff2>@@V<lambda_4d2973f3ad2d226f00468307185dca1b>@@@?$__crt_seh_guarded_call@H@@QAEH$$QAV<lambda_823d65812123d985753d53e2a8c25d20>@@AAV<lambda_0a97c9e57da7be065955385c79108ff2>@@$$QAV<lambda_4d2973f3ad2d226f00468307185dca1b>@@@Z 10058a60 f i libucrtd:output.obj
 0001:00057b10       ??$?RV<lambda_ab9923ffb5d694ec0d78876dd103e44f>@@AAV<lambda_481dd5778c961fbcd3b60b650e9b9dc4>@@V<lambda_7923d86c9e3f319b415918ec4b39749c>@@@?$__crt_seh_guarded_call@H@@QAEH$$QAV<lambda_ab9923ffb5d694ec0d78876dd103e44f>@@AAV<lambda_481dd5778c961fbcd3b60b650e9b9dc4>@@$$QAV<lambda_7923d86c9e3f319b415918ec4b39749c>@@@Z 10058b10 f i libucrtd:output.obj
 0001:00057bc0       ??$?RV<lambda_db08b09ef7aa9d4f8620ce68402612bc>@@AAV<lambda_4f2c1eaeead2a5fc776db5b62ea0fb9b>@@V<lambda_3ae262bc35d4ba6a3825c4f6bcaaf95c>@@@?$__crt_seh_guarded_call@H@@QAEH$$QAV<lambda_db08b09ef7aa9d4f8620ce68402612bc>@@AAV<lambda_4f2c1eaeead2a5fc776db5b62ea0fb9b>@@$$QAV<lambda_3ae262bc35d4ba6a3825c4f6bcaaf95c>@@@Z 10058bc0 f i libucrtd:output.obj
 0001:00057c70       ??$__acrt_lock_stream_and_call@V<lambda_0a97c9e57da7be065955385c79108ff2>@@@@YAHQAU_iobuf@@$$QAV<lambda_0a97c9e57da7be065955385c79108ff2>@@@Z 10058c70 f i libucrtd:output.obj
 0001:00057cc0       ??$__acrt_lock_stream_and_call@V<lambda_2565fc715a641e539f44ad02d6823606>@@@@YAHQAU_iobuf@@$$QAV<lambda_2565fc715a641e539f44ad02d6823606>@@@Z 10058cc0 f i libucrtd:output.obj
 0001:00057d10       ??$__acrt_lock_stream_and_call@V<lambda_481dd5778c961fbcd3b60b650e9b9dc4>@@@@YAHQAU_iobuf@@$$QAV<lambda_481dd5778c961fbcd3b60b650e9b9dc4>@@@Z 10058d10 f i libucrtd:output.obj
 0001:00057d60       ??$__acrt_lock_stream_and_call@V<lambda_4f2c1eaeead2a5fc776db5b62ea0fb9b>@@@@YAHQAU_iobuf@@$$QAV<lambda_4f2c1eaeead2a5fc776db5b62ea0fb9b>@@@Z 10058d60 f i libucrtd:output.obj
 0001:00057db0       ??$__acrt_lock_stream_and_call@V<lambda_63a10c2dc8dbb9e4dd1890be52af7c93>@@@@YAHQAU_iobuf@@$$QAV<lambda_63a10c2dc8dbb9e4dd1890be52af7c93>@@@Z 10058db0 f i libucrtd:output.obj
 0001:00057e00       ??$__acrt_lock_stream_and_call@V<lambda_e516058a9c289d98c8ca9fea99247804>@@@@YAHQAU_iobuf@@$$QAV<lambda_e516058a9c289d98c8ca9fea99247804>@@@Z 10058e00 f i libucrtd:output.obj
 0001:0005b6d0       ??$count@D@formatting_buffer@__crt_stdio_output@@QBEIXZ 1005c6d0 f i libucrtd:output.obj
 0001:0005b720       ??$data@D@formatting_buffer@__crt_stdio_output@@QAEPADXZ 1005c720 f i libucrtd:output.obj
 0001:0005b770       ??$data@_W@formatting_buffer@__crt_stdio_output@@QAEPA_WXZ 1005c770 f i libucrtd:output.obj
 0001:0005b7c0       ??$ensure_buffer_is_big_enough@D@formatting_buffer@__crt_stdio_output@@QAE_NI@Z 1005c7c0 f i libucrtd:output.obj
 0001:0005b8e0       ??$extract_argument_from_va_list@C_J@?$positional_parameter_base@DV?$stream_output_adapter@D@__crt_stdio_output@@@__crt_stdio_output@@IAE_NAA_J@Z 1005c8e0 f i libucrtd:output.obj
 0001:0005ba60       ??$extract_argument_from_va_list@C_J@?$positional_parameter_base@DV?$string_output_adapter@D@__crt_stdio_output@@@__crt_stdio_output@@IAE_NAA_J@Z 1005ca60 f i libucrtd:output.obj
 0001:0005bbe0       ??$extract_argument_from_va_list@C_J@?$positional_parameter_base@_WV?$stream_output_adapter@_W@__crt_stdio_output@@@__crt_stdio_output@@IAE_NAA_J@Z 1005cbe0 f i libucrtd:output.obj
 0001:0005bd60       ??$extract_argument_from_va_list@C_J@?$positional_parameter_base@_WV?$string_output_adapter@_W@__crt_stdio_output@@@__crt_stdio_output@@IAE_NAA_J@Z 1005cd60 f i libucrtd:output.obj
 0001:0005bee0       ??$extract_argument_from_va_list@C_J@?$standard_base@DV?$stream_output_adapter@D@__crt_stdio_output@@@__crt_stdio_output@@IAE_NAA_J@Z 1005cee0 f i libucrtd:output.obj
 0001:0005bf20       ??$extract_argument_from_va_list@C_J@?$standard_base@DV?$string_output_adapter@D@__crt_stdio_output@@@__crt_stdio_output@@IAE_NAA_J@Z 1005cf20 f i libucrtd:output.obj
 0001:0005bf60       ??$extract_argument_from_va_list@C_J@?$standard_base@_WV?$stream_output_adapter@_W@__crt_stdio_output@@@__crt_stdio_output@@IAE_NAA_J@Z 1005cf60 f i libucrtd:output.obj
 0001:0005bfa0       ??$extract_argument_from_va_list@C_J@?$standard_base@_WV?$string_output_adapter@_W@__crt_stdio_output@@@__crt_stdio_output@@IAE_NAA_J@Z 1005cfa0 f i libucrtd:output.obj
 0001:0005bfe0       ??$extract_argument_from_va_list@E_J@?$positional_parameter_base@DV?$stream_output_adapter@D@__crt_stdio_output@@@__crt_stdio_output@@IAE_NAA_J@Z 1005cfe0 f i libucrtd:output.obj
 0001:0005c160       ??$extract_argument_from_va_list@E_J@?$positional_parameter_base@DV?$string_output_adapter@D@__crt_stdio_output@@@__crt_stdio_output@@IAE_NAA_J@Z 1005d160 f i libucrtd:output.obj
 0001:0005c2e0       ??$extract_argument_from_va_list@E_J@?$positional_parameter_base@_WV?$stream_output_adapter@_W@__crt_stdio_output@@@__crt_stdio_output@@IAE_NAA_J@Z 1005d2e0 f i libucrtd:output.obj
 0001:0005c460       ??$extract_argument_from_va_list@E_J@?$positional_parameter_base@_WV?$string_output_adapter@_W@__crt_stdio_output@@@__crt_stdio_output@@IAE_NAA_J@Z 1005d460 f i libucrtd:output.obj
 0001:0005c5e0       ??$extract_argument_from_va_list@E_J@?$standard_base@DV?$stream_output_adapter@D@__crt_stdio_output@@@__crt_stdio_output@@IAE_NAA_J@Z 1005d5e0 f i libucrtd:output.obj
 0001:0005c620       ??$extract_argument_from_va_list@E_J@?$standard_base@DV?$string_output_adapter@D@__crt_stdio_output@@@__crt_stdio_output@@IAE_NAA_J@Z 1005d620 f i libucrtd:output.obj
 0001:0005c660       ??$extract_argument_from_va_list@E_J@?$standard_base@_WV?$stream_output_adapter@_W@__crt_stdio_output@@@__crt_stdio_output@@IAE_NAA_J@Z 1005d660 f i libucrtd:output.obj
 0001:0005c6a0       ??$extract_argument_from_va_list@E_J@?$standard_base@_WV?$string_output_adapter@_W@__crt_stdio_output@@@__crt_stdio_output@@IAE_NAA_J@Z 1005d6a0 f i libucrtd:output.obj
 0001:0005c6e0       ??$extract_argument_from_va_list@F_J@?$positional_parameter_base@DV?$stream_output_adapter@D@__crt_stdio_output@@@__crt_stdio_output@@IAE_NAA_J@Z 1005d6e0 f i libucrtd:output.obj
 0001:0005c860       ??$extract_argument_from_va_list@F_J@?$positional_parameter_base@DV?$string_output_adapter@D@__crt_stdio_output@@@__crt_stdio_output@@IAE_NAA_J@Z 1005d860 f i libucrtd:output.obj
 0001:0005c9e0       ??$extract_argument_from_va_list@F_J@?$positional_parameter_base@_WV?$stream_output_adapter@_W@__crt_stdio_output@@@__crt_stdio_output@@IAE_NAA_J@Z 1005d9e0 f i libucrtd:output.obj
 0001:0005cb60       ??$extract_argument_from_va_list@F_J@?$positional_parameter_base@_WV?$string_output_adapter@_W@__crt_stdio_output@@@__crt_stdio_output@@IAE_NAA_J@Z 1005db60 f i libucrtd:output.obj
 0001:0005cce0       ??$extract_argument_from_va_list@F_J@?$standard_base@DV?$stream_output_adapter@D@__crt_stdio_output@@@__crt_stdio_output@@IAE_NAA_J@Z 1005dce0 f i libucrtd:output.obj
 0001:0005cd20       ??$extract_argument_from_va_list@F_J@?$standard_base@DV?$string_output_adapter@D@__crt_stdio_output@@@__crt_stdio_output@@IAE_NAA_J@Z 1005dd20 f i libucrtd:output.obj
 0001:0005cd60       ??$extract_argument_from_va_list@F_J@?$standard_base@_WV?$stream_output_adapter@_W@__crt_stdio_output@@@__crt_stdio_output@@IAE_NAA_J@Z 1005dd60 f i libucrtd:output.obj
 0001:0005cda0       ??$extract_argument_from_va_list@F_J@?$standard_base@_WV?$string_output_adapter@_W@__crt_stdio_output@@@__crt_stdio_output@@IAE_NAA_J@Z 1005dda0 f i libucrtd:output.obj
 0001:0005cde0       ??$extract_argument_from_va_list@GD@?$positional_parameter_base@DV?$stream_output_adapter@D@__crt_stdio_output@@@__crt_stdio_output@@IAE_NAAD@Z 1005dde0 f i libucrtd:output.obj
 0001:0005cf60       ??$extract_argument_from_va_list@GD@?$positional_parameter_base@DV?$string_output_adapter@D@__crt_stdio_output@@@__crt_stdio_output@@IAE_NAAD@Z 1005df60 f i libucrtd:output.obj
 0001:0005d0e0       ??$extract_argument_from_va_list@GD@?$standard_base@DV?$stream_output_adapter@D@__crt_stdio_output@@@__crt_stdio_output@@IAE_NAAD@Z 1005e0e0 f i libucrtd:output.obj
 0001:0005d110       ??$extract_argument_from_va_list@GD@?$standard_base@DV?$string_output_adapter@D@__crt_stdio_output@@@__crt_stdio_output@@IAE_NAAD@Z 1005e110 f i libucrtd:output.obj
 0001:0005d140       ??$extract_argument_from_va_list@G_J@?$positional_parameter_base@DV?$stream_output_adapter@D@__crt_stdio_output@@@__crt_stdio_output@@IAE_NAA_J@Z 1005e140 f i libucrtd:output.obj
 0001:0005d2c0       ??$extract_argument_from_va_list@G_J@?$positional_parameter_base@DV?$string_output_adapter@D@__crt_stdio_output@@@__crt_stdio_output@@IAE_NAA_J@Z 1005e2c0 f i libucrtd:output.obj
 0001:0005d440       ??$extract_argument_from_va_list@G_J@?$positional_parameter_base@_WV?$stream_output_adapter@_W@__crt_stdio_output@@@__crt_stdio_output@@IAE_NAA_J@Z 1005e440 f i libucrtd:output.obj
 0001:0005d5c0       ??$extract_argument_from_va_list@G_J@?$positional_parameter_base@_WV?$string_output_adapter@_W@__crt_stdio_output@@@__crt_stdio_output@@IAE_NAA_J@Z 1005e5c0 f i libucrtd:output.obj
 0001:0005d740       ??$extract_argument_from_va_list@G_J@?$standard_base@DV?$stream_output_adapter@D@__crt_stdio_output@@@__crt_stdio_output@@IAE_NAA_J@Z 1005e740 f i libucrtd:output.obj
 0001:0005d780       ??$extract_argument_from_va_list@G_J@?$standard_base@DV?$string_output_adapter@D@__crt_stdio_output@@@__crt_stdio_output@@IAE_NAA_J@Z 1005e780 f i libucrtd:output.obj
 0001:0005d7c0       ??$extract_argument_from_va_list@G_J@?$standard_base@_WV?$stream_output_adapter@_W@__crt_stdio_output@@@__crt_stdio_output@@IAE_NAA_J@Z 1005e7c0 f i libucrtd:output.obj
 0001:0005d800       ??$extract_argument_from_va_list@G_J@?$standard_base@_WV?$string_output_adapter@_W@__crt_stdio_output@@@__crt_stdio_output@@IAE_NAA_J@Z 1005e800 f i libucrtd:output.obj
 0001:0005d840       ??$extract_argument_from_va_list@H_J@?$positional_parameter_base@DV?$stream_output_adapter@D@__crt_stdio_output@@@__crt_stdio_output@@IAE_NAA_J@Z 1005e840 f i libucrtd:output.obj
 0001:0005d9c0       ??$extract_argument_from_va_list@H_J@?$positional_parameter_base@DV?$string_output_adapter@D@__crt_stdio_output@@@__crt_stdio_output@@IAE_NAA_J@Z 1005e9c0 f i libucrtd:output.obj
 0001:0005db40       ??$extract_argument_from_va_list@H_J@?$positional_parameter_base@_WV?$stream_output_adapter@_W@__crt_stdio_output@@@__crt_stdio_output@@IAE_NAA_J@Z 1005eb40 f i libucrtd:output.obj
 0001:0005dcc0       ??$extract_argument_from_va_list@H_J@?$positional_parameter_base@_WV?$string_output_adapter@_W@__crt_stdio_output@@@__crt_stdio_output@@IAE_NAA_J@Z 1005ecc0 f i libucrtd:output.obj
 0001:0005de40       ??$extract_argument_from_va_list@H_J@?$standard_base@DV?$stream_output_adapter@D@__crt_stdio_output@@@__crt_stdio_output@@IAE_NAA_J@Z 1005ee40 f i libucrtd:output.obj
 0001:0005de80       ??$extract_argument_from_va_list@H_J@?$standard_base@DV?$string_output_adapter@D@__crt_stdio_output@@@__crt_stdio_output@@IAE_NAA_J@Z 1005ee80 f i libucrtd:output.obj
 0001:0005dec0       ??$extract_argument_from_va_list@H_J@?$standard_base@_WV?$stream_output_adapter@_W@__crt_stdio_output@@@__crt_stdio_output@@IAE_NAA_J@Z 1005eec0 f i libucrtd:output.obj
 0001:0005df00       ??$extract_argument_from_va_list@H_J@?$standard_base@_WV?$string_output_adapter@_W@__crt_stdio_output@@@__crt_stdio_output@@IAE_NAA_J@Z 1005ef00 f i libucrtd:output.obj
 0001:0005df40       ??$extract_argument_from_va_list@I_J@?$positional_parameter_base@DV?$stream_output_adapter@D@__crt_stdio_output@@@__crt_stdio_output@@IAE_NAA_J@Z 1005ef40 f i libucrtd:output.obj
 0001:0005e0c0       ??$extract_argument_from_va_list@I_J@?$positional_parameter_base@DV?$string_output_adapter@D@__crt_stdio_output@@@__crt_stdio_output@@IAE_NAA_J@Z 1005f0c0 f i libucrtd:output.obj
 0001:0005e240       ??$extract_argument_from_va_list@I_J@?$positional_parameter_base@_WV?$stream_output_adapter@_W@__crt_stdio_output@@@__crt_stdio_output@@IAE_NAA_J@Z 1005f240 f i libucrtd:output.obj
 0001:0005e3c0       ??$extract_argument_from_va_list@I_J@?$positional_parameter_base@_WV?$string_output_adapter@_W@__crt_stdio_output@@@__crt_stdio_output@@IAE_NAA_J@Z 1005f3c0 f i libucrtd:output.obj
 0001:0005e540       ??$extract_argument_from_va_list@I_J@?$standard_base@DV?$stream_output_adapter@D@__crt_stdio_output@@@__crt_stdio_output@@IAE_NAA_J@Z 1005f540 f i libucrtd:output.obj
 0001:0005e580       ??$extract_argument_from_va_list@I_J@?$standard_base@DV?$string_output_adapter@D@__crt_stdio_output@@@__crt_stdio_output@@IAE_NAA_J@Z 1005f580 f i libucrtd:output.obj
 0001:0005e5c0       ??$extract_argument_from_va_list@I_J@?$standard_base@_WV?$stream_output_adapter@_W@__crt_stdio_output@@@__crt_stdio_output@@IAE_NAA_J@Z 1005f5c0 f i libucrtd:output.obj
 0001:0005e600       ??$extract_argument_from_va_list@I_J@?$standard_base@_WV?$string_output_adapter@_W@__crt_stdio_output@@@__crt_stdio_output@@IAE_NAA_J@Z 1005f600 f i libucrtd:output.obj
 0001:0005e640       ??$extract_argument_from_va_list@PADPAD@?$positional_parameter_base@DV?$stream_output_adapter@D@__crt_stdio_output@@@__crt_stdio_output@@IAE_NAAPAD@Z 1005f640 f i libucrtd:output.obj
 0001:0005e7c0       ??$extract_argument_from_va_list@PADPAD@?$positional_parameter_base@DV?$string_output_adapter@D@__crt_stdio_output@@@__crt_stdio_output@@IAE_NAAPAD@Z 1005f7c0 f i libucrtd:output.obj
 0001:0005e940       ??$extract_argument_from_va_list@PADPAD@?$positional_parameter_base@_WV?$stream_output_adapter@_W@__crt_stdio_output@@@__crt_stdio_output@@IAE_NAAPAD@Z 1005f940 f i libucrtd:output.obj
 0001:0005eac0       ??$extract_argument_from_va_list@PADPAD@?$positional_parameter_base@_WV?$string_output_adapter@_W@__crt_stdio_output@@@__crt_stdio_output@@IAE_NAAPAD@Z 1005fac0 f i libucrtd:output.obj
 0001:0005ec40       ??$extract_argument_from_va_list@PADPAD@?$standard_base@DV?$stream_output_adapter@D@__crt_stdio_output@@@__crt_stdio_output@@IAE_NAAPAD@Z 1005fc40 f i libucrtd:output.obj
 0001:0005ec70       ??$extract_argument_from_va_list@PADPAD@?$standard_base@DV?$string_output_adapter@D@__crt_stdio_output@@@__crt_stdio_output@@IAE_NAAPAD@Z 1005fc70 f i libucrtd:output.obj
 0001:0005eca0       ??$extract_argument_from_va_list@PADPAD@?$standard_base@_WV?$stream_output_adapter@_W@__crt_stdio_output@@@__crt_stdio_output@@IAE_NAAPAD@Z 1005fca0 f i libucrtd:output.obj
 0001:0005ecd0       ??$extract_argument_from_va_list@PADPAD@?$standard_base@_WV?$string_output_adapter@_W@__crt_stdio_output@@@__crt_stdio_output@@IAE_NAAPAD@Z 1005fcd0 f i libucrtd:output.obj
 0001:0005ed00       ??$extract_argument_from_va_list@PAUansi_string@?1??type_case_Z@?$output_processor@DV?$stream_output_adapter@D@__crt_stdio_output@@V?$format_validation_base@DV?$stream_output_adapter@D@__crt_stdio_output@@@2@@__crt_stdio_output@@AAE_NXZ@PAU1?1??234@AAE_NXZ@@?$standard_base@DV?$stream_output_adapter@D@__crt_stdio_output@@@__crt_stdio_output@@IAE_NAAPAUansi_string@?1??type_case_Z@?$output_processor@DV?$stream_output_adapter@D@__crt_stdio_output@@V?$format_validation_base@DV?$stream_output_adapter@D@__crt_stdio_output@@@2@@1@AAE_NXZ@@Z 1005fd00 f i libucrtd:output.obj
 0001:0005ed30       ??$extract_argument_from_va_list@PAUansi_string@?1??type_case_Z@?$output_processor@DV?$stream_output_adapter@D@__crt_stdio_output@@V?$positional_parameter_base@DV?$stream_output_adapter@D@__crt_stdio_output@@@2@@__crt_stdio_output@@AAE_NXZ@PAU1?1??234@AAE_NXZ@@?$positional_parameter_base@DV?$stream_output_adapter@D@__crt_stdio_output@@@__crt_stdio_output@@IAE_NAAPAUansi_string@?1??type_case_Z@?$output_processor@DV?$stream_output_adapter@D@__crt_stdio_output@@V?$positional_parameter_base@DV?$stream_output_adapter@D@__crt_stdio_output@@@2@@1@AAE_NXZ@@Z 1005fd30 f i libucrtd:output.obj
 0001:0005eeb0       ??$extract_argument_from_va_list@PAUansi_string@?1??type_case_Z@?$output_processor@DV?$stream_output_adapter@D@__crt_stdio_output@@V?$positional_parameter_base@DV?$stream_output_adapter@D@__crt_stdio_output@@@2@@__crt_stdio_output@@AAE_NXZ@PAU1?1??234@AAE_NXZ@@?$standard_base@DV?$stream_output_adapter@D@__crt_stdio_output@@@__crt_stdio_output@@IAE_NAAPAUansi_string@?1??type_case_Z@?$output_processor@DV?$stream_output_adapter@D@__crt_stdio_output@@V?$positional_parameter_base@DV?$stream_output_adapter@D@__crt_stdio_output@@@2@@1@AAE_NXZ@@Z 1005feb0 f i libucrtd:output.obj
 0001:0005eee0       ??$extract_argument_from_va_list@PAUansi_string@?1??type_case_Z@?$output_processor@DV?$stream_output_adapter@D@__crt_stdio_output@@V?$standard_base@DV?$stream_output_adapter@D@__crt_stdio_output@@@2@@__crt_stdio_output@@AAE_NXZ@PAU1?1??234@AAE_NXZ@@?$standard_base@DV?$stream_output_adapter@D@__crt_stdio_output@@@__crt_stdio_output@@IAE_NAAPAUansi_string@?1??type_case_Z@?$output_processor@DV?$stream_output_adapter@D@__crt_stdio_output@@V?$standard_base@DV?$stream_output_adapter@D@__crt_stdio_output@@@2@@1@AAE_NXZ@@Z 1005fee0 f i libucrtd:output.obj
 0001:0005ef10       ??$extract_argument_from_va_list@PAUansi_string@?1??type_case_Z@?$output_processor@DV?$string_output_adapter@D@__crt_stdio_output@@V?$format_validation_base@DV?$string_output_adapter@D@__crt_stdio_output@@@2@@__crt_stdio_output@@AAE_NXZ@PAU1?1??234@AAE_NXZ@@?$standard_base@DV?$string_output_adapter@D@__crt_stdio_output@@@__crt_stdio_output@@IAE_NAAPAUansi_string@?1??type_case_Z@?$output_processor@DV?$string_output_adapter@D@__crt_stdio_output@@V?$format_validation_base@DV?$string_output_adapter@D@__crt_stdio_output@@@2@@1@AAE_NXZ@@Z 1005ff10 f i libucrtd:output.obj
 0001:0005ef40       ??$extract_argument_from_va_list@PAUansi_string@?1??type_case_Z@?$output_processor@DV?$string_output_adapter@D@__crt_stdio_output@@V?$positional_parameter_base@DV?$string_output_adapter@D@__crt_stdio_output@@@2@@__crt_stdio_output@@AAE_NXZ@PAU1?1??234@AAE_NXZ@@?$positional_parameter_base@DV?$string_output_adapter@D@__crt_stdio_output@@@__crt_stdio_output@@IAE_NAAPAUansi_string@?1??type_case_Z@?$output_processor@DV?$string_output_adapter@D@__crt_stdio_output@@V?$positional_parameter_base@DV?$string_output_adapter@D@__crt_stdio_output@@@2@@1@AAE_NXZ@@Z 1005ff40 f i libucrtd:output.obj
 0001:0005f0c0       ??$extract_argument_from_va_list@PAUansi_string@?1??type_case_Z@?$output_processor@DV?$string_output_adapter@D@__crt_stdio_output@@V?$positional_parameter_base@DV?$string_output_adapter@D@__crt_stdio_output@@@2@@__crt_stdio_output@@AAE_NXZ@PAU1?1??234@AAE_NXZ@@?$standard_base@DV?$string_output_adapter@D@__crt_stdio_output@@@__crt_stdio_output@@IAE_NAAPAUansi_string@?1??type_case_Z@?$output_processor@DV?$string_output_adapter@D@__crt_stdio_output@@V?$positional_parameter_base@DV?$string_output_adapter@D@__crt_stdio_output@@@2@@1@AAE_NXZ@@Z 100600c0 f i libucrtd:output.obj
 0001:0005f0f0       ??$extract_argument_from_va_list@PAUansi_string@?1??type_case_Z@?$output_processor@DV?$string_output_adapter@D@__crt_stdio_output@@V?$standard_base@DV?$string_output_adapter@D@__crt_stdio_output@@@2@@__crt_stdio_output@@AAE_NXZ@PAU1?1??234@AAE_NXZ@@?$standard_base@DV?$string_output_adapter@D@__crt_stdio_output@@@__crt_stdio_output@@IAE_NAAPAUansi_string@?1??type_case_Z@?$output_processor@DV?$string_output_adapter@D@__crt_stdio_output@@V?$standard_base@DV?$string_output_adapter@D@__crt_stdio_output@@@2@@1@AAE_NXZ@@Z 100600f0 f i libucrtd:output.obj
 0001:0005f120       ??$extract_argument_from_va_list@PAUansi_string@?1??type_case_Z@?$output_processor@_WV?$stream_output_adapter@_W@__crt_stdio_output@@V?$format_validation_base@_WV?$stream_output_adapter@_W@__crt_stdio_output@@@2@@__crt_stdio_output@@AAE_NXZ@PAU1?1??234@AAE_NXZ@@?$standard_base@_WV?$stream_output_adapter@_W@__crt_stdio_output@@@__crt_stdio_output@@IAE_NAAPAUansi_string@?1??type_case_Z@?$output_processor@_WV?$stream_output_adapter@_W@__crt_stdio_output@@V?$format_validation_base@_WV?$stream_output_adapter@_W@__crt_stdio_output@@@2@@1@AAE_NXZ@@Z 10060120 f i libucrtd:output.obj
 0001:0005f150       ??$extract_argument_from_va_list@PAUansi_string@?1??type_case_Z@?$output_processor@_WV?$stream_output_adapter@_W@__crt_stdio_output@@V?$positional_parameter_base@_WV?$stream_output_adapter@_W@__crt_stdio_output@@@2@@__crt_stdio_output@@AAE_NXZ@PAU1?1??234@AAE_NXZ@@?$positional_parameter_base@_WV?$stream_output_adapter@_W@__crt_stdio_output@@@__crt_stdio_output@@IAE_NAAPAUansi_string@?1??type_case_Z@?$output_processor@_WV?$stream_output_adapter@_W@__crt_stdio_output@@V?$positional_parameter_base@_WV?$stream_output_adapter@_W@__crt_stdio_output@@@2@@1@AAE_NXZ@@Z 10060150 f i libucrtd:output.obj
 0001:0005f2d0       ??$extract_argument_from_va_list@PAUansi_string@?1??type_case_Z@?$output_processor@_WV?$stream_output_adapter@_W@__crt_stdio_output@@V?$positional_parameter_base@_WV?$stream_output_adapter@_W@__crt_stdio_output@@@2@@__crt_stdio_output@@AAE_NXZ@PAU1?1??234@AAE_NXZ@@?$standard_base@_WV?$stream_output_adapter@_W@__crt_stdio_output@@@__crt_stdio_output@@IAE_NAAPAUansi_string@?1??type_case_Z@?$output_processor@_WV?$stream_output_adapter@_W@__crt_stdio_output@@V?$positional_parameter_base@_WV?$stream_output_adapter@_W@__crt_stdio_output@@@2@@1@AAE_NXZ@@Z 100602d0 f i libucrtd:output.obj
 0001:0005f300       ??$extract_argument_from_va_list@PAUansi_string@?1??type_case_Z@?$output_processor@_WV?$stream_output_adapter@_W@__crt_stdio_output@@V?$standard_base@_WV?$stream_output_adapter@_W@__crt_stdio_output@@@2@@__crt_stdio_output@@AAE_NXZ@PAU1?1??234@AAE_NXZ@@?$standard_base@_WV?$stream_output_adapter@_W@__crt_stdio_output@@@__crt_stdio_output@@IAE_NAAPAUansi_string@?1??type_case_Z@?$output_processor@_WV?$stream_output_adapter@_W@__crt_stdio_output@@V?$standard_base@_WV?$stream_output_adapter@_W@__crt_stdio_output@@@2@@1@AAE_NXZ@@Z 10060300 f i libucrtd:output.obj
 0001:0005f330       ??$extract_argument_from_va_list@PAUansi_string@?1??type_case_Z@?$output_processor@_WV?$string_output_adapter@_W@__crt_stdio_output@@V?$format_validation_base@_WV?$string_output_adapter@_W@__crt_stdio_output@@@2@@__crt_stdio_output@@AAE_NXZ@PAU1?1??234@AAE_NXZ@@?$standard_base@_WV?$string_output_adapter@_W@__crt_stdio_output@@@__crt_stdio_output@@IAE_NAAPAUansi_string@?1??type_case_Z@?$output_processor@_WV?$string_output_adapter@_W@__crt_stdio_output@@V?$format_validation_base@_WV?$string_output_adapter@_W@__crt_stdio_output@@@2@@1@AAE_NXZ@@Z 10060330 f i libucrtd:output.obj
 0001:0005f360       ??$extract_argument_from_va_list@PAUansi_string@?1??type_case_Z@?$output_processor@_WV?$string_output_adapter@_W@__crt_stdio_output@@V?$positional_parameter_base@_WV?$string_output_adapter@_W@__crt_stdio_output@@@2@@__crt_stdio_output@@AAE_NXZ@PAU1?1??234@AAE_NXZ@@?$positional_parameter_base@_WV?$string_output_adapter@_W@__crt_stdio_output@@@__crt_stdio_output@@IAE_NAAPAUansi_string@?1??type_case_Z@?$output_processor@_WV?$string_output_adapter@_W@__crt_stdio_output@@V?$positional_parameter_base@_WV?$string_output_adapter@_W@__crt_stdio_output@@@2@@1@AAE_NXZ@@Z 10060360 f i libucrtd:output.obj
 0001:0005f4e0       ??$extract_argument_from_va_list@PAUansi_string@?1??type_case_Z@?$output_processor@_WV?$string_output_adapter@_W@__crt_stdio_output@@V?$positional_parameter_base@_WV?$string_output_adapter@_W@__crt_stdio_output@@@2@@__crt_stdio_output@@AAE_NXZ@PAU1?1??234@AAE_NXZ@@?$standard_base@_WV?$string_output_adapter@_W@__crt_stdio_output@@@__crt_stdio_output@@IAE_NAAPAUansi_string@?1??type_case_Z@?$output_processor@_WV?$string_output_adapter@_W@__crt_stdio_output@@V?$positional_parameter_base@_WV?$string_output_adapter@_W@__crt_stdio_output@@@2@@1@AAE_NXZ@@Z 100604e0 f i libucrtd:output.obj
 0001:0005f510       ??$extract_argument_from_va_list@PAUansi_string@?1??type_case_Z@?$output_processor@_WV?$string_output_adapter@_W@__crt_stdio_output@@V?$standard_base@_WV?$string_output_adapter@_W@__crt_stdio_output@@@2@@__crt_stdio_output@@AAE_NXZ@PAU1?1??234@AAE_NXZ@@?$standard_base@_WV?$string_output_adapter@_W@__crt_stdio_output@@@__crt_stdio_output@@IAE_NAAPAUansi_string@?1??type_case_Z@?$output_processor@_WV?$string_output_adapter@_W@__crt_stdio_output@@V?$standard_base@_WV?$string_output_adapter@_W@__crt_stdio_output@@@2@@1@AAE_NXZ@@Z 10060510 f i libucrtd:output.obj
 0001:0005f540       ??$extract_argument_from_va_list@PAXPAX@?$positional_parameter_base@DV?$stream_output_adapter@D@__crt_stdio_output@@@__crt_stdio_output@@IAE_NAAPAX@Z 10060540 f i libucrtd:output.obj
 0001:0005f6c0       ??$extract_argument_from_va_list@PAXPAX@?$positional_parameter_base@DV?$string_output_adapter@D@__crt_stdio_output@@@__crt_stdio_output@@IAE_NAAPAX@Z 100606c0 f i libucrtd:output.obj
 0001:0005f840       ??$extract_argument_from_va_list@PAXPAX@?$positional_parameter_base@_WV?$stream_output_adapter@_W@__crt_stdio_output@@@__crt_stdio_output@@IAE_NAAPAX@Z 10060840 f i libucrtd:output.obj
 0001:0005f9c0       ??$extract_argument_from_va_list@PAXPAX@?$positional_parameter_base@_WV?$string_output_adapter@_W@__crt_stdio_output@@@__crt_stdio_output@@IAE_NAAPAX@Z 100609c0 f i libucrtd:output.obj
 0001:0005fb40       ??$extract_argument_from_va_list@PAXPAX@?$standard_base@DV?$stream_output_adapter@D@__crt_stdio_output@@@__crt_stdio_output@@IAE_NAAPAX@Z 10060b40 f i libucrtd:output.obj
 0001:0005fb70       ??$extract_argument_from_va_list@PAXPAX@?$standard_base@DV?$string_output_adapter@D@__crt_stdio_output@@@__crt_stdio_output@@IAE_NAAPAX@Z 10060b70 f i libucrtd:output.obj
 0001:0005fba0       ??$extract_argument_from_va_list@PAXPAX@?$standard_base@_WV?$stream_output_adapter@_W@__crt_stdio_output@@@__crt_stdio_output@@IAE_NAAPAX@Z 10060ba0 f i libucrtd:output.obj
 0001:0005fbd0       ??$extract_argument_from_va_list@PAXPAX@?$standard_base@_WV?$string_output_adapter@_W@__crt_stdio_output@@@__crt_stdio_output@@IAE_NAAPAX@Z 10060bd0 f i libucrtd:output.obj
 0001:0005fc00       ??$extract_argument_from_va_list@U_CRT_DOUBLE@@U1@@?$positional_parameter_base@DV?$stream_output_adapter@D@__crt_stdio_output@@@__crt_stdio_output@@IAE_NAAU_CRT_DOUBLE@@@Z 10060c00 f i libucrtd:output.obj
 0001:0005fdb0       ??$extract_argument_from_va_list@U_CRT_DOUBLE@@U1@@?$positional_parameter_base@DV?$string_output_adapter@D@__crt_stdio_output@@@__crt_stdio_output@@IAE_NAAU_CRT_DOUBLE@@@Z 10060db0 f i libucrtd:output.obj
 0001:0005ff60       ??$extract_argument_from_va_list@U_CRT_DOUBLE@@U1@@?$positional_parameter_base@_WV?$stream_output_adapter@_W@__crt_stdio_output@@@__crt_stdio_output@@IAE_NAAU_CRT_DOUBLE@@@Z 10060f60 f i libucrtd:output.obj
 0001:00060110       ??$extract_argument_from_va_list@U_CRT_DOUBLE@@U1@@?$positional_parameter_base@_WV?$string_output_adapter@_W@__crt_stdio_output@@@__crt_stdio_output@@IAE_NAAU_CRT_DOUBLE@@@Z 10061110 f i libucrtd:output.obj
 0001:000602c0       ??$extract_argument_from_va_list@U_CRT_DOUBLE@@U1@@?$standard_base@DV?$stream_output_adapter@D@__crt_stdio_output@@@__crt_stdio_output@@IAE_NAAU_CRT_DOUBLE@@@Z 100612c0 f i libucrtd:output.obj
 0001:00060320       ??$extract_argument_from_va_list@U_CRT_DOUBLE@@U1@@?$standard_base@DV?$string_output_adapter@D@__crt_stdio_output@@@__crt_stdio_output@@IAE_NAAU_CRT_DOUBLE@@@Z 10061320 f i libucrtd:output.obj
 0001:00060380       ??$extract_argument_from_va_list@U_CRT_DOUBLE@@U1@@?$standard_base@_WV?$stream_output_adapter@_W@__crt_stdio_output@@@__crt_stdio_output@@IAE_NAAU_CRT_DOUBLE@@@Z 10061380 f i libucrtd:output.obj
 0001:000603e0       ??$extract_argument_from_va_list@U_CRT_DOUBLE@@U1@@?$standard_base@_WV?$string_output_adapter@_W@__crt_stdio_output@@@__crt_stdio_output@@IAE_NAAU_CRT_DOUBLE@@@Z 100613e0 f i libucrtd:output.obj
 0001:00060440       ??$extract_argument_from_va_list@_J_J@?$positional_parameter_base@DV?$stream_output_adapter@D@__crt_stdio_output@@@__crt_stdio_output@@IAE_NAA_J@Z 10061440 f i libucrtd:output.obj
 0001:000605c0       ??$extract_argument_from_va_list@_J_J@?$positional_parameter_base@DV?$string_output_adapter@D@__crt_stdio_output@@@__crt_stdio_output@@IAE_NAA_J@Z 100615c0 f i libucrtd:output.obj
 0001:00060740       ??$extract_argument_from_va_list@_J_J@?$positional_parameter_base@_WV?$stream_output_adapter@_W@__crt_stdio_output@@@__crt_stdio_output@@IAE_NAA_J@Z 10061740 f i libucrtd:output.obj
 0001:000608c0       ??$extract_argument_from_va_list@_J_J@?$positional_parameter_base@_WV?$string_output_adapter@_W@__crt_stdio_output@@@__crt_stdio_output@@IAE_NAA_J@Z 100618c0 f i libucrtd:output.obj
 0001:00060a40       ??$extract_argument_from_va_list@_J_J@?$standard_base@DV?$stream_output_adapter@D@__crt_stdio_output@@@__crt_stdio_output@@IAE_NAA_J@Z 10061a40 f i libucrtd:output.obj
 0001:00060a80       ??$extract_argument_from_va_list@_J_J@?$standard_base@DV?$string_output_adapter@D@__crt_stdio_output@@@__crt_stdio_output@@IAE_NAA_J@Z 10061a80 f i libucrtd:output.obj
 0001:00060ac0       ??$extract_argument_from_va_list@_J_J@?$standard_base@_WV?$stream_output_adapter@_W@__crt_stdio_output@@@__crt_stdio_output@@IAE_NAA_J@Z 10061ac0 f i libucrtd:output.obj
 0001:00060b00       ??$extract_argument_from_va_list@_J_J@?$standard_base@_WV?$string_output_adapter@_W@__crt_stdio_output@@@__crt_stdio_output@@IAE_NAA_J@Z 10061b00 f i libucrtd:output.obj
 0001:00060b40       ??$extract_argument_from_va_list@_K_J@?$positional_parameter_base@DV?$stream_output_adapter@D@__crt_stdio_output@@@__crt_stdio_output@@IAE_NAA_J@Z 10061b40 f i libucrtd:output.obj
 0001:00060cc0       ??$extract_argument_from_va_list@_K_J@?$positional_parameter_base@DV?$string_output_adapter@D@__crt_stdio_output@@@__crt_stdio_output@@IAE_NAA_J@Z 10061cc0 f i libucrtd:output.obj
 0001:00060e40       ??$extract_argument_from_va_list@_K_J@?$positional_parameter_base@_WV?$stream_output_adapter@_W@__crt_stdio_output@@@__crt_stdio_output@@IAE_NAA_J@Z 10061e40 f i libucrtd:output.obj
 0001:00060fc0       ??$extract_argument_from_va_list@_K_J@?$positional_parameter_base@_WV?$string_output_adapter@_W@__crt_stdio_output@@@__crt_stdio_output@@IAE_NAA_J@Z 10061fc0 f i libucrtd:output.obj
 0001:00061140       ??$extract_argument_from_va_list@_K_J@?$standard_base@DV?$stream_output_adapter@D@__crt_stdio_output@@@__crt_stdio_output@@IAE_NAA_J@Z 10062140 f i libucrtd:output.obj
 0001:00061180       ??$extract_argument_from_va_list@_K_J@?$standard_base@DV?$string_output_adapter@D@__crt_stdio_output@@@__crt_stdio_output@@IAE_NAA_J@Z 10062180 f i libucrtd:output.obj
 0001:000611c0       ??$extract_argument_from_va_list@_K_J@?$standard_base@_WV?$stream_output_adapter@_W@__crt_stdio_output@@@__crt_stdio_output@@IAE_NAA_J@Z 100621c0 f i libucrtd:output.obj
 0001:00061200       ??$extract_argument_from_va_list@_K_J@?$standard_base@_WV?$string_output_adapter@_W@__crt_stdio_output@@@__crt_stdio_output@@IAE_NAA_J@Z 10062200 f i libucrtd:output.obj
 0001:00061240       ??$extract_argument_from_va_list@_W_W@?$positional_parameter_base@DV?$stream_output_adapter@D@__crt_stdio_output@@@__crt_stdio_output@@IAE_NAA_W@Z 10062240 f i libucrtd:output.obj
 0001:000613c0       ??$extract_argument_from_va_list@_W_W@?$positional_parameter_base@DV?$string_output_adapter@D@__crt_stdio_output@@@__crt_stdio_output@@IAE_NAA_W@Z 100623c0 f i libucrtd:output.obj
 0001:00061540       ??$extract_argument_from_va_list@_W_W@?$positional_parameter_base@_WV?$stream_output_adapter@_W@__crt_stdio_output@@@__crt_stdio_output@@IAE_NAA_W@Z 10062540 f i libucrtd:output.obj
 0001:000616c0       ??$extract_argument_from_va_list@_W_W@?$positional_parameter_base@_WV?$string_output_adapter@_W@__crt_stdio_output@@@__crt_stdio_output@@IAE_NAA_W@Z 100626c0 f i libucrtd:output.obj
 0001:00061840       ??$extract_argument_from_va_list@_W_W@?$standard_base@DV?$stream_output_adapter@D@__crt_stdio_output@@@__crt_stdio_output@@IAE_NAA_W@Z 10062840 f i libucrtd:output.obj
 0001:00061870       ??$extract_argument_from_va_list@_W_W@?$standard_base@DV?$string_output_adapter@D@__crt_stdio_output@@@__crt_stdio_output@@IAE_NAA_W@Z 10062870 f i libucrtd:output.obj
 0001:000618a0       ??$extract_argument_from_va_list@_W_W@?$standard_base@_WV?$stream_output_adapter@_W@__crt_stdio_output@@@__crt_stdio_output@@IAE_NAA_W@Z 100628a0 f i libucrtd:output.obj
 0001:000618d0       ??$extract_argument_from_va_list@_W_W@?$standard_base@_WV?$string_output_adapter@_W@__crt_stdio_output@@@__crt_stdio_output@@IAE_NAA_W@Z 100628d0 f i libucrtd:output.obj
 0001:00061900       ??$get_parameter_type@D@?$positional_parameter_base@DV?$stream_output_adapter@D@__crt_stdio_output@@@__crt_stdio_output@@CA?AW4parameter_type@01@PAD@Z 10062900 f i libucrtd:output.obj
 0001:00061910       ??$get_parameter_type@D@?$positional_parameter_base@DV?$string_output_adapter@D@__crt_stdio_output@@@__crt_stdio_output@@CA?AW4parameter_type@01@PAD@Z 10062910 f i libucrtd:output.obj
 0001:00061920       ??$get_parameter_type@D@?$positional_parameter_base@_WV?$stream_output_adapter@_W@__crt_stdio_output@@@__crt_stdio_output@@CA?AW4parameter_type@01@PAD@Z 10062920 f i libucrtd:output.obj
 0001:00061930       ??$get_parameter_type@D@?$positional_parameter_base@_WV?$string_output_adapter@_W@__crt_stdio_output@@@__crt_stdio_output@@CA?AW4parameter_type@01@PAD@Z 10062930 f i libucrtd:output.obj
 0001:00061940       ??$get_parameter_type@Uansi_string@?1??type_case_Z@?$output_processor@DV?$stream_output_adapter@D@__crt_stdio_output@@V?$positional_parameter_base@DV?$stream_output_adapter@D@__crt_stdio_output@@@2@@__crt_stdio_output@@AAE_NXZ@@?$positional_parameter_base@DV?$stream_output_adapter@D@__crt_stdio_output@@@__crt_stdio_output@@CA?AW4parameter_type@01@PAUansi_string@?1??type_case_Z@?$output_processor@DV?$stream_output_adapter@D@__crt_stdio_output@@V?$positional_parameter_base@DV?$stream_output_adapter@D@__crt_stdio_output@@@2@@1@AAE_NXZ@@Z 10062940 f i libucrtd:output.obj
 0001:00061950       ??$get_parameter_type@Uansi_string@?1??type_case_Z@?$output_processor@DV?$string_output_adapter@D@__crt_stdio_output@@V?$positional_parameter_base@DV?$string_output_adapter@D@__crt_stdio_output@@@2@@__crt_stdio_output@@AAE_NXZ@@?$positional_parameter_base@DV?$string_output_adapter@D@__crt_stdio_output@@@__crt_stdio_output@@CA?AW4parameter_type@01@PAUansi_string@?1??type_case_Z@?$output_processor@DV?$string_output_adapter@D@__crt_stdio_output@@V?$positional_parameter_base@DV?$string_output_adapter@D@__crt_stdio_output@@@2@@1@AAE_NXZ@@Z 10062950 f i libucrtd:output.obj
 0001:00061960       ??$get_parameter_type@Uansi_string@?1??type_case_Z@?$output_processor@_WV?$stream_output_adapter@_W@__crt_stdio_output@@V?$positional_parameter_base@_WV?$stream_output_adapter@_W@__crt_stdio_output@@@2@@__crt_stdio_output@@AAE_NXZ@@?$positional_parameter_base@_WV?$stream_output_adapter@_W@__crt_stdio_output@@@__crt_stdio_output@@CA?AW4parameter_type@01@PAUansi_string@?1??type_case_Z@?$output_processor@_WV?$stream_output_adapter@_W@__crt_stdio_output@@V?$positional_parameter_base@_WV?$stream_output_adapter@_W@__crt_stdio_output@@@2@@1@AAE_NXZ@@Z 10062960 f i libucrtd:output.obj
 0001:00061970       ??$get_parameter_type@Uansi_string@?1??type_case_Z@?$output_processor@_WV?$string_output_adapter@_W@__crt_stdio_output@@V?$positional_parameter_base@_WV?$string_output_adapter@_W@__crt_stdio_output@@@2@@__crt_stdio_output@@AAE_NXZ@@?$positional_parameter_base@_WV?$string_output_adapter@_W@__crt_stdio_output@@@__crt_stdio_output@@CA?AW4parameter_type@01@PAUansi_string@?1??type_case_Z@?$output_processor@_WV?$string_output_adapter@_W@__crt_stdio_output@@V?$positional_parameter_base@_WV?$string_output_adapter@_W@__crt_stdio_output@@@2@@1@AAE_NXZ@@Z 10062970 f i libucrtd:output.obj
 0001:00061980       ??$get_parameter_type@X@?$positional_parameter_base@DV?$stream_output_adapter@D@__crt_stdio_output@@@__crt_stdio_output@@CA?AW4parameter_type@01@PAX@Z 10062980 f i libucrtd:output.obj
 0001:00061990       ??$get_parameter_type@X@?$positional_parameter_base@DV?$string_output_adapter@D@__crt_stdio_output@@@__crt_stdio_output@@CA?AW4parameter_type@01@PAX@Z 10062990 f i libucrtd:output.obj
 0001:000619a0       ??$get_parameter_type@X@?$positional_parameter_base@_WV?$stream_output_adapter@_W@__crt_stdio_output@@@__crt_stdio_output@@CA?AW4parameter_type@01@PAX@Z 100629a0 f i libucrtd:output.obj
 0001:000619b0       ??$get_parameter_type@X@?$positional_parameter_base@_WV?$string_output_adapter@_W@__crt_stdio_output@@@__crt_stdio_output@@CA?AW4parameter_type@01@PAX@Z 100629b0 f i libucrtd:output.obj
 0001:000619c0       ??$is_character_specifier@D@?$positional_parameter_base@DV?$stream_output_adapter@D@__crt_stdio_output@@@__crt_stdio_output@@CA_ND@Z 100629c0 f i libucrtd:output.obj
 0001:00061a00       ??$is_character_specifier@D@?$positional_parameter_base@DV?$string_output_adapter@D@__crt_stdio_output@@@__crt_stdio_output@@CA_ND@Z 10062a00 f i libucrtd:output.obj
 0001:00061a40       ??$is_character_specifier@_W@?$positional_parameter_base@_WV?$stream_output_adapter@_W@__crt_stdio_output@@@__crt_stdio_output@@CA_N_W@Z 10062a40 f i libucrtd:output.obj
 0001:00061a80       ??$is_character_specifier@_W@?$positional_parameter_base@_WV?$string_output_adapter@_W@__crt_stdio_output@@@__crt_stdio_output@@CA_N_W@Z 10062a80 f i libucrtd:output.obj
 0001:00061ac0       ??$is_integral_specifier@D@?$positional_parameter_base@DV?$stream_output_adapter@D@__crt_stdio_output@@@__crt_stdio_output@@CA_ND@Z 10062ac0 f i libucrtd:output.obj
 0001:00061b40       ??$is_integral_specifier@D@?$positional_parameter_base@DV?$string_output_adapter@D@__crt_stdio_output@@@__crt_stdio_output@@CA_ND@Z 10062b40 f i libucrtd:output.obj
 0001:00061bc0       ??$is_integral_specifier@_W@?$positional_parameter_base@_WV?$stream_output_adapter@_W@__crt_stdio_output@@@__crt_stdio_output@@CA_N_W@Z 10062bc0 f i libucrtd:output.obj
 0001:00061c40       ??$is_integral_specifier@_W@?$positional_parameter_base@_WV?$string_output_adapter@_W@__crt_stdio_output@@@__crt_stdio_output@@CA_N_W@Z 10062c40 f i libucrtd:output.obj
 0001:00061cc0       ??$is_pointer_specifier@D@?$positional_parameter_base@DV?$stream_output_adapter@D@__crt_stdio_output@@@__crt_stdio_output@@CA_ND@Z 10062cc0 f i libucrtd:output.obj
 0001:00061cf0       ??$is_pointer_specifier@D@?$positional_parameter_base@DV?$string_output_adapter@D@__crt_stdio_output@@@__crt_stdio_output@@CA_ND@Z 10062cf0 f i libucrtd:output.obj
 0001:00061d20       ??$is_pointer_specifier@_W@?$positional_parameter_base@_WV?$stream_output_adapter@_W@__crt_stdio_output@@@__crt_stdio_output@@CA_N_W@Z 10062d20 f i libucrtd:output.obj
 0001:00061d50       ??$is_pointer_specifier@_W@?$positional_parameter_base@_WV?$string_output_adapter@_W@__crt_stdio_output@@@__crt_stdio_output@@CA_N_W@Z 10062d50 f i libucrtd:output.obj
 0001:00061d80       ??$is_string_specifier@D@?$positional_parameter_base@DV?$stream_output_adapter@D@__crt_stdio_output@@@__crt_stdio_output@@CA_ND@Z 10062d80 f i libucrtd:output.obj
 0001:00061dc0       ??$is_string_specifier@D@?$positional_parameter_base@DV?$string_output_adapter@D@__crt_stdio_output@@@__crt_stdio_output@@CA_ND@Z 10062dc0 f i libucrtd:output.obj
 0001:00061e00       ??$is_string_specifier@_W@?$positional_parameter_base@_WV?$stream_output_adapter@_W@__crt_stdio_output@@@__crt_stdio_output@@CA_N_W@Z 10062e00 f i libucrtd:output.obj
 0001:00061e40       ??$is_string_specifier@_W@?$positional_parameter_base@_WV?$string_output_adapter@_W@__crt_stdio_output@@@__crt_stdio_output@@CA_N_W@Z 10062e40 f i libucrtd:output.obj
 0001:00061e80       ??$is_wide_character_specifier@D@__crt_stdio_output@@YA_N_KDW4length_modifier@0@@Z 10062e80 f i libucrtd:output.obj
 0001:00061f20       ??$is_wide_character_specifier@_W@__crt_stdio_output@@YA_N_K_WW4length_modifier@0@@Z 10062f20 f i libucrtd:output.obj
 0001:00062010       ??$peek_va_arg@C@__crt_stdio_output@@YACPAD@Z 10063010 f i libucrtd:output.obj
 0001:00062030       ??$peek_va_arg@E@__crt_stdio_output@@YAEPAD@Z 10063030 f i libucrtd:output.obj
 0001:00062050       ??$peek_va_arg@F@__crt_stdio_output@@YAFPAD@Z 10063050 f i libucrtd:output.obj
 0001:00062070       ??$peek_va_arg@G@__crt_stdio_output@@YAGPAD@Z 10063070 f i libucrtd:output.obj
 0001:00062090       ??$peek_va_arg@H@__crt_stdio_output@@YAHPAD@Z 10063090 f i libucrtd:output.obj
 0001:000620b0       ??$peek_va_arg@I@__crt_stdio_output@@YAIPAD@Z 100630b0 f i libucrtd:output.obj
 0001:000620d0       ??$peek_va_arg@PAD@__crt_stdio_output@@YAPADPAD@Z 100630d0 f i libucrtd:output.obj
 0001:000620f0       ??$peek_va_arg@PAUansi_string@?1??type_case_Z@?$output_processor@DV?$stream_output_adapter@D@__crt_stdio_output@@V?$positional_parameter_base@DV?$stream_output_adapter@D@__crt_stdio_output@@@2@@__crt_stdio_output@@AAE_NXZ@@__crt_stdio_output@@YAPAUansi_string@?1??type_case_Z@?$output_processor@DV?$stream_output_adapter@D@__crt_stdio_output@@V?$positional_parameter_base@DV?$stream_output_adapter@D@__crt_stdio_output@@@2@@0@AAE_NXZ@PAD@Z 100630f0 f i libucrtd:output.obj
 0001:00062110       ??$peek_va_arg@PAUansi_string@?1??type_case_Z@?$output_processor@DV?$string_output_adapter@D@__crt_stdio_output@@V?$positional_parameter_base@DV?$string_output_adapter@D@__crt_stdio_output@@@2@@__crt_stdio_output@@AAE_NXZ@@__crt_stdio_output@@YAPAUansi_string@?1??type_case_Z@?$output_processor@DV?$string_output_adapter@D@__crt_stdio_output@@V?$positional_parameter_base@DV?$string_output_adapter@D@__crt_stdio_output@@@2@@0@AAE_NXZ@PAD@Z 10063110 f i libucrtd:output.obj
 0001:00062130       ??$peek_va_arg@PAUansi_string@?1??type_case_Z@?$output_processor@_WV?$stream_output_adapter@_W@__crt_stdio_output@@V?$positional_parameter_base@_WV?$stream_output_adapter@_W@__crt_stdio_output@@@2@@__crt_stdio_output@@AAE_NXZ@@__crt_stdio_output@@YAPAUansi_string@?1??type_case_Z@?$output_processor@_WV?$stream_output_adapter@_W@__crt_stdio_output@@V?$positional_parameter_base@_WV?$stream_output_adapter@_W@__crt_stdio_output@@@2@@0@AAE_NXZ@PAD@Z 10063130 f i libucrtd:output.obj
 0001:00062150       ??$peek_va_arg@PAUansi_string@?1??type_case_Z@?$output_processor@_WV?$string_output_adapter@_W@__crt_stdio_output@@V?$positional_parameter_base@_WV?$string_output_adapter@_W@__crt_stdio_output@@@2@@__crt_stdio_output@@AAE_NXZ@@__crt_stdio_output@@YAPAUansi_string@?1??type_case_Z@?$output_processor@_WV?$string_output_adapter@_W@__crt_stdio_output@@V?$positional_parameter_base@_WV?$string_output_adapter@_W@__crt_stdio_output@@@2@@0@AAE_NXZ@PAD@Z 10063150 f i libucrtd:output.obj
 0001:00062170       ??$peek_va_arg@PAX@__crt_stdio_output@@YAPAXPAD@Z 10063170 f i libucrtd:output.obj
 0001:00062190       ??$peek_va_arg@U_CRT_DOUBLE@@@__crt_stdio_output@@YA?AU_CRT_DOUBLE@@PAD@Z 10063190 f i libucrtd:output.obj
 0001:000621b0       ??$peek_va_arg@_J@__crt_stdio_output@@YA_JPAD@Z 100631b0 f i libucrtd:output.obj
 0001:000621d0       ??$peek_va_arg@_K@__crt_stdio_output@@YA_KPAD@Z 100631d0 f i libucrtd:output.obj
 0001:000621f0       ??$peek_va_arg@_W@__crt_stdio_output@@YA_WPAD@Z 100631f0 f i libucrtd:output.obj
 0001:00062210       ??$puttc_nolock@ABDPAU_iobuf@@@?$__crt_char_traits@D@@SAHABD$$QAPAU_iobuf@@@Z 10063210 f i libucrtd:output.obj
 0001:00062240       ??$puttc_nolock@AB_WPAU_iobuf@@@?$__crt_char_traits@_W@@SAGAB_W$$QAPAU_iobuf@@@Z 10063240 f i libucrtd:output.obj
 0001:00062270       ??$read_va_arg@C@__crt_stdio_output@@YACAAPAD@Z 10063270 f i libucrtd:output.obj
 0001:000622a0       ??$read_va_arg@E@__crt_stdio_output@@YAEAAPAD@Z 100632a0 f i libucrtd:output.obj
 0001:000622d0       ??$read_va_arg@F@__crt_stdio_output@@YAFAAPAD@Z 100632d0 f i libucrtd:output.obj
 0001:00062300       ??$read_va_arg@G@__crt_stdio_output@@YAGAAPAD@Z 10063300 f i libucrtd:output.obj
 0001:00062330       ??$read_va_arg@H@__crt_stdio_output@@YAHAAPAD@Z 10063330 f i libucrtd:output.obj
 0001:00062360       ??$read_va_arg@I@__crt_stdio_output@@YAIAAPAD@Z 10063360 f i libucrtd:output.obj
 0001:00062390       ??$read_va_arg@PAD@__crt_stdio_output@@YAPADAAPAD@Z 10063390 f i libucrtd:output.obj
 0001:000623c0       ??$read_va_arg@PAUansi_string@?1??type_case_Z@?$output_processor@DV?$stream_output_adapter@D@__crt_stdio_output@@V?$format_validation_base@DV?$stream_output_adapter@D@__crt_stdio_output@@@2@@__crt_stdio_output@@AAE_NXZ@@__crt_stdio_output@@YAPAUansi_string@?1??type_case_Z@?$output_processor@DV?$stream_output_adapter@D@__crt_stdio_output@@V?$format_validation_base@DV?$stream_output_adapter@D@__crt_stdio_output@@@2@@0@AAE_NXZ@AAPAD@Z 100633c0 f i libucrtd:output.obj
 0001:000623f0       ??$read_va_arg@PAUansi_string@?1??type_case_Z@?$output_processor@DV?$stream_output_adapter@D@__crt_stdio_output@@V?$positional_parameter_base@DV?$stream_output_adapter@D@__crt_stdio_output@@@2@@__crt_stdio_output@@AAE_NXZ@@__crt_stdio_output@@YAPAUansi_string@?1??type_case_Z@?$output_processor@DV?$stream_output_adapter@D@__crt_stdio_output@@V?$positional_parameter_base@DV?$stream_output_adapter@D@__crt_stdio_output@@@2@@0@AAE_NXZ@AAPAD@Z 100633f0 f i libucrtd:output.obj
 0001:00062420       ??$read_va_arg@PAUansi_string@?1??type_case_Z@?$output_processor@DV?$stream_output_adapter@D@__crt_stdio_output@@V?$standard_base@DV?$stream_output_adapter@D@__crt_stdio_output@@@2@@__crt_stdio_output@@AAE_NXZ@@__crt_stdio_output@@YAPAUansi_string@?1??type_case_Z@?$output_processor@DV?$stream_output_adapter@D@__crt_stdio_output@@V?$standard_base@DV?$stream_output_adapter@D@__crt_stdio_output@@@2@@0@AAE_NXZ@AAPAD@Z 10063420 f i libucrtd:output.obj
 0001:00062450       ??$read_va_arg@PAUansi_string@?1??type_case_Z@?$output_processor@DV?$string_output_adapter@D@__crt_stdio_output@@V?$format_validation_base@DV?$string_output_adapter@D@__crt_stdio_output@@@2@@__crt_stdio_output@@AAE_NXZ@@__crt_stdio_output@@YAPAUansi_string@?1??type_case_Z@?$output_processor@DV?$string_output_adapter@D@__crt_stdio_output@@V?$format_validation_base@DV?$string_output_adapter@D@__crt_stdio_output@@@2@@0@AAE_NXZ@AAPAD@Z 10063450 f i libucrtd:output.obj
 0001:00062480       ??$read_va_arg@PAUansi_string@?1??type_case_Z@?$output_processor@DV?$string_output_adapter@D@__crt_stdio_output@@V?$positional_parameter_base@DV?$string_output_adapter@D@__crt_stdio_output@@@2@@__crt_stdio_output@@AAE_NXZ@@__crt_stdio_output@@YAPAUansi_string@?1??type_case_Z@?$output_processor@DV?$string_output_adapter@D@__crt_stdio_output@@V?$positional_parameter_base@DV?$string_output_adapter@D@__crt_stdio_output@@@2@@0@AAE_NXZ@AAPAD@Z 10063480 f i libucrtd:output.obj
 0001:000624b0       ??$read_va_arg@PAUansi_string@?1??type_case_Z@?$output_processor@DV?$string_output_adapter@D@__crt_stdio_output@@V?$standard_base@DV?$string_output_adapter@D@__crt_stdio_output@@@2@@__crt_stdio_output@@AAE_NXZ@@__crt_stdio_output@@YAPAUansi_string@?1??type_case_Z@?$output_processor@DV?$string_output_adapter@D@__crt_stdio_output@@V?$standard_base@DV?$string_output_adapter@D@__crt_stdio_output@@@2@@0@AAE_NXZ@AAPAD@Z 100634b0 f i libucrtd:output.obj
 0001:000624e0       ??$read_va_arg@PAUansi_string@?1??type_case_Z@?$output_processor@_WV?$stream_output_adapter@_W@__crt_stdio_output@@V?$format_validation_base@_WV?$stream_output_adapter@_W@__crt_stdio_output@@@2@@__crt_stdio_output@@AAE_NXZ@@__crt_stdio_output@@YAPAUansi_string@?1??type_case_Z@?$output_processor@_WV?$stream_output_adapter@_W@__crt_stdio_output@@V?$format_validation_base@_WV?$stream_output_adapter@_W@__crt_stdio_output@@@2@@0@AAE_NXZ@AAPAD@Z 100634e0 f i libucrtd:output.obj
 0001:00062510       ??$read_va_arg@PAUansi_string@?1??type_case_Z@?$output_processor@_WV?$stream_output_adapter@_W@__crt_stdio_output@@V?$positional_parameter_base@_WV?$stream_output_adapter@_W@__crt_stdio_output@@@2@@__crt_stdio_output@@AAE_NXZ@@__crt_stdio_output@@YAPAUansi_string@?1??type_case_Z@?$output_processor@_WV?$stream_output_adapter@_W@__crt_stdio_output@@V?$positional_parameter_base@_WV?$stream_output_adapter@_W@__crt_stdio_output@@@2@@0@AAE_NXZ@AAPAD@Z 10063510 f i libucrtd:output.obj
 0001:00062540       ??$read_va_arg@PAUansi_string@?1??type_case_Z@?$output_processor@_WV?$stream_output_adapter@_W@__crt_stdio_output@@V?$standard_base@_WV?$stream_output_adapter@_W@__crt_stdio_output@@@2@@__crt_stdio_output@@AAE_NXZ@@__crt_stdio_output@@YAPAUansi_string@?1??type_case_Z@?$output_processor@_WV?$stream_output_adapter@_W@__crt_stdio_output@@V?$standard_base@_WV?$stream_output_adapter@_W@__crt_stdio_output@@@2@@0@AAE_NXZ@AAPAD@Z 10063540 f i libucrtd:output.obj
 0001:00062570       ??$read_va_arg@PAUansi_string@?1??type_case_Z@?$output_processor@_WV?$string_output_adapter@_W@__crt_stdio_output@@V?$format_validation_base@_WV?$string_output_adapter@_W@__crt_stdio_output@@@2@@__crt_stdio_output@@AAE_NXZ@@__crt_stdio_output@@YAPAUansi_string@?1??type_case_Z@?$output_processor@_WV?$string_output_adapter@_W@__crt_stdio_output@@V?$format_validation_base@_WV?$string_output_adapter@_W@__crt_stdio_output@@@2@@0@AAE_NXZ@AAPAD@Z 10063570 f i libucrtd:output.obj
 0001:000625a0       ??$read_va_arg@PAUansi_string@?1??type_case_Z@?$output_processor@_WV?$string_output_adapter@_W@__crt_stdio_output@@V?$positional_parameter_base@_WV?$string_output_adapter@_W@__crt_stdio_output@@@2@@__crt_stdio_output@@AAE_NXZ@@__crt_stdio_output@@YAPAUansi_string@?1??type_case_Z@?$output_processor@_WV?$string_output_adapter@_W@__crt_stdio_output@@V?$positional_parameter_base@_WV?$string_output_adapter@_W@__crt_stdio_output@@@2@@0@AAE_NXZ@AAPAD@Z 100635a0 f i libucrtd:output.obj
 0001:000625d0       ??$read_va_arg@PAUansi_string@?1??type_case_Z@?$output_processor@_WV?$string_output_adapter@_W@__crt_stdio_output@@V?$standard_base@_WV?$string_output_adapter@_W@__crt_stdio_output@@@2@@__crt_stdio_output@@AAE_NXZ@@__crt_stdio_output@@YAPAUansi_string@?1??type_case_Z@?$output_processor@_WV?$string_output_adapter@_W@__crt_stdio_output@@V?$standard_base@_WV?$string_output_adapter@_W@__crt_stdio_output@@@2@@0@AAE_NXZ@AAPAD@Z 100635d0 f i libucrtd:output.obj
 0001:00062600       ??$read_va_arg@PAX@__crt_stdio_output@@YAPAXAAPAD@Z 10063600 f i libucrtd:output.obj
 0001:00062630       ??$read_va_arg@U_CRT_DOUBLE@@@__crt_stdio_output@@YA?AU_CRT_DOUBLE@@AAPAD@Z 10063630 f i libucrtd:output.obj
 0001:00062660       ??$read_va_arg@_J@__crt_stdio_output@@YA_JAAPAD@Z 10063660 f i libucrtd:output.obj
 0001:00062690       ??$read_va_arg@_K@__crt_stdio_output@@YA_KAAPAD@Z 10063690 f i libucrtd:output.obj
 0001:000626c0       ??$read_va_arg@_W@__crt_stdio_output@@YA_WAAPAD@Z 100636c0 f i libucrtd:output.obj
 0001:000626f0       ??$scratch_count@D@formatting_buffer@__crt_stdio_output@@QBEIXZ 100636f0 f i libucrtd:output.obj
 0001:00062710       ??$scratch_data@D@formatting_buffer@__crt_stdio_output@@QAEPADXZ 10063710 f i libucrtd:output.obj
 0001:00062770       ??$tcstol@AAPBDPAPADH@?$__crt_char_traits@D@@SAJAAPBD$$QAPAPAD$$QAH@Z 10063770 f i libucrtd:output.obj
 0001:000627a0       ??$tcstol@AAPB_WPAPA_WH@?$__crt_char_traits@_W@@SAJAAPB_W$$QAPAPA_W$$QAH@Z 100637a0 f i libucrtd:output.obj
 0001:000627d0       ??$tcstol@PBDPAPADH@?$__crt_char_traits@D@@SAJ$$QAPBD$$QAPAPAD$$QAH@Z 100637d0 f i libucrtd:output.obj
 0001:00062800       ??$tcstol@PB_WPAPA_WH@?$__crt_char_traits@_W@@SAJ$$QAPB_W$$QAPAPA_W$$QAH@Z 10063800 f i libucrtd:output.obj
 0001:00062830       ??$type_case_integer_parse_into_buffer@I@?$output_processor@DV?$stream_output_adapter@D@__crt_stdio_output@@V?$format_validation_base@DV?$stream_output_adapter@D@__crt_stdio_output@@@2@@__crt_stdio_output@@AAEXII_N@Z 10063830 f i libucrtd:output.obj
 0001:00062930       ??$type_case_integer_parse_into_buffer@I@?$output_processor@DV?$stream_output_adapter@D@__crt_stdio_output@@V?$positional_parameter_base@DV?$stream_output_adapter@D@__crt_stdio_output@@@2@@__crt_stdio_output@@AAEXII_N@Z 10063930 f i libucrtd:output.obj
 0001:00062a30       ??$type_case_integer_parse_into_buffer@I@?$output_processor@DV?$stream_output_adapter@D@__crt_stdio_output@@V?$standard_base@DV?$stream_output_adapter@D@__crt_stdio_output@@@2@@__crt_stdio_output@@AAEXII_N@Z 10063a30 f i libucrtd:output.obj
 0001:00062b30       ??$type_case_integer_parse_into_buffer@I@?$output_processor@DV?$string_output_adapter@D@__crt_stdio_output@@V?$format_validation_base@DV?$string_output_adapter@D@__crt_stdio_output@@@2@@__crt_stdio_output@@AAEXII_N@Z 10063b30 f i libucrtd:output.obj
 0001:00062c30       ??$type_case_integer_parse_into_buffer@I@?$output_processor@DV?$string_output_adapter@D@__crt_stdio_output@@V?$positional_parameter_base@DV?$string_output_adapter@D@__crt_stdio_output@@@2@@__crt_stdio_output@@AAEXII_N@Z 10063c30 f i libucrtd:output.obj
 0001:00062d30       ??$type_case_integer_parse_into_buffer@I@?$output_processor@DV?$string_output_adapter@D@__crt_stdio_output@@V?$standard_base@DV?$string_output_adapter@D@__crt_stdio_output@@@2@@__crt_stdio_output@@AAEXII_N@Z 10063d30 f i libucrtd:output.obj
 0001:00062e30       ??$type_case_integer_parse_into_buffer@I@?$output_processor@_WV?$stream_output_adapter@_W@__crt_stdio_output@@V?$format_validation_base@_WV?$stream_output_adapter@_W@__crt_stdio_output@@@2@@__crt_stdio_output@@AAEXII_N@Z 10063e30 f i libucrtd:output.obj
 0001:00062f40       ??$type_case_integer_parse_into_buffer@I@?$output_processor@_WV?$stream_output_adapter@_W@__crt_stdio_output@@V?$positional_parameter_base@_WV?$stream_output_adapter@_W@__crt_stdio_output@@@2@@__crt_stdio_output@@AAEXII_N@Z 10063f40 f i libucrtd:output.obj
 0001:00063050       ??$type_case_integer_parse_into_buffer@I@?$output_processor@_WV?$stream_output_adapter@_W@__crt_stdio_output@@V?$standard_base@_WV?$stream_output_adapter@_W@__crt_stdio_output@@@2@@__crt_stdio_output@@AAEXII_N@Z 10064050 f i libucrtd:output.obj
 0001:00063160       ??$type_case_integer_parse_into_buffer@I@?$output_processor@_WV?$string_output_adapter@_W@__crt_stdio_output@@V?$format_validation_base@_WV?$string_output_adapter@_W@__crt_stdio_output@@@2@@__crt_stdio_output@@AAEXII_N@Z 10064160 f i libucrtd:output.obj
 0001:00063270       ??$type_case_integer_parse_into_buffer@I@?$output_processor@_WV?$string_output_adapter@_W@__crt_stdio_output@@V?$positional_parameter_base@_WV?$string_output_adapter@_W@__crt_stdio_output@@@2@@__crt_stdio_output@@AAEXII_N@Z 10064270 f i libucrtd:output.obj
 0001:00063380       ??$type_case_integer_parse_into_buffer@I@?$output_processor@_WV?$string_output_adapter@_W@__crt_stdio_output@@V?$standard_base@_WV?$string_output_adapter@_W@__crt_stdio_output@@@2@@__crt_stdio_output@@AAEXII_N@Z 10064380 f i libucrtd:output.obj
 0001:00063490       ??$type_case_integer_parse_into_buffer@_K@?$output_processor@DV?$stream_output_adapter@D@__crt_stdio_output@@V?$format_validation_base@DV?$stream_output_adapter@D@__crt_stdio_output@@@2@@__crt_stdio_output@@AAEX_KI_N@Z 10064490 f i libucrtd:output.obj
 0001:000635c0       ??$type_case_integer_parse_into_buffer@_K@?$output_processor@DV?$stream_output_adapter@D@__crt_stdio_output@@V?$positional_parameter_base@DV?$stream_output_adapter@D@__crt_stdio_output@@@2@@__crt_stdio_output@@AAEX_KI_N@Z 100645c0 f i libucrtd:output.obj
 0001:000636f0       ??$type_case_integer_parse_into_buffer@_K@?$output_processor@DV?$stream_output_adapter@D@__crt_stdio_output@@V?$standard_base@DV?$stream_output_adapter@D@__crt_stdio_output@@@2@@__crt_stdio_output@@AAEX_KI_N@Z 100646f0 f i libucrtd:output.obj
 0001:00063820       ??$type_case_integer_parse_into_buffer@_K@?$output_processor@DV?$string_output_adapter@D@__crt_stdio_output@@V?$format_validation_base@DV?$string_output_adapter@D@__crt_stdio_output@@@2@@__crt_stdio_output@@AAEX_KI_N@Z 10064820 f i libucrtd:output.obj
 0001:00063950       ??$type_case_integer_parse_into_buffer@_K@?$output_processor@DV?$string_output_adapter@D@__crt_stdio_output@@V?$positional_parameter_base@DV?$string_output_adapter@D@__crt_stdio_output@@@2@@__crt_stdio_output@@AAEX_KI_N@Z 10064950 f i libucrtd:output.obj
 0001:00063a80       ??$type_case_integer_parse_into_buffer@_K@?$output_processor@DV?$string_output_adapter@D@__crt_stdio_output@@V?$standard_base@DV?$string_output_adapter@D@__crt_stdio_output@@@2@@__crt_stdio_output@@AAEX_KI_N@Z 10064a80 f i libucrtd:output.obj
 0001:00063bb0       ??$type_case_integer_parse_into_buffer@_K@?$output_processor@_WV?$stream_output_adapter@_W@__crt_stdio_output@@V?$format_validation_base@_WV?$stream_output_adapter@_W@__crt_stdio_output@@@2@@__crt_stdio_output@@AAEX_KI_N@Z 10064bb0 f i libucrtd:output.obj
 0001:00063cf0       ??$type_case_integer_parse_into_buffer@_K@?$output_processor@_WV?$stream_output_adapter@_W@__crt_stdio_output@@V?$positional_parameter_base@_WV?$stream_output_adapter@_W@__crt_stdio_output@@@2@@__crt_stdio_output@@AAEX_KI_N@Z 10064cf0 f i libucrtd:output.obj
 0001:00063e30       ??$type_case_integer_parse_into_buffer@_K@?$output_processor@_WV?$stream_output_adapter@_W@__crt_stdio_output@@V?$standard_base@_WV?$stream_output_adapter@_W@__crt_stdio_output@@@2@@__crt_stdio_output@@AAEX_KI_N@Z 10064e30 f i libucrtd:output.obj
 0001:00063f70       ??$type_case_integer_parse_into_buffer@_K@?$output_processor@_WV?$string_output_adapter@_W@__crt_stdio_output@@V?$format_validation_base@_WV?$string_output_adapter@_W@__crt_stdio_output@@@2@@__crt_stdio_output@@AAEX_KI_N@Z 10064f70 f i libucrtd:output.obj
 0001:000640b0       ??$type_case_integer_parse_into_buffer@_K@?$output_processor@_WV?$string_output_adapter@_W@__crt_stdio_output@@V?$positional_parameter_base@_WV?$string_output_adapter@_W@__crt_stdio_output@@@2@@__crt_stdio_output@@AAEX_KI_N@Z 100650b0 f i libucrtd:output.obj
 0001:000641f0       ??$type_case_integer_parse_into_buffer@_K@?$output_processor@_WV?$string_output_adapter@_W@__crt_stdio_output@@V?$standard_base@_WV?$string_output_adapter@_W@__crt_stdio_output@@@2@@__crt_stdio_output@@AAEX_KI_N@Z 100651f0 f i libucrtd:output.obj
 0001:00064330       ??$write_multiple_characters@V?$stream_output_adapter@D@__crt_stdio_output@@D@__crt_stdio_output@@YAXABV?$stream_output_adapter@D@0@DHQAH@Z 10065330 f i libucrtd:output.obj
 0001:00064390       ??$write_multiple_characters@V?$stream_output_adapter@_W@__crt_stdio_output@@D@__crt_stdio_output@@YAXABV?$stream_output_adapter@_W@0@DHQAH@Z 10065390 f i libucrtd:output.obj
 0001:000643f0       ??$write_multiple_characters@V?$string_output_adapter@D@__crt_stdio_output@@D@__crt_stdio_output@@YAXABV?$string_output_adapter@D@0@DHQAH@Z 100653f0 f i libucrtd:output.obj
 0001:00064450       ??$write_multiple_characters@V?$string_output_adapter@_W@__crt_stdio_output@@D@__crt_stdio_output@@YAXABV?$string_output_adapter@_W@0@DHQAH@Z 10065450 f i libucrtd:output.obj
 0001:000648d0       ??0?$common_data@D@__crt_stdio_output@@IAE@XZ 100658d0 f i libucrtd:output.obj
 0001:000649a0       ??0?$common_data@_W@__crt_stdio_output@@IAE@XZ 100659a0 f i libucrtd:output.obj
 0001:00064a70       ??0?$output_adapter_data@DV?$stream_output_adapter@D@__crt_stdio_output@@@__crt_stdio_output@@IAE@ABV?$stream_output_adapter@D@1@_KQBDQAU__crt_locale_pointers@@QAD@Z 10065a70 f i libucrtd:output.obj
 0001:00064ae0       ??0?$output_adapter_data@DV?$string_output_adapter@D@__crt_stdio_output@@@__crt_stdio_output@@IAE@ABV?$string_output_adapter@D@1@_KQBDQAU__crt_locale_pointers@@QAD@Z 10065ae0 f i libucrtd:output.obj
 0001:00064b50       ??0?$output_adapter_data@_WV?$stream_output_adapter@_W@__crt_stdio_output@@@__crt_stdio_output@@IAE@ABV?$stream_output_adapter@_W@1@_KQB_WQAU__crt_locale_pointers@@QAD@Z 10065b50 f i libucrtd:output.obj
 0001:00064bc0       ??0?$output_adapter_data@_WV?$string_output_adapter@_W@__crt_stdio_output@@@__crt_stdio_output@@IAE@ABV?$string_output_adapter@_W@1@_KQB_WQAU__crt_locale_pointers@@QAD@Z 10065bc0 f i libucrtd:output.obj
 0001:00064c30       ??0?$output_processor@DV?$stream_output_adapter@D@__crt_stdio_output@@V?$format_validation_base@DV?$stream_output_adapter@D@__crt_stdio_output@@@2@@__crt_stdio_output@@QAE@ABV?$stream_output_adapter@D@1@_KQBDQAU__crt_locale_pointers@@QAD@Z 10065c30 f i libucrtd:output.obj
 0001:00064c80       ??0?$output_processor@DV?$stream_output_adapter@D@__crt_stdio_output@@V?$positional_parameter_base@DV?$stream_output_adapter@D@__crt_stdio_output@@@2@@__crt_stdio_output@@QAE@ABV?$stream_output_adapter@D@1@_KQBDQAU__crt_locale_pointers@@QAD@Z 10065c80 f i libucrtd:output.obj
 0001:00064cd0       ??0?$output_processor@DV?$stream_output_adapter@D@__crt_stdio_output@@V?$standard_base@DV?$stream_output_adapter@D@__crt_stdio_output@@@2@@__crt_stdio_output@@QAE@ABV?$stream_output_adapter@D@1@_KQBDQAU__crt_locale_pointers@@QAD@Z 10065cd0 f i libucrtd:output.obj
 0001:00064d20       ??0?$output_processor@DV?$string_output_adapter@D@__crt_stdio_output@@V?$format_validation_base@DV?$string_output_adapter@D@__crt_stdio_output@@@2@@__crt_stdio_output@@QAE@ABV?$string_output_adapter@D@1@_KQBDQAU__crt_locale_pointers@@QAD@Z 10065d20 f i libucrtd:output.obj
 0001:00064d70       ??0?$output_processor@DV?$string_output_adapter@D@__crt_stdio_output@@V?$positional_parameter_base@DV?$string_output_adapter@D@__crt_stdio_output@@@2@@__crt_stdio_output@@QAE@ABV?$string_output_adapter@D@1@_KQBDQAU__crt_locale_pointers@@QAD@Z 10065d70 f i libucrtd:output.obj
 0001:00064dc0       ??0?$output_processor@DV?$string_output_adapter@D@__crt_stdio_output@@V?$standard_base@DV?$string_output_adapter@D@__crt_stdio_output@@@2@@__crt_stdio_output@@QAE@ABV?$string_output_adapter@D@1@_KQBDQAU__crt_locale_pointers@@QAD@Z 10065dc0 f i libucrtd:output.obj
 0001:00064e10       ??0?$output_processor@_WV?$stream_output_adapter@_W@__crt_stdio_output@@V?$format_validation_base@_WV?$stream_output_adapter@_W@__crt_stdio_output@@@2@@__crt_stdio_output@@QAE@ABV?$stream_output_adapter@_W@1@_KQB_WQAU__crt_locale_pointers@@QAD@Z 10065e10 f i libucrtd:output.obj
 0001:00064e60       ??0?$output_processor@_WV?$stream_output_adapter@_W@__crt_stdio_output@@V?$positional_parameter_base@_WV?$stream_output_adapter@_W@__crt_stdio_output@@@2@@__crt_stdio_output@@QAE@ABV?$stream_output_adapter@_W@1@_KQB_WQAU__crt_locale_pointers@@QAD@Z 10065e60 f i libucrtd:output.obj
 0001:00064eb0       ??0?$output_processor@_WV?$stream_output_adapter@_W@__crt_stdio_output@@V?$standard_base@_WV?$stream_output_adapter@_W@__crt_stdio_output@@@2@@__crt_stdio_output@@QAE@ABV?$stream_output_adapter@_W@1@_KQB_WQAU__crt_locale_pointers@@QAD@Z 10065eb0 f i libucrtd:output.obj
 0001:00064f00       ??0?$output_processor@_WV?$string_output_adapter@_W@__crt_stdio_output@@V?$format_validation_base@_WV?$string_output_adapter@_W@__crt_stdio_output@@@2@@__crt_stdio_output@@QAE@ABV?$string_output_adapter@_W@1@_KQB_WQAU__crt_locale_pointers@@QAD@Z 10065f00 f i libucrtd:output.obj
 0001:00064f50       ??0?$output_processor@_WV?$string_output_adapter@_W@__crt_stdio_output@@V?$positional_parameter_base@_WV?$string_output_adapter@_W@__crt_stdio_output@@@2@@__crt_stdio_output@@QAE@ABV?$string_output_adapter@_W@1@_KQB_WQAU__crt_locale_pointers@@QAD@Z 10065f50 f i libucrtd:output.obj
 0001:00064fa0       ??0?$output_processor@_WV?$string_output_adapter@_W@__crt_stdio_output@@V?$standard_base@_WV?$string_output_adapter@_W@__crt_stdio_output@@@2@@__crt_stdio_output@@QAE@ABV?$string_output_adapter@_W@1@_KQB_WQAU__crt_locale_pointers@@QAD@Z 10065fa0 f i libucrtd:output.obj
 0001:00064ff0       ??0?$stream_output_adapter@D@__crt_stdio_output@@QAE@QAU_iobuf@@@Z 10065ff0 f i libucrtd:output.obj
 0001:00065020       ??0?$stream_output_adapter@_W@__crt_stdio_output@@QAE@QAU_iobuf@@@Z 10066020 f i libucrtd:output.obj
 0001:00065050       ??0?$string_output_adapter@D@__crt_stdio_output@@QAE@QAU?$string_output_adapter_context@D@1@@Z 10066050 f i libucrtd:output.obj
 0001:00065070       ??0?$string_output_adapter@_W@__crt_stdio_output@@QAE@QAU?$string_output_adapter_context@_W@1@@Z 10066070 f i libucrtd:output.obj
 0001:00065090       ??0__acrt_stdio_temporary_buffering_guard@@QAE@QAU_iobuf@@@Z 10066090 f i libucrtd:output.obj
 0001:000650d0       ??0__crt_errno_guard@@QAE@QAH@Z 100660d0 f i libucrtd:output.obj
 0001:00065110       ??0__crt_stdio_stream@@QAE@QAU_iobuf@@@Z 10066110 f i libucrtd:output.obj
 0001:00065130       ??0formatting_buffer@__crt_stdio_output@@QAE@XZ 10066130 f i libucrtd:output.obj
 0001:00065170       ??1?$common_data@D@__crt_stdio_output@@QAE@XZ 10066170 f i libucrtd:output.obj
 0001:00065190       ??1?$common_data@_W@__crt_stdio_output@@QAE@XZ 10066190 f i libucrtd:output.obj
 0001:000651b0       ??1?$format_validation_base@DV?$stream_output_adapter@D@__crt_stdio_output@@@__crt_stdio_output@@QAE@XZ 100661b0 f i libucrtd:output.obj
 0001:000651d0       ??1?$format_validation_base@DV?$string_output_adapter@D@__crt_stdio_output@@@__crt_stdio_output@@QAE@XZ 100661d0 f i libucrtd:output.obj
 0001:000651f0       ??1?$format_validation_base@_WV?$stream_output_adapter@_W@__crt_stdio_output@@@__crt_stdio_output@@QAE@XZ 100661f0 f i libucrtd:output.obj
 0001:00065210       ??1?$format_validation_base@_WV?$string_output_adapter@_W@__crt_stdio_output@@@__crt_stdio_output@@QAE@XZ 10066210 f i libucrtd:output.obj
 0001:00065230       ??1?$output_adapter_data@DV?$stream_output_adapter@D@__crt_stdio_output@@@__crt_stdio_output@@QAE@XZ 10066230 f i libucrtd:output.obj
 0001:00065250       ??1?$output_adapter_data@DV?$string_output_adapter@D@__crt_stdio_output@@@__crt_stdio_output@@QAE@XZ 10066250 f i libucrtd:output.obj
 0001:00065270       ??1?$output_adapter_data@_WV?$stream_output_adapter@_W@__crt_stdio_output@@@__crt_stdio_output@@QAE@XZ 10066270 f i libucrtd:output.obj
 0001:00065290       ??1?$output_adapter_data@_WV?$string_output_adapter@_W@__crt_stdio_output@@@__crt_stdio_output@@QAE@XZ 10066290 f i libucrtd:output.obj
 0001:000652b0       ??1?$output_processor@DV?$stream_output_adapter@D@__crt_stdio_output@@V?$format_validation_base@DV?$stream_output_adapter@D@__crt_stdio_output@@@2@@__crt_stdio_output@@QAE@XZ 100662b0 f i libucrtd:output.obj
 0001:000652d0       ??1?$output_processor@DV?$stream_output_adapter@D@__crt_stdio_output@@V?$positional_parameter_base@DV?$stream_output_adapter@D@__crt_stdio_output@@@2@@__crt_stdio_output@@QAE@XZ 100662d0 f i libucrtd:output.obj
 0001:000652f0       ??1?$output_processor@DV?$stream_output_adapter@D@__crt_stdio_output@@V?$standard_base@DV?$stream_output_adapter@D@__crt_stdio_output@@@2@@__crt_stdio_output@@QAE@XZ 100662f0 f i libucrtd:output.obj
 0001:00065310       ??1?$output_processor@DV?$string_output_adapter@D@__crt_stdio_output@@V?$format_validation_base@DV?$string_output_adapter@D@__crt_stdio_output@@@2@@__crt_stdio_output@@QAE@XZ 10066310 f i libucrtd:output.obj
 0001:00065330       ??1?$output_processor@DV?$string_output_adapter@D@__crt_stdio_output@@V?$positional_parameter_base@DV?$string_output_adapter@D@__crt_stdio_output@@@2@@__crt_stdio_output@@QAE@XZ 10066330 f i libucrtd:output.obj
 0001:00065350       ??1?$output_processor@DV?$string_output_adapter@D@__crt_stdio_output@@V?$standard_base@DV?$string_output_adapter@D@__crt_stdio_output@@@2@@__crt_stdio_output@@QAE@XZ 10066350 f i libucrtd:output.obj
 0001:00065370       ??1?$output_processor@_WV?$stream_output_adapter@_W@__crt_stdio_output@@V?$format_validation_base@_WV?$stream_output_adapter@_W@__crt_stdio_output@@@2@@__crt_stdio_output@@QAE@XZ 10066370 f i libucrtd:output.obj
 0001:00065390       ??1?$output_processor@_WV?$stream_output_adapter@_W@__crt_stdio_output@@V?$positional_parameter_base@_WV?$stream_output_adapter@_W@__crt_stdio_output@@@2@@__crt_stdio_output@@QAE@XZ 10066390 f i libucrtd:output.obj
 0001:000653b0       ??1?$output_processor@_WV?$stream_output_adapter@_W@__crt_stdio_output@@V?$standard_base@_WV?$stream_output_adapter@_W@__crt_stdio_output@@@2@@__crt_stdio_output@@QAE@XZ 100663b0 f i libucrtd:output.obj
 0001:000653d0       ??1?$output_processor@_WV?$string_output_adapter@_W@__crt_stdio_output@@V?$format_validation_base@_WV?$string_output_adapter@_W@__crt_stdio_output@@@2@@__crt_stdio_output@@QAE@XZ 100663d0 f i libucrtd:output.obj
 0001:000653f0       ??1?$output_processor@_WV?$string_output_adapter@_W@__crt_stdio_output@@V?$positional_parameter_base@_WV?$string_output_adapter@_W@__crt_stdio_output@@@2@@__crt_stdio_output@@QAE@XZ 100663f0 f i libucrtd:output.obj
 0001:00065410       ??1?$output_processor@_WV?$string_output_adapter@_W@__crt_stdio_output@@V?$standard_base@_WV?$string_output_adapter@_W@__crt_stdio_output@@@2@@__crt_stdio_output@@QAE@XZ 10066410 f i libucrtd:output.obj
 0001:00065430       ??1?$positional_parameter_base@DV?$stream_output_adapter@D@__crt_stdio_output@@@__crt_stdio_output@@QAE@XZ 10066430 f i libucrtd:output.obj
 0001:00065450       ??1?$positional_parameter_base@DV?$string_output_adapter@D@__crt_stdio_output@@@__crt_stdio_output@@QAE@XZ 10066450 f i libucrtd:output.obj
 0001:00065470       ??1?$positional_parameter_base@_WV?$stream_output_adapter@_W@__crt_stdio_output@@@__crt_stdio_output@@QAE@XZ 10066470 f i libucrtd:output.obj
 0001:00065490       ??1?$positional_parameter_base@_WV?$string_output_adapter@_W@__crt_stdio_output@@@__crt_stdio_output@@QAE@XZ 10066490 f i libucrtd:output.obj
 0001:000654b0       ??1?$standard_base@DV?$stream_output_adapter@D@__crt_stdio_output@@@__crt_stdio_output@@QAE@XZ 100664b0 f i libucrtd:output.obj
 0001:000654d0       ??1?$standard_base@DV?$string_output_adapter@D@__crt_stdio_output@@@__crt_stdio_output@@QAE@XZ 100664d0 f i libucrtd:output.obj
 0001:000654f0       ??1?$standard_base@_WV?$stream_output_adapter@_W@__crt_stdio_output@@@__crt_stdio_output@@QAE@XZ 100664f0 f i libucrtd:output.obj
 0001:00065510       ??1?$standard_base@_WV?$string_output_adapter@_W@__crt_stdio_output@@@__crt_stdio_output@@QAE@XZ 10066510 f i libucrtd:output.obj
 0001:00065530       ??1__acrt_stdio_temporary_buffering_guard@@QAE@XZ 10066530 f i libucrtd:output.obj
 0001:00065560       ??1__crt_errno_guard@@QAE@XZ 10066560 f i libucrtd:output.obj
 0001:000655a0       ??1formatting_buffer@__crt_stdio_output@@QAE@XZ 100665a0 f i libucrtd:output.obj
 0001:000655d0       ??4?$__crt_unique_heap_ptr@DU__crt_internal_free_policy@@@@QAEAAV0@$$QAV0@@Z 100665d0 f i libucrtd:output.obj
 0001:00065610       ??C__crt_stdio_stream@@QBEPAU__crt_stdio_stream_data@@XZ 10066610 f i libucrtd:output.obj
 0001:00065f30       ?adjust_hexit@?$output_processor@DV?$stream_output_adapter@D@__crt_stdio_output@@V?$format_validation_base@DV?$stream_output_adapter@D@__crt_stdio_output@@@2@@__crt_stdio_output@@CADH_N@Z 10066f30 f i libucrtd:output.obj
 0001:00065f80       ?adjust_hexit@?$output_processor@DV?$stream_output_adapter@D@__crt_stdio_output@@V?$positional_parameter_base@DV?$stream_output_adapter@D@__crt_stdio_output@@@2@@__crt_stdio_output@@CADH_N@Z 10066f80 f i libucrtd:output.obj
 0001:00065fd0       ?adjust_hexit@?$output_processor@DV?$stream_output_adapter@D@__crt_stdio_output@@V?$standard_base@DV?$stream_output_adapter@D@__crt_stdio_output@@@2@@__crt_stdio_output@@CADH_N@Z 10066fd0 f i libucrtd:output.obj
 0001:00066020       ?adjust_hexit@?$output_processor@DV?$string_output_adapter@D@__crt_stdio_output@@V?$format_validation_base@DV?$string_output_adapter@D@__crt_stdio_output@@@2@@__crt_stdio_output@@CADH_N@Z 10067020 f i libucrtd:output.obj
 0001:00066070       ?adjust_hexit@?$output_processor@DV?$string_output_adapter@D@__crt_stdio_output@@V?$positional_parameter_base@DV?$string_output_adapter@D@__crt_stdio_output@@@2@@__crt_stdio_output@@CADH_N@Z 10067070 f i libucrtd:output.obj
 0001:000660c0       ?adjust_hexit@?$output_processor@DV?$string_output_adapter@D@__crt_stdio_output@@V?$standard_base@DV?$string_output_adapter@D@__crt_stdio_output@@@2@@__crt_stdio_output@@CADH_N@Z 100670c0 f i libucrtd:output.obj
 0001:00066110       ?adjust_hexit@?$output_processor@_WV?$stream_output_adapter@_W@__crt_stdio_output@@V?$format_validation_base@_WV?$stream_output_adapter@_W@__crt_stdio_output@@@2@@__crt_stdio_output@@CADH_N@Z 10067110 f i libucrtd:output.obj
 0001:00066160       ?adjust_hexit@?$output_processor@_WV?$stream_output_adapter@_W@__crt_stdio_output@@V?$positional_parameter_base@_WV?$stream_output_adapter@_W@__crt_stdio_output@@@2@@__crt_stdio_output@@CADH_N@Z 10067160 f i libucrtd:output.obj
 0001:000661b0       ?adjust_hexit@?$output_processor@_WV?$stream_output_adapter@_W@__crt_stdio_output@@V?$standard_base@_WV?$stream_output_adapter@_W@__crt_stdio_output@@@2@@__crt_stdio_output@@CADH_N@Z 100671b0 f i libucrtd:output.obj
 0001:00066200       ?adjust_hexit@?$output_processor@_WV?$string_output_adapter@_W@__crt_stdio_output@@V?$format_validation_base@_WV?$string_output_adapter@_W@__crt_stdio_output@@@2@@__crt_stdio_output@@CADH_N@Z 10067200 f i libucrtd:output.obj
 0001:00066250       ?adjust_hexit@?$output_processor@_WV?$string_output_adapter@_W@__crt_stdio_output@@V?$positional_parameter_base@_WV?$string_output_adapter@_W@__crt_stdio_output@@@2@@__crt_stdio_output@@CADH_N@Z 10067250 f i libucrtd:output.obj
 0001:000662a0       ?adjust_hexit@?$output_processor@_WV?$string_output_adapter@_W@__crt_stdio_output@@V?$standard_base@_WV?$string_output_adapter@_W@__crt_stdio_output@@@2@@__crt_stdio_output@@CADH_N@Z 100672a0 f i libucrtd:output.obj
 0001:000662f0       ?advance_to_next_pass@?$positional_parameter_base@DV?$stream_output_adapter@D@__crt_stdio_output@@@__crt_stdio_output@@IAE_NXZ 100672f0 f i libucrtd:output.obj
 0001:000663b0       ?advance_to_next_pass@?$positional_parameter_base@DV?$string_output_adapter@D@__crt_stdio_output@@@__crt_stdio_output@@IAE_NXZ 100673b0 f i libucrtd:output.obj
 0001:00066470       ?advance_to_next_pass@?$positional_parameter_base@_WV?$stream_output_adapter@_W@__crt_stdio_output@@@__crt_stdio_output@@IAE_NXZ 10067470 f i libucrtd:output.obj
 0001:00066530       ?advance_to_next_pass@?$positional_parameter_base@_WV?$string_output_adapter@_W@__crt_stdio_output@@@__crt_stdio_output@@IAE_NXZ 10067530 f i libucrtd:output.obj
 0001:000665f0       ?advance_to_next_pass@?$standard_base@DV?$stream_output_adapter@D@__crt_stdio_output@@@__crt_stdio_output@@IAE_NXZ 100675f0 f i libucrtd:output.obj
 0001:00066650       ?advance_to_next_pass@?$standard_base@DV?$string_output_adapter@D@__crt_stdio_output@@@__crt_stdio_output@@IAE_NXZ 10067650 f i libucrtd:output.obj
 0001:000666b0       ?advance_to_next_pass@?$standard_base@_WV?$stream_output_adapter@_W@__crt_stdio_output@@@__crt_stdio_output@@IAE_NXZ 100676b0 f i libucrtd:output.obj
 0001:00066710       ?advance_to_next_pass@?$standard_base@_WV?$string_output_adapter@_W@__crt_stdio_output@@@__crt_stdio_output@@IAE_NXZ 10067710 f i libucrtd:output.obj
 0001:00066770       ?crop_zeroes@__crt_stdio_output@@YAXPADQAU__crt_locale_pointers@@@Z 10067770 f i libucrtd:output.obj
 0001:000668a0       ?find_next_state@?$output_processor@DV?$stream_output_adapter@D@__crt_stdio_output@@V?$format_validation_base@DV?$stream_output_adapter@D@__crt_stdio_output@@@2@@__crt_stdio_output@@ABE?AW4state@2@DW432@@Z 100678a0 f i libucrtd:output.obj
 0001:00066930       ?find_next_state@?$output_processor@DV?$stream_output_adapter@D@__crt_stdio_output@@V?$positional_parameter_base@DV?$stream_output_adapter@D@__crt_stdio_output@@@2@@__crt_stdio_output@@ABE?AW4state@2@DW432@@Z 10067930 f i libucrtd:output.obj
 0001:000669c0       ?find_next_state@?$output_processor@DV?$stream_output_adapter@D@__crt_stdio_output@@V?$standard_base@DV?$stream_output_adapter@D@__crt_stdio_output@@@2@@__crt_stdio_output@@ABE?AW4state@2@DW432@@Z 100679c0 f i libucrtd:output.obj
 0001:00066a50       ?find_next_state@?$output_processor@DV?$string_output_adapter@D@__crt_stdio_output@@V?$format_validation_base@DV?$string_output_adapter@D@__crt_stdio_output@@@2@@__crt_stdio_output@@ABE?AW4state@2@DW432@@Z 10067a50 f i libucrtd:output.obj
 0001:00066ae0       ?find_next_state@?$output_processor@DV?$string_output_adapter@D@__crt_stdio_output@@V?$positional_parameter_base@DV?$string_output_adapter@D@__crt_stdio_output@@@2@@__crt_stdio_output@@ABE?AW4state@2@DW432@@Z 10067ae0 f i libucrtd:output.obj
 0001:00066b70       ?find_next_state@?$output_processor@DV?$string_output_adapter@D@__crt_stdio_output@@V?$standard_base@DV?$string_output_adapter@D@__crt_stdio_output@@@2@@__crt_stdio_output@@ABE?AW4state@2@DW432@@Z 10067b70 f i libucrtd:output.obj
 0001:00066c00       ?find_next_state@?$output_processor@_WV?$stream_output_adapter@_W@__crt_stdio_output@@V?$format_validation_base@_WV?$stream_output_adapter@_W@__crt_stdio_output@@@2@@__crt_stdio_output@@ABE?AW4state@2@_WW432@@Z 10067c00 f i libucrtd:output.obj
 0001:00066c90       ?find_next_state@?$output_processor@_WV?$stream_output_adapter@_W@__crt_stdio_output@@V?$positional_parameter_base@_WV?$stream_output_adapter@_W@__crt_stdio_output@@@2@@__crt_stdio_output@@ABE?AW4state@2@_WW432@@Z 10067c90 f i libucrtd:output.obj
 0001:00066d20       ?find_next_state@?$output_processor@_WV?$stream_output_adapter@_W@__crt_stdio_output@@V?$standard_base@_WV?$stream_output_adapter@_W@__crt_stdio_output@@@2@@__crt_stdio_output@@ABE?AW4state@2@_WW432@@Z 10067d20 f i libucrtd:output.obj
 0001:00066db0       ?find_next_state@?$output_processor@_WV?$string_output_adapter@_W@__crt_stdio_output@@V?$format_validation_base@_WV?$string_output_adapter@_W@__crt_stdio_output@@@2@@__crt_stdio_output@@ABE?AW4state@2@_WW432@@Z 10067db0 f i libucrtd:output.obj
 0001:00066e40       ?find_next_state@?$output_processor@_WV?$string_output_adapter@_W@__crt_stdio_output@@V?$positional_parameter_base@_WV?$string_output_adapter@_W@__crt_stdio_output@@@2@@__crt_stdio_output@@ABE?AW4state@2@_WW432@@Z 10067e40 f i libucrtd:output.obj
 0001:00066ed0       ?find_next_state@?$output_processor@_WV?$string_output_adapter@_W@__crt_stdio_output@@V?$standard_base@_WV?$string_output_adapter@_W@__crt_stdio_output@@@2@@__crt_stdio_output@@ABE?AW4state@2@_WW432@@Z 10067ed0 f i libucrtd:output.obj
 0001:00066f60       ?force_decimal_point@__crt_stdio_output@@YAXPADQAU__crt_locale_pointers@@@Z 10067f60 f i libucrtd:output.obj
 0001:00067040       ?get_flags@__crt_stdio_stream@@QBEJXZ 10068040 f i libucrtd:output.obj
 0001:00067070       ?get_parameter_type@?$positional_parameter_base@DV?$stream_output_adapter@D@__crt_stdio_output@@@__crt_stdio_output@@CA?AW4parameter_type@12@F@Z 10068070 f i libucrtd:output.obj
 0001:00067080       ?get_parameter_type@?$positional_parameter_base@DV?$stream_output_adapter@D@__crt_stdio_output@@@__crt_stdio_output@@CA?AW4parameter_type@12@G@Z 10068080 f i libucrtd:output.obj
 0001:00067090       ?get_parameter_type@?$positional_parameter_base@DV?$stream_output_adapter@D@__crt_stdio_output@@@__crt_stdio_output@@CA?AW4parameter_type@12@H@Z 10068090 f i libucrtd:output.obj
 0001:000670a0       ?get_parameter_type@?$positional_parameter_base@DV?$stream_output_adapter@D@__crt_stdio_output@@@__crt_stdio_output@@CA?AW4parameter_type@12@I@Z 100680a0 f i libucrtd:output.obj
 0001:000670b0       ?get_parameter_type@?$positional_parameter_base@DV?$stream_output_adapter@D@__crt_stdio_output@@@__crt_stdio_output@@CA?AW4parameter_type@12@U_CRT_DOUBLE@@@Z 100680b0 f i libucrtd:output.obj
 0001:000670c0       ?get_parameter_type@?$positional_parameter_base@DV?$stream_output_adapter@D@__crt_stdio_output@@@__crt_stdio_output@@CA?AW4parameter_type@12@_J@Z 100680c0 f i libucrtd:output.obj
 0001:000670d0       ?get_parameter_type@?$positional_parameter_base@DV?$stream_output_adapter@D@__crt_stdio_output@@@__crt_stdio_output@@CA?AW4parameter_type@12@_K@Z 100680d0 f i libucrtd:output.obj
 0001:000670e0       ?get_parameter_type@?$positional_parameter_base@DV?$stream_output_adapter@D@__crt_stdio_output@@@__crt_stdio_output@@CA?AW4parameter_type@12@_W@Z 100680e0 f i libucrtd:output.obj
 0001:000670f0       ?get_parameter_type@?$positional_parameter_base@DV?$string_output_adapter@D@__crt_stdio_output@@@__crt_stdio_output@@CA?AW4parameter_type@12@F@Z 100680f0 f i libucrtd:output.obj
 0001:00067100       ?get_parameter_type@?$positional_parameter_base@DV?$string_output_adapter@D@__crt_stdio_output@@@__crt_stdio_output@@CA?AW4parameter_type@12@G@Z 10068100 f i libucrtd:output.obj
 0001:00067110       ?get_parameter_type@?$positional_parameter_base@DV?$string_output_adapter@D@__crt_stdio_output@@@__crt_stdio_output@@CA?AW4parameter_type@12@H@Z 10068110 f i libucrtd:output.obj
 0001:00067120       ?get_parameter_type@?$positional_parameter_base@DV?$string_output_adapter@D@__crt_stdio_output@@@__crt_stdio_output@@CA?AW4parameter_type@12@I@Z 10068120 f i libucrtd:output.obj
 0001:00067130       ?get_parameter_type@?$positional_parameter_base@DV?$string_output_adapter@D@__crt_stdio_output@@@__crt_stdio_output@@CA?AW4parameter_type@12@U_CRT_DOUBLE@@@Z 10068130 f i libucrtd:output.obj
 0001:00067140       ?get_parameter_type@?$positional_parameter_base@DV?$string_output_adapter@D@__crt_stdio_output@@@__crt_stdio_output@@CA?AW4parameter_type@12@_J@Z 10068140 f i libucrtd:output.obj
 0001:00067150       ?get_parameter_type@?$positional_parameter_base@DV?$string_output_adapter@D@__crt_stdio_output@@@__crt_stdio_output@@CA?AW4parameter_type@12@_K@Z 10068150 f i libucrtd:output.obj
 0001:00067160       ?get_parameter_type@?$positional_parameter_base@DV?$string_output_adapter@D@__crt_stdio_output@@@__crt_stdio_output@@CA?AW4parameter_type@12@_W@Z 10068160 f i libucrtd:output.obj
 0001:00067170       ?get_parameter_type@?$positional_parameter_base@_WV?$stream_output_adapter@_W@__crt_stdio_output@@@__crt_stdio_output@@CA?AW4parameter_type@12@F@Z 10068170 f i libucrtd:output.obj
 0001:00067180       ?get_parameter_type@?$positional_parameter_base@_WV?$stream_output_adapter@_W@__crt_stdio_output@@@__crt_stdio_output@@CA?AW4parameter_type@12@G@Z 10068180 f i libucrtd:output.obj
 0001:00067190       ?get_parameter_type@?$positional_parameter_base@_WV?$stream_output_adapter@_W@__crt_stdio_output@@@__crt_stdio_output@@CA?AW4parameter_type@12@H@Z 10068190 f i libucrtd:output.obj
 0001:000671a0       ?get_parameter_type@?$positional_parameter_base@_WV?$stream_output_adapter@_W@__crt_stdio_output@@@__crt_stdio_output@@CA?AW4parameter_type@12@I@Z 100681a0 f i libucrtd:output.obj
 0001:000671b0       ?get_parameter_type@?$positional_parameter_base@_WV?$stream_output_adapter@_W@__crt_stdio_output@@@__crt_stdio_output@@CA?AW4parameter_type@12@U_CRT_DOUBLE@@@Z 100681b0 f i libucrtd:output.obj
 0001:000671c0       ?get_parameter_type@?$positional_parameter_base@_WV?$stream_output_adapter@_W@__crt_stdio_output@@@__crt_stdio_output@@CA?AW4parameter_type@12@_J@Z 100681c0 f i libucrtd:output.obj
 0001:000671d0       ?get_parameter_type@?$positional_parameter_base@_WV?$stream_output_adapter@_W@__crt_stdio_output@@@__crt_stdio_output@@CA?AW4parameter_type@12@_K@Z 100681d0 f i libucrtd:output.obj
 0001:000671e0       ?get_parameter_type@?$positional_parameter_base@_WV?$stream_output_adapter@_W@__crt_stdio_output@@@__crt_stdio_output@@CA?AW4parameter_type@12@_W@Z 100681e0 f i libucrtd:output.obj
 0001:000671f0       ?get_parameter_type@?$positional_parameter_base@_WV?$string_output_adapter@_W@__crt_stdio_output@@@__crt_stdio_output@@CA?AW4parameter_type@12@F@Z 100681f0 f i libucrtd:output.obj
 0001:00067200       ?get_parameter_type@?$positional_parameter_base@_WV?$string_output_adapter@_W@__crt_stdio_output@@@__crt_stdio_output@@CA?AW4parameter_type@12@G@Z 10068200 f i libucrtd:output.obj
 0001:00067210       ?get_parameter_type@?$positional_parameter_base@_WV?$string_output_adapter@_W@__crt_stdio_output@@@__crt_stdio_output@@CA?AW4parameter_type@12@H@Z 10068210 f i libucrtd:output.obj
 0001:00067220       ?get_parameter_type@?$positional_parameter_base@_WV?$string_output_adapter@_W@__crt_stdio_output@@@__crt_stdio_output@@CA?AW4parameter_type@12@I@Z 10068220 f i libucrtd:output.obj
 0001:00067230       ?get_parameter_type@?$positional_parameter_base@_WV?$string_output_adapter@_W@__crt_stdio_output@@@__crt_stdio_output@@CA?AW4parameter_type@12@U_CRT_DOUBLE@@@Z 10068230 f i libucrtd:output.obj
 0001:00067240       ?get_parameter_type@?$positional_parameter_base@_WV?$string_output_adapter@_W@__crt_stdio_output@@@__crt_stdio_output@@CA?AW4parameter_type@12@_J@Z 10068240 f i libucrtd:output.obj
 0001:00067250       ?get_parameter_type@?$positional_parameter_base@_WV?$string_output_adapter@_W@__crt_stdio_output@@@__crt_stdio_output@@CA?AW4parameter_type@12@_K@Z 10068250 f i libucrtd:output.obj
 0001:00067260       ?get_parameter_type@?$positional_parameter_base@_WV?$string_output_adapter@_W@__crt_stdio_output@@@__crt_stdio_output@@CA?AW4parameter_type@12@_W@Z 10068260 f i libucrtd:output.obj
 0001:00067270       ?has_flag@?$output_processor@DV?$stream_output_adapter@D@__crt_stdio_output@@V?$format_validation_base@DV?$stream_output_adapter@D@__crt_stdio_output@@@2@@__crt_stdio_output@@ABE_NI@Z 10068270 f i libucrtd:output.obj
 0001:000672b0       ?has_flag@?$output_processor@DV?$stream_output_adapter@D@__crt_stdio_output@@V?$positional_parameter_base@DV?$stream_output_adapter@D@__crt_stdio_output@@@2@@__crt_stdio_output@@ABE_NI@Z 100682b0 f i libucrtd:output.obj
 0001:000672f0       ?has_flag@?$output_processor@DV?$stream_output_adapter@D@__crt_stdio_output@@V?$standard_base@DV?$stream_output_adapter@D@__crt_stdio_output@@@2@@__crt_stdio_output@@ABE_NI@Z 100682f0 f i libucrtd:output.obj
 0001:00067330       ?has_flag@?$output_processor@DV?$string_output_adapter@D@__crt_stdio_output@@V?$format_validation_base@DV?$string_output_adapter@D@__crt_stdio_output@@@2@@__crt_stdio_output@@ABE_NI@Z 10068330 f i libucrtd:output.obj
 0001:00067370       ?has_flag@?$output_processor@DV?$string_output_adapter@D@__crt_stdio_output@@V?$positional_parameter_base@DV?$string_output_adapter@D@__crt_stdio_output@@@2@@__crt_stdio_output@@ABE_NI@Z 10068370 f i libucrtd:output.obj
 0001:000673b0       ?has_flag@?$output_processor@DV?$string_output_adapter@D@__crt_stdio_output@@V?$standard_base@DV?$string_output_adapter@D@__crt_stdio_output@@@2@@__crt_stdio_output@@ABE_NI@Z 100683b0 f i libucrtd:output.obj
 0001:000673f0       ?has_flag@?$output_processor@_WV?$stream_output_adapter@_W@__crt_stdio_output@@V?$format_validation_base@_WV?$stream_output_adapter@_W@__crt_stdio_output@@@2@@__crt_stdio_output@@ABE_NI@Z 100683f0 f i libucrtd:output.obj
 0001:00067430       ?has_flag@?$output_processor@_WV?$stream_output_adapter@_W@__crt_stdio_output@@V?$positional_parameter_base@_WV?$stream_output_adapter@_W@__crt_stdio_output@@@2@@__crt_stdio_output@@ABE_NI@Z 10068430 f i libucrtd:output.obj
 0001:00067470       ?has_flag@?$output_processor@_WV?$stream_output_adapter@_W@__crt_stdio_output@@V?$standard_base@_WV?$stream_output_adapter@_W@__crt_stdio_output@@@2@@__crt_stdio_output@@ABE_NI@Z 10068470 f i libucrtd:output.obj
 0001:000674b0       ?has_flag@?$output_processor@_WV?$string_output_adapter@_W@__crt_stdio_output@@V?$format_validation_base@_WV?$string_output_adapter@_W@__crt_stdio_output@@@2@@__crt_stdio_output@@ABE_NI@Z 100684b0 f i libucrtd:output.obj
 0001:000674f0       ?has_flag@?$output_processor@_WV?$string_output_adapter@_W@__crt_stdio_output@@V?$positional_parameter_base@_WV?$string_output_adapter@_W@__crt_stdio_output@@@2@@__crt_stdio_output@@ABE_NI@Z 100684f0 f i libucrtd:output.obj
 0001:00067530       ?has_flag@?$output_processor@_WV?$string_output_adapter@_W@__crt_stdio_output@@V?$standard_base@_WV?$string_output_adapter@_W@__crt_stdio_output@@@2@@__crt_stdio_output@@ABE_NI@Z 10068530 f i libucrtd:output.obj
 0001:00067570       ?is_positional_parameter_reappearance_consistent@?$positional_parameter_base@DV?$stream_output_adapter@D@__crt_stdio_output@@@__crt_stdio_output@@AAE_NABUparameter_data@12@W4parameter_type@12@DW4length_modifier@2@@Z 10068570 f i libucrtd:output.obj
 0001:00067820       ?is_positional_parameter_reappearance_consistent@?$positional_parameter_base@DV?$string_output_adapter@D@__crt_stdio_output@@@__crt_stdio_output@@AAE_NABUparameter_data@12@W4parameter_type@12@DW4length_modifier@2@@Z 10068820 f i libucrtd:output.obj
 0001:00067ad0       ?is_positional_parameter_reappearance_consistent@?$positional_parameter_base@_WV?$stream_output_adapter@_W@__crt_stdio_output@@@__crt_stdio_output@@AAE_NABUparameter_data@12@W4parameter_type@12@_WW4length_modifier@2@@Z 10068ad0 f i libucrtd:output.obj
 0001:00067d80       ?is_positional_parameter_reappearance_consistent@?$positional_parameter_base@_WV?$string_output_adapter@_W@__crt_stdio_output@@@__crt_stdio_output@@AAE_NABUparameter_data@12@W4parameter_type@12@_WW4length_modifier@2@@Z 10068d80 f i libucrtd:output.obj
 0001:00068030       ?is_string_backed@__crt_stdio_stream@@QBE_NXZ 10069030 f i libucrtd:output.obj
 0001:00068070       ?narrow_null_string@?$output_processor@DV?$stream_output_adapter@D@__crt_stdio_output@@V?$format_validation_base@DV?$stream_output_adapter@D@__crt_stdio_output@@@2@@__crt_stdio_output@@CAPADXZ 10069070 f i libucrtd:output.obj
 0001:00068080       ?narrow_null_string@?$output_processor@DV?$stream_output_adapter@D@__crt_stdio_output@@V?$positional_parameter_base@DV?$stream_output_adapter@D@__crt_stdio_output@@@2@@__crt_stdio_output@@CAPADXZ 10069080 f i libucrtd:output.obj
 0001:00068090       ?narrow_null_string@?$output_processor@DV?$stream_output_adapter@D@__crt_stdio_output@@V?$standard_base@DV?$stream_output_adapter@D@__crt_stdio_output@@@2@@__crt_stdio_output@@CAPADXZ 10069090 f i libucrtd:output.obj
 0001:000680a0       ?narrow_null_string@?$output_processor@DV?$string_output_adapter@D@__crt_stdio_output@@V?$format_validation_base@DV?$string_output_adapter@D@__crt_stdio_output@@@2@@__crt_stdio_output@@CAPADXZ 100690a0 f i libucrtd:output.obj
 0001:000680b0       ?narrow_null_string@?$output_processor@DV?$string_output_adapter@D@__crt_stdio_output@@V?$positional_parameter_base@DV?$string_output_adapter@D@__crt_stdio_output@@@2@@__crt_stdio_output@@CAPADXZ 100690b0 f i libucrtd:output.obj
 0001:000680c0       ?narrow_null_string@?$output_processor@DV?$string_output_adapter@D@__crt_stdio_output@@V?$standard_base@DV?$string_output_adapter@D@__crt_stdio_output@@@2@@__crt_stdio_output@@CAPADXZ 100690c0 f i libucrtd:output.obj
 0001:000680d0       ?narrow_null_string@?$output_processor@_WV?$stream_output_adapter@_W@__crt_stdio_output@@V?$format_validation_base@_WV?$stream_output_adapter@_W@__crt_stdio_output@@@2@@__crt_stdio_output@@CAPADXZ 100690d0 f i libucrtd:output.obj
 0001:000680e0       ?narrow_null_string@?$output_processor@_WV?$stream_output_adapter@_W@__crt_stdio_output@@V?$positional_parameter_base@_WV?$stream_output_adapter@_W@__crt_stdio_output@@@2@@__crt_stdio_output@@CAPADXZ 100690e0 f i libucrtd:output.obj
 0001:000680f0       ?narrow_null_string@?$output_processor@_WV?$stream_output_adapter@_W@__crt_stdio_output@@V?$standard_base@_WV?$stream_output_adapter@_W@__crt_stdio_output@@@2@@__crt_stdio_output@@CAPADXZ 100690f0 f i libucrtd:output.obj
 0001:00068100       ?narrow_null_string@?$output_processor@_WV?$string_output_adapter@_W@__crt_stdio_output@@V?$format_validation_base@_WV?$string_output_adapter@_W@__crt_stdio_output@@@2@@__crt_stdio_output@@CAPADXZ 10069100 f i libucrtd:output.obj
 0001:00068110       ?narrow_null_string@?$output_processor@_WV?$string_output_adapter@_W@__crt_stdio_output@@V?$positional_parameter_base@_WV?$string_output_adapter@_W@__crt_stdio_output@@@2@@__crt_stdio_output@@CAPADXZ 10069110 f i libucrtd:output.obj
 0001:00068120       ?narrow_null_string@?$output_processor@_WV?$string_output_adapter@_W@__crt_stdio_output@@V?$standard_base@_WV?$string_output_adapter@_W@__crt_stdio_output@@@2@@__crt_stdio_output@@CAPADXZ 10069120 f i libucrtd:output.obj
 0001:00068130       ?parse_int_from_format_string@?$output_processor@DV?$stream_output_adapter@D@__crt_stdio_output@@V?$format_validation_base@DV?$stream_output_adapter@D@__crt_stdio_output@@@2@@__crt_stdio_output@@AAE_NQAH@Z 10069130 f i libucrtd:output.obj
 0001:00068210       ?parse_int_from_format_string@?$output_processor@DV?$stream_output_adapter@D@__crt_stdio_output@@V?$positional_parameter_base@DV?$stream_output_adapter@D@__crt_stdio_output@@@2@@__crt_stdio_output@@AAE_NQAH@Z 10069210 f i libucrtd:output.obj
 0001:000682f0       ?parse_int_from_format_string@?$output_processor@DV?$stream_output_adapter@D@__crt_stdio_output@@V?$standard_base@DV?$stream_output_adapter@D@__crt_stdio_output@@@2@@__crt_stdio_output@@AAE_NQAH@Z 100692f0 f i libucrtd:output.obj
 0001:000683d0       ?parse_int_from_format_string@?$output_processor@DV?$string_output_adapter@D@__crt_stdio_output@@V?$format_validation_base@DV?$string_output_adapter@D@__crt_stdio_output@@@2@@__crt_stdio_output@@AAE_NQAH@Z 100693d0 f i libucrtd:output.obj
 0001:000684b0       ?parse_int_from_format_string@?$output_processor@DV?$string_output_adapter@D@__crt_stdio_output@@V?$positional_parameter_base@DV?$string_output_adapter@D@__crt_stdio_output@@@2@@__crt_stdio_output@@AAE_NQAH@Z 100694b0 f i libucrtd:output.obj
 0001:00068590       ?parse_int_from_format_string@?$output_processor@DV?$string_output_adapter@D@__crt_stdio_output@@V?$standard_base@DV?$string_output_adapter@D@__crt_stdio_output@@@2@@__crt_stdio_output@@AAE_NQAH@Z 10069590 f i libucrtd:output.obj
 0001:00068670       ?parse_int_from_format_string@?$output_processor@_WV?$stream_output_adapter@_W@__crt_stdio_output@@V?$format_validation_base@_WV?$stream_output_adapter@_W@__crt_stdio_output@@@2@@__crt_stdio_output@@AAE_NQAH@Z 10069670 f i libucrtd:output.obj
 0001:00068750       ?parse_int_from_format_string@?$output_processor@_WV?$stream_output_adapter@_W@__crt_stdio_output@@V?$positional_parameter_base@_WV?$stream_output_adapter@_W@__crt_stdio_output@@@2@@__crt_stdio_output@@AAE_NQAH@Z 10069750 f i libucrtd:output.obj
 0001:00068830       ?parse_int_from_format_string@?$output_processor@_WV?$stream_output_adapter@_W@__crt_stdio_output@@V?$standard_base@_WV?$stream_output_adapter@_W@__crt_stdio_output@@@2@@__crt_stdio_output@@AAE_NQAH@Z 10069830 f i libucrtd:output.obj
 0001:00068910       ?parse_int_from_format_string@?$output_processor@_WV?$string_output_adapter@_W@__crt_stdio_output@@V?$format_validation_base@_WV?$string_output_adapter@_W@__crt_stdio_output@@@2@@__crt_stdio_output@@AAE_NQAH@Z 10069910 f i libucrtd:output.obj
 0001:000689f0       ?parse_int_from_format_string@?$output_processor@_WV?$string_output_adapter@_W@__crt_stdio_output@@V?$positional_parameter_base@_WV?$string_output_adapter@_W@__crt_stdio_output@@@2@@__crt_stdio_output@@AAE_NQAH@Z 100699f0 f i libucrtd:output.obj
 0001:00068ad0       ?parse_int_from_format_string@?$output_processor@_WV?$string_output_adapter@_W@__crt_stdio_output@@V?$standard_base@_WV?$string_output_adapter@_W@__crt_stdio_output@@@2@@__crt_stdio_output@@AAE_NQAH@Z 10069ad0 f i libucrtd:output.obj
 0001:00068bb0       ?process@?$output_processor@DV?$stream_output_adapter@D@__crt_stdio_output@@V?$format_validation_base@DV?$stream_output_adapter@D@__crt_stdio_output@@@2@@__crt_stdio_output@@QAEHXZ 10069bb0 f i libucrtd:output.obj
 0001:00068f00       ?process@?$output_processor@DV?$stream_output_adapter@D@__crt_stdio_output@@V?$positional_parameter_base@DV?$stream_output_adapter@D@__crt_stdio_output@@@2@@__crt_stdio_output@@QAEHXZ 10069f00 f i libucrtd:output.obj
 0001:00069250       ?process@?$output_processor@DV?$stream_output_adapter@D@__crt_stdio_output@@V?$standard_base@DV?$stream_output_adapter@D@__crt_stdio_output@@@2@@__crt_stdio_output@@QAEHXZ 1006a250 f i libucrtd:output.obj
 0001:000695a0       ?process@?$output_processor@DV?$string_output_adapter@D@__crt_stdio_output@@V?$format_validation_base@DV?$string_output_adapter@D@__crt_stdio_output@@@2@@__crt_stdio_output@@QAEHXZ 1006a5a0 f i libucrtd:output.obj
 0001:000698f0       ?process@?$output_processor@DV?$string_output_adapter@D@__crt_stdio_output@@V?$positional_parameter_base@DV?$string_output_adapter@D@__crt_stdio_output@@@2@@__crt_stdio_output@@QAEHXZ 1006a8f0 f i libucrtd:output.obj
 0001:00069c40       ?process@?$output_processor@DV?$string_output_adapter@D@__crt_stdio_output@@V?$standard_base@DV?$string_output_adapter@D@__crt_stdio_output@@@2@@__crt_stdio_output@@QAEHXZ 1006ac40 f i libucrtd:output.obj
 0001:00069f90       ?process@?$output_processor@_WV?$stream_output_adapter@_W@__crt_stdio_output@@V?$format_validation_base@_WV?$stream_output_adapter@_W@__crt_stdio_output@@@2@@__crt_stdio_output@@QAEHXZ 1006af90 f i libucrtd:output.obj
 0001:0006a2e0       ?process@?$output_processor@_WV?$stream_output_adapter@_W@__crt_stdio_output@@V?$positional_parameter_base@_WV?$stream_output_adapter@_W@__crt_stdio_output@@@2@@__crt_stdio_output@@QAEHXZ 1006b2e0 f i libucrtd:output.obj
 0001:0006a630       ?process@?$output_processor@_WV?$stream_output_adapter@_W@__crt_stdio_output@@V?$standard_base@_WV?$stream_output_adapter@_W@__crt_stdio_output@@@2@@__crt_stdio_output@@QAEHXZ 1006b630 f i libucrtd:output.obj
 0001:0006a980       ?process@?$output_processor@_WV?$string_output_adapter@_W@__crt_stdio_output@@V?$format_validation_base@_WV?$string_output_adapter@_W@__crt_stdio_output@@@2@@__crt_stdio_output@@QAEHXZ 1006b980 f i libucrtd:output.obj
 0001:0006acd0       ?process@?$output_processor@_WV?$string_output_adapter@_W@__crt_stdio_output@@V?$positional_parameter_base@_WV?$string_output_adapter@_W@__crt_stdio_output@@@2@@__crt_stdio_output@@QAEHXZ 1006bcd0 f i libucrtd:output.obj
 0001:0006b020       ?process@?$output_processor@_WV?$string_output_adapter@_W@__crt_stdio_output@@V?$standard_base@_WV?$string_output_adapter@_W@__crt_stdio_output@@@2@@__crt_stdio_output@@QAEHXZ 1006c020 f i libucrtd:output.obj
 0001:0006b370       ?public_stream@__crt_stdio_stream@@QBEPAU_iobuf@@XZ 1006c370 f i libucrtd:output.obj
 0001:0006b390       ?set_flag@?$output_processor@DV?$stream_output_adapter@D@__crt_stdio_output@@V?$format_validation_base@DV?$stream_output_adapter@D@__crt_stdio_output@@@2@@__crt_stdio_output@@AAEXI@Z 1006c390 f i libucrtd:output.obj
 0001:0006b3c0       ?set_flag@?$output_processor@DV?$stream_output_adapter@D@__crt_stdio_output@@V?$positional_parameter_base@DV?$stream_output_adapter@D@__crt_stdio_output@@@2@@__crt_stdio_output@@AAEXI@Z 1006c3c0 f i libucrtd:output.obj
 0001:0006b3f0       ?set_flag@?$output_processor@DV?$stream_output_adapter@D@__crt_stdio_output@@V?$standard_base@DV?$stream_output_adapter@D@__crt_stdio_output@@@2@@__crt_stdio_output@@AAEXI@Z 1006c3f0 f i libucrtd:output.obj
 0001:0006b420       ?set_flag@?$output_processor@DV?$string_output_adapter@D@__crt_stdio_output@@V?$format_validation_base@DV?$string_output_adapter@D@__crt_stdio_output@@@2@@__crt_stdio_output@@AAEXI@Z 1006c420 f i libucrtd:output.obj
 0001:0006b450       ?set_flag@?$output_processor@DV?$string_output_adapter@D@__crt_stdio_output@@V?$positional_parameter_base@DV?$string_output_adapter@D@__crt_stdio_output@@@2@@__crt_stdio_output@@AAEXI@Z 1006c450 f i libucrtd:output.obj
 0001:0006b480       ?set_flag@?$output_processor@DV?$string_output_adapter@D@__crt_stdio_output@@V?$standard_base@DV?$string_output_adapter@D@__crt_stdio_output@@@2@@__crt_stdio_output@@AAEXI@Z 1006c480 f i libucrtd:output.obj
 0001:0006b4b0       ?set_flag@?$output_processor@_WV?$stream_output_adapter@_W@__crt_stdio_output@@V?$format_validation_base@_WV?$stream_output_adapter@_W@__crt_stdio_output@@@2@@__crt_stdio_output@@AAEXI@Z 1006c4b0 f i libucrtd:output.obj
 0001:0006b4e0       ?set_flag@?$output_processor@_WV?$stream_output_adapter@_W@__crt_stdio_output@@V?$positional_parameter_base@_WV?$stream_output_adapter@_W@__crt_stdio_output@@@2@@__crt_stdio_output@@AAEXI@Z 1006c4e0 f i libucrtd:output.obj
 0001:0006b510       ?set_flag@?$output_processor@_WV?$stream_output_adapter@_W@__crt_stdio_output@@V?$standard_base@_WV?$stream_output_adapter@_W@__crt_stdio_output@@@2@@__crt_stdio_output@@AAEXI@Z 1006c510 f i libucrtd:output.obj
 0001:0006b540       ?set_flag@?$output_processor@_WV?$string_output_adapter@_W@__crt_stdio_output@@V?$format_validation_base@_WV?$string_output_adapter@_W@__crt_stdio_output@@@2@@__crt_stdio_output@@AAEXI@Z 1006c540 f i libucrtd:output.obj
 0001:0006b570       ?set_flag@?$output_processor@_WV?$string_output_adapter@_W@__crt_stdio_output@@V?$positional_parameter_base@_WV?$string_output_adapter@_W@__crt_stdio_output@@@2@@__crt_stdio_output@@AAEXI@Z 1006c570 f i libucrtd:output.obj
 0001:0006b5a0       ?set_flag@?$output_processor@_WV?$string_output_adapter@_W@__crt_stdio_output@@V?$standard_base@_WV?$string_output_adapter@_W@__crt_stdio_output@@@2@@__crt_stdio_output@@AAEXI@Z 1006c5a0 f i libucrtd:output.obj
 0001:0006b5d0       ?should_format@?$positional_parameter_base@DV?$stream_output_adapter@D@__crt_stdio_output@@@__crt_stdio_output@@IAE_NXZ 1006c5d0 f i libucrtd:output.obj
 0001:0006b620       ?should_format@?$positional_parameter_base@DV?$string_output_adapter@D@__crt_stdio_output@@@__crt_stdio_output@@IAE_NXZ 1006c620 f i libucrtd:output.obj
 0001:0006b670       ?should_format@?$positional_parameter_base@_WV?$stream_output_adapter@_W@__crt_stdio_output@@@__crt_stdio_output@@IAE_NXZ 1006c670 f i libucrtd:output.obj
 0001:0006b6c0       ?should_format@?$positional_parameter_base@_WV?$string_output_adapter@_W@__crt_stdio_output@@@__crt_stdio_output@@IAE_NXZ 1006c6c0 f i libucrtd:output.obj
 0001:0006b710       ?should_format@?$standard_base@DV?$stream_output_adapter@D@__crt_stdio_output@@@__crt_stdio_output@@IAE_NXZ 1006c710 f i libucrtd:output.obj
 0001:0006b730       ?should_format@?$standard_base@DV?$string_output_adapter@D@__crt_stdio_output@@@__crt_stdio_output@@IAE_NXZ 1006c730 f i libucrtd:output.obj
 0001:0006b750       ?should_format@?$standard_base@_WV?$stream_output_adapter@_W@__crt_stdio_output@@@__crt_stdio_output@@IAE_NXZ 1006c750 f i libucrtd:output.obj
 0001:0006b770       ?should_format@?$standard_base@_WV?$string_output_adapter@_W@__crt_stdio_output@@@__crt_stdio_output@@IAE_NXZ 1006c770 f i libucrtd:output.obj
 0001:0006b790       ?should_skip_normal_state_processing@?$positional_parameter_base@DV?$stream_output_adapter@D@__crt_stdio_output@@@__crt_stdio_output@@IAE_NXZ 1006c790 f i libucrtd:output.obj
 0001:0006b7f0       ?should_skip_normal_state_processing@?$positional_parameter_base@DV?$string_output_adapter@D@__crt_stdio_output@@@__crt_stdio_output@@IAE_NXZ 1006c7f0 f i libucrtd:output.obj
 0001:0006b850       ?should_skip_normal_state_processing@?$positional_parameter_base@_WV?$stream_output_adapter@_W@__crt_stdio_output@@@__crt_stdio_output@@IAE_NXZ 1006c850 f i libucrtd:output.obj
 0001:0006b8b0       ?should_skip_normal_state_processing@?$positional_parameter_base@_WV?$string_output_adapter@_W@__crt_stdio_output@@@__crt_stdio_output@@IAE_NXZ 1006c8b0 f i libucrtd:output.obj
 0001:0006b910       ?should_skip_normal_state_processing@?$standard_base@DV?$stream_output_adapter@D@__crt_stdio_output@@@__crt_stdio_output@@IAE_NXZ 1006c910 f i libucrtd:output.obj
 0001:0006b930       ?should_skip_normal_state_processing@?$standard_base@DV?$string_output_adapter@D@__crt_stdio_output@@@__crt_stdio_output@@IAE_NXZ 1006c930 f i libucrtd:output.obj
 0001:0006b950       ?should_skip_normal_state_processing@?$standard_base@_WV?$stream_output_adapter@_W@__crt_stdio_output@@@__crt_stdio_output@@IAE_NXZ 1006c950 f i libucrtd:output.obj
 0001:0006b970       ?should_skip_normal_state_processing@?$standard_base@_WV?$string_output_adapter@_W@__crt_stdio_output@@@__crt_stdio_output@@IAE_NXZ 1006c970 f i libucrtd:output.obj
 0001:0006b990       ?should_skip_type_state_output@?$positional_parameter_base@DV?$stream_output_adapter@D@__crt_stdio_output@@@__crt_stdio_output@@IBE_NXZ 1006c990 f i libucrtd:output.obj
 0001:0006b9e0       ?should_skip_type_state_output@?$positional_parameter_base@DV?$string_output_adapter@D@__crt_stdio_output@@@__crt_stdio_output@@IBE_NXZ 1006c9e0 f i libucrtd:output.obj
 0001:0006ba30       ?should_skip_type_state_output@?$positional_parameter_base@_WV?$stream_output_adapter@_W@__crt_stdio_output@@@__crt_stdio_output@@IBE_NXZ 1006ca30 f i libucrtd:output.obj
 0001:0006ba80       ?should_skip_type_state_output@?$positional_parameter_base@_WV?$string_output_adapter@_W@__crt_stdio_output@@@__crt_stdio_output@@IBE_NXZ 1006ca80 f i libucrtd:output.obj
 0001:0006bad0       ?should_skip_type_state_output@?$standard_base@DV?$stream_output_adapter@D@__crt_stdio_output@@@__crt_stdio_output@@IBE_NXZ 1006cad0 f i libucrtd:output.obj
 0001:0006baf0       ?should_skip_type_state_output@?$standard_base@DV?$string_output_adapter@D@__crt_stdio_output@@@__crt_stdio_output@@IBE_NXZ 1006caf0 f i libucrtd:output.obj
 0001:0006bb10       ?should_skip_type_state_output@?$standard_base@_WV?$stream_output_adapter@_W@__crt_stdio_output@@@__crt_stdio_output@@IBE_NXZ 1006cb10 f i libucrtd:output.obj
 0001:0006bb30       ?should_skip_type_state_output@?$standard_base@_WV?$string_output_adapter@_W@__crt_stdio_output@@@__crt_stdio_output@@IBE_NXZ 1006cb30 f i libucrtd:output.obj
 0001:0006bb50       ?state_case_dot@?$output_processor@DV?$stream_output_adapter@D@__crt_stdio_output@@V?$format_validation_base@DV?$stream_output_adapter@D@__crt_stdio_output@@@2@@__crt_stdio_output@@AAE_NXZ 1006cb50 f i libucrtd:output.obj
 0001:0006bb70       ?state_case_dot@?$output_processor@DV?$stream_output_adapter@D@__crt_stdio_output@@V?$positional_parameter_base@DV?$stream_output_adapter@D@__crt_stdio_output@@@2@@__crt_stdio_output@@AAE_NXZ 1006cb70 f i libucrtd:output.obj
 0001:0006bb90       ?state_case_dot@?$output_processor@DV?$stream_output_adapter@D@__crt_stdio_output@@V?$standard_base@DV?$stream_output_adapter@D@__crt_stdio_output@@@2@@__crt_stdio_output@@AAE_NXZ 1006cb90 f i libucrtd:output.obj
 0001:0006bbb0       ?state_case_dot@?$output_processor@DV?$string_output_adapter@D@__crt_stdio_output@@V?$format_validation_base@DV?$string_output_adapter@D@__crt_stdio_output@@@2@@__crt_stdio_output@@AAE_NXZ 1006cbb0 f i libucrtd:output.obj
 0001:0006bbd0       ?state_case_dot@?$output_processor@DV?$string_output_adapter@D@__crt_stdio_output@@V?$positional_parameter_base@DV?$string_output_adapter@D@__crt_stdio_output@@@2@@__crt_stdio_output@@AAE_NXZ 1006cbd0 f i libucrtd:output.obj
 0001:0006bbf0       ?state_case_dot@?$output_processor@DV?$string_output_adapter@D@__crt_stdio_output@@V?$standard_base@DV?$string_output_adapter@D@__crt_stdio_output@@@2@@__crt_stdio_output@@AAE_NXZ 1006cbf0 f i libucrtd:output.obj
 0001:0006bc10       ?state_case_dot@?$output_processor@_WV?$stream_output_adapter@_W@__crt_stdio_output@@V?$format_validation_base@_WV?$stream_output_adapter@_W@__crt_stdio_output@@@2@@__crt_stdio_output@@AAE_NXZ 1006cc10 f i libucrtd:output.obj
 0001:0006bc30       ?state_case_dot@?$output_processor@_WV?$stream_output_adapter@_W@__crt_stdio_output@@V?$positional_parameter_base@_WV?$stream_output_adapter@_W@__crt_stdio_output@@@2@@__crt_stdio_output@@AAE_NXZ 1006cc30 f i libucrtd:output.obj
 0001:0006bc50       ?state_case_dot@?$output_processor@_WV?$stream_output_adapter@_W@__crt_stdio_output@@V?$standard_base@_WV?$stream_output_adapter@_W@__crt_stdio_output@@@2@@__crt_stdio_output@@AAE_NXZ 1006cc50 f i libucrtd:output.obj
 0001:0006bc70       ?state_case_dot@?$output_processor@_WV?$string_output_adapter@_W@__crt_stdio_output@@V?$format_validation_base@_WV?$string_output_adapter@_W@__crt_stdio_output@@@2@@__crt_stdio_output@@AAE_NXZ 1006cc70 f i libucrtd:output.obj
 0001:0006bc90       ?state_case_dot@?$output_processor@_WV?$string_output_adapter@_W@__crt_stdio_output@@V?$positional_parameter_base@_WV?$string_output_adapter@_W@__crt_stdio_output@@@2@@__crt_stdio_output@@AAE_NXZ 1006cc90 f i libucrtd:output.obj
 0001:0006bcb0       ?state_case_dot@?$output_processor@_WV?$string_output_adapter@_W@__crt_stdio_output@@V?$standard_base@_WV?$string_output_adapter@_W@__crt_stdio_output@@@2@@__crt_stdio_output@@AAE_NXZ 1006ccb0 f i libucrtd:output.obj
 0001:0006bcd0       ?state_case_flag@?$output_processor@DV?$stream_output_adapter@D@__crt_stdio_output@@V?$format_validation_base@DV?$stream_output_adapter@D@__crt_stdio_output@@@2@@__crt_stdio_output@@AAE_NXZ 1006ccd0 f i libucrtd:output.obj
 0001:0006bda0       ?state_case_flag@?$output_processor@DV?$stream_output_adapter@D@__crt_stdio_output@@V?$positional_parameter_base@DV?$stream_output_adapter@D@__crt_stdio_output@@@2@@__crt_stdio_output@@AAE_NXZ 1006cda0 f i libucrtd:output.obj
 0001:0006be70       ?state_case_flag@?$output_processor@DV?$stream_output_adapter@D@__crt_stdio_output@@V?$standard_base@DV?$stream_output_adapter@D@__crt_stdio_output@@@2@@__crt_stdio_output@@AAE_NXZ 1006ce70 f i libucrtd:output.obj
 0001:0006bf40       ?state_case_flag@?$output_processor@DV?$string_output_adapter@D@__crt_stdio_output@@V?$format_validation_base@DV?$string_output_adapter@D@__crt_stdio_output@@@2@@__crt_stdio_output@@AAE_NXZ 1006cf40 f i libucrtd:output.obj
 0001:0006c010       ?state_case_flag@?$output_processor@DV?$string_output_adapter@D@__crt_stdio_output@@V?$positional_parameter_base@DV?$string_output_adapter@D@__crt_stdio_output@@@2@@__crt_stdio_output@@AAE_NXZ 1006d010 f i libucrtd:output.obj
 0001:0006c0e0       ?state_case_flag@?$output_processor@DV?$string_output_adapter@D@__crt_stdio_output@@V?$standard_base@DV?$string_output_adapter@D@__crt_stdio_output@@@2@@__crt_stdio_output@@AAE_NXZ 1006d0e0 f i libucrtd:output.obj
 0001:0006c1b0       ?state_case_flag@?$output_processor@_WV?$stream_output_adapter@_W@__crt_stdio_output@@V?$format_validation_base@_WV?$stream_output_adapter@_W@__crt_stdio_output@@@2@@__crt_stdio_output@@AAE_NXZ 1006d1b0 f i libucrtd:output.obj
 0001:0006c280       ?state_case_flag@?$output_processor@_WV?$stream_output_adapter@_W@__crt_stdio_output@@V?$positional_parameter_base@_WV?$stream_output_adapter@_W@__crt_stdio_output@@@2@@__crt_stdio_output@@AAE_NXZ 1006d280 f i libucrtd:output.obj
 0001:0006c350       ?state_case_flag@?$output_processor@_WV?$stream_output_adapter@_W@__crt_stdio_output@@V?$standard_base@_WV?$stream_output_adapter@_W@__crt_stdio_output@@@2@@__crt_stdio_output@@AAE_NXZ 1006d350 f i libucrtd:output.obj
 0001:0006c420       ?state_case_flag@?$output_processor@_WV?$string_output_adapter@_W@__crt_stdio_output@@V?$format_validation_base@_WV?$string_output_adapter@_W@__crt_stdio_output@@@2@@__crt_stdio_output@@AAE_NXZ 1006d420 f i libucrtd:output.obj
 0001:0006c4f0       ?state_case_flag@?$output_processor@_WV?$string_output_adapter@_W@__crt_stdio_output@@V?$positional_parameter_base@_WV?$string_output_adapter@_W@__crt_stdio_output@@@2@@__crt_stdio_output@@AAE_NXZ 1006d4f0 f i libucrtd:output.obj
 0001:0006c5c0       ?state_case_flag@?$output_processor@_WV?$string_output_adapter@_W@__crt_stdio_output@@V?$standard_base@_WV?$string_output_adapter@_W@__crt_stdio_output@@@2@@__crt_stdio_output@@AAE_NXZ 1006d5c0 f i libucrtd:output.obj
 0001:0006c690       ?state_case_normal@?$output_processor@DV?$stream_output_adapter@D@__crt_stdio_output@@V?$format_validation_base@DV?$stream_output_adapter@D@__crt_stdio_output@@@2@@__crt_stdio_output@@AAE_NXZ 1006d690 f i libucrtd:output.obj
 0001:0006c770       ?state_case_normal@?$output_processor@DV?$stream_output_adapter@D@__crt_stdio_output@@V?$positional_parameter_base@DV?$stream_output_adapter@D@__crt_stdio_output@@@2@@__crt_stdio_output@@AAE_NXZ 1006d770 f i libucrtd:output.obj
 0001:0006c850       ?state_case_normal@?$output_processor@DV?$stream_output_adapter@D@__crt_stdio_output@@V?$standard_base@DV?$stream_output_adapter@D@__crt_stdio_output@@@2@@__crt_stdio_output@@AAE_NXZ 1006d850 f i libucrtd:output.obj
 0001:0006c930       ?state_case_normal@?$output_processor@DV?$string_output_adapter@D@__crt_stdio_output@@V?$format_validation_base@DV?$string_output_adapter@D@__crt_stdio_output@@@2@@__crt_stdio_output@@AAE_NXZ 1006d930 f i libucrtd:output.obj
 0001:0006ca10       ?state_case_normal@?$output_processor@DV?$string_output_adapter@D@__crt_stdio_output@@V?$positional_parameter_base@DV?$string_output_adapter@D@__crt_stdio_output@@@2@@__crt_stdio_output@@AAE_NXZ 1006da10 f i libucrtd:output.obj
 0001:0006caf0       ?state_case_normal@?$output_processor@DV?$string_output_adapter@D@__crt_stdio_output@@V?$standard_base@DV?$string_output_adapter@D@__crt_stdio_output@@@2@@__crt_stdio_output@@AAE_NXZ 1006daf0 f i libucrtd:output.obj
 0001:0006cbd0       ?state_case_normal@?$output_processor@_WV?$stream_output_adapter@_W@__crt_stdio_output@@V?$format_validation_base@_WV?$stream_output_adapter@_W@__crt_stdio_output@@@2@@__crt_stdio_output@@AAE_NXZ 1006dbd0 f i libucrtd:output.obj
 0001:0006ccb0       ?state_case_normal@?$output_processor@_WV?$stream_output_adapter@_W@__crt_stdio_output@@V?$positional_parameter_base@_WV?$stream_output_adapter@_W@__crt_stdio_output@@@2@@__crt_stdio_output@@AAE_NXZ 1006dcb0 f i libucrtd:output.obj
 0001:0006cd90       ?state_case_normal@?$output_processor@_WV?$stream_output_adapter@_W@__crt_stdio_output@@V?$standard_base@_WV?$stream_output_adapter@_W@__crt_stdio_output@@@2@@__crt_stdio_output@@AAE_NXZ 1006dd90 f i libucrtd:output.obj
 0001:0006ce70       ?state_case_normal@?$output_processor@_WV?$string_output_adapter@_W@__crt_stdio_output@@V?$format_validation_base@_WV?$string_output_adapter@_W@__crt_stdio_output@@@2@@__crt_stdio_output@@AAE_NXZ 1006de70 f i libucrtd:output.obj
 0001:0006cf50       ?state_case_normal@?$output_processor@_WV?$string_output_adapter@_W@__crt_stdio_output@@V?$positional_parameter_base@_WV?$string_output_adapter@_W@__crt_stdio_output@@@2@@__crt_stdio_output@@AAE_NXZ 1006df50 f i libucrtd:output.obj
 0001:0006d030       ?state_case_normal@?$output_processor@_WV?$string_output_adapter@_W@__crt_stdio_output@@V?$standard_base@_WV?$string_output_adapter@_W@__crt_stdio_output@@@2@@__crt_stdio_output@@AAE_NXZ 1006e030 f i libucrtd:output.obj
 0001:0006d110       ?state_case_normal_common@?$output_processor@DV?$stream_output_adapter@D@__crt_stdio_output@@V?$format_validation_base@DV?$stream_output_adapter@D@__crt_stdio_output@@@2@@__crt_stdio_output@@AAE_NXZ 1006e110 f i libucrtd:output.obj
 0001:0006d170       ?state_case_normal_common@?$output_processor@DV?$stream_output_adapter@D@__crt_stdio_output@@V?$positional_parameter_base@DV?$stream_output_adapter@D@__crt_stdio_output@@@2@@__crt_stdio_output@@AAE_NXZ 1006e170 f i libucrtd:output.obj
 0001:0006d1d0       ?state_case_normal_common@?$output_processor@DV?$stream_output_adapter@D@__crt_stdio_output@@V?$standard_base@DV?$stream_output_adapter@D@__crt_stdio_output@@@2@@__crt_stdio_output@@AAE_NXZ 1006e1d0 f i libucrtd:output.obj
 0001:0006d230       ?state_case_normal_common@?$output_processor@DV?$string_output_adapter@D@__crt_stdio_output@@V?$format_validation_base@DV?$string_output_adapter@D@__crt_stdio_output@@@2@@__crt_stdio_output@@AAE_NXZ 1006e230 f i libucrtd:output.obj
 0001:0006d290       ?state_case_normal_common@?$output_processor@DV?$string_output_adapter@D@__crt_stdio_output@@V?$positional_parameter_base@DV?$string_output_adapter@D@__crt_stdio_output@@@2@@__crt_stdio_output@@AAE_NXZ 1006e290 f i libucrtd:output.obj
 0001:0006d2f0       ?state_case_normal_common@?$output_processor@DV?$string_output_adapter@D@__crt_stdio_output@@V?$standard_base@DV?$string_output_adapter@D@__crt_stdio_output@@@2@@__crt_stdio_output@@AAE_NXZ 1006e2f0 f i libucrtd:output.obj
 0001:0006d350       ?state_case_normal_common@?$output_processor@_WV?$stream_output_adapter@_W@__crt_stdio_output@@V?$format_validation_base@_WV?$stream_output_adapter@_W@__crt_stdio_output@@@2@@__crt_stdio_output@@AAE_NXZ 1006e350 f i libucrtd:output.obj
 0001:0006d3b0       ?state_case_normal_common@?$output_processor@_WV?$stream_output_adapter@_W@__crt_stdio_output@@V?$positional_parameter_base@_WV?$stream_output_adapter@_W@__crt_stdio_output@@@2@@__crt_stdio_output@@AAE_NXZ 1006e3b0 f i libucrtd:output.obj
 0001:0006d410       ?state_case_normal_common@?$output_processor@_WV?$stream_output_adapter@_W@__crt_stdio_output@@V?$standard_base@_WV?$stream_output_adapter@_W@__crt_stdio_output@@@2@@__crt_stdio_output@@AAE_NXZ 1006e410 f i libucrtd:output.obj
 0001:0006d470       ?state_case_normal_common@?$output_processor@_WV?$string_output_adapter@_W@__crt_stdio_output@@V?$format_validation_base@_WV?$string_output_adapter@_W@__crt_stdio_output@@@2@@__crt_stdio_output@@AAE_NXZ 1006e470 f i libucrtd:output.obj
 0001:0006d4d0       ?state_case_normal_common@?$output_processor@_WV?$string_output_adapter@_W@__crt_stdio_output@@V?$positional_parameter_base@_WV?$string_output_adapter@_W@__crt_stdio_output@@@2@@__crt_stdio_output@@AAE_NXZ 1006e4d0 f i libucrtd:output.obj
 0001:0006d530       ?state_case_normal_common@?$output_processor@_WV?$string_output_adapter@_W@__crt_stdio_output@@V?$standard_base@_WV?$string_output_adapter@_W@__crt_stdio_output@@@2@@__crt_stdio_output@@AAE_NXZ 1006e530 f i libucrtd:output.obj
 0001:0006d590       ?state_case_normal_tchar@?$output_processor@DV?$stream_output_adapter@D@__crt_stdio_output@@V?$format_validation_base@DV?$stream_output_adapter@D@__crt_stdio_output@@@2@@__crt_stdio_output@@AAE_ND@Z 1006e590 f i libucrtd:output.obj
 0001:0006d6c0       ?state_case_normal_tchar@?$output_processor@DV?$stream_output_adapter@D@__crt_stdio_output@@V?$positional_parameter_base@DV?$stream_output_adapter@D@__crt_stdio_output@@@2@@__crt_stdio_output@@AAE_ND@Z 1006e6c0 f i libucrtd:output.obj
 0001:0006d7f0       ?state_case_normal_tchar@?$output_processor@DV?$stream_output_adapter@D@__crt_stdio_output@@V?$standard_base@DV?$stream_output_adapter@D@__crt_stdio_output@@@2@@__crt_stdio_output@@AAE_ND@Z 1006e7f0 f i libucrtd:output.obj
 0001:0006d920       ?state_case_normal_tchar@?$output_processor@DV?$string_output_adapter@D@__crt_stdio_output@@V?$format_validation_base@DV?$string_output_adapter@D@__crt_stdio_output@@@2@@__crt_stdio_output@@AAE_ND@Z 1006e920 f i libucrtd:output.obj
 0001:0006da50       ?state_case_normal_tchar@?$output_processor@DV?$string_output_adapter@D@__crt_stdio_output@@V?$positional_parameter_base@DV?$string_output_adapter@D@__crt_stdio_output@@@2@@__crt_stdio_output@@AAE_ND@Z 1006ea50 f i libucrtd:output.obj
 0001:0006db80       ?state_case_normal_tchar@?$output_processor@DV?$string_output_adapter@D@__crt_stdio_output@@V?$standard_base@DV?$string_output_adapter@D@__crt_stdio_output@@@2@@__crt_stdio_output@@AAE_ND@Z 1006eb80 f i libucrtd:output.obj
 0001:0006dcb0       ?state_case_normal_tchar@?$output_processor@_WV?$stream_output_adapter@_W@__crt_stdio_output@@V?$format_validation_base@_WV?$stream_output_adapter@_W@__crt_stdio_output@@@2@@__crt_stdio_output@@AAE_N_W@Z 1006ecb0 f i libucrtd:output.obj
 0001:0006dcd0       ?state_case_normal_tchar@?$output_processor@_WV?$stream_output_adapter@_W@__crt_stdio_output@@V?$positional_parameter_base@_WV?$stream_output_adapter@_W@__crt_stdio_output@@@2@@__crt_stdio_output@@AAE_N_W@Z 1006ecd0 f i libucrtd:output.obj
 0001:0006dcf0       ?state_case_normal_tchar@?$output_processor@_WV?$stream_output_adapter@_W@__crt_stdio_output@@V?$standard_base@_WV?$stream_output_adapter@_W@__crt_stdio_output@@@2@@__crt_stdio_output@@AAE_N_W@Z 1006ecf0 f i libucrtd:output.obj
 0001:0006dd10       ?state_case_normal_tchar@?$output_processor@_WV?$string_output_adapter@_W@__crt_stdio_output@@V?$format_validation_base@_WV?$string_output_adapter@_W@__crt_stdio_output@@@2@@__crt_stdio_output@@AAE_N_W@Z 1006ed10 f i libucrtd:output.obj
 0001:0006dd30       ?state_case_normal_tchar@?$output_processor@_WV?$string_output_adapter@_W@__crt_stdio_output@@V?$positional_parameter_base@_WV?$string_output_adapter@_W@__crt_stdio_output@@@2@@__crt_stdio_output@@AAE_N_W@Z 1006ed30 f i libucrtd:output.obj
 0001:0006dd50       ?state_case_normal_tchar@?$output_processor@_WV?$string_output_adapter@_W@__crt_stdio_output@@V?$standard_base@_WV?$string_output_adapter@_W@__crt_stdio_output@@@2@@__crt_stdio_output@@AAE_N_W@Z 1006ed50 f i libucrtd:output.obj
 0001:0006dd70       ?state_case_percent@?$output_processor@DV?$stream_output_adapter@D@__crt_stdio_output@@V?$format_validation_base@DV?$stream_output_adapter@D@__crt_stdio_output@@@2@@__crt_stdio_output@@AAE_NXZ 1006ed70 f i libucrtd:output.obj
 0001:0006ddd0       ?state_case_percent@?$output_processor@DV?$stream_output_adapter@D@__crt_stdio_output@@V?$positional_parameter_base@DV?$stream_output_adapter@D@__crt_stdio_output@@@2@@__crt_stdio_output@@AAE_NXZ 1006edd0 f i libucrtd:output.obj
 0001:0006de30       ?state_case_percent@?$output_processor@DV?$stream_output_adapter@D@__crt_stdio_output@@V?$standard_base@DV?$stream_output_adapter@D@__crt_stdio_output@@@2@@__crt_stdio_output@@AAE_NXZ 1006ee30 f i libucrtd:output.obj
 0001:0006de90       ?state_case_percent@?$output_processor@DV?$string_output_adapter@D@__crt_stdio_output@@V?$format_validation_base@DV?$string_output_adapter@D@__crt_stdio_output@@@2@@__crt_stdio_output@@AAE_NXZ 1006ee90 f i libucrtd:output.obj
 0001:0006def0       ?state_case_percent@?$output_processor@DV?$string_output_adapter@D@__crt_stdio_output@@V?$positional_parameter_base@DV?$string_output_adapter@D@__crt_stdio_output@@@2@@__crt_stdio_output@@AAE_NXZ 1006eef0 f i libucrtd:output.obj
 0001:0006df50       ?state_case_percent@?$output_processor@DV?$string_output_adapter@D@__crt_stdio_output@@V?$standard_base@DV?$string_output_adapter@D@__crt_stdio_output@@@2@@__crt_stdio_output@@AAE_NXZ 1006ef50 f i libucrtd:output.obj
 0001:0006dfb0       ?state_case_percent@?$output_processor@_WV?$stream_output_adapter@_W@__crt_stdio_output@@V?$format_validation_base@_WV?$stream_output_adapter@_W@__crt_stdio_output@@@2@@__crt_stdio_output@@AAE_NXZ 1006efb0 f i libucrtd:output.obj
 0001:0006e010       ?state_case_percent@?$output_processor@_WV?$stream_output_adapter@_W@__crt_stdio_output@@V?$positional_parameter_base@_WV?$stream_output_adapter@_W@__crt_stdio_output@@@2@@__crt_stdio_output@@AAE_NXZ 1006f010 f i libucrtd:output.obj
 0001:0006e070       ?state_case_percent@?$output_processor@_WV?$stream_output_adapter@_W@__crt_stdio_output@@V?$standard_base@_WV?$stream_output_adapter@_W@__crt_stdio_output@@@2@@__crt_stdio_output@@AAE_NXZ 1006f070 f i libucrtd:output.obj
 0001:0006e0d0       ?state_case_percent@?$output_processor@_WV?$string_output_adapter@_W@__crt_stdio_output@@V?$format_validation_base@_WV?$string_output_adapter@_W@__crt_stdio_output@@@2@@__crt_stdio_output@@AAE_NXZ 1006f0d0 f i libucrtd:output.obj
 0001:0006e130       ?state_case_percent@?$output_processor@_WV?$string_output_adapter@_W@__crt_stdio_output@@V?$positional_parameter_base@_WV?$string_output_adapter@_W@__crt_stdio_output@@@2@@__crt_stdio_output@@AAE_NXZ 1006f130 f i libucrtd:output.obj
 0001:0006e190       ?state_case_percent@?$output_processor@_WV?$string_output_adapter@_W@__crt_stdio_output@@V?$standard_base@_WV?$string_output_adapter@_W@__crt_stdio_output@@@2@@__crt_stdio_output@@AAE_NXZ 1006f190 f i libucrtd:output.obj
 0001:0006e1f0       ?state_case_precision@?$output_processor@DV?$stream_output_adapter@D@__crt_stdio_output@@V?$format_validation_base@DV?$stream_output_adapter@D@__crt_stdio_output@@@2@@__crt_stdio_output@@AAE_NXZ 1006f1f0 f i libucrtd:output.obj
 0001:0006e270       ?state_case_precision@?$output_processor@DV?$stream_output_adapter@D@__crt_stdio_output@@V?$positional_parameter_base@DV?$stream_output_adapter@D@__crt_stdio_output@@@2@@__crt_stdio_output@@AAE_NXZ 1006f270 f i libucrtd:output.obj
 0001:0006e2f0       ?state_case_precision@?$output_processor@DV?$stream_output_adapter@D@__crt_stdio_output@@V?$standard_base@DV?$stream_output_adapter@D@__crt_stdio_output@@@2@@__crt_stdio_output@@AAE_NXZ 1006f2f0 f i libucrtd:output.obj
 0001:0006e370       ?state_case_precision@?$output_processor@DV?$string_output_adapter@D@__crt_stdio_output@@V?$format_validation_base@DV?$string_output_adapter@D@__crt_stdio_output@@@2@@__crt_stdio_output@@AAE_NXZ 1006f370 f i libucrtd:output.obj
 0001:0006e3f0       ?state_case_precision@?$output_processor@DV?$string_output_adapter@D@__crt_stdio_output@@V?$positional_parameter_base@DV?$string_output_adapter@D@__crt_stdio_output@@@2@@__crt_stdio_output@@AAE_NXZ 1006f3f0 f i libucrtd:output.obj
 0001:0006e470       ?state_case_precision@?$output_processor@DV?$string_output_adapter@D@__crt_stdio_output@@V?$standard_base@DV?$string_output_adapter@D@__crt_stdio_output@@@2@@__crt_stdio_output@@AAE_NXZ 1006f470 f i libucrtd:output.obj
 0001:0006e4f0       ?state_case_precision@?$output_processor@_WV?$stream_output_adapter@_W@__crt_stdio_output@@V?$format_validation_base@_WV?$stream_output_adapter@_W@__crt_stdio_output@@@2@@__crt_stdio_output@@AAE_NXZ 1006f4f0 f i libucrtd:output.obj
 0001:0006e570       ?state_case_precision@?$output_processor@_WV?$stream_output_adapter@_W@__crt_stdio_output@@V?$positional_parameter_base@_WV?$stream_output_adapter@_W@__crt_stdio_output@@@2@@__crt_stdio_output@@AAE_NXZ 1006f570 f i libucrtd:output.obj
 0001:0006e5f0       ?state_case_precision@?$output_processor@_WV?$stream_output_adapter@_W@__crt_stdio_output@@V?$standard_base@_WV?$stream_output_adapter@_W@__crt_stdio_output@@@2@@__crt_stdio_output@@AAE_NXZ 1006f5f0 f i libucrtd:output.obj
 0001:0006e670       ?state_case_precision@?$output_processor@_WV?$string_output_adapter@_W@__crt_stdio_output@@V?$format_validation_base@_WV?$string_output_adapter@_W@__crt_stdio_output@@@2@@__crt_stdio_output@@AAE_NXZ 1006f670 f i libucrtd:output.obj
 0001:0006e6f0       ?state_case_precision@?$output_processor@_WV?$string_output_adapter@_W@__crt_stdio_output@@V?$positional_parameter_base@_WV?$string_output_adapter@_W@__crt_stdio_output@@@2@@__crt_stdio_output@@AAE_NXZ 1006f6f0 f i libucrtd:output.obj
 0001:0006e770       ?state_case_precision@?$output_processor@_WV?$string_output_adapter@_W@__crt_stdio_output@@V?$standard_base@_WV?$string_output_adapter@_W@__crt_stdio_output@@@2@@__crt_stdio_output@@AAE_NXZ 1006f770 f i libucrtd:output.obj
 0001:0006e7f0       ?state_case_size@?$output_processor@DV?$stream_output_adapter@D@__crt_stdio_output@@V?$format_validation_base@DV?$stream_output_adapter@D@__crt_stdio_output@@@2@@__crt_stdio_output@@AAE_NXZ 1006f7f0 f i libucrtd:output.obj
 0001:0006ecb0       ?state_case_size@?$output_processor@DV?$stream_output_adapter@D@__crt_stdio_output@@V?$positional_parameter_base@DV?$stream_output_adapter@D@__crt_stdio_output@@@2@@__crt_stdio_output@@AAE_NXZ 1006fcb0 f i libucrtd:output.obj
 0001:0006f170       ?state_case_size@?$output_processor@DV?$stream_output_adapter@D@__crt_stdio_output@@V?$standard_base@DV?$stream_output_adapter@D@__crt_stdio_output@@@2@@__crt_stdio_output@@AAE_NXZ 10070170 f i libucrtd:output.obj
 0001:0006f630       ?state_case_size@?$output_processor@DV?$string_output_adapter@D@__crt_stdio_output@@V?$format_validation_base@DV?$string_output_adapter@D@__crt_stdio_output@@@2@@__crt_stdio_output@@AAE_NXZ 10070630 f i libucrtd:output.obj
 0001:0006faf0       ?state_case_size@?$output_processor@DV?$string_output_adapter@D@__crt_stdio_output@@V?$positional_parameter_base@DV?$string_output_adapter@D@__crt_stdio_output@@@2@@__crt_stdio_output@@AAE_NXZ 10070af0 f i libucrtd:output.obj
 0001:0006ffb0       ?state_case_size@?$output_processor@DV?$string_output_adapter@D@__crt_stdio_output@@V?$standard_base@DV?$string_output_adapter@D@__crt_stdio_output@@@2@@__crt_stdio_output@@AAE_NXZ 10070fb0 f i libucrtd:output.obj
 0001:00070470       ?state_case_size@?$output_processor@_WV?$stream_output_adapter@_W@__crt_stdio_output@@V?$format_validation_base@_WV?$stream_output_adapter@_W@__crt_stdio_output@@@2@@__crt_stdio_output@@AAE_NXZ 10071470 f i libucrtd:output.obj
 0001:00070930       ?state_case_size@?$output_processor@_WV?$stream_output_adapter@_W@__crt_stdio_output@@V?$positional_parameter_base@_WV?$stream_output_adapter@_W@__crt_stdio_output@@@2@@__crt_stdio_output@@AAE_NXZ 10071930 f i libucrtd:output.obj
 0001:00070df0       ?state_case_size@?$output_processor@_WV?$stream_output_adapter@_W@__crt_stdio_output@@V?$standard_base@_WV?$stream_output_adapter@_W@__crt_stdio_output@@@2@@__crt_stdio_output@@AAE_NXZ 10071df0 f i libucrtd:output.obj
 0001:000712b0       ?state_case_size@?$output_processor@_WV?$string_output_adapter@_W@__crt_stdio_output@@V?$format_validation_base@_WV?$string_output_adapter@_W@__crt_stdio_output@@@2@@__crt_stdio_output@@AAE_NXZ 100722b0 f i libucrtd:output.obj
 0001:00071770       ?state_case_size@?$output_processor@_WV?$string_output_adapter@_W@__crt_stdio_output@@V?$positional_parameter_base@_WV?$string_output_adapter@_W@__crt_stdio_output@@@2@@__crt_stdio_output@@AAE_NXZ 10072770 f i libucrtd:output.obj
 0001:00071c30       ?state_case_size@?$output_processor@_WV?$string_output_adapter@_W@__crt_stdio_output@@V?$standard_base@_WV?$string_output_adapter@_W@__crt_stdio_output@@@2@@__crt_stdio_output@@AAE_NXZ 10072c30 f i libucrtd:output.obj
 0001:000720f0       ?state_case_type@?$output_processor@DV?$stream_output_adapter@D@__crt_stdio_output@@V?$format_validation_base@DV?$stream_output_adapter@D@__crt_stdio_output@@@2@@__crt_stdio_output@@AAE_NXZ 100730f0 f i libucrtd:output.obj
 0001:00072590       ?state_case_type@?$output_processor@DV?$stream_output_adapter@D@__crt_stdio_output@@V?$positional_parameter_base@DV?$stream_output_adapter@D@__crt_stdio_output@@@2@@__crt_stdio_output@@AAE_NXZ 10073590 f i libucrtd:output.obj
 0001:00072a30       ?state_case_type@?$output_processor@DV?$stream_output_adapter@D@__crt_stdio_output@@V?$standard_base@DV?$stream_output_adapter@D@__crt_stdio_output@@@2@@__crt_stdio_output@@AAE_NXZ 10073a30 f i libucrtd:output.obj
 0001:00072ed0       ?state_case_type@?$output_processor@DV?$string_output_adapter@D@__crt_stdio_output@@V?$format_validation_base@DV?$string_output_adapter@D@__crt_stdio_output@@@2@@__crt_stdio_output@@AAE_NXZ 10073ed0 f i libucrtd:output.obj
 0001:00073370       ?state_case_type@?$output_processor@DV?$string_output_adapter@D@__crt_stdio_output@@V?$positional_parameter_base@DV?$string_output_adapter@D@__crt_stdio_output@@@2@@__crt_stdio_output@@AAE_NXZ 10074370 f i libucrtd:output.obj
 0001:00073810       ?state_case_type@?$output_processor@DV?$string_output_adapter@D@__crt_stdio_output@@V?$standard_base@DV?$string_output_adapter@D@__crt_stdio_output@@@2@@__crt_stdio_output@@AAE_NXZ 10074810 f i libucrtd:output.obj
 0001:00073cb0       ?state_case_type@?$output_processor@_WV?$stream_output_adapter@_W@__crt_stdio_output@@V?$format_validation_base@_WV?$stream_output_adapter@_W@__crt_stdio_output@@@2@@__crt_stdio_output@@AAE_NXZ 10074cb0 f i libucrtd:output.obj
 0001:00074180       ?state_case_type@?$output_processor@_WV?$stream_output_adapter@_W@__crt_stdio_output@@V?$positional_parameter_base@_WV?$stream_output_adapter@_W@__crt_stdio_output@@@2@@__crt_stdio_output@@AAE_NXZ 10075180 f i libucrtd:output.obj
 0001:00074650       ?state_case_type@?$output_processor@_WV?$stream_output_adapter@_W@__crt_stdio_output@@V?$standard_base@_WV?$stream_output_adapter@_W@__crt_stdio_output@@@2@@__crt_stdio_output@@AAE_NXZ 10075650 f i libucrtd:output.obj
 0001:00074b20       ?state_case_type@?$output_processor@_WV?$string_output_adapter@_W@__crt_stdio_output@@V?$format_validation_base@_WV?$string_output_adapter@_W@__crt_stdio_output@@@2@@__crt_stdio_output@@AAE_NXZ 10075b20 f i libucrtd:output.obj
 0001:00074ff0       ?state_case_type@?$output_processor@_WV?$string_output_adapter@_W@__crt_stdio_output@@V?$positional_parameter_base@_WV?$string_output_adapter@_W@__crt_stdio_output@@@2@@__crt_stdio_output@@AAE_NXZ 10075ff0 f i libucrtd:output.obj
 0001:000754c0       ?state_case_type@?$output_processor@_WV?$string_output_adapter@_W@__crt_stdio_output@@V?$standard_base@_WV?$string_output_adapter@_W@__crt_stdio_output@@@2@@__crt_stdio_output@@AAE_NXZ 100764c0 f i libucrtd:output.obj
 0001:00075990       ?state_case_width@?$output_processor@DV?$stream_output_adapter@D@__crt_stdio_output@@V?$format_validation_base@DV?$stream_output_adapter@D@__crt_stdio_output@@@2@@__crt_stdio_output@@AAE_NXZ 10076990 f i libucrtd:output.obj
 0001:00075a20       ?state_case_width@?$output_processor@DV?$stream_output_adapter@D@__crt_stdio_output@@V?$positional_parameter_base@DV?$stream_output_adapter@D@__crt_stdio_output@@@2@@__crt_stdio_output@@AAE_NXZ 10076a20 f i libucrtd:output.obj
 0001:00075ab0       ?state_case_width@?$output_processor@DV?$stream_output_adapter@D@__crt_stdio_output@@V?$standard_base@DV?$stream_output_adapter@D@__crt_stdio_output@@@2@@__crt_stdio_output@@AAE_NXZ 10076ab0 f i libucrtd:output.obj
 0001:00075b40       ?state_case_width@?$output_processor@DV?$string_output_adapter@D@__crt_stdio_output@@V?$format_validation_base@DV?$string_output_adapter@D@__crt_stdio_output@@@2@@__crt_stdio_output@@AAE_NXZ 10076b40 f i libucrtd:output.obj
 0001:00075bd0       ?state_case_width@?$output_processor@DV?$string_output_adapter@D@__crt_stdio_output@@V?$positional_parameter_base@DV?$string_output_adapter@D@__crt_stdio_output@@@2@@__crt_stdio_output@@AAE_NXZ 10076bd0 f i libucrtd:output.obj
 0001:00075c60       ?state_case_width@?$output_processor@DV?$string_output_adapter@D@__crt_stdio_output@@V?$standard_base@DV?$string_output_adapter@D@__crt_stdio_output@@@2@@__crt_stdio_output@@AAE_NXZ 10076c60 f i libucrtd:output.obj
 0001:00075cf0       ?state_case_width@?$output_processor@_WV?$stream_output_adapter@_W@__crt_stdio_output@@V?$format_validation_base@_WV?$stream_output_adapter@_W@__crt_stdio_output@@@2@@__crt_stdio_output@@AAE_NXZ 10076cf0 f i libucrtd:output.obj
 0001:00075d80       ?state_case_width@?$output_processor@_WV?$stream_output_adapter@_W@__crt_stdio_output@@V?$positional_parameter_base@_WV?$stream_output_adapter@_W@__crt_stdio_output@@@2@@__crt_stdio_output@@AAE_NXZ 10076d80 f i libucrtd:output.obj
 0001:00075e10       ?state_case_width@?$output_processor@_WV?$stream_output_adapter@_W@__crt_stdio_output@@V?$standard_base@_WV?$stream_output_adapter@_W@__crt_stdio_output@@@2@@__crt_stdio_output@@AAE_NXZ 10076e10 f i libucrtd:output.obj
 0001:00075ea0       ?state_case_width@?$output_processor@_WV?$string_output_adapter@_W@__crt_stdio_output@@V?$format_validation_base@_WV?$string_output_adapter@_W@__crt_stdio_output@@@2@@__crt_stdio_output@@AAE_NXZ 10076ea0 f i libucrtd:output.obj
 0001:00075f30       ?state_case_width@?$output_processor@_WV?$string_output_adapter@_W@__crt_stdio_output@@V?$positional_parameter_base@_WV?$string_output_adapter@_W@__crt_stdio_output@@@2@@__crt_stdio_output@@AAE_NXZ 10076f30 f i libucrtd:output.obj
 0001:00075fc0       ?state_case_width@?$output_processor@_WV?$string_output_adapter@_W@__crt_stdio_output@@V?$standard_base@_WV?$string_output_adapter@_W@__crt_stdio_output@@@2@@__crt_stdio_output@@AAE_NXZ 10076fc0 f i libucrtd:output.obj
 0001:00076050       ?state_count@?$format_validation_base@DV?$stream_output_adapter@D@__crt_stdio_output@@@__crt_stdio_output@@KAIXZ 10077050 f i libucrtd:output.obj
 0001:00076060       ?state_count@?$format_validation_base@DV?$string_output_adapter@D@__crt_stdio_output@@@__crt_stdio_output@@KAIXZ 10077060 f i libucrtd:output.obj
 0001:00076070       ?state_count@?$format_validation_base@_WV?$stream_output_adapter@_W@__crt_stdio_output@@@__crt_stdio_output@@KAIXZ 10077070 f i libucrtd:output.obj
 0001:00076080       ?state_count@?$format_validation_base@_WV?$string_output_adapter@_W@__crt_stdio_output@@@__crt_stdio_output@@KAIXZ 10077080 f i libucrtd:output.obj
 0001:00076090       ?state_count@?$standard_base@DV?$stream_output_adapter@D@__crt_stdio_output@@@__crt_stdio_output@@KAIXZ 10077090 f i libucrtd:output.obj
 0001:000760a0       ?state_count@?$standard_base@DV?$string_output_adapter@D@__crt_stdio_output@@@__crt_stdio_output@@KAIXZ 100770a0 f i libucrtd:output.obj
 0001:000760b0       ?state_count@?$standard_base@_WV?$stream_output_adapter@_W@__crt_stdio_output@@@__crt_stdio_output@@KAIXZ 100770b0 f i libucrtd:output.obj
 0001:000760c0       ?state_count@?$standard_base@_WV?$string_output_adapter@_W@__crt_stdio_output@@@__crt_stdio_output@@KAIXZ 100770c0 f i libucrtd:output.obj
 0001:000760d0       ?state_transition_table@?$format_validation_base@DV?$stream_output_adapter@D@__crt_stdio_output@@@__crt_stdio_output@@KAPBEXZ 100770d0 f i libucrtd:output.obj
 0001:000760e0       ?state_transition_table@?$format_validation_base@DV?$string_output_adapter@D@__crt_stdio_output@@@__crt_stdio_output@@KAPBEXZ 100770e0 f i libucrtd:output.obj
 0001:000760f0       ?state_transition_table@?$format_validation_base@_WV?$stream_output_adapter@_W@__crt_stdio_output@@@__crt_stdio_output@@KAPBEXZ 100770f0 f i libucrtd:output.obj
 0001:00076100       ?state_transition_table@?$format_validation_base@_WV?$string_output_adapter@_W@__crt_stdio_output@@@__crt_stdio_output@@KAPBEXZ 10077100 f i libucrtd:output.obj
 0001:00076110       ?state_transition_table@?$standard_base@DV?$stream_output_adapter@D@__crt_stdio_output@@@__crt_stdio_output@@KAPBEXZ 10077110 f i libucrtd:output.obj
 0001:00076120       ?state_transition_table@?$standard_base@DV?$string_output_adapter@D@__crt_stdio_output@@@__crt_stdio_output@@KAPBEXZ 10077120 f i libucrtd:output.obj
 0001:00076130       ?state_transition_table@?$standard_base@_WV?$stream_output_adapter@_W@__crt_stdio_output@@@__crt_stdio_output@@KAPBEXZ 10077130 f i libucrtd:output.obj
 0001:00076140       ?state_transition_table@?$standard_base@_WV?$string_output_adapter@_W@__crt_stdio_output@@@__crt_stdio_output@@KAPBEXZ 10077140 f i libucrtd:output.obj
 0001:00076150       ?to_integer_size@__crt_stdio_output@@YAIW4length_modifier@1@@Z 10077150 f i libucrtd:output.obj
 0001:00076220       ?type_case_X@?$output_processor@DV?$stream_output_adapter@D@__crt_stdio_output@@V?$format_validation_base@DV?$stream_output_adapter@D@__crt_stdio_output@@@2@@__crt_stdio_output@@AAE_NXZ 10077220 f i libucrtd:output.obj
 0001:00076240       ?type_case_X@?$output_processor@DV?$stream_output_adapter@D@__crt_stdio_output@@V?$positional_parameter_base@DV?$stream_output_adapter@D@__crt_stdio_output@@@2@@__crt_stdio_output@@AAE_NXZ 10077240 f i libucrtd:output.obj
 0001:00076260       ?type_case_X@?$output_processor@DV?$stream_output_adapter@D@__crt_stdio_output@@V?$standard_base@DV?$stream_output_adapter@D@__crt_stdio_output@@@2@@__crt_stdio_output@@AAE_NXZ 10077260 f i libucrtd:output.obj
 0001:00076280       ?type_case_X@?$output_processor@DV?$string_output_adapter@D@__crt_stdio_output@@V?$format_validation_base@DV?$string_output_adapter@D@__crt_stdio_output@@@2@@__crt_stdio_output@@AAE_NXZ 10077280 f i libucrtd:output.obj
 0001:000762a0       ?type_case_X@?$output_processor@DV?$string_output_adapter@D@__crt_stdio_output@@V?$positional_parameter_base@DV?$string_output_adapter@D@__crt_stdio_output@@@2@@__crt_stdio_output@@AAE_NXZ 100772a0 f i libucrtd:output.obj
 0001:000762c0       ?type_case_X@?$output_processor@DV?$string_output_adapter@D@__crt_stdio_output@@V?$standard_base@DV?$string_output_adapter@D@__crt_stdio_output@@@2@@__crt_stdio_output@@AAE_NXZ 100772c0 f i libucrtd:output.obj
 0001:000762e0       ?type_case_X@?$output_processor@_WV?$stream_output_adapter@_W@__crt_stdio_output@@V?$format_validation_base@_WV?$stream_output_adapter@_W@__crt_stdio_output@@@2@@__crt_stdio_output@@AAE_NXZ 100772e0 f i libucrtd:output.obj
 0001:00076300       ?type_case_X@?$output_processor@_WV?$stream_output_adapter@_W@__crt_stdio_output@@V?$positional_parameter_base@_WV?$stream_output_adapter@_W@__crt_stdio_output@@@2@@__crt_stdio_output@@AAE_NXZ 10077300 f i libucrtd:output.obj
 0001:00076320       ?type_case_X@?$output_processor@_WV?$stream_output_adapter@_W@__crt_stdio_output@@V?$standard_base@_WV?$stream_output_adapter@_W@__crt_stdio_output@@@2@@__crt_stdio_output@@AAE_NXZ 10077320 f i libucrtd:output.obj
 0001:00076340       ?type_case_X@?$output_processor@_WV?$string_output_adapter@_W@__crt_stdio_output@@V?$format_validation_base@_WV?$string_output_adapter@_W@__crt_stdio_output@@@2@@__crt_stdio_output@@AAE_NXZ 10077340 f i libucrtd:output.obj
 0001:00076360       ?type_case_X@?$output_processor@_WV?$string_output_adapter@_W@__crt_stdio_output@@V?$positional_parameter_base@_WV?$string_output_adapter@_W@__crt_stdio_output@@@2@@__crt_stdio_output@@AAE_NXZ 10077360 f i libucrtd:output.obj
 0001:00076380       ?type_case_X@?$output_processor@_WV?$string_output_adapter@_W@__crt_stdio_output@@V?$standard_base@_WV?$string_output_adapter@_W@__crt_stdio_output@@@2@@__crt_stdio_output@@AAE_NXZ 10077380 f i libucrtd:output.obj
 0001:000763a0       ?type_case_Z@?$output_processor@DV?$stream_output_adapter@D@__crt_stdio_output@@V?$format_validation_base@DV?$stream_output_adapter@D@__crt_stdio_output@@@2@@__crt_stdio_output@@AAE_NXZ 100773a0 f i libucrtd:output.obj
 0001:000764d0       ?type_case_Z@?$output_processor@DV?$stream_output_adapter@D@__crt_stdio_output@@V?$positional_parameter_base@DV?$stream_output_adapter@D@__crt_stdio_output@@@2@@__crt_stdio_output@@AAE_NXZ 100774d0 f i libucrtd:output.obj
 0001:00076600       ?type_case_Z@?$output_processor@DV?$stream_output_adapter@D@__crt_stdio_output@@V?$standard_base@DV?$stream_output_adapter@D@__crt_stdio_output@@@2@@__crt_stdio_output@@AAE_NXZ 10077600 f i libucrtd:output.obj
 0001:00076730       ?type_case_Z@?$output_processor@DV?$string_output_adapter@D@__crt_stdio_output@@V?$format_validation_base@DV?$string_output_adapter@D@__crt_stdio_output@@@2@@__crt_stdio_output@@AAE_NXZ 10077730 f i libucrtd:output.obj
 0001:00076860       ?type_case_Z@?$output_processor@DV?$string_output_adapter@D@__crt_stdio_output@@V?$positional_parameter_base@DV?$string_output_adapter@D@__crt_stdio_output@@@2@@__crt_stdio_output@@AAE_NXZ 10077860 f i libucrtd:output.obj
 0001:00076990       ?type_case_Z@?$output_processor@DV?$string_output_adapter@D@__crt_stdio_output@@V?$standard_base@DV?$string_output_adapter@D@__crt_stdio_output@@@2@@__crt_stdio_output@@AAE_NXZ 10077990 f i libucrtd:output.obj
 0001:00076ac0       ?type_case_Z@?$output_processor@_WV?$stream_output_adapter@_W@__crt_stdio_output@@V?$format_validation_base@_WV?$stream_output_adapter@_W@__crt_stdio_output@@@2@@__crt_stdio_output@@AAE_NXZ 10077ac0 f i libucrtd:output.obj
 0001:00076bf0       ?type_case_Z@?$output_processor@_WV?$stream_output_adapter@_W@__crt_stdio_output@@V?$positional_parameter_base@_WV?$stream_output_adapter@_W@__crt_stdio_output@@@2@@__crt_stdio_output@@AAE_NXZ 10077bf0 f i libucrtd:output.obj
 0001:00076d20       ?type_case_Z@?$output_processor@_WV?$stream_output_adapter@_W@__crt_stdio_output@@V?$standard_base@_WV?$stream_output_adapter@_W@__crt_stdio_output@@@2@@__crt_stdio_output@@AAE_NXZ 10077d20 f i libucrtd:output.obj
 0001:00076e50       ?type_case_Z@?$output_processor@_WV?$string_output_adapter@_W@__crt_stdio_output@@V?$format_validation_base@_WV?$string_output_adapter@_W@__crt_stdio_output@@@2@@__crt_stdio_output@@AAE_NXZ 10077e50 f i libucrtd:output.obj
 0001:00076f80       ?type_case_Z@?$output_processor@_WV?$string_output_adapter@_W@__crt_stdio_output@@V?$positional_parameter_base@_WV?$string_output_adapter@_W@__crt_stdio_output@@@2@@__crt_stdio_output@@AAE_NXZ 10077f80 f i libucrtd:output.obj
 0001:000770b0       ?type_case_Z@?$output_processor@_WV?$string_output_adapter@_W@__crt_stdio_output@@V?$standard_base@_WV?$string_output_adapter@_W@__crt_stdio_output@@@2@@__crt_stdio_output@@AAE_NXZ 100780b0 f i libucrtd:output.obj
 0001:000771e0       ?type_case_a@?$output_processor@DV?$stream_output_adapter@D@__crt_stdio_output@@V?$format_validation_base@DV?$stream_output_adapter@D@__crt_stdio_output@@@2@@__crt_stdio_output@@AAE_NXZ 100781e0 f i libucrtd:output.obj
 0001:000774d0       ?type_case_a@?$output_processor@DV?$stream_output_adapter@D@__crt_stdio_output@@V?$positional_parameter_base@DV?$stream_output_adapter@D@__crt_stdio_output@@@2@@__crt_stdio_output@@AAE_NXZ 100784d0 f i libucrtd:output.obj
 0001:000777c0       ?type_case_a@?$output_processor@DV?$stream_output_adapter@D@__crt_stdio_output@@V?$standard_base@DV?$stream_output_adapter@D@__crt_stdio_output@@@2@@__crt_stdio_output@@AAE_NXZ 100787c0 f i libucrtd:output.obj
 0001:00077ab0       ?type_case_a@?$output_processor@DV?$string_output_adapter@D@__crt_stdio_output@@V?$format_validation_base@DV?$string_output_adapter@D@__crt_stdio_output@@@2@@__crt_stdio_output@@AAE_NXZ 10078ab0 f i libucrtd:output.obj
 0001:00077da0       ?type_case_a@?$output_processor@DV?$string_output_adapter@D@__crt_stdio_output@@V?$positional_parameter_base@DV?$string_output_adapter@D@__crt_stdio_output@@@2@@__crt_stdio_output@@AAE_NXZ 10078da0 f i libucrtd:output.obj
 0001:00078090       ?type_case_a@?$output_processor@DV?$string_output_adapter@D@__crt_stdio_output@@V?$standard_base@DV?$string_output_adapter@D@__crt_stdio_output@@@2@@__crt_stdio_output@@AAE_NXZ 10079090 f i libucrtd:output.obj
 0001:00078380       ?type_case_a@?$output_processor@_WV?$stream_output_adapter@_W@__crt_stdio_output@@V?$format_validation_base@_WV?$stream_output_adapter@_W@__crt_stdio_output@@@2@@__crt_stdio_output@@AAE_NXZ 10079380 f i libucrtd:output.obj
 0001:00078680       ?type_case_a@?$output_processor@_WV?$stream_output_adapter@_W@__crt_stdio_output@@V?$positional_parameter_base@_WV?$stream_output_adapter@_W@__crt_stdio_output@@@2@@__crt_stdio_output@@AAE_NXZ 10079680 f i libucrtd:output.obj
 0001:00078980       ?type_case_a@?$output_processor@_WV?$stream_output_adapter@_W@__crt_stdio_output@@V?$standard_base@_WV?$stream_output_adapter@_W@__crt_stdio_output@@@2@@__crt_stdio_output@@AAE_NXZ 10079980 f i libucrtd:output.obj
 0001:00078c80       ?type_case_a@?$output_processor@_WV?$string_output_adapter@_W@__crt_stdio_output@@V?$format_validation_base@_WV?$string_output_adapter@_W@__crt_stdio_output@@@2@@__crt_stdio_output@@AAE_NXZ 10079c80 f i libucrtd:output.obj
 0001:00078f80       ?type_case_a@?$output_processor@_WV?$string_output_adapter@_W@__crt_stdio_output@@V?$positional_parameter_base@_WV?$string_output_adapter@_W@__crt_stdio_output@@@2@@__crt_stdio_output@@AAE_NXZ 10079f80 f i libucrtd:output.obj
 0001:00079280       ?type_case_a@?$output_processor@_WV?$string_output_adapter@_W@__crt_stdio_output@@V?$standard_base@_WV?$string_output_adapter@_W@__crt_stdio_output@@@2@@__crt_stdio_output@@AAE_NXZ 1007a280 f i libucrtd:output.obj
 0001:00079580       ?type_case_c@?$output_processor@DV?$stream_output_adapter@D@__crt_stdio_output@@V?$format_validation_base@DV?$stream_output_adapter@D@__crt_stdio_output@@@2@@__crt_stdio_output@@AAE_NXZ 1007a580 f i libucrtd:output.obj
 0001:000795a0       ?type_case_c@?$output_processor@DV?$stream_output_adapter@D@__crt_stdio_output@@V?$positional_parameter_base@DV?$stream_output_adapter@D@__crt_stdio_output@@@2@@__crt_stdio_output@@AAE_NXZ 1007a5a0 f i libucrtd:output.obj
 0001:000795c0       ?type_case_c@?$output_processor@DV?$stream_output_adapter@D@__crt_stdio_output@@V?$standard_base@DV?$stream_output_adapter@D@__crt_stdio_output@@@2@@__crt_stdio_output@@AAE_NXZ 1007a5c0 f i libucrtd:output.obj
 0001:000795e0       ?type_case_c@?$output_processor@DV?$string_output_adapter@D@__crt_stdio_output@@V?$format_validation_base@DV?$string_output_adapter@D@__crt_stdio_output@@@2@@__crt_stdio_output@@AAE_NXZ 1007a5e0 f i libucrtd:output.obj
 0001:00079600       ?type_case_c@?$output_processor@DV?$string_output_adapter@D@__crt_stdio_output@@V?$positional_parameter_base@DV?$string_output_adapter@D@__crt_stdio_output@@@2@@__crt_stdio_output@@AAE_NXZ 1007a600 f i libucrtd:output.obj
 0001:00079620       ?type_case_c@?$output_processor@DV?$string_output_adapter@D@__crt_stdio_output@@V?$standard_base@DV?$string_output_adapter@D@__crt_stdio_output@@@2@@__crt_stdio_output@@AAE_NXZ 1007a620 f i libucrtd:output.obj
 0001:00079640       ?type_case_c@?$output_processor@_WV?$stream_output_adapter@_W@__crt_stdio_output@@V?$format_validation_base@_WV?$stream_output_adapter@_W@__crt_stdio_output@@@2@@__crt_stdio_output@@AAE_NXZ 1007a640 f i libucrtd:output.obj
 0001:00079660       ?type_case_c@?$output_processor@_WV?$stream_output_adapter@_W@__crt_stdio_output@@V?$positional_parameter_base@_WV?$stream_output_adapter@_W@__crt_stdio_output@@@2@@__crt_stdio_output@@AAE_NXZ 1007a660 f i libucrtd:output.obj
 0001:00079680       ?type_case_c@?$output_processor@_WV?$stream_output_adapter@_W@__crt_stdio_output@@V?$standard_base@_WV?$stream_output_adapter@_W@__crt_stdio_output@@@2@@__crt_stdio_output@@AAE_NXZ 1007a680 f i libucrtd:output.obj
 0001:000796a0       ?type_case_c@?$output_processor@_WV?$string_output_adapter@_W@__crt_stdio_output@@V?$format_validation_base@_WV?$string_output_adapter@_W@__crt_stdio_output@@@2@@__crt_stdio_output@@AAE_NXZ 1007a6a0 f i libucrtd:output.obj
 0001:000796c0       ?type_case_c@?$output_processor@_WV?$string_output_adapter@_W@__crt_stdio_output@@V?$positional_parameter_base@_WV?$string_output_adapter@_W@__crt_stdio_output@@@2@@__crt_stdio_output@@AAE_NXZ 1007a6c0 f i libucrtd:output.obj
 0001:000796e0       ?type_case_c@?$output_processor@_WV?$string_output_adapter@_W@__crt_stdio_output@@V?$standard_base@_WV?$string_output_adapter@_W@__crt_stdio_output@@@2@@__crt_stdio_output@@AAE_NXZ 1007a6e0 f i libucrtd:output.obj
 0001:00079700       ?type_case_c_tchar@?$output_processor@DV?$stream_output_adapter@D@__crt_stdio_output@@V?$format_validation_base@DV?$stream_output_adapter@D@__crt_stdio_output@@@2@@__crt_stdio_output@@AAE_ND@Z 1007a700 f i libucrtd:output.obj
 0001:00079850       ?type_case_c_tchar@?$output_processor@DV?$stream_output_adapter@D@__crt_stdio_output@@V?$positional_parameter_base@DV?$stream_output_adapter@D@__crt_stdio_output@@@2@@__crt_stdio_output@@AAE_ND@Z 1007a850 f i libucrtd:output.obj
 0001:000799a0       ?type_case_c_tchar@?$output_processor@DV?$stream_output_adapter@D@__crt_stdio_output@@V?$standard_base@DV?$stream_output_adapter@D@__crt_stdio_output@@@2@@__crt_stdio_output@@AAE_ND@Z 1007a9a0 f i libucrtd:output.obj
 0001:00079af0       ?type_case_c_tchar@?$output_processor@DV?$string_output_adapter@D@__crt_stdio_output@@V?$format_validation_base@DV?$string_output_adapter@D@__crt_stdio_output@@@2@@__crt_stdio_output@@AAE_ND@Z 1007aaf0 f i libucrtd:output.obj
 0001:00079c40       ?type_case_c_tchar@?$output_processor@DV?$string_output_adapter@D@__crt_stdio_output@@V?$positional_parameter_base@DV?$string_output_adapter@D@__crt_stdio_output@@@2@@__crt_stdio_output@@AAE_ND@Z 1007ac40 f i libucrtd:output.obj
 0001:00079d90       ?type_case_c_tchar@?$output_processor@DV?$string_output_adapter@D@__crt_stdio_output@@V?$standard_base@DV?$string_output_adapter@D@__crt_stdio_output@@@2@@__crt_stdio_output@@AAE_ND@Z 1007ad90 f i libucrtd:output.obj
 0001:00079ee0       ?type_case_c_tchar@?$output_processor@_WV?$stream_output_adapter@_W@__crt_stdio_output@@V?$format_validation_base@_WV?$stream_output_adapter@_W@__crt_stdio_output@@@2@@__crt_stdio_output@@AAE_N_W@Z 1007aee0 f i libucrtd:output.obj
 0001:0007a020       ?type_case_c_tchar@?$output_processor@_WV?$stream_output_adapter@_W@__crt_stdio_output@@V?$positional_parameter_base@_WV?$stream_output_adapter@_W@__crt_stdio_output@@@2@@__crt_stdio_output@@AAE_N_W@Z 1007b020 f i libucrtd:output.obj
 0001:0007a160       ?type_case_c_tchar@?$output_processor@_WV?$stream_output_adapter@_W@__crt_stdio_output@@V?$standard_base@_WV?$stream_output_adapter@_W@__crt_stdio_output@@@2@@__crt_stdio_output@@AAE_N_W@Z 1007b160 f i libucrtd:output.obj
 0001:0007a2a0       ?type_case_c_tchar@?$output_processor@_WV?$string_output_adapter@_W@__crt_stdio_output@@V?$format_validation_base@_WV?$string_output_adapter@_W@__crt_stdio_output@@@2@@__crt_stdio_output@@AAE_N_W@Z 1007b2a0 f i libucrtd:output.obj
 0001:0007a3e0       ?type_case_c_tchar@?$output_processor@_WV?$string_output_adapter@_W@__crt_stdio_output@@V?$positional_parameter_base@_WV?$string_output_adapter@_W@__crt_stdio_output@@@2@@__crt_stdio_output@@AAE_N_W@Z 1007b3e0 f i libucrtd:output.obj
 0001:0007a520       ?type_case_c_tchar@?$output_processor@_WV?$string_output_adapter@_W@__crt_stdio_output@@V?$standard_base@_WV?$string_output_adapter@_W@__crt_stdio_output@@@2@@__crt_stdio_output@@AAE_N_W@Z 1007b520 f i libucrtd:output.obj
 0001:0007a660       ?type_case_d@?$output_processor@DV?$stream_output_adapter@D@__crt_stdio_output@@V?$format_validation_base@DV?$stream_output_adapter@D@__crt_stdio_output@@@2@@__crt_stdio_output@@AAE_NXZ 1007b660 f i libucrtd:output.obj
 0001:0007a690       ?type_case_d@?$output_processor@DV?$stream_output_adapter@D@__crt_stdio_output@@V?$positional_parameter_base@DV?$stream_output_adapter@D@__crt_stdio_output@@@2@@__crt_stdio_output@@AAE_NXZ 1007b690 f i libucrtd:output.obj
 0001:0007a6c0       ?type_case_d@?$output_processor@DV?$stream_output_adapter@D@__crt_stdio_output@@V?$standard_base@DV?$stream_output_adapter@D@__crt_stdio_output@@@2@@__crt_stdio_output@@AAE_NXZ 1007b6c0 f i libucrtd:output.obj
 0001:0007a6f0       ?type_case_d@?$output_processor@DV?$string_output_adapter@D@__crt_stdio_output@@V?$format_validation_base@DV?$string_output_adapter@D@__crt_stdio_output@@@2@@__crt_stdio_output@@AAE_NXZ 1007b6f0 f i libucrtd:output.obj
 0001:0007a720       ?type_case_d@?$output_processor@DV?$string_output_adapter@D@__crt_stdio_output@@V?$positional_parameter_base@DV?$string_output_adapter@D@__crt_stdio_output@@@2@@__crt_stdio_output@@AAE_NXZ 1007b720 f i libucrtd:output.obj
 0001:0007a750       ?type_case_d@?$output_processor@DV?$string_output_adapter@D@__crt_stdio_output@@V?$standard_base@DV?$string_output_adapter@D@__crt_stdio_output@@@2@@__crt_stdio_output@@AAE_NXZ 1007b750 f i libucrtd:output.obj
 0001:0007a780       ?type_case_d@?$output_processor@_WV?$stream_output_adapter@_W@__crt_stdio_output@@V?$format_validation_base@_WV?$stream_output_adapter@_W@__crt_stdio_output@@@2@@__crt_stdio_output@@AAE_NXZ 1007b780 f i libucrtd:output.obj
 0001:0007a7b0       ?type_case_d@?$output_processor@_WV?$stream_output_adapter@_W@__crt_stdio_output@@V?$positional_parameter_base@_WV?$stream_output_adapter@_W@__crt_stdio_output@@@2@@__crt_stdio_output@@AAE_NXZ 1007b7b0 f i libucrtd:output.obj
 0001:0007a7e0       ?type_case_d@?$output_processor@_WV?$stream_output_adapter@_W@__crt_stdio_output@@V?$standard_base@_WV?$stream_output_adapter@_W@__crt_stdio_output@@@2@@__crt_stdio_output@@AAE_NXZ 1007b7e0 f i libucrtd:output.obj
 0001:0007a810       ?type_case_d@?$output_processor@_WV?$string_output_adapter@_W@__crt_stdio_output@@V?$format_validation_base@_WV?$string_output_adapter@_W@__crt_stdio_output@@@2@@__crt_stdio_output@@AAE_NXZ 1007b810 f i libucrtd:output.obj
 0001:0007a840       ?type_case_d@?$output_processor@_WV?$string_output_adapter@_W@__crt_stdio_output@@V?$positional_parameter_base@_WV?$string_output_adapter@_W@__crt_stdio_output@@@2@@__crt_stdio_output@@AAE_NXZ 1007b840 f i libucrtd:output.obj
 0001:0007a870       ?type_case_d@?$output_processor@_WV?$string_output_adapter@_W@__crt_stdio_output@@V?$standard_base@_WV?$string_output_adapter@_W@__crt_stdio_output@@@2@@__crt_stdio_output@@AAE_NXZ 1007b870 f i libucrtd:output.obj
 0001:0007a8a0       ?type_case_integer@?$output_processor@DV?$stream_output_adapter@D@__crt_stdio_output@@V?$format_validation_base@DV?$stream_output_adapter@D@__crt_stdio_output@@@2@@__crt_stdio_output@@AAE_NI_N@Z 1007b8a0 f i libucrtd:output.obj
 0001:0007acb0       ?type_case_integer@?$output_processor@DV?$stream_output_adapter@D@__crt_stdio_output@@V?$positional_parameter_base@DV?$stream_output_adapter@D@__crt_stdio_output@@@2@@__crt_stdio_output@@AAE_NI_N@Z 1007bcb0 f i libucrtd:output.obj
 0001:0007b0c0       ?type_case_integer@?$output_processor@DV?$stream_output_adapter@D@__crt_stdio_output@@V?$standard_base@DV?$stream_output_adapter@D@__crt_stdio_output@@@2@@__crt_stdio_output@@AAE_NI_N@Z 1007c0c0 f i libucrtd:output.obj
 0001:0007b4d0       ?type_case_integer@?$output_processor@DV?$string_output_adapter@D@__crt_stdio_output@@V?$format_validation_base@DV?$string_output_adapter@D@__crt_stdio_output@@@2@@__crt_stdio_output@@AAE_NI_N@Z 1007c4d0 f i libucrtd:output.obj
 0001:0007b8e0       ?type_case_integer@?$output_processor@DV?$string_output_adapter@D@__crt_stdio_output@@V?$positional_parameter_base@DV?$string_output_adapter@D@__crt_stdio_output@@@2@@__crt_stdio_output@@AAE_NI_N@Z 1007c8e0 f i libucrtd:output.obj
 0001:0007bcf0       ?type_case_integer@?$output_processor@DV?$string_output_adapter@D@__crt_stdio_output@@V?$standard_base@DV?$string_output_adapter@D@__crt_stdio_output@@@2@@__crt_stdio_output@@AAE_NI_N@Z 1007ccf0 f i libucrtd:output.obj
 0001:0007c100       ?type_case_integer@?$output_processor@_WV?$stream_output_adapter@_W@__crt_stdio_output@@V?$format_validation_base@_WV?$stream_output_adapter@_W@__crt_stdio_output@@@2@@__crt_stdio_output@@AAE_NI_N@Z 1007d100 f i libucrtd:output.obj
 0001:0007c510       ?type_case_integer@?$output_processor@_WV?$stream_output_adapter@_W@__crt_stdio_output@@V?$positional_parameter_base@_WV?$stream_output_adapter@_W@__crt_stdio_output@@@2@@__crt_stdio_output@@AAE_NI_N@Z 1007d510 f i libucrtd:output.obj
 0001:0007c920       ?type_case_integer@?$output_processor@_WV?$stream_output_adapter@_W@__crt_stdio_output@@V?$standard_base@_WV?$stream_output_adapter@_W@__crt_stdio_output@@@2@@__crt_stdio_output@@AAE_NI_N@Z 1007d920 f i libucrtd:output.obj
 0001:0007cd30       ?type_case_integer@?$output_processor@_WV?$string_output_adapter@_W@__crt_stdio_output@@V?$format_validation_base@_WV?$string_output_adapter@_W@__crt_stdio_output@@@2@@__crt_stdio_output@@AAE_NI_N@Z 1007dd30 f i libucrtd:output.obj
 0001:0007d140       ?type_case_integer@?$output_processor@_WV?$string_output_adapter@_W@__crt_stdio_output@@V?$positional_parameter_base@_WV?$string_output_adapter@_W@__crt_stdio_output@@@2@@__crt_stdio_output@@AAE_NI_N@Z 1007e140 f i libucrtd:output.obj
 0001:0007d550       ?type_case_integer@?$output_processor@_WV?$string_output_adapter@_W@__crt_stdio_output@@V?$standard_base@_WV?$string_output_adapter@_W@__crt_stdio_output@@@2@@__crt_stdio_output@@AAE_NI_N@Z 1007e550 f i libucrtd:output.obj
 0001:0007d960       ?type_case_n@?$output_processor@DV?$stream_output_adapter@D@__crt_stdio_output@@V?$format_validation_base@DV?$stream_output_adapter@D@__crt_stdio_output@@@2@@__crt_stdio_output@@AAE_NXZ 1007e960 f i libucrtd:output.obj
 0001:0007dbd0       ?type_case_n@?$output_processor@DV?$stream_output_adapter@D@__crt_stdio_output@@V?$positional_parameter_base@DV?$stream_output_adapter@D@__crt_stdio_output@@@2@@__crt_stdio_output@@AAE_NXZ 1007ebd0 f i libucrtd:output.obj
 0001:0007de40       ?type_case_n@?$output_processor@DV?$stream_output_adapter@D@__crt_stdio_output@@V?$standard_base@DV?$stream_output_adapter@D@__crt_stdio_output@@@2@@__crt_stdio_output@@AAE_NXZ 1007ee40 f i libucrtd:output.obj
 0001:0007e0b0       ?type_case_n@?$output_processor@DV?$string_output_adapter@D@__crt_stdio_output@@V?$format_validation_base@DV?$string_output_adapter@D@__crt_stdio_output@@@2@@__crt_stdio_output@@AAE_NXZ 1007f0b0 f i libucrtd:output.obj
 0001:0007e320       ?type_case_n@?$output_processor@DV?$string_output_adapter@D@__crt_stdio_output@@V?$positional_parameter_base@DV?$string_output_adapter@D@__crt_stdio_output@@@2@@__crt_stdio_output@@AAE_NXZ 1007f320 f i libucrtd:output.obj
 0001:0007e590       ?type_case_n@?$output_processor@DV?$string_output_adapter@D@__crt_stdio_output@@V?$standard_base@DV?$string_output_adapter@D@__crt_stdio_output@@@2@@__crt_stdio_output@@AAE_NXZ 1007f590 f i libucrtd:output.obj
 0001:0007e800       ?type_case_n@?$output_processor@_WV?$stream_output_adapter@_W@__crt_stdio_output@@V?$format_validation_base@_WV?$stream_output_adapter@_W@__crt_stdio_output@@@2@@__crt_stdio_output@@AAE_NXZ 1007f800 f i libucrtd:output.obj
 0001:0007ea70       ?type_case_n@?$output_processor@_WV?$stream_output_adapter@_W@__crt_stdio_output@@V?$positional_parameter_base@_WV?$stream_output_adapter@_W@__crt_stdio_output@@@2@@__crt_stdio_output@@AAE_NXZ 1007fa70 f i libucrtd:output.obj
 0001:0007ece0       ?type_case_n@?$output_processor@_WV?$stream_output_adapter@_W@__crt_stdio_output@@V?$standard_base@_WV?$stream_output_adapter@_W@__crt_stdio_output@@@2@@__crt_stdio_output@@AAE_NXZ 1007fce0 f i libucrtd:output.obj
 0001:0007ef50       ?type_case_n@?$output_processor@_WV?$string_output_adapter@_W@__crt_stdio_output@@V?$format_validation_base@_WV?$string_output_adapter@_W@__crt_stdio_output@@@2@@__crt_stdio_output@@AAE_NXZ 1007ff50 f i libucrtd:output.obj
 0001:0007f1c0       ?type_case_n@?$output_processor@_WV?$string_output_adapter@_W@__crt_stdio_output@@V?$positional_parameter_base@_WV?$string_output_adapter@_W@__crt_stdio_output@@@2@@__crt_stdio_output@@AAE_NXZ 100801c0 f i libucrtd:output.obj
 0001:0007f430       ?type_case_n@?$output_processor@_WV?$string_output_adapter@_W@__crt_stdio_output@@V?$standard_base@_WV?$string_output_adapter@_W@__crt_stdio_output@@@2@@__crt_stdio_output@@AAE_NXZ 10080430 f i libucrtd:output.obj
 0001:0007f6a0       ?type_case_o@?$output_processor@DV?$stream_output_adapter@D@__crt_stdio_output@@V?$format_validation_base@DV?$stream_output_adapter@D@__crt_stdio_output@@@2@@__crt_stdio_output@@AAE_NXZ 100806a0 f i libucrtd:output.obj
 0001:0007f6f0       ?type_case_o@?$output_processor@DV?$stream_output_adapter@D@__crt_stdio_output@@V?$positional_parameter_base@DV?$stream_output_adapter@D@__crt_stdio_output@@@2@@__crt_stdio_output@@AAE_NXZ 100806f0 f i libucrtd:output.obj
 0001:0007f740       ?type_case_o@?$output_processor@DV?$stream_output_adapter@D@__crt_stdio_output@@V?$standard_base@DV?$stream_output_adapter@D@__crt_stdio_output@@@2@@__crt_stdio_output@@AAE_NXZ 10080740 f i libucrtd:output.obj
 0001:0007f790       ?type_case_o@?$output_processor@DV?$string_output_adapter@D@__crt_stdio_output@@V?$format_validation_base@DV?$string_output_adapter@D@__crt_stdio_output@@@2@@__crt_stdio_output@@AAE_NXZ 10080790 f i libucrtd:output.obj
 0001:0007f7e0       ?type_case_o@?$output_processor@DV?$string_output_adapter@D@__crt_stdio_output@@V?$positional_parameter_base@DV?$string_output_adapter@D@__crt_stdio_output@@@2@@__crt_stdio_output@@AAE_NXZ 100807e0 f i libucrtd:output.obj
 0001:0007f830       ?type_case_o@?$output_processor@DV?$string_output_adapter@D@__crt_stdio_output@@V?$standard_base@DV?$string_output_adapter@D@__crt_stdio_output@@@2@@__crt_stdio_output@@AAE_NXZ 10080830 f i libucrtd:output.obj
 0001:0007f880       ?type_case_o@?$output_processor@_WV?$stream_output_adapter@_W@__crt_stdio_output@@V?$format_validation_base@_WV?$stream_output_adapter@_W@__crt_stdio_output@@@2@@__crt_stdio_output@@AAE_NXZ 10080880 f i libucrtd:output.obj
 0001:0007f8d0       ?type_case_o@?$output_processor@_WV?$stream_output_adapter@_W@__crt_stdio_output@@V?$positional_parameter_base@_WV?$stream_output_adapter@_W@__crt_stdio_output@@@2@@__crt_stdio_output@@AAE_NXZ 100808d0 f i libucrtd:output.obj
 0001:0007f920       ?type_case_o@?$output_processor@_WV?$stream_output_adapter@_W@__crt_stdio_output@@V?$standard_base@_WV?$stream_output_adapter@_W@__crt_stdio_output@@@2@@__crt_stdio_output@@AAE_NXZ 10080920 f i libucrtd:output.obj
 0001:0007f970       ?type_case_o@?$output_processor@_WV?$string_output_adapter@_W@__crt_stdio_output@@V?$format_validation_base@_WV?$string_output_adapter@_W@__crt_stdio_output@@@2@@__crt_stdio_output@@AAE_NXZ 10080970 f i libucrtd:output.obj
 0001:0007f9c0       ?type_case_o@?$output_processor@_WV?$string_output_adapter@_W@__crt_stdio_output@@V?$positional_parameter_base@_WV?$string_output_adapter@_W@__crt_stdio_output@@@2@@__crt_stdio_output@@AAE_NXZ 100809c0 f i libucrtd:output.obj
 0001:0007fa10       ?type_case_o@?$output_processor@_WV?$string_output_adapter@_W@__crt_stdio_output@@V?$standard_base@_WV?$string_output_adapter@_W@__crt_stdio_output@@@2@@__crt_stdio_output@@AAE_NXZ 10080a10 f i libucrtd:output.obj
 0001:0007fa60       ?type_case_p@?$output_processor@DV?$stream_output_adapter@D@__crt_stdio_output@@V?$format_validation_base@DV?$stream_output_adapter@D@__crt_stdio_output@@@2@@__crt_stdio_output@@AAE_NXZ 10080a60 f i libucrtd:output.obj
 0001:0007faa0       ?type_case_p@?$output_processor@DV?$stream_output_adapter@D@__crt_stdio_output@@V?$positional_parameter_base@DV?$stream_output_adapter@D@__crt_stdio_output@@@2@@__crt_stdio_output@@AAE_NXZ 10080aa0 f i libucrtd:output.obj
 0001:0007fae0       ?type_case_p@?$output_processor@DV?$stream_output_adapter@D@__crt_stdio_output@@V?$standard_base@DV?$stream_output_adapter@D@__crt_stdio_output@@@2@@__crt_stdio_output@@AAE_NXZ 10080ae0 f i libucrtd:output.obj
 0001:0007fb20       ?type_case_p@?$output_processor@DV?$string_output_adapter@D@__crt_stdio_output@@V?$format_validation_base@DV?$string_output_adapter@D@__crt_stdio_output@@@2@@__crt_stdio_output@@AAE_NXZ 10080b20 f i libucrtd:output.obj
 0001:0007fb60       ?type_case_p@?$output_processor@DV?$string_output_adapter@D@__crt_stdio_output@@V?$positional_parameter_base@DV?$string_output_adapter@D@__crt_stdio_output@@@2@@__crt_stdio_output@@AAE_NXZ 10080b60 f i libucrtd:output.obj
 0001:0007fba0       ?type_case_p@?$output_processor@DV?$string_output_adapter@D@__crt_stdio_output@@V?$standard_base@DV?$string_output_adapter@D@__crt_stdio_output@@@2@@__crt_stdio_output@@AAE_NXZ 10080ba0 f i libucrtd:output.obj
 0001:0007fbe0       ?type_case_p@?$output_processor@_WV?$stream_output_adapter@_W@__crt_stdio_output@@V?$format_validation_base@_WV?$stream_output_adapter@_W@__crt_stdio_output@@@2@@__crt_stdio_output@@AAE_NXZ 10080be0 f i libucrtd:output.obj
 0001:0007fc20       ?type_case_p@?$output_processor@_WV?$stream_output_adapter@_W@__crt_stdio_output@@V?$positional_parameter_base@_WV?$stream_output_adapter@_W@__crt_stdio_output@@@2@@__crt_stdio_output@@AAE_NXZ 10080c20 f i libucrtd:output.obj
 0001:0007fc60       ?type_case_p@?$output_processor@_WV?$stream_output_adapter@_W@__crt_stdio_output@@V?$standard_base@_WV?$stream_output_adapter@_W@__crt_stdio_output@@@2@@__crt_stdio_output@@AAE_NXZ 10080c60 f i libucrtd:output.obj
 0001:0007fca0       ?type_case_p@?$output_processor@_WV?$string_output_adapter@_W@__crt_stdio_output@@V?$format_validation_base@_WV?$string_output_adapter@_W@__crt_stdio_output@@@2@@__crt_stdio_output@@AAE_NXZ 10080ca0 f i libucrtd:output.obj
 0001:0007fce0       ?type_case_p@?$output_processor@_WV?$string_output_adapter@_W@__crt_stdio_output@@V?$positional_parameter_base@_WV?$string_output_adapter@_W@__crt_stdio_output@@@2@@__crt_stdio_output@@AAE_NXZ 10080ce0 f i libucrtd:output.obj
 0001:0007fd20       ?type_case_p@?$output_processor@_WV?$string_output_adapter@_W@__crt_stdio_output@@V?$standard_base@_WV?$string_output_adapter@_W@__crt_stdio_output@@@2@@__crt_stdio_output@@AAE_NXZ 10080d20 f i libucrtd:output.obj
 0001:0007fd60       ?type_case_s@?$output_processor@DV?$stream_output_adapter@D@__crt_stdio_output@@V?$format_validation_base@DV?$stream_output_adapter@D@__crt_stdio_output@@@2@@__crt_stdio_output@@AAE_NXZ 10080d60 f i libucrtd:output.obj
 0001:0007fe90       ?type_case_s@?$output_processor@DV?$stream_output_adapter@D@__crt_stdio_output@@V?$positional_parameter_base@DV?$stream_output_adapter@D@__crt_stdio_output@@@2@@__crt_stdio_output@@AAE_NXZ 10080e90 f i libucrtd:output.obj
 0001:0007ffc0       ?type_case_s@?$output_processor@DV?$stream_output_adapter@D@__crt_stdio_output@@V?$standard_base@DV?$stream_output_adapter@D@__crt_stdio_output@@@2@@__crt_stdio_output@@AAE_NXZ 10080fc0 f i libucrtd:output.obj
 0001:000800f0       ?type_case_s@?$output_processor@DV?$string_output_adapter@D@__crt_stdio_output@@V?$format_validation_base@DV?$string_output_adapter@D@__crt_stdio_output@@@2@@__crt_stdio_output@@AAE_NXZ 100810f0 f i libucrtd:output.obj
 0001:00080220       ?type_case_s@?$output_processor@DV?$string_output_adapter@D@__crt_stdio_output@@V?$positional_parameter_base@DV?$string_output_adapter@D@__crt_stdio_output@@@2@@__crt_stdio_output@@AAE_NXZ 10081220 f i libucrtd:output.obj
 0001:00080350       ?type_case_s@?$output_processor@DV?$string_output_adapter@D@__crt_stdio_output@@V?$standard_base@DV?$string_output_adapter@D@__crt_stdio_output@@@2@@__crt_stdio_output@@AAE_NXZ 10081350 f i libucrtd:output.obj
 0001:00080480       ?type_case_s@?$output_processor@_WV?$stream_output_adapter@_W@__crt_stdio_output@@V?$format_validation_base@_WV?$stream_output_adapter@_W@__crt_stdio_output@@@2@@__crt_stdio_output@@AAE_NXZ 10081480 f i libucrtd:output.obj
 0001:000805b0       ?type_case_s@?$output_processor@_WV?$stream_output_adapter@_W@__crt_stdio_output@@V?$positional_parameter_base@_WV?$stream_output_adapter@_W@__crt_stdio_output@@@2@@__crt_stdio_output@@AAE_NXZ 100815b0 f i libucrtd:output.obj
 0001:000806e0       ?type_case_s@?$output_processor@_WV?$stream_output_adapter@_W@__crt_stdio_output@@V?$standard_base@_WV?$stream_output_adapter@_W@__crt_stdio_output@@@2@@__crt_stdio_output@@AAE_NXZ 100816e0 f i libucrtd:output.obj
 0001:00080810       ?type_case_s@?$output_processor@_WV?$string_output_adapter@_W@__crt_stdio_output@@V?$format_validation_base@_WV?$string_output_adapter@_W@__crt_stdio_output@@@2@@__crt_stdio_output@@AAE_NXZ 10081810 f i libucrtd:output.obj
 0001:00080940       ?type_case_s@?$output_processor@_WV?$string_output_adapter@_W@__crt_stdio_output@@V?$positional_parameter_base@_WV?$string_output_adapter@_W@__crt_stdio_output@@@2@@__crt_stdio_output@@AAE_NXZ 10081940 f i libucrtd:output.obj
 0001:00080a70       ?type_case_s@?$output_processor@_WV?$string_output_adapter@_W@__crt_stdio_output@@V?$standard_base@_WV?$string_output_adapter@_W@__crt_stdio_output@@@2@@__crt_stdio_output@@AAE_NXZ 10081a70 f i libucrtd:output.obj
 0001:00080ba0       ?type_case_s_compute_narrow_string_length@?$output_processor@DV?$stream_output_adapter@D@__crt_stdio_output@@V?$format_validation_base@DV?$stream_output_adapter@D@__crt_stdio_output@@@2@@__crt_stdio_output@@ABEHHD@Z 10081ba0 f i libucrtd:output.obj
 0001:00080bd0       ?type_case_s_compute_narrow_string_length@?$output_processor@DV?$stream_output_adapter@D@__crt_stdio_output@@V?$positional_parameter_base@DV?$stream_output_adapter@D@__crt_stdio_output@@@2@@__crt_stdio_output@@ABEHHD@Z 10081bd0 f i libucrtd:output.obj
 0001:00080c00       ?type_case_s_compute_narrow_string_length@?$output_processor@DV?$stream_output_adapter@D@__crt_stdio_output@@V?$standard_base@DV?$stream_output_adapter@D@__crt_stdio_output@@@2@@__crt_stdio_output@@ABEHHD@Z 10081c00 f i libucrtd:output.obj
 0001:00080c30       ?type_case_s_compute_narrow_string_length@?$output_processor@DV?$string_output_adapter@D@__crt_stdio_output@@V?$format_validation_base@DV?$string_output_adapter@D@__crt_stdio_output@@@2@@__crt_stdio_output@@ABEHHD@Z 10081c30 f i libucrtd:output.obj
 0001:00080c60       ?type_case_s_compute_narrow_string_length@?$output_processor@DV?$string_output_adapter@D@__crt_stdio_output@@V?$positional_parameter_base@DV?$string_output_adapter@D@__crt_stdio_output@@@2@@__crt_stdio_output@@ABEHHD@Z 10081c60 f i libucrtd:output.obj
 0001:00080c90       ?type_case_s_compute_narrow_string_length@?$output_processor@DV?$string_output_adapter@D@__crt_stdio_output@@V?$standard_base@DV?$string_output_adapter@D@__crt_stdio_output@@@2@@__crt_stdio_output@@ABEHHD@Z 10081c90 f i libucrtd:output.obj
 0001:00080cc0       ?type_case_s_compute_narrow_string_length@?$output_processor@_WV?$stream_output_adapter@_W@__crt_stdio_output@@V?$format_validation_base@_WV?$stream_output_adapter@_W@__crt_stdio_output@@@2@@__crt_stdio_output@@ABEHH_W@Z 10081cc0 f i libucrtd:output.obj
 0001:00080d50       ?type_case_s_compute_narrow_string_length@?$output_processor@_WV?$stream_output_adapter@_W@__crt_stdio_output@@V?$positional_parameter_base@_WV?$stream_output_adapter@_W@__crt_stdio_output@@@2@@__crt_stdio_output@@ABEHH_W@Z 10081d50 f i libucrtd:output.obj
 0001:00080de0       ?type_case_s_compute_narrow_string_length@?$output_processor@_WV?$stream_output_adapter@_W@__crt_stdio_output@@V?$standard_base@_WV?$stream_output_adapter@_W@__crt_stdio_output@@@2@@__crt_stdio_output@@ABEHH_W@Z 10081de0 f i libucrtd:output.obj
 0001:00080e70       ?type_case_s_compute_narrow_string_length@?$output_processor@_WV?$string_output_adapter@_W@__crt_stdio_output@@V?$format_validation_base@_WV?$string_output_adapter@_W@__crt_stdio_output@@@2@@__crt_stdio_output@@ABEHH_W@Z 10081e70 f i libucrtd:output.obj
 0001:00080f00       ?type_case_s_compute_narrow_string_length@?$output_processor@_WV?$string_output_adapter@_W@__crt_stdio_output@@V?$positional_parameter_base@_WV?$string_output_adapter@_W@__crt_stdio_output@@@2@@__crt_stdio_output@@ABEHH_W@Z 10081f00 f i libucrtd:output.obj
 0001:00080f90       ?type_case_s_compute_narrow_string_length@?$output_processor@_WV?$string_output_adapter@_W@__crt_stdio_output@@V?$standard_base@_WV?$string_output_adapter@_W@__crt_stdio_output@@@2@@__crt_stdio_output@@ABEHH_W@Z 10081f90 f i libucrtd:output.obj
 0001:00081020       ?type_case_u@?$output_processor@DV?$stream_output_adapter@D@__crt_stdio_output@@V?$format_validation_base@DV?$stream_output_adapter@D@__crt_stdio_output@@@2@@__crt_stdio_output@@AAE_NXZ 10082020 f i libucrtd:output.obj
 0001:00081040       ?type_case_u@?$output_processor@DV?$stream_output_adapter@D@__crt_stdio_output@@V?$positional_parameter_base@DV?$stream_output_adapter@D@__crt_stdio_output@@@2@@__crt_stdio_output@@AAE_NXZ 10082040 f i libucrtd:output.obj
 0001:00081060       ?type_case_u@?$output_processor@DV?$stream_output_adapter@D@__crt_stdio_output@@V?$standard_base@DV?$stream_output_adapter@D@__crt_stdio_output@@@2@@__crt_stdio_output@@AAE_NXZ 10082060 f i libucrtd:output.obj
 0001:00081080       ?type_case_u@?$output_processor@DV?$string_output_adapter@D@__crt_stdio_output@@V?$format_validation_base@DV?$string_output_adapter@D@__crt_stdio_output@@@2@@__crt_stdio_output@@AAE_NXZ 10082080 f i libucrtd:output.obj
 0001:000810a0       ?type_case_u@?$output_processor@DV?$string_output_adapter@D@__crt_stdio_output@@V?$positional_parameter_base@DV?$string_output_adapter@D@__crt_stdio_output@@@2@@__crt_stdio_output@@AAE_NXZ 100820a0 f i libucrtd:output.obj
 0001:000810c0       ?type_case_u@?$output_processor@DV?$string_output_adapter@D@__crt_stdio_output@@V?$standard_base@DV?$string_output_adapter@D@__crt_stdio_output@@@2@@__crt_stdio_output@@AAE_NXZ 100820c0 f i libucrtd:output.obj
 0001:000810e0       ?type_case_u@?$output_processor@_WV?$stream_output_adapter@_W@__crt_stdio_output@@V?$format_validation_base@_WV?$stream_output_adapter@_W@__crt_stdio_output@@@2@@__crt_stdio_output@@AAE_NXZ 100820e0 f i libucrtd:output.obj
 0001:00081100       ?type_case_u@?$output_processor@_WV?$stream_output_adapter@_W@__crt_stdio_output@@V?$positional_parameter_base@_WV?$stream_output_adapter@_W@__crt_stdio_output@@@2@@__crt_stdio_output@@AAE_NXZ 10082100 f i libucrtd:output.obj
 0001:00081120       ?type_case_u@?$output_processor@_WV?$stream_output_adapter@_W@__crt_stdio_output@@V?$standard_base@_WV?$stream_output_adapter@_W@__crt_stdio_output@@@2@@__crt_stdio_output@@AAE_NXZ 10082120 f i libucrtd:output.obj
 0001:00081140       ?type_case_u@?$output_processor@_WV?$string_output_adapter@_W@__crt_stdio_output@@V?$format_validation_base@_WV?$string_output_adapter@_W@__crt_stdio_output@@@2@@__crt_stdio_output@@AAE_NXZ 10082140 f i libucrtd:output.obj
 0001:00081160       ?type_case_u@?$output_processor@_WV?$string_output_adapter@_W@__crt_stdio_output@@V?$positional_parameter_base@_WV?$string_output_adapter@_W@__crt_stdio_output@@@2@@__crt_stdio_output@@AAE_NXZ 10082160 f i libucrtd:output.obj
 0001:00081180       ?type_case_u@?$output_processor@_WV?$string_output_adapter@_W@__crt_stdio_output@@V?$standard_base@_WV?$string_output_adapter@_W@__crt_stdio_output@@@2@@__crt_stdio_output@@AAE_NXZ 10082180 f i libucrtd:output.obj
 0001:000811a0       ?type_case_x@?$output_processor@DV?$stream_output_adapter@D@__crt_stdio_output@@V?$format_validation_base@DV?$stream_output_adapter@D@__crt_stdio_output@@@2@@__crt_stdio_output@@AAE_NXZ 100821a0 f i libucrtd:output.obj
 0001:000811c0       ?type_case_x@?$output_processor@DV?$stream_output_adapter@D@__crt_stdio_output@@V?$positional_parameter_base@DV?$stream_output_adapter@D@__crt_stdio_output@@@2@@__crt_stdio_output@@AAE_NXZ 100821c0 f i libucrtd:output.obj
 0001:000811e0       ?type_case_x@?$output_processor@DV?$stream_output_adapter@D@__crt_stdio_output@@V?$standard_base@DV?$stream_output_adapter@D@__crt_stdio_output@@@2@@__crt_stdio_output@@AAE_NXZ 100821e0 f i libucrtd:output.obj
 0001:00081200       ?type_case_x@?$output_processor@DV?$string_output_adapter@D@__crt_stdio_output@@V?$format_validation_base@DV?$string_output_adapter@D@__crt_stdio_output@@@2@@__crt_stdio_output@@AAE_NXZ 10082200 f i libucrtd:output.obj
 0001:00081220       ?type_case_x@?$output_processor@DV?$string_output_adapter@D@__crt_stdio_output@@V?$positional_parameter_base@DV?$string_output_adapter@D@__crt_stdio_output@@@2@@__crt_stdio_output@@AAE_NXZ 10082220 f i libucrtd:output.obj
 0001:00081240       ?type_case_x@?$output_processor@DV?$string_output_adapter@D@__crt_stdio_output@@V?$standard_base@DV?$string_output_adapter@D@__crt_stdio_output@@@2@@__crt_stdio_output@@AAE_NXZ 10082240 f i libucrtd:output.obj
 0001:00081260       ?type_case_x@?$output_processor@_WV?$stream_output_adapter@_W@__crt_stdio_output@@V?$format_validation_base@_WV?$stream_output_adapter@_W@__crt_stdio_output@@@2@@__crt_stdio_output@@AAE_NXZ 10082260 f i libucrtd:output.obj
 0001:00081280       ?type_case_x@?$output_processor@_WV?$stream_output_adapter@_W@__crt_stdio_output@@V?$positional_parameter_base@_WV?$stream_output_adapter@_W@__crt_stdio_output@@@2@@__crt_stdio_output@@AAE_NXZ 10082280 f i libucrtd:output.obj
 0001:000812a0       ?type_case_x@?$output_processor@_WV?$stream_output_adapter@_W@__crt_stdio_output@@V?$standard_base@_WV?$stream_output_adapter@_W@__crt_stdio_output@@@2@@__crt_stdio_output@@AAE_NXZ 100822a0 f i libucrtd:output.obj
 0001:000812c0       ?type_case_x@?$output_processor@_WV?$string_output_adapter@_W@__crt_stdio_output@@V?$format_validation_base@_WV?$string_output_adapter@_W@__crt_stdio_output@@@2@@__crt_stdio_output@@AAE_NXZ 100822c0 f i libucrtd:output.obj
 0001:000812e0       ?type_case_x@?$output_processor@_WV?$string_output_adapter@_W@__crt_stdio_output@@V?$positional_parameter_base@_WV?$string_output_adapter@_W@__crt_stdio_output@@@2@@__crt_stdio_output@@AAE_NXZ 100822e0 f i libucrtd:output.obj
 0001:00081300       ?type_case_x@?$output_processor@_WV?$string_output_adapter@_W@__crt_stdio_output@@V?$standard_base@_WV?$string_output_adapter@_W@__crt_stdio_output@@@2@@__crt_stdio_output@@AAE_NXZ 10082300 f i libucrtd:output.obj
 0001:00081320       ?unset_flag@?$output_processor@DV?$stream_output_adapter@D@__crt_stdio_output@@V?$format_validation_base@DV?$stream_output_adapter@D@__crt_stdio_output@@@2@@__crt_stdio_output@@AAEXI@Z 10082320 f i libucrtd:output.obj
 0001:00081350       ?unset_flag@?$output_processor@DV?$stream_output_adapter@D@__crt_stdio_output@@V?$positional_parameter_base@DV?$stream_output_adapter@D@__crt_stdio_output@@@2@@__crt_stdio_output@@AAEXI@Z 10082350 f i libucrtd:output.obj
 0001:00081380       ?unset_flag@?$output_processor@DV?$stream_output_adapter@D@__crt_stdio_output@@V?$standard_base@DV?$stream_output_adapter@D@__crt_stdio_output@@@2@@__crt_stdio_output@@AAEXI@Z 10082380 f i libucrtd:output.obj
 0001:000813b0       ?unset_flag@?$output_processor@DV?$string_output_adapter@D@__crt_stdio_output@@V?$format_validation_base@DV?$string_output_adapter@D@__crt_stdio_output@@@2@@__crt_stdio_output@@AAEXI@Z 100823b0 f i libucrtd:output.obj
 0001:000813e0       ?unset_flag@?$output_processor@DV?$string_output_adapter@D@__crt_stdio_output@@V?$positional_parameter_base@DV?$string_output_adapter@D@__crt_stdio_output@@@2@@__crt_stdio_output@@AAEXI@Z 100823e0 f i libucrtd:output.obj
 0001:00081410       ?unset_flag@?$output_processor@DV?$string_output_adapter@D@__crt_stdio_output@@V?$standard_base@DV?$string_output_adapter@D@__crt_stdio_output@@@2@@__crt_stdio_output@@AAEXI@Z 10082410 f i libucrtd:output.obj
 0001:00081440       ?unset_flag@?$output_processor@_WV?$stream_output_adapter@_W@__crt_stdio_output@@V?$format_validation_base@_WV?$stream_output_adapter@_W@__crt_stdio_output@@@2@@__crt_stdio_output@@AAEXI@Z 10082440 f i libucrtd:output.obj
 0001:00081470       ?unset_flag@?$output_processor@_WV?$stream_output_adapter@_W@__crt_stdio_output@@V?$positional_parameter_base@_WV?$stream_output_adapter@_W@__crt_stdio_output@@@2@@__crt_stdio_output@@AAEXI@Z 10082470 f i libucrtd:output.obj
 0001:000814a0       ?unset_flag@?$output_processor@_WV?$stream_output_adapter@_W@__crt_stdio_output@@V?$standard_base@_WV?$stream_output_adapter@_W@__crt_stdio_output@@@2@@__crt_stdio_output@@AAEXI@Z 100824a0 f i libucrtd:output.obj
 0001:000814d0       ?unset_flag@?$output_processor@_WV?$string_output_adapter@_W@__crt_stdio_output@@V?$format_validation_base@_WV?$string_output_adapter@_W@__crt_stdio_output@@@2@@__crt_stdio_output@@AAEXI@Z 100824d0 f i libucrtd:output.obj
 0001:00081500       ?unset_flag@?$output_processor@_WV?$string_output_adapter@_W@__crt_stdio_output@@V?$positional_parameter_base@_WV?$string_output_adapter@_W@__crt_stdio_output@@@2@@__crt_stdio_output@@AAEXI@Z 10082500 f i libucrtd:output.obj
 0001:00081530       ?unset_flag@?$output_processor@_WV?$string_output_adapter@_W@__crt_stdio_output@@V?$standard_base@_WV?$string_output_adapter@_W@__crt_stdio_output@@@2@@__crt_stdio_output@@AAEXI@Z 10082530 f i libucrtd:output.obj
 0001:00081560       ?update_field_width@?$positional_parameter_base@DV?$stream_output_adapter@D@__crt_stdio_output@@@__crt_stdio_output@@IAE_NXZ 10082560 f i libucrtd:output.obj
 0001:00081740       ?update_field_width@?$positional_parameter_base@DV?$string_output_adapter@D@__crt_stdio_output@@@__crt_stdio_output@@IAE_NXZ 10082740 f i libucrtd:output.obj
 0001:00081920       ?update_field_width@?$positional_parameter_base@_WV?$stream_output_adapter@_W@__crt_stdio_output@@@__crt_stdio_output@@IAE_NXZ 10082920 f i libucrtd:output.obj
 0001:00081b00       ?update_field_width@?$positional_parameter_base@_WV?$string_output_adapter@_W@__crt_stdio_output@@@__crt_stdio_output@@IAE_NXZ 10082b00 f i libucrtd:output.obj
 0001:00081ce0       ?update_field_width@?$standard_base@DV?$stream_output_adapter@D@__crt_stdio_output@@@__crt_stdio_output@@IAE_NXZ 10082ce0 f i libucrtd:output.obj
 0001:00081d10       ?update_field_width@?$standard_base@DV?$string_output_adapter@D@__crt_stdio_output@@@__crt_stdio_output@@IAE_NXZ 10082d10 f i libucrtd:output.obj
 0001:00081d40       ?update_field_width@?$standard_base@_WV?$stream_output_adapter@_W@__crt_stdio_output@@@__crt_stdio_output@@IAE_NXZ 10082d40 f i libucrtd:output.obj
 0001:00081d70       ?update_field_width@?$standard_base@_WV?$string_output_adapter@_W@__crt_stdio_output@@@__crt_stdio_output@@IAE_NXZ 10082d70 f i libucrtd:output.obj
 0001:00081da0       ?update_precision@?$positional_parameter_base@DV?$stream_output_adapter@D@__crt_stdio_output@@@__crt_stdio_output@@IAE_NXZ 10082da0 f i libucrtd:output.obj
 0001:00081f80       ?update_precision@?$positional_parameter_base@DV?$string_output_adapter@D@__crt_stdio_output@@@__crt_stdio_output@@IAE_NXZ 10082f80 f i libucrtd:output.obj
 0001:00082160       ?update_precision@?$positional_parameter_base@_WV?$stream_output_adapter@_W@__crt_stdio_output@@@__crt_stdio_output@@IAE_NXZ 10083160 f i libucrtd:output.obj
 0001:00082340       ?update_precision@?$positional_parameter_base@_WV?$string_output_adapter@_W@__crt_stdio_output@@@__crt_stdio_output@@IAE_NXZ 10083340 f i libucrtd:output.obj
 0001:00082520       ?update_precision@?$standard_base@DV?$stream_output_adapter@D@__crt_stdio_output@@@__crt_stdio_output@@IAE_NXZ 10083520 f i libucrtd:output.obj
 0001:00082550       ?update_precision@?$standard_base@DV?$string_output_adapter@D@__crt_stdio_output@@@__crt_stdio_output@@IAE_NXZ 10083550 f i libucrtd:output.obj
 0001:00082580       ?update_precision@?$standard_base@_WV?$stream_output_adapter@_W@__crt_stdio_output@@@__crt_stdio_output@@IAE_NXZ 10083580 f i libucrtd:output.obj
 0001:000825b0       ?update_precision@?$standard_base@_WV?$string_output_adapter@_W@__crt_stdio_output@@@__crt_stdio_output@@IAE_NXZ 100835b0 f i libucrtd:output.obj
 0001:000825e0       ?valid@__crt_stdio_stream@@QBE_NXZ 100835e0 f i libucrtd:output.obj
 0001:00082620       ?validate@?$stream_output_adapter@D@__crt_stdio_output@@QBE_NXZ 10083620 f i libucrtd:output.obj
 0001:000826f0       ?validate@?$stream_output_adapter@_W@__crt_stdio_output@@QBE_NXZ 100836f0 f i libucrtd:output.obj
 0001:000827c0       ?validate@?$string_output_adapter@D@__crt_stdio_output@@QBE_NXZ 100837c0 f i libucrtd:output.obj
 0001:00082880       ?validate@?$string_output_adapter@_W@__crt_stdio_output@@QBE_NXZ 10083880 f i libucrtd:output.obj
 0001:00082940       ?validate_and_store_parameter_data@?$positional_parameter_base@DV?$stream_output_adapter@D@__crt_stdio_output@@@__crt_stdio_output@@AAE_NAAUparameter_data@12@W4parameter_type@12@DW4length_modifier@2@@Z 10083940 f i libucrtd:output.obj
 0001:00082a50       ?validate_and_store_parameter_data@?$positional_parameter_base@DV?$string_output_adapter@D@__crt_stdio_output@@@__crt_stdio_output@@AAE_NAAUparameter_data@12@W4parameter_type@12@DW4length_modifier@2@@Z 10083a50 f i libucrtd:output.obj
 0001:00082b60       ?validate_and_store_parameter_data@?$positional_parameter_base@_WV?$stream_output_adapter@_W@__crt_stdio_output@@@__crt_stdio_output@@AAE_NAAUparameter_data@12@W4parameter_type@12@_WW4length_modifier@2@@Z 10083b60 f i libucrtd:output.obj
 0001:00082c70       ?validate_and_store_parameter_data@?$positional_parameter_base@_WV?$string_output_adapter@_W@__crt_stdio_output@@@__crt_stdio_output@@AAE_NAAUparameter_data@12@W4parameter_type@12@_WW4length_modifier@2@@Z 10083c70 f i libucrtd:output.obj
 0001:00082d80       ?validate_and_update_state_at_beginning_of_format_character@?$positional_parameter_base@DV?$stream_output_adapter@D@__crt_stdio_output@@@__crt_stdio_output@@IAE_NXZ 10083d80 f i libucrtd:output.obj
 0001:00083030       ?validate_and_update_state_at_beginning_of_format_character@?$positional_parameter_base@DV?$string_output_adapter@D@__crt_stdio_output@@@__crt_stdio_output@@IAE_NXZ 10084030 f i libucrtd:output.obj
 0001:000832e0       ?validate_and_update_state_at_beginning_of_format_character@?$positional_parameter_base@_WV?$stream_output_adapter@_W@__crt_stdio_output@@@__crt_stdio_output@@IAE_NXZ 100842e0 f i libucrtd:output.obj
 0001:00083590       ?validate_and_update_state_at_beginning_of_format_character@?$positional_parameter_base@_WV?$string_output_adapter@_W@__crt_stdio_output@@@__crt_stdio_output@@IAE_NXZ 10084590 f i libucrtd:output.obj
 0001:00083840       ?validate_and_update_state_at_beginning_of_format_character@?$standard_base@DV?$stream_output_adapter@D@__crt_stdio_output@@@__crt_stdio_output@@IAE_NXZ 10084840 f i libucrtd:output.obj
 0001:00083860       ?validate_and_update_state_at_beginning_of_format_character@?$standard_base@DV?$string_output_adapter@D@__crt_stdio_output@@@__crt_stdio_output@@IAE_NXZ 10084860 f i libucrtd:output.obj
 0001:00083880       ?validate_and_update_state_at_beginning_of_format_character@?$standard_base@_WV?$stream_output_adapter@_W@__crt_stdio_output@@@__crt_stdio_output@@IAE_NXZ 10084880 f i libucrtd:output.obj
 0001:000838a0       ?validate_and_update_state_at_beginning_of_format_character@?$standard_base@_WV?$string_output_adapter@_W@__crt_stdio_output@@@__crt_stdio_output@@IAE_NXZ 100848a0 f i libucrtd:output.obj
 0001:000838c0       ?validate_and_update_state_at_end_of_format_string@?$format_validation_base@DV?$stream_output_adapter@D@__crt_stdio_output@@@__crt_stdio_output@@IBE_NXZ 100848c0 f i libucrtd:output.obj
 0001:00083980       ?validate_and_update_state_at_end_of_format_string@?$format_validation_base@DV?$string_output_adapter@D@__crt_stdio_output@@@__crt_stdio_output@@IBE_NXZ 10084980 f i libucrtd:output.obj
 0001:00083a40       ?validate_and_update_state_at_end_of_format_string@?$format_validation_base@_WV?$stream_output_adapter@_W@__crt_stdio_output@@@__crt_stdio_output@@IBE_NXZ 10084a40 f i libucrtd:output.obj
 0001:00083b00       ?validate_and_update_state_at_end_of_format_string@?$format_validation_base@_WV?$string_output_adapter@_W@__crt_stdio_output@@@__crt_stdio_output@@IBE_NXZ 10084b00 f i libucrtd:output.obj
 0001:00083bc0       ?validate_and_update_state_at_end_of_format_string@?$positional_parameter_base@DV?$stream_output_adapter@D@__crt_stdio_output@@@__crt_stdio_output@@IAE_NXZ 10084bc0 f i libucrtd:output.obj
 0001:00083dc0       ?validate_and_update_state_at_end_of_format_string@?$positional_parameter_base@DV?$string_output_adapter@D@__crt_stdio_output@@@__crt_stdio_output@@IAE_NXZ 10084dc0 f i libucrtd:output.obj
 0001:00083fc0       ?validate_and_update_state_at_end_of_format_string@?$positional_parameter_base@_WV?$stream_output_adapter@_W@__crt_stdio_output@@@__crt_stdio_output@@IAE_NXZ 10084fc0 f i libucrtd:output.obj
 0001:000841c0       ?validate_and_update_state_at_end_of_format_string@?$positional_parameter_base@_WV?$string_output_adapter@_W@__crt_stdio_output@@@__crt_stdio_output@@IAE_NXZ 100851c0 f i libucrtd:output.obj
 0001:000843c0       ?validate_and_update_state_at_end_of_format_string@?$standard_base@DV?$stream_output_adapter@D@__crt_stdio_output@@@__crt_stdio_output@@IBE_NXZ 100853c0 f i libucrtd:output.obj
 0001:000843e0       ?validate_and_update_state_at_end_of_format_string@?$standard_base@DV?$string_output_adapter@D@__crt_stdio_output@@@__crt_stdio_output@@IBE_NXZ 100853e0 f i libucrtd:output.obj
 0001:00084400       ?validate_and_update_state_at_end_of_format_string@?$standard_base@_WV?$stream_output_adapter@_W@__crt_stdio_output@@@__crt_stdio_output@@IBE_NXZ 10085400 f i libucrtd:output.obj
 0001:00084420       ?validate_and_update_state_at_end_of_format_string@?$standard_base@_WV?$string_output_adapter@_W@__crt_stdio_output@@@__crt_stdio_output@@IBE_NXZ 10085420 f i libucrtd:output.obj
 0001:00084440       ?validate_state_for_type_case_a@?$positional_parameter_base@DV?$stream_output_adapter@D@__crt_stdio_output@@@__crt_stdio_output@@IAE_NXZ 10085440 f i libucrtd:output.obj
 0001:00084570       ?validate_state_for_type_case_a@?$positional_parameter_base@DV?$string_output_adapter@D@__crt_stdio_output@@@__crt_stdio_output@@IAE_NXZ 10085570 f i libucrtd:output.obj
 0001:000846a0       ?validate_state_for_type_case_a@?$positional_parameter_base@_WV?$stream_output_adapter@_W@__crt_stdio_output@@@__crt_stdio_output@@IAE_NXZ 100856a0 f i libucrtd:output.obj
 0001:000847d0       ?validate_state_for_type_case_a@?$positional_parameter_base@_WV?$string_output_adapter@_W@__crt_stdio_output@@@__crt_stdio_output@@IAE_NXZ 100857d0 f i libucrtd:output.obj
 0001:00084900       ?validate_state_for_type_case_a@?$standard_base@DV?$stream_output_adapter@D@__crt_stdio_output@@@__crt_stdio_output@@IBE_NXZ 10085900 f i libucrtd:output.obj
 0001:00084920       ?validate_state_for_type_case_a@?$standard_base@DV?$string_output_adapter@D@__crt_stdio_output@@@__crt_stdio_output@@IBE_NXZ 10085920 f i libucrtd:output.obj
 0001:00084940       ?validate_state_for_type_case_a@?$standard_base@_WV?$stream_output_adapter@_W@__crt_stdio_output@@@__crt_stdio_output@@IBE_NXZ 10085940 f i libucrtd:output.obj
 0001:00084960       ?validate_state_for_type_case_a@?$standard_base@_WV?$string_output_adapter@_W@__crt_stdio_output@@@__crt_stdio_output@@IBE_NXZ 10085960 f i libucrtd:output.obj
 0001:00084980       ?validate_stream_is_ansi_if_required@?$__acrt_stdio_char_traits@D@@SA_NQAU_iobuf@@@Z 10085980 f i libucrtd:output.obj
 0001:00084b00       ?validate_stream_is_ansi_if_required@?$__acrt_stdio_char_traits@_W@@SA_NQAU_iobuf@@@Z 10085b00 f i libucrtd:output.obj
 0001:00084b10       ?wide_null_string@?$output_processor@DV?$stream_output_adapter@D@__crt_stdio_output@@V?$format_validation_base@DV?$stream_output_adapter@D@__crt_stdio_output@@@2@@__crt_stdio_output@@CAPA_WXZ 10085b10 f i libucrtd:output.obj
 0001:00084b20       ?wide_null_string@?$output_processor@DV?$stream_output_adapter@D@__crt_stdio_output@@V?$positional_parameter_base@DV?$stream_output_adapter@D@__crt_stdio_output@@@2@@__crt_stdio_output@@CAPA_WXZ 10085b20 f i libucrtd:output.obj
 0001:00084b30       ?wide_null_string@?$output_processor@DV?$stream_output_adapter@D@__crt_stdio_output@@V?$standard_base@DV?$stream_output_adapter@D@__crt_stdio_output@@@2@@__crt_stdio_output@@CAPA_WXZ 10085b30 f i libucrtd:output.obj
 0001:00084b40       ?wide_null_string@?$output_processor@DV?$string_output_adapter@D@__crt_stdio_output@@V?$format_validation_base@DV?$string_output_adapter@D@__crt_stdio_output@@@2@@__crt_stdio_output@@CAPA_WXZ 10085b40 f i libucrtd:output.obj
 0001:00084b50       ?wide_null_string@?$output_processor@DV?$string_output_adapter@D@__crt_stdio_output@@V?$positional_parameter_base@DV?$string_output_adapter@D@__crt_stdio_output@@@2@@__crt_stdio_output@@CAPA_WXZ 10085b50 f i libucrtd:output.obj
 0001:00084b60       ?wide_null_string@?$output_processor@DV?$string_output_adapter@D@__crt_stdio_output@@V?$standard_base@DV?$string_output_adapter@D@__crt_stdio_output@@@2@@__crt_stdio_output@@CAPA_WXZ 10085b60 f i libucrtd:output.obj
 0001:00084b70       ?wide_null_string@?$output_processor@_WV?$stream_output_adapter@_W@__crt_stdio_output@@V?$format_validation_base@_WV?$stream_output_adapter@_W@__crt_stdio_output@@@2@@__crt_stdio_output@@CAPA_WXZ 10085b70 f i libucrtd:output.obj
 0001:00084b80       ?wide_null_string@?$output_processor@_WV?$stream_output_adapter@_W@__crt_stdio_output@@V?$positional_parameter_base@_WV?$stream_output_adapter@_W@__crt_stdio_output@@@2@@__crt_stdio_output@@CAPA_WXZ 10085b80 f i libucrtd:output.obj
 0001:00084b90       ?wide_null_string@?$output_processor@_WV?$stream_output_adapter@_W@__crt_stdio_output@@V?$standard_base@_WV?$stream_output_adapter@_W@__crt_stdio_output@@@2@@__crt_stdio_output@@CAPA_WXZ 10085b90 f i libucrtd:output.obj
 0001:00084ba0       ?wide_null_string@?$output_processor@_WV?$string_output_adapter@_W@__crt_stdio_output@@V?$format_validation_base@_WV?$string_output_adapter@_W@__crt_stdio_output@@@2@@__crt_stdio_output@@CAPA_WXZ 10085ba0 f i libucrtd:output.obj
 0001:00084bb0       ?wide_null_string@?$output_processor@_WV?$string_output_adapter@_W@__crt_stdio_output@@V?$positional_parameter_base@_WV?$string_output_adapter@_W@__crt_stdio_output@@@2@@__crt_stdio_output@@CAPA_WXZ 10085bb0 f i libucrtd:output.obj
 0001:00084bc0       ?wide_null_string@?$output_processor@_WV?$string_output_adapter@_W@__crt_stdio_output@@V?$standard_base@_WV?$string_output_adapter@_W@__crt_stdio_output@@@2@@__crt_stdio_output@@CAPA_WXZ 10085bc0 f i libucrtd:output.obj
 0001:00084bd0       ?write_character@?$stream_output_adapter@D@__crt_stdio_output@@QBEXDQAH@Z 10085bd0 f i libucrtd:output.obj
 0001:00084c70       ?write_character@?$stream_output_adapter@_W@__crt_stdio_output@@QBEX_WQAH@Z 10085c70 f i libucrtd:output.obj
 0001:00084d10       ?write_character@?$string_output_adapter@D@__crt_stdio_output@@QBE_NDQAH@Z 10085d10 f i libucrtd:output.obj
 0001:00084dd0       ?write_character@?$string_output_adapter@_W@__crt_stdio_output@@QBE_N_WQAH@Z 10085dd0 f i libucrtd:output.obj
 0001:00084e90       ?write_stored_string_tchar@?$output_processor@DV?$stream_output_adapter@D@__crt_stdio_output@@V?$format_validation_base@DV?$stream_output_adapter@D@__crt_stdio_output@@@2@@__crt_stdio_output@@AAE_ND@Z 10085e90 f i libucrtd:output.obj
 0001:00084fe0       ?write_stored_string_tchar@?$output_processor@DV?$stream_output_adapter@D@__crt_stdio_output@@V?$positional_parameter_base@DV?$stream_output_adapter@D@__crt_stdio_output@@@2@@__crt_stdio_output@@AAE_ND@Z 10085fe0 f i libucrtd:output.obj
 0001:00085130       ?write_stored_string_tchar@?$output_processor@DV?$stream_output_adapter@D@__crt_stdio_output@@V?$standard_base@DV?$stream_output_adapter@D@__crt_stdio_output@@@2@@__crt_stdio_output@@AAE_ND@Z 10086130 f i libucrtd:output.obj
 0001:00085280       ?write_stored_string_tchar@?$output_processor@DV?$string_output_adapter@D@__crt_stdio_output@@V?$format_validation_base@DV?$string_output_adapter@D@__crt_stdio_output@@@2@@__crt_stdio_output@@AAE_ND@Z 10086280 f i libucrtd:output.obj
 0001:000853d0       ?write_stored_string_tchar@?$output_processor@DV?$string_output_adapter@D@__crt_stdio_output@@V?$positional_parameter_base@DV?$string_output_adapter@D@__crt_stdio_output@@@2@@__crt_stdio_output@@AAE_ND@Z 100863d0 f i libucrtd:output.obj
 0001:00085520       ?write_stored_string_tchar@?$output_processor@DV?$string_output_adapter@D@__crt_stdio_output@@V?$standard_base@DV?$string_output_adapter@D@__crt_stdio_output@@@2@@__crt_stdio_output@@AAE_ND@Z 10086520 f i libucrtd:output.obj
 0001:00085670       ?write_stored_string_tchar@?$output_processor@_WV?$stream_output_adapter@_W@__crt_stdio_output@@V?$format_validation_base@_WV?$stream_output_adapter@_W@__crt_stdio_output@@@2@@__crt_stdio_output@@AAE_N_W@Z 10086670 f i libucrtd:output.obj
 0001:00085790       ?write_stored_string_tchar@?$output_processor@_WV?$stream_output_adapter@_W@__crt_stdio_output@@V?$positional_parameter_base@_WV?$stream_output_adapter@_W@__crt_stdio_output@@@2@@__crt_stdio_output@@AAE_N_W@Z 10086790 f i libucrtd:output.obj
 0001:000858b0       ?write_stored_string_tchar@?$output_processor@_WV?$stream_output_adapter@_W@__crt_stdio_output@@V?$standard_base@_WV?$stream_output_adapter@_W@__crt_stdio_output@@@2@@__crt_stdio_output@@AAE_N_W@Z 100868b0 f i libucrtd:output.obj
 0001:000859d0       ?write_stored_string_tchar@?$output_processor@_WV?$string_output_adapter@_W@__crt_stdio_output@@V?$format_validation_base@_WV?$string_output_adapter@_W@__crt_stdio_output@@@2@@__crt_stdio_output@@AAE_N_W@Z 100869d0 f i libucrtd:output.obj
 0001:00085af0       ?write_stored_string_tchar@?$output_processor@_WV?$string_output_adapter@_W@__crt_stdio_output@@V?$positional_parameter_base@_WV?$string_output_adapter@_W@__crt_stdio_output@@@2@@__crt_stdio_output@@AAE_N_W@Z 10086af0 f i libucrtd:output.obj
 0001:00085c10       ?write_stored_string_tchar@?$output_processor@_WV?$string_output_adapter@_W@__crt_stdio_output@@V?$standard_base@_WV?$string_output_adapter@_W@__crt_stdio_output@@@2@@__crt_stdio_output@@AAE_N_W@Z 10086c10 f i libucrtd:output.obj
 0001:00085d30       ?write_string@?$stream_output_adapter@D@__crt_stdio_output@@QBEXQBDHQAH1@Z 10086d30 f i libucrtd:output.obj
 0001:00085e10       ?write_string@?$stream_output_adapter@_W@__crt_stdio_output@@QBEXQB_WHQAH1@Z 10086e10 f i libucrtd:output.obj
 0001:00085ef0       ?write_string@?$string_output_adapter@D@__crt_stdio_output@@QBEXQBDHQAH1@Z 10086ef0 f i libucrtd:output.obj
 0001:00086050       ?write_string@?$string_output_adapter@_W@__crt_stdio_output@@QBEXQB_WHQAH1@Z 10087050 f i libucrtd:output.obj
 0001:000861b0       ___acrt_isleadbyte_l_noupdate 100871b0 f i libucrtd:output.obj
 0001:000861e0       ___stdio_common_vfprintf   100871e0 f   libucrtd:output.obj
 0001:00086210       ___stdio_common_vfprintf_p 10087210 f   libucrtd:output.obj
 0001:00086240       ___stdio_common_vfprintf_s 10087240 f   libucrtd:output.obj
 0001:00086270       ___stdio_common_vfwprintf  10087270 f   libucrtd:output.obj
 0001:000862a0       ___stdio_common_vfwprintf_p 100872a0 f   libucrtd:output.obj
 0001:000862d0       ___stdio_common_vfwprintf_s 100872d0 f   libucrtd:output.obj
 0001:00086300       ___stdio_common_vsnprintf_s 10087300 f   libucrtd:output.obj
 0001:00086340       ___stdio_common_vsnwprintf_s 10087340 f   libucrtd:output.obj
 0001:00086380       ___stdio_common_vsprintf   10087380 f   libucrtd:output.obj
 0001:000863c0       ___stdio_common_vsprintf_p 100873c0 f   libucrtd:output.obj
 0001:00086400       ___stdio_common_vsprintf_s 10087400 f   libucrtd:output.obj
 0001:00086440       ___stdio_common_vswprintf  10087440 f   libucrtd:output.obj
 0001:00086480       ___stdio_common_vswprintf_p 10087480 f   libucrtd:output.obj
 0001:000864c0       ___stdio_common_vswprintf_s 100874c0 f   libucrtd:output.obj
 0001:00087080       __makepath                 10088080 f   libucrtd:makepath.obj
 0001:000870b0       __makepath_s               100880b0 f   libucrtd:makepath.obj
 0001:000870e0       __wmakepath                100880e0 f   libucrtd:makepath.obj
 0001:00087110       __wmakepath_s              10088110 f   libucrtd:makepath.obj
 0001:00088fa0       ??$tcsncpy_s@AAPADIAAPBDABI@?$__crt_char_traits@D@@SAHAAPAD$$QAIAAPBDABI@Z 10089fa0 f i libucrtd:splitpath.obj
 0001:00088fd0       ??$tcsncpy_s@AAPADIAAPBDH@?$__crt_char_traits@D@@SAHAAPAD$$QAIAAPBD$$QAH@Z 10089fd0 f i libucrtd:splitpath.obj
 0001:00089000       ??$tcsncpy_s@AAPA_WIAAPB_WABI@?$__crt_char_traits@_W@@SAHAAPA_W$$QAIAAPB_WABI@Z 1008a000 f i libucrtd:splitpath.obj
 0001:00089030       ??$tcsncpy_s@AAPA_WIAAPB_WH@?$__crt_char_traits@_W@@SAHAAPA_W$$QAIAAPB_W$$QAH@Z 1008a030 f i libucrtd:splitpath.obj
 0001:00089280       __splitpath                1008a280 f   libucrtd:splitpath.obj
 0001:000892b0       __splitpath_s              1008a2b0 f   libucrtd:splitpath.obj
 0001:00089310       __wsplitpath               1008a310 f   libucrtd:splitpath.obj
 0001:00089340       __wsplitpath_s             1008a340 f   libucrtd:splitpath.obj
 0001:00089780       _wcscpy_s                  1008a780 f   libucrtd:wcscpy_s.obj
 0001:000897b0       __set_abort_behavior       1008a7b0 f   libucrtd:abort.obj
 0001:000897f0       _abort                     1008a7f0 f   libucrtd:abort.obj
 0001:00089c50       _strcpy_s                  1008ac50 f   libucrtd:strcpy_s.obj
 0001:00089c80       _strcmp                    1008ac80 f   libucrtd:strcmp.obj
 0001:00089d30       _strlen                    1008ad30 f   libucrtd:strlen.obj
 0001:00089de0       ??$is_overflow_condition@K@__crt_strtox@@YA_NIK@Z 1008ade0 f i libucrtd:atox.obj
 0001:00089e50       ??$is_overflow_condition@_K@__crt_strtox@@YA_NI_K@Z 1008ae50 f i libucrtd:atox.obj
 0001:00089f00       ??$make_c_string_character_source@D$$T@__crt_strtox@@YA?AV?$c_string_character_source@D@0@QBD$$T@Z 1008af00 f i libucrtd:atox.obj
 0001:00089f20       ??$make_c_string_character_source@_W$$T@__crt_strtox@@YA?AV?$c_string_character_source@_W@0@QB_W$$T@Z 1008af20 f i libucrtd:atox.obj
 0001:00089f40       ??$parse_integer@KV?$c_string_character_source@D@__crt_strtox@@@__crt_strtox@@YAKQAU__crt_locale_pointers@@V?$c_string_character_source@D@0@H_N@Z 1008af40 f i libucrtd:atox.obj
 0001:0008a390       ??$parse_integer@KV?$c_string_character_source@_W@__crt_strtox@@@__crt_strtox@@YAKQAU__crt_locale_pointers@@V?$c_string_character_source@_W@0@H_N@Z 1008b390 f i libucrtd:atox.obj
 0001:0008a7e0       ??$parse_integer@_KV?$c_string_character_source@D@__crt_strtox@@@__crt_strtox@@YA_KQAU__crt_locale_pointers@@V?$c_string_character_source@D@0@H_N@Z 1008b7e0 f i libucrtd:atox.obj
 0001:0008ad00       ??$parse_integer@_KV?$c_string_character_source@_W@__crt_strtox@@@__crt_strtox@@YA_KQAU__crt_locale_pointers@@V?$c_string_character_source@_W@0@H_N@Z 1008bd00 f i libucrtd:atox.obj
 0001:0008b240       ??$parse_integer_from_string@JD$$T@__crt_strtox@@YAJQBD$$THQAU__crt_locale_pointers@@@Z 1008c240 f i libucrtd:atox.obj
 0001:0008b290       ??$parse_integer_from_string@J_W$$T@__crt_strtox@@YAJQB_W$$THQAU__crt_locale_pointers@@@Z 1008c290 f i libucrtd:atox.obj
 0001:0008b2e0       ??$parse_integer_from_string@_JD$$T@__crt_strtox@@YA_JQBD$$THQAU__crt_locale_pointers@@@Z 1008c2e0 f i libucrtd:atox.obj
 0001:0008b330       ??$parse_integer_from_string@_J_W$$T@__crt_strtox@@YA_JQB_W$$THQAU__crt_locale_pointers@@@Z 1008c330 f i libucrtd:atox.obj
 0001:0008b380       ??0?$c_string_character_source@D@__crt_strtox@@QAE@QBDQAPBD@Z 1008c380 f i libucrtd:atox.obj
 0001:0008b3c0       ??0?$c_string_character_source@_W@__crt_strtox@@QAE@QB_WQAPB_W@Z 1008c3c0 f i libucrtd:atox.obj
 0001:0008b400       ??1?$c_string_character_source@D@__crt_strtox@@QAE@XZ 1008c400 f i libucrtd:atox.obj
 0001:0008b430       ??1?$c_string_character_source@_W@__crt_strtox@@QAE@XZ 1008c430 f i libucrtd:atox.obj
 0001:0008b460       ?get@?$c_string_character_source@D@__crt_strtox@@QAEDXZ 1008c460 f i libucrtd:atox.obj
 0001:0008b4a0       ?get@?$c_string_character_source@_W@__crt_strtox@@QAE_WXZ 1008c4a0 f i libucrtd:atox.obj
 0001:0008b4e0       ?is_space@__crt_strtox@@YA_NDQAU__crt_locale_pointers@@@Z 1008c4e0 f i libucrtd:atox.obj
 0001:0008b530       ?is_space@__crt_strtox@@YA_N_WPAU__crt_locale_pointers@@@Z 1008c530 f i libucrtd:atox.obj
 0001:0008b570       ?maximum_signed_value@__crt_strtox@@YAJK@Z 1008c570 f i libucrtd:atox.obj
 0001:0008b580       ?maximum_signed_value@__crt_strtox@@YA_J_K@Z 1008c580 f i libucrtd:atox.obj
 0001:0008b5a0       ?minimum_signed_value@__crt_strtox@@YAJK@Z 1008c5a0 f i libucrtd:atox.obj
 0001:0008b5b0       ?minimum_signed_value@__crt_strtox@@YA_J_K@Z 1008c5b0 f i libucrtd:atox.obj
 0001:0008b5d0       ?parse_digit@__crt_strtox@@YAID@Z 1008c5d0 f i libucrtd:atox.obj
 0001:0008b650       ?parse_digit@__crt_strtox@@YAI_W@Z 1008c650 f i libucrtd:atox.obj
 0001:0008b6f0       ?restore_state@?$c_string_character_source@D@__crt_strtox@@QAE_NQBD@Z 1008c6f0 f i libucrtd:atox.obj
 0001:0008b710       ?restore_state@?$c_string_character_source@_W@__crt_strtox@@QAE_NQB_W@Z 1008c710 f i libucrtd:atox.obj
 0001:0008b730       ?save_state@?$c_string_character_source@D@__crt_strtox@@QBEPBDXZ 1008c730 f i libucrtd:atox.obj
 0001:0008b750       ?save_state@?$c_string_character_source@_W@__crt_strtox@@QBEPB_WXZ 1008c750 f i libucrtd:atox.obj
 0001:0008b770       ?unget@?$c_string_character_source@D@__crt_strtox@@QAEXD@Z 1008c770 f i libucrtd:atox.obj
 0001:0008b840       ?unget@?$c_string_character_source@_W@__crt_strtox@@QAEX_W@Z 1008c840 f i libucrtd:atox.obj
 0001:0008b910       ?validate@?$c_string_character_source@D@__crt_strtox@@QBE_NXZ 1008c910 f i libucrtd:atox.obj
 0001:0008b9d0       ?validate@?$c_string_character_source@_W@__crt_strtox@@QBE_NXZ 1008c9d0 f i libucrtd:atox.obj
 0001:0008ba90       ?wide_character_to_digit@__crt_strtox@@YAH_W@Z 1008ca90 f i libucrtd:atox.obj
 0001:0008be80       __atoi64                   1008ce80 f   libucrtd:atox.obj
 0001:0008bea0       __atoi64_l                 1008cea0 f   libucrtd:atox.obj
 0001:0008bed0       __atoi_l                   1008ced0 f   libucrtd:atox.obj
 0001:0008bf00       __atol_l                   1008cf00 f   libucrtd:atox.obj
 0001:0008bf30       __atoll_l                  1008cf30 f   libucrtd:atox.obj
 0001:0008bf60       __wtoi                     1008cf60 f   libucrtd:atox.obj
 0001:0008bf80       __wtoi64                   1008cf80 f   libucrtd:atox.obj
 0001:0008bfa0       __wtoi64_l                 1008cfa0 f   libucrtd:atox.obj
 0001:0008bfd0       __wtoi_l                   1008cfd0 f   libucrtd:atox.obj
 0001:0008c000       __wtol                     1008d000 f   libucrtd:atox.obj
 0001:0008c020       __wtol_l                   1008d020 f   libucrtd:atox.obj
 0001:0008c050       __wtoll                    1008d050 f   libucrtd:atox.obj
 0001:0008c070       __wtoll_l                  1008d070 f   libucrtd:atox.obj
 0001:0008c0a0       _atoi                      1008d0a0 f   libucrtd:atox.obj
 0001:0008c0c0       _atol                      1008d0c0 f   libucrtd:atox.obj
 0001:0008c0e0       _atoll                     1008d0e0 f   libucrtd:atox.obj
 0001:0008c100       __add_exp                  1008d100 f   libucrtd:util.obj
 0001:0008c140       __decomp                   1008d140 f   libucrtd:util.obj
 0001:0008c2b0       __get_exp                  1008d2b0 f   libucrtd:util.obj
 0001:0008c2f0       __set_bexp                 1008d2f0 f   libucrtd:util.obj
 0001:0008c330       __set_exp                  1008d330 f   libucrtd:util.obj
 0001:0008c380       __sptype                   1008d380 f   libucrtd:util.obj
 0001:0008c420       ___clrfp_sse2              1008d420 f   libucrtd:fpctrl.obj
 0001:0008c470       ___ctrlfp_sse2             1008d470 f   libucrtd:fpctrl.obj
 0001:0008c4e0       ___fclrf_sse2              1008d4e0 f   libucrtd:fpctrl.obj
 0001:0008c510       ___get_fpsr_sse2           1008d510 f   libucrtd:fpctrl.obj
 0001:0008c540       ___set_fpsr_sse2           1008d540 f   libucrtd:fpctrl.obj
 0001:0008c650       ___set_statfp_sse2         1008d650 f   libucrtd:fpctrl.obj
 0001:0008c690       ___statfp_sse2             1008d690 f   libucrtd:fpctrl.obj
 0001:0008c6d0       __clrfp                    1008d6d0 f   libucrtd:fpctrl.obj
 0001:0008c6f0       __ctrlfp                   1008d6f0 f   libucrtd:fpctrl.obj
 0001:0008c730       __set_statfp               1008d730 f   libucrtd:fpctrl.obj
 0001:0008c7b0       __statfp                   1008d7b0 f   libucrtd:fpctrl.obj
 0001:0008c7d0       __trandisp1                1008d7d0 f   libucrtd:87disp.obj
 0001:0008c837       __trandisp2                1008d837 f   libucrtd:87disp.obj
 0001:0008c8c3       __rttospopde               1008d8c3     libucrtd:87disp.obj
 0001:0008c8c8       __rttospop                 1008d8c8     libucrtd:87disp.obj
 0001:0008c8ca       __rtnospop                 1008d8ca     libucrtd:87disp.obj
 0001:0008c8cc       __rttosnpop                1008d8cc     libucrtd:87disp.obj
 0001:0008c8cd       __rtnospopde               1008d8cd     libucrtd:87disp.obj
 0001:0008c8d4       __rtzeropop                1008d8d4     libucrtd:87disp.obj
 0001:0008c8d6       __rtzeronpop               1008d8d6     libucrtd:87disp.obj
 0001:0008c8db       __rtzerospop               1008d8db     libucrtd:87disp.obj
 0001:0008c8e8       __rtonepop                 1008d8e8     libucrtd:87disp.obj
 0001:0008c8ea       __rtonenpop                1008d8ea     libucrtd:87disp.obj
 0001:0008c8ef       __tosnan1                  1008d8ef     libucrtd:87disp.obj
 0001:0008c91a       __nosnan2                  1008d91a     libucrtd:87disp.obj
 0001:0008c91c       __tosnan2                  1008d91c     libucrtd:87disp.obj
 0001:0008c944       __nan2                     1008d944     libucrtd:87disp.obj
 0001:0008c983       __rtindfpop                1008d983     libucrtd:87disp.obj
 0001:0008c985       __rtindfnpop               1008d985     libucrtd:87disp.obj
 0001:0008c996       __rttosnpopde              1008d996     libucrtd:87disp.obj
 0001:0008c9a0       __rtatan2inf               1008d9a0     libucrtd:87disp.obj
 0001:0008c9bd       __rtchsifneg               1008d9bd     libucrtd:87disp.obj
 0001:0008ca50       ___setfflag                1008da50 f   libucrtd:fp_flags.obj
 0001:0008ca80       __startTwoArgErrorHandling 1008da80 f   libucrtd:genexcep.obj
 0001:0008ca97       __startOneArgErrorHandling 1008da97 f   libucrtd:genexcep.obj
 0001:0008caf0       __twoToTOS                 1008daf0 f   libucrtd:common.obj
 0001:0008cb05       __load_CW                  1008db05 f   libucrtd:common.obj
 0001:0008cb1c       __convertTOStoQNaN         1008db1c f   libucrtd:common.obj
 0001:0008cb35       __fload_withFB             1008db35 f   libucrtd:common.obj
 0001:0008cb78       __checkTOS_withFB          1008db78 f   libucrtd:common.obj
 0001:0008cb8e       __fast_exit                1008db8e f   libucrtd:common.obj
 0001:0008cb9b       __math_exit                1008db9b f   libucrtd:common.obj
 0001:0008cbc5       __check_overflow_exit      1008dbc5 f   libucrtd:common.obj
 0001:0008cbd9       __check_range_exit         1008dbd9 f   libucrtd:common.obj
 0001:0008cce0       _ldexp                     1008dce0 f   libucrtd:ldexp.obj
 0001:0008d070       _nextafter                 1008e070 f   libucrtd:nextafter.obj
 0001:0008d0a0       ??$__crt_fast_decode_pointer@P6AXPB_W00II@Z@@YAP6AXPB_W00II@ZQ6AX000II@Z@Z 1008e0a0 f i libucrtd:invalid_parameter.obj
 0001:0008d0e0       ??$__crt_fast_encode_pointer@P6AXPB_W00II@Z@@YAP6AXPB_W00II@ZQ6AX000II@Z@Z 1008e0e0 f i libucrtd:invalid_parameter.obj
 0001:0008d120       ?initialize@?$dual_state_global@P6AXPB_W00II@Z@__crt_state_management@@QAEXQ6AXPB_W00II@Z@Z 1008e120 f i libucrtd:invalid_parameter.obj
 0001:0008d170       ?value@?$dual_state_global@P6AXPB_W00II@Z@__crt_state_management@@QAEAAP6AXPB_W00II@ZXZ 1008e170 f i libucrtd:invalid_parameter.obj
 0001:0008d190       ___acrt_call_reportfault   1008e190 f   libucrtd:invalid_parameter.obj
 0001:0008d340       ___acrt_initialize_invalid_parameter_handler 1008e340 f   libucrtd:invalid_parameter.obj
 0001:0008d360       __get_invalid_parameter_handler 1008e360 f   libucrtd:invalid_parameter.obj
 0001:0008d390       __get_thread_local_invalid_parameter_handler 1008e390 f   libucrtd:invalid_parameter.obj
 0001:0008d3c0       __invalid_parameter        1008e3c0 f   libucrtd:invalid_parameter.obj
 0001:0008d4c0       __invalid_parameter_noinfo 1008e4c0 f   libucrtd:invalid_parameter.obj
 0001:0008d4e0       __invalid_parameter_noinfo_noreturn 1008e4e0 f   libucrtd:invalid_parameter.obj
 0001:0008d520       __invoke_watson            1008e520 f   libucrtd:invalid_parameter.obj
 0001:0008d570       __set_invalid_parameter_handler 1008e570 f   libucrtd:invalid_parameter.obj
 0001:0008d5d0       __set_thread_local_invalid_parameter_handler 1008e5d0 f   libucrtd:invalid_parameter.obj
 0001:0008d610       __CrtGetReportHook         1008e610 f   libucrtd:dbgrptt.obj
 0001:0008d620       __CrtSetReportFile         1008e620 f   libucrtd:dbgrptt.obj
 0001:0008d750       __CrtSetReportHook         1008e750 f   libucrtd:dbgrptt.obj
 0001:0008d780       __CrtSetReportMode         1008e780 f   libucrtd:dbgrptt.obj
 0001:0008d910       __VCrtDbgReportA           1008e910 f   libucrtd:dbgrptt.obj
 0001:0008e3d0       __VCrtDbgReportW           1008f3d0 f   libucrtd:dbgrptt.obj
 0001:0008eff0       __snprintf_s               1008fff0 f i libucrtd:dbgrptt.obj
 0001:0008f050       __vsnprintf_s              10090050 f i libucrtd:dbgrptt.obj
 0001:0008f080       __vsnprintf_s_l            10090080 f i libucrtd:dbgrptt.obj
 0001:0008f0f0       __vsnwprintf_s             100900f0 f i libucrtd:dbgrptt.obj
 0001:0008f120       ___acrt_errno_from_os_error 10090120 f   libucrtd:errno.obj
 0001:0008f1c0       ___acrt_errno_map_os_error 100901c0 f   libucrtd:errno.obj
 0001:0008f200       ___doserrno                10090200 f   libucrtd:errno.obj
 0001:0008f230       __errno                    10090230 f   libucrtd:errno.obj
 0001:0008f260       __get_doserrno             10090260 f   libucrtd:errno.obj
 0001:0008f310       __get_errno                10090310 f   libucrtd:errno.obj
 0001:0008f3c0       __set_doserrno             100903c0 f   libucrtd:errno.obj
 0001:0008f400       __set_errno                10090400 f   libucrtd:errno.obj
 0001:0008f440       _wcslen                    10090440 f   libucrtd:wcslen.obj
 0001:0008f830       ??$message_box@$$TAAPBDAAPBDAAI@?$__crt_char_traits@D@@SAH$$QA$$TAAPBD1AAI@Z 10090830 f i libucrtd:crtmbox.obj
 0001:0008f860       ??$message_box@$$TAAPB_WAAPB_WAAI@?$__crt_char_traits@_W@@SAH$$QA$$TAAPB_W1AAI@Z 10090860 f i libucrtd:crtmbox.obj
 0001:0008f890       ??$message_box@$$TABQBDABQBDK@?$__crt_char_traits@D@@SAH$$QA$$TABQBD1$$QAK@Z 10090890 f i libucrtd:crtmbox.obj
 0001:0008f8c0       ??$message_box@$$TABQB_WABQB_WK@?$__crt_char_traits@_W@@SAH$$QA$$TABQB_W1$$QAK@Z 100908c0 f i libucrtd:crtmbox.obj
 0001:0008f8f0       ??$message_box@PAUHWND__@@ABQBDABQBDABI@?$__crt_char_traits@D@@SAH$$QAPAUHWND__@@ABQBD1ABI@Z 100908f0 f i libucrtd:crtmbox.obj
 0001:0008f920       ??$message_box@PAUHWND__@@ABQB_WABQB_WABI@?$__crt_char_traits@_W@@SAH$$QAPAUHWND__@@ABQB_W1ABI@Z 10090920 f i libucrtd:crtmbox.obj
 0001:0008fa10       ??$output_debug_string@ABQBD@?$__crt_char_traits@D@@SAXABQBD@Z 10090a10 f i libucrtd:crtmbox.obj
 0001:0008fa30       ??$output_debug_string@ABQB_W@?$__crt_char_traits@_W@@SAXABQB_W@Z 10090a30 f i libucrtd:crtmbox.obj
 0001:0008fa50       ??0?$__crt_unique_handle_t@U__crt_handle_traits@@@@QAE@QAX@Z 10090a50 f i libucrtd:crtmbox.obj
 0001:0008fa70       ??1?$__crt_unique_handle_t@U__crt_handle_traits@@@@QAE@XZ 10090a70 f i libucrtd:crtmbox.obj
 0001:0008fa90       ??B?$__crt_unique_handle_t@U__crt_handle_traits@@@@QBE_NXZ 10090a90 f i libucrtd:crtmbox.obj
 0001:0008fab0       ?close@?$__crt_unique_handle_t@U__crt_handle_traits@@@@QAEXXZ 10090ab0 f i libucrtd:crtmbox.obj
 0001:0008faf0       ?close@__crt_handle_traits@@SA_NPAX@Z 10090af0 f i libucrtd:crtmbox.obj
 0001:0008fb30       ?get@?$__crt_unique_handle_t@U__crt_handle_traits@@@@QBEPAXXZ 10090b30 f i libucrtd:crtmbox.obj
 0001:0008fb50       ?get_invalid_value@__crt_handle_traits@@SAPAXXZ 10090b50 f i libucrtd:crtmbox.obj
 0001:0008fb60       ?is_valid@?$__crt_unique_handle_t@U__crt_handle_traits@@@@QBE_NXZ 10090b60 f i libucrtd:crtmbox.obj
 0001:0008fba0       ___acrt_show_narrow_message_box 10090ba0 f   libucrtd:crtmbox.obj
 0001:0008fbd0       ___acrt_show_wide_message_box 10090bd0 f   libucrtd:crtmbox.obj
 0001:0008fc00       ___acrt_initialize_locks   10090c00 f   libucrtd:locks.obj
 0001:0008fc80       ___acrt_lock               10090c80 f   libucrtd:locks.obj
 0001:0008fca0       ___acrt_uninitialize_locks 10090ca0 f   libucrtd:locks.obj
 0001:0008fd00       ___acrt_unlock             10090d00 f   libucrtd:locks.obj
 0001:0008fd20       __lock_locales             10090d20 f   libucrtd:locks.obj
 0001:0008fd40       __unlock_locales           10090d40 f   libucrtd:locks.obj
 0001:0008fd60       ??$?B$$A6AXH@Z@__crt_fast_encoded_nullptr_t@@QBEP6AXH@ZXZ 10090d60 f i libucrtd:signal.obj
 0001:0008fd80       ??$?RV<lambda_a048d3beccc847880fc8490e18b82769>@@AAV<lambda_ec61778202f4f5fc7e7711acc23c3bca>@@V<lambda_f7496a158712204296dd6628a163878e>@@@?$__crt_seh_guarded_call@P6AXH@Z@@QAEP6AXH@Z$$QAV<lambda_a048d3beccc847880fc8490e18b82769>@@AAV<lambda_ec61778202f4f5fc7e7711acc23c3bca>@@$$QAV<lambda_f7496a158712204296dd6628a163878e>@@@Z 10090d80 f i libucrtd:signal.obj
 0001:0008fe30       ??$__acrt_lock_and_call@V<lambda_ec61778202f4f5fc7e7711acc23c3bca>@@@@YAP6AXH@ZW4__acrt_lock_id@@$$QAV<lambda_ec61778202f4f5fc7e7711acc23c3bca>@@@Z 10090e30 f i libucrtd:signal.obj
 0001:0008fe80       ??$__crt_fast_decode_pointer@P6AXH@Z@@YAP6AXH@ZQ6AXH@Z@Z 10090e80 f i libucrtd:signal.obj
 0001:0008fec0       ??$__crt_fast_encode_pointer@P6AXH@Z@@YAP6AXH@ZQ6AXH@Z@Z 10090ec0 f i libucrtd:signal.obj
 0001:00090240       ?initialize@?$dual_state_global@P6AXH@Z@__crt_state_management@@QAEXQ6AXH@Z@Z 10091240 f i libucrtd:signal.obj
 0001:00090360       ?value@?$dual_state_global@P6AXH@Z@__crt_state_management@@QAEAAP6AXH@ZXZ 10091360 f i libucrtd:signal.obj
 0001:00090380       ___acrt_get_sigabrt_handler 10091380 f   libucrtd:signal.obj
 0001:000903a0       ___acrt_initialize_signal_handlers 100913a0 f   libucrtd:signal.obj
 0001:000903f0       ___fpecode                 100913f0 f   libucrtd:signal.obj
 0001:00090410       ___pxcptinfoptrs           10091410 f   libucrtd:signal.obj
 0001:00090430       _raise                     10091430 f   libucrtd:signal.obj
 0001:00090900       _signal                    10091900 f   libucrtd:signal.obj
 0001:00090c30       ??$__crt_fast_decode_pointer@P6AHPAU_exception@@@Z@@YAP6AHPAU_exception@@@ZQ6AH0@Z@Z 10091c30 f i libucrtd:matherr.obj
 0001:00090c70       ??$__crt_fast_encode_pointer@P6AHPAU_exception@@@Z@@YAP6AHPAU_exception@@@ZQ6AH0@Z@Z 10091c70 f i libucrtd:matherr.obj
 0001:00090cb0       ?initialize@?$dual_state_global@P6AHPAU_exception@@@Z@__crt_state_management@@QAEXQ6AHPAU_exception@@@Z@Z 10091cb0 f i libucrtd:matherr.obj
 0001:00090d00       ?value@?$dual_state_global@P6AHPAU_exception@@@Z@__crt_state_management@@QAEAAP6AHPAU_exception@@@ZXZ 10091d00 f i libucrtd:matherr.obj
 0001:00090d20       ___acrt_has_user_matherr   10091d20 f   libucrtd:matherr.obj
 0001:00090d70       ___acrt_initialize_user_matherr 10091d70 f   libucrtd:matherr.obj
 0001:00090d90       ___acrt_invoke_user_matherr 10091d90 f   libucrtd:matherr.obj
 0001:00090e10       ___setusermatherr          10091e10 f   libucrtd:matherr.obj
 0001:00090e40       ??$?B$$A6AHI@Z@__crt_fast_encoded_nullptr_t@@QBEP6AHI@ZXZ 10091e40 f i libucrtd:new_handler.obj
 0001:00090e60       ??$__crt_fast_decode_pointer@P6AHI@Z@@YAP6AHI@ZQ6AHI@Z@Z 10091e60 f i libucrtd:new_handler.obj
 0001:00090ea0       ??$__crt_fast_encode_pointer@P6AHI@Z@@YAP6AHI@ZQ6AHI@Z@Z 10091ea0 f i libucrtd:new_handler.obj
 0001:00090ee0       ?_set_new_handler@@YAP6AHI@ZH@Z 10091ee0 f   libucrtd:new_handler.obj
 0001:00090f50       ?initialize@?$dual_state_global@P6AHI@Z@__crt_state_management@@QAEXQ6AHI@Z@Z 10091f50 f i libucrtd:new_handler.obj
 0001:00090fa0       ?value@?$dual_state_global@P6AHI@Z@__crt_state_management@@QAEAAP6AHI@ZXZ 10091fa0 f i libucrtd:new_handler.obj
 0001:00090fc0       ___acrt_initialize_new_handler 10091fc0 f   libucrtd:new_handler.obj
 0001:00090fe0       __callnewh                 10091fe0 f   libucrtd:new_handler.obj
 0001:00091050       __query_new_handler        10092050 f   libucrtd:new_handler.obj
 0001:00091110       __set_new_handler          10092110 f   libucrtd:new_handler.obj
 0001:000911f0       ??$__crt_interlocked_exchange_pointer@X$$T@@YAPAXPDSAX$$T@Z 100921f0 f i libucrtd:free_base.obj
 0001:00091220       ___acrt_get_msvcrt_heap_handle 10092220 f   libucrtd:free_base.obj
 0001:00091310       __free_base                10092310 f   libucrtd:free_base.obj
 0001:00091370       __msize                    10092370 f   libucrtd:msize.obj
 0001:00091390       __realloc_base             10092390 f   libucrtd:realloc_base.obj
 0001:00091450       __aligned_free             10092450 f   libucrtd:align.obj
 0001:00091470       __aligned_free_base        10092470 f   libucrtd:align.obj
 0001:000914c0       __aligned_malloc           100924c0 f   libucrtd:align.obj
 0001:000914f0       __aligned_malloc_base      100924f0 f   libucrtd:align.obj
 0001:00091510       __aligned_msize            10092510 f   libucrtd:align.obj
 0001:00091540       __aligned_msize_base       10092540 f   libucrtd:align.obj
 0001:000916c0       __aligned_offset_malloc    100926c0 f   libucrtd:align.obj
 0001:000916f0       __aligned_offset_malloc_base 100926f0 f   libucrtd:align.obj
 0001:00091910       __aligned_offset_realloc   10092910 f   libucrtd:align.obj
 0001:00091940       __aligned_offset_realloc_base 10092940 f   libucrtd:align.obj
 0001:00091d20       __aligned_offset_recalloc  10092d20 f   libucrtd:align.obj
 0001:00091d50       __aligned_offset_recalloc_base 10092d50 f   libucrtd:align.obj
 0001:00091e30       __aligned_realloc          10092e30 f   libucrtd:align.obj
 0001:00091e60       __aligned_realloc_base     10092e60 f   libucrtd:align.obj
 0001:00091e90       __aligned_recalloc         10092e90 f   libucrtd:align.obj
 0001:00091ec0       __aligned_recalloc_base    10092ec0 f   libucrtd:align.obj
 0001:00091ef0       __chvalidator              10092ef0 f   libucrtd:isctype.obj
 0001:00091f50       __chvalidator_l            10092f50 f   libucrtd:isctype.obj
 0001:00092010       __isctype                  10093010 f   libucrtd:isctype.obj
 0001:00092060       __isctype_l                10093060 f   libucrtd:isctype.obj
 0001:00092240       ??$?RU__acrt_ptd@@@__crt_internal_free_policy@@QBEXQBU__acrt_ptd@@@Z 10093240 f i libucrtd:per_thread_data.obj
 0001:00092270       ??$?RV<lambda_3518db117f0e7cdb002338c5d3c47b6c>@@AAV<lambda_b2ea41f6bbb362cd97d94c6828d90b61>@@V<lambda_abdedf541bb04549bc734292b4a045d4>@@@?$__crt_seh_guarded_call@X@@QAEX$$QAV<lambda_3518db117f0e7cdb002338c5d3c47b6c>@@AAV<lambda_b2ea41f6bbb362cd97d94c6828d90b61>@@$$QAV<lambda_abdedf541bb04549bc734292b4a045d4>@@@Z 10093270 f i libucrtd:per_thread_data.obj
 0001:00092310       ??$?RV<lambda_5b71d36f03204c0beab531769a5b5694>@@AAV<lambda_be2b3da3f62db62e9dad5dc70221a656>@@V<lambda_8f9ce462984622f9bf76b59e2aaaf805>@@@?$__crt_seh_guarded_call@X@@QAEX$$QAV<lambda_5b71d36f03204c0beab531769a5b5694>@@AAV<lambda_be2b3da3f62db62e9dad5dc70221a656>@@$$QAV<lambda_8f9ce462984622f9bf76b59e2aaaf805>@@@Z 10093310 f i libucrtd:per_thread_data.obj
 0001:000923b0       ??$?RV<lambda_952b238c83a62ef8e81c72265e1e9aa0>@@AAV<lambda_801f60a70ab65355beb13c41cbe335bb>@@V<lambda_84d84f98815add542a0d6e6ca338feb2>@@@?$__crt_seh_guarded_call@X@@QAEX$$QAV<lambda_952b238c83a62ef8e81c72265e1e9aa0>@@AAV<lambda_801f60a70ab65355beb13c41cbe335bb>@@$$QAV<lambda_84d84f98815add542a0d6e6ca338feb2>@@@Z 100933b0 f i libucrtd:per_thread_data.obj
 0001:00092450       ??$?RV<lambda_9df27f884b057bc3edfc946cb5b7cf47>@@AAV<lambda_e69574bed617af4e071282c136b37893>@@V<lambda_cc0d902bcbbeb830f749456577db4721>@@@?$__crt_seh_guarded_call@X@@QAEX$$QAV<lambda_9df27f884b057bc3edfc946cb5b7cf47>@@AAV<lambda_e69574bed617af4e071282c136b37893>@@$$QAV<lambda_cc0d902bcbbeb830f749456577db4721>@@@Z 10093450 f i libucrtd:per_thread_data.obj
 0001:000924f0       ??$__acrt_lock_and_call@V<lambda_801f60a70ab65355beb13c41cbe335bb>@@@@YAXW4__acrt_lock_id@@$$QAV<lambda_801f60a70ab65355beb13c41cbe335bb>@@@Z 100934f0 f i libucrtd:per_thread_data.obj
 0001:00092540       ??$__acrt_lock_and_call@V<lambda_b2ea41f6bbb362cd97d94c6828d90b61>@@@@YAXW4__acrt_lock_id@@$$QAV<lambda_b2ea41f6bbb362cd97d94c6828d90b61>@@@Z 10093540 f i libucrtd:per_thread_data.obj
 0001:00092590       ??$__acrt_lock_and_call@V<lambda_be2b3da3f62db62e9dad5dc70221a656>@@@@YAXW4__acrt_lock_id@@$$QAV<lambda_be2b3da3f62db62e9dad5dc70221a656>@@@Z 10093590 f i libucrtd:per_thread_data.obj
 0001:000925e0       ??$__acrt_lock_and_call@V<lambda_e69574bed617af4e071282c136b37893>@@@@YAXW4__acrt_lock_id@@$$QAV<lambda_e69574bed617af4e071282c136b37893>@@@Z 100935e0 f i libucrtd:per_thread_data.obj
 0001:00092840       ??0?$__crt_unique_heap_ptr@U__acrt_ptd@@U__crt_internal_free_policy@@@@QAE@QAU__acrt_ptd@@@Z 10093840 f i libucrtd:per_thread_data.obj
 0001:00092860       ??0__crt_scoped_get_last_error_reset@@QAE@XZ 10093860 f i libucrtd:per_thread_data.obj
 0001:00092890       ??1?$__crt_unique_heap_ptr@U__acrt_ptd@@U__crt_internal_free_policy@@@@QAE@XZ 10093890 f i libucrtd:per_thread_data.obj
 0001:000928b0       ??1__crt_scoped_get_last_error_reset@@QAE@XZ 100938b0 f i libucrtd:per_thread_data.obj
 0001:000928d0       ??B?$__crt_unique_heap_ptr@U__acrt_ptd@@U__crt_internal_free_policy@@@@QBE_NXZ 100938d0 f i libucrtd:per_thread_data.obj
 0001:00092c90       ?dangerous_get_state_array@?$dual_state_global@PAU__crt_locale_data@@@__crt_state_management@@QAEPAPAU__crt_locale_data@@XZ 10093c90 f i libucrtd:per_thread_data.obj
 0001:00092e70       ?detach@?$__crt_unique_heap_ptr@U__acrt_ptd@@U__crt_internal_free_policy@@@@QAEPAU__acrt_ptd@@XZ 10093e70 f i libucrtd:per_thread_data.obj
 0001:00092ea0       ?get@?$__crt_unique_heap_ptr@U__acrt_ptd@@U__crt_internal_free_policy@@@@QBEPAU__acrt_ptd@@XZ 10093ea0 f i libucrtd:per_thread_data.obj
 0001:00093020       ?is_valid@?$__crt_unique_heap_ptr@U__acrt_ptd@@U__crt_internal_free_policy@@@@QBE_NXZ 10094020 f i libucrtd:per_thread_data.obj
 0001:00093060       ?release@?$__crt_unique_heap_ptr@U__acrt_ptd@@U__crt_internal_free_policy@@@@QAEXXZ 10094060 f i libucrtd:per_thread_data.obj
 0001:00093180       ?value@?$dual_state_global@PAU__crt_locale_data@@@__crt_state_management@@QAEAAPAU__crt_locale_data@@XZ 10094180 f i libucrtd:per_thread_data.obj
 0001:000931a0       ___acrt_freeptd            100941a0 f   libucrtd:per_thread_data.obj
 0001:000931e0       ___acrt_getptd             100941e0 f   libucrtd:per_thread_data.obj
 0001:00093210       ___acrt_getptd_noexit      10094210 f   libucrtd:per_thread_data.obj
 0001:00093220       ___acrt_initialize_ptd     10094220 f   libucrtd:per_thread_data.obj
 0001:00093270       ___acrt_uninitialize_ptd   10094270 f   libucrtd:per_thread_data.obj
 0001:000932a0       ___threadhandle            100942a0 f   libucrtd:per_thread_data.obj
 0001:000932b0       ___threadid                100942b0 f   libucrtd:per_thread_data.obj
 0001:00093320       __expand                   10094320 f   libucrtd:expand.obj
 0001:00093350       __expand_base              10094350 f   libucrtd:expand.obj
 0001:000934d0       ___acrt_update_locale_info 100944d0 f   libucrtd:locale_update.obj
 0001:00093520       ___acrt_update_multibyte_info 10094520 f   libucrtd:locale_update.obj
 0001:00093560       ?value@?$dual_state_global@J@__crt_state_management@@QAEAAJXZ 10094560 f i libucrtd:new_mode.obj
 0001:00093580       __query_new_mode           10094580 f   libucrtd:new_mode.obj
 0001:000935a0       __set_new_mode             100945a0 f   libucrtd:new_mode.obj
 0001:00093670       __CrtDefaultAllocHook      10094670 f   libucrtd:debug_heap_hook.obj
 0001:00093690       ??$?RU__crt_locale_data@@@__crt_internal_free_policy@@QBEXQBU__crt_locale_data@@@Z 10094690 f i libucrtd:wsetlocale.obj
 0001:000936c0       ??$?RU__crt_locale_pointers@@@__crt_internal_free_policy@@QBEXQBU__crt_locale_pointers@@@Z 100946c0 f i libucrtd:wsetlocale.obj
 0001:000936f0       ??$?RU__crt_multibyte_data@@@__crt_internal_free_policy@@QBEXQBU__crt_multibyte_data@@@Z 100946f0 f i libucrtd:wsetlocale.obj
 0001:00093720       ??$?RV<lambda_0f92d0c5a8007722f95b3b6c71cd8e3e>@@AAV<lambda_321f9d61c14d59ff00145e45db1313e0>@@V<lambda_3298c911d7b53f44106027a7fde9a80a>@@@?$__crt_seh_guarded_call@X@@QAEX$$QAV<lambda_0f92d0c5a8007722f95b3b6c71cd8e3e>@@AAV<lambda_321f9d61c14d59ff00145e45db1313e0>@@$$QAV<lambda_3298c911d7b53f44106027a7fde9a80a>@@@Z 10094720 f i libucrtd:wsetlocale.obj
 0001:000937c0       ??$?RV<lambda_507d9fd6b66e39451a8852ba73f804a7>@@AAV<lambda_565169b3e3b494427ce1bebdd17b54ac>@@AAV<lambda_f51fe5fd7c79a33db34fc9310f277369>@@@?$__crt_seh_guarded_call@X@@QAEX$$QAV<lambda_507d9fd6b66e39451a8852ba73f804a7>@@AAV<lambda_565169b3e3b494427ce1bebdd17b54ac>@@AAV<lambda_f51fe5fd7c79a33db34fc9310f277369>@@@Z 100947c0 f i libucrtd:wsetlocale.obj
 0001:00093860       ??$?RV<lambda_76aaead6e312921abc834cb00a638bdd>@@AAV<lambda_176e34f99554166dd2fac165c457248c>@@V<lambda_998ee1c9f4290b119b936bcd6215875a>@@@?$__crt_seh_guarded_call@X@@QAEX$$QAV<lambda_76aaead6e312921abc834cb00a638bdd>@@AAV<lambda_176e34f99554166dd2fac165c457248c>@@$$QAV<lambda_998ee1c9f4290b119b936bcd6215875a>@@@Z 10094860 f i libucrtd:wsetlocale.obj
 0001:00093900       ??$?RV<lambda_c9469061b39d205f0f236529d4a41659>@@AAV<lambda_b7fb1a997d3ebc0cc0186c5835178808>@@V<lambda_14b92c79d699846b5cc916cd4cf280e4>@@@?$__crt_seh_guarded_call@X@@QAEX$$QAV<lambda_c9469061b39d205f0f236529d4a41659>@@AAV<lambda_b7fb1a997d3ebc0cc0186c5835178808>@@$$QAV<lambda_14b92c79d699846b5cc916cd4cf280e4>@@@Z 10094900 f i libucrtd:wsetlocale.obj
 0001:000939a0       ??$__acrt_lock_and_call@V<lambda_176e34f99554166dd2fac165c457248c>@@@@YAXW4__acrt_lock_id@@$$QAV<lambda_176e34f99554166dd2fac165c457248c>@@@Z 100949a0 f i libucrtd:wsetlocale.obj
 0001:000939f0       ??$__acrt_lock_and_call@V<lambda_321f9d61c14d59ff00145e45db1313e0>@@@@YAXW4__acrt_lock_id@@$$QAV<lambda_321f9d61c14d59ff00145e45db1313e0>@@@Z 100949f0 f i libucrtd:wsetlocale.obj
 0001:00093a40       ??$__acrt_lock_and_call@V<lambda_b7fb1a997d3ebc0cc0186c5835178808>@@@@YAXW4__acrt_lock_id@@$$QAV<lambda_b7fb1a997d3ebc0cc0186c5835178808>@@@Z 10094a40 f i libucrtd:wsetlocale.obj
 0001:00093a90       ??$__crt_call_and_cleanup@V<lambda_565169b3e3b494427ce1bebdd17b54ac>@@V<lambda_f51fe5fd7c79a33db34fc9310f277369>@@@@YAX$$QAV<lambda_565169b3e3b494427ce1bebdd17b54ac>@@$$QAV<lambda_f51fe5fd7c79a33db34fc9310f277369>@@@Z 10094a90 f i libucrtd:wsetlocale.obj
 0001:00093ac0       ??$__vcrt_va_start_verify_argument_type@H@@YAXXZ 10094ac0 f i libucrtd:wsetlocale.obj
 0001:00093cf0       ??0?$__crt_unique_heap_ptr@U__crt_locale_data@@U__crt_internal_free_policy@@@@QAE@QAU__crt_locale_data@@@Z 10094cf0 f i libucrtd:wsetlocale.obj
 0001:00093d10       ??0?$__crt_unique_heap_ptr@U__crt_locale_pointers@@U__crt_internal_free_policy@@@@QAE@QAU__crt_locale_pointers@@@Z 10094d10 f i libucrtd:wsetlocale.obj
 0001:00093d30       ??0?$__crt_unique_heap_ptr@U__crt_multibyte_data@@U__crt_internal_free_policy@@@@QAE@QAU__crt_multibyte_data@@@Z 10094d30 f i libucrtd:wsetlocale.obj
 0001:00093d50       ??1?$__crt_unique_heap_ptr@U__crt_locale_data@@U__crt_internal_free_policy@@@@QAE@XZ 10094d50 f i libucrtd:wsetlocale.obj
 0001:00093d70       ??1?$__crt_unique_heap_ptr@U__crt_locale_pointers@@U__crt_internal_free_policy@@@@QAE@XZ 10094d70 f i libucrtd:wsetlocale.obj
 0001:00093d90       ??1?$__crt_unique_heap_ptr@U__crt_multibyte_data@@U__crt_internal_free_policy@@@@QAE@XZ 10094d90 f i libucrtd:wsetlocale.obj
 0001:00093db0       ??B?$__crt_unique_heap_ptr@U__crt_locale_data@@U__crt_internal_free_policy@@@@QBE_NXZ 10094db0 f i libucrtd:wsetlocale.obj
 0001:00093dd0       ??B?$__crt_unique_heap_ptr@U__crt_locale_pointers@@U__crt_internal_free_policy@@@@QBE_NXZ 10094dd0 f i libucrtd:wsetlocale.obj
 0001:00093df0       ??B?$__crt_unique_heap_ptr@U__crt_multibyte_data@@U__crt_internal_free_policy@@@@QBE_NXZ 10094df0 f i libucrtd:wsetlocale.obj
 0001:00094230       ?detach@?$__crt_unique_heap_ptr@U__crt_locale_data@@U__crt_internal_free_policy@@@@QAEPAU__crt_locale_data@@XZ 10095230 f i libucrtd:wsetlocale.obj
 0001:00094260       ?detach@?$__crt_unique_heap_ptr@U__crt_locale_pointers@@U__crt_internal_free_policy@@@@QAEPAU__crt_locale_pointers@@XZ 10095260 f i libucrtd:wsetlocale.obj
 0001:00094290       ?detach@?$__crt_unique_heap_ptr@U__crt_multibyte_data@@U__crt_internal_free_policy@@@@QAEPAU__crt_multibyte_data@@XZ 10095290 f i libucrtd:wsetlocale.obj
 0001:000942c0       ?get@?$__crt_unique_heap_ptr@U__crt_locale_data@@U__crt_internal_free_policy@@@@QBEPAU__crt_locale_data@@XZ 100952c0 f i libucrtd:wsetlocale.obj
 0001:000942e0       ?get@?$__crt_unique_heap_ptr@U__crt_locale_pointers@@U__crt_internal_free_policy@@@@QBEPAU__crt_locale_pointers@@XZ 100952e0 f i libucrtd:wsetlocale.obj
 0001:00094300       ?get@?$__crt_unique_heap_ptr@U__crt_multibyte_data@@U__crt_internal_free_policy@@@@QBEPAU__crt_multibyte_data@@XZ 10095300 f i libucrtd:wsetlocale.obj
 0001:00094320       ?is_valid@?$__crt_unique_heap_ptr@U__crt_locale_data@@U__crt_internal_free_policy@@@@QBE_NXZ 10095320 f i libucrtd:wsetlocale.obj
 0001:00094360       ?is_valid@?$__crt_unique_heap_ptr@U__crt_locale_pointers@@U__crt_internal_free_policy@@@@QBE_NXZ 10095360 f i libucrtd:wsetlocale.obj
 0001:000943a0       ?is_valid@?$__crt_unique_heap_ptr@U__crt_multibyte_data@@U__crt_internal_free_policy@@@@QBE_NXZ 100953a0 f i libucrtd:wsetlocale.obj
 0001:000943e0       ?release@?$__crt_unique_heap_ptr@U__crt_locale_data@@U__crt_internal_free_policy@@@@QAEXXZ 100953e0 f i libucrtd:wsetlocale.obj
 0001:00094420       ?release@?$__crt_unique_heap_ptr@U__crt_locale_pointers@@U__crt_internal_free_policy@@@@QAEXXZ 10095420 f i libucrtd:wsetlocale.obj
 0001:00094460       ?release@?$__crt_unique_heap_ptr@U__crt_multibyte_data@@U__crt_internal_free_policy@@@@QAEXXZ 10095460 f i libucrtd:wsetlocale.obj
 0001:000944a0       ___acrt_copy_locale_name   100954a0 f   libucrtd:wsetlocale.obj
 0001:00094570       ___acrt_set_locale_changed 10095570 f   libucrtd:wsetlocale.obj
 0001:00094590       ___acrt_uninitialize_locale 10095590 f   libucrtd:wsetlocale.obj
 0001:00094660       ___lc_lctowcs              10095660 f   libucrtd:wsetlocale.obj
 0001:00094740       ___lc_wcstolc              10095740 f   libucrtd:wsetlocale.obj
 0001:000949f0       __configthreadlocale       100959f0 f   libucrtd:wsetlocale.obj
 0001:00094bd0       __create_locale            10095bd0 f   libucrtd:wsetlocale.obj
 0001:00094c60       __expandlocale             10095c60 f   libucrtd:wsetlocale.obj
 0001:00095260       __free_locale              10096260 f   libucrtd:wsetlocale.obj
 0001:000953e0       __get_current_locale       100963e0 f   libucrtd:wsetlocale.obj
 0001:000954e0       __wcreate_locale           100964e0 f   libucrtd:wsetlocale.obj
 0001:000957a0       __wcscats                  100967a0 f   libucrtd:wsetlocale.obj
 0001:00095840       __wsetlocale               10096840 f   libucrtd:wsetlocale.obj
 0001:00096b50       ___p___mb_cur_max          10097b50 f   libucrtd:nlsdata.obj
 0001:00096b90       ___acrt_getheap            10097b90 f   libucrtd:heap_handle.obj
 0001:00096be0       ___acrt_initialize_heap    10097be0 f   libucrtd:heap_handle.obj
 0001:00096c10       ___acrt_uninitialize_heap  10097c10 f   libucrtd:heap_handle.obj
 0001:00096c30       __get_heap_handle          10097c30 f   libucrtd:heap_handle.obj
 0001:00096ce0       ??$?B$$A6GHPA_WKJ@Z@__crt_fast_encoded_nullptr_t@@QBEP6GHPA_WKJ@ZXZ 10097ce0 f i libucrtd:winapi_thunks.obj
 0001:00096d00       ??$?RV<lambda_9227be29367c048ad7fd93a717dcb1a1>@@AAV<lambda_a463b7b0560cfcaf9b17f27c6ef46564>@@V<lambda_ccea11b5727ccf69be64f5f5d9a08d9f>@@@?$__crt_seh_guarded_call@H@@QAEH$$QAV<lambda_9227be29367c048ad7fd93a717dcb1a1>@@AAV<lambda_a463b7b0560cfcaf9b17f27c6ef46564>@@$$QAV<lambda_ccea11b5727ccf69be64f5f5d9a08d9f>@@@Z 10097d00 f i libucrtd:winapi_thunks.obj
 0001:00096db0       ??$__acrt_lock_and_call@V<lambda_a463b7b0560cfcaf9b17f27c6ef46564>@@@@YAHW4__acrt_lock_id@@$$QAV<lambda_a463b7b0560cfcaf9b17f27c6ef46564>@@@Z 10097db0 f i libucrtd:winapi_thunks.obj
 0001:00096e00       ??$__crt_fast_decode_pointer@P6GHPA_WKJ@Z@@YAP6GHPA_WKJ@ZQ6GH0KJ@Z@Z 10097e00 f i libucrtd:winapi_thunks.obj
 0001:00096e40       ??$__crt_fast_encode_pointer@P6GHPA_WKJ@Z@@YAP6GHPA_WKJ@ZQ6GH0KJ@Z@Z 10097e40 f i libucrtd:winapi_thunks.obj
 0001:00097a10       ___acrt_AreFileApisANSI@0  10098a10 f   libucrtd:winapi_thunks.obj
 0001:00097a70       ___acrt_CompareStringEx@36 10098a70 f   libucrtd:winapi_thunks.obj
 0001:00097b30       ___acrt_EnumSystemLocalesEx@16 10098b30 f   libucrtd:winapi_thunks.obj
 0001:00097bc0       ___acrt_FlsAlloc@4         10098bc0 f   libucrtd:winapi_thunks.obj
 0001:00097c30       ___acrt_FlsFree@4          10098c30 f   libucrtd:winapi_thunks.obj
 0001:00097ca0       ___acrt_FlsGetValue@4      10098ca0 f   libucrtd:winapi_thunks.obj
 0001:00097d10       ___acrt_FlsSetValue@8      10098d10 f   libucrtd:winapi_thunks.obj
 0001:00097d80       ___acrt_GetDateFormatEx@28 10098d80 f   libucrtd:winapi_thunks.obj
 0001:00097e30       ___acrt_GetEnabledXStateFeatures@0 10098e30 f   libucrtd:winapi_thunks.obj
 0001:00097e90       ___acrt_GetFileInformationByHandleEx@16 10098e90 f   libucrtd:winapi_thunks.obj
 0001:00097f10       ___acrt_GetLocaleInfoEx@16 10098f10 f   libucrtd:winapi_thunks.obj
 0001:00097fa0       ___acrt_GetSystemTimePreciseAsFileTime@4 10098fa0 f   libucrtd:winapi_thunks.obj
 0001:00098010       ___acrt_GetTimeFormatEx@24 10099010 f   libucrtd:winapi_thunks.obj
 0001:000980c0       ___acrt_GetUserDefaultLocaleName@8 100990c0 f   libucrtd:winapi_thunks.obj
 0001:00098140       ___acrt_GetXStateFeaturesMask@8 10099140 f   libucrtd:winapi_thunks.obj
 0001:000981b0       ___acrt_InitializeCriticalSectionEx@12 100991b0 f   libucrtd:winapi_thunks.obj
 0001:00098230       ___acrt_IsValidLocaleName@4 10099230 f   libucrtd:winapi_thunks.obj
 0001:000982b0       ___acrt_LCIDToLocaleName@16 100992b0 f   libucrtd:winapi_thunks.obj
 0001:00098340       ___acrt_LCMapStringEx@36   10099340 f   libucrtd:winapi_thunks.obj
 0001:00098400       ___acrt_LocaleNameToLCID@8 10099400 f   libucrtd:winapi_thunks.obj
 0001:00098470       ___acrt_LocateXStateFeature@12 10099470 f   libucrtd:winapi_thunks.obj
 0001:000984e0       ___acrt_MessageBoxA@16     100994e0 f   libucrtd:winapi_thunks.obj
 0001:00098550       ___acrt_MessageBoxW@16     10099550 f   libucrtd:winapi_thunks.obj
 0001:000985c0       ___acrt_RoInitialize@4     100995c0 f   libucrtd:winapi_thunks.obj
 0001:00098620       ___acrt_RoUninitialize@0   10099620 f   libucrtd:winapi_thunks.obj
 0001:00098670       ___acrt_RtlGenRandom@8     10099670 f   libucrtd:winapi_thunks.obj
 0001:000986e0       ___acrt_SetThreadStackGuarantee@4 100996e0 f   libucrtd:winapi_thunks.obj
 0001:00098740       ___acrt_can_show_message_box 10099740 f   libucrtd:winapi_thunks.obj
 0001:00098780       ___acrt_can_use_vista_locale_apis 10099780 f   libucrtd:winapi_thunks.obj
 0001:000987b0       ___acrt_can_use_xstate_apis 100997b0 f   libucrtd:winapi_thunks.obj
 0001:000987e0       ___acrt_get_parent_window  100997e0 f   libucrtd:winapi_thunks.obj
 0001:00098880       ___acrt_initialize_winapi_thunks 10099880 f   libucrtd:winapi_thunks.obj
 0001:00098900       ___acrt_is_interactive     10099900 f   libucrtd:winapi_thunks.obj
 0001:000989d0       ___acrt_is_packaged_app    100999d0 f   libucrtd:winapi_thunks.obj
 0001:00098b30       ___acrt_uninitialize_winapi_thunks 10099b30 f   libucrtd:winapi_thunks.obj
 0001:00099ea0       ??$find_first_file_ex@ABQADW4_FINDEX_INFO_LEVELS@@PAU_WIN32_FIND_DATAA@@W4_FINDEX_SEARCH_OPS@@$$TH@?$__crt_char_traits@D@@SAPAXABQAD$$QAW4_FINDEX_INFO_LEVELS@@$$QAPAU_WIN32_FIND_DATAA@@$$QAW4_FINDEX_SEARCH_OPS@@$$QA$$T$$QAH@Z 1009aea0 f i libucrtd:argv_wildcards.obj
 0001:00099ee0       ??$find_first_file_ex@ABQA_WW4_FINDEX_INFO_LEVELS@@PAU_WIN32_FIND_DATAW@@W4_FINDEX_SEARCH_OPS@@$$TH@?$__crt_char_traits@_W@@SAPAXABQA_W$$QAW4_FINDEX_INFO_LEVELS@@$$QAPAU_WIN32_FIND_DATAW@@$$QAW4_FINDEX_SEARCH_OPS@@$$QA$$T$$QAH@Z 1009aee0 f i libucrtd:argv_wildcards.obj
 0001:00099f20       ??$find_next_file@PAXPAU_WIN32_FIND_DATAA@@@?$__crt_char_traits@D@@SAH$$QAPAX$$QAPAU_WIN32_FIND_DATAA@@@Z 1009af20 f i libucrtd:argv_wildcards.obj
 0001:00099f40       ??$find_next_file@PAXPAU_WIN32_FIND_DATAW@@@?$__crt_char_traits@_W@@SAH$$QAPAX$$QAPAU_WIN32_FIND_DATAW@@@Z 1009af40 f i libucrtd:argv_wildcards.obj
 0001:00099f60       ??$tcsncpy_s@AAPADIAAPADABI@?$__crt_char_traits@D@@SAHAAPAD$$QAI0ABI@Z 1009af60 f i libucrtd:argv_wildcards.obj
 0001:00099f90       ??$tcsncpy_s@AAPA_WIAAPA_WABI@?$__crt_char_traits@_W@@SAHAAPA_W$$QAI0ABI@Z 1009af90 f i libucrtd:argv_wildcards.obj
 0001:00099fc0       ??$tcsncpy_s@PAD$$CBIABQBDABI@?$__crt_char_traits@D@@SAH$$QAPAD$$QBIABQBDABI@Z 1009afc0 f i libucrtd:argv_wildcards.obj
 0001:00099ff0       ??$tcsncpy_s@PADABIABQBDABI@?$__crt_char_traits@D@@SAH$$QAPADABIABQBD1@Z 1009aff0 f i libucrtd:argv_wildcards.obj
 0001:0009a020       ??$tcsncpy_s@PA_W$$CBIABQB_WABI@?$__crt_char_traits@_W@@SAH$$QAPA_W$$QBIABQB_WABI@Z 1009b020 f i libucrtd:argv_wildcards.obj
 0001:0009a050       ??$tcsncpy_s@PA_WABIABQB_WABI@?$__crt_char_traits@_W@@SAH$$QAPA_WABIABQB_W1@Z 1009b050 f i libucrtd:argv_wildcards.obj
 0001:0009a080       ??$tcspbrk@AAPADAAY02$$CBD@?$__crt_char_traits@D@@SAPADAAPADAAY02$$CBD@Z 1009b080 f i libucrtd:argv_wildcards.obj
 0001:0009a0a0       ??$tcspbrk@AAPA_WAAY02$$CB_W@?$__crt_char_traits@_W@@SAPA_WAAPA_WAAY02$$CB_W@Z 1009b0a0 f i libucrtd:argv_wildcards.obj
 0001:0009a0c0       ??0?$__crt_unique_handle_t@U__crt_findfile_traits@@@@QAE@QAX@Z 1009b0c0 f i libucrtd:argv_wildcards.obj
 0001:0009a0e0       ??0?$argument_list@D@?A0x536e2c96@@QAE@XZ 1009b0e0 f i libucrtd:argv_wildcards.obj
 0001:0009a120       ??0?$argument_list@_W@?A0x536e2c96@@QAE@XZ 1009b120 f i libucrtd:argv_wildcards.obj
 0001:0009a160       ??1?$__crt_unique_handle_t@U__crt_findfile_traits@@@@QAE@XZ 1009b160 f i libucrtd:argv_wildcards.obj
 0001:0009a180       ??1?$argument_list@D@?A0x536e2c96@@QAE@XZ 1009b180 f i libucrtd:argv_wildcards.obj
 0001:0009a1f0       ??1?$argument_list@_W@?A0x536e2c96@@QAE@XZ 1009b1f0 f i libucrtd:argv_wildcards.obj
 0001:0009a340       ?append@?$argument_list@D@?A0x536e2c96@@QAEHQAD@Z 1009b340 f i libucrtd:argv_wildcards.obj
 0001:0009a3b0       ?append@?$argument_list@_W@?A0x536e2c96@@QAEHQA_W@Z 1009b3b0 f i libucrtd:argv_wildcards.obj
 0001:0009a420       ?begin@?$argument_list@D@?A0x536e2c96@@QBEPAPADXZ 1009b420 f i libucrtd:argv_wildcards.obj
 0001:0009a440       ?begin@?$argument_list@_W@?A0x536e2c96@@QBEPAPA_WXZ 1009b440 f i libucrtd:argv_wildcards.obj
 0001:0009a460       ?close@?$__crt_unique_handle_t@U__crt_findfile_traits@@@@QAEXXZ 1009b460 f i libucrtd:argv_wildcards.obj
 0001:0009a4a0       ?close@__crt_findfile_traits@@SA_NPAX@Z 1009b4a0 f i libucrtd:argv_wildcards.obj
 0001:0009a4e0       ?end@?$argument_list@D@?A0x536e2c96@@QBEPAPADXZ 1009b4e0 f i libucrtd:argv_wildcards.obj
 0001:0009a500       ?end@?$argument_list@_W@?A0x536e2c96@@QBEPAPA_WXZ 1009b500 f i libucrtd:argv_wildcards.obj
 0001:0009a520       ?expand_if_necessary@?$argument_list@D@?A0x536e2c96@@AAEHXZ 1009b520 f i libucrtd:argv_wildcards.obj
 0001:0009a6d0       ?expand_if_necessary@?$argument_list@_W@?A0x536e2c96@@AAEHXZ 1009b6d0 f i libucrtd:argv_wildcards.obj
 0001:0009a880       ?get@?$__crt_unique_handle_t@U__crt_findfile_traits@@@@QBEPAXXZ 1009b880 f i libucrtd:argv_wildcards.obj
 0001:0009a8a0       ?get_invalid_value@__crt_findfile_traits@@SAPAXXZ 1009b8a0 f i libucrtd:argv_wildcards.obj
 0001:0009a8e0       ?size@?$argument_list@D@?A0x536e2c96@@QBEIXZ 1009b8e0 f i libucrtd:argv_wildcards.obj
 0001:0009a910       ?size@?$argument_list@_W@?A0x536e2c96@@QBEIXZ 1009b910 f i libucrtd:argv_wildcards.obj
 0001:0009a940       ?strpbrk@@YAPADQADQBD@Z    1009b940 f i libucrtd:argv_wildcards.obj
 0001:0009a960       ?wcspbrk@@YAPA_WPA_WPB_W@Z 1009b960 f i libucrtd:argv_wildcards.obj
 0001:0009a980       ___acrt_expand_narrow_argv_wildcards 1009b980 f   libucrtd:argv_wildcards.obj
 0001:0009a9a0       ___acrt_expand_wide_argv_wildcards 1009b9a0 f   libucrtd:argv_wildcards.obj
 0001:0009a9c0       ??$?RV<lambda_694f386f8d9a4d7d5afe1ac229f209db>@@AAV<lambda_2f900415df1f7f624cdaaefe86d0b1c0>@@V<lambda_17c2d007e408fdf31ce10a4c853c6ffa>@@@?$__crt_seh_guarded_call@X@@QAEX$$QAV<lambda_694f386f8d9a4d7d5afe1ac229f209db>@@AAV<lambda_2f900415df1f7f624cdaaefe86d0b1c0>@@$$QAV<lambda_17c2d007e408fdf31ce10a4c853c6ffa>@@@Z 1009b9c0 f i libucrtd:mbctype.obj
 0001:0009aa60       ??$__acrt_lock_and_call@V<lambda_2f900415df1f7f624cdaaefe86d0b1c0>@@@@YAXW4__acrt_lock_id@@$$QAV<lambda_2f900415df1f7f624cdaaefe86d0b1c0>@@@Z 1009ba60 f i libucrtd:mbctype.obj
 0001:0009b5f0       ___acrt_initialize_multibyte 1009c5f0 f   libucrtd:mbctype.obj
 0001:0009b620       ___acrt_update_thread_multibyte_data 1009c620 f   libucrtd:mbctype.obj
 0001:0009b770       ___p__mbcasemap            1009c770 f   libucrtd:mbctype.obj
 0001:0009b790       ___p__mbctype              1009c790 f   libucrtd:mbctype.obj
 0001:0009b7b0       __getmbcp                  1009c7b0 f   libucrtd:mbctype.obj
 0001:0009b840       __setmbcp                  1009c840 f   libucrtd:mbctype.obj
 0001:0009b860       __setmbcp_nolock           1009c860 f   libucrtd:mbctype.obj
 0001:0009be7b       __ismbbalnum               1009ce7b f   libucrtd:ismbbyte.obj
 0001:0009be9c       __ismbbalnum_l             1009ce9c f   libucrtd:ismbbyte.obj
 0001:0009bebf       __ismbbalpha               1009cebf f   libucrtd:ismbbyte.obj
 0001:0009bee0       __ismbbalpha_l             1009cee0 f   libucrtd:ismbbyte.obj
 0001:0009bf03       __ismbbblank               1009cf03 f   libucrtd:ismbbyte.obj
 0001:0009bf2e       __ismbbblank_l             1009cf2e f   libucrtd:ismbbyte.obj
 0001:0009bf5b       __ismbbgraph               1009cf5b f   libucrtd:ismbbyte.obj
 0001:0009bf7c       __ismbbgraph_l             1009cf7c f   libucrtd:ismbbyte.obj
 0001:0009bf9f       __ismbbkalnum              1009cf9f f   libucrtd:ismbbyte.obj
 0001:0009bfbd       __ismbbkalnum_l            1009cfbd f   libucrtd:ismbbyte.obj
 0001:0009bfdc       __ismbbkana                1009cfdc f   libucrtd:ismbbyte.obj
 0001:0009bff3       __ismbbkana_l              1009cff3 f   libucrtd:ismbbyte.obj
 0001:0009c058       __ismbbkprint              1009d058 f   libucrtd:ismbbyte.obj
 0001:0009c076       __ismbbkprint_l            1009d076 f   libucrtd:ismbbyte.obj
 0001:0009c095       __ismbbkpunct              1009d095 f   libucrtd:ismbbyte.obj
 0001:0009c0b3       __ismbbkpunct_l            1009d0b3 f   libucrtd:ismbbyte.obj
 0001:0009c0d2       __ismbblead                1009d0d2 f   libucrtd:ismbbyte.obj
 0001:0009c0f0       __ismbblead_l              1009d0f0 f   libucrtd:ismbbyte.obj
 0001:0009c10f       __ismbbprint               1009d10f f   libucrtd:ismbbyte.obj
 0001:0009c130       __ismbbprint_l             1009d130 f   libucrtd:ismbbyte.obj
 0001:0009c153       __ismbbpunct               1009d153 f   libucrtd:ismbbyte.obj
 0001:0009c171       __ismbbpunct_l             1009d171 f   libucrtd:ismbbyte.obj
 0001:0009c190       __ismbbtrail               1009d190 f   libucrtd:ismbbyte.obj
 0001:0009c1ae       __ismbbtrail_l             1009d1ae f   libucrtd:ismbbyte.obj
 0001:0009c1d0       ___acrt_initialize_command_line 1009d1d0 f   libucrtd:argv_data.obj
 0001:0009c200       ___acrt_uninitialize_command_line 1009d200 f   libucrtd:argv_data.obj
 0001:0009c210       ___p___argc                1009d210 f   libucrtd:argv_data.obj
 0001:0009c220       ___p___argv                1009d220 f   libucrtd:argv_data.obj
 0001:0009c230       ___p___wargv               1009d230 f   libucrtd:argv_data.obj
 0001:0009c240       ___p__acmdln               1009d240 f   libucrtd:argv_data.obj
 0001:0009c250       ___p__pgmptr               1009d250 f   libucrtd:argv_data.obj
 0001:0009c260       ___p__wcmdln               1009d260 f   libucrtd:argv_data.obj
 0001:0009c270       ___p__wpgmptr              1009d270 f   libucrtd:argv_data.obj
 0001:0009c280       __get_pgmptr               1009d280 f   libucrtd:argv_data.obj
 0001:0009c3e0       __get_wpgmptr              1009d3e0 f   libucrtd:argv_data.obj
 0001:0009c532       ??0?$__crt_unique_handle_t@Uenvironment_strings_traits@?A0xda6148bb@@@@QAE@QA_W@Z 1009d532 f i libucrtd:get_environment_from_os.obj
 0001:0009c546       ??1?$__crt_unique_handle_t@Uenvironment_strings_traits@?A0xda6148bb@@@@QAE@XZ 1009d546 f i libucrtd:get_environment_from_os.obj
 0001:0009c562       ??B?$__crt_unique_handle_t@Uenvironment_strings_traits@?A0xda6148bb@@@@QBE_NXZ 1009d562 f i libucrtd:get_environment_from_os.obj
 0001:0009c56c       ?close@?$__crt_unique_handle_t@Uenvironment_strings_traits@?A0xda6148bb@@@@QAEXXZ 1009d56c f i libucrtd:get_environment_from_os.obj
 0001:0009c588       ?close@environment_strings_traits@?A0xda6148bb@@SA_NPA_W@Z 1009d588 f i libucrtd:get_environment_from_os.obj
 0001:0009c5e2       ?get@?$__crt_unique_handle_t@Uenvironment_strings_traits@?A0xda6148bb@@@@QBEPA_WXZ 1009d5e2 f i libucrtd:get_environment_from_os.obj
 0001:0009c5e5       ?get_invalid_value@environment_strings_traits@?A0xda6148bb@@SAPA_WXZ 1009d5e5 f i libucrtd:get_environment_from_os.obj
 0001:0009c5e8       ?is_valid@?$__crt_unique_handle_t@Uenvironment_strings_traits@?A0xda6148bb@@@@QBE_NXZ 1009d5e8 f i libucrtd:get_environment_from_os.obj
 0001:0009c5f2       ___dcrt_get_narrow_environment_from_os 1009d5f2 f   libucrtd:get_environment_from_os.obj
 0001:0009c6a7       ___dcrt_get_wide_environment_from_os 1009d6a7 f   libucrtd:get_environment_from_os.obj
 0001:0009d247       ??$get_or_create_environment_nolock@$$$V@?$__crt_char_traits@D@@SAPAPADXZ 1009e247 f i libucrtd:setenv.obj
 0001:0009d24c       ??$get_or_create_environment_nolock@$$$V@?$__crt_char_traits@_W@@SAPAPA_WXZ 1009e24c f i libucrtd:setenv.obj
 0001:0009d251       ??$set_environment_variable@ABQADQAD@?$__crt_char_traits@D@@SAHABQAD$$QBQAD@Z 1009e251 f i libucrtd:setenv.obj
 0001:0009d26d       ??$set_environment_variable@ABQA_WQA_W@?$__crt_char_traits@_W@@SAHABQA_W$$QBQA_W@Z 1009e26d f i libucrtd:setenv.obj
 0001:0009d289       ??$tcschr@ABQADD@?$__crt_char_traits@D@@SAPADABQAD$$QAD@Z 1009e289 f i libucrtd:setenv.obj
 0001:0009d2a9       ??$tcschr@ABQA_WD@?$__crt_char_traits@_W@@SAPA_WABQA_W$$QAD@Z 1009e2a9 f i libucrtd:setenv.obj
 0001:0009d2ce       ??$tcscpy_s@AAPADABIAAPAD@?$__crt_char_traits@D@@SAHAAPADABI0@Z 1009e2ce f i libucrtd:setenv.obj
 0001:0009d2f3       ??$tcscpy_s@AAPA_WABIAAPA_W@?$__crt_char_traits@_W@@SAHAAPA_WABI0@Z 1009e2f3 f i libucrtd:setenv.obj
 0001:0009d318       ??$tcscpy_s@ABQADABIABQAD@?$__crt_char_traits@D@@SAHABQADABI0@Z 1009e318 f i libucrtd:setenv.obj
 0001:0009d33d       ??$tcscpy_s@ABQA_WABIABQA_W@?$__crt_char_traits@_W@@SAHABQA_WABI0@Z 1009e33d f i libucrtd:setenv.obj
 0001:0009d362       ??$tcslen@ABQAD@?$__crt_char_traits@D@@SAIABQAD@Z 1009e362 f i libucrtd:setenv.obj
 0001:0009d380       ??$tcslen@ABQA_W@?$__crt_char_traits@_W@@SAIABQA_W@Z 1009e380 f i libucrtd:setenv.obj
 0001:0009d3a5       ??$tcsnicoll@ABQBDAAPADABI@?$__crt_char_traits@D@@SAHABQBDAAPADABI@Z 1009e3a5 f i libucrtd:setenv.obj
 0001:0009d3ca       ??$tcsnicoll@ABQB_WAAPA_WABI@?$__crt_char_traits@_W@@SAHABQB_WAAPA_WABI@Z 1009e3ca f i libucrtd:setenv.obj
 0001:0009d3ef       ??$tcsnlen@QADH@?$__crt_char_traits@D@@SAI$$QBQAD$$QAH@Z 1009e3ef f i libucrtd:setenv.obj
 0001:0009d40d       ??$tcsnlen@QA_WH@?$__crt_char_traits@_W@@SAI$$QBQA_W$$QAH@Z 1009e40d f i libucrtd:setenv.obj
 0001:0009d44f       ?strchr@@YAPADQADH@Z       1009e44f f i libucrtd:setenv.obj
 0001:0009d45c       ?wcschr@@YAPA_WPA_W_W@Z    1009e45c f i libucrtd:setenv.obj
 0001:0009d469       ___dcrt_set_variable_in_narrow_environment_nolock 1009e469 f   libucrtd:setenv.obj
 0001:0009d476       ___dcrt_set_variable_in_wide_environment_nolock 1009e476 f   libucrtd:setenv.obj
 0001:0009d800       ___acrt_initialize_lowio   1009e800 f   libucrtd:ioinit.obj
 0001:0009d8c0       ___acrt_uninitialize_lowio 1009e8c0 f   libucrtd:ioinit.obj
 0001:0009d930       ___acrt_execute_initializers 1009e930 f   libucrtd:shared_initialization.obj
 0001:0009da30       ___acrt_execute_uninitializers 1009ea30 f   libucrtd:shared_initialization.obj
 0001:0009dac0       ?has_any_buffer@__crt_stdio_stream@@QBE_NXZ 1009eac0 f i libucrtd:_sftbuf.obj
 0001:0009dae0       ?has_any_of@__crt_stdio_stream@@QBE_NJ@Z 1009eae0 f i libucrtd:_sftbuf.obj
 0001:0009db20       ?has_temporary_buffer@__crt_stdio_stream@@QBE_NXZ 1009eb20 f i libucrtd:_sftbuf.obj
 0001:0009db40       ?set_flags@__crt_stdio_stream@@QBE_NJ@Z 1009eb40 f i libucrtd:_sftbuf.obj
 0001:0009dba0       ?unset_flags@__crt_stdio_stream@@QBE_NJ@Z 1009eba0 f i libucrtd:_sftbuf.obj
 0001:0009dc00       ___acrt_stdio_begin_temporary_buffering_nolock 1009ec00 f   libucrtd:_sftbuf.obj
 0001:0009de30       ___acrt_stdio_end_temporary_buffering_nolock 1009ee30 f   libucrtd:_sftbuf.obj
 0001:0009def0       ___isascii                 1009eef0 f i libucrtd:_ctype.obj
 0001:0009df20       ___iscsym                  1009ef20 f i libucrtd:_ctype.obj
 0001:0009df70       ___iscsymf                 1009ef70 f i libucrtd:_ctype.obj
 0001:0009dfb0       ___toascii                 1009efb0 f i libucrtd:_ctype.obj
 0001:0009dfc0       __isalnum_l                1009efc0 f i libucrtd:_ctype.obj
 0001:0009e010       __isalpha_l                1009f010 f i libucrtd:_ctype.obj
 0001:0009e060       __isblank_l                1009f060 f i libucrtd:_ctype.obj
 0001:0009e0d0       __iscntrl_l                1009f0d0 f i libucrtd:_ctype.obj
 0001:0009e120       __iscsym_l                 1009f120 f i libucrtd:_ctype.obj
 0001:0009e170       __iscsymf_l                1009f170 f i libucrtd:_ctype.obj
 0001:0009e1c0       __isdigit_l                1009f1c0 f i libucrtd:_ctype.obj
 0001:0009e210       __isgraph_l                1009f210 f i libucrtd:_ctype.obj
 0001:0009e260       __islower_l                1009f260 f i libucrtd:_ctype.obj
 0001:0009e2b0       __isprint_l                1009f2b0 f i libucrtd:_ctype.obj
 0001:0009e300       __ispunct_l                1009f300 f i libucrtd:_ctype.obj
 0001:0009e350       __isspace_l                1009f350 f i libucrtd:_ctype.obj
 0001:0009e3a0       __isupper_l                1009f3a0 f i libucrtd:_ctype.obj
 0001:0009e3f0       __isxdigit_l               1009f3f0 f i libucrtd:_ctype.obj
 0001:0009e440       _isalnum                   1009f440 f i libucrtd:_ctype.obj
 0001:0009e490       _isalpha                   1009f490 f i libucrtd:_ctype.obj
 0001:0009e4e0       _isblank                   1009f4e0 f i libucrtd:_ctype.obj
 0001:0009e550       _iscntrl                   1009f550 f i libucrtd:_ctype.obj
 0001:0009e5a0       _isdigit                   1009f5a0 f i libucrtd:_ctype.obj
 0001:0009e5f0       _isgraph                   1009f5f0 f i libucrtd:_ctype.obj
 0001:0009e640       _islower                   1009f640 f i libucrtd:_ctype.obj
 0001:0009e690       _isprint                   1009f690 f i libucrtd:_ctype.obj
 0001:0009e6e0       _ispunct                   1009f6e0 f i libucrtd:_ctype.obj
 0001:0009e730       _isspace                   1009f730 f i libucrtd:_ctype.obj
 0001:0009e780       _isupper                   1009f780 f i libucrtd:_ctype.obj
 0001:0009e7d0       _isxdigit                  1009f7d0 f i libucrtd:_ctype.obj
 0001:0009ee00       __tolower                  1009fe00 f   libucrtd:tolower_toupper.obj
 0001:0009ee10       __tolower_l                1009fe10 f   libucrtd:tolower_toupper.obj
 0001:0009ee40       __toupper                  1009fe40 f   libucrtd:tolower_toupper.obj
 0001:0009ee50       __toupper_l                1009fe50 f   libucrtd:tolower_toupper.obj
 0001:0009ee80       _tolower                   1009fe80 f   libucrtd:tolower_toupper.obj
 0001:0009eef0       _toupper                   1009fef0 f   libucrtd:tolower_toupper.obj
