 PhysX3CharacterKinematicDEBUG_x86

 Timestamp is 58ca8083 (Thu Mar 16 12:09:39 2017)

 Preferred load address is 10000000

 Start         Length     Name                   Class
 0001:00000000 00008ec0H .text$di                CODE
 0001:00008ec0 000bd880H .text$mn                CODE
 0001:000c6740 000010e8H .text$x                 CODE
 0002:00000000 00000104H .CRT$XCA                DATA
 0002:00000104 0000011cH .CRT$XCU                DATA
 0002:00000220 00000104H .CRT$XCZ                DATA
 0002:00000324 00000104H .CRT$XIA                DATA
 0002:00000428 00000110H .CRT$XIC                DATA
 0002:00000538 00000104H .CRT$XIZ                DATA
 0002:0000063c 00000104H .CRT$XPA                DATA
 0002:00000740 0000010cH .CRT$XPX                DATA
 0002:0000084c 00000104H .CRT$XPXA               DATA
 0002:00000950 00000104H .CRT$XPZ                DATA
 0002:00000a54 00000104H .CRT$XTA                DATA
 0002:00000b58 00000108H .CRT$XTZ                DATA
 0002:00000c60 00023264H .rdata                  DATA
 0002:00023ec4 0000044cH .rdata$r                DATA
 0002:00024310 0000012cH .rdata$sxdata           DATA
 0002:0002443c 000001a4H .rdata$zzzdbg           DATA
 0002:000245e0 00000104H .rtc$IAA                DATA
 0002:000246e4 0000013cH .rtc$IMZ                DATA
 0002:00024820 00000104H .rtc$IZZ                DATA
 0002:00024924 00000104H .rtc$TAA                DATA
 0002:00024a28 0000013cH .rtc$TMZ                DATA
 0002:00024b64 00000104H .rtc$TZZ                DATA
 0002:00024c68 00000e38H .xdata$x                DATA
 0002:00025aa0 00000ad0H .edata                  DATA
 0003:00000000 00000ae0H .data                   DATA
 0003:00000ae0 00000380H .data$r                 DATA
 0003:00000e60 00001894H .bss                    DATA
 0004:00000000 000002f4H .idata$5                DATA
 0004:000002f4 0000003cH .idata$2                DATA
 0004:00000330 00000014H .idata$3                DATA
 0004:00000344 000002f4H .idata$4                DATA
 0004:00000638 000014f0H .idata$6                DATA
 0005:00000000 00000208H .gfids$x                DATA
 0005:00000208 000001d4H .gfids$y                DATA
 0006:00000000 00000104H .00cfg                  DATA
 0007:00000000 000001c0H .rsrc$01                DATA
 0007:000001c0 00000700H .rsrc$02                DATA

  Address         Publics by Value              Rva+Base       Lib:Object

 0000:00000000       ___guard_fids_count        00000000     <absolute>
 0000:00000000       ___guard_iat_table         00000000     <absolute>
 0000:00000000       __except_list              00000000     <absolute>
 0000:00000000       ___dynamic_value_reloc_table 00000000     <absolute>
 0000:00000000       ___guard_iat_count         00000000     <absolute>
 0000:00000000       ___guard_longjmp_table     00000000     <absolute>
 0000:00000000       ___guard_fids_table        00000000     <absolute>
 0000:00000000       ___guard_longjmp_count     00000000     <absolute>
 0000:00000009       ___safe_se_handler_count   00000009     <absolute>
 0000:00000100       ___guard_flags             00000100     <absolute>
 0000:00000000       ___ImageBase               10000000     <linker-defined>
 0001:00008ec0       ??0BoxController@Cct@physx@@QAE@ABVPxControllerDesc@2@AAVPxPhysics@2@PAVPxScene@2@@Z 10009ec0 f   CctBoxController.obj
 0001:00008fb0       ??1BoxController@Cct@physx@@UAE@XZ 10009fb0 f   CctBoxController.obj
 0001:00008ff0       ?getWorldBox@BoxController@Cct@physx@@UBE_NAAUPxExtendedBounds3@3@@Z 10009ff0 f   CctBoxController.obj
 0001:00009060       ?setFootPosition@BoxController@Cct@physx@@UAE_NABUPxExtendedVec3@3@@Z 1000a060 f   CctBoxController.obj
 0001:000090e0       ?getFootPosition@BoxController@Cct@physx@@UBE?AUPxExtendedVec3@3@XZ 1000a0e0 f   CctBoxController.obj
 0001:00009180       ?invalidateCache@BoxController@Cct@physx@@UAEXXZ 1000a180 f   CctBoxController.obj
 0001:000091e0       ?resize@BoxController@Cct@physx@@UAEXM@Z 1000a1e0 f   CctBoxController.obj
 0001:00009290       ?getHalfHeight@BoxController@Cct@physx@@UBEMXZ 1000a290 f   CctBoxController.obj
 0001:000092b0       ?getHalfSideExtent@BoxController@Cct@physx@@UBEMXZ 1000a2b0 f   CctBoxController.obj
 0001:000092d0       ?getHalfForwardExtent@BoxController@Cct@physx@@UBEMXZ 1000a2d0 f   CctBoxController.obj
 0001:000092f0       ?setHalfHeight@BoxController@Cct@physx@@UAE_NM@Z 1000a2f0 f   CctBoxController.obj
 0001:00009330       ?setHalfSideExtent@BoxController@Cct@physx@@UAE_NM@Z 1000a330 f   CctBoxController.obj
 0001:00009370       ?setHalfForwardExtent@BoxController@Cct@physx@@UAE_NM@Z 1000a370 f   CctBoxController.obj
 0001:000093b0       ?updateKinematicProxy@BoxController@Cct@physx@@QAE_NXZ 1000a3b0 f   CctBoxController.obj
 0001:000094b0       ?getOBB@BoxController@Cct@physx@@QBEXAAVPxExtendedBox@3@@Z 1000a4b0 f   CctBoxController.obj
 0001:00009710       ??0Allocator@shdfnd@physx@@QAE@PBD@Z 1000a710 f i CctBoxController.obj
 0001:00009730       ??0NonTrackingAllocator@shdfnd@physx@@QAE@PBD@Z 1000a730 f i CctBoxController.obj
 0001:00009750       ??0PxBoxController@physx@@IAE@XZ 1000a750 f i CctBoxController.obj
 0001:00009780       ??0PxBoxGeometry@physx@@QAE@XZ 1000a780 f i CctBoxController.obj
 0001:000097d0       ??0PxController@physx@@IAE@XZ 1000a7d0 f i CctBoxController.obj
 0001:000097f0       ??0PxControllerManager@physx@@IAE@XZ 1000a7f0 f i CctBoxController.obj
 0001:00009810       ??0PxControllerManager@physx@@QAE@ABV01@@Z 1000a810 f i CctBoxController.obj
 0001:00009830       ??0PxExtendedBounds3@physx@@QAE@XZ 1000a830 f i CctBoxController.obj
 0001:00009860       ??0PxExtendedVec3@physx@@QAE@NNN@Z 1000a860 f i CctBoxController.obj
 0001:000098b0       ??0PxExtendedVec3@physx@@QAE@XZ 1000a8b0 f i CctBoxController.obj
 0001:000098d0       ??0PxFoundation@physx@@QAE@ABV01@@Z 1000a8d0 f i CctBoxController.obj
 0001:000098f0       ??0PxFoundation@physx@@QAE@XZ 1000a8f0 f i CctBoxController.obj
 0001:00009910       ??0PxGeometry@physx@@IAE@W4Enum@PxGeometryType@1@@Z 1000a910 f i CctBoxController.obj
 0001:00009930       ??0PxVec3@physx@@QAE@ABV01@@Z 1000a930 f i CctBoxController.obj
 0001:00009970       ??0PxVec3@physx@@QAE@MMM@Z 1000a970 f i CctBoxController.obj
 0001:000099c0       ??1PxBoxController@physx@@MAE@XZ 1000a9c0 f i CctBoxController.obj
 0001:000099f0       ??1PxController@physx@@MAE@XZ 1000a9f0 f i CctBoxController.obj
 0001:00009a10       ??1PxControllerManager@physx@@MAE@XZ 1000aa10 f i CctBoxController.obj
 0001:00009a30       ??1PxFoundation@physx@@MAE@XZ 1000aa30 f i CctBoxController.obj
 0001:00009a50       ??3UserAllocated@shdfnd@physx@@SAXPAX@Z 1000aa50 f i CctBoxController.obj
 0001:00009a80       ??4Allocator@shdfnd@physx@@QAEAAV012@$$QAV012@@Z 1000aa80 f i CctBoxController.obj
 0001:00009aa0       ??4Allocator@shdfnd@physx@@QAEAAV012@ABV012@@Z 1000aaa0 f i CctBoxController.obj
 0001:00009ac0       ??4MutexImpl@shdfnd@physx@@QAEAAV012@ABV012@@Z 1000aac0 f i CctBoxController.obj
 0001:00009ae0       ??4PxControllerManager@physx@@QAEAAV01@ABV01@@Z 1000aae0 f i CctBoxController.obj
 0001:00009b00       ??4PxFoundation@physx@@QAEAAV01@ABV01@@Z 1000ab00 f i CctBoxController.obj
 0001:00009b20       ??4PxQuat@physx@@QAEAAV01@ABV01@@Z 1000ab20 f i CctBoxController.obj
 0001:00009b70       ??4PxVec3@physx@@QAEAAV01@ABV01@@Z 1000ab70 f i CctBoxController.obj
 0001:00009bb0       ??DPxVec3@physx@@QBE?AV01@M@Z 1000abb0 f i CctBoxController.obj
 0001:00009c20       ??GPxExtendedVec3@physx@@QBE?AVPxVec3@1@ABU01@@Z 1000ac20 f i CctBoxController.obj
 0001:00009ca0       ??HPxExtendedVec3@physx@@QBE?AU01@ABU01@@Z 1000aca0 f i CctBoxController.obj
 0001:00009d20       ??XPxExtendedVec3@physx@@QAEAAU01@ABM@Z 1000ad20 f i CctBoxController.obj
 0001:00009d90       ??XPxVec3@physx@@QAEAAV01@M@Z 1000ad90 f i CctBoxController.obj
 0001:00009df0       ??YPxExtendedVec3@physx@@QAEAAU01@ABVPxVec3@1@@Z 1000adf0 f i CctBoxController.obj
 0001:00009e60       ??ZPxExtendedVec3@physx@@QAEAAU01@ABVPxVec3@1@@Z 1000ae60 f i CctBoxController.obj
 0001:00009ed9       ??_EBoxController@Cct@physx@@W7AEPAXI@Z 1000aed9 f i CctBoxController.obj
 0001:00009ef0       ??_EPxControllerManager@physx@@MAEPAXI@Z 1000aef0 f i CctBoxController.obj
 0001:00009f90       ??_EPxFoundation@physx@@MAEPAXI@Z 1000af90 f i CctBoxController.obj
 0001:0000a030       ??_FAllocator@shdfnd@physx@@QAEXXZ 1000b030 f i CctBoxController.obj
 0001:0000a050       ??_FNamedAllocator@shdfnd@physx@@QAEXXZ 1000b050 f i CctBoxController.obj
 0001:0000a070       ??_GBoxController@Cct@physx@@UAEPAXI@Z 1000b070 f i CctBoxController.obj
 0001:0000a070       ??_EBoxController@Cct@physx@@UAEPAXI@Z 1000b070 f i CctBoxController.obj
 0001:0000a0d0       ??_GPxBoxController@physx@@MAEPAXI@Z 1000b0d0 f i CctBoxController.obj
 0001:0000a0d0       ??_EPxBoxController@physx@@MAEPAXI@Z 1000b0d0 f i CctBoxController.obj
 0001:0000a110       ??_EPxController@physx@@MAEPAXI@Z 1000b110 f i CctBoxController.obj
 0001:0000a110       ??_GPxController@physx@@MAEPAXI@Z 1000b110 f i CctBoxController.obj
 0001:0000a150       ??_GPxControllerManager@physx@@MAEPAXI@Z 1000b150 f i CctBoxController.obj
 0001:0000a190       ??_GPxFoundation@physx@@MAEPAXI@Z 1000b190 f i CctBoxController.obj
 0001:0000a1d0       ??_H@YGXPAXIIP6EPAX0@Z@Z   1000b1d0 f i CctBoxController.obj
 0001:0000a230       ??_I@YGXPAXIIP6EX0@Z@Z     1000b230 f i CctBoxController.obj
 0001:0000a2a0       ?__empty_global_delete@@YAXPAX@Z 1000b2a0 f i CctBoxController.obj
 0001:0000a2b0       ?__global_delete@@YAXPAXI@Z 1000b2b0 f i CctBoxController.obj
 0001:0000a2b0       ?__empty_global_delete@@YAXPAXI@Z 1000b2b0 f i CctBoxController.obj
 0001:0000a2c0       ?deallocate@NonTrackingAllocator@shdfnd@physx@@QAEXPAX@Z 1000b2c0 f i CctBoxController.obj
 0001:0000a300       ?getActor@BoxController@Cct@physx@@UBEPAVPxRigidDynamic@3@XZ 1000b300 f i CctBoxController.obj
 0001:0000a320       ?getCenter@physx@@YAXABUPxExtendedBounds3@1@AAUPxExtendedVec3@1@@Z 1000b320 f i CctBoxController.obj
 0001:0000a3a0       ?getContactOffset@BoxController@Cct@physx@@UBEMXZ 1000b3a0 f i CctBoxController.obj
 0001:0000a3c0       ?getExtents@physx@@YAXABUPxExtendedBounds3@1@AAVPxVec3@1@@Z 1000b3c0 f i CctBoxController.obj
 0001:0000a410       ?getHalfHeightInternal@BoxController@Cct@physx@@UBEMXZ 1000b410 f i CctBoxController.obj
 0001:0000a430       ?getNonWalkableMode@BoxController@Cct@physx@@UBE?AW4Enum@PxControllerNonWalkableMode@3@XZ 1000b430 f i CctBoxController.obj
 0001:0000a450       ?getPosition@BoxController@Cct@physx@@UBEABUPxExtendedVec3@3@XZ 1000b450 f i CctBoxController.obj
 0001:0000a470       ?getPxController@BoxController@Cct@physx@@UAEPAVPxController@3@XZ 1000b470 f i CctBoxController.obj
 0001:0000a490       ?getScene@BoxController@Cct@physx@@UAEPAVPxScene@3@XZ 1000b490 f i CctBoxController.obj
 0001:0000a4b0       ?getSlopeLimit@BoxController@Cct@physx@@UBEMXZ 1000b4b0 f i CctBoxController.obj
 0001:0000a4d0       ?getState@BoxController@Cct@physx@@UBEXAAUPxControllerState@3@@Z 1000b4d0 f i CctBoxController.obj
 0001:0000a500       ?getStats@BoxController@Cct@physx@@UBEXAAUPxControllerStats@3@@Z 1000b500 f i CctBoxController.obj
 0001:0000a530       ?getStepOffset@BoxController@Cct@physx@@UBEMXZ 1000b530 f i CctBoxController.obj
 0001:0000a550       ?getType@BoxController@Cct@physx@@UBE?AW4Enum@PxControllerShapeType@3@XZ 1000b550 f i CctBoxController.obj
 0001:0000a570       ?getUpDirection@BoxController@Cct@physx@@UBE?AVPxVec3@3@XZ 1000b570 f i CctBoxController.obj
 0001:0000a5a0       ?getUserData@BoxController@Cct@physx@@UBEPAXXZ 1000b5a0 f i CctBoxController.obj
 0001:0000a5c0       ?lock@?$MutexT@V?$ReflectionAllocator@VMutexImpl@shdfnd@physx@@@shdfnd@physx@@@shdfnd@physx@@QBEXXZ 1000b5c0 f i CctBoxController.obj
 0001:0000a5e0       ?release@BoxController@Cct@physx@@UAEXXZ 1000b5e0 f i CctBoxController.obj
 0001:0000a600       ?setCenterExtents@physx@@YAXAAUPxExtendedBounds3@1@ABUPxExtendedVec3@1@ABVPxVec3@1@@Z 1000b600 f i CctBoxController.obj
 0001:0000a690       ?setContactOffset@BoxController@Cct@physx@@UAEXM@Z 1000b690 f i CctBoxController.obj
 0001:0000a6d0       ?setNonWalkableMode@BoxController@Cct@physx@@UAEXW4Enum@PxControllerNonWalkableMode@3@@Z 1000b6d0 f i CctBoxController.obj
 0001:0000a6f0       ?setPosition@BoxController@Cct@physx@@UAE_NABUPxExtendedVec3@3@@Z 1000b6f0 f i CctBoxController.obj
 0001:0000a720       ?setSlopeLimit@BoxController@Cct@physx@@UAEXM@Z 1000b720 f i CctBoxController.obj
 0001:0000a760       ?setStepOffset@BoxController@Cct@physx@@UAEXM@Z 1000b760 f i CctBoxController.obj
 0001:0000a7a0       ?setUpDirection@BoxController@Cct@physx@@UAEXABVPxVec3@3@@Z 1000b7a0 f i CctBoxController.obj
 0001:0000a7d0       ?setUserData@BoxController@Cct@physx@@UAEXPAX@Z 1000b7d0 f i CctBoxController.obj
 0001:0000a7f0       ?unlock@?$MutexT@V?$ReflectionAllocator@VMutexImpl@shdfnd@physx@@@shdfnd@physx@@@shdfnd@physx@@QBEXXZ 1000b7f0 f i CctBoxController.obj
 0001:0000a810       ??0CapsuleController@Cct@physx@@QAE@ABVPxControllerDesc@2@AAVPxPhysics@2@PAVPxScene@2@@Z 1000b810 f   CctCapsuleController.obj
 0001:0000a910       ??1CapsuleController@Cct@physx@@UAE@XZ 1000b910 f   CctCapsuleController.obj
 0001:0000a950       ?getWorldBox@CapsuleController@Cct@physx@@UBE_NAAUPxExtendedBounds3@3@@Z 1000b950 f   CctCapsuleController.obj
 0001:0000a9d0       ?setFootPosition@CapsuleController@Cct@physx@@UAE_NABUPxExtendedVec3@3@@Z 1000b9d0 f   CctCapsuleController.obj
 0001:0000aa60       ?getFootPosition@CapsuleController@Cct@physx@@UBE?AUPxExtendedVec3@3@XZ 1000ba60 f   CctCapsuleController.obj
 0001:0000ab10       ?invalidateCache@CapsuleController@Cct@physx@@UAEXXZ 1000bb10 f   CctCapsuleController.obj
 0001:0000ab70       ?resize@CapsuleController@Cct@physx@@UAEXM@Z 1000bb70 f   CctCapsuleController.obj
 0001:0000ac40       ?getClimbingMode@CapsuleController@Cct@physx@@UBE?AW4Enum@PxCapsuleClimbingMode@3@XZ 1000bc40 f   CctCapsuleController.obj
 0001:0000ac60       ?setRadius@CapsuleController@Cct@physx@@UAE_NM@Z 1000bc60 f   CctCapsuleController.obj
 0001:0000ad40       ?setHeight@CapsuleController@Cct@physx@@UAE_NM@Z 1000bd40 f   CctCapsuleController.obj
 0001:0000ae20       ?setClimbingMode@CapsuleController@Cct@physx@@UAE_NW4Enum@PxCapsuleClimbingMode@3@@Z 1000be20 f   CctCapsuleController.obj
 0001:0000ae50       ?getCapsule@CapsuleController@Cct@physx@@QBEXAAUPxExtendedCapsule@3@@Z 1000be50 f   CctCapsuleController.obj
 0001:0000b1a0       ??0PxCapsuleController@physx@@IAE@XZ 1000c1a0 f i CctCapsuleController.obj
 0001:0000b1d0       ??0PxCapsuleGeometry@physx@@QAE@XZ 1000c1d0 f i CctCapsuleController.obj
 0001:0000b210       ??1PxCapsuleController@physx@@MAE@XZ 1000c210 f i CctCapsuleController.obj
 0001:0000b233       ??_ECapsuleController@Cct@physx@@W7AEPAXI@Z 1000c233 f i CctCapsuleController.obj
 0001:0000b240       ??_ECapsuleController@Cct@physx@@UAEPAXI@Z 1000c240 f i CctCapsuleController.obj
 0001:0000b240       ??_GCapsuleController@Cct@physx@@UAEPAXI@Z 1000c240 f i CctCapsuleController.obj
 0001:0000b2a0       ??_EPxCapsuleController@physx@@MAEPAXI@Z 1000c2a0 f i CctCapsuleController.obj
 0001:0000b2a0       ??_GPxCapsuleController@physx@@MAEPAXI@Z 1000c2a0 f i CctCapsuleController.obj
 0001:0000b2e0       ?getActor@CapsuleController@Cct@physx@@UBEPAVPxRigidDynamic@3@XZ 1000c2e0 f i CctCapsuleController.obj
 0001:0000b300       ?getContactOffset@CapsuleController@Cct@physx@@UBEMXZ 1000c300 f i CctCapsuleController.obj
 0001:0000b320       ?getHalfHeightInternal@CapsuleController@Cct@physx@@UBEMXZ 1000c320 f i CctCapsuleController.obj
 0001:0000b360       ?getHeight@CapsuleController@Cct@physx@@UBEMXZ 1000c360 f i CctCapsuleController.obj
 0001:0000b380       ?getNonWalkableMode@CapsuleController@Cct@physx@@UBE?AW4Enum@PxControllerNonWalkableMode@3@XZ 1000c380 f i CctCapsuleController.obj
 0001:0000b3a0       ?getPosition@CapsuleController@Cct@physx@@UBEABUPxExtendedVec3@3@XZ 1000c3a0 f i CctCapsuleController.obj
 0001:0000b3c0       ?getPxController@CapsuleController@Cct@physx@@UAEPAVPxController@3@XZ 1000c3c0 f i CctCapsuleController.obj
 0001:0000b3e0       ?getRadius@CapsuleController@Cct@physx@@UBEMXZ 1000c3e0 f i CctCapsuleController.obj
 0001:0000b400       ?getScene@CapsuleController@Cct@physx@@UAEPAVPxScene@3@XZ 1000c400 f i CctCapsuleController.obj
 0001:0000b420       ?getSlopeLimit@CapsuleController@Cct@physx@@UBEMXZ 1000c420 f i CctCapsuleController.obj
 0001:0000b440       ?getState@CapsuleController@Cct@physx@@UBEXAAUPxControllerState@3@@Z 1000c440 f i CctCapsuleController.obj
 0001:0000b470       ?getStats@CapsuleController@Cct@physx@@UBEXAAUPxControllerStats@3@@Z 1000c470 f i CctCapsuleController.obj
 0001:0000b4a0       ?getStepOffset@CapsuleController@Cct@physx@@UBEMXZ 1000c4a0 f i CctCapsuleController.obj
 0001:0000b4c0       ?getType@CapsuleController@Cct@physx@@UBE?AW4Enum@PxControllerShapeType@3@XZ 1000c4c0 f i CctCapsuleController.obj
 0001:0000b4e0       ?getUpDirection@CapsuleController@Cct@physx@@UBE?AVPxVec3@3@XZ 1000c4e0 f i CctCapsuleController.obj
 0001:0000b510       ?getUserData@CapsuleController@Cct@physx@@UBEPAXXZ 1000c510 f i CctCapsuleController.obj
 0001:0000b530       ?release@CapsuleController@Cct@physx@@UAEXXZ 1000c530 f i CctCapsuleController.obj
 0001:0000b550       ?setContactOffset@CapsuleController@Cct@physx@@UAEXM@Z 1000c550 f i CctCapsuleController.obj
 0001:0000b590       ?setNonWalkableMode@CapsuleController@Cct@physx@@UAEXW4Enum@PxControllerNonWalkableMode@3@@Z 1000c590 f i CctCapsuleController.obj
 0001:0000b5b0       ?setPosition@CapsuleController@Cct@physx@@UAE_NABUPxExtendedVec3@3@@Z 1000c5b0 f i CctCapsuleController.obj
 0001:0000b5e0       ?setSlopeLimit@CapsuleController@Cct@physx@@UAEXM@Z 1000c5e0 f i CctCapsuleController.obj
 0001:0000b620       ?setStepOffset@CapsuleController@Cct@physx@@UAEXM@Z 1000c620 f i CctCapsuleController.obj
 0001:0000b660       ?setUpDirection@CapsuleController@Cct@physx@@UAEXABVPxVec3@3@@Z 1000c660 f i CctCapsuleController.obj
 0001:0000b690       ?setUserData@CapsuleController@Cct@physx@@UAEXPAX@Z 1000c690 f i CctCapsuleController.obj
 0001:0000b6b0       ??0CCTParams@Cct@physx@@QAE@XZ 1000c6b0 f   CctCharacterController.obj
 0001:0000b750       ??0SweepTest@Cct@physx@@QAE@_N@Z 1000c750 f   CctCharacterController.obj
 0001:0000ba50       ??1SweepTest@Cct@physx@@QAE@XZ 1000ca50 f   CctCharacterController.obj
 0001:0000baa0       ?moveCharacter@SweepTest@Cct@physx@@QAE?AV?$PxFlags@W4Enum@PxControllerCollisionFlag@physx@@E@3@PBUInternalCBData_FindTouchedGeom@23@PAUInternalCBData_OnHit@23@AAVSweptVolume@23@ABVPxVec3@3@ABUUserObstacles@23@MABVPxControllerFilters@3@_N6AAPBVPxRigidActor@3@AAPBVPxShape@3@_K@Z 1000caa0 f   CctCharacterController.obj
 0001:0000c4b0       ?doSweepTest@SweepTest@Cct@physx@@QAE_NPBUInternalCBData_FindTouchedGeom@23@PAUInternalCBData_OnHit@23@ABUUserObstacles@23@AAVSweptVolume@23@ABVPxVec3@3@4IPAIMABVPxControllerFilters@3@W4SweepPass@23@AAPBVPxRigidActor@3@AAPBVPxShape@3@_K@Z 1000d4b0 f   CctCharacterController.obj
 0001:0000cf80       ?findTouchedObstacles@SweepTest@Cct@physx@@QAEXABUUserObstacles@23@ABUPxExtendedBounds3@3@@Z 1000df80 f   CctCharacterController.obj
 0001:0000d460       ?voidTestCache@SweepTest@Cct@physx@@QAEXXZ 1000e460 f   CctCharacterController.obj
 0001:0000d4b0       ?onRelease@SweepTest@Cct@physx@@QAEXABVPxBase@3@@Z 1000e4b0 f   CctCharacterController.obj
 0001:0000d550       ?updateCachedShapesRegistration@SweepTest@Cct@physx@@QAEXI_N@Z 1000e550 f   CctCharacterController.obj
 0001:0000d670       ?onObstacleRemoved@SweepTest@Cct@physx@@QAEXI@Z 1000e670 f   CctCharacterController.obj
 0001:0000d6a0       ?onObstacleUpdated@SweepTest@Cct@physx@@QAEXIPBVPxObstacleContext@3@ABVPxVec3@3@1M@Z 1000e6a0 f   CctCharacterController.obj
 0001:0000d800       ?onObstacleAdded@SweepTest@Cct@physx@@QAEXIPBVPxObstacleContext@3@ABVPxVec3@3@1M@Z 1000e800 f   CctCharacterController.obj
 0001:0000d980       ?onOriginShift@SweepTest@Cct@physx@@QAEXABVPxVec3@3@@Z 1000e980 f   CctCharacterController.obj
 0001:0000da90       ?updateTouchedGeoms@SweepTest@Cct@physx@@AAEXPBUInternalCBData_FindTouchedGeom@23@ABUUserObstacles@23@ABUPxExtendedBounds3@3@ABVPxControllerFilters@3@ABVPxVec3@3@@Z 1000ea90 f   CctCharacterController.obj
 0001:0000e0c0       ?findTouchedObject@Controller@Cct@physx@@IAEXABVPxControllerFilters@3@PBVPxObstacleContext@3@ABVPxVec3@3@@Z 1000f0c0 f   CctCharacterController.obj
 0001:0000e680       ?rideOnTouchedObject@Controller@Cct@physx@@IAE_NAAVSweptVolume@23@ABVPxVec3@3@AAV53@PBVPxObstacleContext@3@@Z 1000f680 f   CctCharacterController.obj
 0001:0000eae0       ?move@Controller@Cct@physx@@IAE?AV?$PxFlags@W4Enum@PxControllerCollisionFlag@physx@@E@3@AAVSweptVolume@23@ABVPxVec3@3@MMABVPxControllerFilters@3@PBVPxObstacleContext@3@_N@Z 1000fae0 f   CctCharacterController.obj
 0001:0000fb30       ?filterTouchedShape@Controller@Cct@physx@@IAE_NABVPxControllerFilters@3@@Z 10010b30 f   CctCharacterController.obj
 0001:00011ee0       ?move@BoxController@Cct@physx@@UAE?AV?$PxFlags@W4Enum@PxControllerCollisionFlag@physx@@E@3@ABVPxVec3@3@MMABVPxControllerFilters@3@PBVPxObstacleContext@3@@Z 10012ee0 f   CctCharacterController.obj
 0001:00011ff0       ?move@CapsuleController@Cct@physx@@UAE?AV?$PxFlags@W4Enum@PxControllerCollisionFlag@physx@@E@3@ABVPxVec3@3@MMABVPxControllerFilters@3@PBVPxObstacleContext@3@@Z 10012ff0 f   CctCharacterController.obj
 0001:00013ba0       ??$PX_UNUSED@I@@YAXABI@Z   10014ba0 f i CctCharacterController.obj
 0001:00013bb0       ??$PX_UNUSED@PBUPxRaycastHit@physx@@@@YAXABQBUPxRaycastHit@physx@@@Z 10014bb0 f i CctCharacterController.obj
 0001:00013bc0       ??$PX_UNUSED@W4PxIDENTITY@physx@@@@YAXABW4PxIDENTITY@physx@@@Z 10014bc0 f i CctCharacterController.obj
 0001:00013bd0       ??$PX_UNUSED@_K@@YAXAB_K@Z 10014bd0 f i CctCharacterController.obj
 0001:00013be0       ??$PxMax@I@physx@@YAIII@Z  10014be0 f i CctCharacterController.obj
 0001:00013c10       ??$PxMax@N@physx@@YANNN@Z  10014c10 f i CctCharacterController.obj
 0001:00013c50       ??$PxMin@N@physx@@YANNN@Z  10014c50 f i CctCharacterController.obj
 0001:00013c90       ??$PxUnionCast@PBVPxGeometry@physx@@PAY03$$CBE@physx@@YAPBVPxGeometry@0@PAY03$$CBE@Z 10014c90 f i CctCharacterController.obj
 0001:00013cb0       ??0?$Array@IVNamedAllocator@shdfnd@physx@@@shdfnd@physx@@QAE@ABVNamedAllocator@12@@Z 10014cb0 f i CctCharacterController.obj
 0001:00013d00       ??0?$Array@VPxTriangle@physx@@VNamedAllocator@shdfnd@2@@shdfnd@physx@@QAE@ABVNamedAllocator@12@@Z 10014d00 f i CctCharacterController.obj
 0001:00013d50       ??0?$PxFlags@W4Enum@PxControllerCollisionFlag@physx@@E@physx@@QAE@ABV01@@Z 10014d50 f i CctCharacterController.obj
 0001:00013d70       ??0?$PxFlags@W4Enum@PxControllerCollisionFlag@physx@@E@physx@@QAE@E@Z 10014d70 f i CctCharacterController.obj
 0001:00013d90       ??0?$PxFlags@W4Enum@PxHitFlag@physx@@G@physx@@QAE@ABV01@@Z 10014d90 f i CctCharacterController.obj
 0001:00013dc0       ??0?$PxFlags@W4Enum@PxHitFlag@physx@@G@physx@@QAE@G@Z 10014dc0 f i CctCharacterController.obj
 0001:00013de0       ??0?$PxFlags@W4Enum@PxHitFlag@physx@@G@physx@@QAE@W4Enum@PxHitFlag@1@@Z 10014de0 f i CctCharacterController.obj
 0001:00013e00       ??0?$PxFlags@W4Enum@PxQueryFlag@physx@@G@physx@@QAE@ABV01@@Z 10014e00 f i CctCharacterController.obj
 0001:00013e30       ??0?$PxFlags@W4Enum@PxQueryFlag@physx@@G@physx@@QAE@W4Enum@PxQueryFlag@1@@Z 10014e30 f i CctCharacterController.obj
 0001:00013e50       ??0?$PxFlags@W4Enum@PxQueryFlag@physx@@G@physx@@QAE@XZ 10014e50 f i CctCharacterController.obj
 0001:00013e70       ??0?$PxFlags@W4Enum@PxRigidBodyFlag@physx@@E@physx@@QAE@ABV01@@Z 10014e70 f i CctCharacterController.obj
 0001:00013e90       ??0?$PxFlags@W4Enum@PxShapeFlag@physx@@E@physx@@QAE@ABV01@@Z 10014e90 f i CctCharacterController.obj
 0001:00013eb0       ??0?$PxHitBuffer@UPxRaycastHit@physx@@@physx@@QAE@PAUPxRaycastHit@1@I@Z 10014eb0 f i CctCharacterController.obj
 0001:00013ef0       ??0?$PxHitCallback@UPxRaycastHit@physx@@@physx@@QAE@PAUPxRaycastHit@1@I@Z 10014ef0 f i CctCharacterController.obj
 0001:00013f50       ??0?$TouchedObject@VPxRigidActor@physx@@@Cct@physx@@QAE@_N@Z 10014f50 f i CctCharacterController.obj
 0001:00013f90       ??0?$TouchedObject@VPxShape@physx@@@Cct@physx@@QAE@_N@Z 10014f90 f i CctCharacterController.obj
 0001:00013ff0       ??0CCTFilter@Cct@physx@@QAE@XZ 10014ff0 f i CctCharacterController.obj
 0001:00014050       ??0ControllerFilter@@QAE@XZ 10015050 f i CctCharacterController.obj
 0001:00014090       ??0DebugBox@Cm@physx@@QAE@ABVPxBounds3@2@_N@Z 10015090 f i CctCharacterController.obj
 0001:000140e0       ??0DebugBox@Cm@physx@@QAE@ABVPxVec3@2@_N@Z 100150e0 f i CctCharacterController.obj
 0001:00014130       ??0PxActorShape@physx@@QAE@XZ 10015130 f i CctCharacterController.obj
 0001:00014160       ??0PxBounds3@physx@@QAE@ABVPxVec3@1@0@Z 10015160 f i CctCharacterController.obj
 0001:000141a0       ??0PxBoxGeometry@physx@@QAE@VPxVec3@1@@Z 100151a0 f i CctCharacterController.obj
 0001:000141e0       ??0PxCapsuleGeometry@physx@@QAE@MM@Z 100151e0 f i CctCharacterController.obj
 0001:00014230       ??0PxExtendedBox@physx@@QAE@ABV01@@Z 10015230 f i CctCharacterController.obj
 0001:000142b0       ??0PxExtendedBox@physx@@QAE@XZ 100152b0 f i CctCharacterController.obj
 0001:000142f0       ??0PxExtendedCapsule@physx@@QAE@XZ 100152f0 f i CctCharacterController.obj
 0001:00014310       ??0PxExtendedSegment@physx@@QAE@XZ 10015310 f i CctCharacterController.obj
 0001:00014340       ??0PxFilterData@physx@@QAE@XZ 10015340 f i CctCharacterController.obj
 0001:00014390       ??0PxLocationHit@physx@@QAE@XZ 10015390 f i CctCharacterController.obj
 0001:00014410       ??0PxMat33@physx@@QAE@ABVPxQuat@1@@Z 10015410 f i CctCharacterController.obj
 0001:00014690       ??0PxMat33@physx@@QAE@W4PxIDENTITY@1@@Z 10015690 f i CctCharacterController.obj
 0001:00014750       ??0PxMat44@physx@@QAE@ABVPxMat33@1@ABVPxVec3@1@@Z 10015750 f i CctCharacterController.obj
 0001:000147f0       ??0PxMat44@physx@@QAE@ABVPxTransform@1@@Z 100157f0 f i CctCharacterController.obj
 0001:00014870       ??0PxProfileScoped@physx@@QAE@PBD_N_K@Z 10015870 f i CctCharacterController.obj
 0001:00014910       ??0PxQuat@physx@@QAE@ABV01@@Z 10015910 f i CctCharacterController.obj
 0001:00014960       ??0PxQuat@physx@@QAE@MMMM@Z 10015960 f i CctCharacterController.obj
 0001:000149c0       ??0PxQuat@physx@@QAE@W4PxIDENTITY@1@@Z 100159c0 f i CctCharacterController.obj
 0001:00014a20       ??0PxQuat@physx@@QAE@XZ    10015a20 f i CctCharacterController.obj
 0001:00014a40       ??0PxQueryFilterCallback@physx@@QAE@XZ 10015a40 f i CctCharacterController.obj
 0001:00014a60       ??0PxQueryFilterData@physx@@QAE@ABUPxFilterData@1@V?$PxFlags@W4Enum@PxQueryFlag@physx@@G@1@@Z 10015a60 f i CctCharacterController.obj
 0001:00014ac0       ??0PxQueryHit@physx@@QAE@XZ 10015ac0 f i CctCharacterController.obj
 0001:00014af0       ??0PxRaycastHit@physx@@QAE@XZ 10015af0 f i CctCharacterController.obj
 0001:00014b30       ??0PxSphereGeometry@physx@@QAE@XZ 10015b30 f i CctCharacterController.obj
 0001:00014b60       ??0PxSweepHit@physx@@QAE@XZ 10015b60 f i CctCharacterController.obj
 0001:00014b80       ??0PxTransform@physx@@QAE@ABVPxVec3@1@ABVPxQuat@1@@Z 10015b80 f i CctCharacterController.obj
 0001:00014c10       ??0PxTransform@physx@@QAE@XZ 10015c10 f i CctCharacterController.obj
 0001:00014c40       ??0PxVec3@physx@@QAE@M@Z   10015c40 f i CctCharacterController.obj
 0001:00014c90       ??0PxVec3@physx@@QAE@XZ    10015c90 f i CctCharacterController.obj
 0001:00014cb0       ??0PxVec4@physx@@QAE@ABVPxVec3@1@M@Z 10015cb0 f i CctCharacterController.obj
 0001:00014d00       ??0PxVec4@physx@@QAE@XZ    10015d00 f i CctCharacterController.obj
 0001:00014d20       ??0SIMDGuard@shdfnd@physx@@QAE@XZ 10015d20 f i CctCharacterController.obj
 0001:00014d50       ??0SweptContact@Cct@physx@@QAE@XZ 10015d50 f i CctCharacterController.obj
 0001:00014d80       ??0TriArray@Cct@physx@@QAE@XZ 10015d80 f i CctCharacterController.obj
 0001:00014dc0       ??1?$Array@IVNamedAllocator@shdfnd@physx@@@shdfnd@physx@@QAE@XZ 10015dc0 f i CctCharacterController.obj
 0001:00014e30       ??1?$Array@VPxTriangle@physx@@VNamedAllocator@shdfnd@2@@shdfnd@physx@@QAE@XZ 10015e30 f i CctCharacterController.obj
 0001:00014ea0       ??1?$PxHitBuffer@UPxRaycastHit@physx@@@physx@@UAE@XZ 10015ea0 f i CctCharacterController.obj
 0001:00014ed0       ??1?$PxHitCallback@UPxRaycastHit@physx@@@physx@@UAE@XZ 10015ed0 f i CctCharacterController.obj
 0001:00014ef0       ??1ControllerFilter@@UAE@XZ 10015ef0 f i CctCharacterController.obj
 0001:00014f10       ??1PxExtendedBox@physx@@QAE@XZ 10015f10 f i CctCharacterController.obj
 0001:00014f20       ??1PxProfileScoped@physx@@QAE@XZ 10015f20 f i CctCharacterController.obj
 0001:00014f80       ??1PxQueryFilterCallback@physx@@UAE@XZ 10015f80 f i CctCharacterController.obj
 0001:00014fa0       ??1PxTriangle@physx@@QAE@XZ 10015fa0 f i CctCharacterController.obj
 0001:00014fb0       ??1SIMDGuard@shdfnd@physx@@QAE@XZ 10015fb0 f i CctCharacterController.obj
 0001:00014fe0       ??1TriArray@Cct@physx@@QAE@XZ 10015fe0 f i CctCharacterController.obj
 0001:00015000       ??2@YAPAXIPAX@Z            10016000 f i CctCharacterController.obj
 0001:00015010       ??4?$PxFlags@W4Enum@PxControllerCollisionFlag@physx@@E@physx@@QAEAAV01@ABV01@@Z 10016010 f i CctCharacterController.obj
 0001:00015030       ??4?$PxFlags@W4Enum@PxHitFlag@physx@@G@physx@@QAEAAV01@ABV01@@Z 10016030 f i CctCharacterController.obj
 0001:00015060       ??4?$PxFlags@W4Enum@PxQueryFlag@physx@@G@physx@@QAEAAV01@ABV01@@Z 10016060 f i CctCharacterController.obj
 0001:00015090       ??4?$TouchedObject@VPxRigidActor@physx@@@Cct@physx@@QAEAAU012@PBVPxRigidActor@2@@Z 10016090 f i CctCharacterController.obj
 0001:00015110       ??4?$TouchedObject@VPxShape@physx@@@Cct@physx@@QAEAAU012@PBVPxShape@2@@Z 10016110 f i CctCharacterController.obj
 0001:00015190       ??4CCTParams@Cct@physx@@QAEAAU012@ABU012@@Z 10016190 f i CctCharacterController.obj
 0001:00015290       ??4FPUGuard@shdfnd@physx@@QAEAAV012@ABV012@@Z 10016290 f i CctCharacterController.obj
 0001:000152c0       ??4PxExtendedBox@physx@@QAEAAV01@ABV01@@Z 100162c0 f i CctCharacterController.obj
 0001:00015340       ??4PxLocationHit@physx@@QAEAAU01@ABU01@@Z 10016340 f i CctCharacterController.obj
 0001:000153d0       ??4PxMat44@physx@@QAEAAV01@ABV01@@Z 100163d0 f i CctCharacterController.obj
 0001:00015440       ??4PxRaycastHit@physx@@QAEAAU01@ABU01@@Z 10016440 f i CctCharacterController.obj
 0001:000154c0       ??4PxTransform@physx@@QAEAAV01@$$QAV01@@Z 100164c0 f i CctCharacterController.obj
 0001:00015500       ??4PxVec4@physx@@QAEAAV01@ABV01@@Z 10016500 f i CctCharacterController.obj
 0001:00015550       ??4SweptContact@Cct@physx@@QAEAAU012@ABU012@@Z 10016550 f i CctCharacterController.obj
 0001:000155f0       ??8?$TouchedObject@VPxRigidActor@physx@@@Cct@physx@@QAE_NPBVPxBase@2@@Z 100165f0 f i CctCharacterController.obj
 0001:00015630       ??8?$TouchedObject@VPxShape@physx@@@Cct@physx@@QAE_NPBVPxBase@2@@Z 10016630 f i CctCharacterController.obj
 0001:00015670       ??8?$TouchedObject@VPxShape@physx@@@Cct@physx@@QAE_NPBVPxShape@2@@Z 10016670 f i CctCharacterController.obj
 0001:000156b0       ??A?$Array@IVNamedAllocator@shdfnd@physx@@@shdfnd@physx@@QAEAAII@Z 100166b0 f i CctCharacterController.obj
 0001:00015720       ??A?$Array@IVNamedAllocator@shdfnd@physx@@@shdfnd@physx@@QBEABII@Z 10016720 f i CctCharacterController.obj
 0001:00015790       ??A?$Array@UInternalBoxObstacle@ObstacleContext@Cct@physx@@VNamedAllocator@shdfnd@4@@shdfnd@physx@@QBEABUInternalBoxObstacle@ObstacleContext@Cct@2@I@Z 10016790 f i CctCharacterController.obj
 0001:00015800       ??A?$Array@UInternalCapsuleObstacle@ObstacleContext@Cct@physx@@VNamedAllocator@shdfnd@4@@shdfnd@physx@@QBEABUInternalCapsuleObstacle@ObstacleContext@Cct@2@I@Z 10016800 f i CctCharacterController.obj
 0001:00015870       ??A?$Array@VPxTriangle@physx@@VNamedAllocator@shdfnd@2@@shdfnd@physx@@QBEABVPxTriangle@2@I@Z 10016870 f i CctCharacterController.obj
 0001:000158e0       ??B?$PxFlags@W4Enum@PxControllerBehaviorFlag@physx@@E@physx@@QBEIXZ 100168e0 f i CctCharacterController.obj
 0001:00015900       ??B?$PxFlags@W4Enum@PxControllerDebugRenderFlag@physx@@I@physx@@QBEIXZ 10016900 f i CctCharacterController.obj
 0001:00015920       ??B?$PxFlags@W4Enum@PxQueryFlag@physx@@G@physx@@QBE_NXZ 10016920 f i CctCharacterController.obj
 0001:00015950       ??B?$PxFlags@W4Enum@PxRigidBodyFlag@physx@@E@physx@@QBE_NXZ 10016950 f i CctCharacterController.obj
 0001:00015980       ??B?$PxFlags@W4Enum@PxShapeFlag@physx@@E@physx@@QBE_NXZ 10016980 f i CctCharacterController.obj
 0001:000159b0       ??B?$TouchedObject@VPxRigidActor@physx@@@Cct@physx@@QBE_NXZ 100169b0 f i CctCharacterController.obj
 0001:000159f0       ??B?$TouchedObject@VPxShape@physx@@@Cct@physx@@QBE_NXZ 100169f0 f i CctCharacterController.obj
 0001:00015a30       ??C?$TouchedObject@VPxRigidActor@physx@@@Cct@physx@@QBEPBVPxRigidActor@2@XZ 10016a30 f i CctCharacterController.obj
 0001:00015a50       ??C?$TouchedObject@VPxShape@physx@@@Cct@physx@@QBEPBVPxShape@2@XZ 10016a50 f i CctCharacterController.obj
 0001:00015a70       ??DPxQuat@physx@@QBE?AV01@ABV01@@Z 10016a70 f i CctCharacterController.obj
 0001:00015c20       ??DPxTransform@physx@@QBE?AV01@ABV01@@Z 10016c20 f i CctCharacterController.obj
 0001:00015ca0       ??GPxVec3@physx@@QBE?AV01@ABV01@@Z 10016ca0 f i CctCharacterController.obj
 0001:00015d10       ??GPxVec3@physx@@QBE?AV01@XZ 10016d10 f i CctCharacterController.obj
 0001:00015d80       ??HPxVec3@physx@@QBE?AV01@ABV01@@Z 10016d80 f i CctCharacterController.obj
 0001:00015df0       ??I?$PxFlags@W4Enum@PxQueryFlag@physx@@G@physx@@QBE?AV01@W4Enum@PxQueryFlag@1@@Z 10016df0 f i CctCharacterController.obj
 0001:00015e40       ??I?$PxFlags@W4Enum@PxRigidBodyFlag@physx@@E@physx@@QBE?AV01@W4Enum@PxRigidBodyFlag@1@@Z 10016e40 f i CctCharacterController.obj
 0001:00015e90       ??I?$PxFlags@W4Enum@PxShapeFlag@physx@@E@physx@@QBE?AV01@W4Enum@PxShapeFlag@1@@Z 10016e90 f i CctCharacterController.obj
 0001:00015ee0       ??R?$Hash@PAVPxShape@physx@@@shdfnd@physx@@QBEIABQAVPxShape@2@@Z 10016ee0 f i CctCharacterController.obj
 0001:00015f10       ??RGetKey@?$HashSetBase@PAVPxShape@physx@@U?$Hash@PAVPxShape@physx@@@shdfnd@2@VNonTrackingAllocator@42@$0A@@internal@shdfnd@physx@@QAEABQAVPxShape@4@ABQAV54@@Z 10016f10 f i CctCharacterController.obj
 0001:00015f30       ??U?$PxFlags@W4Enum@PxQueryFlag@physx@@G@physx@@QBE?AV01@W4Enum@PxQueryFlag@1@@Z 10016f30 f i CctCharacterController.obj
 0001:00015f80       ??Uphysx@@YA?AV?$PxFlags@W4Enum@PxQueryFlag@physx@@G@0@W4Enum@PxQueryFlag@0@0@Z 10016f80 f i CctCharacterController.obj
 0001:00015fc0       ??YPxVec3@physx@@QAEAAV01@ABV01@@Z 10016fc0 f i CctCharacterController.obj
 0001:00016030       ??ZPxVec3@physx@@QAEAAV01@ABV01@@Z 10017030 f i CctCharacterController.obj
 0001:000160a0       ??_0PxVec3@physx@@QAEAAV01@M@Z 100170a0 f i CctCharacterController.obj
 0001:00016120       ??_5?$PxFlags@W4Enum@PxControllerCollisionFlag@physx@@E@physx@@QAEAAV01@W4Enum@PxControllerCollisionFlag@1@@Z 10017120 f i CctCharacterController.obj
 0001:00016150       ??_5?$PxFlags@W4Enum@PxHitFlag@physx@@G@physx@@QAEAAV01@W4Enum@PxHitFlag@1@@Z 10017150 f i CctCharacterController.obj
 0001:00016180       ??_5?$PxFlags@W4Enum@PxQueryFlag@physx@@G@physx@@QAEAAV01@W4Enum@PxQueryFlag@1@@Z 10017180 f i CctCharacterController.obj
 0001:000161b0       ??_G?$PxHitBuffer@UPxRaycastHit@physx@@@physx@@UAEPAXI@Z 100171b0 f i CctCharacterController.obj
 0001:000161b0       ??_E?$PxHitBuffer@UPxRaycastHit@physx@@@physx@@UAEPAXI@Z 100171b0 f i CctCharacterController.obj
 0001:000161f0       ??_G?$PxHitCallback@UPxRaycastHit@physx@@@physx@@UAEPAXI@Z 100171f0 f i CctCharacterController.obj
 0001:000161f0       ??_E?$PxHitCallback@UPxRaycastHit@physx@@@physx@@UAEPAXI@Z 100171f0 f i CctCharacterController.obj
 0001:00016230       ??_GControllerFilter@@UAEPAXI@Z 10017230 f i CctCharacterController.obj
 0001:00016230       ??_EControllerFilter@@UAEPAXI@Z 10017230 f i CctCharacterController.obj
 0001:00016270       ??_GPxExtendedBox@physx@@QAEPAXI@Z 10017270 f i CctCharacterController.obj
 0001:000162b0       ??_GPxQueryFilterCallback@physx@@UAEPAXI@Z 100172b0 f i CctCharacterController.obj
 0001:000162b0       ??_EPxQueryFilterCallback@physx@@UAEPAXI@Z 100172b0 f i CctCharacterController.obj
 0001:000162f0       ??_GPxTriangle@physx@@QAEPAXI@Z 100172f0 f i CctCharacterController.obj
 0001:00016330       ?PxAbs@physx@@YAMM@Z       10017330 f i CctCharacterController.obj
 0001:00016350       ?PxIsFinite@physx@@YA_NM@Z 10017350 f i CctCharacterController.obj
 0001:00016370       ?PxRecipSqrt@physx@@YAMM@Z 10017370 f i CctCharacterController.obj
 0001:00016390       ?PxSqrt@physx@@YAMM@Z      10017390 f i CctCharacterController.obj
 0001:000163b0       ?abs@intrinsics@physx@@YAMM@Z 100173b0 f i CctCharacterController.obj
 0001:000163d0       ?add@physx@@YAXAAUPxExtendedBounds3@1@ABU21@@Z 100173d0 f i CctCharacterController.obj
 0001:00016400       ?allocate@?$Array@IVNamedAllocator@shdfnd@physx@@@shdfnd@physx@@IAEPAII@Z 10017400 f i CctCharacterController.obj
 0001:00016480       ?allocate@?$Array@PBXVNamedAllocator@shdfnd@physx@@@shdfnd@physx@@IAEPAPBXI@Z 10017480 f i CctCharacterController.obj
 0001:00016500       ?allocate@?$Array@UPxExtendedCapsule@physx@@VNamedAllocator@shdfnd@2@@shdfnd@physx@@IAEPAUPxExtendedCapsule@3@I@Z 10017500 f i CctCharacterController.obj
 0001:00016580       ?allocate@?$Array@VPxExtendedBox@physx@@VNamedAllocator@shdfnd@2@@shdfnd@physx@@IAEPAVPxExtendedBox@3@I@Z 10017580 f i CctCharacterController.obj
 0001:00016600       ?any@PxGeometryHolder@physx@@QBEABVPxGeometry@2@XZ 10017600 f i CctCharacterController.obj
 0001:00016620       ?begin@?$Array@IVNamedAllocator@shdfnd@physx@@@shdfnd@physx@@QAEPAIXZ 10017620 f i CctCharacterController.obj
 0001:00016640       ?begin@?$Array@IVNamedAllocator@shdfnd@physx@@@shdfnd@physx@@QBEPBIXZ 10017640 f i CctCharacterController.obj
 0001:00016660       ?begin@?$Array@PBXVNamedAllocator@shdfnd@physx@@@shdfnd@physx@@QAEPAPBXXZ 10017660 f i CctCharacterController.obj
 0001:00016680       ?begin@?$Array@UPxExtendedCapsule@physx@@VNamedAllocator@shdfnd@2@@shdfnd@physx@@QAEPAUPxExtendedCapsule@3@XZ 10017680 f i CctCharacterController.obj
 0001:000166a0       ?begin@?$Array@VPxExtendedBox@physx@@VNamedAllocator@shdfnd@2@@shdfnd@physx@@QAEPAVPxExtendedBox@3@XZ 100176a0 f i CctCharacterController.obj
 0001:000166c0       ?capacity@?$Array@IVNamedAllocator@shdfnd@physx@@@shdfnd@physx@@QBEIXZ 100176c0 f i CctCharacterController.obj
 0001:000166e0       ?capacity@?$Array@PBXVNamedAllocator@shdfnd@physx@@@shdfnd@physx@@QBEIXZ 100176e0 f i CctCharacterController.obj
 0001:00016700       ?capacity@?$Array@UPxExtendedCapsule@physx@@VNamedAllocator@shdfnd@2@@shdfnd@physx@@QBEIXZ 10017700 f i CctCharacterController.obj
 0001:00016720       ?capacity@?$Array@VPxExtendedBox@physx@@VNamedAllocator@shdfnd@2@@shdfnd@physx@@QBEIXZ 10017720 f i CctCharacterController.obj
 0001:00016740       ?capacity@?$Array@VPxTriangle@physx@@VNamedAllocator@shdfnd@2@@shdfnd@physx@@QBEIXZ 10017740 f i CctCharacterController.obj
 0001:00016760       ?capacityIncrement@?$Array@PBXVNamedAllocator@shdfnd@physx@@@shdfnd@physx@@IBEIXZ 10017760 f i CctCharacterController.obj
 0001:000167a0       ?capacityIncrement@?$Array@UPxExtendedCapsule@physx@@VNamedAllocator@shdfnd@2@@shdfnd@physx@@IBEIXZ 100177a0 f i CctCharacterController.obj
 0001:000167e0       ?capacityIncrement@?$Array@VPxExtendedBox@physx@@VNamedAllocator@shdfnd@2@@shdfnd@physx@@IBEIXZ 100177e0 f i CctCharacterController.obj
 0001:00016820       ?clear@?$Array@IVNamedAllocator@shdfnd@physx@@@shdfnd@physx@@QAEXXZ 10017820 f i CctCharacterController.obj
 0001:00016860       ?clear@?$Array@VPxTriangle@physx@@VNamedAllocator@shdfnd@2@@shdfnd@physx@@QAEXXZ 10017860 f i CctCharacterController.obj
 0001:000168a0       ?clear@TriArray@Cct@physx@@QAEXXZ 100178a0 f i CctCharacterController.obj
 0001:000168c0       ?computeTimeCoeff@Controller@Cct@physx@@IAEMXZ 100178c0 f i CctCharacterController.obj
 0001:00016930       ?contains@?$HashSetBase@PAVPxShape@physx@@U?$Hash@PAVPxShape@physx@@@shdfnd@2@VNonTrackingAllocator@42@$0A@@internal@shdfnd@physx@@QBE_NABQAVPxShape@4@@Z 10017930 f i CctCharacterController.obj
 0001:00016970       ?copy@?$Array@IVNamedAllocator@shdfnd@physx@@@shdfnd@physx@@KAXPAI0PBI@Z 10017970 f i CctCharacterController.obj
 0001:00016a20       ?copy@?$Array@PBXVNamedAllocator@shdfnd@physx@@@shdfnd@physx@@KAXPAPBX0PBQBX@Z 10017a20 f i CctCharacterController.obj
 0001:00016ad0       ?copy@?$Array@UPxExtendedCapsule@physx@@VNamedAllocator@shdfnd@2@@shdfnd@physx@@KAXPAUPxExtendedCapsule@3@0PBU43@@Z 10017ad0 f i CctCharacterController.obj
 0001:00016ba0       ?copy@?$Array@VPxExtendedBox@physx@@VNamedAllocator@shdfnd@2@@shdfnd@physx@@KAXPAVPxExtendedBox@3@0PBV43@@Z 10017ba0 f i CctCharacterController.obj
 0001:00016c60       ?cross@PxVec3@physx@@QBE?AV12@ABV12@@Z 10017c60 f i CctCharacterController.obj
 0001:00016d20       ?deallocate@?$Array@IVNamedAllocator@shdfnd@physx@@@shdfnd@physx@@IAEXPAX@Z 10017d20 f i CctCharacterController.obj
 0001:00016d40       ?deallocate@?$Array@PBXVNamedAllocator@shdfnd@physx@@@shdfnd@physx@@IAEXPAX@Z 10017d40 f i CctCharacterController.obj
 0001:00016d60       ?deallocate@?$Array@UPxExtendedCapsule@physx@@VNamedAllocator@shdfnd@2@@shdfnd@physx@@IAEXPAX@Z 10017d60 f i CctCharacterController.obj
 0001:00016d80       ?deallocate@?$Array@VPxExtendedBox@physx@@VNamedAllocator@shdfnd@2@@shdfnd@physx@@IAEXPAX@Z 10017d80 f i CctCharacterController.obj
 0001:00016da0       ?deallocate@?$Array@VPxTriangle@physx@@VNamedAllocator@shdfnd@2@@shdfnd@physx@@IAEXPAX@Z 10017da0 f i CctCharacterController.obj
 0001:00016dc0       ?decomposeVector@shdfnd@physx@@YAXAAVPxVec3@2@0ABV32@1@Z 10017dc0 f i CctCharacterController.obj
 0001:00016e30       ?destroy@?$Array@IVNamedAllocator@shdfnd@physx@@@shdfnd@physx@@KAXPAI0@Z 10017e30 f i CctCharacterController.obj
 0001:00016e60       ?destroy@?$Array@PBXVNamedAllocator@shdfnd@physx@@@shdfnd@physx@@KAXPAPBX0@Z 10017e60 f i CctCharacterController.obj
 0001:00016e90       ?destroy@?$Array@UPxExtendedCapsule@physx@@VNamedAllocator@shdfnd@2@@shdfnd@physx@@KAXPAUPxExtendedCapsule@3@0@Z 10017e90 f i CctCharacterController.obj
 0001:00016ec0       ?destroy@?$Array@VPxExtendedBox@physx@@VNamedAllocator@shdfnd@2@@shdfnd@physx@@KAXPAVPxExtendedBox@3@0@Z 10017ec0 f i CctCharacterController.obj
 0001:00016f00       ?destroy@?$Array@VPxTriangle@physx@@VNamedAllocator@shdfnd@2@@shdfnd@physx@@KAXPAVPxTriangle@3@0@Z 10017f00 f i CctCharacterController.obj
 0001:00016f40       ?dot@PxExtendedVec3@physx@@QBENABVPxVec3@2@@Z 10017f40 f i CctCharacterController.obj
 0001:00016fa0       ?dot@PxVec3@physx@@QBEMABV12@@Z 10017fa0 f i CctCharacterController.obj
 0001:00017000       ?encodeUserObject@Cct@physx@@YAIIW4UserObjectType@12@@Z 10018000 f i CctCharacterController.obj
 0001:000170b0       ?end@?$Array@IVNamedAllocator@shdfnd@physx@@@shdfnd@physx@@QAEPAIXZ 100180b0 f i CctCharacterController.obj
 0001:000170d0       ?end@?$Array@IVNamedAllocator@shdfnd@physx@@@shdfnd@physx@@QBEPBIXZ 100180d0 f i CctCharacterController.obj
 0001:000170f0       ?equal@?$Hash@PAVPxShape@physx@@@shdfnd@physx@@QBE_NABQAVPxShape@3@0@Z 100180f0 f i CctCharacterController.obj
 0001:00017130       ?finalizeQuery@?$PxHitCallback@UPxRaycastHit@physx@@@physx@@UAEXXZ 10018130 f i CctCharacterController.obj
 0001:00017140       ?find@?$HashBase@PAVPxShape@physx@@PAV12@U?$Hash@PAVPxShape@physx@@@shdfnd@2@UGetKey@?$HashSetBase@PAVPxShape@physx@@U?$Hash@PAVPxShape@physx@@@shdfnd@2@VNonTrackingAllocator@42@$0A@@internal@42@VNonTrackingAllocator@42@$0A@@internal@shdfnd@physx@@QBEPBQAVPxShape@4@ABQAV54@@Z 10018140 f i CctCharacterController.obj
 0001:00017210       ?forceSize_Unsafe@?$Array@IVNamedAllocator@shdfnd@physx@@@shdfnd@physx@@QAEXI@Z 10018210 f i CctCharacterController.obj
 0001:00017280       ?forceSize_Unsafe@?$Array@VPxTriangle@physx@@VNamedAllocator@shdfnd@2@@shdfnd@physx@@QAEXI@Z 10018280 f i CctCharacterController.obj
 0001:000172f0       ?forceSize_Unsafe@TriArray@Cct@physx@@QAEXI@Z 100182f0 f i CctCharacterController.obj
 0001:00017310       ?get@?$TouchedObject@VPxRigidActor@physx@@@Cct@physx@@QBEPBVPxRigidActor@3@XZ 10018310 f i CctCharacterController.obj
 0001:00017330       ?get@?$TouchedObject@VPxShape@physx@@@Cct@physx@@QBEPBVPxShape@3@XZ 10018330 f i CctCharacterController.obj
 0001:00017350       ?getAnyHit@?$PxHitBuffer@UPxRaycastHit@physx@@@physx@@QBEABUPxRaycastHit@2@I@Z 10018350 f i CctCharacterController.obj
 0001:00017400       ?getBasisVector0@PxQuat@physx@@QBE?AVPxVec3@2@XZ 10018400 f i CctCharacterController.obj
 0001:000174f0       ?getCenter@PxBounds3@physx@@QBE?AVPxVec3@2@XZ 100184f0 f i CctCharacterController.obj
 0001:000175a0       ?getConcreteType@PxBase@physx@@QBEGXZ 100185a0 f i CctCharacterController.obj
 0001:000175c0       ?getContextId@Controller@Cct@physx@@QBE_KXZ 100185c0 f i CctCharacterController.obj
 0001:000175e0       ?getDimensions@PxBounds3@physx@@QBE?AVPxVec3@2@XZ 100185e0 f i CctCharacterController.obj
 0001:00017670       ?getExtents@PxBounds3@physx@@QBE?AVPxVec3@2@XZ 10018670 f i CctCharacterController.obj
 0001:00017710       ?getGlobalPose@PxShapeExt@physx@@SA?AVPxTransform@2@ABVPxShape@2@ABVPxRigidActor@2@@Z 10018710 f i CctCharacterController.obj
 0001:00017760       ?getNbTouches@?$PxHitBuffer@UPxRaycastHit@physx@@@physx@@QBEIXZ 10018760 f i CctCharacterController.obj
 0001:00017780       ?getNormalized@PxVec3@physx@@QBE?AV12@XZ 10018780 f i CctCharacterController.obj
 0001:00017830       ?getShapeGlobalPose@physx@@YA?AVPxTransform@1@ABVPxShape@1@ABVPxRigidActor@1@@Z 10018830 f i CctCharacterController.obj
 0001:00017860       ?getTouches@?$PxHitBuffer@UPxRaycastHit@physx@@@physx@@QBEPBUPxRaycastHit@2@XZ 10018860 f i CctCharacterController.obj
 0001:00017880       ?getTriangle@TriArray@Cct@physx@@QBEABVPxTriangle@3@I@Z 10018880 f i CctCharacterController.obj
 0001:000178a0       ?getType@SweptVolume@Cct@physx@@QBE?AW4Enum@SweptVolumeType@23@XZ 100188a0 f i CctCharacterController.obj
 0001:000178c0       ?grow@?$Array@IVNamedAllocator@shdfnd@physx@@@shdfnd@physx@@IAEXI@Z 100188c0 f i CctCharacterController.obj
 0001:00017940       ?growAndPushBack@?$Array@PBXVNamedAllocator@shdfnd@physx@@@shdfnd@physx@@IAEAAPBXABQBX@Z 10018940 f i CctCharacterController.obj
 0001:00017ad0       ?growAndPushBack@?$Array@UPxExtendedCapsule@physx@@VNamedAllocator@shdfnd@2@@shdfnd@physx@@IAEAAUPxExtendedCapsule@3@ABU43@@Z 10018ad0 f i CctCharacterController.obj
 0001:00017c60       ?growAndPushBack@?$Array@VPxExtendedBox@physx@@VNamedAllocator@shdfnd@2@@shdfnd@physx@@IAEAAVPxExtendedBox@3@ABV43@@Z 10018c60 f i CctCharacterController.obj
 0001:00017de0       ?hash@?$HashBase@PAVPxShape@physx@@PAV12@U?$Hash@PAVPxShape@physx@@@shdfnd@2@UGetKey@?$HashSetBase@PAVPxShape@physx@@U?$Hash@PAVPxShape@physx@@@shdfnd@2@VNonTrackingAllocator@42@$0A@@internal@42@VNonTrackingAllocator@42@$0A@@internal@shdfnd@physx@@ABEIABQAVPxShape@4@@Z 10018de0 f i CctCharacterController.obj
 0001:00017e10       ?hash@?$HashBase@PAVPxShape@physx@@PAV12@U?$Hash@PAVPxShape@physx@@@shdfnd@2@UGetKey@?$HashSetBase@PAVPxShape@physx@@U?$Hash@PAVPxShape@physx@@@shdfnd@2@VNonTrackingAllocator@42@$0A@@internal@42@VNonTrackingAllocator@42@$0A@@internal@shdfnd@physx@@ABEIABQAVPxShape@4@I@Z 10018e10 f i CctCharacterController.obj
 0001:00017e40       ?hash@shdfnd@physx@@YAII@Z 10018e40 f i CctCharacterController.obj
 0001:00017ec0       ?hash@shdfnd@physx@@YAIPBX@Z 10018ec0 f i CctCharacterController.obj
 0001:00017ee0       ?intersectOBBAABB@Gu@physx@@YA_NABVBox@12@ABVPxBounds3@2@@Z 10018ee0 f i CctCharacterController.obj
 0001:00017f50       ?isAlmostZero@shdfnd@physx@@YA_NABVPxVec3@2@@Z 10018f50 f i CctCharacterController.obj
 0001:00018000       ?isArrayOfPOD@?$Array@IVNamedAllocator@shdfnd@physx@@@shdfnd@physx@@SA_NXZ 10019000 f i CctCharacterController.obj
 0001:00018010       ?isArrayOfPOD@?$Array@PBXVNamedAllocator@shdfnd@physx@@@shdfnd@physx@@SA_NXZ 10019010 f i CctCharacterController.obj
 0001:00018020       ?isArrayOfPOD@?$Array@UPxExtendedCapsule@physx@@VNamedAllocator@shdfnd@2@@shdfnd@physx@@SA_NXZ 10019020 f i CctCharacterController.obj
 0001:00018030       ?isArrayOfPOD@?$Array@VPxExtendedBox@physx@@VNamedAllocator@shdfnd@2@@shdfnd@physx@@SA_NXZ 10019030 f i CctCharacterController.obj
 0001:00018040       ?isArrayOfPOD@?$Array@VPxTriangle@physx@@VNamedAllocator@shdfnd@2@@shdfnd@physx@@SA_NXZ 10019040 f i CctCharacterController.obj
 0001:00018050       ?isFinite@PxBounds3@physx@@QBE_NXZ 10019050 f i CctCharacterController.obj
 0001:000180b0       ?isFinite@PxQuat@physx@@QBE_NXZ 100190b0 f i CctCharacterController.obj
 0001:00018170       ?isFinite@PxTransform@physx@@QBE_NXZ 10019170 f i CctCharacterController.obj
 0001:000181d0       ?isFinite@PxVec3@physx@@QBE_NXZ 100191d0 f i CctCharacterController.obj
 0001:00018270       ?isFinite@intrinsics@physx@@YA_NM@Z 10019270 f i CctCharacterController.obj
 0001:000182c0       ?isInUserMemory@?$Array@IVNamedAllocator@shdfnd@physx@@@shdfnd@physx@@QBEIXZ 100192c0 f i CctCharacterController.obj
 0001:000182e0       ?isInUserMemory@?$Array@PBXVNamedAllocator@shdfnd@physx@@@shdfnd@physx@@QBEIXZ 100192e0 f i CctCharacterController.obj
 0001:00018300       ?isInUserMemory@?$Array@UPxExtendedCapsule@physx@@VNamedAllocator@shdfnd@2@@shdfnd@physx@@QBEIXZ 10019300 f i CctCharacterController.obj
 0001:00018320       ?isInUserMemory@?$Array@VPxExtendedBox@physx@@VNamedAllocator@shdfnd@2@@shdfnd@physx@@QBEIXZ 10019320 f i CctCharacterController.obj
 0001:00018340       ?isInUserMemory@?$Array@VPxTriangle@physx@@VNamedAllocator@shdfnd@2@@shdfnd@physx@@QBEIXZ 10019340 f i CctCharacterController.obj
 0001:00018360       ?isInside@PxExtendedBounds3@physx@@QBE_NABU12@@Z 10019360 f i CctCharacterController.obj
 0001:00018420       ?isSane@PxQuat@physx@@QBE_NXZ 10019420 f i CctCharacterController.obj
 0001:000184b0       ?isSane@PxTransform@physx@@QBE_NXZ 100194b0 f i CctCharacterController.obj
 0001:00018500       ?isValid@PxBounds3@physx@@QBE_NXZ 10019500 f i CctCharacterController.obj
 0001:00018620       ?isZero@PxVec3@physx@@QBE_NXZ 10019620 f i CctCharacterController.obj
 0001:000186a0       ?magnitude@PxQuat@physx@@QBEMXZ 100196a0 f i CctCharacterController.obj
 0001:000186d0       ?magnitude@PxVec3@physx@@QBEMXZ 100196d0 f i CctCharacterController.obj
 0001:00018700       ?magnitudeSquared@PxQuat@physx@@QBEMXZ 10019700 f i CctCharacterController.obj
 0001:00018780       ?magnitudeSquared@PxVec3@physx@@QBEMXZ 10019780 f i CctCharacterController.obj
 0001:000187e0       ?maximum@PxExtendedVec3@physx@@QAEXABU12@@Z 100197e0 f i CctCharacterController.obj
 0001:00018870       ?memCopy@intrinsics@physx@@YAPAXPIAXPIBXI@Z 10019870 f i CctCharacterController.obj
 0001:00018890       ?minimum@PxExtendedVec3@physx@@QAEXABU12@@Z 10019890 f i CctCharacterController.obj
 0001:00018920       ?normal@PxTriangle@physx@@QBEXAAVPxVec3@2@@Z 10019920 f i CctCharacterController.obj
 0001:000189b0       ?normalize@PxVec3@physx@@QAEMXZ 100199b0 f i CctCharacterController.obj
 0001:00018a00       ?postFilter@ControllerFilter@@UAE?AW4Enum@PxQueryHitType@physx@@ABUPxFilterData@4@ABUPxQueryHit@4@@Z 10019a00 f i CctCharacterController.obj
 0001:00018ac0       ?preFilter@ControllerFilter@@UAE?AW4Enum@PxQueryHitType@physx@@ABUPxFilterData@4@PBVPxShape@4@PBVPxRigidActor@4@AAV?$PxFlags@W4Enum@PxHitFlag@physx@@G@4@@Z 10019ac0 f i CctCharacterController.obj
 0001:00018ba0       ?processTouches@?$PxHitBuffer@UPxRaycastHit@physx@@@physx@@MAE_NPBUPxRaycastHit@2@I@Z 10019ba0 f i CctCharacterController.obj
 0001:00018bd0       ?pushBack@?$Array@PBXVNamedAllocator@shdfnd@physx@@@shdfnd@physx@@QAEAAPBXABQBX@Z 10019bd0 f i CctCharacterController.obj
 0001:00018c80       ?pushBack@?$Array@UPxExtendedCapsule@physx@@VNamedAllocator@shdfnd@2@@shdfnd@physx@@QAEAAUPxExtendedCapsule@3@ABU43@@Z 10019c80 f i CctCharacterController.obj
 0001:00018d40       ?pushBack@?$Array@VPxExtendedBox@physx@@VNamedAllocator@shdfnd@2@@shdfnd@physx@@QAEAAVPxExtendedBox@3@ABV43@@Z 10019d40 f i CctCharacterController.obj
 0001:00018df0       ?recipSqrt@intrinsics@physx@@YAMM@Z 10019df0 f i CctCharacterController.obj
 0001:00018e40       ?recreate@?$Array@IVNamedAllocator@shdfnd@physx@@@shdfnd@physx@@IAEXI@Z 10019e40 f i CctCharacterController.obj
 0001:00018f50       ?reserve@?$Array@IVNamedAllocator@shdfnd@physx@@@shdfnd@physx@@QAEXI@Z 10019f50 f i CctCharacterController.obj
 0001:00018f80       ?resetStats@SweepTest@Cct@physx@@QAEXXZ 10019f80 f i CctCharacterController.obj
 0001:00018fd0       ?rotate@PxQuat@physx@@QBE?BVPxVec3@2@ABV32@@Z 10019fd0 f i CctCharacterController.obj
 0001:000191c0       ?rotateInv@PxQuat@physx@@QBE?BVPxVec3@2@ABV32@@Z 1001a1c0 f i CctCharacterController.obj
 0001:000193b0       ?selectMax@intrinsics@physx@@YAMMM@Z 1001a3b0 f i CctCharacterController.obj
 0001:000193f0       ?selectMin@intrinsics@physx@@YAMMM@Z 1001a3f0 f i CctCharacterController.obj
 0001:00019430       ?set@PxExtendedBounds3@physx@@QAEXNNNNNN@Z 1001a430 f i CctCharacterController.obj
 0001:000194c0       ?set@PxExtendedVec3@physx@@QAEXNNN@Z 1001a4c0 f i CctCharacterController.obj
 0001:00019500       ?setEmpty@PxExtendedBounds3@physx@@QAEXXZ 1001a500 f i CctCharacterController.obj
 0001:00019590       ?setWorldPos@SweptContact@Cct@physx@@QAEXABVPxVec3@3@ABUPxExtendedVec3@3@@Z 1001a590 f i CctCharacterController.obj
 0001:00019600       ?size@?$Array@IVNamedAllocator@shdfnd@physx@@@shdfnd@physx@@QBEIXZ 1001a600 f i CctCharacterController.obj
 0001:00019620       ?size@?$Array@PBXVNamedAllocator@shdfnd@physx@@@shdfnd@physx@@QBEIXZ 1001a620 f i CctCharacterController.obj
 0001:00019640       ?size@?$Array@UInternalBoxObstacle@ObstacleContext@Cct@physx@@VNamedAllocator@shdfnd@4@@shdfnd@physx@@QBEIXZ 1001a640 f i CctCharacterController.obj
 0001:00019660       ?size@?$Array@UInternalCapsuleObstacle@ObstacleContext@Cct@physx@@VNamedAllocator@shdfnd@4@@shdfnd@physx@@QBEIXZ 1001a660 f i CctCharacterController.obj
 0001:00019680       ?size@?$Array@UPxExtendedCapsule@physx@@VNamedAllocator@shdfnd@2@@shdfnd@physx@@QBEIXZ 1001a680 f i CctCharacterController.obj
 0001:000196a0       ?size@?$Array@VPxExtendedBox@physx@@VNamedAllocator@shdfnd@2@@shdfnd@physx@@QBEIXZ 1001a6a0 f i CctCharacterController.obj
 0001:000196c0       ?size@?$Array@VPxTriangle@physx@@VNamedAllocator@shdfnd@2@@shdfnd@physx@@QBEIXZ 1001a6c0 f i CctCharacterController.obj
 0001:000196e0       ?size@TriArray@Cct@physx@@QBEIXZ 1001a6e0 f i CctCharacterController.obj
 0001:00019700       ?sqrt@intrinsics@physx@@YAMM@Z 1001a700 f i CctCharacterController.obj
 0001:00019720       ?testSlope@physx@@YA_NABVPxVec3@1@0M@Z 1001a720 f i CctCharacterController.obj
 0001:00019780       ?toVec3@physx@@YA?AVPxVec3@1@ABUPxExtendedVec3@1@@Z 1001a780 f i CctCharacterController.obj
 0001:000197d0       ?transform@PxTransform@physx@@QBE?AV12@ABV12@@Z 1001a7d0 f i CctCharacterController.obj
 0001:000198e0       ?transform@PxTransform@physx@@QBE?AVPxVec3@2@ABV32@@Z 1001a8e0 f i CctCharacterController.obj
 0001:00019980       ?transformInv@PxTransform@physx@@QBE?AVPxVec3@2@ABV32@@Z 1001a980 f i CctCharacterController.obj
 0001:00019a10       _fabsf                     1001aa10 f i CctCharacterController.obj
 0001:00019a40       _sqrtf                     1001aa40 f i CctCharacterController.obj
 0001:00019ac0       ?getSceneTimestamp@Cct@physx@@YAIPBUInternalCBData_FindTouchedGeom@12@@Z 1001aac0 f   CctCharacterControllerCallbacks.obj
 0001:00019b30       ?findTouchedGeometry@Cct@physx@@YAXPBUInternalCBData_FindTouchedGeom@12@ABUPxExtendedBounds3@2@AAVTriArray@12@AAV?$Array@IVNamedAllocator@shdfnd@physx@@@shdfnd@2@3ABVCCTFilter@12@ABUCCTParams@12@AAG@Z 1001ab30 f   CctCharacterControllerCallbacks.obj
 0001:00019fe0       ?shapeHitCallback@Cct@physx@@YAIPBUInternalCBData_OnHit@12@ABUSweptContact@12@ABVPxVec3@2@M@Z 1001afe0 f   CctCharacterControllerCallbacks.obj
 0001:0001a0a0       ?userHitCallback@Cct@physx@@YAIPBUInternalCBData_OnHit@12@ABUSweptContact@12@ABVPxVec3@2@M@Z 1001b0a0 f   CctCharacterControllerCallbacks.obj
 0001:0001ded0       ??$PX_UNUSED@PBUPxOverlapHit@physx@@@@YAXABQBUPxOverlapHit@physx@@@Z 1001eed0 f i CctCharacterControllerCallbacks.obj
 0001:0001dee0       ??0?$PxFlags@W4Enum@PxConvexMeshGeometryFlag@physx@@E@physx@@QAE@XZ 1001eee0 f i CctCharacterControllerCallbacks.obj
 0001:0001df00       ??0?$PxFlags@W4Enum@PxMeshGeometryFlag@physx@@E@physx@@QAE@E@Z 1001ef00 f i CctCharacterControllerCallbacks.obj
 0001:0001df20       ??0?$PxFlags@W4Enum@PxMeshGeometryFlag@physx@@E@physx@@QAE@XZ 1001ef20 f i CctCharacterControllerCallbacks.obj
 0001:0001df40       ??0?$PxHitBuffer@UPxOverlapHit@physx@@@physx@@QAE@PAUPxOverlapHit@1@I@Z 1001ef40 f i CctCharacterControllerCallbacks.obj
 0001:0001df80       ??0?$PxHitCallback@UPxOverlapHit@physx@@@physx@@QAE@PAUPxOverlapHit@1@I@Z 1001ef80 f i CctCharacterControllerCallbacks.obj
 0001:0001dfe0       ??0?$PxPadding@$02@physx@@QAE@XZ 1001efe0 f i CctCharacterControllerCallbacks.obj
 0001:0001e030       ??0PxControllerHit@physx@@QAE@XZ 1001f030 f i CctCharacterControllerCallbacks.obj
 0001:0001e070       ??0PxControllerObstacleHit@physx@@QAE@XZ 1001f070 f i CctCharacterControllerCallbacks.obj
 0001:0001e090       ??0PxControllerShapeHit@physx@@QAE@XZ 1001f090 f i CctCharacterControllerCallbacks.obj
 0001:0001e0b0       ??0PxControllersHit@physx@@QAE@XZ 1001f0b0 f i CctCharacterControllerCallbacks.obj
 0001:0001e0d0       ??0PxConvexMeshGeometry@physx@@QAE@XZ 1001f0d0 f i CctCharacterControllerCallbacks.obj
 0001:0001e140       ??0PxExtendedSphere@physx@@QAE@XZ 1001f140 f i CctCharacterControllerCallbacks.obj
 0001:0001e160       ??0PxHeightFieldGeometry@physx@@QAE@XZ 1001f160 f i CctCharacterControllerCallbacks.obj
 0001:0001e1f0       ??0PxMat33@physx@@QAE@ABVPxVec3@1@00@Z 1001f1f0 f i CctCharacterControllerCallbacks.obj
 0001:0001e240       ??0PxMeshScale@physx@@QAE@M@Z 1001f240 f i CctCharacterControllerCallbacks.obj
 0001:0001e280       ??0PxMeshScale@physx@@QAE@XZ 1001f280 f i CctCharacterControllerCallbacks.obj
 0001:0001e2c0       ??0PxOverlapHit@physx@@QAE@XZ 1001f2c0 f i CctCharacterControllerCallbacks.obj
 0001:0001e2e0       ??0PxPlane@physx@@QAE@ABVPxVec3@1@M@Z 1001f2e0 f i CctCharacterControllerCallbacks.obj
 0001:0001e320       ??0PxPlane@physx@@QAE@MMMM@Z 1001f320 f i CctCharacterControllerCallbacks.obj
 0001:0001e380       ??0PxQueryFilterData@physx@@QAE@$$QAU01@@Z 1001f380 f i CctCharacterControllerCallbacks.obj
 0001:0001e3e0       ??0PxQueryFilterData@physx@@QAE@V?$PxFlags@W4Enum@PxQueryFlag@physx@@G@1@@Z 1001f3e0 f i CctCharacterControllerCallbacks.obj
 0001:0001e420       ??0PxTransform@physx@@QAE@ABVPxVec3@1@@Z 1001f420 f i CctCharacterControllerCallbacks.obj
 0001:0001e460       ??0PxTriangle@physx@@QAE@ABV01@@Z 1001f460 f i CctCharacterControllerCallbacks.obj
 0001:0001e500       ??0PxTriangle@physx@@QAE@ABVPxVec3@1@00@Z 1001f500 f i CctCharacterControllerCallbacks.obj
 0001:0001e580       ??0PxTriangle@physx@@QAE@XZ 1001f580 f i CctCharacterControllerCallbacks.obj
 0001:0001e5b0       ??0PxTriangleMeshGeometry@physx@@QAE@XZ 1001f5b0 f i CctCharacterControllerCallbacks.obj
 0001:0001e610       ??0PxVec4@physx@@QAE@MMMM@Z 1001f610 f i CctCharacterControllerCallbacks.obj
 0001:0001e670       ??0TessParams@@QAE@XZ      1001f670 f i CctCharacterControllerCallbacks.obj
 0001:0001e6a0       ??0TrianglePadded@Gu@physx@@QAE@XZ 1001f6a0 f i CctCharacterControllerCallbacks.obj
 0001:0001e6c0       ??0Vec3p@Gu@physx@@QAE@ABVPxVec3@2@@Z 1001f6c0 f i CctCharacterControllerCallbacks.obj
 0001:0001e6f0       ??1?$PxHitBuffer@UPxOverlapHit@physx@@@physx@@UAE@XZ 1001f6f0 f i CctCharacterControllerCallbacks.obj
 0001:0001e720       ??1?$PxHitCallback@UPxOverlapHit@physx@@@physx@@UAE@XZ 1001f720 f i CctCharacterControllerCallbacks.obj
 0001:0001e740       ??1PxExtendedSphere@physx@@QAE@XZ 1001f740 f i CctCharacterControllerCallbacks.obj
 0001:0001e750       ??1TrianglePadded@Gu@physx@@QAE@XZ 1001f750 f i CctCharacterControllerCallbacks.obj
 0001:0001e770       ??1Vec3p@Gu@physx@@QAE@XZ  1001f770 f i CctCharacterControllerCallbacks.obj
 0001:0001e780       ??APxVec3@physx@@QBEABMI@Z 1001f780 f i CctCharacterControllerCallbacks.obj
 0001:0001e7f0       ??DPxMat33@physx@@QBE?BV01@ABV01@@Z 1001f7f0 f i CctCharacterControllerCallbacks.obj
 0001:0001e860       ??DPxVec4@physx@@QBE?AV01@M@Z 1001f860 f i CctCharacterControllerCallbacks.obj
 0001:0001e8e0       ??HPxVec4@physx@@QBE?AV01@ABV01@@Z 1001f8e0 f i CctCharacterControllerCallbacks.obj
 0001:0001e970       ??_E?$PxHitBuffer@UPxOverlapHit@physx@@@physx@@UAEPAXI@Z 1001f970 f i CctCharacterControllerCallbacks.obj
 0001:0001e970       ??_G?$PxHitBuffer@UPxOverlapHit@physx@@@physx@@UAEPAXI@Z 1001f970 f i CctCharacterControllerCallbacks.obj
 0001:0001e9b0       ??_G?$PxHitCallback@UPxOverlapHit@physx@@@physx@@UAEPAXI@Z 1001f9b0 f i CctCharacterControllerCallbacks.obj
 0001:0001e9b0       ??_E?$PxHitCallback@UPxOverlapHit@physx@@@physx@@UAEPAXI@Z 1001f9b0 f i CctCharacterControllerCallbacks.obj
 0001:0001e9f0       ?FLoad@aos@shdfnd@physx@@YA?AT__m128@@M@Z 1001f9f0 f i CctCharacterControllerCallbacks.obj
 0001:0001ea30       ?PxPlaneEquationFromTransform@physx@@YA?AVPxPlane@1@ABVPxTransform@1@@Z 1001fa30 f i CctCharacterControllerCallbacks.obj
 0001:0001ea90       ?V3Load@aos@shdfnd@physx@@YA?AT__m128@@M@Z 1001fa90 f i CctCharacterControllerCallbacks.obj
 0001:0001eaf0       ?V4Load@aos@shdfnd@physx@@YA?AT__m128@@M@Z 1001faf0 f i CctCharacterControllerCallbacks.obj
 0001:0001eb30       ?allocate@?$Array@VPxTriangle@physx@@VNamedAllocator@shdfnd@2@@shdfnd@physx@@IAEPAVPxTriangle@3@I@Z 1001fb30 f i CctCharacterControllerCallbacks.obj
 0001:0001ebb0       ?capacityIncrement@?$Array@IVNamedAllocator@shdfnd@physx@@@shdfnd@physx@@IBEIXZ 1001fbb0 f i CctCharacterControllerCallbacks.obj
 0001:0001ebf0       ?centerExtents@PxBounds3@physx@@SA?AV12@ABVPxVec3@2@0@Z 1001fbf0 f i CctCharacterControllerCallbacks.obj
 0001:0001ec40       ?computeBasis@shdfnd@physx@@YAXABVPxVec3@2@AAV32@1@Z 1001fc40 f i CctCharacterControllerCallbacks.obj
 0001:0001ee00       ?copy@?$Array@VPxTriangle@physx@@VNamedAllocator@shdfnd@2@@shdfnd@physx@@KAXPAVPxTriangle@3@0PBV43@@Z 1001fe00 f i CctCharacterControllerCallbacks.obj
 0001:0001eec0       ?decodeIndex@Cct@physx@@YAII@Z 1001fec0 f i CctCharacterControllerCallbacks.obj
 0001:0001eed0       ?decodeType@Cct@physx@@YA?AW4UserObjectType@12@I@Z 1001fed0 f i CctCharacterControllerCallbacks.obj
 0001:0001eee0       ?distance@PxPlane@physx@@QBEMABVPxVec3@2@@Z 1001fee0 f i CctCharacterControllerCallbacks.obj
 0001:0001ef20       ?end@?$Array@VPxTriangle@physx@@VNamedAllocator@shdfnd@2@@shdfnd@physx@@QAEPAVPxTriangle@3@XZ 1001ff20 f i CctCharacterControllerCallbacks.obj
 0001:0001ef40       ?finalizeQuery@?$PxHitCallback@UPxOverlapHit@physx@@@physx@@UAEXXZ 1001ff40 f i CctCharacterControllerCallbacks.obj
 0001:0001ef50       ?getAnyHit@?$PxHitBuffer@UPxOverlapHit@physx@@@physx@@QBEABUPxOverlapHit@2@I@Z 1001ff50 f i CctCharacterControllerCallbacks.obj
 0001:0001f000       ?getCctManager@Controller@Cct@physx@@QAEPAVCharacterControllerManager@23@XZ 10020000 f i CctCharacterControllerCallbacks.obj
 0001:0001f020       ?getNbAnyHits@?$PxHitBuffer@UPxOverlapHit@physx@@@physx@@QBEIXZ 10020020 f i CctCharacterControllerCallbacks.obj
 0001:0001f050       ?getNbTouches@?$PxHitBuffer@UPxOverlapHit@physx@@@physx@@QBEIXZ 10020050 f i CctCharacterControllerCallbacks.obj
 0001:0001f070       ?getPosition@PxMat44@physx@@QBE?BVPxVec3@2@XZ 10020070 f i CctCharacterControllerCallbacks.obj
 0001:0001f0a0       ?getResults@PxMeshOverlapUtil@physx@@QBEPBIXZ 100200a0 f i CctCharacterControllerCallbacks.obj
 0001:0001f0c0       ?getTouches@?$PxHitBuffer@UPxOverlapHit@physx@@@physx@@QBEPBUPxOverlapHit@2@XZ 100200c0 f i CctCharacterControllerCallbacks.obj
 0001:0001f0e0       ?getTranspose@PxMat33@physx@@QBE?BV12@XZ 100200e0 f i CctCharacterControllerCallbacks.obj
 0001:0001f1d0       ?getXYZ@PxVec4@physx@@QBE?AVPxVec3@2@XZ 100201d0 f i CctCharacterControllerCallbacks.obj
 0001:0001f230       ?grow@?$Array@VPxTriangle@physx@@VNamedAllocator@shdfnd@2@@shdfnd@physx@@IAEXI@Z 10020230 f i CctCharacterControllerCallbacks.obj
 0001:0001f2b0       ?growAndPushBack@?$Array@IVNamedAllocator@shdfnd@physx@@@shdfnd@physx@@IAEAAIABI@Z 100202b0 f i CctCharacterControllerCallbacks.obj
 0001:0001f440       ?processTouches@?$PxHitBuffer@UPxOverlapHit@physx@@@physx@@MAE_NPBUPxOverlapHit@2@I@Z 10020440 f i CctCharacterControllerCallbacks.obj
 0001:0001f470       ?project@PxPlane@physx@@QBE?AVPxVec3@2@ABV32@@Z 10020470 f i CctCharacterControllerCallbacks.obj
 0001:0001f4c0       ?pushBack@?$Array@IVNamedAllocator@shdfnd@physx@@@shdfnd@physx@@QAEAAIABI@Z 100204c0 f i CctCharacterControllerCallbacks.obj
 0001:0001f570       ?pushBack@TriArray@Cct@physx@@QAEXABVPxTriangle@3@@Z 10020570 f i CctCharacterControllerCallbacks.obj
 0001:0001f600       ?recreate@?$Array@VPxTriangle@physx@@VNamedAllocator@shdfnd@2@@shdfnd@physx@@IAEXI@Z 10020600 f i CctCharacterControllerCallbacks.obj
 0001:0001f700       ?reserve@?$Array@VPxTriangle@physx@@VNamedAllocator@shdfnd@2@@shdfnd@physx@@QAEXI@Z 10020700 f i CctCharacterControllerCallbacks.obj
 0001:0001f730       ?reserve@TriArray@Cct@physx@@QAEPAVPxTriangle@3@I@Z 10020730 f i CctCharacterControllerCallbacks.obj
 0001:0001f7f0       ?rotate@PxMat44@physx@@QBE?BVPxVec3@2@ABV32@@Z 100207f0 f i CctCharacterControllerCallbacks.obj
 0001:0001f850       ?rotate@PxMat44@physx@@QBE?BVPxVec4@2@ABV32@@Z 10020850 f i CctCharacterControllerCallbacks.obj
 0001:0001f8f0       ?rotate@PxTransform@physx@@QBE?AVPxVec3@2@ABV32@@Z 100208f0 f i CctCharacterControllerCallbacks.obj
 0001:0001f970       ?toMat33@PxMeshScale@physx@@QBE?AVPxMat33@2@XZ 10020970 f i CctCharacterControllerCallbacks.obj
 0001:0001fa30       ?transform@PxMat33@physx@@QBE?BVPxVec3@2@ABV32@@Z 10020a30 f i CctCharacterControllerCallbacks.obj
 0001:0001fad0       ?transform@PxTransform@physx@@QBE?AVPxPlane@2@ABV32@@Z 10020ad0 f i CctCharacterControllerCallbacks.obj
 0001:0001fb90       _PxCreateControllerManager 10020b90 f   CctCharacterControllerManager.obj
 0001:0001fbf0       ??0CharacterControllerManager@Cct@physx@@QAE@AAVPxScene@2@_N@Z 10020bf0 f   CctCharacterControllerManager.obj
 0001:0001fdf0       ??1CharacterControllerManager@Cct@physx@@UAE@XZ 10020df0 f   CctCharacterControllerManager.obj
 0001:0001fed0       ?release@CharacterControllerManager@Cct@physx@@UAEXXZ 10020ed0 f   CctCharacterControllerManager.obj
 0001:0001ffb0       ?getScene@CharacterControllerManager@Cct@physx@@UBEAAVPxScene@3@XZ 10020fb0 f   CctCharacterControllerManager.obj
 0001:0001ffd0       ?getNbControllers@CharacterControllerManager@Cct@physx@@UBEIXZ 10020fd0 f   CctCharacterControllerManager.obj
 0001:0001fff0       ?getController@CharacterControllerManager@Cct@physx@@UAEPAVPxController@3@I@Z 10020ff0 f   CctCharacterControllerManager.obj
 0001:000200a0       ?createController@CharacterControllerManager@Cct@physx@@UAEPAVPxController@3@ABVPxControllerDesc@3@@Z 100210a0 f   CctCharacterControllerManager.obj
 0001:00020300       ?purgeControllers@CharacterControllerManager@Cct@physx@@UAEXXZ 10021300 f   CctCharacterControllerManager.obj
 0001:00020350       ?getRenderBuffer@CharacterControllerManager@Cct@physx@@UAEAAVPxRenderBuffer@3@XZ 10021350 f   CctCharacterControllerManager.obj
 0001:000203c0       ?setDebugRenderingFlags@CharacterControllerManager@Cct@physx@@UAEXV?$PxFlags@W4Enum@PxControllerDebugRenderFlag@physx@@I@3@@Z 100213c0 f   CctCharacterControllerManager.obj
 0001:00020430       ?getNbObstacleContexts@CharacterControllerManager@Cct@physx@@UBEIXZ 10021430 f   CctCharacterControllerManager.obj
 0001:00020450       ?getObstacleContext@CharacterControllerManager@Cct@physx@@UAEPAVPxObstacleContext@3@I@Z 10021450 f   CctCharacterControllerManager.obj
 0001:000204f0       ?createObstacleContext@CharacterControllerManager@Cct@physx@@UAEPAVPxObstacleContext@3@XZ 100214f0 f   CctCharacterControllerManager.obj
 0001:00020560       ?computeInteractions@CharacterControllerManager@Cct@physx@@UAEXMPAVPxControllerFilterCallback@3@@Z 10021560 f   CctCharacterControllerManager.obj
 0001:000207b0       ?setTessellation@CharacterControllerManager@Cct@physx@@UAEX_NM@Z 100217b0 f   CctCharacterControllerManager.obj
 0001:000207e0       ?setOverlapRecoveryModule@CharacterControllerManager@Cct@physx@@UAEX_N@Z 100217e0 f   CctCharacterControllerManager.obj
 0001:00020800       ?setPreciseSweeps@CharacterControllerManager@Cct@physx@@UAEX_N@Z 10021800 f   CctCharacterControllerManager.obj
 0001:00020820       ?setPreventVerticalSlidingAgainstCeiling@CharacterControllerManager@Cct@physx@@UAEX_N@Z 10021820 f   CctCharacterControllerManager.obj
 0001:00020840       ?shiftOrigin@CharacterControllerManager@Cct@physx@@UAEXABVPxVec3@3@@Z 10021840 f   CctCharacterControllerManager.obj
 0001:00020980       ?onRelease@CharacterControllerManager@Cct@physx@@UAEXPBVPxBase@3@PAXW4Enum@PxDeletionEventFlag@3@@Z 10021980 f   CctCharacterControllerManager.obj
 0001:00020ae0       ?registerObservedObject@CharacterControllerManager@Cct@physx@@QAEXPBVPxBase@3@@Z 10021ae0 f   CctCharacterControllerManager.obj
 0001:00020b50       ?unregisterObservedObject@CharacterControllerManager@Cct@physx@@QAEXPBVPxBase@3@@Z 10021b50 f   CctCharacterControllerManager.obj
 0001:00020c10       ?onObstacleRemoved@CharacterControllerManager@Cct@physx@@QBEXI@Z 10021c10 f   CctCharacterControllerManager.obj
 0001:00020c60       ?onObstacleUpdated@CharacterControllerManager@Cct@physx@@QBEXIPBVPxObstacleContext@3@@Z 10021c60 f   CctCharacterControllerManager.obj
 0001:00020d30       ?onObstacleAdded@CharacterControllerManager@Cct@physx@@QBEXIPBVPxObstacleContext@3@@Z 10021d30 f   CctCharacterControllerManager.obj
 0001:00020e00       ?releaseController@CharacterControllerManager@Cct@physx@@QAEXAAVPxController@3@@Z 10021e00 f   CctCharacterControllerManager.obj
 0001:00020fc0       ?getControllers@CharacterControllerManager@Cct@physx@@QAEPAPAVController@23@XZ 10021fc0 f   CctCharacterControllerManager.obj
 0001:00020fe0       ?releaseObstacleContext@CharacterControllerManager@Cct@physx@@QAEXAAVObstacleContext@23@@Z 10021fe0 f   CctCharacterControllerManager.obj
 0001:00021090       ?resetObstaclesBuffers@CharacterControllerManager@Cct@physx@@QAEXXZ 10022090 f   CctCharacterControllerManager.obj
 0001:00022720       ??$?2V?$ReflectionAllocator@VBoxController@Cct@physx@@@shdfnd@physx@@@UserAllocated@shdfnd@physx@@SAPAXIV?$ReflectionAllocator@VBoxController@Cct@physx@@@12@PBDH@Z 10023720 f i CctCharacterControllerManager.obj
 0001:00022740       ??$?2V?$ReflectionAllocator@VCapsuleController@Cct@physx@@@shdfnd@physx@@@UserAllocated@shdfnd@physx@@SAPAXIV?$ReflectionAllocator@VCapsuleController@Cct@physx@@@12@PBDH@Z 10023740 f i CctCharacterControllerManager.obj
 0001:00022760       ??$?2V?$ReflectionAllocator@VCharacterControllerManager@Cct@physx@@@shdfnd@physx@@@UserAllocated@shdfnd@physx@@SAPAXIV?$ReflectionAllocator@VCharacterControllerManager@Cct@physx@@@12@PBDH@Z 10023760 f i CctCharacterControllerManager.obj
 0001:00022780       ??$?2V?$ReflectionAllocator@VObstacleContext@Cct@physx@@@shdfnd@physx@@@UserAllocated@shdfnd@physx@@SAPAXIV?$ReflectionAllocator@VObstacleContext@Cct@physx@@@12@PBDH@Z 10023780 f i CctCharacterControllerManager.obj
 0001:000227a0       ??$?2V?$ReflectionAllocator@VRenderBuffer@Cm@physx@@@shdfnd@physx@@@UserAllocated@shdfnd@physx@@SAPAXIV?$ReflectionAllocator@VRenderBuffer@Cm@physx@@@12@PBDH@Z 100237a0 f i CctCharacterControllerManager.obj
 0001:000227c0       ??$PX_UNUSED@W4Enum@PxDeletionEventFlag@physx@@@@YAXABW4Enum@PxDeletionEventFlag@physx@@@Z 100237c0 f i CctCharacterControllerManager.obj
 0001:000227d0       ??$append@UPxDebugLine@physx@@@RenderBuffer@Cm@physx@@AAEXAAV?$Array@UPxDebugLine@physx@@VNamedAllocator@shdfnd@2@@shdfnd@2@PBUPxDebugLine@2@I@Z 100237d0 f i CctCharacterControllerManager.obj
 0001:00022840       ??$append@UPxDebugPoint@physx@@@RenderBuffer@Cm@physx@@AAEXAAV?$Array@UPxDebugPoint@physx@@VNamedAllocator@shdfnd@2@@shdfnd@2@PBUPxDebugPoint@2@I@Z 10023840 f i CctCharacterControllerManager.obj
 0001:000228b0       ??$append@UPxDebugText@physx@@@RenderBuffer@Cm@physx@@AAEXAAV?$Array@UPxDebugText@physx@@VNamedAllocator@shdfnd@2@@shdfnd@2@PBUPxDebugText@2@I@Z 100238b0 f i CctCharacterControllerManager.obj
 0001:00022920       ??$append@UPxDebugTriangle@physx@@@RenderBuffer@Cm@physx@@AAEXAAV?$Array@UPxDebugTriangle@physx@@VNamedAllocator@shdfnd@2@@shdfnd@2@PBUPxDebugTriangle@2@I@Z 10023920 f i CctCharacterControllerManager.obj
 0001:00022990       ??$resetOrClear@V?$Array@PBXVNamedAllocator@shdfnd@physx@@@shdfnd@physx@@@@YAXAAV?$Array@PBXVNamedAllocator@shdfnd@physx@@@shdfnd@physx@@@Z 10023990 f i CctCharacterControllerManager.obj
 0001:000229f0       ??$resetOrClear@V?$Array@UPxExtendedCapsule@physx@@VNamedAllocator@shdfnd@2@@shdfnd@physx@@@@YAXAAV?$Array@UPxExtendedCapsule@physx@@VNamedAllocator@shdfnd@2@@shdfnd@physx@@@Z 100239f0 f i CctCharacterControllerManager.obj
 0001:00022a50       ??$resetOrClear@V?$Array@VPxExtendedBox@physx@@VNamedAllocator@shdfnd@2@@shdfnd@physx@@@@YAXAAV?$Array@VPxExtendedBox@physx@@VNamedAllocator@shdfnd@2@@shdfnd@physx@@@Z 10023a50 f i CctCharacterControllerManager.obj
 0001:00022ab0       ??$swap@PAVController@Cct@physx@@@shdfnd@physx@@YAXAAPAVController@Cct@1@0@Z 10023ab0 f i CctCharacterControllerManager.obj
 0001:00022ae0       ??0?$Array@DVNamedAllocator@shdfnd@physx@@@shdfnd@physx@@QAE@ABVNamedAllocator@12@@Z 10023ae0 f i CctCharacterControllerManager.obj
 0001:00022b30       ??0?$Array@PAVController@Cct@physx@@VNamedAllocator@shdfnd@3@@shdfnd@physx@@QAE@ABVNamedAllocator@12@@Z 10023b30 f i CctCharacterControllerManager.obj
 0001:00022b80       ??0?$Array@PAVObstacleContext@Cct@physx@@VNamedAllocator@shdfnd@3@@shdfnd@physx@@QAE@ABVNamedAllocator@12@@Z 10023b80 f i CctCharacterControllerManager.obj
 0001:00022bd0       ??0?$Array@PBXVNamedAllocator@shdfnd@physx@@@shdfnd@physx@@QAE@ABVNamedAllocator@12@@Z 10023bd0 f i CctCharacterControllerManager.obj
 0001:00022c20       ??0?$Array@UPxDebugLine@physx@@VNamedAllocator@shdfnd@2@@shdfnd@physx@@QAE@ABVNamedAllocator@12@@Z 10023c20 f i CctCharacterControllerManager.obj
 0001:00022c70       ??0?$Array@UPxDebugPoint@physx@@VNamedAllocator@shdfnd@2@@shdfnd@physx@@QAE@ABVNamedAllocator@12@@Z 10023c70 f i CctCharacterControllerManager.obj
 0001:00022cc0       ??0?$Array@UPxDebugText@physx@@VNamedAllocator@shdfnd@2@@shdfnd@physx@@QAE@ABVNamedAllocator@12@@Z 10023cc0 f i CctCharacterControllerManager.obj
 0001:00022d10       ??0?$Array@UPxDebugTriangle@physx@@VNamedAllocator@shdfnd@2@@shdfnd@physx@@QAE@ABVNamedAllocator@12@@Z 10023d10 f i CctCharacterControllerManager.obj
 0001:00022d60       ??0?$Array@UPxExtendedCapsule@physx@@VNamedAllocator@shdfnd@2@@shdfnd@physx@@QAE@ABVNamedAllocator@12@@Z 10023d60 f i CctCharacterControllerManager.obj
 0001:00022db0       ??0?$Array@VPxExtendedBox@physx@@VNamedAllocator@shdfnd@2@@shdfnd@physx@@QAE@ABVNamedAllocator@12@@Z 10023db0 f i CctCharacterControllerManager.obj
 0001:00022e00       ??0?$HashBase@PAVPxShape@physx@@PAV12@U?$Hash@PAVPxShape@physx@@@shdfnd@2@UGetKey@?$HashSetBase@PAVPxShape@physx@@U?$Hash@PAVPxShape@physx@@@shdfnd@2@VNonTrackingAllocator@42@$0A@@internal@42@VNonTrackingAllocator@42@$0A@@internal@shdfnd@physx@@QAE@IM@Z 10023e00 f i CctCharacterControllerManager.obj
 0001:00022e50       ??0?$HashBase@V?$Pair@QBVPxBase@physx@@UObservedRefCounter@Cct@2@@shdfnd@physx@@PBVPxBase@3@U?$Hash@PBVPxBase@physx@@@23@UGetKey@?$HashMapBase@PBVPxBase@physx@@UObservedRefCounter@Cct@2@U?$Hash@PBVPxBase@physx@@@shdfnd@2@VNonTrackingAllocator@62@@internal@23@VNonTrackingAllocator@23@$00@internal@shdfnd@physx@@QAE@IM@Z 10023e50 f i CctCharacterControllerManager.obj
 0001:00022ea0       ??0?$HashMap@PBVPxBase@physx@@UObservedRefCounter@Cct@2@U?$Hash@PBVPxBase@physx@@@shdfnd@2@VNonTrackingAllocator@62@@shdfnd@physx@@QAE@IM@Z 10023ea0 f i CctCharacterControllerManager.obj
 0001:00022ed0       ??0?$HashMapBase@PBVPxBase@physx@@UObservedRefCounter@Cct@2@U?$Hash@PBVPxBase@physx@@@shdfnd@2@VNonTrackingAllocator@62@@internal@shdfnd@physx@@QAE@IM@Z 10023ed0 f i CctCharacterControllerManager.obj
 0001:00022f00       ??0?$HashSet@PAVPxShape@physx@@U?$Hash@PAVPxShape@physx@@@shdfnd@2@VNonTrackingAllocator@42@@shdfnd@physx@@QAE@IM@Z 10023f00 f i CctCharacterControllerManager.obj
 0001:00022f30       ??0?$HashSetBase@PAVPxShape@physx@@U?$Hash@PAVPxShape@physx@@@shdfnd@2@VNonTrackingAllocator@42@$0A@@internal@shdfnd@physx@@QAE@IM@Z 10023f30 f i CctCharacterControllerManager.obj
 0001:00022f60       ??0?$MutexT@V?$ReflectionAllocator@VMutexImpl@shdfnd@physx@@@shdfnd@physx@@@shdfnd@physx@@QAE@ABV?$ReflectionAllocator@VMutexImpl@shdfnd@physx@@@12@@Z 10023f60 f i CctCharacterControllerManager.obj
 0001:00022fe0       ??0?$Pair@QBVPxBase@physx@@UObservedRefCounter@Cct@2@@shdfnd@physx@@QAE@ABQBVPxBase@2@ABUObservedRefCounter@Cct@2@@Z 10023fe0 f i CctCharacterControllerManager.obj
 0001:00023010       ??0?$Pair@QBVPxBase@physx@@UObservedRefCounter@Cct@2@@shdfnd@physx@@QAE@ABV012@@Z 10024010 f i CctCharacterControllerManager.obj
 0001:00023040       ??0?$PxFlags@W4Enum@PxControllerDebugRenderFlag@physx@@I@physx@@QAE@I@Z 10024040 f i CctCharacterControllerManager.obj
 0001:00023060       ??0?$PxFlags@W4Enum@PxDeletionEventFlag@physx@@E@physx@@QAE@W4Enum@PxDeletionEventFlag@1@@Z 10024060 f i CctCharacterControllerManager.obj
 0001:00023080       ??0?$ReflectionAllocator@VBoxController@Cct@physx@@@shdfnd@physx@@QAE@PBD@Z 10024080 f i CctCharacterControllerManager.obj
 0001:000230a0       ??0?$ReflectionAllocator@VCapsuleController@Cct@physx@@@shdfnd@physx@@QAE@PBD@Z 100240a0 f i CctCharacterControllerManager.obj
 0001:000230c0       ??0?$ReflectionAllocator@VCharacterControllerManager@Cct@physx@@@shdfnd@physx@@QAE@PBD@Z 100240c0 f i CctCharacterControllerManager.obj
 0001:000230e0       ??0?$ReflectionAllocator@VMutexImpl@shdfnd@physx@@@shdfnd@physx@@QAE@ABV012@@Z 100240e0 f i CctCharacterControllerManager.obj
 0001:00023100       ??0?$ReflectionAllocator@VMutexImpl@shdfnd@physx@@@shdfnd@physx@@QAE@PBD@Z 10024100 f i CctCharacterControllerManager.obj
 0001:00023120       ??0?$ReflectionAllocator@VObstacleContext@Cct@physx@@@shdfnd@physx@@QAE@PBD@Z 10024120 f i CctCharacterControllerManager.obj
 0001:00023140       ??0?$ReflectionAllocator@VRenderBuffer@Cm@physx@@@shdfnd@physx@@QAE@PBD@Z 10024140 f i CctCharacterControllerManager.obj
 0001:00023160       ??0Axes@Gu@physx@@QAE@W4AxisOrder@12@@Z 10024160 f i CctCharacterControllerManager.obj
 0001:000231b0       ??0ObservedRefCounter@Cct@physx@@QAE@XZ 100241b0 f i CctCharacterControllerManager.obj
 0001:000231d0       ??0PxDebugLine@physx@@QAE@ABU01@@Z 100241d0 f i CctCharacterControllerManager.obj
 0001:00023230       ??0PxDebugPoint@physx@@QAE@ABU01@@Z 10024230 f i CctCharacterControllerManager.obj
 0001:00023270       ??0PxDebugText@physx@@QAE@ABU01@@Z 10024270 f i CctCharacterControllerManager.obj
 0001:000232c0       ??0PxDebugTriangle@physx@@QAE@ABU01@@Z 100242c0 f i CctCharacterControllerManager.obj
 0001:00023340       ??0PxDeletionListener@physx@@IAE@XZ 10024340 f i CctCharacterControllerManager.obj
 0001:00023360       ??0PxRenderBuffer@physx@@QAE@XZ 10024360 f i CctCharacterControllerManager.obj
 0001:00023380       ??0RenderBuffer@Cm@physx@@QAE@XZ 10024380 f i CctCharacterControllerManager.obj
 0001:00023490       ??1?$Array@DVNamedAllocator@shdfnd@physx@@@shdfnd@physx@@QAE@XZ 10024490 f i CctCharacterControllerManager.obj
 0001:00023500       ??1?$Array@PAVController@Cct@physx@@VNamedAllocator@shdfnd@3@@shdfnd@physx@@QAE@XZ 10024500 f i CctCharacterControllerManager.obj
 0001:00023570       ??1?$Array@PAVObstacleContext@Cct@physx@@VNamedAllocator@shdfnd@3@@shdfnd@physx@@QAE@XZ 10024570 f i CctCharacterControllerManager.obj
 0001:000235e0       ??1?$Array@PBXVNamedAllocator@shdfnd@physx@@@shdfnd@physx@@QAE@XZ 100245e0 f i CctCharacterControllerManager.obj
 0001:00023650       ??1?$Array@UPxDebugLine@physx@@VNamedAllocator@shdfnd@2@@shdfnd@physx@@QAE@XZ 10024650 f i CctCharacterControllerManager.obj
 0001:000236c0       ??1?$Array@UPxDebugPoint@physx@@VNamedAllocator@shdfnd@2@@shdfnd@physx@@QAE@XZ 100246c0 f i CctCharacterControllerManager.obj
 0001:00023730       ??1?$Array@UPxDebugText@physx@@VNamedAllocator@shdfnd@2@@shdfnd@physx@@QAE@XZ 10024730 f i CctCharacterControllerManager.obj
 0001:000237a0       ??1?$Array@UPxDebugTriangle@physx@@VNamedAllocator@shdfnd@2@@shdfnd@physx@@QAE@XZ 100247a0 f i CctCharacterControllerManager.obj
 0001:00023810       ??1?$Array@UPxExtendedCapsule@physx@@VNamedAllocator@shdfnd@2@@shdfnd@physx@@QAE@XZ 10024810 f i CctCharacterControllerManager.obj
 0001:00023880       ??1?$Array@VPxExtendedBox@physx@@VNamedAllocator@shdfnd@2@@shdfnd@physx@@QAE@XZ 10024880 f i CctCharacterControllerManager.obj
 0001:000238f0       ??1?$HashBase@PAVPxShape@physx@@PAV12@U?$Hash@PAVPxShape@physx@@@shdfnd@2@UGetKey@?$HashSetBase@PAVPxShape@physx@@U?$Hash@PAVPxShape@physx@@@shdfnd@2@VNonTrackingAllocator@42@$0A@@internal@42@VNonTrackingAllocator@42@$0A@@internal@shdfnd@physx@@QAE@XZ 100248f0 f i CctCharacterControllerManager.obj
 0001:00023930       ??1?$HashBase@V?$Pair@QBVPxBase@physx@@UObservedRefCounter@Cct@2@@shdfnd@physx@@PBVPxBase@3@U?$Hash@PBVPxBase@physx@@@23@UGetKey@?$HashMapBase@PBVPxBase@physx@@UObservedRefCounter@Cct@2@U?$Hash@PBVPxBase@physx@@@shdfnd@2@VNonTrackingAllocator@62@@internal@23@VNonTrackingAllocator@23@$00@internal@shdfnd@physx@@QAE@XZ 10024930 f i CctCharacterControllerManager.obj
 0001:00023970       ??1?$HashMap@PBVPxBase@physx@@UObservedRefCounter@Cct@2@U?$Hash@PBVPxBase@physx@@@shdfnd@2@VNonTrackingAllocator@62@@shdfnd@physx@@QAE@XZ 10024970 f i CctCharacterControllerManager.obj
 0001:00023990       ??1?$HashMapBase@PBVPxBase@physx@@UObservedRefCounter@Cct@2@U?$Hash@PBVPxBase@physx@@@shdfnd@2@VNonTrackingAllocator@62@@internal@shdfnd@physx@@QAE@XZ 10024990 f i CctCharacterControllerManager.obj
 0001:000239b0       ??1?$HashSet@PAVPxShape@physx@@U?$Hash@PAVPxShape@physx@@@shdfnd@2@VNonTrackingAllocator@42@@shdfnd@physx@@QAE@XZ 100249b0 f i CctCharacterControllerManager.obj
 0001:000239d0       ??1?$HashSetBase@PAVPxShape@physx@@U?$Hash@PAVPxShape@physx@@@shdfnd@2@VNonTrackingAllocator@42@$0A@@internal@shdfnd@physx@@QAE@XZ 100249d0 f i CctCharacterControllerManager.obj
 0001:000239f0       ??1?$MutexT@V?$ReflectionAllocator@VMutexImpl@shdfnd@physx@@@shdfnd@physx@@@shdfnd@physx@@QAE@XZ 100249f0 f i CctCharacterControllerManager.obj
 0001:00023a20       ??1Axes@Gu@physx@@QAE@XZ   10024a20 f i CctCharacterControllerManager.obj
 0001:00023a30       ??1PxDeletionListener@physx@@MAE@XZ 10024a30 f i CctCharacterControllerManager.obj
 0001:00023a50       ??1PxRenderBuffer@physx@@UAE@XZ 10024a50 f i CctCharacterControllerManager.obj
 0001:00023a70       ??1RenderBuffer@Cm@physx@@UAE@XZ 10024a70 f i CctCharacterControllerManager.obj
 0001:00023ad0       ??4?$PxFlags@W4Enum@PxControllerDebugRenderFlag@physx@@I@physx@@QAEAAV01@ABV01@@Z 10024ad0 f i CctCharacterControllerManager.obj
 0001:00023af0       ??4PxBounds3@physx@@QAEAAV01@$$QAV01@@Z 10024af0 f i CctCharacterControllerManager.obj
 0001:00023b30       ??A?$Array@PAVController@Cct@physx@@VNamedAllocator@shdfnd@3@@shdfnd@physx@@QAEAAPAVController@Cct@2@I@Z 10024b30 f i CctCharacterControllerManager.obj
 0001:00023ba0       ??A?$Array@PAVController@Cct@physx@@VNamedAllocator@shdfnd@3@@shdfnd@physx@@QBEABQAVController@Cct@2@I@Z 10024ba0 f i CctCharacterControllerManager.obj
 0001:00023c10       ??A?$Array@PAVObstacleContext@Cct@physx@@VNamedAllocator@shdfnd@3@@shdfnd@physx@@QAEAAPAVObstacleContext@Cct@2@I@Z 10024c10 f i CctCharacterControllerManager.obj
 0001:00023c80       ??A?$Array@UPxDebugLine@physx@@VNamedAllocator@shdfnd@2@@shdfnd@physx@@QAEAAUPxDebugLine@2@I@Z 10024c80 f i CctCharacterControllerManager.obj
 0001:00023cf0       ??A?$Array@UPxDebugPoint@physx@@VNamedAllocator@shdfnd@2@@shdfnd@physx@@QAEAAUPxDebugPoint@2@I@Z 10024cf0 f i CctCharacterControllerManager.obj
 0001:00023d60       ??A?$Array@UPxDebugText@physx@@VNamedAllocator@shdfnd@2@@shdfnd@physx@@QAEAAUPxDebugText@2@I@Z 10024d60 f i CctCharacterControllerManager.obj
 0001:00023dd0       ??A?$Array@UPxDebugTriangle@physx@@VNamedAllocator@shdfnd@2@@shdfnd@physx@@QAEAAUPxDebugTriangle@2@I@Z 10024dd0 f i CctCharacterControllerManager.obj
 0001:00023e40       ??A?$HashMapBase@PBVPxBase@physx@@UObservedRefCounter@Cct@2@U?$Hash@PBVPxBase@physx@@@shdfnd@2@VNonTrackingAllocator@62@@internal@shdfnd@physx@@QAEAAUObservedRefCounter@Cct@3@ABQBVPxBase@3@@Z 10024e40 f i CctCharacterControllerManager.obj
 0001:00023ed0       ??APxMat33@physx@@QBEABVPxVec3@1@I@Z 10024ed0 f i CctCharacterControllerManager.obj
 0001:00023ef0       ??B?$PxFlags@W4Enum@PxControllerDebugRenderFlag@physx@@I@physx@@QBE_NXZ 10024ef0 f i CctCharacterControllerManager.obj
 0001:00023f20       ??R?$Hash@PBVPxBase@physx@@@shdfnd@physx@@QBEIABQBVPxBase@2@@Z 10024f20 f i CctCharacterControllerManager.obj
 0001:00023f50       ??RGetKey@?$HashMapBase@PBVPxBase@physx@@UObservedRefCounter@Cct@2@U?$Hash@PBVPxBase@physx@@@shdfnd@2@VNonTrackingAllocator@62@@internal@shdfnd@physx@@QAEABQBVPxBase@4@ABV?$Pair@QBVPxBase@physx@@UObservedRefCounter@Cct@2@@34@@Z 10024f50 f i CctCharacterControllerManager.obj
 0001:00023f64       ??_ECharacterControllerManager@Cct@physx@@W3AEPAXI@Z 10024f64 f i CctCharacterControllerManager.obj
 0001:00023f70       ??_ECharacterControllerManager@Cct@physx@@UAEPAXI@Z 10024f70 f i CctCharacterControllerManager.obj
 0001:00023f70       ??_GCharacterControllerManager@Cct@physx@@UAEPAXI@Z 10024f70 f i CctCharacterControllerManager.obj
 0001:00023fd0       ??_GMutexImpl@shdfnd@physx@@QAEPAXI@Z 10024fd0 f i CctCharacterControllerManager.obj
 0001:00024010       ??_GPxDeletionListener@physx@@MAEPAXI@Z 10025010 f i CctCharacterControllerManager.obj
 0001:00024010       ??_EPxDeletionListener@physx@@MAEPAXI@Z 10025010 f i CctCharacterControllerManager.obj
 0001:00024050       ??_GPxRenderBuffer@physx@@UAEPAXI@Z 10025050 f i CctCharacterControllerManager.obj
 0001:00024050       ??_EPxRenderBuffer@physx@@UAEPAXI@Z 10025050 f i CctCharacterControllerManager.obj
 0001:00024090       ??_GRenderBuffer@Cm@physx@@UAEPAXI@Z 10025090 f i CctCharacterControllerManager.obj
 0001:00024090       ??_ERenderBuffer@Cm@physx@@UAEPAXI@Z 10025090 f i CctCharacterControllerManager.obj
 0001:000240f0       ?allocate@?$Array@PAVController@Cct@physx@@VNamedAllocator@shdfnd@3@@shdfnd@physx@@IAEPAPAVController@Cct@3@I@Z 100250f0 f i CctCharacterControllerManager.obj
 0001:00024170       ?allocate@?$Array@PAVObstacleContext@Cct@physx@@VNamedAllocator@shdfnd@3@@shdfnd@physx@@IAEPAPAVObstacleContext@Cct@3@I@Z 10025170 f i CctCharacterControllerManager.obj
 0001:000241f0       ?allocate@?$Array@UPxDebugLine@physx@@VNamedAllocator@shdfnd@2@@shdfnd@physx@@IAEPAUPxDebugLine@3@I@Z 100251f0 f i CctCharacterControllerManager.obj
 0001:00024270       ?allocate@?$Array@UPxDebugPoint@physx@@VNamedAllocator@shdfnd@2@@shdfnd@physx@@IAEPAUPxDebugPoint@3@I@Z 10025270 f i CctCharacterControllerManager.obj
 0001:000242f0       ?allocate@?$Array@UPxDebugText@physx@@VNamedAllocator@shdfnd@2@@shdfnd@physx@@IAEPAUPxDebugText@3@I@Z 100252f0 f i CctCharacterControllerManager.obj
 0001:00024370       ?allocate@?$Array@UPxDebugTriangle@physx@@VNamedAllocator@shdfnd@2@@shdfnd@physx@@IAEPAUPxDebugTriangle@3@I@Z 10025370 f i CctCharacterControllerManager.obj
 0001:000243f0       ?allocate@?$ReflectionAllocator@VBoxController@Cct@physx@@@shdfnd@physx@@QAEPAXIPBDH@Z 100253f0 f i CctCharacterControllerManager.obj
 0001:00024450       ?allocate@?$ReflectionAllocator@VCapsuleController@Cct@physx@@@shdfnd@physx@@QAEPAXIPBDH@Z 10025450 f i CctCharacterControllerManager.obj
 0001:000244b0       ?allocate@?$ReflectionAllocator@VCharacterControllerManager@Cct@physx@@@shdfnd@physx@@QAEPAXIPBDH@Z 100254b0 f i CctCharacterControllerManager.obj
 0001:00024510       ?allocate@?$ReflectionAllocator@VMutexImpl@shdfnd@physx@@@shdfnd@physx@@QAEPAXIPBDH@Z 10025510 f i CctCharacterControllerManager.obj
 0001:00024570       ?allocate@?$ReflectionAllocator@VObstacleContext@Cct@physx@@@shdfnd@physx@@QAEPAXIPBDH@Z 10025570 f i CctCharacterControllerManager.obj
 0001:000245d0       ?allocate@?$ReflectionAllocator@VRenderBuffer@Cm@physx@@@shdfnd@physx@@QAEPAXIPBDH@Z 100255d0 f i CctCharacterControllerManager.obj
 0001:00024630       ?allocate@NonTrackingAllocator@shdfnd@physx@@QAEPAXIPBDH@Z 10025630 f i CctCharacterControllerManager.obj
 0001:00024690       ?append@RenderBuffer@Cm@physx@@UAEXABVPxRenderBuffer@3@@Z 10025690 f i CctCharacterControllerManager.obj
 0001:00024780       ?begin@?$Array@PAVController@Cct@physx@@VNamedAllocator@shdfnd@3@@shdfnd@physx@@QAEPAPAVController@Cct@3@XZ 10025780 f i CctCharacterControllerManager.obj
 0001:000247a0       ?begin@?$Array@UPxDebugLine@physx@@VNamedAllocator@shdfnd@2@@shdfnd@physx@@QBEPBUPxDebugLine@3@XZ 100257a0 f i CctCharacterControllerManager.obj
 0001:000247c0       ?begin@?$Array@UPxDebugPoint@physx@@VNamedAllocator@shdfnd@2@@shdfnd@physx@@QBEPBUPxDebugPoint@3@XZ 100257c0 f i CctCharacterControllerManager.obj
 0001:000247e0       ?begin@?$Array@UPxDebugText@physx@@VNamedAllocator@shdfnd@2@@shdfnd@physx@@QBEPBUPxDebugText@3@XZ 100257e0 f i CctCharacterControllerManager.obj
 0001:00024800       ?begin@?$Array@UPxDebugTriangle@physx@@VNamedAllocator@shdfnd@2@@shdfnd@physx@@QBEPBUPxDebugTriangle@3@XZ 10025800 f i CctCharacterControllerManager.obj
 0001:00024820       ?capacity@?$Array@DVNamedAllocator@shdfnd@physx@@@shdfnd@physx@@QBEIXZ 10025820 f i CctCharacterControllerManager.obj
 0001:00024840       ?capacity@?$Array@PAVController@Cct@physx@@VNamedAllocator@shdfnd@3@@shdfnd@physx@@QBEIXZ 10025840 f i CctCharacterControllerManager.obj
 0001:00024860       ?capacity@?$Array@PAVObstacleContext@Cct@physx@@VNamedAllocator@shdfnd@3@@shdfnd@physx@@QBEIXZ 10025860 f i CctCharacterControllerManager.obj
 0001:00024880       ?capacity@?$Array@UPxDebugLine@physx@@VNamedAllocator@shdfnd@2@@shdfnd@physx@@QBEIXZ 10025880 f i CctCharacterControllerManager.obj
 0001:000248a0       ?capacity@?$Array@UPxDebugPoint@physx@@VNamedAllocator@shdfnd@2@@shdfnd@physx@@QBEIXZ 100258a0 f i CctCharacterControllerManager.obj
 0001:000248c0       ?capacity@?$Array@UPxDebugText@physx@@VNamedAllocator@shdfnd@2@@shdfnd@physx@@QBEIXZ 100258c0 f i CctCharacterControllerManager.obj
 0001:000248e0       ?capacity@?$Array@UPxDebugTriangle@physx@@VNamedAllocator@shdfnd@2@@shdfnd@physx@@QBEIXZ 100258e0 f i CctCharacterControllerManager.obj
 0001:00024900       ?capacityIncrement@?$Array@PAVController@Cct@physx@@VNamedAllocator@shdfnd@3@@shdfnd@physx@@IBEIXZ 10025900 f i CctCharacterControllerManager.obj
 0001:00024940       ?capacityIncrement@?$Array@PAVObstacleContext@Cct@physx@@VNamedAllocator@shdfnd@3@@shdfnd@physx@@IBEIXZ 10025940 f i CctCharacterControllerManager.obj
 0001:00024980       ?capacityIncrement@?$Array@UPxDebugLine@physx@@VNamedAllocator@shdfnd@2@@shdfnd@physx@@IBEIXZ 10025980 f i CctCharacterControllerManager.obj
 0001:000249c0       ?capacityIncrement@?$Array@UPxDebugPoint@physx@@VNamedAllocator@shdfnd@2@@shdfnd@physx@@IBEIXZ 100259c0 f i CctCharacterControllerManager.obj
 0001:00024a00       ?capacityIncrement@?$Array@UPxDebugText@physx@@VNamedAllocator@shdfnd@2@@shdfnd@physx@@IBEIXZ 10025a00 f i CctCharacterControllerManager.obj
 0001:00024a40       ?capacityIncrement@?$Array@UPxDebugTriangle@physx@@VNamedAllocator@shdfnd@2@@shdfnd@physx@@IBEIXZ 10025a40 f i CctCharacterControllerManager.obj
 0001:00024a80       ?clear@?$Array@DVNamedAllocator@shdfnd@physx@@@shdfnd@physx@@QAEXXZ 10025a80 f i CctCharacterControllerManager.obj
 0001:00024ac0       ?clear@?$Array@PBXVNamedAllocator@shdfnd@physx@@@shdfnd@physx@@QAEXXZ 10025ac0 f i CctCharacterControllerManager.obj
 0001:00024b00       ?clear@?$Array@UPxDebugLine@physx@@VNamedAllocator@shdfnd@2@@shdfnd@physx@@QAEXXZ 10025b00 f i CctCharacterControllerManager.obj
 0001:00024b40       ?clear@?$Array@UPxDebugPoint@physx@@VNamedAllocator@shdfnd@2@@shdfnd@physx@@QAEXXZ 10025b40 f i CctCharacterControllerManager.obj
 0001:00024b80       ?clear@?$Array@UPxDebugText@physx@@VNamedAllocator@shdfnd@2@@shdfnd@physx@@QAEXXZ 10025b80 f i CctCharacterControllerManager.obj
 0001:00024bc0       ?clear@?$Array@UPxDebugTriangle@physx@@VNamedAllocator@shdfnd@2@@shdfnd@physx@@QAEXXZ 10025bc0 f i CctCharacterControllerManager.obj
 0001:00024c00       ?clear@?$Array@UPxExtendedCapsule@physx@@VNamedAllocator@shdfnd@2@@shdfnd@physx@@QAEXXZ 10025c00 f i CctCharacterControllerManager.obj
 0001:00024c40       ?clear@?$Array@VPxExtendedBox@physx@@VNamedAllocator@shdfnd@2@@shdfnd@physx@@QAEXXZ 10025c40 f i CctCharacterControllerManager.obj
 0001:00024c80       ?clear@RenderBuffer@Cm@physx@@UAEXXZ 10025c80 f i CctCharacterControllerManager.obj
 0001:00024ce0       ?copy@?$Array@PAVController@Cct@physx@@VNamedAllocator@shdfnd@3@@shdfnd@physx@@KAXPAPAVController@Cct@3@0PBQAV453@@Z 10025ce0 f i CctCharacterControllerManager.obj
 0001:00024d90       ?copy@?$Array@PAVObstacleContext@Cct@physx@@VNamedAllocator@shdfnd@3@@shdfnd@physx@@KAXPAPAVObstacleContext@Cct@3@0PBQAV453@@Z 10025d90 f i CctCharacterControllerManager.obj
 0001:00024e40       ?copy@?$Array@UPxDebugLine@physx@@VNamedAllocator@shdfnd@2@@shdfnd@physx@@KAXPAUPxDebugLine@3@0PBU43@@Z 10025e40 f i CctCharacterControllerManager.obj
 0001:00024ef0       ?copy@?$Array@UPxDebugPoint@physx@@VNamedAllocator@shdfnd@2@@shdfnd@physx@@KAXPAUPxDebugPoint@3@0PBU43@@Z 10025ef0 f i CctCharacterControllerManager.obj
 0001:00024fa0       ?copy@?$Array@UPxDebugText@physx@@VNamedAllocator@shdfnd@2@@shdfnd@physx@@KAXPAUPxDebugText@3@0PBU43@@Z 10025fa0 f i CctCharacterControllerManager.obj
 0001:00025060       ?copy@?$Array@UPxDebugTriangle@physx@@VNamedAllocator@shdfnd@2@@shdfnd@physx@@KAXPAUPxDebugTriangle@3@0PBU43@@Z 10026060 f i CctCharacterControllerManager.obj
 0001:00025120       ?create@?$Array@PBXVNamedAllocator@shdfnd@physx@@@shdfnd@physx@@KAXPAPBX0ABQBX@Z 10026120 f i CctCharacterControllerManager.obj
 0001:000251d0       ?create@?$Array@UPxExtendedCapsule@physx@@VNamedAllocator@shdfnd@2@@shdfnd@physx@@KAXPAUPxExtendedCapsule@3@0ABU43@@Z 100261d0 f i CctCharacterControllerManager.obj
 0001:00025290       ?create@?$Array@VPxExtendedBox@physx@@VNamedAllocator@shdfnd@2@@shdfnd@physx@@KAXPAVPxExtendedBox@3@0ABV43@@Z 10026290 f i CctCharacterControllerManager.obj
 0001:00025340       ?create@?$HashBase@PAVPxShape@physx@@PAV12@U?$Hash@PAVPxShape@physx@@@shdfnd@2@UGetKey@?$HashSetBase@PAVPxShape@physx@@U?$Hash@PAVPxShape@physx@@@shdfnd@2@VNonTrackingAllocator@42@$0A@@internal@42@VNonTrackingAllocator@42@$0A@@internal@shdfnd@physx@@QAEPAPAVPxShape@4@ABQAV54@AA_N@Z 10026340 f i CctCharacterControllerManager.obj
 0001:000254e0       ?create@?$HashBase@V?$Pair@QBVPxBase@physx@@UObservedRefCounter@Cct@2@@shdfnd@physx@@PBVPxBase@3@U?$Hash@PBVPxBase@physx@@@23@UGetKey@?$HashMapBase@PBVPxBase@physx@@UObservedRefCounter@Cct@2@U?$Hash@PBVPxBase@physx@@@shdfnd@2@VNonTrackingAllocator@62@@internal@23@VNonTrackingAllocator@23@$00@internal@shdfnd@physx@@QAEPAV?$Pair@QBVPxBase@physx@@UObservedRefCounter@Cct@2@@34@ABQBVPxBase@4@AA_N@Z 100264e0 f i CctCharacterControllerManager.obj
 0001:00025680       ?deallocate@?$Array@DVNamedAllocator@shdfnd@physx@@@shdfnd@physx@@IAEXPAX@Z 10026680 f i CctCharacterControllerManager.obj
 0001:000256a0       ?deallocate@?$Array@PAVController@Cct@physx@@VNamedAllocator@shdfnd@3@@shdfnd@physx@@IAEXPAX@Z 100266a0 f i CctCharacterControllerManager.obj
 0001:000256c0       ?deallocate@?$Array@PAVObstacleContext@Cct@physx@@VNamedAllocator@shdfnd@3@@shdfnd@physx@@IAEXPAX@Z 100266c0 f i CctCharacterControllerManager.obj
 0001:000256e0       ?deallocate@?$Array@UPxDebugLine@physx@@VNamedAllocator@shdfnd@2@@shdfnd@physx@@IAEXPAX@Z 100266e0 f i CctCharacterControllerManager.obj
 0001:00025700       ?deallocate@?$Array@UPxDebugPoint@physx@@VNamedAllocator@shdfnd@2@@shdfnd@physx@@IAEXPAX@Z 10026700 f i CctCharacterControllerManager.obj
 0001:00025720       ?deallocate@?$Array@UPxDebugText@physx@@VNamedAllocator@shdfnd@2@@shdfnd@physx@@IAEXPAX@Z 10026720 f i CctCharacterControllerManager.obj
 0001:00025740       ?deallocate@?$Array@UPxDebugTriangle@physx@@VNamedAllocator@shdfnd@2@@shdfnd@physx@@IAEXPAX@Z 10026740 f i CctCharacterControllerManager.obj
 0001:00025760       ?deallocate@?$ReflectionAllocator@VMutexImpl@shdfnd@physx@@@shdfnd@physx@@QAEXPAX@Z 10026760 f i CctCharacterControllerManager.obj
 0001:000257a0       ?destroy@?$Array@DVNamedAllocator@shdfnd@physx@@@shdfnd@physx@@KAXPAD0@Z 100267a0 f i CctCharacterControllerManager.obj
 0001:000257d0       ?destroy@?$Array@PAVController@Cct@physx@@VNamedAllocator@shdfnd@3@@shdfnd@physx@@KAXPAPAVController@Cct@3@0@Z 100267d0 f i CctCharacterControllerManager.obj
 0001:00025800       ?destroy@?$Array@PAVObstacleContext@Cct@physx@@VNamedAllocator@shdfnd@3@@shdfnd@physx@@KAXPAPAVObstacleContext@Cct@3@0@Z 10026800 f i CctCharacterControllerManager.obj
 0001:00025830       ?destroy@?$Array@UPxDebugLine@physx@@VNamedAllocator@shdfnd@2@@shdfnd@physx@@KAXPAUPxDebugLine@3@0@Z 10026830 f i CctCharacterControllerManager.obj
 0001:00025860       ?destroy@?$Array@UPxDebugPoint@physx@@VNamedAllocator@shdfnd@2@@shdfnd@physx@@KAXPAUPxDebugPoint@3@0@Z 10026860 f i CctCharacterControllerManager.obj
 0001:00025890       ?destroy@?$Array@UPxDebugText@physx@@VNamedAllocator@shdfnd@2@@shdfnd@physx@@KAXPAUPxDebugText@3@0@Z 10026890 f i CctCharacterControllerManager.obj
 0001:000258c0       ?destroy@?$Array@UPxDebugTriangle@physx@@VNamedAllocator@shdfnd@2@@shdfnd@physx@@KAXPAUPxDebugTriangle@3@0@Z 100268c0 f i CctCharacterControllerManager.obj
 0001:000258f0       ?destroy@?$HashBase@PAVPxShape@physx@@PAV12@U?$Hash@PAVPxShape@physx@@@shdfnd@2@UGetKey@?$HashSetBase@PAVPxShape@physx@@U?$Hash@PAVPxShape@physx@@@shdfnd@2@VNonTrackingAllocator@42@$0A@@internal@42@VNonTrackingAllocator@42@$0A@@internal@shdfnd@physx@@AAEXXZ 100268f0 f i CctCharacterControllerManager.obj
 0001:00025960       ?destroy@?$HashBase@V?$Pair@QBVPxBase@physx@@UObservedRefCounter@Cct@2@@shdfnd@physx@@PBVPxBase@3@U?$Hash@PBVPxBase@physx@@@23@UGetKey@?$HashMapBase@PBVPxBase@physx@@UObservedRefCounter@Cct@2@U?$Hash@PBVPxBase@physx@@@shdfnd@2@VNonTrackingAllocator@62@@internal@23@VNonTrackingAllocator@23@$00@internal@shdfnd@physx@@AAEXXZ 10026960 f i CctCharacterControllerManager.obj
 0001:000259d0       ?end@?$Array@PAVObstacleContext@Cct@physx@@VNamedAllocator@shdfnd@3@@shdfnd@physx@@QAEPAPAVObstacleContext@Cct@3@XZ 100269d0 f i CctCharacterControllerManager.obj
 0001:000259f0       ?equal@?$Hash@PBVPxBase@physx@@@shdfnd@physx@@QBE_NABQBVPxBase@3@0@Z 100269f0 f i CctCharacterControllerManager.obj
 0001:00025a30       ?erase@?$HashBase@PAVPxShape@physx@@PAV12@U?$Hash@PAVPxShape@physx@@@shdfnd@2@UGetKey@?$HashSetBase@PAVPxShape@physx@@U?$Hash@PAVPxShape@physx@@@shdfnd@2@VNonTrackingAllocator@42@$0A@@internal@42@VNonTrackingAllocator@42@$0A@@internal@shdfnd@physx@@QAE_NABQAVPxShape@4@@Z 10026a30 f i CctCharacterControllerManager.obj
 0001:00025af0       ?erase@?$HashBase@V?$Pair@QBVPxBase@physx@@UObservedRefCounter@Cct@2@@shdfnd@physx@@PBVPxBase@3@U?$Hash@PBVPxBase@physx@@@23@UGetKey@?$HashMapBase@PBVPxBase@physx@@UObservedRefCounter@Cct@2@U?$Hash@PBVPxBase@physx@@@shdfnd@2@VNonTrackingAllocator@62@@internal@23@VNonTrackingAllocator@23@$00@internal@shdfnd@physx@@QAE_NABQBVPxBase@4@@Z 10026af0 f i CctCharacterControllerManager.obj
 0001:00025bb0       ?erase@?$HashMapBase@PBVPxBase@physx@@UObservedRefCounter@Cct@2@U?$Hash@PBVPxBase@physx@@@shdfnd@2@VNonTrackingAllocator@62@@internal@shdfnd@physx@@QAE_NABQBVPxBase@4@@Z 10026bb0 f i CctCharacterControllerManager.obj
 0001:00025bd0       ?erase@?$HashSetBase@PAVPxShape@physx@@U?$Hash@PAVPxShape@physx@@@shdfnd@2@VNonTrackingAllocator@42@$0A@@internal@shdfnd@physx@@QAE_NABQAVPxShape@4@@Z 10026bd0 f i CctCharacterControllerManager.obj
 0001:00025bf0       ?eraseInternal@?$HashBase@PAVPxShape@physx@@PAV12@U?$Hash@PAVPxShape@physx@@@shdfnd@2@UGetKey@?$HashSetBase@PAVPxShape@physx@@U?$Hash@PAVPxShape@physx@@@shdfnd@2@VNonTrackingAllocator@42@$0A@@internal@42@VNonTrackingAllocator@42@$0A@@internal@shdfnd@physx@@AAE_NPAI@Z 10026bf0 f i CctCharacterControllerManager.obj
 0001:00025c70       ?eraseInternal@?$HashBase@V?$Pair@QBVPxBase@physx@@UObservedRefCounter@Cct@2@@shdfnd@physx@@PBVPxBase@3@U?$Hash@PBVPxBase@physx@@@23@UGetKey@?$HashMapBase@PBVPxBase@physx@@UObservedRefCounter@Cct@2@U?$Hash@PBVPxBase@physx@@@shdfnd@2@VNonTrackingAllocator@62@@internal@23@VNonTrackingAllocator@23@$00@internal@shdfnd@physx@@AAE_NPAI@Z 10026c70 f i CctCharacterControllerManager.obj
 0001:00025d10       ?find@?$Array@PAVObstacleContext@Cct@physx@@VNamedAllocator@shdfnd@3@@shdfnd@physx@@QAEPAPAVObstacleContext@Cct@3@ABQAV453@@Z 10026d10 f i CctCharacterControllerManager.obj
 0001:00025d70       ?find@?$HashBase@V?$Pair@QBVPxBase@physx@@UObservedRefCounter@Cct@2@@shdfnd@physx@@PBVPxBase@3@U?$Hash@PBVPxBase@physx@@@23@UGetKey@?$HashMapBase@PBVPxBase@physx@@UObservedRefCounter@Cct@2@U?$Hash@PBVPxBase@physx@@@shdfnd@2@VNonTrackingAllocator@62@@internal@23@VNonTrackingAllocator@23@$00@internal@shdfnd@physx@@QBEPBV?$Pair@QBVPxBase@physx@@UObservedRefCounter@Cct@2@@34@ABQBVPxBase@4@@Z 10026d70 f i CctCharacterControllerManager.obj
 0001:00025e40       ?find@?$HashMapBase@PBVPxBase@physx@@UObservedRefCounter@Cct@2@U?$Hash@PBVPxBase@physx@@@shdfnd@2@VNonTrackingAllocator@62@@internal@shdfnd@physx@@QBEPBV?$Pair@QBVPxBase@physx@@UObservedRefCounter@Cct@2@@34@ABQBVPxBase@4@@Z 10026e40 f i CctCharacterControllerManager.obj
 0001:00025e60       ?findAndReplaceWithLast@?$Array@PAVObstacleContext@Cct@physx@@VNamedAllocator@shdfnd@3@@shdfnd@physx@@QAE_NABQAVObstacleContext@Cct@3@@Z 10026e60 f i CctCharacterControllerManager.obj
 0001:00025ee0       ?freeListAdd@?$HashBase@PAVPxShape@physx@@PAV12@U?$Hash@PAVPxShape@physx@@@shdfnd@2@UGetKey@?$HashSetBase@PAVPxShape@physx@@U?$Hash@PAVPxShape@physx@@@shdfnd@2@VNonTrackingAllocator@42@$0A@@internal@42@VNonTrackingAllocator@42@$0A@@internal@shdfnd@physx@@AAEXI@Z 10026ee0 f i CctCharacterControllerManager.obj
 0001:00025f90       ?freeListAdd@?$HashBase@PAVPxShape@physx@@PAV12@U?$Hash@PAVPxShape@physx@@@shdfnd@2@UGetKey@?$HashSetBase@PAVPxShape@physx@@U?$Hash@PAVPxShape@physx@@@shdfnd@2@VNonTrackingAllocator@42@$0A@@internal@42@VNonTrackingAllocator@42@$0A@@internal@shdfnd@physx@@AAEXII@Z 10026f90 f i CctCharacterControllerManager.obj
 0001:00026080       ?freeListAdd@?$HashBase@V?$Pair@QBVPxBase@physx@@UObservedRefCounter@Cct@2@@shdfnd@physx@@PBVPxBase@3@U?$Hash@PBVPxBase@physx@@@23@UGetKey@?$HashMapBase@PBVPxBase@physx@@UObservedRefCounter@Cct@2@U?$Hash@PBVPxBase@physx@@@shdfnd@2@VNonTrackingAllocator@62@@internal@23@VNonTrackingAllocator@23@$00@internal@shdfnd@physx@@AAEXI@Z 10027080 f i CctCharacterControllerManager.obj
 0001:00026130       ?freeListAdd@?$HashBase@V?$Pair@QBVPxBase@physx@@UObservedRefCounter@Cct@2@@shdfnd@physx@@PBVPxBase@3@U?$Hash@PBVPxBase@physx@@@23@UGetKey@?$HashMapBase@PBVPxBase@physx@@UObservedRefCounter@Cct@2@U?$Hash@PBVPxBase@physx@@@shdfnd@2@VNonTrackingAllocator@62@@internal@23@VNonTrackingAllocator@23@$00@internal@shdfnd@physx@@AAEXII@Z 10027130 f i CctCharacterControllerManager.obj
 0001:00026220       ?freeListEmpty@?$HashBase@PAVPxShape@physx@@PAV12@U?$Hash@PAVPxShape@physx@@@shdfnd@2@UGetKey@?$HashSetBase@PAVPxShape@physx@@U?$Hash@PAVPxShape@physx@@@shdfnd@2@VNonTrackingAllocator@42@$0A@@internal@42@VNonTrackingAllocator@42@$0A@@internal@shdfnd@physx@@ABE_NXZ 10027220 f i CctCharacterControllerManager.obj
 0001:00026290       ?freeListEmpty@?$HashBase@V?$Pair@QBVPxBase@physx@@UObservedRefCounter@Cct@2@@shdfnd@physx@@PBVPxBase@3@U?$Hash@PBVPxBase@physx@@@23@UGetKey@?$HashMapBase@PBVPxBase@physx@@UObservedRefCounter@Cct@2@U?$Hash@PBVPxBase@physx@@@shdfnd@2@VNonTrackingAllocator@62@@internal@23@VNonTrackingAllocator@23@$00@internal@shdfnd@physx@@ABE_NXZ 10027290 f i CctCharacterControllerManager.obj
 0001:00026300       ?freeListGetNext@?$HashBase@PAVPxShape@physx@@PAV12@U?$Hash@PAVPxShape@physx@@@shdfnd@2@UGetKey@?$HashSetBase@PAVPxShape@physx@@U?$Hash@PAVPxShape@physx@@@shdfnd@2@VNonTrackingAllocator@42@$0A@@internal@42@VNonTrackingAllocator@42@$0A@@internal@shdfnd@physx@@AAEIXZ 10027300 f i CctCharacterControllerManager.obj
 0001:00026410       ?freeListGetNext@?$HashBase@V?$Pair@QBVPxBase@physx@@UObservedRefCounter@Cct@2@@shdfnd@physx@@PBVPxBase@3@U?$Hash@PBVPxBase@physx@@@23@UGetKey@?$HashMapBase@PBVPxBase@physx@@UObservedRefCounter@Cct@2@U?$Hash@PBVPxBase@physx@@@shdfnd@2@VNonTrackingAllocator@62@@internal@23@VNonTrackingAllocator@23@$00@internal@shdfnd@physx@@AAEIXZ 10027410 f i CctCharacterControllerManager.obj
 0001:00026530       ?getAllocator@Foundation@shdfnd@physx@@QAEAAVPxAllocatorCallback@3@XZ 10027530 f i CctCharacterControllerManager.obj
 0001:00026550       ?getAllocatorCallback@Foundation@shdfnd@physx@@UAEAAVPxAllocatorCallback@3@XZ 10027550 f i CctCharacterControllerManager.obj
 0001:00026570       ?getErrorCallback@Foundation@shdfnd@physx@@UAEAAVPxErrorCallback@3@XZ 10027570 f i CctCharacterControllerManager.obj
 0001:00026590       ?getErrorLevel@Foundation@shdfnd@physx@@UBE?AW4Enum@PxErrorCode@3@XZ 10027590 f i CctCharacterControllerManager.obj
 0001:000265b0       ?getFoundation@shdfnd@physx@@YAAAVFoundation@12@XZ 100275b0 f i CctCharacterControllerManager.obj
 0001:000265c0       ?getInternalErrorCallback@Foundation@shdfnd@physx@@QAEAAVPxErrorCallback@3@XZ 100275c0 f i CctCharacterControllerManager.obj
 0001:000265e0       ?getLines@RenderBuffer@Cm@physx@@UBEPBUPxDebugLine@3@XZ 100275e0 f i CctCharacterControllerManager.obj
 0001:00026600       ?getName@?$ReflectionAllocator@VBoxController@Cct@physx@@@shdfnd@physx@@CAPBDXZ 10027600 f i CctCharacterControllerManager.obj
 0001:00026650       ?getName@?$ReflectionAllocator@VCapsuleController@Cct@physx@@@shdfnd@physx@@CAPBDXZ 10027650 f i CctCharacterControllerManager.obj
 0001:000266a0       ?getName@?$ReflectionAllocator@VCharacterControllerManager@Cct@physx@@@shdfnd@physx@@CAPBDXZ 100276a0 f i CctCharacterControllerManager.obj
 0001:000266f0       ?getName@?$ReflectionAllocator@VMutexImpl@shdfnd@physx@@@shdfnd@physx@@CAPBDXZ 100276f0 f i CctCharacterControllerManager.obj
 0001:00026740       ?getName@?$ReflectionAllocator@VObstacleContext@Cct@physx@@@shdfnd@physx@@CAPBDXZ 10027740 f i CctCharacterControllerManager.obj
 0001:00026790       ?getName@?$ReflectionAllocator@VRenderBuffer@Cm@physx@@@shdfnd@physx@@CAPBDXZ 10027790 f i CctCharacterControllerManager.obj
 0001:000267e0       ?getNamedAllocMap@Foundation@shdfnd@physx@@QAEAAV?$HashMap@PBVNamedAllocator@shdfnd@physx@@PBDU?$Hash@PBVNamedAllocator@shdfnd@physx@@@23@VNonTrackingAllocator@23@@23@XZ 100277e0 f i CctCharacterControllerManager.obj
 0001:00026800       ?getNamedAllocMutex@Foundation@shdfnd@physx@@QAEAAV?$MutexT@VAllocator@shdfnd@physx@@@23@XZ 10027800 f i CctCharacterControllerManager.obj
 0001:00026820       ?getNbLines@RenderBuffer@Cm@physx@@UBEIXZ 10027820 f i CctCharacterControllerManager.obj
 0001:00026840       ?getNbPoints@RenderBuffer@Cm@physx@@UBEIXZ 10027840 f i CctCharacterControllerManager.obj
 0001:00026860       ?getNbTexts@RenderBuffer@Cm@physx@@UBEIXZ 10027860 f i CctCharacterControllerManager.obj
 0001:00026880       ?getNbTriangles@RenderBuffer@Cm@physx@@UBEIXZ 10027880 f i CctCharacterControllerManager.obj
 0001:000268a0       ?getPoints@RenderBuffer@Cm@physx@@UBEPBUPxDebugPoint@3@XZ 100278a0 f i CctCharacterControllerManager.obj
 0001:000268c0       ?getReportAllocationNames@Foundation@shdfnd@physx@@UBE_NXZ 100278c0 f i CctCharacterControllerManager.obj
 0001:000268e0       ?getTempAllocFreeTable@Foundation@shdfnd@physx@@QAEAAV?$Array@PATTempAllocatorChunk@shdfnd@physx@@VAllocator@23@@23@XZ 100278e0 f i CctCharacterControllerManager.obj
 0001:00026900       ?getTempAllocMutex@Foundation@shdfnd@physx@@QAEAAV?$MutexT@VAllocator@shdfnd@physx@@@23@XZ 10027900 f i CctCharacterControllerManager.obj
 0001:00026920       ?getTexts@RenderBuffer@Cm@physx@@UBEPBUPxDebugText@3@XZ 10027920 f i CctCharacterControllerManager.obj
 0001:00026940       ?getTriangles@RenderBuffer@Cm@physx@@UBEPBUPxDebugTriangle@3@XZ 10027940 f i CctCharacterControllerManager.obj
 0001:00026960       ?getType@PxControllerDesc@physx@@QBE?AW4Enum@PxControllerShapeType@2@XZ 10027960 f i CctCharacterControllerManager.obj
 0001:00026980       ?grow@?$Array@PBXVNamedAllocator@shdfnd@physx@@@shdfnd@physx@@IAEXI@Z 10027980 f i CctCharacterControllerManager.obj
 0001:00026a00       ?grow@?$Array@UPxDebugLine@physx@@VNamedAllocator@shdfnd@2@@shdfnd@physx@@IAEXI@Z 10027a00 f i CctCharacterControllerManager.obj
 0001:00026a80       ?grow@?$Array@UPxDebugPoint@physx@@VNamedAllocator@shdfnd@2@@shdfnd@physx@@IAEXI@Z 10027a80 f i CctCharacterControllerManager.obj
 0001:00026b00       ?grow@?$Array@UPxDebugText@physx@@VNamedAllocator@shdfnd@2@@shdfnd@physx@@IAEXI@Z 10027b00 f i CctCharacterControllerManager.obj
 0001:00026b80       ?grow@?$Array@UPxDebugTriangle@physx@@VNamedAllocator@shdfnd@2@@shdfnd@physx@@IAEXI@Z 10027b80 f i CctCharacterControllerManager.obj
 0001:00026c00       ?grow@?$Array@UPxExtendedCapsule@physx@@VNamedAllocator@shdfnd@2@@shdfnd@physx@@IAEXI@Z 10027c00 f i CctCharacterControllerManager.obj
 0001:00026c80       ?grow@?$Array@VPxExtendedBox@physx@@VNamedAllocator@shdfnd@2@@shdfnd@physx@@IAEXI@Z 10027c80 f i CctCharacterControllerManager.obj
 0001:00026d00       ?grow@?$HashBase@PAVPxShape@physx@@PAV12@U?$Hash@PAVPxShape@physx@@@shdfnd@2@UGetKey@?$HashSetBase@PAVPxShape@physx@@U?$Hash@PAVPxShape@physx@@@shdfnd@2@VNonTrackingAllocator@42@$0A@@internal@42@VNonTrackingAllocator@42@$0A@@internal@shdfnd@physx@@AAEXXZ 10027d00 f i CctCharacterControllerManager.obj
 0001:00026da0       ?grow@?$HashBase@V?$Pair@QBVPxBase@physx@@UObservedRefCounter@Cct@2@@shdfnd@physx@@PBVPxBase@3@U?$Hash@PBVPxBase@physx@@@23@UGetKey@?$HashMapBase@PBVPxBase@physx@@UObservedRefCounter@Cct@2@U?$Hash@PBVPxBase@physx@@@shdfnd@2@VNonTrackingAllocator@62@@internal@23@VNonTrackingAllocator@23@$00@internal@shdfnd@physx@@AAEXXZ 10027da0 f i CctCharacterControllerManager.obj
 0001:00026e60       ?growAndPushBack@?$Array@PAVController@Cct@physx@@VNamedAllocator@shdfnd@3@@shdfnd@physx@@IAEAAPAVController@Cct@3@ABQAV453@@Z 10027e60 f i CctCharacterControllerManager.obj
 0001:00026ff0       ?growAndPushBack@?$Array@PAVObstacleContext@Cct@physx@@VNamedAllocator@shdfnd@3@@shdfnd@physx@@IAEAAPAVObstacleContext@Cct@3@ABQAV453@@Z 10027ff0 f i CctCharacterControllerManager.obj
 0001:00027180       ?growAndPushBack@?$Array@UPxDebugLine@physx@@VNamedAllocator@shdfnd@2@@shdfnd@physx@@IAEAAUPxDebugLine@3@ABU43@@Z 10028180 f i CctCharacterControllerManager.obj
 0001:00027310       ?growAndPushBack@?$Array@UPxDebugPoint@physx@@VNamedAllocator@shdfnd@2@@shdfnd@physx@@IAEAAUPxDebugPoint@3@ABU43@@Z 10028310 f i CctCharacterControllerManager.obj
 0001:000274a0       ?growAndPushBack@?$Array@UPxDebugText@physx@@VNamedAllocator@shdfnd@2@@shdfnd@physx@@IAEAAUPxDebugText@3@ABU43@@Z 100284a0 f i CctCharacterControllerManager.obj
 0001:00027620       ?growAndPushBack@?$Array@UPxDebugTriangle@physx@@VNamedAllocator@shdfnd@2@@shdfnd@physx@@IAEAAUPxDebugTriangle@3@ABU43@@Z 10028620 f i CctCharacterControllerManager.obj
 0001:000277a0       ?hash@?$HashBase@V?$Pair@QBVPxBase@physx@@UObservedRefCounter@Cct@2@@shdfnd@physx@@PBVPxBase@3@U?$Hash@PBVPxBase@physx@@@23@UGetKey@?$HashMapBase@PBVPxBase@physx@@UObservedRefCounter@Cct@2@U?$Hash@PBVPxBase@physx@@@shdfnd@2@VNonTrackingAllocator@62@@internal@23@VNonTrackingAllocator@23@$00@internal@shdfnd@physx@@ABEIABQBVPxBase@4@@Z 100287a0 f i CctCharacterControllerManager.obj
 0001:000277d0       ?hash@?$HashBase@V?$Pair@QBVPxBase@physx@@UObservedRefCounter@Cct@2@@shdfnd@physx@@PBVPxBase@3@U?$Hash@PBVPxBase@physx@@@23@UGetKey@?$HashMapBase@PBVPxBase@physx@@UObservedRefCounter@Cct@2@U?$Hash@PBVPxBase@physx@@@shdfnd@2@VNonTrackingAllocator@62@@internal@23@VNonTrackingAllocator@23@$00@internal@shdfnd@physx@@ABEIABQBVPxBase@4@I@Z 100287d0 f i CctCharacterControllerManager.obj
 0001:00027800       ?init@?$HashBase@PAVPxShape@physx@@PAV12@U?$Hash@PAVPxShape@physx@@@shdfnd@2@UGetKey@?$HashSetBase@PAVPxShape@physx@@U?$Hash@PAVPxShape@physx@@@shdfnd@2@VNonTrackingAllocator@42@$0A@@internal@42@VNonTrackingAllocator@42@$0A@@internal@shdfnd@physx@@AAEXIM@Z 10028800 f i CctCharacterControllerManager.obj
 0001:000278b0       ?init@?$HashBase@V?$Pair@QBVPxBase@physx@@UObservedRefCounter@Cct@2@@shdfnd@physx@@PBVPxBase@3@U?$Hash@PBVPxBase@physx@@@23@UGetKey@?$HashMapBase@PBVPxBase@physx@@UObservedRefCounter@Cct@2@U?$Hash@PBVPxBase@physx@@@shdfnd@2@VNonTrackingAllocator@62@@internal@23@VNonTrackingAllocator@23@$00@internal@shdfnd@physx@@AAEXIM@Z 100288b0 f i CctCharacterControllerManager.obj
 0001:00027960       ?insert@?$HashSetBase@PAVPxShape@physx@@U?$Hash@PAVPxShape@physx@@@shdfnd@2@VNonTrackingAllocator@42@$0A@@internal@shdfnd@physx@@QAE_NABQAVPxShape@4@@Z 10028960 f i CctCharacterControllerManager.obj
 0001:00027a00       ?isArrayOfPOD@?$Array@DVNamedAllocator@shdfnd@physx@@@shdfnd@physx@@SA_NXZ 10028a00 f i CctCharacterControllerManager.obj
 0001:00027a10       ?isArrayOfPOD@?$Array@PAVController@Cct@physx@@VNamedAllocator@shdfnd@3@@shdfnd@physx@@SA_NXZ 10028a10 f i CctCharacterControllerManager.obj
 0001:00027a20       ?isArrayOfPOD@?$Array@PAVObstacleContext@Cct@physx@@VNamedAllocator@shdfnd@3@@shdfnd@physx@@SA_NXZ 10028a20 f i CctCharacterControllerManager.obj
 0001:00027a30       ?isArrayOfPOD@?$Array@UPxDebugLine@physx@@VNamedAllocator@shdfnd@2@@shdfnd@physx@@SA_NXZ 10028a30 f i CctCharacterControllerManager.obj
 0001:00027a40       ?isArrayOfPOD@?$Array@UPxDebugPoint@physx@@VNamedAllocator@shdfnd@2@@shdfnd@physx@@SA_NXZ 10028a40 f i CctCharacterControllerManager.obj
 0001:00027a50       ?isArrayOfPOD@?$Array@UPxDebugText@physx@@VNamedAllocator@shdfnd@2@@shdfnd@physx@@SA_NXZ 10028a50 f i CctCharacterControllerManager.obj
 0001:00027a60       ?isArrayOfPOD@?$Array@UPxDebugTriangle@physx@@VNamedAllocator@shdfnd@2@@shdfnd@physx@@SA_NXZ 10028a60 f i CctCharacterControllerManager.obj
 0001:00027a70       ?isInUserMemory@?$Array@DVNamedAllocator@shdfnd@physx@@@shdfnd@physx@@QBEIXZ 10028a70 f i CctCharacterControllerManager.obj
 0001:00027a90       ?isInUserMemory@?$Array@PAVController@Cct@physx@@VNamedAllocator@shdfnd@3@@shdfnd@physx@@QBEIXZ 10028a90 f i CctCharacterControllerManager.obj
 0001:00027ab0       ?isInUserMemory@?$Array@PAVObstacleContext@Cct@physx@@VNamedAllocator@shdfnd@3@@shdfnd@physx@@QBEIXZ 10028ab0 f i CctCharacterControllerManager.obj
 0001:00027ad0       ?isInUserMemory@?$Array@UPxDebugLine@physx@@VNamedAllocator@shdfnd@2@@shdfnd@physx@@QBEIXZ 10028ad0 f i CctCharacterControllerManager.obj
 0001:00027af0       ?isInUserMemory@?$Array@UPxDebugPoint@physx@@VNamedAllocator@shdfnd@2@@shdfnd@physx@@QBEIXZ 10028af0 f i CctCharacterControllerManager.obj
 0001:00027b10       ?isInUserMemory@?$Array@UPxDebugText@physx@@VNamedAllocator@shdfnd@2@@shdfnd@physx@@QBEIXZ 10028b10 f i CctCharacterControllerManager.obj
 0001:00027b30       ?isInUserMemory@?$Array@UPxDebugTriangle@physx@@VNamedAllocator@shdfnd@2@@shdfnd@physx@@QBEIXZ 10028b30 f i CctCharacterControllerManager.obj
 0001:00027b50       ?isPowerOfTwo@shdfnd@physx@@YA_NI@Z 10028b50 f i CctCharacterControllerManager.obj
 0001:00027b90       ?isZeroInit@?$Array@PBXVNamedAllocator@shdfnd@physx@@@shdfnd@physx@@KA_NABQBX@Z 10028b90 f i CctCharacterControllerManager.obj
 0001:00027bf0       ?isZeroInit@?$Array@UPxExtendedCapsule@physx@@VNamedAllocator@shdfnd@2@@shdfnd@physx@@KA_NABUPxExtendedCapsule@3@@Z 10028bf0 f i CctCharacterControllerManager.obj
 0001:00027c60       ?isZeroInit@?$Array@VPxExtendedBox@physx@@VNamedAllocator@shdfnd@2@@shdfnd@physx@@KA_NABVPxExtendedBox@3@@Z 10028c60 f i CctCharacterControllerManager.obj
 0001:00027cd0       ?memSet@intrinsics@physx@@YAPAXPAXHI@Z 10028cd0 f i CctCharacterControllerManager.obj
 0001:00027cf0       ?memZero@intrinsics@physx@@YAPAXPAXI@Z 10028cf0 f i CctCharacterControllerManager.obj
 0001:00027d10       ?name@type_info@@QBEPBDXZ  10028d10 f i CctCharacterControllerManager.obj
 0001:00027d40       ?nextPowerOfTwo@shdfnd@physx@@YAII@Z 10028d40 f i CctCharacterControllerManager.obj
 0001:00027da0       ?pushBack@?$Array@PAVController@Cct@physx@@VNamedAllocator@shdfnd@3@@shdfnd@physx@@QAEAAPAVController@Cct@3@ABQAV453@@Z 10028da0 f i CctCharacterControllerManager.obj
 0001:00027e50       ?pushBack@?$Array@PAVObstacleContext@Cct@physx@@VNamedAllocator@shdfnd@3@@shdfnd@physx@@QAEAAPAVObstacleContext@Cct@3@ABQAV453@@Z 10028e50 f i CctCharacterControllerManager.obj
 0001:00027f00       ?pushBack@?$Array@UPxDebugLine@physx@@VNamedAllocator@shdfnd@2@@shdfnd@physx@@QAEAAUPxDebugLine@3@ABU43@@Z 10028f00 f i CctCharacterControllerManager.obj
 0001:00027fb0       ?pushBack@?$Array@UPxDebugPoint@physx@@VNamedAllocator@shdfnd@2@@shdfnd@physx@@QAEAAUPxDebugPoint@3@ABU43@@Z 10028fb0 f i CctCharacterControllerManager.obj
 0001:00028060       ?pushBack@?$Array@UPxDebugText@physx@@VNamedAllocator@shdfnd@2@@shdfnd@physx@@QAEAAUPxDebugText@3@ABU43@@Z 10029060 f i CctCharacterControllerManager.obj
 0001:00028110       ?pushBack@?$Array@UPxDebugTriangle@physx@@VNamedAllocator@shdfnd@2@@shdfnd@physx@@QAEAAUPxDebugTriangle@3@ABU43@@Z 10029110 f i CctCharacterControllerManager.obj
 0001:000281c0       ?recreate@?$Array@PBXVNamedAllocator@shdfnd@physx@@@shdfnd@physx@@IAEXI@Z 100291c0 f i CctCharacterControllerManager.obj
 0001:000282d0       ?recreate@?$Array@UPxDebugLine@physx@@VNamedAllocator@shdfnd@2@@shdfnd@physx@@IAEXI@Z 100292d0 f i CctCharacterControllerManager.obj
 0001:000283e0       ?recreate@?$Array@UPxDebugPoint@physx@@VNamedAllocator@shdfnd@2@@shdfnd@physx@@IAEXI@Z 100293e0 f i CctCharacterControllerManager.obj
 0001:000284f0       ?recreate@?$Array@UPxDebugText@physx@@VNamedAllocator@shdfnd@2@@shdfnd@physx@@IAEXI@Z 100294f0 f i CctCharacterControllerManager.obj
 0001:000285f0       ?recreate@?$Array@UPxDebugTriangle@physx@@VNamedAllocator@shdfnd@2@@shdfnd@physx@@IAEXI@Z 100295f0 f i CctCharacterControllerManager.obj
 0001:000286f0       ?recreate@?$Array@UPxExtendedCapsule@physx@@VNamedAllocator@shdfnd@2@@shdfnd@physx@@IAEXI@Z 100296f0 f i CctCharacterControllerManager.obj
 0001:000287f0       ?recreate@?$Array@VPxExtendedBox@physx@@VNamedAllocator@shdfnd@2@@shdfnd@physx@@IAEXI@Z 100297f0 f i CctCharacterControllerManager.obj
 0001:000288f0       ?replaceWithLast@?$Array@PAVController@Cct@physx@@VNamedAllocator@shdfnd@3@@shdfnd@physx@@QAEXI@Z 100298f0 f i CctCharacterControllerManager.obj
 0001:00028990       ?replaceWithLast@?$Array@PAVObstacleContext@Cct@physx@@VNamedAllocator@shdfnd@3@@shdfnd@physx@@QAEXI@Z 10029990 f i CctCharacterControllerManager.obj
 0001:00028a30       ?replaceWithLast@?$HashBase@PAVPxShape@physx@@PAV12@U?$Hash@PAVPxShape@physx@@@shdfnd@2@UGetKey@?$HashSetBase@PAVPxShape@physx@@U?$Hash@PAVPxShape@physx@@@shdfnd@2@VNonTrackingAllocator@42@$0A@@internal@42@VNonTrackingAllocator@42@$0A@@internal@shdfnd@physx@@AAEXI@Z 10029a30 f i CctCharacterControllerManager.obj
 0001:00028b80       ?replaceWithLast@?$HashBase@V?$Pair@QBVPxBase@physx@@UObservedRefCounter@Cct@2@@shdfnd@physx@@PBVPxBase@3@U?$Hash@PBVPxBase@physx@@@23@UGetKey@?$HashMapBase@PBVPxBase@physx@@UObservedRefCounter@Cct@2@U?$Hash@PBVPxBase@physx@@@shdfnd@2@VNonTrackingAllocator@62@@internal@23@VNonTrackingAllocator@23@$00@internal@shdfnd@physx@@AAEXI@Z 10029b80 f i CctCharacterControllerManager.obj
 0001:00028cd0       ?reserve@?$Array@PBXVNamedAllocator@shdfnd@physx@@@shdfnd@physx@@QAEXI@Z 10029cd0 f i CctCharacterControllerManager.obj
 0001:00028d00       ?reserve@?$Array@UPxDebugLine@physx@@VNamedAllocator@shdfnd@2@@shdfnd@physx@@QAEXI@Z 10029d00 f i CctCharacterControllerManager.obj
 0001:00028d30       ?reserve@?$Array@UPxDebugPoint@physx@@VNamedAllocator@shdfnd@2@@shdfnd@physx@@QAEXI@Z 10029d30 f i CctCharacterControllerManager.obj
 0001:00028d60       ?reserve@?$Array@UPxDebugText@physx@@VNamedAllocator@shdfnd@2@@shdfnd@physx@@QAEXI@Z 10029d60 f i CctCharacterControllerManager.obj
 0001:00028d90       ?reserve@?$Array@UPxDebugTriangle@physx@@VNamedAllocator@shdfnd@2@@shdfnd@physx@@QAEXI@Z 10029d90 f i CctCharacterControllerManager.obj
 0001:00028dc0       ?reserve@?$Array@UPxExtendedCapsule@physx@@VNamedAllocator@shdfnd@2@@shdfnd@physx@@QAEXI@Z 10029dc0 f i CctCharacterControllerManager.obj
 0001:00028df0       ?reserve@?$Array@VPxExtendedBox@physx@@VNamedAllocator@shdfnd@2@@shdfnd@physx@@QAEXI@Z 10029df0 f i CctCharacterControllerManager.obj
 0001:00028e20       ?reserve@?$HashBase@PAVPxShape@physx@@PAV12@U?$Hash@PAVPxShape@physx@@@shdfnd@2@UGetKey@?$HashSetBase@PAVPxShape@physx@@U?$Hash@PAVPxShape@physx@@@shdfnd@2@VNonTrackingAllocator@42@$0A@@internal@42@VNonTrackingAllocator@42@$0A@@internal@shdfnd@physx@@QAEXI@Z 10029e20 f i CctCharacterControllerManager.obj
 0001:00028e50       ?reserve@?$HashBase@V?$Pair@QBVPxBase@physx@@UObservedRefCounter@Cct@2@@shdfnd@physx@@PBVPxBase@3@U?$Hash@PBVPxBase@physx@@@23@UGetKey@?$HashMapBase@PBVPxBase@physx@@UObservedRefCounter@Cct@2@U?$Hash@PBVPxBase@physx@@@shdfnd@2@VNonTrackingAllocator@62@@internal@23@VNonTrackingAllocator@23@$00@internal@shdfnd@physx@@QAEXI@Z 10029e50 f i CctCharacterControllerManager.obj
 0001:00028e80       ?reserveInternal@?$HashBase@PAVPxShape@physx@@PAV12@U?$Hash@PAVPxShape@physx@@@shdfnd@2@UGetKey@?$HashSetBase@PAVPxShape@physx@@U?$Hash@PAVPxShape@physx@@@shdfnd@2@VNonTrackingAllocator@42@$0A@@internal@42@VNonTrackingAllocator@42@$0A@@internal@shdfnd@physx@@AAEXI@Z 10029e80 f i CctCharacterControllerManager.obj
 0001:000293b0       ?reserveInternal@?$HashBase@V?$Pair@QBVPxBase@physx@@UObservedRefCounter@Cct@2@@shdfnd@physx@@PBVPxBase@3@U?$Hash@PBVPxBase@physx@@@23@UGetKey@?$HashMapBase@PBVPxBase@physx@@UObservedRefCounter@Cct@2@U?$Hash@PBVPxBase@physx@@@shdfnd@2@VNonTrackingAllocator@62@@internal@23@VNonTrackingAllocator@23@$00@internal@shdfnd@physx@@AAEXI@Z 1002a3b0 f i CctCharacterControllerManager.obj
 0001:00029860       ?reset@?$Array@PBXVNamedAllocator@shdfnd@physx@@@shdfnd@physx@@QAEXXZ 1002a860 f i CctCharacterControllerManager.obj
 0001:000298a0       ?reset@?$Array@UPxExtendedCapsule@physx@@VNamedAllocator@shdfnd@2@@shdfnd@physx@@QAEXXZ 1002a8a0 f i CctCharacterControllerManager.obj
 0001:000298f0       ?reset@?$Array@VPxExtendedBox@physx@@VNamedAllocator@shdfnd@2@@shdfnd@physx@@QAEXXZ 1002a8f0 f i CctCharacterControllerManager.obj
 0001:00029930       ?resize@?$Array@PBXVNamedAllocator@shdfnd@physx@@@shdfnd@physx@@QAEXIABQBX@Z 1002a930 f i CctCharacterControllerManager.obj
 0001:000299c0       ?resize@?$Array@UPxExtendedCapsule@physx@@VNamedAllocator@shdfnd@2@@shdfnd@physx@@QAEXIABUPxExtendedCapsule@3@@Z 1002a9c0 f i CctCharacterControllerManager.obj
 0001:00029a40       ?resize@?$Array@VPxExtendedBox@physx@@VNamedAllocator@shdfnd@2@@shdfnd@physx@@QAEXIABVPxExtendedBox@3@@Z 1002aa40 f i CctCharacterControllerManager.obj
 0001:00029ac0       ?setCctManager@?$TouchedObject@VPxRigidActor@physx@@@Cct@physx@@QAEXPAVCharacterControllerManager@23@@Z 1002aac0 f i CctCharacterControllerManager.obj
 0001:00029ae0       ?setCctManager@?$TouchedObject@VPxShape@physx@@@Cct@physx@@QAEXPAVCharacterControllerManager@23@@Z 1002aae0 f i CctCharacterControllerManager.obj
 0001:00029b00       ?setCctManager@Controller@Cct@physx@@QAEXPAVCharacterControllerManager@23@@Z 1002ab00 f i CctCharacterControllerManager.obj
 0001:00029b40       ?setCctManager@SweepTest@Cct@physx@@QAEXPAVCharacterControllerManager@23@@Z 1002ab40 f i CctCharacterControllerManager.obj
 0001:00029b90       ?setErrorLevel@Foundation@shdfnd@physx@@UAEXW4Enum@PxErrorCode@3@@Z 1002ab90 f i CctCharacterControllerManager.obj
 0001:00029bb0       ?setReportAllocationNames@Foundation@shdfnd@physx@@UAEX_N@Z 1002abb0 f i CctCharacterControllerManager.obj
 0001:00029bd0       ?shift@RenderBuffer@Cm@physx@@QAEXABVPxVec3@3@@Z 1002abd0 f i CctCharacterControllerManager.obj
 0001:00029d90       ?shrink@?$Array@PBXVNamedAllocator@shdfnd@physx@@@shdfnd@physx@@QAEXXZ 1002ad90 f i CctCharacterControllerManager.obj
 0001:00029db0       ?shrink@?$Array@UPxExtendedCapsule@physx@@VNamedAllocator@shdfnd@2@@shdfnd@physx@@QAEXXZ 1002adb0 f i CctCharacterControllerManager.obj
 0001:00029dd0       ?shrink@?$Array@VPxExtendedBox@physx@@VNamedAllocator@shdfnd@2@@shdfnd@physx@@QAEXXZ 1002add0 f i CctCharacterControllerManager.obj
 0001:00029df0       ?size@?$Array@PAVController@Cct@physx@@VNamedAllocator@shdfnd@3@@shdfnd@physx@@QBEIXZ 1002adf0 f i CctCharacterControllerManager.obj
 0001:00029e10       ?size@?$Array@PAVObstacleContext@Cct@physx@@VNamedAllocator@shdfnd@3@@shdfnd@physx@@QBEIXZ 1002ae10 f i CctCharacterControllerManager.obj
 0001:00029e30       ?size@?$Array@UPxDebugLine@physx@@VNamedAllocator@shdfnd@2@@shdfnd@physx@@QBEIXZ 1002ae30 f i CctCharacterControllerManager.obj
 0001:00029e50       ?size@?$Array@UPxDebugPoint@physx@@VNamedAllocator@shdfnd@2@@shdfnd@physx@@QBEIXZ 1002ae50 f i CctCharacterControllerManager.obj
 0001:00029e70       ?size@?$Array@UPxDebugText@physx@@VNamedAllocator@shdfnd@2@@shdfnd@physx@@QBEIXZ 1002ae70 f i CctCharacterControllerManager.obj
 0001:00029e90       ?size@?$Array@UPxDebugTriangle@physx@@VNamedAllocator@shdfnd@2@@shdfnd@physx@@QBEIXZ 1002ae90 f i CctCharacterControllerManager.obj
 0001:00029eb0       ??0Controller@Cct@physx@@QAE@ABVPxControllerDesc@2@PAVPxScene@2@@Z 1002aeb0 f   CctController.obj
 0001:0002a130       ??1Controller@Cct@physx@@UAE@XZ 1002b130 f   CctController.obj
 0001:0002a190       ?releaseInternal@Controller@Cct@physx@@QAEXXZ 1002b190 f   CctController.obj
 0001:0002a1c0       ?getInternalState@Controller@Cct@physx@@QBEXAAUPxControllerState@3@@Z 1002b1c0 f   CctController.obj
 0001:0002a2f0       ?getInternalStats@Controller@Cct@physx@@QBEXAAUPxControllerStats@3@@Z 1002b2f0 f   CctController.obj
 0001:0002a340       ?onOriginShift@Controller@Cct@physx@@QAEXABVPxVec3@3@@Z 1002b340 f   CctController.obj
 0001:0002a3d0       ?onRelease@Controller@Cct@physx@@QAEXABVPxBase@3@@Z 1002b3d0 f   CctController.obj
 0001:0002a3f0       ?setUpDirectionInternal@Controller@Cct@physx@@IAEXABVPxVec3@3@@Z 1002b3f0 f   CctController.obj
 0001:0002a4a0       ?getKineShape@Controller@Cct@physx@@IBEPAVPxShape@3@XZ 1002b4a0 f   CctController.obj
 0001:0002a530       ?createProxyActor@Controller@Cct@physx@@IAE_NAAVPxPhysics@3@ABVPxGeometry@3@ABVPxMaterial@3@@Z 1002b530 f   CctController.obj
 0001:0002a670       ?setPos@Controller@Cct@physx@@IAE_NABUPxExtendedVec3@3@@Z 1002b670 f   CctController.obj
 0001:0002a950       ??0?$PxFlags@W4Enum@PxShapeFlag@physx@@E@physx@@QAE@W4Enum@PxShapeFlag@1@@Z 1002b950 f i CctController.obj
 0001:0002a970       ??8PxVec3@physx@@QBE_NABV01@@Z 1002b970 f i CctController.obj
 0001:0002a9f0       ??B?$PxFlags@W4Enum@PxControllerCollisionFlag@physx@@E@physx@@QBEIXZ 1002b9f0 f i CctController.obj
 0001:0002aa10       ??U?$PxFlags@W4Enum@PxShapeFlag@physx@@E@physx@@QBE?AV01@W4Enum@PxShapeFlag@1@@Z 1002ba10 f i CctController.obj
 0001:0002aa60       ??Uphysx@@YA?AV?$PxFlags@W4Enum@PxShapeFlag@physx@@E@0@W4Enum@PxShapeFlag@0@0@Z 1002ba60 f i CctController.obj
 0001:0002aaa0       ??_5?$PxFlags@W4Enum@PxShapeFlag@physx@@E@physx@@QAEAAV01@W4Enum@PxShapeFlag@1@@Z 1002baa0 f i CctController.obj
 0001:0002aad0       ??_EController@Cct@physx@@UAEPAXI@Z 1002bad0 f i CctController.obj
 0001:0002aad0       ??_GController@Cct@physx@@UAEPAXI@Z 1002bad0 f i CctController.obj
 0001:0002ab30       ?createShape@PxPhysics@physx@@QAEPAVPxShape@2@ABVPxGeometry@2@ABVPxMaterial@2@_NV?$PxFlags@W4Enum@PxShapeFlag@physx@@E@2@@Z 1002bb30 f i CctController.obj
 0001:0002ab80       ?isNormalized@PxVec3@physx@@QBE_NXZ 1002bb80 f i CctController.obj
 0001:0002ac10       ??0HandleManager@Cct@physx@@QAE@XZ 1002bc10 f   CctObstacleContext.obj
 0001:0002ad60       ??1HandleManager@Cct@physx@@QAE@XZ 1002bd60 f   CctObstacleContext.obj
 0001:0002ad80       ?Add@HandleManager@Cct@physx@@QAEIPAX@Z 1002bd80 f   CctObstacleContext.obj
 0001:0002b0d0       ?Remove@HandleManager@Cct@physx@@QAEXI@Z 1002c0d0 f   CctObstacleContext.obj
 0001:0002b220       ?GetObject@HandleManager@Cct@physx@@QBEPAXI@Z 1002c220 f   CctObstacleContext.obj
 0001:0002b2b0       ?UpdateObject@HandleManager@Cct@physx@@QAE_NIPAX@Z 1002c2b0 f   CctObstacleContext.obj
 0001:0002b340       ?SetupLists@HandleManager@Cct@physx@@AAE_NPAPAXPAG11@Z 1002c340 f   CctObstacleContext.obj
 0001:0002b400       ??0ObstacleContext@Cct@physx@@QAE@AAVCharacterControllerManager@12@@Z 1002c400 f   CctObstacleContext.obj
 0001:0002b480       ??1ObstacleContext@Cct@physx@@UAE@XZ 1002c480 f   CctObstacleContext.obj
 0001:0002b4c0       ?release@ObstacleContext@Cct@physx@@UAEXXZ 1002c4c0 f   CctObstacleContext.obj
 0001:0002b4e0       ?getControllerManager@ObstacleContext@Cct@physx@@UBEAAVPxControllerManager@3@XZ 1002c4e0 f   CctObstacleContext.obj
 0001:0002b500       ?addObstacle@ObstacleContext@Cct@physx@@UAEIABVPxObstacle@3@@Z 1002c500 f   CctObstacleContext.obj
 0001:0002b600       ?removeObstacle@ObstacleContext@Cct@physx@@UAE_NI@Z 1002c600 f   CctObstacleContext.obj
 0001:0002b7b0       ?updateObstacle@ObstacleContext@Cct@physx@@UAE_NIABVPxObstacle@3@@Z 1002c7b0 f   CctObstacleContext.obj
 0001:0002b990       ?getNbObstacles@ObstacleContext@Cct@physx@@UBEIXZ 1002c990 f   CctObstacleContext.obj
 0001:0002b9c0       ?getObstacle@ObstacleContext@Cct@physx@@UBEPBVPxObstacle@3@I@Z 1002c9c0 f   CctObstacleContext.obj
 0001:0002ba30       ?getObstacleByHandle@ObstacleContext@Cct@physx@@UBEPBVPxObstacle@3@I@Z 1002ca30 f   CctObstacleContext.obj
 0001:0002bb90       ?raycastSingle@ObstacleContext@Cct@physx@@QBEPBVPxObstacle@3@AAUPxRaycastHit@3@ABVPxVec3@3@1MAAI@Z 1002cb90 f   CctObstacleContext.obj
 0001:0002be70       ?raycastSingle@ObstacleContext@Cct@physx@@QBEPBVPxObstacle@3@AAUPxRaycastHit@3@ABIABVPxVec3@3@2M@Z 1002ce70 f   CctObstacleContext.obj
 0001:0002c060       ?onOriginShift@ObstacleContext@Cct@physx@@QAEXABVPxVec3@3@@Z 1002d060 f   CctObstacleContext.obj
 0001:0002c890       ??$PX_UNUSED@_N@@YAXAB_N@Z 1002d890 f i CctObstacleContext.obj
 0001:0002c8a0       ??0?$Array@UInternalBoxObstacle@ObstacleContext@Cct@physx@@VNamedAllocator@shdfnd@4@@shdfnd@physx@@QAE@ABVNamedAllocator@12@@Z 1002d8a0 f i CctObstacleContext.obj
 0001:0002c8f0       ??0?$Array@UInternalCapsuleObstacle@ObstacleContext@Cct@physx@@VNamedAllocator@shdfnd@4@@shdfnd@physx@@QAE@ABVNamedAllocator@12@@Z 1002d8f0 f i CctObstacleContext.obj
 0001:0002c940       ??0InternalBoxObstacle@ObstacleContext@Cct@physx@@QAE@ABU0123@@Z 1002d940 f i CctObstacleContext.obj
 0001:0002c980       ??0InternalBoxObstacle@ObstacleContext@Cct@physx@@QAE@IABVPxBoxObstacle@3@@Z 1002d980 f i CctObstacleContext.obj
 0001:0002c9b0       ??0InternalCapsuleObstacle@ObstacleContext@Cct@physx@@QAE@ABU0123@@Z 1002d9b0 f i CctObstacleContext.obj
 0001:0002c9f0       ??0InternalCapsuleObstacle@ObstacleContext@Cct@physx@@QAE@IABVPxCapsuleObstacle@3@@Z 1002d9f0 f i CctObstacleContext.obj
 0001:0002ca20       ??0PxBoxObstacle@physx@@QAE@ABV01@@Z 1002da20 f i CctObstacleContext.obj
 0001:0002ca60       ??0PxCapsuleObstacle@physx@@QAE@ABV01@@Z 1002da60 f i CctObstacleContext.obj
 0001:0002cab0       ??0PxObstacle@physx@@QAE@ABV01@@Z 1002dab0 f i CctObstacleContext.obj
 0001:0002cb30       ??0PxObstacleContext@physx@@QAE@XZ 1002db30 f i CctObstacleContext.obj
 0001:0002cb50       ??1?$Array@UInternalBoxObstacle@ObstacleContext@Cct@physx@@VNamedAllocator@shdfnd@4@@shdfnd@physx@@QAE@XZ 1002db50 f i CctObstacleContext.obj
 0001:0002cbc0       ??1?$Array@UInternalCapsuleObstacle@ObstacleContext@Cct@physx@@VNamedAllocator@shdfnd@4@@shdfnd@physx@@QAE@XZ 1002dbc0 f i CctObstacleContext.obj
 0001:0002cc30       ??1PxObstacleContext@physx@@UAE@XZ 1002dc30 f i CctObstacleContext.obj
 0001:0002cc50       ??4InternalBoxObstacle@ObstacleContext@Cct@physx@@QAEAAU0123@ABU0123@@Z 1002dc50 f i CctObstacleContext.obj
 0001:0002cc90       ??4InternalCapsuleObstacle@ObstacleContext@Cct@physx@@QAEAAU0123@ABU0123@@Z 1002dc90 f i CctObstacleContext.obj
 0001:0002ccd0       ??4PxBoxObstacle@physx@@QAEAAV01@ABV01@@Z 1002dcd0 f i CctObstacleContext.obj
 0001:0002cd10       ??4PxCapsuleObstacle@physx@@QAEAAV01@ABV01@@Z 1002dd10 f i CctObstacleContext.obj
 0001:0002cd60       ??4PxObstacle@physx@@QAEAAV01@ABV01@@Z 1002dd60 f i CctObstacleContext.obj
 0001:0002cde0       ??A?$Array@UInternalBoxObstacle@ObstacleContext@Cct@physx@@VNamedAllocator@shdfnd@4@@shdfnd@physx@@QAEAAUInternalBoxObstacle@ObstacleContext@Cct@2@I@Z 1002dde0 f i CctObstacleContext.obj
 0001:0002ce50       ??A?$Array@UInternalCapsuleObstacle@ObstacleContext@Cct@physx@@VNamedAllocator@shdfnd@4@@shdfnd@physx@@QAEAAUInternalCapsuleObstacle@ObstacleContext@Cct@2@I@Z 1002de50 f i CctObstacleContext.obj
 0001:0002cec0       ??_GObstacleContext@Cct@physx@@UAEPAXI@Z 1002dec0 f i CctObstacleContext.obj
 0001:0002cec0       ??_EObstacleContext@Cct@physx@@UAEPAXI@Z 1002dec0 f i CctObstacleContext.obj
 0001:0002cf20       ??_GPxObstacleContext@physx@@UAEPAXI@Z 1002df20 f i CctObstacleContext.obj
 0001:0002cf20       ??_EPxObstacleContext@physx@@UAEPAXI@Z 1002df20 f i CctObstacleContext.obj
 0001:0002cf60       ?PxMemCopy@physx@@YAPAXPIAXPIBXI@Z 1002df60 f i CctObstacleContext.obj
 0001:0002cf80       ?PxMemSet@physx@@YAPAXPAXHI@Z 1002df80 f i CctObstacleContext.obj
 0001:0002cfa0       ?PxMemZero@physx@@YAPAXPAXI@Z 1002dfa0 f i CctObstacleContext.obj
 0001:0002cfc0       ?allocate@?$Array@UInternalBoxObstacle@ObstacleContext@Cct@physx@@VNamedAllocator@shdfnd@4@@shdfnd@physx@@IAEPAUInternalBoxObstacle@ObstacleContext@Cct@3@I@Z 1002dfc0 f i CctObstacleContext.obj
 0001:0002d040       ?allocate@?$Array@UInternalCapsuleObstacle@ObstacleContext@Cct@physx@@VNamedAllocator@shdfnd@4@@shdfnd@physx@@IAEPAUInternalCapsuleObstacle@ObstacleContext@Cct@3@I@Z 1002e040 f i CctObstacleContext.obj
 0001:0002d0c0       ?capacity@?$Array@UInternalBoxObstacle@ObstacleContext@Cct@physx@@VNamedAllocator@shdfnd@4@@shdfnd@physx@@QBEIXZ 1002e0c0 f i CctObstacleContext.obj
 0001:0002d0e0       ?capacity@?$Array@UInternalCapsuleObstacle@ObstacleContext@Cct@physx@@VNamedAllocator@shdfnd@4@@shdfnd@physx@@QBEIXZ 1002e0e0 f i CctObstacleContext.obj
 0001:0002d100       ?capacityIncrement@?$Array@UInternalBoxObstacle@ObstacleContext@Cct@physx@@VNamedAllocator@shdfnd@4@@shdfnd@physx@@IBEIXZ 1002e100 f i CctObstacleContext.obj
 0001:0002d140       ?capacityIncrement@?$Array@UInternalCapsuleObstacle@ObstacleContext@Cct@physx@@VNamedAllocator@shdfnd@4@@shdfnd@physx@@IBEIXZ 1002e140 f i CctObstacleContext.obj
 0001:0002d180       ?copy@?$Array@UInternalBoxObstacle@ObstacleContext@Cct@physx@@VNamedAllocator@shdfnd@4@@shdfnd@physx@@KAXPAUInternalBoxObstacle@ObstacleContext@Cct@3@0PBU4563@@Z 1002e180 f i CctObstacleContext.obj
 0001:0002d240       ?copy@?$Array@UInternalCapsuleObstacle@ObstacleContext@Cct@physx@@VNamedAllocator@shdfnd@4@@shdfnd@physx@@KAXPAUInternalCapsuleObstacle@ObstacleContext@Cct@3@0PBU4563@@Z 1002e240 f i CctObstacleContext.obj
 0001:0002d2f0       ?deallocate@?$Array@UInternalBoxObstacle@ObstacleContext@Cct@physx@@VNamedAllocator@shdfnd@4@@shdfnd@physx@@IAEXPAX@Z 1002e2f0 f i CctObstacleContext.obj
 0001:0002d310       ?deallocate@?$Array@UInternalCapsuleObstacle@ObstacleContext@Cct@physx@@VNamedAllocator@shdfnd@4@@shdfnd@physx@@IAEXPAX@Z 1002e310 f i CctObstacleContext.obj
 0001:0002d330       ?destroy@?$Array@UInternalBoxObstacle@ObstacleContext@Cct@physx@@VNamedAllocator@shdfnd@4@@shdfnd@physx@@KAXPAUInternalBoxObstacle@ObstacleContext@Cct@3@0@Z 1002e330 f i CctObstacleContext.obj
 0001:0002d360       ?destroy@?$Array@UInternalCapsuleObstacle@ObstacleContext@Cct@physx@@VNamedAllocator@shdfnd@4@@shdfnd@physx@@KAXPAUInternalCapsuleObstacle@ObstacleContext@Cct@3@0@Z 1002e360 f i CctObstacleContext.obj
 0001:0002d390       ?getType@PxObstacle@physx@@QBE?AW4Enum@PxGeometryType@2@XZ 1002e390 f i CctObstacleContext.obj
 0001:0002d3b0       ?growAndPushBack@?$Array@UInternalBoxObstacle@ObstacleContext@Cct@physx@@VNamedAllocator@shdfnd@4@@shdfnd@physx@@IAEAAUInternalBoxObstacle@ObstacleContext@Cct@3@ABU4563@@Z 1002e3b0 f i CctObstacleContext.obj
 0001:0002d530       ?growAndPushBack@?$Array@UInternalCapsuleObstacle@ObstacleContext@Cct@physx@@VNamedAllocator@shdfnd@4@@shdfnd@physx@@IAEAAUInternalCapsuleObstacle@ObstacleContext@Cct@3@ABU4563@@Z 1002e530 f i CctObstacleContext.obj
 0001:0002d6c0       ?isArrayOfPOD@?$Array@UInternalBoxObstacle@ObstacleContext@Cct@physx@@VNamedAllocator@shdfnd@4@@shdfnd@physx@@SA_NXZ 1002e6c0 f i CctObstacleContext.obj
 0001:0002d6d0       ?isArrayOfPOD@?$Array@UInternalCapsuleObstacle@ObstacleContext@Cct@physx@@VNamedAllocator@shdfnd@4@@shdfnd@physx@@SA_NXZ 1002e6d0 f i CctObstacleContext.obj
 0001:0002d6e0       ?isInUserMemory@?$Array@UInternalBoxObstacle@ObstacleContext@Cct@physx@@VNamedAllocator@shdfnd@4@@shdfnd@physx@@QBEIXZ 1002e6e0 f i CctObstacleContext.obj
 0001:0002d700       ?isInUserMemory@?$Array@UInternalCapsuleObstacle@ObstacleContext@Cct@physx@@VNamedAllocator@shdfnd@4@@shdfnd@physx@@QBEIXZ 1002e700 f i CctObstacleContext.obj
 0001:0002d720       ?pushBack@?$Array@UInternalBoxObstacle@ObstacleContext@Cct@physx@@VNamedAllocator@shdfnd@4@@shdfnd@physx@@QAEAAUInternalBoxObstacle@ObstacleContext@Cct@3@ABU4563@@Z 1002e720 f i CctObstacleContext.obj
 0001:0002d7d0       ?pushBack@?$Array@UInternalCapsuleObstacle@ObstacleContext@Cct@physx@@VNamedAllocator@shdfnd@4@@shdfnd@physx@@QAEAAUInternalCapsuleObstacle@ObstacleContext@Cct@3@ABU4563@@Z 1002e7d0 f i CctObstacleContext.obj
 0001:0002d880       ?replaceWithLast@?$Array@UInternalBoxObstacle@ObstacleContext@Cct@physx@@VNamedAllocator@shdfnd@4@@shdfnd@physx@@QAEXI@Z 1002e880 f i CctObstacleContext.obj
 0001:0002d920       ?replaceWithLast@?$Array@UInternalCapsuleObstacle@ObstacleContext@Cct@physx@@VNamedAllocator@shdfnd@4@@shdfnd@physx@@QAEXI@Z 1002e920 f i CctObstacleContext.obj
 0001:0002d9d0       ?to16@shdfnd@physx@@YAGI@Z 1002e9d0 f i CctObstacleContext.obj
 0001:0002da30       ??0SweptBox@Cct@physx@@QAE@XZ 1002ea30 f   CctSweptBox.obj
 0001:0002da70       ??1SweptBox@Cct@physx@@UAE@XZ 1002ea70 f   CctSweptBox.obj
 0001:0002da90       ?computeTemporalBox@SweptBox@Cct@physx@@UBEXABVSweepTest@23@AAUPxExtendedBounds3@3@ABUPxExtendedVec3@3@ABVPxVec3@3@@Z 1002ea90 f   CctSweptBox.obj
 0001:0002db80       ??$PxMax@M@physx@@YAMMM@Z  1002eb80 f i CctSweptBox.obj
 0001:0002dbb0       ??_GSweptBox@Cct@physx@@UAEPAXI@Z 1002ebb0 f i CctSweptBox.obj
 0001:0002dbb0       ??_ESweptBox@Cct@physx@@UAEPAXI@Z 1002ebb0 f i CctSweptBox.obj
 0001:0002dbf0       ??0SweptCapsule@Cct@physx@@QAE@XZ 1002ebf0 f   CctSweptCapsule.obj
 0001:0002dc20       ??1SweptCapsule@Cct@physx@@UAE@XZ 1002ec20 f   CctSweptCapsule.obj
 0001:0002dc40       ?computeTemporalBox@SweptCapsule@Cct@physx@@UBEXABVSweepTest@23@AAUPxExtendedBounds3@3@ABUPxExtendedVec3@3@ABVPxVec3@3@@Z 1002ec40 f   CctSweptCapsule.obj
 0001:0002dce0       ??_ESweptCapsule@Cct@physx@@UAEPAXI@Z 1002ece0 f i CctSweptCapsule.obj
 0001:0002dce0       ??_GSweptCapsule@Cct@physx@@UAEPAXI@Z 1002ece0 f i CctSweptCapsule.obj
 0001:0002dd20       ??0SweptVolume@Cct@physx@@QAE@XZ 1002ed20 f   CctSweptVolume.obj
 0001:0002dd50       ??1SweptVolume@Cct@physx@@UAE@XZ 1002ed50 f   CctSweptVolume.obj
 0001:0002dd70       ?computeTemporalBox@Cct@physx@@YAXAAUPxExtendedBounds3@2@MMMMABVPxVec3@2@ABUPxExtendedVec3@2@1@Z 1002ed70 f   CctSweptVolume.obj
 0001:0002dff0       ??_ESweptVolume@Cct@physx@@UAEPAXI@Z 1002eff0 f i CctSweptVolume.obj
 0001:0002dff0       ??_GSweptVolume@Cct@physx@@UAEPAXI@Z 1002eff0 f i CctSweptVolume.obj
 0001:0002e030       ??0PxMeshOverlapUtil@physx@@QAE@XZ 1002f030 f   PhysX3ExtensionsDEBUG:ExtTriangleMeshExt.obj
 0001:0002e070       ??1PxMeshOverlapUtil@physx@@QAE@XZ 1002f070 f   PhysX3ExtensionsDEBUG:ExtTriangleMeshExt.obj
 0001:0002e0b0       ?findOverlap@PxMeshOverlapUtil@physx@@QAEIABVPxGeometry@2@ABVPxTransform@2@ABVPxTriangleMeshGeometry@2@1@Z 1002f0b0 f   PhysX3ExtensionsDEBUG:ExtTriangleMeshExt.obj
 0001:0002e250       ?findOverlap@PxMeshOverlapUtil@physx@@QAEIABVPxGeometry@2@ABVPxTransform@2@ABVPxHeightFieldGeometry@2@1@Z 1002f250 f   PhysX3ExtensionsDEBUG:ExtTriangleMeshExt.obj
 0001:0002e330       ?PxComputeMeshPenetration@physx@@YA?AVPxVec3@1@IABVPxGeometry@1@ABVPxTransform@1@ABVPxTriangleMeshGeometry@1@1AAI@Z 1002f330 f   PhysX3ExtensionsDEBUG:ExtTriangleMeshExt.obj
 0001:0002e390       ?PxComputeTriangleMeshPenetration@physx@@YA_NAAVPxVec3@1@AAMABVPxGeometry@1@ABVPxTransform@1@ABVPxTriangleMeshGeometry@1@3IPAI@Z 1002f390 f   PhysX3ExtensionsDEBUG:ExtTriangleMeshExt.obj
 0001:0002e3c0       ?PxComputeHeightFieldPenetration@physx@@YA?AVPxVec3@1@IABVPxGeometry@1@ABVPxTransform@1@ABVPxHeightFieldGeometry@1@1AAI@Z 1002f3c0 f   PhysX3ExtensionsDEBUG:ExtTriangleMeshExt.obj
 0001:0002e420       ?PxComputeHeightFieldPenetration@physx@@YA_NAAVPxVec3@1@AAMABVPxGeometry@1@ABVPxTransform@1@ABVPxHeightFieldGeometry@1@3IPAI@Z 1002f420 f   PhysX3ExtensionsDEBUG:ExtTriangleMeshExt.obj
 0001:0002e7e0       ??0PxTransform@physx@@QAE@ABV01@@Z 1002f7e0 f i PhysX3ExtensionsDEBUG:ExtTriangleMeshExt.obj
 0001:0002e820       ??KPxVec3@physx@@QBE?AV01@M@Z 1002f820 f i PhysX3ExtensionsDEBUG:ExtTriangleMeshExt.obj
 0001:0002e8a0       ?updateMassAndInertia@PxRigidBodyExt@physx@@SA_NAAVPxRigidBody@2@PBMIPBVPxVec3@2@_N@Z 1002f8a0 f   PhysX3ExtensionsDEBUG:ExtRigidBodyExt.obj
 0001:0002e8d0       ?updateMassAndInertia@PxRigidBodyExt@physx@@SA_NAAVPxRigidBody@2@MPBVPxVec3@2@_N@Z 1002f8d0 f   PhysX3ExtensionsDEBUG:ExtRigidBodyExt.obj
 0001:0002e900       ?setMassAndUpdateInertia@PxRigidBodyExt@physx@@SA_NAAVPxRigidBody@2@PBMIPBVPxVec3@2@_N@Z 1002f900 f   PhysX3ExtensionsDEBUG:ExtRigidBodyExt.obj
 0001:0002e930       ?setMassAndUpdateInertia@PxRigidBodyExt@physx@@SA_NAAVPxRigidBody@2@MPBVPxVec3@2@_N@Z 1002f930 f   PhysX3ExtensionsDEBUG:ExtRigidBodyExt.obj
 0001:0002e960       ?computeMassPropertiesFromShapes@PxRigidBodyExt@physx@@SA?AVPxMassProperties@2@PBQBVPxShape@2@I@Z 1002f960 f   PhysX3ExtensionsDEBUG:ExtRigidBodyExt.obj
 0001:0002ea90       ?addForceAtPos@PxRigidBodyExt@physx@@SAXAAVPxRigidBody@2@ABVPxVec3@2@1W4Enum@PxForceMode@2@_N@Z 1002fa90 f   PhysX3ExtensionsDEBUG:ExtRigidBodyExt.obj
 0001:0002eac0       ?addForceAtLocalPos@PxRigidBodyExt@physx@@SAXAAVPxRigidBody@2@ABVPxVec3@2@1W4Enum@PxForceMode@2@_N@Z 1002fac0 f   PhysX3ExtensionsDEBUG:ExtRigidBodyExt.obj
 0001:0002eb10       ?addLocalForceAtPos@PxRigidBodyExt@physx@@SAXAAVPxRigidBody@2@ABVPxVec3@2@1W4Enum@PxForceMode@2@_N@Z 1002fb10 f   PhysX3ExtensionsDEBUG:ExtRigidBodyExt.obj
 0001:0002eb60       ?addLocalForceAtLocalPos@PxRigidBodyExt@physx@@SAXAAVPxRigidBody@2@ABVPxVec3@2@1W4Enum@PxForceMode@2@_N@Z 1002fb60 f   PhysX3ExtensionsDEBUG:ExtRigidBodyExt.obj
 0001:0002ebc0       ?getVelocityAtPos@PxRigidBodyExt@physx@@SA?AVPxVec3@2@ABVPxRigidBody@2@ABV32@@Z 1002fbc0 f   PhysX3ExtensionsDEBUG:ExtRigidBodyExt.obj
 0001:0002ec30       ?getLocalVelocityAtLocalPos@PxRigidBodyExt@physx@@SA?AVPxVec3@2@ABVPxRigidBody@2@ABV32@@Z 1002fc30 f   PhysX3ExtensionsDEBUG:ExtRigidBodyExt.obj
 0001:0002ecb0       ?getVelocityAtOffset@PxRigidBodyExt@physx@@SA?AVPxVec3@2@ABVPxRigidBody@2@ABV32@@Z 1002fcb0 f   PhysX3ExtensionsDEBUG:ExtRigidBodyExt.obj
 0001:0002ed20       ?linearSweepSingle@PxRigidBodyExt@physx@@SA_NAAVPxRigidBody@2@AAVPxScene@2@ABVPxVec3@2@MV?$PxFlags@W4Enum@PxHitFlag@physx@@G@2@AAUPxSweepHit@2@AAIABUPxQueryFilterData@2@PAVPxQueryFilterCallback@2@PBUPxQueryCache@2@M@Z 1002fd20 f   PhysX3ExtensionsDEBUG:ExtRigidBodyExt.obj
 0001:0002ef50       ?linearSweepMultiple@PxRigidBodyExt@physx@@SAIAAVPxRigidBody@2@AAVPxScene@2@ABVPxVec3@2@MV?$PxFlags@W4Enum@PxHitFlag@physx@@G@2@PAUPxSweepHit@2@PAIIAAU72@AAHAA_NABUPxQueryFilterData@2@PAVPxQueryFilterCallback@2@PBUPxQueryCache@2@M@Z 1002ff50 f   PhysX3ExtensionsDEBUG:ExtRigidBodyExt.obj
 0001:0002f380       ?computeVelocityDeltaFromImpulse@PxRigidBodyExt@physx@@SAXABVPxRigidBody@2@ABVPxVec3@2@1AAV42@2@Z 10030380 f   PhysX3ExtensionsDEBUG:ExtRigidBodyExt.obj
 0001:0002f890       ?computeVelocityDeltaFromImpulse@PxRigidBodyExt@physx@@SAXABVPxRigidBody@2@ABVPxTransform@2@ABVPxVec3@2@2MMAAV52@3@Z 10030890 f   PhysX3ExtensionsDEBUG:ExtRigidBodyExt.obj
 0001:0002f990       ?computeLinearAngularImpulse@PxRigidBodyExt@physx@@SAXABVPxRigidBody@2@ABVPxTransform@2@ABVPxVec3@2@2MMAAV52@3@Z 10030990 f   PhysX3ExtensionsDEBUG:ExtRigidBodyExt.obj
 0001:0002fa20       ??0InertiaTensorComputer@Ext@physx@@QAE@_N@Z 10030a20 f   PhysX3ExtensionsDEBUG:ExtRigidBodyExt.obj
 0001:0002fa60       ??0InertiaTensorComputer@Ext@physx@@QAE@ABVPxMat33@2@ABVPxVec3@2@M@Z 10030a60 f   PhysX3ExtensionsDEBUG:ExtRigidBodyExt.obj
 0001:0002faa0       ??1InertiaTensorComputer@Ext@physx@@QAE@XZ 10030aa0 f   PhysX3ExtensionsDEBUG:ExtRigidBodyExt.obj
 0001:0002fab0       ?translate@InertiaTensorComputer@Ext@physx@@QAEXABVPxVec3@3@@Z 10030ab0 f   PhysX3ExtensionsDEBUG:ExtRigidBodyExt.obj
 0001:0002fdd0       ?setBox@InertiaTensorComputer@Ext@physx@@QAEXABVPxVec3@3@@Z 10030dd0 f   PhysX3ExtensionsDEBUG:ExtRigidBodyExt.obj
 0001:0002fec0       ?setSphere@InertiaTensorComputer@Ext@physx@@QAEXM@Z 10030ec0 f   PhysX3ExtensionsDEBUG:ExtRigidBodyExt.obj
 0001:0002ff40       ?setCylinder@InertiaTensorComputer@Ext@physx@@QAEXHMM@Z 10030f40 f   PhysX3ExtensionsDEBUG:ExtRigidBodyExt.obj
 0001:000300a0       ?setCapsule@InertiaTensorComputer@Ext@physx@@QAEXHMM@Z 100310a0 f   PhysX3ExtensionsDEBUG:ExtRigidBodyExt.obj
 0001:00030290       ?setEllipsoid@InertiaTensorComputer@Ext@physx@@QAEXMMM@Z 10031290 f   PhysX3ExtensionsDEBUG:ExtRigidBodyExt.obj
 0001:00030350       ?computeSphereMass@Ext@physx@@YAMMM@Z 10031350 f   PhysX3ExtensionsDEBUG:ExtRigidBodyExt.obj
 0001:00030390       ?computeSphereDensity@Ext@physx@@YAMMM@Z 10031390 f   PhysX3ExtensionsDEBUG:ExtRigidBodyExt.obj
 0001:000303d0       ?computeBoxMass@Ext@physx@@YAMABVPxVec3@2@M@Z 100313d0 f   PhysX3ExtensionsDEBUG:ExtRigidBodyExt.obj
 0001:00030400       ?computeBoxDensity@Ext@physx@@YAMABVPxVec3@2@M@Z 10031400 f   PhysX3ExtensionsDEBUG:ExtRigidBodyExt.obj
 0001:00030430       ?computeEllipsoidMass@Ext@physx@@YAMABVPxVec3@2@M@Z 10031430 f   PhysX3ExtensionsDEBUG:ExtRigidBodyExt.obj
 0001:00030460       ?computeEllipsoidDensity@Ext@physx@@YAMABVPxVec3@2@M@Z 10031460 f   PhysX3ExtensionsDEBUG:ExtRigidBodyExt.obj
 0001:00030490       ?computeCylinderMass@Ext@physx@@YAMMMM@Z 10031490 f   PhysX3ExtensionsDEBUG:ExtRigidBodyExt.obj
 0001:000304d0       ?computeCylinderDensity@Ext@physx@@YAMMMM@Z 100314d0 f   PhysX3ExtensionsDEBUG:ExtRigidBodyExt.obj
 0001:00030510       ?computeCapsuleMass@Ext@physx@@YAMMMM@Z 10031510 f   PhysX3ExtensionsDEBUG:ExtRigidBodyExt.obj
 0001:00030550       ?computeCapsuleDensity@Ext@physx@@YAMMMM@Z 10031550 f   PhysX3ExtensionsDEBUG:ExtRigidBodyExt.obj
 0001:00030590       ?computeConeMass@Ext@physx@@YAMMMM@Z 10031590 f   PhysX3ExtensionsDEBUG:ExtRigidBodyExt.obj
 0001:000305d0       ?computeConeDensity@Ext@physx@@YAMMMM@Z 100315d0 f   PhysX3ExtensionsDEBUG:ExtRigidBodyExt.obj
 0001:00030610       ?computeBoxInertiaTensor@Ext@physx@@YAXAAVPxVec3@2@MMMM@Z 10031610 f   PhysX3ExtensionsDEBUG:ExtRigidBodyExt.obj
 0001:000307c0       ?computeSphereInertiaTensor@Ext@physx@@YAXAAVPxVec3@2@MM_N@Z 100317c0 f   PhysX3ExtensionsDEBUG:ExtRigidBodyExt.obj
 0001:00032500       ??$PX_UNUSED@PBUPxSweepHit@physx@@@@YAXABQBUPxSweepHit@physx@@@Z 10033500 f i PhysX3ExtensionsDEBUG:ExtRigidBodyExt.obj
 0001:00032510       ??$PX_UNUSED@W4PxZERO@physx@@@@YAXABW4PxZERO@physx@@@Z 10033510 f i PhysX3ExtensionsDEBUG:ExtRigidBodyExt.obj
 0001:00032520       ??$PxUnionCast@PAVPxGeometry@physx@@PAY03E@physx@@YAPAVPxGeometry@0@PAY03E@Z 10033520 f i PhysX3ExtensionsDEBUG:ExtRigidBodyExt.obj
 0001:00032540       ??0?$Array@PAVPxShape@physx@@V?$InlineAllocator@$0EA@VNamedAllocator@shdfnd@physx@@@shdfnd@2@@shdfnd@physx@@QAE@ABV?$InlineAllocator@$0EA@VNamedAllocator@shdfnd@physx@@@12@@Z 10033540 f i PhysX3ExtensionsDEBUG:ExtRigidBodyExt.obj
 0001:00032590       ??0?$Array@VPxMassProperties@physx@@V?$InlineAllocator@$0DEA@VNamedAllocator@shdfnd@physx@@@shdfnd@2@@shdfnd@physx@@QAE@ABV?$InlineAllocator@$0DEA@VNamedAllocator@shdfnd@physx@@@12@@Z 10033590 f i PhysX3ExtensionsDEBUG:ExtRigidBodyExt.obj
 0001:000325f0       ??0?$Array@VPxTransform@physx@@V?$InlineAllocator@$0BMA@VNamedAllocator@shdfnd@physx@@@shdfnd@2@@shdfnd@physx@@QAE@ABV?$InlineAllocator@$0BMA@VNamedAllocator@shdfnd@physx@@@12@@Z 100335f0 f i PhysX3ExtensionsDEBUG:ExtRigidBodyExt.obj
 0001:00032650       ??0?$InlineAllocator@$0BMA@VNamedAllocator@shdfnd@physx@@@shdfnd@physx@@QAE@ABV012@@Z 10033650 f i PhysX3ExtensionsDEBUG:ExtRigidBodyExt.obj
 0001:00032680       ??0?$InlineAllocator@$0BMA@VNamedAllocator@shdfnd@physx@@@shdfnd@physx@@QAE@ABVNamedAllocator@12@@Z 10033680 f i PhysX3ExtensionsDEBUG:ExtRigidBodyExt.obj
 0001:000326b0       ??0?$InlineAllocator@$0DEA@VNamedAllocator@shdfnd@physx@@@shdfnd@physx@@QAE@ABV012@@Z 100336b0 f i PhysX3ExtensionsDEBUG:ExtRigidBodyExt.obj
 0001:000326e0       ??0?$InlineAllocator@$0DEA@VNamedAllocator@shdfnd@physx@@@shdfnd@physx@@QAE@ABVNamedAllocator@12@@Z 100336e0 f i PhysX3ExtensionsDEBUG:ExtRigidBodyExt.obj
 0001:00032710       ??0?$InlineAllocator@$0EA@VNamedAllocator@shdfnd@physx@@@shdfnd@physx@@QAE@ABV012@@Z 10033710 f i PhysX3ExtensionsDEBUG:ExtRigidBodyExt.obj
 0001:00032740       ??0?$InlineAllocator@$0EA@VNamedAllocator@shdfnd@physx@@@shdfnd@physx@@QAE@ABVNamedAllocator@12@@Z 10033740 f i PhysX3ExtensionsDEBUG:ExtRigidBodyExt.obj
 0001:00032770       ??0?$InlineArray@PAVPxShape@physx@@$0BA@VNamedAllocator@shdfnd@2@@shdfnd@physx@@QAE@ABVNamedAllocator@12@@Z 10033770 f i PhysX3ExtensionsDEBUG:ExtRigidBodyExt.obj
 0001:000327d0       ??0?$InlineArray@VPxMassProperties@physx@@$0BA@VNamedAllocator@shdfnd@2@@shdfnd@physx@@QAE@ABVNamedAllocator@12@@Z 100337d0 f i PhysX3ExtensionsDEBUG:ExtRigidBodyExt.obj
 0001:00032850       ??0?$InlineArray@VPxTransform@physx@@$0BA@VNamedAllocator@shdfnd@2@@shdfnd@physx@@QAE@ABVNamedAllocator@12@@Z 10033850 f i PhysX3ExtensionsDEBUG:ExtRigidBodyExt.obj
 0001:000328d0       ??0?$PxHitBuffer@UPxSweepHit@physx@@@physx@@QAE@PAUPxSweepHit@1@I@Z 100338d0 f i PhysX3ExtensionsDEBUG:ExtRigidBodyExt.obj
 0001:00032910       ??0?$PxHitCallback@UPxSweepHit@physx@@@physx@@QAE@PAUPxSweepHit@1@I@Z 10033910 f i PhysX3ExtensionsDEBUG:ExtRigidBodyExt.obj
 0001:00032990       ??0PxMassProperties@physx@@QAE@ABV01@@Z 10033990 f i PhysX3ExtensionsDEBUG:ExtRigidBodyExt.obj
 0001:000329e0       ??0PxMassProperties@physx@@QAE@ABVPxGeometry@1@@Z 100339e0 f i PhysX3ExtensionsDEBUG:ExtRigidBodyExt.obj
 0001:00033400       ??0PxMassProperties@physx@@QAE@MABVPxMat33@1@ABVPxVec3@1@@Z 10034400 f i PhysX3ExtensionsDEBUG:ExtRigidBodyExt.obj
 0001:00033450       ??0PxMassProperties@physx@@QAE@XZ 10034450 f i PhysX3ExtensionsDEBUG:ExtRigidBodyExt.obj
 0001:000334a0       ??0PxMat33@physx@@QAE@ABV01@@Z 100344a0 f i PhysX3ExtensionsDEBUG:ExtRigidBodyExt.obj
 0001:000334f0       ??0PxMat33@physx@@QAE@W4PxZERO@1@@Z 100344f0 f i PhysX3ExtensionsDEBUG:ExtRigidBodyExt.obj
 0001:00033560       ??0PxMat33@physx@@QAE@XZ   10034560 f i PhysX3ExtensionsDEBUG:ExtRigidBodyExt.obj
 0001:000335a0       ??0PxQueryFilterData@physx@@QAE@XZ 100345a0 f i PhysX3ExtensionsDEBUG:ExtRigidBodyExt.obj
 0001:000335e0       ??1?$Array@PAVPxShape@physx@@V?$InlineAllocator@$0EA@VNamedAllocator@shdfnd@physx@@@shdfnd@2@@shdfnd@physx@@QAE@XZ 100345e0 f i PhysX3ExtensionsDEBUG:ExtRigidBodyExt.obj
 0001:00033650       ??1?$Array@VPxMassProperties@physx@@V?$InlineAllocator@$0DEA@VNamedAllocator@shdfnd@physx@@@shdfnd@2@@shdfnd@physx@@QAE@XZ 10034650 f i PhysX3ExtensionsDEBUG:ExtRigidBodyExt.obj
 0001:000336d0       ??1?$Array@VPxTransform@physx@@V?$InlineAllocator@$0BMA@VNamedAllocator@shdfnd@physx@@@shdfnd@2@@shdfnd@physx@@QAE@XZ 100346d0 f i PhysX3ExtensionsDEBUG:ExtRigidBodyExt.obj
 0001:00033750       ??1?$InlineAllocator@$0BMA@VNamedAllocator@shdfnd@physx@@@shdfnd@physx@@QAE@XZ 10034750 f i PhysX3ExtensionsDEBUG:ExtRigidBodyExt.obj
 0001:00033770       ??1?$InlineAllocator@$0DEA@VNamedAllocator@shdfnd@physx@@@shdfnd@physx@@QAE@XZ 10034770 f i PhysX3ExtensionsDEBUG:ExtRigidBodyExt.obj
 0001:00033790       ??1?$InlineAllocator@$0EA@VNamedAllocator@shdfnd@physx@@@shdfnd@physx@@QAE@XZ 10034790 f i PhysX3ExtensionsDEBUG:ExtRigidBodyExt.obj
 0001:000337b0       ??1?$InlineArray@PAVPxShape@physx@@$0BA@VNamedAllocator@shdfnd@2@@shdfnd@physx@@QAE@XZ 100347b0 f i PhysX3ExtensionsDEBUG:ExtRigidBodyExt.obj
 0001:000337d0       ??1?$InlineArray@VPxMassProperties@physx@@$0BA@VNamedAllocator@shdfnd@2@@shdfnd@physx@@QAE@XZ 100347d0 f i PhysX3ExtensionsDEBUG:ExtRigidBodyExt.obj
 0001:000337f0       ??1?$InlineArray@VPxTransform@physx@@$0BA@VNamedAllocator@shdfnd@2@@shdfnd@physx@@QAE@XZ 100347f0 f i PhysX3ExtensionsDEBUG:ExtRigidBodyExt.obj
 0001:00033810       ??1?$PxHitBuffer@UPxSweepHit@physx@@@physx@@UAE@XZ 10034810 f i PhysX3ExtensionsDEBUG:ExtRigidBodyExt.obj
 0001:00033840       ??1?$PxHitCallback@UPxSweepHit@physx@@@physx@@UAE@XZ 10034840 f i PhysX3ExtensionsDEBUG:ExtRigidBodyExt.obj
 0001:00033860       ??4InertiaTensorComputer@Ext@physx@@QAEAAV012@ABV012@@Z 10034860 f i PhysX3ExtensionsDEBUG:ExtRigidBodyExt.obj
 0001:000338b0       ??4PxMassProperties@physx@@QAEAAV01@$$QAV01@@Z 100348b0 f i PhysX3ExtensionsDEBUG:ExtRigidBodyExt.obj
 0001:00033900       ??4PxMat33@physx@@QAEAAV01@ABV01@@Z 10034900 f i PhysX3ExtensionsDEBUG:ExtRigidBodyExt.obj
 0001:00033950       ??4PxSweepHit@physx@@QAEAAU01@ABU01@@Z 10034950 f i PhysX3ExtensionsDEBUG:ExtRigidBodyExt.obj
 0001:00033990       ??A?$Array@PAVPxShape@physx@@V?$InlineAllocator@$0EA@VNamedAllocator@shdfnd@physx@@@shdfnd@2@@shdfnd@physx@@QAEAAPAVPxShape@2@I@Z 10034990 f i PhysX3ExtensionsDEBUG:ExtRigidBodyExt.obj
 0001:00033a10       ??APxMat33@physx@@QAEAAVPxVec3@1@I@Z 10034a10 f i PhysX3ExtensionsDEBUG:ExtRigidBodyExt.obj
 0001:00033a30       ??APxVec3@physx@@QAEAAMI@Z 10034a30 f i PhysX3ExtensionsDEBUG:ExtRigidBodyExt.obj
 0001:00033aa0       ??DPxMat33@physx@@QBE?BV01@M@Z 10034aa0 f i PhysX3ExtensionsDEBUG:ExtRigidBodyExt.obj
 0001:00033b30       ??DPxMat33@physx@@QBE?BVPxVec3@1@ABV21@@Z 10034b30 f i PhysX3ExtensionsDEBUG:ExtRigidBodyExt.obj
 0001:00033b60       ??GPxMat33@physx@@QBE?BV01@ABV01@@Z 10034b60 f i PhysX3ExtensionsDEBUG:ExtRigidBodyExt.obj
 0001:00033bd0       ??HPxMat33@physx@@QBE?BV01@ABV01@@Z 10034bd0 f i PhysX3ExtensionsDEBUG:ExtRigidBodyExt.obj
 0001:00033c40       ??RPxMat33@physx@@QAEAAMII@Z 10034c40 f i PhysX3ExtensionsDEBUG:ExtRigidBodyExt.obj
 0001:00033c70       ??RPxMat33@physx@@QBEMII@Z 10034c70 f i PhysX3ExtensionsDEBUG:ExtRigidBodyExt.obj
 0001:00033ca0       ??XPxMat33@physx@@QAEAAV01@M@Z 10034ca0 f i PhysX3ExtensionsDEBUG:ExtRigidBodyExt.obj
 0001:00033d10       ??YPxMat33@physx@@QAEAAV01@ABV01@@Z 10034d10 f i PhysX3ExtensionsDEBUG:ExtRigidBodyExt.obj
 0001:00033d60       ??_G?$PxHitBuffer@UPxSweepHit@physx@@@physx@@UAEPAXI@Z 10034d60 f i PhysX3ExtensionsDEBUG:ExtRigidBodyExt.obj
 0001:00033d60       ??_E?$PxHitBuffer@UPxSweepHit@physx@@@physx@@UAEPAXI@Z 10034d60 f i PhysX3ExtensionsDEBUG:ExtRigidBodyExt.obj
 0001:00033da0       ??_E?$PxHitCallback@UPxSweepHit@physx@@@physx@@UAEPAXI@Z 10034da0 f i PhysX3ExtensionsDEBUG:ExtRigidBodyExt.obj
 0001:00033da0       ??_G?$PxHitCallback@UPxSweepHit@physx@@@physx@@UAEPAXI@Z 10034da0 f i PhysX3ExtensionsDEBUG:ExtRigidBodyExt.obj
 0001:00033de0       ?add@InertiaTensorComputer@Ext@physx@@QAEXABV123@@Z 10034de0 f i PhysX3ExtensionsDEBUG:ExtRigidBodyExt.obj
 0001:00033ff0       ?addForceAtPosInternal@@YAXAAVPxRigidBody@physx@@ABVPxVec3@2@1W4Enum@PxForceMode@2@_N@Z 10034ff0 f i PhysX3ExtensionsDEBUG:ExtRigidBodyExt.obj
 0001:000340f0       ?allocate@?$Array@PAVPxShape@physx@@V?$InlineAllocator@$0EA@VNamedAllocator@shdfnd@physx@@@shdfnd@2@@shdfnd@physx@@IAEPAPAVPxShape@3@I@Z 100350f0 f i PhysX3ExtensionsDEBUG:ExtRigidBodyExt.obj
 0001:00034170       ?allocate@?$Array@VPxMassProperties@physx@@V?$InlineAllocator@$0DEA@VNamedAllocator@shdfnd@physx@@@shdfnd@2@@shdfnd@physx@@IAEPAVPxMassProperties@3@I@Z 10035170 f i PhysX3ExtensionsDEBUG:ExtRigidBodyExt.obj
 0001:000341f0       ?allocate@?$Array@VPxTransform@physx@@V?$InlineAllocator@$0BMA@VNamedAllocator@shdfnd@physx@@@shdfnd@2@@shdfnd@physx@@IAEPAVPxTransform@3@I@Z 100351f0 f i PhysX3ExtensionsDEBUG:ExtRigidBodyExt.obj
 0001:00034270       ?allocate@?$InlineAllocator@$0BMA@VNamedAllocator@shdfnd@physx@@@shdfnd@physx@@QAEPAXIPBDH@Z 10035270 f i PhysX3ExtensionsDEBUG:ExtRigidBodyExt.obj
 0001:000342d0       ?allocate@?$InlineAllocator@$0DEA@VNamedAllocator@shdfnd@physx@@@shdfnd@physx@@QAEPAXIPBDH@Z 100352d0 f i PhysX3ExtensionsDEBUG:ExtRigidBodyExt.obj
 0001:00034330       ?allocate@?$InlineAllocator@$0EA@VNamedAllocator@shdfnd@physx@@@shdfnd@physx@@QAEPAXIPBDH@Z 10035330 f i PhysX3ExtensionsDEBUG:ExtRigidBodyExt.obj
 0001:00034380       ?any@PxGeometryHolder@physx@@QAEAAVPxGeometry@2@XZ 10035380 f i PhysX3ExtensionsDEBUG:ExtRigidBodyExt.obj
 0001:000343a0       ?basisExtent@PxBounds3@physx@@SA?AV12@ABVPxVec3@2@ABVPxMat33@2@0@Z 100353a0 f i PhysX3ExtensionsDEBUG:ExtRigidBodyExt.obj
 0001:000345f0       ?begin@?$Array@PAVPxShape@physx@@V?$InlineAllocator@$0EA@VNamedAllocator@shdfnd@physx@@@shdfnd@2@@shdfnd@physx@@QAEPAPAVPxShape@3@XZ 100355f0 f i PhysX3ExtensionsDEBUG:ExtRigidBodyExt.obj
 0001:00034610       ?begin@?$Array@VPxMassProperties@physx@@V?$InlineAllocator@$0DEA@VNamedAllocator@shdfnd@physx@@@shdfnd@2@@shdfnd@physx@@QAEPAVPxMassProperties@3@XZ 10035610 f i PhysX3ExtensionsDEBUG:ExtRigidBodyExt.obj
 0001:00034630       ?begin@?$Array@VPxTransform@physx@@V?$InlineAllocator@$0BMA@VNamedAllocator@shdfnd@physx@@@shdfnd@2@@shdfnd@physx@@QAEPAVPxTransform@3@XZ 10035630 f i PhysX3ExtensionsDEBUG:ExtRigidBodyExt.obj
 0001:00034650       ?capacity@?$Array@PAVPxShape@physx@@V?$InlineAllocator@$0EA@VNamedAllocator@shdfnd@physx@@@shdfnd@2@@shdfnd@physx@@QBEIXZ 10035650 f i PhysX3ExtensionsDEBUG:ExtRigidBodyExt.obj
 0001:00034670       ?capacity@?$Array@VPxMassProperties@physx@@V?$InlineAllocator@$0DEA@VNamedAllocator@shdfnd@physx@@@shdfnd@2@@shdfnd@physx@@QBEIXZ 10035670 f i PhysX3ExtensionsDEBUG:ExtRigidBodyExt.obj
 0001:00034690       ?capacity@?$Array@VPxTransform@physx@@V?$InlineAllocator@$0BMA@VNamedAllocator@shdfnd@physx@@@shdfnd@2@@shdfnd@physx@@QBEIXZ 10035690 f i PhysX3ExtensionsDEBUG:ExtRigidBodyExt.obj
 0001:000346b0       ?capacityIncrement@?$Array@VPxMassProperties@physx@@V?$InlineAllocator@$0DEA@VNamedAllocator@shdfnd@physx@@@shdfnd@2@@shdfnd@physx@@IBEIXZ 100356b0 f i PhysX3ExtensionsDEBUG:ExtRigidBodyExt.obj
 0001:000346f0       ?capacityIncrement@?$Array@VPxTransform@physx@@V?$InlineAllocator@$0BMA@VNamedAllocator@shdfnd@physx@@@shdfnd@2@@shdfnd@physx@@IBEIXZ 100356f0 f i PhysX3ExtensionsDEBUG:ExtRigidBodyExt.obj
 0001:00034730       ?center@InertiaTensorComputer@Ext@physx@@QAEXXZ 10035730 f i PhysX3ExtensionsDEBUG:ExtRigidBodyExt.obj
 0001:00034770       ?computeBoxRatio@Ext@physx@@YAMABVPxVec3@2@@Z 10035770 f i PhysX3ExtensionsDEBUG:ExtRigidBodyExt.obj
 0001:00034790       ?computeCapsuleRatio@Ext@physx@@YAMMM@Z 10035790 f i PhysX3ExtensionsDEBUG:ExtRigidBodyExt.obj
 0001:00034810       ?computeConeRatio@Ext@physx@@YAMMM@Z 10035810 f i PhysX3ExtensionsDEBUG:ExtRigidBodyExt.obj
 0001:00034880       ?computeCylinderRatio@Ext@physx@@YAMMM@Z 10035880 f i PhysX3ExtensionsDEBUG:ExtRigidBodyExt.obj
 0001:000348c0       ?computeEllipsoidRatio@Ext@physx@@YAMABVPxVec3@2@@Z 100358c0 f i PhysX3ExtensionsDEBUG:ExtRigidBodyExt.obj
 0001:00034900       ?computeSphereRatio@Ext@physx@@YAMM@Z 10035900 f i PhysX3ExtensionsDEBUG:ExtRigidBodyExt.obj
 0001:00034930       ?copy@?$Array@PAVPxShape@physx@@V?$InlineAllocator@$0EA@VNamedAllocator@shdfnd@physx@@@shdfnd@2@@shdfnd@physx@@KAXPAPAVPxShape@3@0PBQAV43@@Z 10035930 f i PhysX3ExtensionsDEBUG:ExtRigidBodyExt.obj
 0001:000349e0       ?copy@?$Array@VPxMassProperties@physx@@V?$InlineAllocator@$0DEA@VNamedAllocator@shdfnd@physx@@@shdfnd@2@@shdfnd@physx@@KAXPAVPxMassProperties@3@0PBV43@@Z 100359e0 f i PhysX3ExtensionsDEBUG:ExtRigidBodyExt.obj
 0001:00034aa0       ?copy@?$Array@VPxTransform@physx@@V?$InlineAllocator@$0BMA@VNamedAllocator@shdfnd@physx@@@shdfnd@2@@shdfnd@physx@@KAXPAVPxTransform@3@0PBV43@@Z 10035aa0 f i PhysX3ExtensionsDEBUG:ExtRigidBodyExt.obj
 0001:00034b60       ?create@?$Array@PAVPxShape@physx@@V?$InlineAllocator@$0EA@VNamedAllocator@shdfnd@physx@@@shdfnd@2@@shdfnd@physx@@KAXPAPAVPxShape@3@0ABQAV43@@Z 10035b60 f i PhysX3ExtensionsDEBUG:ExtRigidBodyExt.obj
 0001:00034c10       ?createDiagonal@PxMat33@physx@@SA?BV12@ABVPxVec3@2@@Z 10035c10 f i PhysX3ExtensionsDEBUG:ExtRigidBodyExt.obj
 0001:00034cd0       ?deallocate@?$Array@PAVPxShape@physx@@V?$InlineAllocator@$0EA@VNamedAllocator@shdfnd@physx@@@shdfnd@2@@shdfnd@physx@@IAEXPAX@Z 10035cd0 f i PhysX3ExtensionsDEBUG:ExtRigidBodyExt.obj
 0001:00034cf0       ?deallocate@?$Array@VPxMassProperties@physx@@V?$InlineAllocator@$0DEA@VNamedAllocator@shdfnd@physx@@@shdfnd@2@@shdfnd@physx@@IAEXPAX@Z 10035cf0 f i PhysX3ExtensionsDEBUG:ExtRigidBodyExt.obj
 0001:00034d10       ?deallocate@?$Array@VPxTransform@physx@@V?$InlineAllocator@$0BMA@VNamedAllocator@shdfnd@physx@@@shdfnd@2@@shdfnd@physx@@IAEXPAX@Z 10035d10 f i PhysX3ExtensionsDEBUG:ExtRigidBodyExt.obj
 0001:00034d30       ?deallocate@?$InlineAllocator@$0BMA@VNamedAllocator@shdfnd@physx@@@shdfnd@physx@@QAEXPAX@Z 10035d30 f i PhysX3ExtensionsDEBUG:ExtRigidBodyExt.obj
 0001:00034d70       ?deallocate@?$InlineAllocator@$0DEA@VNamedAllocator@shdfnd@physx@@@shdfnd@physx@@QAEXPAX@Z 10035d70 f i PhysX3ExtensionsDEBUG:ExtRigidBodyExt.obj
 0001:00034db0       ?deallocate@?$InlineAllocator@$0EA@VNamedAllocator@shdfnd@physx@@@shdfnd@physx@@QAEXPAX@Z 10035db0 f i PhysX3ExtensionsDEBUG:ExtRigidBodyExt.obj
 0001:00034df0       ?destroy@?$Array@PAVPxShape@physx@@V?$InlineAllocator@$0EA@VNamedAllocator@shdfnd@physx@@@shdfnd@2@@shdfnd@physx@@KAXPAPAVPxShape@3@0@Z 10035df0 f i PhysX3ExtensionsDEBUG:ExtRigidBodyExt.obj
 0001:00034e20       ?destroy@?$Array@VPxMassProperties@physx@@V?$InlineAllocator@$0DEA@VNamedAllocator@shdfnd@physx@@@shdfnd@2@@shdfnd@physx@@KAXPAVPxMassProperties@3@0@Z 10035e20 f i PhysX3ExtensionsDEBUG:ExtRigidBodyExt.obj
 0001:00034e50       ?destroy@?$Array@VPxTransform@physx@@V?$InlineAllocator@$0BMA@VNamedAllocator@shdfnd@physx@@@shdfnd@2@@shdfnd@physx@@KAXPAVPxTransform@3@0@Z 10035e50 f i PhysX3ExtensionsDEBUG:ExtRigidBodyExt.obj
 0001:00034e80       ?finalizeQuery@?$PxHitCallback@UPxSweepHit@physx@@@physx@@UAEXXZ 10035e80 f i PhysX3ExtensionsDEBUG:ExtRigidBodyExt.obj
 0001:00034e90       ?getCenterOfMass@InertiaTensorComputer@Ext@physx@@QBE?AVPxVec3@3@XZ 10035e90 f i PhysX3ExtensionsDEBUG:ExtRigidBodyExt.obj
 0001:00034ec0       ?getConjugate@PxQuat@physx@@QBE?AV12@XZ 10035ec0 f i PhysX3ExtensionsDEBUG:ExtRigidBodyExt.obj
 0001:00034f40       ?getInertia@InertiaTensorComputer@Ext@physx@@QBE?AVPxMat33@3@XZ 10035f40 f i PhysX3ExtensionsDEBUG:ExtRigidBodyExt.obj
 0001:00034f70       ?getInverse@PxTransform@physx@@QBE?AV12@XZ 10035f70 f i PhysX3ExtensionsDEBUG:ExtRigidBodyExt.obj
 0001:00035020       ?getMass@InertiaTensorComputer@Ext@physx@@QBEMXZ 10036020 f i PhysX3ExtensionsDEBUG:ExtRigidBodyExt.obj
 0001:00035040       ?getNbTouches@?$PxHitBuffer@UPxSweepHit@physx@@@physx@@QBEIXZ 10036040 f i PhysX3ExtensionsDEBUG:ExtRigidBodyExt.obj
 0001:00035060       ?getType@PxGeometry@physx@@QBE?AW4Enum@PxGeometryType@2@XZ 10036060 f i PhysX3ExtensionsDEBUG:ExtRigidBodyExt.obj
 0001:00035080       ?getVelocityAtPosInternal@@YA?AVPxVec3@physx@@ABVPxRigidBody@2@ABV12@@Z 10036080 f i PhysX3ExtensionsDEBUG:ExtRigidBodyExt.obj
 0001:000350f0       ?grow@?$Array@PAVPxShape@physx@@V?$InlineAllocator@$0EA@VNamedAllocator@shdfnd@physx@@@shdfnd@2@@shdfnd@physx@@IAEXI@Z 100360f0 f i PhysX3ExtensionsDEBUG:ExtRigidBodyExt.obj
 0001:00035170       ?grow@?$Array@VPxMassProperties@physx@@V?$InlineAllocator@$0DEA@VNamedAllocator@shdfnd@physx@@@shdfnd@2@@shdfnd@physx@@IAEXI@Z 10036170 f i PhysX3ExtensionsDEBUG:ExtRigidBodyExt.obj
 0001:000351f0       ?grow@?$Array@VPxTransform@physx@@V?$InlineAllocator@$0BMA@VNamedAllocator@shdfnd@physx@@@shdfnd@2@@shdfnd@physx@@IAEXI@Z 100361f0 f i PhysX3ExtensionsDEBUG:ExtRigidBodyExt.obj
 0001:00035270       ?growAndPushBack@?$Array@VPxMassProperties@physx@@V?$InlineAllocator@$0DEA@VNamedAllocator@shdfnd@physx@@@shdfnd@2@@shdfnd@physx@@IAEAAVPxMassProperties@3@ABV43@@Z 10036270 f i PhysX3ExtensionsDEBUG:ExtRigidBodyExt.obj
 0001:00035430       ?growAndPushBack@?$Array@VPxTransform@physx@@V?$InlineAllocator@$0BMA@VNamedAllocator@shdfnd@physx@@@shdfnd@2@@shdfnd@physx@@IAEAAVPxTransform@3@ABV43@@Z 10036430 f i PhysX3ExtensionsDEBUG:ExtRigidBodyExt.obj
 0001:000355f0       ?isArrayOfPOD@?$Array@PAVPxShape@physx@@V?$InlineAllocator@$0EA@VNamedAllocator@shdfnd@physx@@@shdfnd@2@@shdfnd@physx@@SA_NXZ 100365f0 f i PhysX3ExtensionsDEBUG:ExtRigidBodyExt.obj
 0001:00035600       ?isArrayOfPOD@?$Array@VPxMassProperties@physx@@V?$InlineAllocator@$0DEA@VNamedAllocator@shdfnd@physx@@@shdfnd@2@@shdfnd@physx@@SA_NXZ 10036600 f i PhysX3ExtensionsDEBUG:ExtRigidBodyExt.obj
 0001:00035610       ?isArrayOfPOD@?$Array@VPxTransform@physx@@V?$InlineAllocator@$0BMA@VNamedAllocator@shdfnd@physx@@@shdfnd@2@@shdfnd@physx@@SA_NXZ 10036610 f i PhysX3ExtensionsDEBUG:ExtRigidBodyExt.obj
 0001:00035620       ?isIdentity@PxMeshScale@physx@@QBE_NXZ 10036620 f i PhysX3ExtensionsDEBUG:ExtRigidBodyExt.obj
 0001:000356a0       ?isInUserMemory@?$Array@PAVPxShape@physx@@V?$InlineAllocator@$0EA@VNamedAllocator@shdfnd@physx@@@shdfnd@2@@shdfnd@physx@@QBEIXZ 100366a0 f i PhysX3ExtensionsDEBUG:ExtRigidBodyExt.obj
 0001:000356c0       ?isInUserMemory@?$Array@VPxMassProperties@physx@@V?$InlineAllocator@$0DEA@VNamedAllocator@shdfnd@physx@@@shdfnd@2@@shdfnd@physx@@QBEIXZ 100366c0 f i PhysX3ExtensionsDEBUG:ExtRigidBodyExt.obj
 0001:000356e0       ?isInUserMemory@?$Array@VPxTransform@physx@@V?$InlineAllocator@$0BMA@VNamedAllocator@shdfnd@physx@@@shdfnd@2@@shdfnd@physx@@QBEIXZ 100366e0 f i PhysX3ExtensionsDEBUG:ExtRigidBodyExt.obj
 0001:00035700       ?isUnit@PxQuat@physx@@QBE_NXZ 10036700 f i PhysX3ExtensionsDEBUG:ExtRigidBodyExt.obj
 0001:00035790       ?isZeroInit@?$Array@PAVPxShape@physx@@V?$InlineAllocator@$0EA@VNamedAllocator@shdfnd@physx@@@shdfnd@2@@shdfnd@physx@@KA_NABQAVPxShape@3@@Z 10036790 f i PhysX3ExtensionsDEBUG:ExtRigidBodyExt.obj
 0001:000357f0       ?multiply@PxVec3@physx@@QBE?AV12@ABV12@@Z 100367f0 f i PhysX3ExtensionsDEBUG:ExtRigidBodyExt.obj
 0001:00035860       ?processTouches@?$PxHitBuffer@UPxSweepHit@physx@@@physx@@MAE_NPBUPxSweepHit@2@I@Z 10036860 f i PhysX3ExtensionsDEBUG:ExtRigidBodyExt.obj
 0001:00035890       ?pushBack@?$Array@VPxMassProperties@physx@@V?$InlineAllocator@$0DEA@VNamedAllocator@shdfnd@physx@@@shdfnd@2@@shdfnd@physx@@QAEAAVPxMassProperties@3@ABV43@@Z 10036890 f i PhysX3ExtensionsDEBUG:ExtRigidBodyExt.obj
 0001:00035960       ?pushBack@?$Array@VPxTransform@physx@@V?$InlineAllocator@$0BMA@VNamedAllocator@shdfnd@physx@@@shdfnd@2@@shdfnd@physx@@QAEAAVPxTransform@3@ABV43@@Z 10036960 f i PhysX3ExtensionsDEBUG:ExtRigidBodyExt.obj
 0001:00035a30       ?recreate@?$Array@PAVPxShape@physx@@V?$InlineAllocator@$0EA@VNamedAllocator@shdfnd@physx@@@shdfnd@2@@shdfnd@physx@@IAEXI@Z 10036a30 f i PhysX3ExtensionsDEBUG:ExtRigidBodyExt.obj
 0001:00035b40       ?recreate@?$Array@VPxMassProperties@physx@@V?$InlineAllocator@$0DEA@VNamedAllocator@shdfnd@physx@@@shdfnd@2@@shdfnd@physx@@IAEXI@Z 10036b40 f i PhysX3ExtensionsDEBUG:ExtRigidBodyExt.obj
 0001:00035c70       ?recreate@?$Array@VPxTransform@physx@@V?$InlineAllocator@$0BMA@VNamedAllocator@shdfnd@physx@@@shdfnd@2@@shdfnd@physx@@IAEXI@Z 10036c70 f i PhysX3ExtensionsDEBUG:ExtRigidBodyExt.obj
 0001:00035da0       ?reserve@?$Array@PAVPxShape@physx@@V?$InlineAllocator@$0EA@VNamedAllocator@shdfnd@physx@@@shdfnd@2@@shdfnd@physx@@QAEXI@Z 10036da0 f i PhysX3ExtensionsDEBUG:ExtRigidBodyExt.obj
 0001:00035dd0       ?reserve@?$Array@VPxMassProperties@physx@@V?$InlineAllocator@$0DEA@VNamedAllocator@shdfnd@physx@@@shdfnd@2@@shdfnd@physx@@QAEXI@Z 10036dd0 f i PhysX3ExtensionsDEBUG:ExtRigidBodyExt.obj
 0001:00035e00       ?reserve@?$Array@VPxTransform@physx@@V?$InlineAllocator@$0BMA@VNamedAllocator@shdfnd@physx@@@shdfnd@2@@shdfnd@physx@@QAEXI@Z 10036e00 f i PhysX3ExtensionsDEBUG:ExtRigidBodyExt.obj
 0001:00035e30       ?resize@?$Array@PAVPxShape@physx@@V?$InlineAllocator@$0EA@VNamedAllocator@shdfnd@physx@@@shdfnd@2@@shdfnd@physx@@QAEXIABQAVPxShape@3@@Z 10036e30 f i PhysX3ExtensionsDEBUG:ExtRigidBodyExt.obj
 0001:00035ec0       ?rotate@InertiaTensorComputer@Ext@physx@@QAEXABVPxMat33@3@@Z 10036ec0 f i PhysX3ExtensionsDEBUG:ExtRigidBodyExt.obj
 0001:00036020       ?rotateInertia@PxMassProperties@physx@@SA?AVPxMat33@2@ABV32@ABVPxQuat@2@@Z 10037020 f i PhysX3ExtensionsDEBUG:ExtRigidBodyExt.obj
 0001:000361e0       ?scaleDensity@InertiaTensorComputer@Ext@physx@@QAEXM@Z 100371e0 f i PhysX3ExtensionsDEBUG:ExtRigidBodyExt.obj
 0001:00036310       ?scaleInertia@PxMassProperties@physx@@SA?AVPxMat33@2@ABV32@ABVPxQuat@2@ABVPxVec3@2@@Z 10037310 f i PhysX3ExtensionsDEBUG:ExtRigidBodyExt.obj
 0001:000367f0       ?setBox@InertiaTensorComputer@Ext@physx@@QAEXABVPxVec3@3@PBVPxTransform@3@@Z 100377f0 f i PhysX3ExtensionsDEBUG:ExtRigidBodyExt.obj
 0001:00036830       ?setCapsule@InertiaTensorComputer@Ext@physx@@QAEXHMMPBVPxTransform@3@@Z 10037830 f i PhysX3ExtensionsDEBUG:ExtRigidBodyExt.obj
 0001:00036890       ?setDiagonal@InertiaTensorComputer@Ext@physx@@QAEXMABVPxVec3@3@@Z 10037890 f i PhysX3ExtensionsDEBUG:ExtRigidBodyExt.obj
 0001:000369e0       ?setSphere@InertiaTensorComputer@Ext@physx@@QAEXMPBVPxTransform@3@@Z 100379e0 f i PhysX3ExtensionsDEBUG:ExtRigidBodyExt.obj
 0001:00036a20       ?size@?$Array@PAVPxShape@physx@@V?$InlineAllocator@$0EA@VNamedAllocator@shdfnd@physx@@@shdfnd@2@@shdfnd@physx@@QBEIXZ 10037a20 f i PhysX3ExtensionsDEBUG:ExtRigidBodyExt.obj
 0001:00036a40       ?sum@PxMassProperties@physx@@SA?AV12@PBV12@PBVPxTransform@2@I@Z 10037a40 f i PhysX3ExtensionsDEBUG:ExtRigidBodyExt.obj
 0001:00036eb0       ?transform@InertiaTensorComputer@Ext@physx@@QAEXABVPxTransform@3@@Z 10037eb0 f i PhysX3ExtensionsDEBUG:ExtRigidBodyExt.obj
 0001:00036ef0       ?transformFast@PxBounds3@physx@@SA?AV12@ABVPxTransform@2@ABV12@@Z 10037ef0 f i PhysX3ExtensionsDEBUG:ExtRigidBodyExt.obj
 0001:00036fb0       ?transformInertiaTensor@Cm@physx@@YAXABVPxVec3@2@ABVPxMat33@2@AAV42@@Z 10037fb0 f i PhysX3ExtensionsDEBUG:ExtRigidBodyExt.obj
 0001:000375f0       ?translateInertia@PxMassProperties@physx@@SA?AVPxMat33@2@ABV32@MABVPxVec3@2@@Z 100385f0 f i PhysX3ExtensionsDEBUG:ExtRigidBodyExt.obj
 0001:000378f0       ?volume@Ext@physx@@YAMABVPxVec3@2@@Z 100388f0 f i PhysX3ExtensionsDEBUG:ExtRigidBodyExt.obj
 0001:000379a0       ?zero@InertiaTensorComputer@Ext@physx@@QAEXXZ 100389a0 f i PhysX3ExtensionsDEBUG:ExtRigidBodyExt.obj
 0001:000379fa       ?PxGetAssertHandler@physx@@YAAAVPxAssertHandler@1@XZ 100389fa f   PxFoundationDEBUG_x86:PxFoundationDEBUG_x86.dll
 0001:00037a00       ?getAllocator@shdfnd@physx@@YAAAVPxAllocatorCallback@2@XZ 10038a00 f   PxFoundationDEBUG_x86:PxFoundationDEBUG_x86.dll
 0001:00037a06       ??0NamedAllocator@shdfnd@physx@@QAE@PBD@Z 10038a06 f   PxFoundationDEBUG_x86:PxFoundationDEBUG_x86.dll
 0001:00037a0c       ?lock@MutexImpl@shdfnd@physx@@QAEXXZ 10038a0c f   PxFoundationDEBUG_x86:PxFoundationDEBUG_x86.dll
 0001:00037a12       ?unlock@MutexImpl@shdfnd@physx@@QAEXXZ 10038a12 f   PxFoundationDEBUG_x86:PxFoundationDEBUG_x86.dll
 0001:00037a18       _PxGetProfilerCallback     10038a18 f   PxFoundationDEBUG_x86:PxFoundationDEBUG_x86.dll
 0001:00037a1e       ??0NamedAllocator@shdfnd@physx@@QAE@ABV012@@Z 10038a1e f   PxFoundationDEBUG_x86:PxFoundationDEBUG_x86.dll
 0001:00037a24       ??1NamedAllocator@shdfnd@physx@@QAE@XZ 10038a24 f   PxFoundationDEBUG_x86:PxFoundationDEBUG_x86.dll
 0001:00037a2a       ?allocate@NamedAllocator@shdfnd@physx@@QAEPAXIPBDH@Z 10038a2a f   PxFoundationDEBUG_x86:PxFoundationDEBUG_x86.dll
 0001:00037a30       ?deallocate@NamedAllocator@shdfnd@physx@@QAEXPAX@Z 10038a30 f   PxFoundationDEBUG_x86:PxFoundationDEBUG_x86.dll
 0001:00037a36       _PxGetFoundation           10038a36 f   PxFoundationDEBUG_x86:PxFoundationDEBUG_x86.dll
 0001:00037a3c       ??0MutexImpl@shdfnd@physx@@QAE@XZ 10038a3c f   PxFoundationDEBUG_x86:PxFoundationDEBUG_x86.dll
 0001:00037a42       ??1MutexImpl@shdfnd@physx@@QAE@XZ 10038a42 f   PxFoundationDEBUG_x86:PxFoundationDEBUG_x86.dll
 0001:00037a48       ?getSize@MutexImpl@shdfnd@physx@@SAABIXZ 10038a48 f   PxFoundationDEBUG_x86:PxFoundationDEBUG_x86.dll
 0001:00037a4e       ?getInstance@Foundation@shdfnd@physx@@SAAAV123@XZ 10038a4e f   PxFoundationDEBUG_x86:PxFoundationDEBUG_x86.dll
 0001:00037a54       ?incRefCount@Foundation@shdfnd@physx@@SAXXZ 10038a54 f   PxFoundationDEBUG_x86:PxFoundationDEBUG_x86.dll
 0001:00037a5a       ?decRefCount@Foundation@shdfnd@physx@@SAXXZ 10038a5a f   PxFoundationDEBUG_x86:PxFoundationDEBUG_x86.dll
 0001:00037a60       ?error@Foundation@shdfnd@physx@@QAAXW4Enum@PxErrorCode@3@PBDH1ZZ 10038a60 f   PxFoundationDEBUG_x86:PxFoundationDEBUG_x86.dll
 0001:00037a66       ?PxShortestRotation@physx@@YA?AVPxQuat@1@ABVPxVec3@1@0@Z 10038a66 f   PxFoundationDEBUG_x86:PxFoundationDEBUG_x86.dll
 0001:00037a6c       ?PxDiagonalize@physx@@YA?AVPxVec3@1@ABVPxMat33@1@AAVPxQuat@1@@Z 10038a6c f   PxFoundationDEBUG_x86:PxFoundationDEBUG_x86.dll
 0001:00037a72       ?sweep@PxMeshQuery@physx@@SA_NABVPxVec3@2@MABVPxGeometry@2@ABVPxTransform@2@IPBVPxTriangle@2@AAUPxSweepHit@2@V?$PxFlags@W4Enum@PxHitFlag@physx@@G@2@PBIM_N@Z 10038a72 f   PhysX3CommonDEBUG_x86:PhysX3CommonDEBUG_x86.dll
 0001:00037a78       ??0RenderOutput@Cm@physx@@QAE@AAVRenderBuffer@12@@Z 10038a78 f   PhysX3CommonDEBUG_x86:PhysX3CommonDEBUG_x86.dll
 0001:00037a7e       ??6RenderOutput@Cm@physx@@QAEAAV012@I@Z 10038a7e f   PhysX3CommonDEBUG_x86:PhysX3CommonDEBUG_x86.dll
 0001:00037a84       ??6RenderOutput@Cm@physx@@QAEAAV012@ABVPxTransform@2@@Z 10038a84 f   PhysX3CommonDEBUG_x86:PhysX3CommonDEBUG_x86.dll
 0001:00037a8a       ?outputCapsule@RenderOutput@Cm@physx@@QAEAAV123@MMABVPxMat44@3@@Z 10038a8a f   PhysX3CommonDEBUG_x86:PhysX3CommonDEBUG_x86.dll
 0001:00037a90       ??6Cm@physx@@YAAAVRenderOutput@01@AAV201@ABUDebugBox@01@@Z 10038a90 f   PhysX3CommonDEBUG_x86:PhysX3CommonDEBUG_x86.dll
 0001:00037a96       ?PxTransformFromSegment@physx@@YA?AVPxTransform@1@ABVPxVec3@1@0PAM@Z 10038a96 f   PhysX3CommonDEBUG_x86:PhysX3CommonDEBUG_x86.dll
 0001:00037a9c       ?sweep@PxGeometryQuery@physx@@SA_NABVPxVec3@2@MABVPxGeometry@2@ABVPxTransform@2@12AAUPxSweepHit@2@V?$PxFlags@W4Enum@PxHitFlag@physx@@G@2@M@Z 10038a9c f   PhysX3CommonDEBUG_x86:PhysX3CommonDEBUG_x86.dll
 0001:00037aa2       ?computePenetration@PxGeometryQuery@physx@@SA_NAAVPxVec3@2@AAMABVPxGeometry@2@ABVPxTransform@2@23@Z 10038aa2 f   PhysX3CommonDEBUG_x86:PhysX3CommonDEBUG_x86.dll
 0001:00037aa8       ??0Box@Gu@physx@@QAE@ABVPxVec3@2@0ABVPxMat33@2@@Z 10038aa8 f   PhysX3CommonDEBUG_x86:PhysX3CommonDEBUG_x86.dll
 0001:00037aae       ??1Box@Gu@physx@@QAE@XZ    10038aae f   PhysX3CommonDEBUG_x86:PhysX3CommonDEBUG_x86.dll
 0001:00037ab4       ?intersectOBBOBB@Gu@physx@@YA_NABVPxVec3@2@0ABVPxMat33@2@001_N@Z 10038ab4 f   PhysX3CommonDEBUG_x86:PhysX3CommonDEBUG_x86.dll
 0001:00037aba       ?distanceSegmentBoxSquared@Gu@physx@@YAMABVPxVec3@2@000ABVPxMat33@2@PAMPAV32@@Z 10038aba f   PhysX3CommonDEBUG_x86:PhysX3CommonDEBUG_x86.dll
 0001:00037ac0       ?getTriangle@PxMeshQuery@physx@@SAXABVPxTriangleMeshGeometry@2@ABVPxTransform@2@IAAVPxTriangle@2@PAI3@Z 10038ac0 f   PhysX3CommonDEBUG_x86:PhysX3CommonDEBUG_x86.dll
 0001:00037ac6       ?getTriangle@PxMeshQuery@physx@@SAXABVPxHeightFieldGeometry@2@ABVPxTransform@2@IAAVPxTriangle@2@PAI3@Z 10038ac6 f   PhysX3CommonDEBUG_x86:PhysX3CommonDEBUG_x86.dll
 0001:00037acc       ??6RenderOutput@Cm@physx@@QAEAAV012@W4Primitive@012@@Z 10038acc f   PhysX3CommonDEBUG_x86:PhysX3CommonDEBUG_x86.dll
 0001:00037ad2       ??6RenderOutput@Cm@physx@@QAEAAV012@VPxVec3@2@@Z 10038ad2 f   PhysX3CommonDEBUG_x86:PhysX3CommonDEBUG_x86.dll
 0001:00037ad8       ?intersectTriangleBox_Unsafe@Gu@physx@@YAHABVPxVec3@2@0000@Z 10038ad8 f   PhysX3CommonDEBUG_x86:PhysX3CommonDEBUG_x86.dll
 0001:00037ade       ?CompleteBoxPruning@Cm@physx@@YA_NPBVPxBounds3@2@IAAV?$Array@IVNamedAllocator@shdfnd@physx@@@shdfnd@2@ABVAxes@Gu@2@@Z 10038ade f   PhysX3CommonDEBUG_x86:PhysX3CommonDEBUG_x86.dll
 0001:00037ae4       ?distanceSegmentSegmentSquared@Gu@physx@@YAMABVPxVec3@2@000PAM1@Z 10038ae4 f   PhysX3CommonDEBUG_x86:PhysX3CommonDEBUG_x86.dll
 0001:00037aea       ?getRaycastFuncTable@Gu@physx@@YAAAY06Q6AIABVPxGeometry@2@ABVPxTransform@2@ABVPxVec3@2@2MV?$PxFlags@W4Enum@PxHitFlag@physx@@G@2@IPIAUPxRaycastHit@2@@ZXZ 10038aea f   PhysX3CommonDEBUG_x86:PhysX3CommonDEBUG_x86.dll
 0001:00037af0       ?findOverlapTriangleMesh@PxMeshQuery@physx@@SAIABVPxGeometry@2@ABVPxTransform@2@ABVPxTriangleMeshGeometry@2@1PAIIIAA_N@Z 10038af0 f   PhysX3CommonDEBUG_x86:PhysX3CommonDEBUG_x86.dll
 0001:00037af6       ?findOverlapHeightField@PxMeshQuery@physx@@SAIABVPxGeometry@2@ABVPxTransform@2@ABVPxHeightFieldGeometry@2@1PAIIIAA_N@Z 10038af6 f   PhysX3CommonDEBUG_x86:PhysX3CommonDEBUG_x86.dll
 0001:00037b00       ??3@YAXPAXI@Z              10038b00 f   LIBCMTD:delete_scalar_size.obj
 0001:00037b20       ??_V@YAXPAXI@Z             10038b20 f   LIBCMTD:delete_array_size.obj
 0001:00037b40       __CRT_RTC_INIT             10038b40 f   LIBCMTD:_init_.obj
 0001:00037b50       __CRT_RTC_INITW            10038b50 f   LIBCMTD:_init_.obj
 0001:00037b60       __RTC_InitBase             10038b60 f   LIBCMTD:_init_.obj
 0001:00037ba0       __RTC_Shutdown             10038ba0 f   LIBCMTD:_init_.obj
 0001:00037bc0       __alloca_probe_16          10038bc0 f   LIBCMTD:alloca16.obj
 0001:00037bd6       __alloca_probe_8           10038bd6     LIBCMTD:alloca16.obj
 0001:00037c00       __ftoui3                   10038c00 f   LIBCMTD:_ftol3_.obj
 0001:00037c0f       __ftoul3                   10038c0f f   LIBCMTD:_ftol3_.obj
 0001:00037c1e       __ftol3                    10038c1e f   LIBCMTD:_ftol3_.obj
 0001:00037c2b       __ftol3_NaN                10038c2b f   LIBCMTD:_ftol3_.obj
 0001:00037c43       __ftol3_work               10038c43 f   LIBCMTD:_ftol3_.obj
 0001:00037cc9       __ftol3_common             10038cc9 f   LIBCMTD:_ftol3_.obj
 0001:00037d8b       __ftol3_arg_error          10038d8b f   LIBCMTD:_ftol3_.obj
 0001:00037d9d       __ftol3_except             10038d9d f   LIBCMTD:_ftol3_.obj
 0001:00037de1       __dtoui3                   10038de1 f   LIBCMTD:_ftol3_.obj
 0001:00037df0       __dtoul3                   10038df0 f   LIBCMTD:_ftol3_.obj
 0001:00037dff       __dtol3                    10038dff f   LIBCMTD:_ftol3_.obj
 0001:00037e0c       __dtol3_NaN                10038e0c f   LIBCMTD:_ftol3_.obj
 0001:00037e29       __dtol3_work               10038e29 f   LIBCMTD:_ftol3_.obj
 0001:00037f10       __ultod3                   10038f10 f   LIBCMTD:_ftol3_.obj
 0001:00037f50       __ltod3                    10038f50 f   LIBCMTD:_ftol3_.obj
 0001:00038060       ?__scrt_initialize_type_info@@YAXXZ 10039060 f   LIBCMTD:tncleanup.obj
 0001:00038080       ?__scrt_uninitialize_type_info@@YAXXZ 10039080 f   LIBCMTD:tncleanup.obj
 0001:000380a0       ??1type_info@@UAE@XZ       100390a0 f   LIBCMTD:std_type_info_static.obj
 0001:000380c0       ??_Etype_info@@UAEPAXI@Z   100390c0 f i LIBCMTD:std_type_info_static.obj
 0001:000380c0       ??_Gtype_info@@UAEPAXI@Z   100390c0 f i LIBCMTD:std_type_info_static.obj
 0001:000386c0       __CRT_INIT@12              100396c0 f   LIBCMTD:dll_dllmain.obj
 0001:000386e0       __DllMainCRTStartup@12     100396e0 f   LIBCMTD:dll_dllmain.obj
 0001:00038710       ??3@YAXPAX@Z               10039710 f   LIBCMTD:delete_scalar.obj
 0001:00038730       ??_V@YAXPAX@Z              10039730 f   LIBCMTD:delete_array.obj
 0001:00038750       ?_RTC_GetErrorFunc@@YAP6AHHPBDH00ZZPBX@Z 10039750 f   LIBCMTD:_userapi_.obj
 0001:00038760       ?_RTC_GetErrorFuncW@@YAP6AHHPB_WH00ZZPBX@Z 10039760 f   LIBCMTD:_userapi_.obj
 0001:00038770       __RTC_GetErrDesc           10039770 f   LIBCMTD:_userapi_.obj
 0001:00038790       __RTC_NumErrors            10039790 f   LIBCMTD:_userapi_.obj
 0001:000387a0       __RTC_SetErrorFunc         100397a0 f   LIBCMTD:_userapi_.obj
 0001:000387d0       __RTC_SetErrorFuncW        100397d0 f   LIBCMTD:_userapi_.obj
 0001:00038800       __RTC_SetErrorType         10039800 f   LIBCMTD:_userapi_.obj
 0001:00038830       __chkstk                   10039830 f   LIBCMTD:chkstk.obj
 0001:00038830       __alloca_probe             10039830 f   LIBCMTD:chkstk.obj
 0001:00038870       ??$__crt_fast_decode_pointer@PAP6AXXZ@@YAPAP6AXXZQAP6AXXZ@Z 10039870 f i LIBCMTD:utility.obj
 0001:000388a0       ??$__crt_fast_encode_pointer@PAP6AXXZ@@YAPAP6AXXZQAP6AXXZ@Z 100398a0 f i LIBCMTD:utility.obj
 0001:000388e0       ?__crt_rotate_pointer_value@@YAIIH@Z 100398e0 f i LIBCMTD:utility.obj
 0001:000388f0       ?configure_argv@__scrt_narrow_argv_policy@@SAHXZ 100398f0 f i LIBCMTD:utility.obj
 0001:00038a50       _NtCurrentTeb              10039a50 f i LIBCMTD:utility.obj
 0001:00038a60       ___scrt_acquire_startup_lock 10039a60 f   LIBCMTD:utility.obj
 0001:00038ac0       ___scrt_dllmain_after_initialize_c 10039ac0 f   LIBCMTD:utility.obj
 0001:00038b00       ___scrt_dllmain_before_initialize_c 10039b00 f   LIBCMTD:utility.obj
 0001:00038b30       ___scrt_dllmain_crt_thread_attach 10039b30 f   LIBCMTD:utility.obj
 0001:00038b70       ___scrt_dllmain_crt_thread_detach 10039b70 f   LIBCMTD:utility.obj
 0001:00038b90       ___scrt_dllmain_exception_filter 10039b90 f   LIBCMTD:utility.obj
 0001:00038bf0       ___scrt_dllmain_uninitialize_c 10039bf0 f   LIBCMTD:utility.obj
 0001:00038c30       ___scrt_dllmain_uninitialize_critical 10039c30 f   LIBCMTD:utility.obj
 0001:00038c50       ___scrt_initialize_crt     10039c50 f   LIBCMTD:utility.obj
 0001:00038cb0       ___scrt_initialize_onexit_tables 10039cb0 f   LIBCMTD:utility.obj
 0001:00038db0       ___scrt_is_nonwritable_in_current_image 10039db0 f   LIBCMTD:utility.obj
 0001:00038f30       ___scrt_release_startup_lock 10039f30 f   LIBCMTD:utility.obj
 0001:00038f60       ___scrt_uninitialize_crt   10039f60 f   LIBCMTD:utility.obj
 0001:00038fb0       __onexit                   10039fb0 f   LIBCMTD:utility.obj
 0001:00039040       _at_quick_exit             1003a040 f   LIBCMTD:utility.obj
 0001:000390a0       _atexit                    1003a0a0 f   LIBCMTD:utility.obj
 0001:000390e0       ___security_init_cookie    1003a0e0 f   LIBCMTD:gs_support.obj
 0001:00039200       _DllMain@12                1003a200 f   LIBCMTD:dll_dllmain_stub.obj
 0001:00039210       ___local_stdio_printf_options 1003a210 f i LIBCMTD:default_local_stdio_options.obj
 0001:00039220       ___local_stdio_scanf_options 1003a220 f i LIBCMTD:default_local_stdio_options.obj
 0001:00039230       ___scrt_initialize_default_local_stdio_options 1003a230 f   LIBCMTD:default_local_stdio_options.obj
 0001:00039280       ___scrt_get_dyn_tls_init_callback 1003a280 f   LIBCMTD:dyn_tls_init.obj
 0001:00039290       ___scrt_fastfail           1003a290 f   LIBCMTD:utility_desktop.obj
 0001:00039420       ___scrt_get_show_window_mode 1003a420 f   LIBCMTD:utility_desktop.obj
 0001:00039470       ___scrt_initialize_winrt   1003a470 f   LIBCMTD:utility_desktop.obj
 0001:00039480       ___scrt_is_managed_app     1003a480 f   LIBCMTD:utility_desktop.obj
 0001:00039530       ___scrt_set_unhandled_exception_filter 1003a530 f   LIBCMTD:utility_desktop.obj
 0001:00039550       ___scrt_unhandled_exception_filter@4 1003a550 f   LIBCMTD:utility_desktop.obj
 0001:000395d0       __crt_debugger_hook        1003a5d0 f   LIBCMTD:utility_desktop.obj
 0001:000395f0       __RTC_Initialize           1003a5f0 f   LIBCMTD:_initsect_.obj
 0001:00039630       __RTC_Terminate            1003a630 f   LIBCMTD:_initsect_.obj
 0001:00039670       @_guard_check_icall@4      1003a670 f i LIBCMTD:checkcfg.obj
 0001:00039690       ??$__vcrt_va_start_verify_argument_type@QBD@@YAXXZ 1003a690 f i LIBCMTD:_error_.obj
 0001:00039840       ?_RTC_AllocaFailure@@YAXPAXPAU_RTC_ALLOCA_NODE@@H@Z 1003a840 f   LIBCMTD:_error_.obj
 0001:000399b0       ?_RTC_Failure@@YAXPAXH@Z   1003a9b0 f   LIBCMTD:_error_.obj
 0001:00039a20       ?_RTC_StackFailure@@YAXPAXPBD@Z 1003aa20 f   LIBCMTD:_error_.obj
 0001:00039ea0       __RTC_UninitUse            1003aea0 f   LIBCMTD:_error_.obj
 0001:00039fd0       __vsprintf_s_l             1003afd0 f i LIBCMTD:_error_.obj
 0001:0003a010       _sprintf_s                 1003b010 f i LIBCMTD:_error_.obj
 0001:0003a040       ___isa_available_init      1003b040 f   LIBCMTD:_cpu_disp_.obj
 0001:0003a3d0       __get_startup_argv_mode    1003b3d0 f   LIBCMTD:argv_mode.obj
 0001:0003a3e0       ___scrt_is_ucrt_dll_in_use 1003b3e0 f   LIBCMTD:ucrt_detection.obj
 0001:0003a410       @_guard_check_icall_nop@4  1003b410 f i LIBCMTD:guard_support.obj
 0001:0003a420       __guard_icall_checks_enforced 1003b420 f i LIBCMTD:guard_support.obj
 0001:0003aa10       ?_RTC_GetSrcLine@@YAHPAEPA_WKPAH1K@Z 1003ba10 f   LIBCMTD:_pdblkup_.obj
 0001:0003ae40       @__security_check_cookie@4 1003be40 f   LIBCMTD:_secchk_.obj
 0001:0003ae60       ___raise_securityfailure   1003be60 f   LIBCMTD:gs_report.obj
 0001:0003aea0       ___report_gsfailure        1003bea0 f   LIBCMTD:gs_report.obj
 0001:0003aff0       ___report_rangecheckfailure 1003bff0 f   LIBCMTD:gs_report.obj
 0001:0003b000       ___report_securityfailure  1003c000 f   LIBCMTD:gs_report.obj
 0001:0003b110       ___report_securityfailureEx 1003c110 f   LIBCMTD:gs_report.obj
 0001:0003b280       ??$__crt_fast_decode_pointer@P6AXXZ@@YAP6AXXZQ6AXXZ@Z 1003c280 f i libvcruntimed:purevirt.obj
 0001:0003b2b0       ??$__crt_fast_encode_pointer@P6AXXZ@@YAP6AXXZQ6AXXZ@Z 1003c2b0 f i libvcruntimed:purevirt.obj
 0001:0003b2f0       ??$__crt_interlocked_compare_exchange_pointer@$$A6AXXZ$$T$$T@@YAP6AXXZPDS6AXXZ$$T1@Z 1003c2f0 f i libvcruntimed:purevirt.obj
 0001:0003b310       ??$__crt_interlocked_exchange_pointer@$$A6AXXZP6AXXZ@@YAP6AXXZPDS6AXXZQ6AXXZ@Z 1003c310 f i libvcruntimed:purevirt.obj
 0001:0003b320       ??$__crt_interlocked_read_pointer@$$A6AXXZ@@YAP6AXXZPDS6AXXZ@Z 1003c320 f i libvcruntimed:purevirt.obj
 0001:0003b340       __get_purecall_handler     1003c340 f   libvcruntimed:purevirt.obj
 0001:0003b370       __purecall                 1003c370 f   libvcruntimed:purevirt.obj
 0001:0003b3b0       __set_purecall_handler     1003c3b0 f   libvcruntimed:purevirt.obj
 0001:0003b3f0       _memcpy                    1003c3f0 f   libvcruntimed:memcpy.obj
 0001:0003bad0       _memset                    1003cad0 f   libvcruntimed:memset.obj
 0001:0003bcc0       ??$?RD@__crt_internal_free_policy@@QBEXQBD@Z 1003ccc0 f i libvcruntimed:std_type_info.obj
 0001:0003bcf0       ??$?RX@__crt_internal_free_policy@@QBEXQBX@Z 1003ccf0 f i libvcruntimed:std_type_info.obj
 0001:0003bd20       ??$__crt_interlocked_compare_exchange_pointer@$$CBD$$T$$T@@YAPBDPDSBD$$T1@Z 1003cd20 f i libvcruntimed:std_type_info.obj
 0001:0003bd40       ??$__crt_interlocked_compare_exchange_pointer@$$CBDPAD$$T@@YAPBDPDSBDQAD$$T@Z 1003cd40 f i libvcruntimed:std_type_info.obj
 0001:0003bd60       ??$__crt_interlocked_read_pointer@$$CBD@@YAPBDPDSBD@Z 1003cd60 f i libvcruntimed:std_type_info.obj
 0001:0003bd80       ??0?$__crt_unique_heap_ptr@DU__crt_internal_free_policy@@@@QAE@QAD@Z 1003cd80 f i libvcruntimed:std_type_info.obj
 0001:0003bda0       ??0?$__crt_unique_heap_ptr@XU__crt_internal_free_policy@@@@QAE@QAX@Z 1003cda0 f i libvcruntimed:std_type_info.obj
 0001:0003bdc0       ??1?$__crt_unique_heap_ptr@DU__crt_internal_free_policy@@@@QAE@XZ 1003cdc0 f i libvcruntimed:std_type_info.obj
 0001:0003bde0       ??1?$__crt_unique_heap_ptr@XU__crt_internal_free_policy@@@@QAE@XZ 1003cde0 f i libvcruntimed:std_type_info.obj
 0001:0003be40       ??B?$__crt_unique_heap_ptr@DU__crt_internal_free_policy@@@@QBE_NXZ 1003ce40 f i libvcruntimed:std_type_info.obj
 0001:0003be60       ??B?$__crt_unique_heap_ptr@XU__crt_internal_free_policy@@@@QBE_NXZ 1003ce60 f i libvcruntimed:std_type_info.obj
 0001:0003bee0       ?detach@?$__crt_unique_heap_ptr@XU__crt_internal_free_policy@@@@QAEPAXXZ 1003cee0 f i libvcruntimed:std_type_info.obj
 0001:0003bf10       ?get@?$__crt_unique_heap_ptr@DU__crt_internal_free_policy@@@@QBEPADXZ 1003cf10 f i libvcruntimed:std_type_info.obj
 0001:0003bf30       ?get@?$__crt_unique_heap_ptr@XU__crt_internal_free_policy@@@@QBEPAXXZ 1003cf30 f i libvcruntimed:std_type_info.obj
 0001:0003bf50       ?is_valid@?$__crt_unique_heap_ptr@DU__crt_internal_free_policy@@@@QBE_NXZ 1003cf50 f i libvcruntimed:std_type_info.obj
 0001:0003bf90       ?is_valid@?$__crt_unique_heap_ptr@XU__crt_internal_free_policy@@@@QBE_NXZ 1003cf90 f i libvcruntimed:std_type_info.obj
 0001:0003bfd0       ?release@?$__crt_unique_heap_ptr@DU__crt_internal_free_policy@@@@QAEXXZ 1003cfd0 f i libvcruntimed:std_type_info.obj
 0001:0003c000       ?release@?$__crt_unique_heap_ptr@XU__crt_internal_free_policy@@@@QAEXXZ 1003d000 f i libvcruntimed:std_type_info.obj
 0001:0003c030       ___std_type_info_compare   1003d030 f   libvcruntimed:std_type_info.obj
 0001:0003c060       ___std_type_info_destroy_list 1003d060 f   libvcruntimed:std_type_info.obj
 0001:0003c0b0       ___std_type_info_hash      1003d0b0 f   libvcruntimed:std_type_info.obj
 0001:0003c120       ___std_type_info_name      1003d120 f   libvcruntimed:std_type_info.obj
 0001:0003c580       _memcmp                    1003d580 f   libvcruntimed:_memcmp_.obj
 0001:0003d100       __except_handler4          1003e100 f   libvcruntimed:_chandler4_.obj
 0001:0003d350       ___vcrt_initialize         1003e350 f   libvcruntimed:initialization.obj
 0001:0003d3a0       ___vcrt_thread_attach      1003e3a0 f   libvcruntimed:initialization.obj
 0001:0003d3c0       ___vcrt_thread_detach      1003e3c0 f   libvcruntimed:initialization.obj
 0001:0003d3e0       ___vcrt_uninitialize       1003e3e0 f   libvcruntimed:initialization.obj
 0001:0003d410       ___vcrt_uninitialize_critical 1003e410 f   libvcruntimed:initialization.obj
 0001:0003d430       ___vcrt_GetModuleFileNameW 1003e430 f   libvcruntimed:winapi_thunks.obj
 0001:0003d450       ___vcrt_GetModuleHandleW   1003e450 f   libvcruntimed:winapi_thunks.obj
 0001:0003d470       ___vcrt_LoadLibraryExW     1003e470 f   libvcruntimed:winapi_thunks.obj
 0001:0003d490       ??$?B$$A6AXXZ@__crt_fast_encoded_nullptr_t@@QBEP6AXXZXZ 1003e490 f i libvcruntimed:purevirt_data.obj
 0001:0003d4b0       ?__crt_fast_encode_pointer@@YA?AU__crt_fast_encoded_nullptr_t@@$$T@Z 1003e4b0 f i libvcruntimed:purevirt_data.obj
 0001:0003d4c0       ___vcrt_initialize_pure_virtual_call_handler 1003e4c0 f   libvcruntimed:purevirt_data.obj
 0001:0003d4f0       ??0Block@_HeapManager@@QAE@XZ 1003e4f0 f i libvcruntimed:undname.obj
 0001:0003d510       ??0DName@@QAE@AAPBDD@Z     1003e510 f   libvcruntimed:undname.obj
 0001:0003d880       ??0DName@@QAE@ABV0@@Z      1003e880 f i libvcruntimed:undname.obj
 0001:0003d8b0       ??0DName@@QAE@D@Z          1003e8b0 f   libvcruntimed:undname.obj
 0001:0003d9c0       ??0DName@@QAE@PAV0@@Z      1003e9c0 f   libvcruntimed:undname.obj
 0001:0003db40       ??0DName@@QAE@PBD@Z        1003eb40 f   libvcruntimed:undname.obj
 0001:0003dc70       ??0DName@@QAE@W4DNameStatus@@@Z 1003ec70 f   libvcruntimed:undname.obj
 0001:0003ddd0       ??0DName@@QAE@XZ           1003edd0 f i libvcruntimed:undname.obj
 0001:0003dec0       ??0DName@@QAE@_J@Z         1003eec0 f   libvcruntimed:undname.obj
 0001:0003e0a0       ??0DName@@QAE@_K@Z         1003f0a0 f   libvcruntimed:undname.obj
 0001:0003e230       ??0DNameNode@@IAE@XZ       1003f230 f   libvcruntimed:undname.obj
 0001:0003e250       ??0DNameStatusNode@@AAE@W4DNameStatus@@@Z 1003f250 f   libvcruntimed:undname.obj
 0001:0003e2c0       ??0Replicator@@QAE@XZ      1003f2c0 f i libvcruntimed:undname.obj
 0001:0003e2e0       ??0UnDecorator@@QAE@PADPBDHP6APADJ@ZK@Z 1003f2e0 f i libvcruntimed:undname.obj
 0001:0003e3a0       ??0charNode@@QAE@D@Z       1003f3a0 f   libvcruntimed:undname.obj
 0001:0003e3e0       ??0pDNameNode@@QAE@PAVDName@@@Z 1003f3e0 f   libvcruntimed:undname.obj
 0001:0003e460       ??0pairNode@@QAE@PAVDNameNode@@0@Z 1003f460 f   libvcruntimed:undname.obj
 0001:0003e4b0       ??0pcharNode@@QAE@PBDH@Z   1003f4b0 f   libvcruntimed:undname.obj
 0001:0003e570       ??2@YAPAXIAAV_HeapManager@@H@Z 1003f570 f i libvcruntimed:undname.obj
 0001:0003e590       ??4DName@@QAEAAV0@ABV0@@Z  1003f590 f   libvcruntimed:undname.obj
 0001:0003e5c0       ??4DName@@QAEAAV0@D@Z      1003f5c0 f i libvcruntimed:undname.obj
 0001:0003e6d0       ??4DName@@QAEAAV0@PAV0@@Z  1003f6d0 f   libvcruntimed:undname.obj
 0001:0003e850       ??4DName@@QAEAAV0@PBD@Z    1003f850 f   libvcruntimed:undname.obj
 0001:0003e960       ??4DName@@QAEAAV0@W4DNameStatus@@@Z 1003f960 f   libvcruntimed:undname.obj
 0001:0003eaa0       ??AReplicator@@QBE?AVDName@@H@Z 1003faa0 f   libvcruntimed:undname.obj
 0001:0003eb20       ??BUnDecorator@@QAEPADXZ   1003fb20 f i libvcruntimed:undname.obj
 0001:0003ee70       ??H@YA?AVDName@@DABV0@@Z   1003fe70 f i libvcruntimed:undname.obj
 0001:0003eeb0       ??H@YA?AVDName@@PBDABV0@@Z 1003feb0 f i libvcruntimed:undname.obj
 0001:0003eef0       ??H@YA?AVDName@@W4DNameStatus@@ABV0@@Z 1003fef0 f i libvcruntimed:undname.obj
 0001:0003ef30       ??HDName@@QBE?AV0@ABV0@@Z  1003ff30 f   libvcruntimed:undname.obj
 0001:0003ef80       ??HDName@@QBE?AV0@D@Z      1003ff80 f   libvcruntimed:undname.obj
 0001:0003efd0       ??HDName@@QBE?AV0@PAV0@@Z  1003ffd0 f   libvcruntimed:undname.obj
 0001:0003f020       ??HDName@@QBE?AV0@PBD@Z    10040020 f   libvcruntimed:undname.obj
 0001:0003f070       ??HDName@@QBE?AV0@W4DNameStatus@@@Z 10040070 f   libvcruntimed:undname.obj
 0001:0003f0c0       ??YDName@@QAEAAV0@ABV0@@Z  100400c0 f   libvcruntimed:undname.obj
 0001:0003f140       ??YDName@@QAEAAV0@D@Z      10040140 f   libvcruntimed:undname.obj
 0001:0003f1e0       ??YDName@@QAEAAV0@PAV0@@Z  100401e0 f   libvcruntimed:undname.obj
 0001:0003f2c0       ??YDName@@QAEAAV0@PBD@Z    100402c0 f   libvcruntimed:undname.obj
 0001:0003f380       ??YDName@@QAEAAV0@W4DNameStatus@@@Z 10040380 f   libvcruntimed:undname.obj
 0001:0003f400       ??YReplicator@@QAEAAV0@ABVDName@@@Z 10040400 f   libvcruntimed:undname.obj
 0001:0003f4b0       ??_5DName@@QAEAAV0@ABV0@@Z 100404b0 f   libvcruntimed:undname.obj
 0001:0003f520       ?Constructor@_HeapManager@@QAEXP6APAXI@ZP6AXPAX@Z@Z 10040520 f i libvcruntimed:undname.obj
 0001:0003f570       ?Destructor@_HeapManager@@QAEXXZ 10040570 f i libvcruntimed:undname.obj
 0001:0003f5e0       ?UScore@UnDecorator@@SAPBDW4Tokens@@@Z 100405e0 f   libvcruntimed:undname.obj
 0001:0003f620       ?append@DName@@AAEXPAVDNameNode@@@Z 10040620 f   libvcruntimed:undname.obj
 0001:0003f6d0       ?composeDeclaration@UnDecorator@@CA?AVDName@@ABV2@@Z 100406d0 f i libvcruntimed:undname.obj
 0001:00041a80       ?dbGetString@DName@@QBEPADXZ 10042a80 f   libvcruntimed:undname.obj
 0001:00041ab0       ?doAccessSpecifiers@UnDecorator@@SAHXZ 10042ab0 f i libvcruntimed:undname.obj
 0001:00041ae0       ?doAllocationLanguage@UnDecorator@@SAHXZ 10042ae0 f i libvcruntimed:undname.obj
 0001:00041b10       ?doAllocationModel@UnDecorator@@SAHXZ 10042b10 f i libvcruntimed:undname.obj
 0001:00041b40       ?doEcsu@UnDecorator@@SAHXZ 10042b40 f i libvcruntimed:undname.obj
 0001:00041b70       ?doEllipsis@UnDecorator@@SAHXZ 10042b70 f i libvcruntimed:undname.obj
 0001:00041ba0       ?doFunctionReturns@UnDecorator@@SAHXZ 10042ba0 f i libvcruntimed:undname.obj
 0001:00041bd0       ?doMSKeywords@UnDecorator@@SAHXZ 10042bd0 f i libvcruntimed:undname.obj
 0001:00041c00       ?doMemberTypes@UnDecorator@@SAHXZ 10042c00 f i libvcruntimed:undname.obj
 0001:00041c30       ?doNameOnly@UnDecorator@@SAHXZ 10042c30 f i libvcruntimed:undname.obj
 0001:00041c50       ?doNoIdentCharCheck@UnDecorator@@SAHXZ 10042c50 f i libvcruntimed:undname.obj
 0001:00041c70       ?doPchar@DName@@AAEXPBDH@Z 10042c70 f   libvcruntimed:undname.obj
 0001:00041e00       ?doPtr64@UnDecorator@@SAHXZ 10042e00 f i libvcruntimed:undname.obj
 0001:00041e30       ?doRestrictionSpec@UnDecorator@@SAHXZ 10042e30 f i libvcruntimed:undname.obj
 0001:00041e60       ?doThisTypes@UnDecorator@@SAHXZ 10042e60 f i libvcruntimed:undname.obj
 0001:00041ea0       ?doThrowTypes@UnDecorator@@SAHXZ 10042ea0 f i libvcruntimed:undname.obj
 0001:00041ed0       ?doTypeOnly@UnDecorator@@SAHXZ 10042ed0 f i libvcruntimed:undname.obj
 0001:00041ef0       ?doUnderScore@UnDecorator@@SAHXZ 10042ef0 f i libvcruntimed:undname.obj
 0001:00041f20       ?getArgumentList@UnDecorator@@CA?AVDName@@XZ 10042f20 f   libvcruntimed:undname.obj
 0001:000420c0       ?getArgumentTypes@UnDecorator@@CA?AVDName@@XZ 100430c0 f   libvcruntimed:undname.obj
 0001:00042270       ?getArrayType@UnDecorator@@CA?AVDName@@ABV2@@Z 10043270 f i libvcruntimed:undname.obj
 0001:00042530       ?getBasedType@UnDecorator@@CA?AVDName@@XZ 10043530 f   libvcruntimed:undname.obj
 0001:00042620       ?getBasicDataType@UnDecorator@@CA?AVDName@@ABV2@@Z 10043620 f   libvcruntimed:undname.obj
 0001:00042d80       ?getCallIndex@UnDecorator@@CA?AVDName@@XZ 10043d80 f i libvcruntimed:undname.obj
 0001:00042da0       ?getCallingConvention@UnDecorator@@CA?AVDName@@XZ 10043da0 f   libvcruntimed:undname.obj
 0001:00042f90       ?getDataIndirectType@UnDecorator@@CA?AVDName@@ABV2@PBD0H@Z 10043f90 f   libvcruntimed:undname.obj
 0001:00043940       ?getDataIndirectType@UnDecorator@@CA?AVDName@@XZ 10044940 f i libvcruntimed:undname.obj
 0001:00043990       ?getDataType@UnDecorator@@CA?AVDName@@PAV2@@Z 10044990 f   libvcruntimed:undname.obj
 0001:00043af0       ?getDecoratedName@UnDecorator@@CA?AVDName@@XZ 10044af0 f   libvcruntimed:undname.obj
 0001:00043ee0       ?getDimension@UnDecorator@@CA?AVDName@@_N@Z 10044ee0 f   libvcruntimed:undname.obj
 0001:00044240       ?getDispatchTarget@UnDecorator@@CA?AVDName@@XZ 10045240 f   libvcruntimed:undname.obj
 0001:00044300       ?getDisplacement@UnDecorator@@CA?AVDName@@XZ 10045300 f i libvcruntimed:undname.obj
 0001:00044320       ?getECSUDataType@UnDecorator@@CA?AVDName@@XZ 10045320 f   libvcruntimed:undname.obj
 0001:00044560       ?getECSUName@UnDecorator@@CA?AVDName@@XZ 10045560 f i libvcruntimed:undname.obj
 0001:00044580       ?getEnumType@UnDecorator@@CA?AVDName@@XZ 10045580 f i libvcruntimed:undname.obj
 0001:00044720       ?getExtendedDataIndirectType@UnDecorator@@CA?AVDName@@AAPBDAA_NH@Z 10045720 f   libvcruntimed:undname.obj
 0001:00044a00       ?getExternalDataType@UnDecorator@@CA?AVDName@@ABV2@@Z 10045a00 f i libvcruntimed:undname.obj
 0001:00044ac0       ?getFunctionIndirectType@UnDecorator@@CA?AVDName@@ABV2@@Z 10045ac0 f   libvcruntimed:undname.obj
 0001:00045070       ?getGuardNumber@UnDecorator@@CA?AVDName@@XZ 10046070 f i libvcruntimed:undname.obj
 0001:00045090       ?getLastChar@DName@@QBEDXZ 10046090 f i libvcruntimed:undname.obj
 0001:000450e0       ?getLastChar@DNameStatusNode@@UBEDXZ 100460e0 f i libvcruntimed:undname.obj
 0001:00045120       ?getLastChar@charNode@@UBEDXZ 10046120 f i libvcruntimed:undname.obj
 0001:00045140       ?getLastChar@pDNameNode@@UBEDXZ 10046140 f i libvcruntimed:undname.obj
 0001:00045180       ?getLastChar@pairNode@@UBEDXZ 10046180 f i libvcruntimed:undname.obj
 0001:00045200       ?getLastChar@pcharNode@@UBEDXZ 10046200 f i libvcruntimed:undname.obj
 0001:00045240       ?getLexicalFrame@UnDecorator@@CA?AVDName@@XZ 10046240 f i libvcruntimed:undname.obj
 0001:00045290       ?getMemory@_HeapManager@@QAEPAXIH@Z 10046290 f   libvcruntimed:undname.obj
 0001:000453f0       ?getNumberOfDimensions@UnDecorator@@CAHXZ 100463f0 f   libvcruntimed:undname.obj
 0001:00045530       ?getOperatorName@UnDecorator@@CA?AVDName@@_NPA_N@Z 10046530 f i libvcruntimed:undname.obj
 0001:000461f0       ?getPointerType@UnDecorator@@CA?AVDName@@ABV2@0@Z 100471f0 f i libvcruntimed:undname.obj
 0001:00046230       ?getPointerTypeArray@UnDecorator@@CA?AVDName@@ABV2@0@Z 10047230 f i libvcruntimed:undname.obj
 0001:00046270       ?getPrimaryDataType@UnDecorator@@CA?AVDName@@ABV2@@Z 10047270 f   libvcruntimed:undname.obj
 0001:00046760       ?getPtrRefDataType@UnDecorator@@CA?AVDName@@ABV2@H@Z 10047760 f   libvcruntimed:undname.obj
 0001:00046960       ?getPtrRefType@UnDecorator@@CA?AVDName@@ABV2@0PBD@Z 10047960 f   libvcruntimed:undname.obj
 0001:00046b30       ?getReferenceType@UnDecorator@@CA?AVDName@@ABV2@0PBD@Z 10047b30 f i libvcruntimed:undname.obj
 0001:00046b60       ?getRestrictionSpec@UnDecorator@@CA?AVDName@@XZ 10047b60 f   libvcruntimed:undname.obj
 0001:00046d00       ?getReturnType@UnDecorator@@CA?AVDName@@PAV2@@Z 10047d00 f   libvcruntimed:undname.obj
 0001:00046d60       ?getScope@UnDecorator@@CA?AVDName@@XZ 10047d60 f   libvcruntimed:undname.obj
 0001:00047390       ?getScopedName@UnDecorator@@CA?AVDName@@XZ 10048390 f   libvcruntimed:undname.obj
 0001:000474f0       ?getSignedDimension@UnDecorator@@CA?AVDName@@XZ 100484f0 f   libvcruntimed:undname.obj
 0001:00047590       ?getStorageConvention@UnDecorator@@CA?AVDName@@XZ 10048590 f i libvcruntimed:undname.obj
 0001:000475b0       ?getString@DName@@QBEPADPAD0@Z 100485b0 f i libvcruntimed:undname.obj
 0001:00047610       ?getString@DName@@QBEPADPADH@Z 10048610 f i libvcruntimed:undname.obj
 0001:000476c0       ?getString@DNameStatusNode@@UBEPADPAD0@Z 100486c0 f i libvcruntimed:undname.obj
 0001:00047700       ?getString@charNode@@UBEPADPAD0@Z 10048700 f i libvcruntimed:undname.obj
 0001:00047740       ?getString@pDNameNode@@UBEPADPAD0@Z 10048740 f i libvcruntimed:undname.obj
 0001:00047790       ?getString@pairNode@@UBEPADPAD0@Z 10048790 f i libvcruntimed:undname.obj
 0001:00047830       ?getString@pcharNode@@UBEPADPAD0@Z 10048830 f i libvcruntimed:undname.obj
 0001:00047870       ?getStringEncoding@UnDecorator@@CA?AVDName@@PADH@Z 10048870 f   libvcruntimed:undname.obj
 0001:000479c0       ?getStringHelper@@YAPADPAD00H@Z 100489c0 f i libvcruntimed:undname.obj
 0001:00047a10       ?getSymbolName@UnDecorator@@CA?AVDName@@XZ 10048a10 f i libvcruntimed:undname.obj
 0001:00047ac0       ?getTemplateArgumentList@UnDecorator@@CA?AVDName@@XZ 10048ac0 f   libvcruntimed:undname.obj
 0001:00047fa0       ?getTemplateConstant@UnDecorator@@CA?AVDName@@XZ 10048fa0 f   libvcruntimed:undname.obj
 0001:000486b0       ?getTemplateName@UnDecorator@@CA?AVDName@@_N@Z 100496b0 f   libvcruntimed:undname.obj
 0001:000488f0       ?getThisType@UnDecorator@@CA?AVDName@@XZ 100498f0 f i libvcruntimed:undname.obj
 0001:00048940       ?getThrowTypes@UnDecorator@@CA?AVDName@@XZ 10049940 f   libvcruntimed:undname.obj
 0001:00048a10       ?getTypeEncoding@UnDecorator@@CAHXZ 10049a10 f i libvcruntimed:undname.obj
 0001:000496e0       ?getVCallThunkType@UnDecorator@@CA?AVDName@@XZ 1004a6e0 f i libvcruntimed:undname.obj
 0001:00049760       ?getVbTableType@UnDecorator@@CA?AVDName@@ABV2@@Z 1004a760 f i libvcruntimed:undname.obj
 0001:00049780       ?getVdispMapType@UnDecorator@@CA?AVDName@@ABV2@@Z 1004a780 f i libvcruntimed:undname.obj
 0001:00049810       ?getVfTableType@UnDecorator@@CA?AVDName@@ABV2@@Z 1004a810 f i libvcruntimed:undname.obj
 0001:00049a40       ?getZName@UnDecorator@@CA?AVDName@@_N0@Z 1004aa40 f   libvcruntimed:undname.obj
 0001:00049dc0       ?haveTemplateParameters@UnDecorator@@SAHXZ 1004adc0 f i libvcruntimed:undname.obj
 0001:00049de0       ?isArray@DName@@QBEHXZ     1004ade0 f i libvcruntimed:undname.obj
 0001:00049e00       ?isComArray@DName@@QBEHXZ  1004ae00 f i libvcruntimed:undname.obj
 0001:00049e20       ?isEmpty@DName@@QBEHXZ     1004ae20 f i libvcruntimed:undname.obj
 0001:00049e60       ?isFull@Replicator@@QBEHXZ 1004ae60 f i libvcruntimed:undname.obj
 0001:00049ea0       ?isNoTE@DName@@QBEHXZ      1004aea0 f i libvcruntimed:undname.obj
 0001:00049ec0       ?isPinPtr@DName@@QBEHXZ    1004aec0 f i libvcruntimed:undname.obj
 0001:00049ee0       ?isPtrRef@DName@@QBEHXZ    1004aee0 f i libvcruntimed:undname.obj
 0001:00049f00       ?isUDC@DName@@QBEHXZ       1004af00 f i libvcruntimed:undname.obj
 0001:00049f50       ?isUDTThunk@DName@@QBEHXZ  1004af50 f i libvcruntimed:undname.obj
 0001:00049fa0       ?isVCallThunk@DName@@QBEHXZ 1004afa0 f i libvcruntimed:undname.obj
 0001:00049fc0       ?isValid@DName@@QBEHXZ     1004afc0 f i libvcruntimed:undname.obj
 0001:0004a000       ?length@DName@@QBEHXZ      1004b000 f i libvcruntimed:undname.obj
 0001:0004a050       ?length@DNameStatusNode@@UBEHXZ 1004b050 f i libvcruntimed:undname.obj
 0001:0004a070       ?length@charNode@@UBEHXZ   1004b070 f i libvcruntimed:undname.obj
 0001:0004a090       ?length@pDNameNode@@UBEHXZ 1004b090 f i libvcruntimed:undname.obj
 0001:0004a0d0       ?length@pairNode@@UBEHXZ   1004b0d0 f i libvcruntimed:undname.obj
 0001:0004a160       ?length@pcharNode@@UBEHXZ  1004b160 f i libvcruntimed:undname.obj
 0001:0004a180       ?make@DNameStatusNode@@SAPAV1@W4DNameStatus@@@Z 1004b180 f i libvcruntimed:undname.obj
 0001:0004a210       ?setIsArray@DName@@QAEXXZ  1004b210 f i libvcruntimed:undname.obj
 0001:0004a240       ?setIsComArray@DName@@QAEXXZ 1004b240 f i libvcruntimed:undname.obj
 0001:0004a270       ?setIsNoTE@DName@@QAEXXZ   1004b270 f i libvcruntimed:undname.obj
 0001:0004a2a0       ?setIsPinPtr@DName@@QAEXXZ 1004b2a0 f i libvcruntimed:undname.obj
 0001:0004a2d0       ?setIsUDC@DName@@QAEXXZ    1004b2d0 f i libvcruntimed:undname.obj
 0001:0004a310       ?setIsVCallThunk@DName@@QAEXXZ 1004b310 f i libvcruntimed:undname.obj
 0001:0004a340       ?setPtrRef@DName@@QAEAAV1@XZ 1004b340 f i libvcruntimed:undname.obj
 0001:0004a370       ?status@DName@@QBE?AW4DNameStatus@@XZ 1004b370 f i libvcruntimed:undname.obj
 0001:0004a490       ___unDName                 1004b490 f   libvcruntimed:undname.obj
 0001:0004a590       ___unDNameEx               1004b590 f   libvcruntimed:undname.obj
 0001:0004a690       __local_unwind4            1004b690 f   libvcruntimed:_exsup4_.obj
 0001:0004a766       __seh_longjmp_unwind4@4    1004b766 f   libvcruntimed:_exsup4_.obj
 0001:0004a78e       @_EH4_CallFilterFunc@8     1004b78e f   libvcruntimed:_exsup4_.obj
 0001:0004a7a5       @_EH4_TransferToHandler@8  1004b7a5 f   libvcruntimed:_exsup4_.obj
 0001:0004a7be       @_EH4_GlobalUnwind2@8      1004b7be f   libvcruntimed:_exsup4_.obj
 0001:0004a7d7       @_EH4_LocalUnwind@16       1004b7d7 f   libvcruntimed:_exsup4_.obj
 0001:0004a850       ___except_validate_context_record 1004b850 f   libvcruntimed:jbcxrval.obj
 0001:0004a8b0       ___except_validate_jump_buffer 1004b8b0 f   libvcruntimed:jbcxrval.obj
 0001:0004a910       ??$?RU__vcrt_ptd@@@__crt_internal_free_policy@@QBEXQBU__vcrt_ptd@@@Z 1004b910 f i libvcruntimed:per_thread_data.obj
 0001:0004a940       ??0?$__crt_unique_heap_ptr@U__vcrt_ptd@@U__crt_internal_free_policy@@@@QAE@QAU__vcrt_ptd@@@Z 1004b940 f i libvcruntimed:per_thread_data.obj
 0001:0004a980       ??1?$__crt_unique_heap_ptr@U__vcrt_ptd@@U__crt_internal_free_policy@@@@QAE@XZ 1004b980 f i libvcruntimed:per_thread_data.obj
 0001:0004a9c0       ??B?$__crt_unique_heap_ptr@U__vcrt_ptd@@U__crt_internal_free_policy@@@@QBE_NXZ 1004b9c0 f i libvcruntimed:per_thread_data.obj
 0001:0004a9e0       ?detach@?$__crt_unique_heap_ptr@U__vcrt_ptd@@U__crt_internal_free_policy@@@@QAEPAU__vcrt_ptd@@XZ 1004b9e0 f i libvcruntimed:per_thread_data.obj
 0001:0004aa10       ?get@?$__crt_unique_heap_ptr@U__vcrt_ptd@@U__crt_internal_free_policy@@@@QBEPAU__vcrt_ptd@@XZ 1004ba10 f i libvcruntimed:per_thread_data.obj
 0001:0004aa30       ?is_valid@?$__crt_unique_heap_ptr@U__vcrt_ptd@@U__crt_internal_free_policy@@@@QBE_NXZ 1004ba30 f i libvcruntimed:per_thread_data.obj
 0001:0004aa70       ?release@?$__crt_unique_heap_ptr@U__vcrt_ptd@@U__crt_internal_free_policy@@@@QAEXXZ 1004ba70 f i libvcruntimed:per_thread_data.obj
 0001:0004aad0       ___vcrt_freefls@4          1004bad0 f   libvcruntimed:per_thread_data.obj
 0001:0004ab00       ___vcrt_freeptd            1004bb00 f   libvcruntimed:per_thread_data.obj
 0001:0004ab70       ___vcrt_getptd             1004bb70 f   libvcruntimed:per_thread_data.obj
 0001:0004aba0       ___vcrt_getptd_noexit      1004bba0 f   libvcruntimed:per_thread_data.obj
 0001:0004ad60       ___vcrt_initialize_ptd     1004bd60 f   libvcruntimed:per_thread_data.obj
 0001:0004adc0       ___vcrt_uninitialize_ptd   1004bdc0 f   libvcruntimed:per_thread_data.obj
 0001:0004ae00       ___vcrt_initialize_locks   1004be00 f   libvcruntimed:locks.obj
 0001:0004ae70       ___vcrt_lock               1004be70 f   libvcruntimed:locks.obj
 0001:0004ae90       ___vcrt_uninitialize_locks 1004be90 f   libvcruntimed:locks.obj
 0001:0004aef0       ___vcrt_unlock             1004bef0 f   libvcruntimed:locks.obj
 0001:0004af10       ??$?BX@__crt_fast_encoded_nullptr_t@@QBEPAXXZ 1004bf10 f i libvcruntimed:winapi_downlevel.obj
 0001:0004af30       ??$__crt_fast_decode_pointer@PAX@@YAPAXQAX@Z 1004bf30 f i libvcruntimed:winapi_downlevel.obj
 0001:0004af60       ??$__crt_fast_encode_pointer@PAX@@YAPAXQAX@Z 1004bf60 f i libvcruntimed:winapi_downlevel.obj
 0001:0004afa0       ??$__crt_interlocked_compare_exchange_pointer@UHINSTANCE__@@$$T$$T@@YAPAUHINSTANCE__@@PDSAU0@$$T1@Z 1004bfa0 f i libvcruntimed:winapi_downlevel.obj
 0001:0004afc0       ??$__crt_interlocked_compare_exchange_pointer@X$$T$$T@@YAPAXPDSAX$$T1@Z 1004bfc0 f i libvcruntimed:winapi_downlevel.obj
 0001:0004afe0       ??$__crt_interlocked_exchange_pointer@UHINSTANCE__@@PAU1@@@YAPAUHINSTANCE__@@PDSAU0@QAU0@@Z 1004bfe0 f i libvcruntimed:winapi_downlevel.obj
 0001:0004aff0       ??$__crt_interlocked_exchange_pointer@UHINSTANCE__@@PAX@@YAPAUHINSTANCE__@@PDSAU0@QAX@Z 1004bff0 f i libvcruntimed:winapi_downlevel.obj
 0001:0004b000       ??$__crt_interlocked_exchange_pointer@XPAX@@YAPAXPDSAXQAX@Z 1004c000 f i libvcruntimed:winapi_downlevel.obj
 0001:0004b010       ??$__crt_interlocked_read_pointer@UHINSTANCE__@@@@YAPAUHINSTANCE__@@PDSAU0@@Z 1004c010 f i libvcruntimed:winapi_downlevel.obj
 0001:0004b030       ??$__crt_interlocked_read_pointer@X@@YAPAXPDSAX@Z 1004c030 f i libvcruntimed:winapi_downlevel.obj
 0001:0004b5d0       ___vcrt_EventRegister      1004c5d0 f   libvcruntimed:winapi_downlevel.obj
 0001:0004b620       ___vcrt_EventSetInformation 1004c620 f   libvcruntimed:winapi_downlevel.obj
 0001:0004b680       ___vcrt_EventUnregister    1004c680 f   libvcruntimed:winapi_downlevel.obj
 0001:0004b6d0       ___vcrt_EventWriteTransfer 1004c6d0 f   libvcruntimed:winapi_downlevel.obj
 0001:0004b730       ___vcrt_FlsAlloc           1004c730 f   libvcruntimed:winapi_downlevel.obj
 0001:0004b780       ___vcrt_FlsFree            1004c780 f   libvcruntimed:winapi_downlevel.obj
 0001:0004b7d0       ___vcrt_FlsGetValue        1004c7d0 f   libvcruntimed:winapi_downlevel.obj
 0001:0004b820       ___vcrt_FlsSetValue        1004c820 f   libvcruntimed:winapi_downlevel.obj
 0001:0004b880       ___vcrt_InitializeCriticalSectionEx 1004c880 f   libvcruntimed:winapi_downlevel.obj
 0001:0004b8e0       ___vcrt_initialize_winapi_thunks 1004c8e0 f   libvcruntimed:winapi_downlevel.obj
 0001:0004b960       ___vcrt_uninitialize_winapi_thunks 1004c960 f   libvcruntimed:winapi_downlevel.obj
 0001:0004b9f0       __global_unwind2           1004c9f0 f   libvcruntimed:_exsup_.obj
 0001:0004ba55       __local_unwind2            1004ca55 f   libvcruntimed:_exsup_.obj
 0001:0004bad9       __abnormal_termination     1004cad9 f   libvcruntimed:_exsup_.obj
 0001:0004bafc       __NLG_Notify1              1004cafc f   libvcruntimed:_exsup_.obj
 0001:0004bb05       __NLG_Notify               1004cb05 f   libvcruntimed:_exsup_.obj
 0001:0004bb1c       __NLG_Dispatch             1004cb1c     libvcruntimed:_exsup_.obj
 0001:0004bb1c       __NLG_Dispatch2            1004cb1c     libvcruntimed:_exsup_.obj
 0001:0004bb24       __NLG_Call                 1004cb24 f   libvcruntimed:_exsup_.obj
 0001:0004bb26       __NLG_Return2              1004cb26     libvcruntimed:_exsup_.obj
 0001:0004bb80       _fabs                      1004cb80 f   libucrtd:fabs.obj
 0001:0004bca0       __CIsqrt                   1004cca0 f   libucrtd:sqrt.obj
 0001:0004bcb4       _sqrt                      1004ccb4     libucrtd:sqrt.obj
 0001:0004bd90       __chgsign                  1004cd90 f   libucrtd:ieeemisc.obj
 0001:0004bdd0       __chgsignf                 1004cdd0 f   libucrtd:ieeemisc.obj
 0001:0004be20       __copysign                 1004ce20 f   libucrtd:ieeemisc.obj
 0001:0004be60       __copysignf                1004ce60 f   libucrtd:ieeemisc.obj
 0001:0004bec0       __finite                   1004cec0 f   libucrtd:ieeemisc.obj
 0001:0004bef0       __fpclass                  1004cef0 f   libucrtd:ieeemisc.obj
 0001:0004c020       __isnan                    1004d020 f   libucrtd:ieeemisc.obj
 0001:0004c080       __logb                     1004d080 f   libucrtd:ieeemisc.obj
 0001:0004c1e0       __nextafter                1004d1e0 f   libucrtd:ieeemisc.obj
 0001:0004c210       __scalb                    1004d210 f   libucrtd:ieeemisc.obj
 0001:0004c240       ??$?RU?$__crt_report_hook_node@D@@@__crt_internal_free_policy@@QBEXQBU?$__crt_report_hook_node@D@@@Z 1004d240 f i libucrtd:dbgrpt.obj
 0001:0004c270       ??$?RU?$__crt_report_hook_node@_W@@@__crt_internal_free_policy@@QBEXQBU?$__crt_report_hook_node@_W@@@Z 1004d270 f i libucrtd:dbgrpt.obj
 0001:0004c2a0       ??$?RV<lambda_4385efabcfedf7d3ecea3114bb4d80a3>@@AAV<lambda_0e04737ef8baea6dabca2b8414b05b67>@@V<lambda_d865d276f220a9fa71140df531e906d8>@@@?$__crt_seh_guarded_call@H@@QAEH$$QAV<lambda_4385efabcfedf7d3ecea3114bb4d80a3>@@AAV<lambda_0e04737ef8baea6dabca2b8414b05b67>@@$$QAV<lambda_d865d276f220a9fa71140df531e906d8>@@@Z 1004d2a0 f i libucrtd:dbgrpt.obj
 0001:0004c350       ??$?RV<lambda_cc3a1c0f52e01ba2b29fe175588291fc>@@AAV<lambda_fe667bea668416e0f0232b481cd5c955>@@V<lambda_bb8fdd70844b93de4445abd0f0332611>@@@?$__crt_seh_guarded_call@H@@QAEH$$QAV<lambda_cc3a1c0f52e01ba2b29fe175588291fc>@@AAV<lambda_fe667bea668416e0f0232b481cd5c955>@@$$QAV<lambda_bb8fdd70844b93de4445abd0f0332611>@@@Z 1004d350 f i libucrtd:dbgrpt.obj
 0001:0004c400       ??$__acrt_lock_and_call@V<lambda_0e04737ef8baea6dabca2b8414b05b67>@@@@YAHW4__acrt_lock_id@@$$QAV<lambda_0e04737ef8baea6dabca2b8414b05b67>@@@Z 1004d400 f i libucrtd:dbgrpt.obj
 0001:0004c450       ??$__acrt_lock_and_call@V<lambda_fe667bea668416e0f0232b481cd5c955>@@@@YAHW4__acrt_lock_id@@$$QAV<lambda_fe667bea668416e0f0232b481cd5c955>@@@Z 1004d450 f i libucrtd:dbgrpt.obj
 0001:0004c4a0       ??$__vcrt_va_start_verify_argument_type@QB_W@@YAXXZ 1004d4a0 f i libucrtd:dbgrpt.obj
 0001:0004d3a0       ??$get_module_file_name@AAPAUHINSTANCE__@@AAY0BAF@DK@?$__crt_char_traits@D@@SAKAAPAUHINSTANCE__@@AAY0BAF@D$$QAK@Z 1004e3a0 f i libucrtd:dbgrpt.obj
 0001:0004d3d0       ??$get_module_file_name@AAPAUHINSTANCE__@@AAY0BAF@_WK@?$__crt_char_traits@_W@@SAKAAPAUHINSTANCE__@@AAY0BAF@_W$$QAK@Z 1004e3d0 f i libucrtd:dbgrpt.obj
 0001:0004d400       ??$tcscpy_s@AAY0BAF@DIPBD@?$__crt_char_traits@D@@SAHAAY0BAF@D$$QAI$$QAPBD@Z 1004e400 f i libucrtd:dbgrpt.obj
 0001:0004d430       ??$tcscpy_s@AAY0BAF@_WIPB_W@?$__crt_char_traits@_W@@SAHAAY0BAF@_W$$QAI$$QAPB_W@Z 1004e430 f i libucrtd:dbgrpt.obj
 0001:0004d460       ??$tcslen@AAY0BAF@D@?$__crt_char_traits@D@@SAIAAY0BAF@D@Z 1004e460 f i libucrtd:dbgrpt.obj
 0001:0004d480       ??$tcslen@AAY0BAF@_W@?$__crt_char_traits@_W@@SAIAAY0BAF@_W@Z 1004e480 f i libucrtd:dbgrpt.obj
 0001:0004d4a0       ??$tcslen@ABQBD@?$__crt_char_traits@D@@SAIABQBD@Z 1004e4a0 f i libucrtd:dbgrpt.obj
 0001:0004d4c0       ??$tcslen@ABQB_W@?$__crt_char_traits@_W@@SAIABQB_W@Z 1004e4c0 f i libucrtd:dbgrpt.obj
 0001:0004d600       ??0?$__crt_unique_heap_ptr@U?$__crt_report_hook_node@D@@U__crt_internal_free_policy@@@@QAE@QAU?$__crt_report_hook_node@D@@@Z 1004e600 f i libucrtd:dbgrpt.obj
 0001:0004d620       ??0?$__crt_unique_heap_ptr@U?$__crt_report_hook_node@_W@@U__crt_internal_free_policy@@@@QAE@QAU?$__crt_report_hook_node@_W@@@Z 1004e620 f i libucrtd:dbgrpt.obj
 0001:0004d640       ??1?$__crt_unique_heap_ptr@U?$__crt_report_hook_node@D@@U__crt_internal_free_policy@@@@QAE@XZ 1004e640 f i libucrtd:dbgrpt.obj
 0001:0004d660       ??1?$__crt_unique_heap_ptr@U?$__crt_report_hook_node@_W@@U__crt_internal_free_policy@@@@QAE@XZ 1004e660 f i libucrtd:dbgrpt.obj
 0001:0004d680       ??B?$__crt_unique_heap_ptr@U?$__crt_report_hook_node@D@@U__crt_internal_free_policy@@@@QBE_NXZ 1004e680 f i libucrtd:dbgrpt.obj
 0001:0004d6a0       ??B?$__crt_unique_heap_ptr@U?$__crt_report_hook_node@_W@@U__crt_internal_free_policy@@@@QBE_NXZ 1004e6a0 f i libucrtd:dbgrpt.obj
 0001:0004dd40       ?detach@?$__crt_unique_heap_ptr@U?$__crt_report_hook_node@D@@U__crt_internal_free_policy@@@@QAEPAU?$__crt_report_hook_node@D@@XZ 1004ed40 f i libucrtd:dbgrpt.obj
 0001:0004dd70       ?detach@?$__crt_unique_heap_ptr@U?$__crt_report_hook_node@_W@@U__crt_internal_free_policy@@@@QAEPAU?$__crt_report_hook_node@_W@@XZ 1004ed70 f i libucrtd:dbgrpt.obj
 0001:0004dda0       ?get@?$__crt_unique_heap_ptr@U?$__crt_report_hook_node@D@@U__crt_internal_free_policy@@@@QBEPAU?$__crt_report_hook_node@D@@XZ 1004eda0 f i libucrtd:dbgrpt.obj
 0001:0004ddc0       ?get@?$__crt_unique_heap_ptr@U?$__crt_report_hook_node@_W@@U__crt_internal_free_policy@@@@QBEPAU?$__crt_report_hook_node@_W@@XZ 1004edc0 f i libucrtd:dbgrpt.obj
 0001:0004de40       ?is_valid@?$__crt_unique_heap_ptr@U?$__crt_report_hook_node@D@@U__crt_internal_free_policy@@@@QBE_NXZ 1004ee40 f i libucrtd:dbgrpt.obj
 0001:0004de80       ?is_valid@?$__crt_unique_heap_ptr@U?$__crt_report_hook_node@_W@@U__crt_internal_free_policy@@@@QBE_NXZ 1004ee80 f i libucrtd:dbgrpt.obj
 0001:0004dec0       ?release@?$__crt_unique_heap_ptr@U?$__crt_report_hook_node@D@@U__crt_internal_free_policy@@@@QAEXXZ 1004eec0 f i libucrtd:dbgrpt.obj
 0001:0004df00       ?release@?$__crt_unique_heap_ptr@U?$__crt_report_hook_node@_W@@U__crt_internal_free_policy@@@@QAEXXZ 1004ef00 f i libucrtd:dbgrpt.obj
 0001:0004df40       __CrtDbgReport             1004ef40 f   libucrtd:dbgrpt.obj
 0001:0004dfa0       __CrtDbgReportW            1004efa0 f   libucrtd:dbgrpt.obj
 0001:0004e000       __CrtSetReportHook2        1004f000 f   libucrtd:dbgrpt.obj
 0001:0004e020       __CrtSetReportHookW2       1004f020 f   libucrtd:dbgrpt.obj
 0001:0004e040       ___acrt_MessageWindowA     1004f040 f   libucrtd:dbgrpt.obj
 0001:0004e070       ___acrt_MessageWindowW     1004f070 f   libucrtd:dbgrpt.obj
 0001:0004e0a0       __invoke_watson_if_error   1004f0a0 f i libucrtd:dbgrpt.obj
 0001:0004e0e0       __invoke_watson_if_oneof   1004f0e0 f i libucrtd:dbgrpt.obj
 0001:0004e130       __snwprintf_s              1004f130 f i libucrtd:dbgrpt.obj
 0001:0004e190       __vsnwprintf_s_l           1004f190 f i libucrtd:dbgrpt.obj
 0001:0004e200       __errcode                  1004f200 f   libucrtd:fpexcept.obj
 0001:0004e290       __except1                  1004f290 f   libucrtd:fpexcept.obj
 0001:0004e3d0       __except2                  1004f3d0 f   libucrtd:fpexcept.obj
 0001:0004e580       __handle_exc               1004f580 f   libucrtd:fpexcept.obj
 0001:0004e960       __handle_qnan2             1004f960 f   libucrtd:fpexcept.obj
 0001:0004e980       __raise_exc                1004f980 f   libucrtd:fpexcept.obj
 0001:0004e9c0       __raise_exc_ex             1004f9c0 f   libucrtd:fpexcept.obj
 0001:0004f0a0       __raise_excf               100500a0 f   libucrtd:fpexcept.obj
 0001:0004f0e0       __set_errno_from_matherr   100500e0 f   libucrtd:fpexcept.obj
 0001:0004f130       __umatherr                 10050130 f   libucrtd:fpexcept.obj
 0001:0004f200       __initterm                 10050200 f   libucrtd:initterm.obj
 0001:0004f270       __initterm_e               10050270 f   libucrtd:initterm.obj
 0001:0004f300       ??$__crt_interlocked_read@J@@YAJPDJ@Z 10050300 f i libucrtd:debug_heap.obj
 0001:0004f320       ??0_LocaleUpdate@@QAE@QAU__crt_locale_pointers@@@Z 10050320 f i libucrtd:debug_heap.obj
 0001:0004f440       ??1_LocaleUpdate@@QAE@XZ   10050440 f i libucrtd:debug_heap.obj
 0001:0004f480       ?GetLocaleT@_LocaleUpdate@@QAEPAU__crt_locale_pointers@@XZ 10050480 f i libucrtd:debug_heap.obj
 0001:0004f4a0       ?__crt_interlocked_read_32@@YAHPDH@Z 100504a0 f i libucrtd:debug_heap.obj
 0001:00051360       __CrtCheckMemory           10052360 f   libucrtd:debug_heap.obj
 0001:00051550       __CrtDoForAllClientObjects 10052550 f   libucrtd:debug_heap.obj
 0001:00051700       __CrtDumpMemoryLeaks       10052700 f   libucrtd:debug_heap.obj
 0001:000517c0       __CrtGetAllocHook          100527c0 f   libucrtd:debug_heap.obj
 0001:000517d0       __CrtGetDumpClient         100527d0 f   libucrtd:debug_heap.obj
 0001:000517e0       __CrtIsMemoryBlock         100527e0 f   libucrtd:debug_heap.obj
 0001:00051980       __CrtIsValidHeapPointer    10052980 f   libucrtd:debug_heap.obj
 0001:000519c0       __CrtIsValidPointer        100529c0 f   libucrtd:debug_heap.obj
 0001:000519f0       __CrtMemCheckpoint         100529f0 f   libucrtd:debug_heap.obj
 0001:00051cb0       __CrtMemDifference         10052cb0 f   libucrtd:debug_heap.obj
 0001:00051fc0       __CrtMemDumpAllObjectsSince 10052fc0 f   libucrtd:debug_heap.obj
 0001:00052080       __CrtMemDumpStatistics     10053080 f   libucrtd:debug_heap.obj
 0001:000521f0       __CrtReportBlockType       100531f0 f   libucrtd:debug_heap.obj
 0001:00052230       __CrtSetAllocHook          10053230 f   libucrtd:debug_heap.obj
 0001:00052260       __CrtSetBreakAlloc         10053260 f   libucrtd:debug_heap.obj
 0001:00052290       __CrtSetDbgBlockType       10053290 f   libucrtd:debug_heap.obj
 0001:000523a0       __CrtSetDbgFlag            100533a0 f   libucrtd:debug_heap.obj
 0001:00052570       __CrtSetDumpClient         10053570 f   libucrtd:debug_heap.obj
 0001:000525a0       ___acrt_get_locale_data_prefix 100535a0 f i libucrtd:debug_heap.obj
 0001:000525c0       ___acrt_locale_changed     100535c0 f i libucrtd:debug_heap.obj
 0001:00052600       ___p__crtBreakAlloc        10053600 f   libucrtd:debug_heap.obj
 0001:00052610       ___p__crtDbgFlag           10053610 f   libucrtd:debug_heap.obj
 0001:00052620       __aligned_free_dbg         10053620 f   libucrtd:debug_heap.obj
 0001:00052700       __aligned_malloc_dbg       10053700 f   libucrtd:debug_heap.obj
 0001:00052730       __aligned_msize_dbg        10053730 f   libucrtd:debug_heap.obj
 0001:000528a0       __aligned_offset_malloc_dbg 100538a0 f   libucrtd:debug_heap.obj
 0001:00052af0       __aligned_offset_realloc_dbg 10053af0 f   libucrtd:debug_heap.obj
 0001:00052ec0       __aligned_offset_recalloc_dbg 10053ec0 f   libucrtd:debug_heap.obj
 0001:00052fb0       __aligned_realloc_dbg      10053fb0 f   libucrtd:debug_heap.obj
 0001:00052fe0       __aligned_recalloc_dbg     10053fe0 f   libucrtd:debug_heap.obj
 0001:00053020       __calloc_dbg               10054020 f   libucrtd:debug_heap.obj
 0001:000530b0       __chvalidchk_l             100540b0 f i libucrtd:debug_heap.obj
 0001:000530e0       __expand_dbg               100540e0 f   libucrtd:debug_heap.obj
 0001:00053260       __free_dbg                 10054260 f   libucrtd:debug_heap.obj
 0001:00053340       __ischartype_l             10054340 f i libucrtd:debug_heap.obj
 0001:000533a0       __malloc_dbg               100543a0 f   libucrtd:debug_heap.obj
 0001:000533d0       __msize_dbg                100543d0 f   libucrtd:debug_heap.obj
 0001:000535c0       __realloc_dbg              100545c0 f   libucrtd:debug_heap.obj
 0001:00053690       __recalloc_dbg             10054690 f   libucrtd:debug_heap.obj
 0001:000537d0       __seh_filter_dll           100547d0 f   libucrtd:exception_filter.obj
 0001:00053800       __seh_filter_exe           10054800 f   libucrtd:exception_filter.obj
 0001:00053ab0       ??$?B$$A6GXPAXK0@Z@__crt_fast_encoded_nullptr_t@@QBEP6GXPAXK0@ZXZ 10054ab0 f i libucrtd:exit.obj
 0001:00053ad0       ??$__crt_fast_decode_pointer@P6GXPAXK0@Z@@YAP6GXPAXK0@ZQ6GX0K0@Z@Z 10054ad0 f i libucrtd:exit.obj
 0001:00053b10       ??$__crt_fast_encode_pointer@P6GXPAXK0@Z@@YAP6GXPAXK0@ZQ6GX0K0@Z@Z 10054b10 f i libucrtd:exit.obj
 0001:00053b50       ??$__crt_get_proc_address@P6GXI@Z@@YAP6GXI@ZQAUHINSTANCE__@@QBD@Z 10054b50 f i libucrtd:exit.obj
 0001:00053b70       ??0?$__crt_unique_handle_t@U__crt_hmodule_traits@@@@QAE@QAUHINSTANCE__@@@Z 10054b70 f i libucrtd:exit.obj
 0001:00053b90       ??1?$__crt_unique_handle_t@U__crt_hmodule_traits@@@@QAE@XZ 10054b90 f i libucrtd:exit.obj
 0001:00053bd0       ?close@?$__crt_unique_handle_t@U__crt_hmodule_traits@@@@QAEXXZ 10054bd0 f i libucrtd:exit.obj
 0001:00053c10       ?close@__crt_hmodule_traits@@SA_NPAUHINSTANCE__@@@Z 10054c10 f i libucrtd:exit.obj
 0001:00053ed0       ?get@?$__crt_unique_handle_t@U__crt_hmodule_traits@@@@QBEPAUHINSTANCE__@@XZ 10054ed0 f i libucrtd:exit.obj
 0001:00053ef0       ?get_address_of@?$__crt_unique_handle_t@U__crt_hmodule_traits@@@@QAEPAPAUHINSTANCE__@@XZ 10054ef0 f i libucrtd:exit.obj
 0001:00053f10       ?get_invalid_value@__crt_hmodule_traits@@SAPAUHINSTANCE__@@XZ 10054f10 f i libucrtd:exit.obj
 0001:000540f0       __Exit                     100550f0 f   libucrtd:exit.obj
 0001:00054110       ___acrt_initialize_thread_local_exit_callback 10055110 f   libucrtd:exit.obj
 0001:00054130       __c_exit                   10055130 f   libucrtd:exit.obj
 0001:00054150       __cexit                    10055150 f   libucrtd:exit.obj
 0001:00054170       __exit                     10055170 f   libucrtd:exit.obj
 0001:00054190       __is_c_termination_complete 10055190 f   libucrtd:exit.obj
 0001:000541b0       __register_thread_local_exe_atexit_callback 100551b0 f   libucrtd:exit.obj
 0001:00054200       _exit                      10055200 f   libucrtd:exit.obj
 0001:00054220       _quick_exit                10055220 f   libucrtd:exit.obj
 0001:00054240       ??$?RE@__crt_internal_free_policy@@QBEXQBE@Z 10055240 f i libucrtd:argv_parsing.obj
 0001:00054270       ??$?RPAD@__crt_internal_free_policy@@QBEXQBQAD@Z 10055270 f i libucrtd:argv_parsing.obj
 0001:000542a0       ??$?RPA_W@__crt_internal_free_policy@@QBEXQBQA_W@Z 100552a0 f i libucrtd:argv_parsing.obj
 0001:00054950       ??$get_module_file_name@$$TAAY0BAF@DH@?$__crt_char_traits@D@@SAK$$QA$$TAAY0BAF@D$$QAH@Z 10055950 f i libucrtd:argv_parsing.obj
 0001:00054980       ??$get_module_file_name@$$TAAY0BAF@_WH@?$__crt_char_traits@_W@@SAK$$QA$$TAAY0BAF@_W$$QAH@Z 10055980 f i libucrtd:argv_parsing.obj
 0001:00055270       ??$set_program_name@PAD@?$__crt_char_traits@D@@SAX$$QAPAD@Z 10056270 f i libucrtd:argv_parsing.obj
 0001:00055290       ??$set_program_name@PA_W@?$__crt_char_traits@_W@@SAX$$QAPA_W@Z 10056290 f i libucrtd:argv_parsing.obj
 0001:000552f0       ??0?$__crt_unique_heap_ptr@EU__crt_internal_free_policy@@@@QAE@QAE@Z 100562f0 f i libucrtd:argv_parsing.obj
 0001:00055310       ??0?$__crt_unique_heap_ptr@PADU__crt_internal_free_policy@@@@QAE@QAPAD@Z 10056310 f i libucrtd:argv_parsing.obj
 0001:00055330       ??0?$__crt_unique_heap_ptr@PA_WU__crt_internal_free_policy@@@@QAE@QAPA_W@Z 10056330 f i libucrtd:argv_parsing.obj
 0001:00055350       ??1?$__crt_unique_heap_ptr@EU__crt_internal_free_policy@@@@QAE@XZ 10056350 f i libucrtd:argv_parsing.obj
 0001:00055370       ??1?$__crt_unique_heap_ptr@PADU__crt_internal_free_policy@@@@QAE@XZ 10056370 f i libucrtd:argv_parsing.obj
 0001:00055390       ??1?$__crt_unique_heap_ptr@PA_WU__crt_internal_free_policy@@@@QAE@XZ 10056390 f i libucrtd:argv_parsing.obj
 0001:000553b0       ??B?$__crt_unique_heap_ptr@EU__crt_internal_free_policy@@@@QBE_NXZ 100563b0 f i libucrtd:argv_parsing.obj
 0001:00055490       ?detach@?$__crt_unique_heap_ptr@EU__crt_internal_free_policy@@@@QAEPAEXZ 10056490 f i libucrtd:argv_parsing.obj
 0001:000554c0       ?detach@?$__crt_unique_heap_ptr@PADU__crt_internal_free_policy@@@@QAEPAPADXZ 100564c0 f i libucrtd:argv_parsing.obj
 0001:000554f0       ?detach@?$__crt_unique_heap_ptr@PA_WU__crt_internal_free_policy@@@@QAEPAPA_WXZ 100564f0 f i libucrtd:argv_parsing.obj
 0001:00055580       ?get@?$__crt_unique_heap_ptr@EU__crt_internal_free_policy@@@@QBEPAEXZ 10056580 f i libucrtd:argv_parsing.obj
 0001:000555a0       ?get@?$__crt_unique_heap_ptr@PADU__crt_internal_free_policy@@@@QBEPAPADXZ 100565a0 f i libucrtd:argv_parsing.obj
 0001:000555c0       ?get@?$__crt_unique_heap_ptr@PA_WU__crt_internal_free_policy@@@@QBEPAPA_WXZ 100565c0 f i libucrtd:argv_parsing.obj
 0001:000555e0       ?get_address_of@?$__crt_unique_heap_ptr@PADU__crt_internal_free_policy@@@@QAEPAPAPADXZ 100565e0 f i libucrtd:argv_parsing.obj
 0001:00055600       ?get_address_of@?$__crt_unique_heap_ptr@PA_WU__crt_internal_free_policy@@@@QAEPAPAPA_WXZ 10056600 f i libucrtd:argv_parsing.obj
 0001:00055660       ?is_valid@?$__crt_unique_heap_ptr@EU__crt_internal_free_policy@@@@QBE_NXZ 10056660 f i libucrtd:argv_parsing.obj
 0001:000556a0       ?release@?$__crt_unique_heap_ptr@EU__crt_internal_free_policy@@@@QAEXXZ 100566a0 f i libucrtd:argv_parsing.obj
 0001:000556e0       ?release@?$__crt_unique_heap_ptr@PADU__crt_internal_free_policy@@@@QAEXXZ 100566e0 f i libucrtd:argv_parsing.obj
 0001:00055720       ?release@?$__crt_unique_heap_ptr@PA_WU__crt_internal_free_policy@@@@QAEXXZ 10056720 f i libucrtd:argv_parsing.obj
 0001:000557b0       ___acrt_allocate_buffer_for_argv 100567b0 f   libucrtd:argv_parsing.obj
 0001:000558a0       __configure_narrow_argv    100568a0 f   libucrtd:argv_parsing.obj
 0001:000558c0       __configure_wide_argv      100568c0 f   libucrtd:argv_parsing.obj
 0001:000558e0       __set_pgmptr               100568e0 f i libucrtd:argv_parsing.obj
 0001:00055900       __set_wpgmptr              10056900 f i libucrtd:argv_parsing.obj
 0001:00055912       ??$?R_W@__crt_internal_free_policy@@QBEXQB_W@Z 10056912 f i libucrtd:environment_initialization.obj
 0001:00055e8d       ??$get_environment_from_os@$$$V@?$__crt_char_traits@D@@SAPADXZ 10056e8d f i libucrtd:environment_initialization.obj
 0001:00055e92       ??$get_environment_from_os@$$$V@?$__crt_char_traits@_W@@SAPA_WXZ 10056e92 f i libucrtd:environment_initialization.obj
 0001:00055ff9       ??$set_variable_in_environment_nolock@PADH@?$__crt_char_traits@D@@SAH$$QAPAD$$QAH@Z 10056ff9 f i libucrtd:environment_initialization.obj
 0001:00056017       ??$set_variable_in_environment_nolock@PA_WH@?$__crt_char_traits@_W@@SAH$$QAPA_W$$QAH@Z 10057017 f i libucrtd:environment_initialization.obj
 0001:00056035       ??$tcscpy_s@PADABIAAPAD@?$__crt_char_traits@D@@SAH$$QAPADABIAAPAD@Z 10057035 f i libucrtd:environment_initialization.obj
 0001:0005605a       ??$tcscpy_s@PA_WABIAAPA_W@?$__crt_char_traits@_W@@SAH$$QAPA_WABIAAPA_W@Z 1005705a f i libucrtd:environment_initialization.obj
 0001:0005607f       ??$tcslen@AAPAD@?$__crt_char_traits@D@@SAIAAPAD@Z 1005707f f i libucrtd:environment_initialization.obj
 0001:0005609d       ??$tcslen@AAPA_W@?$__crt_char_traits@_W@@SAIAAPA_W@Z 1005709d f i libucrtd:environment_initialization.obj
 0001:000560c2       ??$uninitialize@A6AXAAPAPAD@Z@?$dual_state_global@PAPAD@__crt_state_management@@QAEXA6AXAAPAPAD@Z@Z 100570c2 f i libucrtd:environment_initialization.obj
 0001:00056112       ??$uninitialize@A6AXAAPAPA_W@Z@?$dual_state_global@PAPA_W@__crt_state_management@@QAEXA6AXAAPAPA_W@Z@Z 10057112 f i libucrtd:environment_initialization.obj
 0001:000561a4       ??0?$__crt_unique_heap_ptr@_WU__crt_internal_free_policy@@@@QAE@QA_W@Z 100571a4 f i libucrtd:environment_initialization.obj
 0001:000561b8       ??1?$__crt_unique_heap_ptr@_WU__crt_internal_free_policy@@@@QAE@XZ 100571b8 f i libucrtd:environment_initialization.obj
 0001:000561d2       ??B?$__crt_unique_heap_ptr@PADU__crt_internal_free_policy@@@@QBE_NXZ 100571d2 f i libucrtd:environment_initialization.obj
 0001:000561dc       ??B?$__crt_unique_heap_ptr@PA_WU__crt_internal_free_policy@@@@QBE_NXZ 100571dc f i libucrtd:environment_initialization.obj
 0001:000561e6       ??B?$__crt_unique_heap_ptr@_WU__crt_internal_free_policy@@@@QBE_NXZ 100571e6 f i libucrtd:environment_initialization.obj
 0001:000561f0       ?__crt_compute_required_transform_buffer_count@@YAIIQBD@Z 100571f0 f i libucrtd:environment_initialization.obj
 0001:00056210       ?__crt_compute_required_transform_buffer_count@@YAIIQB_W@Z 10057210 f i libucrtd:environment_initialization.obj
 0001:00056233       ?__crt_transform_string@@YAIIQBDQA_WI@Z 10057233 f i libucrtd:environment_initialization.obj
 0001:00056257       ?__crt_transform_string@@YAIIQB_WQADI@Z 10057257 f i libucrtd:environment_initialization.obj
 0001:0005627f       ?detach@?$__crt_unique_heap_ptr@DU__crt_internal_free_policy@@@@QAEPADXZ 1005727f f i libucrtd:environment_initialization.obj
 0001:00056285       ?detach@?$__crt_unique_heap_ptr@_WU__crt_internal_free_policy@@@@QAEPA_WXZ 10057285 f i libucrtd:environment_initialization.obj
 0001:0005628b       ?get@?$__crt_unique_heap_ptr@_WU__crt_internal_free_policy@@@@QBEPA_WXZ 1005728b f i libucrtd:environment_initialization.obj
 0001:0005628e       ?get_current_state_index@__crt_state_management@@YAIXZ 1005728e f i libucrtd:environment_initialization.obj
 0001:000562b5       ?initialize@?$dual_state_global@PAPAD@__crt_state_management@@QAEXQAPAD@Z 100572b5 f i libucrtd:environment_initialization.obj
 0001:000562f2       ?initialize@?$dual_state_global@PAPA_W@__crt_state_management@@QAEXQAPA_W@Z 100572f2 f i libucrtd:environment_initialization.obj
 0001:0005632f       ?is_valid@?$__crt_unique_heap_ptr@PADU__crt_internal_free_policy@@@@QBE_NXZ 1005732f f i libucrtd:environment_initialization.obj
 0001:00056339       ?is_valid@?$__crt_unique_heap_ptr@PA_WU__crt_internal_free_policy@@@@QBE_NXZ 10057339 f i libucrtd:environment_initialization.obj
 0001:00056343       ?is_valid@?$__crt_unique_heap_ptr@_WU__crt_internal_free_policy@@@@QBE_NXZ 10057343 f i libucrtd:environment_initialization.obj
 0001:00056353       ?release@?$__crt_unique_heap_ptr@_WU__crt_internal_free_policy@@@@QAEXXZ 10057353 f i libucrtd:environment_initialization.obj
 0001:0005636d       ?value@?$dual_state_global@PAPAD@__crt_state_management@@QAEAAPAPADXZ 1005736d f i libucrtd:environment_initialization.obj
 0001:00056370       ?value@?$dual_state_global@PAPA_W@__crt_state_management@@QAEAAPAPA_WXZ 10057370 f i libucrtd:environment_initialization.obj
 0001:00056373       ___dcrt_get_or_create_narrow_environment_nolock 10057373 f   libucrtd:environment_initialization.obj
 0001:00056378       ___dcrt_get_or_create_wide_environment_nolock 10057378 f   libucrtd:environment_initialization.obj
 0001:0005637d       ___dcrt_uninitialize_environments_nolock 1005737d f   libucrtd:environment_initialization.obj
 0001:000563c1       ___p__environ              100573c1 f   libucrtd:environment_initialization.obj
 0001:000563c7       ___p__wenviron             100573c7 f   libucrtd:environment_initialization.obj
 0001:000563cd       __get_initial_narrow_environment 100573cd f   libucrtd:environment_initialization.obj
 0001:000563e6       __get_initial_wide_environment 100573e6 f   libucrtd:environment_initialization.obj
 0001:000563ff       __initialize_narrow_environment 100573ff f   libucrtd:environment_initialization.obj
 0001:00056404       __initialize_wide_environment 10057404 f   libucrtd:environment_initialization.obj
 0001:00056410       ??$?BP6AXXZ@__crt_fast_encoded_nullptr_t@@QBEPAP6AXXZXZ 10057410 f i libucrtd:onexit.obj
 0001:00056430       ??$?RP6AXXZ@__crt_internal_free_policy@@QBEXQBQ6AXXZ@Z 10057430 f i libucrtd:onexit.obj
 0001:00056460       ??$?RV<lambda_821a00fc0e15a7fd532972332124005d>@@AAV<lambda_942beefa13ab35ff55f86422493ffd6a>@@V<lambda_3ab53bf64df1f1ff33dbc5b1929ce7a7>@@@?$__crt_seh_guarded_call@H@@QAEH$$QAV<lambda_821a00fc0e15a7fd532972332124005d>@@AAV<lambda_942beefa13ab35ff55f86422493ffd6a>@@$$QAV<lambda_3ab53bf64df1f1ff33dbc5b1929ce7a7>@@@Z 10057460 f i libucrtd:onexit.obj
 0001:00056510       ??$?RV<lambda_a12890e7f9ac9927a62bd0bbd5044c78>@@AAV<lambda_e971338317bfa523bb8920b43d823727>@@V<lambda_e618b16d59e79e236350cab8485990d2>@@@?$__crt_seh_guarded_call@H@@QAEH$$QAV<lambda_a12890e7f9ac9927a62bd0bbd5044c78>@@AAV<lambda_e971338317bfa523bb8920b43d823727>@@$$QAV<lambda_e618b16d59e79e236350cab8485990d2>@@@Z 10057510 f i libucrtd:onexit.obj
 0001:000565c0       ??$__acrt_lock_and_call@V<lambda_942beefa13ab35ff55f86422493ffd6a>@@@@YAHW4__acrt_lock_id@@$$QAV<lambda_942beefa13ab35ff55f86422493ffd6a>@@@Z 100575c0 f i libucrtd:onexit.obj
 0001:00056610       ??$__acrt_lock_and_call@V<lambda_e971338317bfa523bb8920b43d823727>@@@@YAHW4__acrt_lock_id@@$$QAV<lambda_e971338317bfa523bb8920b43d823727>@@@Z 10057610 f i libucrtd:onexit.obj
 0001:00056660       ??$__crt_fast_encode_pointer@P6AHXZ@@YAP6AHXZQ6AHXZ@Z 10057660 f i libucrtd:onexit.obj
 0001:000567b0       ??0?$__crt_unique_heap_ptr@P6AXXZU__crt_internal_free_policy@@@@QAE@QAP6AXXZ@Z 100577b0 f i libucrtd:onexit.obj
 0001:000567d0       ??1?$__crt_unique_heap_ptr@P6AXXZU__crt_internal_free_policy@@@@QAE@XZ 100577d0 f i libucrtd:onexit.obj
 0001:00056d40       ?detach@?$__crt_unique_heap_ptr@P6AXXZU__crt_internal_free_policy@@@@QAEPAP6AXXZXZ 10057d40 f i libucrtd:onexit.obj
 0001:00056d70       ?release@?$__crt_unique_heap_ptr@P6AXXZU__crt_internal_free_policy@@@@QAEXXZ 10057d70 f i libucrtd:onexit.obj
 0001:00056db0       __crt_at_quick_exit        10057db0 f   libucrtd:onexit.obj
 0001:00056dd0       __crt_atexit               10057dd0 f   libucrtd:onexit.obj
 0001:00056df0       __execute_onexit_table     10057df0 f   libucrtd:onexit.obj
 0001:00056e20       __initialize_onexit_table  10057e20 f   libucrtd:onexit.obj
 0001:00056ea0       __register_onexit_function 10057ea0 f   libucrtd:onexit.obj
 0001:00057130       ?initialize@?$dual_state_global@PAU__crt_locale_data@@@__crt_state_management@@QAEXQAU__crt_locale_data@@@Z 10058130 f i libucrtd:initialization.obj
 0001:00057180       ___acrt_initialize         10058180 f   libucrtd:initialization.obj
 0001:000571a0       ___acrt_thread_attach      100581a0 f   libucrtd:initialization.obj
 0001:000571c0       ___acrt_thread_detach      100581c0 f   libucrtd:initialization.obj
 0001:000571e0       ___acrt_uninitialize       100581e0 f   libucrtd:initialization.obj
 0001:00057200       ___acrt_uninitialize_critical 10058200 f   libucrtd:initialization.obj
 0001:00057260       __get_terminate            10058260 f   libucrtd:terminate.obj
 0001:00057280       _set_terminate             10058280 f   libucrtd:terminate.obj
 0001:000572c0       _terminate                 100582c0 f   libucrtd:terminate.obj
 0001:00057390       ??$?0ABV?$stream_output_adapter@D@__crt_stdio_output@@AB_KABQBDABQAU__crt_locale_pointers@@ABQAD@?$format_validation_base@DV?$stream_output_adapter@D@__crt_stdio_output@@@__crt_stdio_output@@IAE@ABV?$stream_output_adapter@D@1@AB_KABQBDABQAU__crt_locale_pointers@@ABQAD@Z 10058390 f i libucrtd:output.obj
 0001:000573d0       ??$?0ABV?$stream_output_adapter@D@__crt_stdio_output@@AB_KABQBDABQAU__crt_locale_pointers@@ABQAD@?$positional_parameter_base@DV?$stream_output_adapter@D@__crt_stdio_output@@@__crt_stdio_output@@IAE@ABV?$stream_output_adapter@D@1@AB_KABQBDABQAU__crt_locale_pointers@@ABQAD@Z 100583d0 f i libucrtd:output.obj
 0001:00057460       ??$?0ABV?$stream_output_adapter@D@__crt_stdio_output@@AB_KABQBDABQAU__crt_locale_pointers@@ABQAD@?$standard_base@DV?$stream_output_adapter@D@__crt_stdio_output@@@__crt_stdio_output@@IAE@ABV?$stream_output_adapter@D@1@AB_KABQBDABQAU__crt_locale_pointers@@ABQAD@Z 10058460 f i libucrtd:output.obj
 0001:000574c0       ??$?0ABV?$stream_output_adapter@_W@__crt_stdio_output@@AB_KABQB_WABQAU__crt_locale_pointers@@ABQAD@?$format_validation_base@_WV?$stream_output_adapter@_W@__crt_stdio_output@@@__crt_stdio_output@@IAE@ABV?$stream_output_adapter@_W@1@AB_KABQB_WABQAU__crt_locale_pointers@@ABQAD@Z 100584c0 f i libucrtd:output.obj
 0001:00057500       ??$?0ABV?$stream_output_adapter@_W@__crt_stdio_output@@AB_KABQB_WABQAU__crt_locale_pointers@@ABQAD@?$positional_parameter_base@_WV?$stream_output_adapter@_W@__crt_stdio_output@@@__crt_stdio_output@@IAE@ABV?$stream_output_adapter@_W@1@AB_KABQB_WABQAU__crt_locale_pointers@@ABQAD@Z 10058500 f i libucrtd:output.obj
 0001:00057590       ??$?0ABV?$stream_output_adapter@_W@__crt_stdio_output@@AB_KABQB_WABQAU__crt_locale_pointers@@ABQAD@?$standard_base@_WV?$stream_output_adapter@_W@__crt_stdio_output@@@__crt_stdio_output@@IAE@ABV?$stream_output_adapter@_W@1@AB_KABQB_WABQAU__crt_locale_pointers@@ABQAD@Z 10058590 f i libucrtd:output.obj
 0001:000575f0       ??$?0ABV?$string_output_adapter@D@__crt_stdio_output@@AB_KABQBDABQAU__crt_locale_pointers@@ABQAD@?$format_validation_base@DV?$string_output_adapter@D@__crt_stdio_output@@@__crt_stdio_output@@IAE@ABV?$string_output_adapter@D@1@AB_KABQBDABQAU__crt_locale_pointers@@ABQAD@Z 100585f0 f i libucrtd:output.obj
 0001:00057630       ??$?0ABV?$string_output_adapter@D@__crt_stdio_output@@AB_KABQBDABQAU__crt_locale_pointers@@ABQAD@?$positional_parameter_base@DV?$string_output_adapter@D@__crt_stdio_output@@@__crt_stdio_output@@IAE@ABV?$string_output_adapter@D@1@AB_KABQBDABQAU__crt_locale_pointers@@ABQAD@Z 10058630 f i libucrtd:output.obj
 0001:000576c0       ??$?0ABV?$string_output_adapter@D@__crt_stdio_output@@AB_KABQBDABQAU__crt_locale_pointers@@ABQAD@?$standard_base@DV?$string_output_adapter@D@__crt_stdio_output@@@__crt_stdio_output@@IAE@ABV?$string_output_adapter@D@1@AB_KABQBDABQAU__crt_locale_pointers@@ABQAD@Z 100586c0 f i libucrtd:output.obj
 0001:00057720       ??$?0ABV?$string_output_adapter@_W@__crt_stdio_output@@AB_KABQB_WABQAU__crt_locale_pointers@@ABQAD@?$format_validation_base@_WV?$string_output_adapter@_W@__crt_stdio_output@@@__crt_stdio_output@@IAE@ABV?$string_output_adapter@_W@1@AB_KABQB_WABQAU__crt_locale_pointers@@ABQAD@Z 10058720 f i libucrtd:output.obj
 0001:00057760       ??$?0ABV?$string_output_adapter@_W@__crt_stdio_output@@AB_KABQB_WABQAU__crt_locale_pointers@@ABQAD@?$positional_parameter_base@_WV?$string_output_adapter@_W@__crt_stdio_output@@@__crt_stdio_output@@IAE@ABV?$string_output_adapter@_W@1@AB_KABQB_WABQAU__crt_locale_pointers@@ABQAD@Z 10058760 f i libucrtd:output.obj
 0001:000577f0       ??$?0ABV?$string_output_adapter@_W@__crt_stdio_output@@AB_KABQB_WABQAU__crt_locale_pointers@@ABQAD@?$standard_base@_WV?$string_output_adapter@_W@__crt_stdio_output@@@__crt_stdio_output@@IAE@ABV?$string_output_adapter@_W@1@AB_KABQB_WABQAU__crt_locale_pointers@@ABQAD@Z 100587f0 f i libucrtd:output.obj
 0001:00057850       ??$?RV<lambda_2293f24e3ce1ad6fe22ccfb9dec07671>@@AAV<lambda_2565fc715a641e539f44ad02d6823606>@@V<lambda_d3217f279b832965d9ca670dc2993570>@@@?$__crt_seh_guarded_call@H@@QAEH$$QAV<lambda_2293f24e3ce1ad6fe22ccfb9dec07671>@@AAV<lambda_2565fc715a641e539f44ad02d6823606>@@$$QAV<lambda_d3217f279b832965d9ca670dc2993570>@@@Z 10058850 f i libucrtd:output.obj
 0001:00057900       ??$?RV<lambda_4d4ac866be0fa3c441830420fabdd2cb>@@AAV<lambda_63a10c2dc8dbb9e4dd1890be52af7c93>@@V<lambda_002af9fa0f8fe472b648c51882d4fc32>@@@?$__crt_seh_guarded_call@H@@QAEH$$QAV<lambda_4d4ac866be0fa3c441830420fabdd2cb>@@AAV<lambda_63a10c2dc8dbb9e4dd1890be52af7c93>@@$$QAV<lambda_002af9fa0f8fe472b648c51882d4fc32>@@@Z 10058900 f i libucrtd:output.obj
 0001:000579b0       ??$?RV<lambda_5be909dfbae0a631386585770cd7b676>@@AAV<lambda_e516058a9c289d98c8ca9fea99247804>@@V<lambda_afe2e0cdc5e0ecf6f0d6f5e2f8985e38>@@@?$__crt_seh_guarded_call@H@@QAEH$$QAV<lambda_5be909dfbae0a631386585770cd7b676>@@AAV<lambda_e516058a9c289d98c8ca9fea99247804>@@$$QAV<lambda_afe2e0cdc5e0ecf6f0d6f5e2f8985e38>@@@Z 100589b0 f i libucrtd:output.obj
 0001:00057a60       ??$?RV<lambda_823d65812123d985753d53e2a8c25d20>@@AAV<lambda_0a97c9e57da7be065955385c79108ff2>@@V<lambda_4d2973f3ad2d226f00468307185dca1b>@@@?$__crt_seh_guarded_call@H@@QAEH$$QAV<lambda_823d65812123d985753d53e2a8c25d20>@@AAV<lambda_0a97c9e57da7be065955385c79108ff2>@@$$QAV<lambda_4d2973f3ad2d226f00468307185dca1b>@@@Z 10058a60 f i libucrtd:output.obj
 0001:00057b10       ??$?RV<lambda_ab9923ffb5d694ec0d78876dd103e44f>@@AAV<lambda_481dd5778c961fbcd3b60b650e9b9dc4>@@V<lambda_7923d86c9e3f319b415918ec4b39749c>@@@?$__crt_seh_guarded_call@H@@QAEH$$QAV<lambda_ab9923ffb5d694ec0d78876dd103e44f>@@AAV<lambda_481dd5778c961fbcd3b60b650e9b9dc4>@@$$QAV<lambda_7923d86c9e3f319b415918ec4b39749c>@@@Z 10058b10 f i libucrtd:output.obj
 0001:00057bc0       ??$?RV<lambda_db08b09ef7aa9d4f8620ce68402612bc>@@AAV<lambda_4f2c1eaeead2a5fc776db5b62ea0fb9b>@@V<lambda_3ae262bc35d4ba6a3825c4f6bcaaf95c>@@@?$__crt_seh_guarded_call@H@@QAEH$$QAV<lambda_db08b09ef7aa9d4f8620ce68402612bc>@@AAV<lambda_4f2c1eaeead2a5fc776db5b62ea0fb9b>@@$$QAV<lambda_3ae262bc35d4ba6a3825c4f6bcaaf95c>@@@Z 10058bc0 f i libucrtd:output.obj
 0001:00057c70       ??$__acrt_lock_stream_and_call@V<lambda_0a97c9e57da7be065955385c79108ff2>@@@@YAHQAU_iobuf@@$$QAV<lambda_0a97c9e57da7be065955385c79108ff2>@@@Z 10058c70 f i libucrtd:output.obj
 0001:00057cc0       ??$__acrt_lock_stream_and_call@V<lambda_2565fc715a641e539f44ad02d6823606>@@@@YAHQAU_iobuf@@$$QAV<lambda_2565fc715a641e539f44ad02d6823606>@@@Z 10058cc0 f i libucrtd:output.obj
 0001:00057d10       ??$__acrt_lock_stream_and_call@V<lambda_481dd5778c961fbcd3b60b650e9b9dc4>@@@@YAHQAU_iobuf@@$$QAV<lambda_481dd5778c961fbcd3b60b650e9b9dc4>@@@Z 10058d10 f i libucrtd:output.obj
 0001:00057d60       ??$__acrt_lock_stream_and_call@V<lambda_4f2c1eaeead2a5fc776db5b62ea0fb9b>@@@@YAHQAU_iobuf@@$$QAV<lambda_4f2c1eaeead2a5fc776db5b62ea0fb9b>@@@Z 10058d60 f i libucrtd:output.obj
 0001:00057db0       ??$__acrt_lock_stream_and_call@V<lambda_63a10c2dc8dbb9e4dd1890be52af7c93>@@@@YAHQAU_iobuf@@$$QAV<lambda_63a10c2dc8dbb9e4dd1890be52af7c93>@@@Z 10058db0 f i libucrtd:output.obj
 0001:00057e00       ??$__acrt_lock_stream_and_call@V<lambda_e516058a9c289d98c8ca9fea99247804>@@@@YAHQAU_iobuf@@$$QAV<lambda_e516058a9c289d98c8ca9fea99247804>@@@Z 10058e00 f i libucrtd:output.obj
 0001:0005b6d0       ??$count@D@formatting_buffer@__crt_stdio_output@@QBEIXZ 1005c6d0 f i libucrtd:output.obj
 0001:0005b720       ??$data@D@formatting_buffer@__crt_stdio_output@@QAEPADXZ 1005c720 f i libucrtd:output.obj
 0001:0005b770       ??$data@_W@formatting_buffer@__crt_stdio_output@@QAEPA_WXZ 1005c770 f i libucrtd:output.obj
 0001:0005b7c0       ??$ensure_buffer_is_big_enough@D@formatting_buffer@__crt_stdio_output@@QAE_NI@Z 1005c7c0 f i libucrtd:output.obj
 0001:0005b8e0       ??$extract_argument_from_va_list@C_J@?$positional_parameter_base@DV?$stream_output_adapter@D@__crt_stdio_output@@@__crt_stdio_output@@IAE_NAA_J@Z 1005c8e0 f i libucrtd:output.obj
 0001:0005ba60       ??$extract_argument_from_va_list@C_J@?$positional_parameter_base@DV?$string_output_adapter@D@__crt_stdio_output@@@__crt_stdio_output@@IAE_NAA_J@Z 1005ca60 f i libucrtd:output.obj
 0001:0005bbe0       ??$extract_argument_from_va_list@C_J@?$positional_parameter_base@_WV?$stream_output_adapter@_W@__crt_stdio_output@@@__crt_stdio_output@@IAE_NAA_J@Z 1005cbe0 f i libucrtd:output.obj
 0001:0005bd60       ??$extract_argument_from_va_list@C_J@?$positional_parameter_base@_WV?$string_output_adapter@_W@__crt_stdio_output@@@__crt_stdio_output@@IAE_NAA_J@Z 1005cd60 f i libucrtd:output.obj
 0001:0005bee0       ??$extract_argument_from_va_list@C_J@?$standard_base@DV?$stream_output_adapter@D@__crt_stdio_output@@@__crt_stdio_output@@IAE_NAA_J@Z 1005cee0 f i libucrtd:output.obj
 0001:0005bf20       ??$extract_argument_from_va_list@C_J@?$standard_base@DV?$string_output_adapter@D@__crt_stdio_output@@@__crt_stdio_output@@IAE_NAA_J@Z 1005cf20 f i libucrtd:output.obj
 0001:0005bf60       ??$extract_argument_from_va_list@C_J@?$standard_base@_WV?$stream_output_adapter@_W@__crt_stdio_output@@@__crt_stdio_output@@IAE_NAA_J@Z 1005cf60 f i libucrtd:output.obj
 0001:0005bfa0       ??$extract_argument_from_va_list@C_J@?$standard_base@_WV?$string_output_adapter@_W@__crt_stdio_output@@@__crt_stdio_output@@IAE_NAA_J@Z 1005cfa0 f i libucrtd:output.obj
 0001:0005bfe0       ??$extract_argument_from_va_list@E_J@?$positional_parameter_base@DV?$stream_output_adapter@D@__crt_stdio_output@@@__crt_stdio_output@@IAE_NAA_J@Z 1005cfe0 f i libucrtd:output.obj
 0001:0005c160       ??$extract_argument_from_va_list@E_J@?$positional_parameter_base@DV?$string_output_adapter@D@__crt_stdio_output@@@__crt_stdio_output@@IAE_NAA_J@Z 1005d160 f i libucrtd:output.obj
 0001:0005c2e0       ??$extract_argument_from_va_list@E_J@?$positional_parameter_base@_WV?$stream_output_adapter@_W@__crt_stdio_output@@@__crt_stdio_output@@IAE_NAA_J@Z 1005d2e0 f i libucrtd:output.obj
 0001:0005c460       ??$extract_argument_from_va_list@E_J@?$positional_parameter_base@_WV?$string_output_adapter@_W@__crt_stdio_output@@@__crt_stdio_output@@IAE_NAA_J@Z 1005d460 f i libucrtd:output.obj
 0001:0005c5e0       ??$extract_argument_from_va_list@E_J@?$standard_base@DV?$stream_output_adapter@D@__crt_stdio_output@@@__crt_stdio_output@@IAE_NAA_J@Z 1005d5e0 f i libucrtd:output.obj
 0001:0005c620       ??$extract_argument_from_va_list@E_J@?$standard_base@DV?$string_output_adapter@D@__crt_stdio_output@@@__crt_stdio_output@@IAE_NAA_J@Z 1005d620 f i libucrtd:output.obj
 0001:0005c660       ??$extract_argument_from_va_list@E_J@?$standard_base@_WV?$stream_output_adapter@_W@__crt_stdio_output@@@__crt_stdio_output@@IAE_NAA_J@Z 1005d660 f i libucrtd:output.obj
 0001:0005c6a0       ??$extract_argument_from_va_list@E_J@?$standard_base@_WV?$string_output_adapter@_W@__crt_stdio_output@@@__crt_stdio_output@@IAE_NAA_J@Z 1005d6a0 f i libucrtd:output.obj
 0001:0005c6e0       ??$extract_argument_from_va_list@F_J@?$positional_parameter_base@DV?$stream_output_adapter@D@__crt_stdio_output@@@__crt_stdio_output@@IAE_NAA_J@Z 1005d6e0 f i libucrtd:output.obj
 0001:0005c860       ??$extract_argument_from_va_list@F_J@?$positional_parameter_base@DV?$string_output_adapter@D@__crt_stdio_output@@@__crt_stdio_output@@IAE_NAA_J@Z 1005d860 f i libucrtd:output.obj
 0001:0005c9e0       ??$extract_argument_from_va_list@F_J@?$positional_parameter_base@_WV?$stream_output_adapter@_W@__crt_stdio_output@@@__crt_stdio_output@@IAE_NAA_J@Z 1005d9e0 f i libucrtd:output.obj
 0001:0005cb60       ??$extract_argument_from_va_list@F_J@?$positional_parameter_base@_WV?$string_output_adapter@_W@__crt_stdio_output@@@__crt_stdio_output@@IAE_NAA_J@Z 1005db60 f i libucrtd:output.obj
 0001:0005cce0       ??$extract_argument_from_va_list@F_J@?$standard_base@DV?$stream_output_adapter@D@__crt_stdio_output@@@__crt_stdio_output@@IAE_NAA_J@Z 1005dce0 f i libucrtd:output.obj
 0001:0005cd20       ??$extract_argument_from_va_list@F_J@?$standard_base@DV?$string_output_adapter@D@__crt_stdio_output@@@__crt_stdio_output@@IAE_NAA_J@Z 1005dd20 f i libucrtd:output.obj
 0001:0005cd60       ??$extract_argument_from_va_list@F_J@?$standard_base@_WV?$stream_output_adapter@_W@__crt_stdio_output@@@__crt_stdio_output@@IAE_NAA_J@Z 1005dd60 f i libucrtd:output.obj
 0001:0005cda0       ??$extract_argument_from_va_list@F_J@?$standard_base@_WV?$string_output_adapter@_W@__crt_stdio_output@@@__crt_stdio_output@@IAE_NAA_J@Z 1005dda0 f i libucrtd:output.obj
 0001:0005cde0       ??$extract_argument_from_va_list@GD@?$positional_parameter_base@DV?$stream_output_adapter@D@__crt_stdio_output@@@__crt_stdio_output@@IAE_NAAD@Z 1005dde0 f i libucrtd:output.obj
 0001:0005cf60       ??$extract_argument_from_va_list@GD@?$positional_parameter_base@DV?$string_output_adapter@D@__crt_stdio_output@@@__crt_stdio_output@@IAE_NAAD@Z 1005df60 f i libucrtd:output.obj
 0001:0005d0e0       ??$extract_argument_from_va_list@GD@?$standard_base@DV?$stream_output_adapter@D@__crt_stdio_output@@@__crt_stdio_output@@IAE_NAAD@Z 1005e0e0 f i libucrtd:output.obj
 0001:0005d110       ??$extract_argument_from_va_list@GD@?$standard_base@DV?$string_output_adapter@D@__crt_stdio_output@@@__crt_stdio_output@@IAE_NAAD@Z 1005e110 f i libucrtd:output.obj
 0001:0005d140       ??$extract_argument_from_va_list@G_J@?$positional_parameter_base@DV?$stream_output_adapter@D@__crt_stdio_output@@@__crt_stdio_output@@IAE_NAA_J@Z 1005e140 f i libucrtd:output.obj
 0001:0005d2c0       ??$extract_argument_from_va_list@G_J@?$positional_parameter_base@DV?$string_output_adapter@D@__crt_stdio_output@@@__crt_stdio_output@@IAE_NAA_J@Z 1005e2c0 f i libucrtd:output.obj
 0001:0005d440       ??$extract_argument_from_va_list@G_J@?$positional_parameter_base@_WV?$stream_output_adapter@_W@__crt_stdio_output@@@__crt_stdio_output@@IAE_NAA_J@Z 1005e440 f i libucrtd:output.obj
 0001:0005d5c0       ??$extract_argument_from_va_list@G_J@?$positional_parameter_base@_WV?$string_output_adapter@_W@__crt_stdio_output@@@__crt_stdio_output@@IAE_NAA_J@Z 1005e5c0 f i libucrtd:output.obj
 0001:0005d740       ??$extract_argument_from_va_list@G_J@?$standard_base@DV?$stream_output_adapter@D@__crt_stdio_output@@@__crt_stdio_output@@IAE_NAA_J@Z 1005e740 f i libucrtd:output.obj
 0001:0005d780       ??$extract_argument_from_va_list@G_J@?$standard_base@DV?$string_output_adapter@D@__crt_stdio_output@@@__crt_stdio_output@@IAE_NAA_J@Z 1005e780 f i libucrtd:output.obj
 0001:0005d7c0       ??$extract_argument_from_va_list@G_J@?$standard_base@_WV?$stream_output_adapter@_W@__crt_stdio_output@@@__crt_stdio_output@@IAE_NAA_J@Z 1005e7c0 f i libucrtd:output.obj
 0001:0005d800       ??$extract_argument_from_va_list@G_J@?$standard_base@_WV?$string_output_adapter@_W@__crt_stdio_output@@@__crt_stdio_output@@IAE_NAA_J@Z 1005e800 f i libucrtd:output.obj
 0001:0005d840       ??$extract_argument_from_va_list@H_J@?$positional_parameter_base@DV?$stream_output_adapter@D@__crt_stdio_output@@@__crt_stdio_output@@IAE_NAA_J@Z 1005e840 f i libucrtd:output.obj
 0001:0005d9c0       ??$extract_argument_from_va_list@H_J@?$positional_parameter_base@DV?$string_output_adapter@D@__crt_stdio_output@@@__crt_stdio_output@@IAE_NAA_J@Z 1005e9c0 f i libucrtd:output.obj
 0001:0005db40       ??$extract_argument_from_va_list@H_J@?$positional_parameter_base@_WV?$stream_output_adapter@_W@__crt_stdio_output@@@__crt_stdio_output@@IAE_NAA_J@Z 1005eb40 f i libucrtd:output.obj
 0001:0005dcc0       ??$extract_argument_from_va_list@H_J@?$positional_parameter_base@_WV?$string_output_adapter@_W@__crt_stdio_output@@@__crt_stdio_output@@IAE_NAA_J@Z 1005ecc0 f i libucrtd:output.obj
 0001:0005de40       ??$extract_argument_from_va_list@H_J@?$standard_base@DV?$stream_output_adapter@D@__crt_stdio_output@@@__crt_stdio_output@@IAE_NAA_J@Z 1005ee40 f i libucrtd:output.obj
 0001:0005de80       ??$extract_argument_from_va_list@H_J@?$standard_base@DV?$string_output_adapter@D@__crt_stdio_output@@@__crt_stdio_output@@IAE_NAA_J@Z 1005ee80 f i libucrtd:output.obj
 0001:0005dec0       ??$extract_argument_from_va_list@H_J@?$standard_base@_WV?$stream_output_adapter@_W@__crt_stdio_output@@@__crt_stdio_output@@IAE_NAA_J@Z 1005eec0 f i libucrtd:output.obj
 0001:0005df00       ??$extract_argument_from_va_list@H_J@?$standard_base@_WV?$string_output_adapter@_W@__crt_stdio_output@@@__crt_stdio_output@@IAE_NAA_J@Z 1005ef00 f i libucrtd:output.obj
 0001:0005df40       ??$extract_argument_from_va_list@I_J@?$positional_parameter_base@DV?$stream_output_adapter@D@__crt_stdio_output@@@__crt_stdio_output@@IAE_NAA_J@Z 1005ef40 f i libucrtd:output.obj
 0001:0005e0c0       ??$extract_argument_from_va_list@I_J@?$positional_parameter_base@DV?$string_output_adapter@D@__crt_stdio_output@@@__crt_stdio_output@@IAE_NAA_J@Z 1005f0c0 f i libucrtd:output.obj
 0001:0005e240       ??$extract_argument_from_va_list@I_J@?$positional_parameter_base@_WV?$stream_output_adapter@_W@__crt_stdio_output@@@__crt_stdio_output@@IAE_NAA_J@Z 1005f240 f i libucrtd:output.obj
 0001:0005e3c0       ??$extract_argument_from_va_list@I_J@?$positional_parameter_base@_WV?$string_output_adapter@_W@__crt_stdio_output@@@__crt_stdio_output@@IAE_NAA_J@Z 1005f3c0 f i libucrtd:output.obj
 0001:0005e540       ??$extract_argument_from_va_list@I_J@?$standard_base@DV?$stream_output_adapter@D@__crt_stdio_output@@@__crt_stdio_output@@IAE_NAA_J@Z 1005f540 f i libucrtd:output.obj
 0001:0005e580       ??$extract_argument_from_va_list@I_J@?$standard_base@DV?$string_output_adapter@D@__crt_stdio_output@@@__crt_stdio_output@@IAE_NAA_J@Z 1005f580 f i libucrtd:output.obj
 0001:0005e5c0       ??$extract_argument_from_va_list@I_J@?$standard_base@_WV?$stream_output_adapter@_W@__crt_stdio_output@@@__crt_stdio_output@@IAE_NAA_J@Z 1005f5c0 f i libucrtd:output.obj
 0001:0005e600       ??$extract_argument_from_va_list@I_J@?$standard_base@_WV?$string_output_adapter@_W@__crt_stdio_output@@@__crt_stdio_output@@IAE_NAA_J@Z 1005f600 f i libucrtd:output.obj
 0001:0005e640       ??$extract_argument_from_va_list@PADPAD@?$positional_parameter_base@DV?$stream_output_adapter@D@__crt_stdio_output@@@__crt_stdio_output@@IAE_NAAPAD@Z 1005f640 f i libucrtd:output.obj
 0001:0005e7c0       ??$extract_argument_from_va_list@PADPAD@?$positional_parameter_base@DV?$string_output_adapter@D@__crt_stdio_output@@@__crt_stdio_output@@IAE_NAAPAD@Z 1005f7c0 f i libucrtd:output.obj
 0001:0005e940       ??$extract_argument_from_va_list@PADPAD@?$positional_parameter_base@_WV?$stream_output_adapter@_W@__crt_stdio_output@@@__crt_stdio_output@@IAE_NAAPAD@Z 1005f940 f i libucrtd:output.obj
 0001:0005eac0       ??$extract_argument_from_va_list@PADPAD@?$positional_parameter_base@_WV?$string_output_adapter@_W@__crt_stdio_output@@@__crt_stdio_output@@IAE_NAAPAD@Z 1005fac0 f i libucrtd:output.obj
 0001:0005ec40       ??$extract_argument_from_va_list@PADPAD@?$standard_base@DV?$stream_output_adapter@D@__crt_stdio_output@@@__crt_stdio_output@@IAE_NAAPAD@Z 1005fc40 f i libucrtd:output.obj
 0001:0005ec70       ??$extract_argument_from_va_list@PADPAD@?$standard_base@DV?$string_output_adapter@D@__crt_stdio_output@@@__crt_stdio_output@@IAE_NAAPAD@Z 1005fc70 f i libucrtd:output.obj
 0001:0005eca0       ??$extract_argument_from_va_list@PADPAD@?$standard_base@_WV?$stream_output_adapter@_W@__crt_stdio_output@@@__crt_stdio_output@@IAE_NAAPAD@Z 1005fca0 f i libucrtd:output.obj
 0001:0005ecd0       ??$extract_argument_from_va_list@PADPAD@?$standard_base@_WV?$string_output_adapter@_W@__crt_stdio_output@@@__crt_stdio_output@@IAE_NAAPAD@Z 1005fcd0 f i libucrtd:output.obj
 0001:0005ed00       ??$extract_argument_from_va_list@PAUansi_string@?1??type_case_Z@?$output_processor@DV?$stream_output_adapter@D@__crt_stdio_output@@V?$format_validation_base@DV?$stream_output_adapter@D@__crt_stdio_output@@@2@@__crt_stdio_output@@AAE_NXZ@PAU1?1??234@AAE_NXZ@@?$standard_base@DV?$stream_output_adapter@D@__crt_stdio_output@@@__crt_stdio_output@@IAE_NAAPAUansi_string@?1??type_case_Z@?$output_processor@DV?$stream_output_adapter@D@__crt_stdio_output@@V?$format_validation_base@DV?$stream_output_adapter@D@__crt_stdio_output@@@2@@1@AAE_NXZ@@Z 1005fd00 f i libucrtd:output.obj
 0001:0005ed30       ??$extract_argument_from_va_list@PAUansi_string@?1??type_case_Z@?$output_processor@DV?$stream_output_adapter@D@__crt_stdio_output@@V?$positional_parameter_base@DV?$stream_output_adapter@D@__crt_stdio_output@@@2@@__crt_stdio_output@@AAE_NXZ@PAU1?1??234@AAE_NXZ@@?$positional_parameter_base@DV?$stream_output_adapter@D@__crt_stdio_output@@@__crt_stdio_output@@IAE_NAAPAUansi_string@?1??type_case_Z@?$output_processor@DV?$stream_output_adapter@D@__crt_stdio_output@@V?$positional_parameter_base@DV?$stream_output_adapter@D@__crt_stdio_output@@@2@@1@AAE_NXZ@@Z 1005fd30 f i libucrtd:output.obj
 0001:0005eeb0       ??$extract_argument_from_va_list@PAUansi_string@?1??type_case_Z@?$output_processor@DV?$stream_output_adapter@D@__crt_stdio_output@@V?$positional_parameter_base@DV?$stream_output_adapter@D@__crt_stdio_output@@@2@@__crt_stdio_output@@AAE_NXZ@PAU1?1??234@AAE_NXZ@@?$standard_base@DV?$stream_output_adapter@D@__crt_stdio_output@@@__crt_stdio_output@@IAE_NAAPAUansi_string@?1??type_case_Z@?$output_processor@DV?$stream_output_adapter@D@__crt_stdio_output@@V?$positional_parameter_base@DV?$stream_output_adapter@D@__crt_stdio_output@@@2@@1@AAE_NXZ@@Z 1005feb0 f i libucrtd:output.obj
 0001:0005eee0       ??$extract_argument_from_va_list@PAUansi_string@?1??type_case_Z@?$output_processor@DV?$stream_output_adapter@D@__crt_stdio_output@@V?$standard_base@DV?$stream_output_adapter@D@__crt_stdio_output@@@2@@__crt_stdio_output@@AAE_NXZ@PAU1?1??234@AAE_NXZ@@?$standard_base@DV?$stream_output_adapter@D@__crt_stdio_output@@@__crt_stdio_output@@IAE_NAAPAUansi_string@?1??type_case_Z@?$output_processor@DV?$stream_output_adapter@D@__crt_stdio_output@@V?$standard_base@DV?$stream_output_adapter@D@__crt_stdio_output@@@2@@1@AAE_NXZ@@Z 1005fee0 f i libucrtd:output.obj
 0001:0005ef10       ??$extract_argument_from_va_list@PAUansi_string@?1??type_case_Z@?$output_processor@DV?$string_output_adapter@D@__crt_stdio_output@@V?$format_validation_base@DV?$string_output_adapter@D@__crt_stdio_output@@@2@@__crt_stdio_output@@AAE_NXZ@PAU1?1??234@AAE_NXZ@@?$standard_base@DV?$string_output_adapter@D@__crt_stdio_output@@@__crt_stdio_output@@IAE_NAAPAUansi_string@?1??type_case_Z@?$output_processor@DV?$string_output_adapter@D@__crt_stdio_output@@V?$format_validation_base@DV?$string_output_adapter@D@__crt_stdio_output@@@2@@1@AAE_NXZ@@Z 1005ff10 f i libucrtd:output.obj
 0001:0005ef40       ??$extract_argument_from_va_list@PAUansi_string@?1??type_case_Z@?$output_processor@DV?$string_output_adapter@D@__crt_stdio_output@@V?$positional_parameter_base@DV?$string_output_adapter@D@__crt_stdio_output@@@2@@__crt_stdio_output@@AAE_NXZ@PAU1?1??234@AAE_NXZ@@?$positional_parameter_base@DV?$string_output_adapter@D@__crt_stdio_output@@@__crt_stdio_output@@IAE_NAAPAUansi_string@?1??type_case_Z@?$output_processor@DV?$string_output_adapter@D@__crt_stdio_output@@V?$positional_parameter_base@DV?$string_output_adapter@D@__crt_stdio_output@@@2@@1@AAE_NXZ@@Z 1005ff40 f i libucrtd:output.obj
 0001:0005f0c0       ??$extract_argument_from_va_list@PAUansi_string@?1??type_case_Z@?$output_processor@DV?$string_output_adapter@D@__crt_stdio_output@@V?$positional_parameter_base@DV?$string_output_adapter@D@__crt_stdio_output@@@2@@__crt_stdio_output@@AAE_NXZ@PAU1?1??234@AAE_NXZ@@?$standard_base@DV?$string_output_adapter@D@__crt_stdio_output@@@__crt_stdio_output@@IAE_NAAPAUansi_string@?1??type_case_Z@?$output_processor@DV?$string_output_adapter@D@__crt_stdio_output@@V?$positional_parameter_base@DV?$string_output_adapter@D@__crt_stdio_output@@@2@@1@AAE_NXZ@@Z 100600c0 f i libucrtd:output.obj
 0001:0005f0f0       ??$extract_argument_from_va_list@PAUansi_string@?1??type_case_Z@?$output_processor@DV?$string_output_adapter@D@__crt_stdio_output@@V?$standard_base@DV?$string_output_adapter@D@__crt_stdio_output@@@2@@__crt_stdio_output@@AAE_NXZ@PAU1?1??234@AAE_NXZ@@?$standard_base@DV?$string_output_adapter@D@__crt_stdio_output@@@__crt_stdio_output@@IAE_NAAPAUansi_string@?1??type_case_Z@?$output_processor@DV?$string_output_adapter@D@__crt_stdio_output@@V?$standard_base@DV?$string_output_adapter@D@__crt_stdio_output@@@2@@1@AAE_NXZ@@Z 100600f0 f i libucrtd:output.obj
 0001:0005f120       ??$extract_argument_from_va_list@PAUansi_string@?1??type_case_Z@?$output_processor@_WV?$stream_output_adapter@_W@__crt_stdio_output@@V?$format_validation_base@_WV?$stream_output_adapter@_W@__crt_stdio_output@@@2@@__crt_stdio_output@@AAE_NXZ@PAU1?1??234@AAE_NXZ@@?$standard_base@_WV?$stream_output_adapter@_W@__crt_stdio_output@@@__crt_stdio_output@@IAE_NAAPAUansi_string@?1??type_case_Z@?$output_processor@_WV?$stream_output_adapter@_W@__crt_stdio_output@@V?$format_validation_base@_WV?$stream_output_adapter@_W@__crt_stdio_output@@@2@@1@AAE_NXZ@@Z 10060120 f i libucrtd:output.obj
 0001:0005f150       ??$extract_argument_from_va_list@PAUansi_string@?1??type_case_Z@?$output_processor@_WV?$stream_output_adapter@_W@__crt_stdio_output@@V?$positional_parameter_base@_WV?$stream_output_adapter@_W@__crt_stdio_output@@@2@@__crt_stdio_output@@AAE_NXZ@PAU1?1??234@AAE_NXZ@@?$positional_parameter_base@_WV?$stream_output_adapter@_W@__crt_stdio_output@@@__crt_stdio_output@@IAE_NAAPAUansi_string@?1??type_case_Z@?$output_processor@_WV?$stream_output_adapter@_W@__crt_stdio_output@@V?$positional_parameter_base@_WV?$stream_output_adapter@_W@__crt_stdio_output@@@2@@1@AAE_NXZ@@Z 10060150 f i libucrtd:output.obj
 0001:0005f2d0       ??$extract_argument_from_va_list@PAUansi_string@?1??type_case_Z@?$output_processor@_WV?$stream_output_adapter@_W@__crt_stdio_output@@V?$positional_parameter_base@_WV?$stream_output_adapter@_W@__crt_stdio_output@@@2@@__crt_stdio_output@@AAE_NXZ@PAU1?1??234@AAE_NXZ@@?$standard_base@_WV?$stream_output_adapter@_W@__crt_stdio_output@@@__crt_stdio_output@@IAE_NAAPAUansi_string@?1??type_case_Z@?$output_processor@_WV?$stream_output_adapter@_W@__crt_stdio_output@@V?$positional_parameter_base@_WV?$stream_output_adapter@_W@__crt_stdio_output@@@2@@1@AAE_NXZ@@Z 100602d0 f i libucrtd:output.obj
 0001:0005f300       ??$extract_argument_from_va_list@PAUansi_string@?1??type_case_Z@?$output_processor@_WV?$stream_output_adapter@_W@__crt_stdio_output@@V?$standard_base@_WV?$stream_output_adapter@_W@__crt_stdio_output@@@2@@__crt_stdio_output@@AAE_NXZ@PAU1?1??234@AAE_NXZ@@?$standard_base@_WV?$stream_output_adapter@_W@__crt_stdio_output@@@__crt_stdio_output@@IAE_NAAPAUansi_string@?1??type_case_Z@?$output_processor@_WV?$stream_output_adapter@_W@__crt_stdio_output@@V?$standard_base@_WV?$stream_output_adapter@_W@__crt_stdio_output@@@2@@1@AAE_NXZ@@Z 10060300 f i libucrtd:output.obj
 0001:0005f330       ??$extract_argument_from_va_list@PAUansi_string@?1??type_case_Z@?$output_processor@_WV?$string_output_adapter@_W@__crt_stdio_output@@V?$format_validation_base@_WV?$string_output_adapter@_W@__crt_stdio_output@@@2@@__crt_stdio_output@@AAE_NXZ@PAU1?1??234@AAE_NXZ@@?$standard_base@_WV?$string_output_adapter@_W@__crt_stdio_output@@@__crt_stdio_output@@IAE_NAAPAUansi_string@?1??type_case_Z@?$output_processor@_WV?$string_output_adapter@_W@__crt_stdio_output@@V?$format_validation_base@_WV?$string_output_adapter@_W@__crt_stdio_output@@@2@@1@AAE_NXZ@@Z 10060330 f i libucrtd:output.obj
 0001:0005f360       ??$extract_argument_from_va_list@PAUansi_string@?1??type_case_Z@?$output_processor@_WV?$string_output_adapter@_W@__crt_stdio_output@@V?$positional_parameter_base@_WV?$string_output_adapter@_W@__crt_stdio_output@@@2@@__crt_stdio_output@@AAE_NXZ@PAU1?1??234@AAE_NXZ@@?$positional_parameter_base@_WV?$string_output_adapter@_W@__crt_stdio_output@@@__crt_stdio_output@@IAE_NAAPAUansi_string@?1??type_case_Z@?$output_processor@_WV?$string_output_adapter@_W@__crt_stdio_output@@V?$positional_parameter_base@_WV?$string_output_adapter@_W@__crt_stdio_output@@@2@@1@AAE_NXZ@@Z 10060360 f i libucrtd:output.obj
 0001:0005f4e0       ??$extract_argument_from_va_list@PAUansi_string@?1??type_case_Z@?$output_processor@_WV?$string_output_adapter@_W@__crt_stdio_output@@V?$positional_parameter_base@_WV?$string_output_adapter@_W@__crt_stdio_output@@@2@@__crt_stdio_output@@AAE_NXZ@PAU1?1??234@AAE_NXZ@@?$standard_base@_WV?$string_output_adapter@_W@__crt_stdio_output@@@__crt_stdio_output@@IAE_NAAPAUansi_string@?1??type_case_Z@?$output_processor@_WV?$string_output_adapter@_W@__crt_stdio_output@@V?$positional_parameter_base@_WV?$string_output_adapter@_W@__crt_stdio_output@@@2@@1@AAE_NXZ@@Z 100604e0 f i libucrtd:output.obj
 0001:0005f510       ??$extract_argument_from_va_list@PAUansi_string@?1??type_case_Z@?$output_processor@_WV?$string_output_adapter@_W@__crt_stdio_output@@V?$standard_base@_WV?$string_output_adapter@_W@__crt_stdio_output@@@2@@__crt_stdio_output@@AAE_NXZ@PAU1?1??234@AAE_NXZ@@?$standard_base@_WV?$string_output_adapter@_W@__crt_stdio_output@@@__crt_stdio_output@@IAE_NAAPAUansi_string@?1??type_case_Z@?$output_processor@_WV?$string_output_adapter@_W@__crt_stdio_output@@V?$standard_base@_WV?$string_output_adapter@_W@__crt_stdio_output@@@2@@1@AAE_NXZ@@Z 10060510 f i libucrtd:output.obj
 0001:0005f540       ??$extract_argument_from_va_list@PAXPAX@?$positional_parameter_base@DV?$stream_output_adapter@D@__crt_stdio_output@@@__crt_stdio_output@@IAE_NAAPAX@Z 10060540 f i libucrtd:output.obj
 0001:0005f6c0       ??$extract_argument_from_va_list@PAXPAX@?$positional_parameter_base@DV?$string_output_adapter@D@__crt_stdio_output@@@__crt_stdio_output@@IAE_NAAPAX@Z 100606c0 f i libucrtd:output.obj
 0001:0005f840       ??$extract_argument_from_va_list@PAXPAX@?$positional_parameter_base@_WV?$stream_output_adapter@_W@__crt_stdio_output@@@__crt_stdio_output@@IAE_NAAPAX@Z 10060840 f i libucrtd:output.obj
 0001:0005f9c0       ??$extract_argument_from_va_list@PAXPAX@?$positional_parameter_base@_WV?$string_output_adapter@_W@__crt_stdio_output@@@__crt_stdio_output@@IAE_NAAPAX@Z 100609c0 f i libucrtd:output.obj
 0001:0005fb40       ??$extract_argument_from_va_list@PAXPAX@?$standard_base@DV?$stream_output_adapter@D@__crt_stdio_output@@@__crt_stdio_output@@IAE_NAAPAX@Z 10060b40 f i libucrtd:output.obj
 0001:0005fb70       ??$extract_argument_from_va_list@PAXPAX@?$standard_base@DV?$string_output_adapter@D@__crt_stdio_output@@@__crt_stdio_output@@IAE_NAAPAX@Z 10060b70 f i libucrtd:output.obj
 0001:0005fba0       ??$extract_argument_from_va_list@PAXPAX@?$standard_base@_WV?$stream_output_adapter@_W@__crt_stdio_output@@@__crt_stdio_output@@IAE_NAAPAX@Z 10060ba0 f i libucrtd:output.obj
 0001:0005fbd0       ??$extract_argument_from_va_list@PAXPAX@?$standard_base@_WV?$string_output_adapter@_W@__crt_stdio_output@@@__crt_stdio_output@@IAE_NAAPAX@Z 10060bd0 f i libucrtd:output.obj
 0001:0005fc00       ??$extract_argument_from_va_list@U_CRT_DOUBLE@@U1@@?$positional_parameter_base@DV?$stream_output_adapter@D@__crt_stdio_output@@@__crt_stdio_output@@IAE_NAAU_CRT_DOUBLE@@@Z 10060c00 f i libucrtd:output.obj
 0001:0005fdb0       ??$extract_argument_from_va_list@U_CRT_DOUBLE@@U1@@?$positional_parameter_base@DV?$string_output_adapter@D@__crt_stdio_output@@@__crt_stdio_output@@IAE_NAAU_CRT_DOUBLE@@@Z 10060db0 f i libucrtd:output.obj
 0001:0005ff60       ??$extract_argument_from_va_list@U_CRT_DOUBLE@@U1@@?$positional_parameter_base@_WV?$stream_output_adapter@_W@__crt_stdio_output@@@__crt_stdio_output@@IAE_NAAU_CRT_DOUBLE@@@Z 10060f60 f i libucrtd:output.obj
 0001:00060110       ??$extract_argument_from_va_list@U_CRT_DOUBLE@@U1@@?$positional_parameter_base@_WV?$string_output_adapter@_W@__crt_stdio_output@@@__crt_stdio_output@@IAE_NAAU_CRT_DOUBLE@@@Z 10061110 f i libucrtd:output.obj
 0001:000602c0       ??$extract_argument_from_va_list@U_CRT_DOUBLE@@U1@@?$standard_base@DV?$stream_output_adapter@D@__crt_stdio_output@@@__crt_stdio_output@@IAE_NAAU_CRT_DOUBLE@@@Z 100612c0 f i libucrtd:output.obj
 0001:00060320       ??$extract_argument_from_va_list@U_CRT_DOUBLE@@U1@@?$standard_base@DV?$string_output_adapter@D@__crt_stdio_output@@@__crt_stdio_output@@IAE_NAAU_CRT_DOUBLE@@@Z 10061320 f i libucrtd:output.obj
 0001:00060380       ??$extract_argument_from_va_list@U_CRT_DOUBLE@@U1@@?$standard_base@_WV?$stream_output_adapter@_W@__crt_stdio_output@@@__crt_stdio_output@@IAE_NAAU_CRT_DOUBLE@@@Z 10061380 f i libucrtd:output.obj
 0001:000603e0       ??$extract_argument_from_va_list@U_CRT_DOUBLE@@U1@@?$standard_base@_WV?$string_output_adapter@_W@__crt_stdio_output@@@__crt_stdio_output@@IAE_NAAU_CRT_DOUBLE@@@Z 100613e0 f i libucrtd:output.obj
 0001:00060440       ??$extract_argument_from_va_list@_J_J@?$positional_parameter_base@DV?$stream_output_adapter@D@__crt_stdio_output@@@__crt_stdio_output@@IAE_NAA_J@Z 10061440 f i libucrtd:output.obj
 0001:000605c0       ??$extract_argument_from_va_list@_J_J@?$positional_parameter_base@DV?$string_output_adapter@D@__crt_stdio_output@@@__crt_stdio_output@@IAE_NAA_J@Z 100615c0 f i libucrtd:output.obj
 0001:00060740       ??$extract_argument_from_va_list@_J_J@?$positional_parameter_base@_WV?$stream_output_adapter@_W@__crt_stdio_output@@@__crt_stdio_output@@IAE_NAA_J@Z 10061740 f i libucrtd:output.obj
 0001:000608c0       ??$extract_argument_from_va_list@_J_J@?$positional_parameter_base@_WV?$string_output_adapter@_W@__crt_stdio_output@@@__crt_stdio_output@@IAE_NAA_J@Z 100618c0 f i libucrtd:output.obj
 0001:00060a40       ??$extract_argument_from_va_list@_J_J@?$standard_base@DV?$stream_output_adapter@D@__crt_stdio_output@@@__crt_stdio_output@@IAE_NAA_J@Z 10061a40 f i libucrtd:output.obj
 0001:00060a80       ??$extract_argument_from_va_list@_J_J@?$standard_base@DV?$string_output_adapter@D@__crt_stdio_output@@@__crt_stdio_output@@IAE_NAA_J@Z 10061a80 f i libucrtd:output.obj
 0001:00060ac0       ??$extract_argument_from_va_list@_J_J@?$standard_base@_WV?$stream_output_adapter@_W@__crt_stdio_output@@@__crt_stdio_output@@IAE_NAA_J@Z 10061ac0 f i libucrtd:output.obj
 0001:00060b00       ??$extract_argument_from_va_list@_J_J@?$standard_base@_WV?$string_output_adapter@_W@__crt_stdio_output@@@__crt_stdio_output@@IAE_NAA_J@Z 10061b00 f i libucrtd:output.obj
 0001:00060b40       ??$extract_argument_from_va_list@_K_J@?$positional_parameter_base@DV?$stream_output_adapter@D@__crt_stdio_output@@@__crt_stdio_output@@IAE_NAA_J@Z 10061b40 f i libucrtd:output.obj
 0001:00060cc0       ??$extract_argument_from_va_list@_K_J@?$positional_parameter_base@DV?$string_output_adapter@D@__crt_stdio_output@@@__crt_stdio_output@@IAE_NAA_J@Z 10061cc0 f i libucrtd:output.obj
 0001:00060e40       ??$extract_argument_from_va_list@_K_J@?$positional_parameter_base@_WV?$stream_output_adapter@_W@__crt_stdio_output@@@__crt_stdio_output@@IAE_NAA_J@Z 10061e40 f i libucrtd:output.obj
 0001:00060fc0       ??$extract_argument_from_va_list@_K_J@?$positional_parameter_base@_WV?$string_output_adapter@_W@__crt_stdio_output@@@__crt_stdio_output@@IAE_NAA_J@Z 10061fc0 f i libucrtd:output.obj
 0001:00061140       ??$extract_argument_from_va_list@_K_J@?$standard_base@DV?$stream_output_adapter@D@__crt_stdio_output@@@__crt_stdio_output@@IAE_NAA_J@Z 10062140 f i libucrtd:output.obj
 0001:00061180       ??$extract_argument_from_va_list@_K_J@?$standard_base@DV?$string_output_adapter@D@__crt_stdio_output@@@__crt_stdio_output@@IAE_NAA_J@Z 10062180 f i libucrtd:output.obj
 0001:000611c0       ??$extract_argument_from_va_list@_K_J@?$standard_base@_WV?$stream_output_adapter@_W@__crt_stdio_output@@@__crt_stdio_output@@IAE_NAA_J@Z 100621c0 f i libucrtd:output.obj
 0001:00061200       ??$extract_argument_from_va_list@_K_J@?$standard_base@_WV?$string_output_adapter@_W@__crt_stdio_output@@@__crt_stdio_output@@IAE_NAA_J@Z 10062200 f i libucrtd:output.obj
 0001:00061240       ??$extract_argument_from_va_list@_W_W@?$positional_parameter_base@DV?$stream_output_adapter@D@__crt_stdio_output@@@__crt_stdio_output@@IAE_NAA_W@Z 10062240 f i libucrtd:output.obj
 0001:000613c0       ??$extract_argument_from_va_list@_W_W@?$positional_parameter_base@DV?$string_output_adapter@D@__crt_stdio_output@@@__crt_stdio_output@@IAE_NAA_W@Z 100623c0 f i libucrtd:output.obj
 0001:00061540       ??$extract_argument_from_va_list@_W_W@?$positional_parameter_base@_WV?$stream_output_adapter@_W@__crt_stdio_output@@@__crt_stdio_output@@IAE_NAA_W@Z 10062540 f i libucrtd:output.obj
 0001:000616c0       ??$extract_argument_from_va_list@_W_W@?$positional_parameter_base@_WV?$string_output_adapter@_W@__crt_stdio_output@@@__crt_stdio_output@@IAE_NAA_W@Z 100626c0 f i libucrtd:output.obj
 0001:00061840       ??$extract_argument_from_va_list@_W_W@?$standard_base@DV?$stream_output_adapter@D@__crt_stdio_output@@@__crt_stdio_output@@IAE_NAA_W@Z 10062840 f i libucrtd:output.obj
 0001:00061870       ??$extract_argument_from_va_list@_W_W@?$standard_base@DV?$string_output_adapter@D@__crt_stdio_output@@@__crt_stdio_output@@IAE_NAA_W@Z 10062870 f i libucrtd:output.obj
 0001:000618a0       ??$extract_argument_from_va_list@_W_W@?$standard_base@_WV?$stream_output_adapter@_W@__crt_stdio_output@@@__crt_stdio_output@@IAE_NAA_W@Z 100628a0 f i libucrtd:output.obj
 0001:000618d0       ??$extract_argument_from_va_list@_W_W@?$standard_base@_WV?$string_output_adapter@_W@__crt_stdio_output@@@__crt_stdio_output@@IAE_NAA_W@Z 100628d0 f i libucrtd:output.obj
 0001:00061900       ??$get_parameter_type@D@?$positional_parameter_base@DV?$stream_output_adapter@D@__crt_stdio_output@@@__crt_stdio_output@@CA?AW4parameter_type@01@PAD@Z 10062900 f i libucrtd:output.obj
 0001:00061910       ??$get_parameter_type@D@?$positional_parameter_base@DV?$string_output_adapter@D@__crt_stdio_output@@@__crt_stdio_output@@CA?AW4parameter_type@01@PAD@Z 10062910 f i libucrtd:output.obj
 0001:00061920       ??$get_parameter_type@D@?$positional_parameter_base@_WV?$stream_output_adapter@_W@__crt_stdio_output@@@__crt_stdio_output@@CA?AW4parameter_type@01@PAD@Z 10062920 f i libucrtd:output.obj
 0001:00061930       ??$get_parameter_type@D@?$positional_parameter_base@_WV?$string_output_adapter@_W@__crt_stdio_output@@@__crt_stdio_output@@CA?AW4parameter_type@01@PAD@Z 10062930 f i libucrtd:output.obj
 0001:00061940       ??$get_parameter_type@Uansi_string@?1??type_case_Z@?$output_processor@DV?$stream_output_adapter@D@__crt_stdio_output@@V?$positional_parameter_base@DV?$stream_output_adapter@D@__crt_stdio_output@@@2@@__crt_stdio_output@@AAE_NXZ@@?$positional_parameter_base@DV?$stream_output_adapter@D@__crt_stdio_output@@@__crt_stdio_output@@CA?AW4parameter_type@01@PAUansi_string@?1??type_case_Z@?$output_processor@DV?$stream_output_adapter@D@__crt_stdio_output@@V?$positional_parameter_base@DV?$stream_output_adapter@D@__crt_stdio_output@@@2@@1@AAE_NXZ@@Z 10062940 f i libucrtd:output.obj
 0001:00061950       ??$get_parameter_type@Uansi_string@?1??type_case_Z@?$output_processor@DV?$string_output_adapter@D@__crt_stdio_output@@V?$positional_parameter_base@DV?$string_output_adapter@D@__crt_stdio_output@@@2@@__crt_stdio_output@@AAE_NXZ@@?$positional_parameter_base@DV?$string_output_adapter@D@__crt_stdio_output@@@__crt_stdio_output@@CA?AW4parameter_type@01@PAUansi_string@?1??type_case_Z@?$output_processor@DV?$string_output_adapter@D@__crt_stdio_output@@V?$positional_parameter_base@DV?$string_output_adapter@D@__crt_stdio_output@@@2@@1@AAE_NXZ@@Z 10062950 f i libucrtd:output.obj
 0001:00061960       ??$get_parameter_type@Uansi_string@?1??type_case_Z@?$output_processor@_WV?$stream_output_adapter@_W@__crt_stdio_output@@V?$positional_parameter_base@_WV?$stream_output_adapter@_W@__crt_stdio_output@@@2@@__crt_stdio_output@@AAE_NXZ@@?$positional_parameter_base@_WV?$stream_output_adapter@_W@__crt_stdio_output@@@__crt_stdio_output@@CA?AW4parameter_type@01@PAUansi_string@?1??type_case_Z@?$output_processor@_WV?$stream_output_adapter@_W@__crt_stdio_output@@V?$positional_parameter_base@_WV?$stream_output_adapter@_W@__crt_stdio_output@@@2@@1@AAE_NXZ@@Z 10062960 f i libucrtd:output.obj
 0001:00061970       ??$get_parameter_type@Uansi_string@?1??type_case_Z@?$output_processor@_WV?$string_output_adapter@_W@__crt_stdio_output@@V?$positional_parameter_base@_WV?$string_output_adapter@_W@__crt_stdio_output@@@2@@__crt_stdio_output@@AAE_NXZ@@?$positional_parameter_base@_WV?$string_output_adapter@_W@__crt_stdio_output@@@__crt_stdio_output@@CA?AW4parameter_type@01@PAUansi_string@?1??type_case_Z@?$output_processor@_WV?$string_output_adapter@_W@__crt_stdio_output@@V?$positional_parameter_base@_WV?$string_output_adapter@_W@__crt_stdio_output@@@2@@1@AAE_NXZ@@Z 10062970 f i libucrtd:output.obj
 0001:00061980       ??$get_parameter_type@X@?$positional_parameter_base@DV?$stream_output_adapter@D@__crt_stdio_output@@@__crt_stdio_output@@CA?AW4parameter_type@01@PAX@Z 10062980 f i libucrtd:output.obj
 0001:00061990       ??$get_parameter_type@X@?$positional_parameter_base@DV?$string_output_adapter@D@__crt_stdio_output@@@__crt_stdio_output@@CA?AW4parameter_type@01@PAX@Z 10062990 f i libucrtd:output.obj
 0001:000619a0       ??$get_parameter_type@X@?$positional_parameter_base@_WV?$stream_output_adapter@_W@__crt_stdio_output@@@__crt_stdio_output@@CA?AW4parameter_type@01@PAX@Z 100629a0 f i libucrtd:output.obj
 0001:000619b0       ??$get_parameter_type@X@?$positional_parameter_base@_WV?$string_output_adapter@_W@__crt_stdio_output@@@__crt_stdio_output@@CA?AW4parameter_type@01@PAX@Z 100629b0 f i libucrtd:output.obj
 0001:000619c0       ??$is_character_specifier@D@?$positional_parameter_base@DV?$stream_output_adapter@D@__crt_stdio_output@@@__crt_stdio_output@@CA_ND@Z 100629c0 f i libucrtd:output.obj
 0001:00061a00       ??$is_character_specifier@D@?$positional_parameter_base@DV?$string_output_adapter@D@__crt_stdio_output@@@__crt_stdio_output@@CA_ND@Z 10062a00 f i libucrtd:output.obj
 0001:00061a40       ??$is_character_specifier@_W@?$positional_parameter_base@_WV?$stream_output_adapter@_W@__crt_stdio_output@@@__crt_stdio_output@@CA_N_W@Z 10062a40 f i libucrtd:output.obj
 0001:00061a80       ??$is_character_specifier@_W@?$positional_parameter_base@_WV?$string_output_adapter@_W@__crt_stdio_output@@@__crt_stdio_output@@CA_N_W@Z 10062a80 f i libucrtd:output.obj
 0001:00061ac0       ??$is_integral_specifier@D@?$positional_parameter_base@DV?$stream_output_adapter@D@__crt_stdio_output@@@__crt_stdio_output@@CA_ND@Z 10062ac0 f i libucrtd:output.obj
 0001:00061b40       ??$is_integral_specifier@D@?$positional_parameter_base@DV?$string_output_adapter@D@__crt_stdio_output@@@__crt_stdio_output@@CA_ND@Z 10062b40 f i libucrtd:output.obj
 0001:00061bc0       ??$is_integral_specifier@_W@?$positional_parameter_base@_WV?$stream_output_adapter@_W@__crt_stdio_output@@@__crt_stdio_output@@CA_N_W@Z 10062bc0 f i libucrtd:output.obj
 0001:00061c40       ??$is_integral_specifier@_W@?$positional_parameter_base@_WV?$string_output_adapter@_W@__crt_stdio_output@@@__crt_stdio_output@@CA_N_W@Z 10062c40 f i libucrtd:output.obj
 0001:00061cc0       ??$is_pointer_specifier@D@?$positional_parameter_base@DV?$stream_output_adapter@D@__crt_stdio_output@@@__crt_stdio_output@@CA_ND@Z 10062cc0 f i libucrtd:output.obj
 0001:00061cf0       ??$is_pointer_specifier@D@?$positional_parameter_base@DV?$string_output_adapter@D@__crt_stdio_output@@@__crt_stdio_output@@CA_ND@Z 10062cf0 f i libucrtd:output.obj
 0001:00061d20       ??$is_pointer_specifier@_W@?$positional_parameter_base@_WV?$stream_output_adapter@_W@__crt_stdio_output@@@__crt_stdio_output@@CA_N_W@Z 10062d20 f i libucrtd:output.obj
 0001:00061d50       ??$is_pointer_specifier@_W@?$positional_parameter_base@_WV?$string_output_adapter@_W@__crt_stdio_output@@@__crt_stdio_output@@CA_N_W@Z 10062d50 f i libucrtd:output.obj
 0001:00061d80       ??$is_string_specifier@D@?$positional_parameter_base@DV?$stream_output_adapter@D@__crt_stdio_output@@@__crt_stdio_output@@CA_ND@Z 10062d80 f i libucrtd:output.obj
 0001:00061dc0       ??$is_string_specifier@D@?$positional_parameter_base@DV?$string_output_adapter@D@__crt_stdio_output@@@__crt_stdio_output@@CA_ND@Z 10062dc0 f i libucrtd:output.obj
 0001:00061e00       ??$is_string_specifier@_W@?$positional_parameter_base@_WV?$stream_output_adapter@_W@__crt_stdio_output@@@__crt_stdio_output@@CA_N_W@Z 10062e00 f i libucrtd:output.obj
 0001:00061e40       ??$is_string_specifier@_W@?$positional_parameter_base@_WV?$string_output_adapter@_W@__crt_stdio_output@@@__crt_stdio_output@@CA_N_W@Z 10062e40 f i libucrtd:output.obj
 0001:00061e80       ??$is_wide_character_specifier@D@__crt_stdio_output@@YA_N_KDW4length_modifier@0@@Z 10062e80 f i libucrtd:output.obj
 0001:00061f20       ??$is_wide_character_specifier@_W@__crt_stdio_output@@YA_N_K_WW4length_modifier@0@@Z 10062f20 f i libucrtd:output.obj
 0001:00062010       ??$peek_va_arg@C@__crt_stdio_output@@YACPAD@Z 10063010 f i libucrtd:output.obj
 0001:00062030       ??$peek_va_arg@E@__crt_stdio_output@@YAEPAD@Z 10063030 f i libucrtd:output.obj
 0001:00062050       ??$peek_va_arg@F@__crt_stdio_output@@YAFPAD@Z 10063050 f i libucrtd:output.obj
 0001:00062070       ??$peek_va_arg@G@__crt_stdio_output@@YAGPAD@Z 10063070 f i libucrtd:output.obj
 0001:00062090       ??$peek_va_arg@H@__crt_stdio_output@@YAHPAD@Z 10063090 f i libucrtd:output.obj
 0001:000620b0       ??$peek_va_arg@I@__crt_stdio_output@@YAIPAD@Z 100630b0 f i libucrtd:output.obj
 0001:000620d0       ??$peek_va_arg@PAD@__crt_stdio_output@@YAPADPAD@Z 100630d0 f i libucrtd:output.obj
 0001:000620f0       ??$peek_va_arg@PAUansi_string@?1??type_case_Z@?$output_processor@DV?$stream_output_adapter@D@__crt_stdio_output@@V?$positional_parameter_base@DV?$stream_output_adapter@D@__crt_stdio_output@@@2@@__crt_stdio_output@@AAE_NXZ@@__crt_stdio_output@@YAPAUansi_string@?1??type_case_Z@?$output_processor@DV?$stream_output_adapter@D@__crt_stdio_output@@V?$positional_parameter_base@DV?$stream_output_adapter@D@__crt_stdio_output@@@2@@0@AAE_NXZ@PAD@Z 100630f0 f i libucrtd:output.obj
 0001:00062110       ??$peek_va_arg@PAUansi_string@?1??type_case_Z@?$output_processor@DV?$string_output_adapter@D@__crt_stdio_output@@V?$positional_parameter_base@DV?$string_output_adapter@D@__crt_stdio_output@@@2@@__crt_stdio_output@@AAE_NXZ@@__crt_stdio_output@@YAPAUansi_string@?1??type_case_Z@?$output_processor@DV?$string_output_adapter@D@__crt_stdio_output@@V?$positional_parameter_base@DV?$string_output_adapter@D@__crt_stdio_output@@@2@@0@AAE_NXZ@PAD@Z 10063110 f i libucrtd:output.obj
 0001:00062130       ??$peek_va_arg@PAUansi_string@?1??type_case_Z@?$output_processor@_WV?$stream_output_adapter@_W@__crt_stdio_output@@V?$positional_parameter_base@_WV?$stream_output_adapter@_W@__crt_stdio_output@@@2@@__crt_stdio_output@@AAE_NXZ@@__crt_stdio_output@@YAPAUansi_string@?1??type_case_Z@?$output_processor@_WV?$stream_output_adapter@_W@__crt_stdio_output@@V?$positional_parameter_base@_WV?$stream_output_adapter@_W@__crt_stdio_output@@@2@@0@AAE_NXZ@PAD@Z 10063130 f i libucrtd:output.obj
 0001:00062150       ??$peek_va_arg@PAUansi_string@?1??type_case_Z@?$output_processor@_WV?$string_output_adapter@_W@__crt_stdio_output@@V?$positional_parameter_base@_WV?$string_output_adapter@_W@__crt_stdio_output@@@2@@__crt_stdio_output@@AAE_NXZ@@__crt_stdio_output@@YAPAUansi_string@?1??type_case_Z@?$output_processor@_WV?$string_output_adapter@_W@__crt_stdio_output@@V?$positional_parameter_base@_WV?$string_output_adapter@_W@__crt_stdio_output@@@2@@0@AAE_NXZ@PAD@Z 10063150 f i libucrtd:output.obj
 0001:00062170       ??$peek_va_arg@PAX@__crt_stdio_output@@YAPAXPAD@Z 10063170 f i libucrtd:output.obj
 0001:00062190       ??$peek_va_arg@U_CRT_DOUBLE@@@__crt_stdio_output@@YA?AU_CRT_DOUBLE@@PAD@Z 10063190 f i libucrtd:output.obj
 0001:000621b0       ??$peek_va_arg@_J@__crt_stdio_output@@YA_JPAD@Z 100631b0 f i libucrtd:output.obj
 0001:000621d0       ??$peek_va_arg@_K@__crt_stdio_output@@YA_KPAD@Z 100631d0 f i libucrtd:output.obj
 0001:000621f0       ??$peek_va_arg@_W@__crt_stdio_output@@YA_WPAD@Z 100631f0 f i libucrtd:output.obj
 0001:00062210       ??$puttc_nolock@ABDPAU_iobuf@@@?$__crt_char_traits@D@@SAHABD$$QAPAU_iobuf@@@Z 10063210 f i libucrtd:output.obj
 0001:00062240       ??$puttc_nolock@AB_WPAU_iobuf@@@?$__crt_char_traits@_W@@SAGAB_W$$QAPAU_iobuf@@@Z 10063240 f i libucrtd:output.obj
 0001:00062270       ??$read_va_arg@C@__crt_stdio_output@@YACAAPAD@Z 10063270 f i libucrtd:output.obj
 0001:000622a0       ??$read_va_arg@E@__crt_stdio_output@@YAEAAPAD@Z 100632a0 f i libucrtd:output.obj
 0001:000622d0       ??$read_va_arg@F@__crt_stdio_output@@YAFAAPAD@Z 100632d0 f i libucrtd:output.obj
 0001:00062300       ??$read_va_arg@G@__crt_stdio_output@@YAGAAPAD@Z 10063300 f i libucrtd:output.obj
 0001:00062330       ??$read_va_arg@H@__crt_stdio_output@@YAHAAPAD@Z 10063330 f i libucrtd:output.obj
 0001:00062360       ??$read_va_arg@I@__crt_stdio_output@@YAIAAPAD@Z 10063360 f i libucrtd:output.obj
 0001:00062390       ??$read_va_arg@PAD@__crt_stdio_output@@YAPADAAPAD@Z 10063390 f i libucrtd:output.obj
 0001:000623c0       ??$read_va_arg@PAUansi_string@?1??type_case_Z@?$output_processor@DV?$stream_output_adapter@D@__crt_stdio_output@@V?$format_validation_base@DV?$stream_output_adapter@D@__crt_stdio_output@@@2@@__crt_stdio_output@@AAE_NXZ@@__crt_stdio_output@@YAPAUansi_string@?1??type_case_Z@?$output_processor@DV?$stream_output_adapter@D@__crt_stdio_output@@V?$format_validation_base@DV?$stream_output_adapter@D@__crt_stdio_output@@@2@@0@AAE_NXZ@AAPAD@Z 100633c0 f i libucrtd:output.obj
 0001:000623f0       ??$read_va_arg@PAUansi_string@?1??type_case_Z@?$output_processor@DV?$stream_output_adapter@D@__crt_stdio_output@@V?$positional_parameter_base@DV?$stream_output_adapter@D@__crt_stdio_output@@@2@@__crt_stdio_output@@AAE_NXZ@@__crt_stdio_output@@YAPAUansi_string@?1??type_case_Z@?$output_processor@DV?$stream_output_adapter@D@__crt_stdio_output@@V?$positional_parameter_base@DV?$stream_output_adapter@D@__crt_stdio_output@@@2@@0@AAE_NXZ@AAPAD@Z 100633f0 f i libucrtd:output.obj
 0001:00062420       ??$read_va_arg@PAUansi_string@?1??type_case_Z@?$output_processor@DV?$stream_output_adapter@D@__crt_stdio_output@@V?$standard_base@DV?$stream_output_adapter@D@__crt_stdio_output@@@2@@__crt_stdio_output@@AAE_NXZ@@__crt_stdio_output@@YAPAUansi_string@?1??type_case_Z@?$output_processor@DV?$stream_output_adapter@D@__crt_stdio_output@@V?$standard_base@DV?$stream_output_adapter@D@__crt_stdio_output@@@2@@0@AAE_NXZ@AAPAD@Z 10063420 f i libucrtd:output.obj
 0001:00062450       ??$read_va_arg@PAUansi_string@?1??type_case_Z@?$output_processor@DV?$string_output_adapter@D@__crt_stdio_output@@V?$format_validation_base@DV?$string_output_adapter@D@__crt_stdio_output@@@2@@__crt_stdio_output@@AAE_NXZ@@__crt_stdio_output@@YAPAUansi_string@?1??type_case_Z@?$output_processor@DV?$string_output_adapter@D@__crt_stdio_output@@V?$format_validation_base@DV?$string_output_adapter@D@__crt_stdio_output@@@2@@0@AAE_NXZ@AAPAD@Z 10063450 f i libucrtd:output.obj
 0001:00062480       ??$read_va_arg@PAUansi_string@?1??type_case_Z@?$output_processor@DV?$string_output_adapter@D@__crt_stdio_output@@V?$positional_parameter_base@DV?$string_output_adapter@D@__crt_stdio_output@@@2@@__crt_stdio_output@@AAE_NXZ@@__crt_stdio_output@@YAPAUansi_string@?1??type_case_Z@?$output_processor@DV?$string_output_adapter@D@__crt_stdio_output@@V?$positional_parameter_base@DV?$string_output_adapter@D@__crt_stdio_output@@@2@@0@AAE_NXZ@AAPAD@Z 10063480 f i libucrtd:output.obj
 0001:000624b0       ??$read_va_arg@PAUansi_string@?1??type_case_Z@?$output_processor@DV?$string_output_adapter@D@__crt_stdio_output@@V?$standard_base@DV?$string_output_adapter@D@__crt_stdio_output@@@2@@__crt_stdio_output@@AAE_NXZ@@__crt_stdio_output@@YAPAUansi_string@?1??type_case_Z@?$output_processor@DV?$string_output_adapter@D@__crt_stdio_output@@V?$standard_base@DV?$string_output_adapter@D@__crt_stdio_output@@@2@@0@AAE_NXZ@AAPAD@Z 100634b0 f i libucrtd:output.obj
 0001:000624e0       ??$read_va_arg@PAUansi_string@?1??type_case_Z@?$output_processor@_WV?$stream_output_adapter@_W@__crt_stdio_output@@V?$format_validation_base@_WV?$stream_output_adapter@_W@__crt_stdio_output@@@2@@__crt_stdio_output@@AAE_NXZ@@__crt_stdio_output@@YAPAUansi_string@?1??type_case_Z@?$output_processor@_WV?$stream_output_adapter@_W@__crt_stdio_output@@V?$format_validation_base@_WV?$stream_output_adapter@_W@__crt_stdio_output@@@2@@0@AAE_NXZ@AAPAD@Z 100634e0 f i libucrtd:output.obj
 0001:00062510       ??$read_va_arg@PAUansi_string@?1??type_case_Z@?$output_processor@_WV?$stream_output_adapter@_W@__crt_stdio_output@@V?$positional_parameter_base@_WV?$stream_output_adapter@_W@__crt_stdio_output@@@2@@__crt_stdio_output@@AAE_NXZ@@__crt_stdio_output@@YAPAUansi_string@?1??type_case_Z@?$output_processor@_WV?$stream_output_adapter@_W@__crt_stdio_output@@V?$positional_parameter_base@_WV?$stream_output_adapter@_W@__crt_stdio_output@@@2@@0@AAE_NXZ@AAPAD@Z 10063510 f i libucrtd:output.obj
 0001:00062540       ??$read_va_arg@PAUansi_string@?1??type_case_Z@?$output_processor@_WV?$stream_output_adapter@_W@__crt_stdio_output@@V?$standard_base@_WV?$stream_output_adapter@_W@__crt_stdio_output@@@2@@__crt_stdio_output@@AAE_NXZ@@__crt_stdio_output@@YAPAUansi_string@?1??type_case_Z@?$output_processor@_WV?$stream_output_adapter@_W@__crt_stdio_output@@V?$standard_base@_WV?$stream_output_adapter@_W@__crt_stdio_output@@@2@@0@AAE_NXZ@AAPAD@Z 10063540 f i libucrtd:output.obj
 0001:00062570       ??$read_va_arg@PAUansi_string@?1??type_case_Z@?$output_processor@_WV?$string_output_adapter@_W@__crt_stdio_output@@V?$format_validation_base@_WV?$string_output_adapter@_W@__crt_stdio_output@@@2@@__crt_stdio_output@@AAE_NXZ@@__crt_stdio_output@@YAPAUansi_string@?1??type_case_Z@?$output_processor@_WV?$string_output_adapter@_W@__crt_stdio_output@@V?$format_validation_base@_WV?$string_output_adapter@_W@__crt_stdio_output@@@2@@0@AAE_NXZ@AAPAD@Z 10063570 f i libucrtd:output.obj
 0001:000625a0       ??$read_va_arg@PAUansi_string@?1??type_case_Z@?$output_processor@_WV?$string_output_adapter@_W@__crt_stdio_output@@V?$positional_parameter_base@_WV?$string_output_adapter@_W@__crt_stdio_output@@@2@@__crt_stdio_output@@AAE_NXZ@@__crt_stdio_output@@YAPAUansi_string@?1??type_case_Z@?$output_processor@_WV?$string_output_adapter@_W@__crt_stdio_output@@V?$positional_parameter_base@_WV?$string_output_adapter@_W@__crt_stdio_output@@@2@@0@AAE_NXZ@AAPAD@Z 100635a0 f i libucrtd:output.obj
 0001:000625d0       ??$read_va_arg@PAUansi_string@?1??type_case_Z@?$output_processor@_WV?$string_output_adapter@_W@__crt_stdio_output@@V?$standard_base@_WV?$string_output_adapter@_W@__crt_stdio_output@@@2@@__crt_stdio_output@@AAE_NXZ@@__crt_stdio_output@@YAPAUansi_string@?1??type_case_Z@?$output_processor@_WV?$string_output_adapter@_W@__crt_stdio_output@@V?$standard_base@_WV?$string_output_adapter@_W@__crt_stdio_output@@@2@@0@AAE_NXZ@AAPAD@Z 100635d0 f i libucrtd:output.obj
 0001:00062600       ??$read_va_arg@PAX@__crt_stdio_output@@YAPAXAAPAD@Z 10063600 f i libucrtd:output.obj
 0001:00062630       ??$read_va_arg@U_CRT_DOUBLE@@@__crt_stdio_output@@YA?AU_CRT_DOUBLE@@AAPAD@Z 10063630 f i libucrtd:output.obj
 0001:00062660       ??$read_va_arg@_J@__crt_stdio_output@@YA_JAAPAD@Z 10063660 f i libucrtd:output.obj
 0001:00062690       ??$read_va_arg@_K@__crt_stdio_output@@YA_KAAPAD@Z 10063690 f i libucrtd:output.obj
 0001:000626c0       ??$read_va_arg@_W@__crt_stdio_output@@YA_WAAPAD@Z 100636c0 f i libucrtd:output.obj
 0001:000626f0       ??$scratch_count@D@formatting_buffer@__crt_stdio_output@@QBEIXZ 100636f0 f i libucrtd:output.obj
 0001:00062710       ??$scratch_data@D@formatting_buffer@__crt_stdio_output@@QAEPADXZ 10063710 f i libucrtd:output.obj
 0001:00062770       ??$tcstol@AAPBDPAPADH@?$__crt_char_traits@D@@SAJAAPBD$$QAPAPAD$$QAH@Z 10063770 f i libucrtd:output.obj
 0001:000627a0       ??$tcstol@AAPB_WPAPA_WH@?$__crt_char_traits@_W@@SAJAAPB_W$$QAPAPA_W$$QAH@Z 100637a0 f i libucrtd:output.obj
 0001:000627d0       ??$tcstol@PBDPAPADH@?$__crt_char_traits@D@@SAJ$$QAPBD$$QAPAPAD$$QAH@Z 100637d0 f i libucrtd:output.obj
 0001:00062800       ??$tcstol@PB_WPAPA_WH@?$__crt_char_traits@_W@@SAJ$$QAPB_W$$QAPAPA_W$$QAH@Z 10063800 f i libucrtd:output.obj
 0001:00062830       ??$type_case_integer_parse_into_buffer@I@?$output_processor@DV?$stream_output_adapter@D@__crt_stdio_output@@V?$format_validation_base@DV?$stream_output_adapter@D@__crt_stdio_output@@@2@@__crt_stdio_output@@AAEXII_N@Z 10063830 f i libucrtd:output.obj
 0001:00062930       ??$type_case_integer_parse_into_buffer@I@?$output_processor@DV?$stream_output_adapter@D@__crt_stdio_output@@V?$positional_parameter_base@DV?$stream_output_adapter@D@__crt_stdio_output@@@2@@__crt_stdio_output@@AAEXII_N@Z 10063930 f i libucrtd:output.obj
 0001:00062a30       ??$type_case_integer_parse_into_buffer@I@?$output_processor@DV?$stream_output_adapter@D@__crt_stdio_output@@V?$standard_base@DV?$stream_output_adapter@D@__crt_stdio_output@@@2@@__crt_stdio_output@@AAEXII_N@Z 10063a30 f i libucrtd:output.obj
 0001:00062b30       ??$type_case_integer_parse_into_buffer@I@?$output_processor@DV?$string_output_adapter@D@__crt_stdio_output@@V?$format_validation_base@DV?$string_output_adapter@D@__crt_stdio_output@@@2@@__crt_stdio_output@@AAEXII_N@Z 10063b30 f i libucrtd:output.obj
 0001:00062c30       ??$type_case_integer_parse_into_buffer@I@?$output_processor@DV?$string_output_adapter@D@__crt_stdio_output@@V?$positional_parameter_base@DV?$string_output_adapter@D@__crt_stdio_output@@@2@@__crt_stdio_output@@AAEXII_N@Z 10063c30 f i libucrtd:output.obj
 0001:00062d30       ??$type_case_integer_parse_into_buffer@I@?$output_processor@DV?$string_output_adapter@D@__crt_stdio_output@@V?$standard_base@DV?$string_output_adapter@D@__crt_stdio_output@@@2@@__crt_stdio_output@@AAEXII_N@Z 10063d30 f i libucrtd:output.obj
 0001:00062e30       ??$type_case_integer_parse_into_buffer@I@?$output_processor@_WV?$stream_output_adapter@_W@__crt_stdio_output@@V?$format_validation_base@_WV?$stream_output_adapter@_W@__crt_stdio_output@@@2@@__crt_stdio_output@@AAEXII_N@Z 10063e30 f i libucrtd:output.obj
 0001:00062f40       ??$type_case_integer_parse_into_buffer@I@?$output_processor@_WV?$stream_output_adapter@_W@__crt_stdio_output@@V?$positional_parameter_base@_WV?$stream_output_adapter@_W@__crt_stdio_output@@@2@@__crt_stdio_output@@AAEXII_N@Z 10063f40 f i libucrtd:output.obj
 0001:00063050       ??$type_case_integer_parse_into_buffer@I@?$output_processor@_WV?$stream_output_adapter@_W@__crt_stdio_output@@V?$standard_base@_WV?$stream_output_adapter@_W@__crt_stdio_output@@@2@@__crt_stdio_output@@AAEXII_N@Z 10064050 f i libucrtd:output.obj
 0001:00063160       ??$type_case_integer_parse_into_buffer@I@?$output_processor@_WV?$string_output_adapter@_W@__crt_stdio_output@@V?$format_validation_base@_WV?$string_output_adapter@_W@__crt_stdio_output@@@2@@__crt_stdio_output@@AAEXII_N@Z 10064160 f i libucrtd:output.obj
 0001:00063270       ??$type_case_integer_parse_into_buffer@I@?$output_processor@_WV?$string_output_adapter@_W@__crt_stdio_output@@V?$positional_parameter_base@_WV?$string_output_adapter@_W@__crt_stdio_output@@@2@@__crt_stdio_output@@AAEXII_N@Z 10064270 f i libucrtd:output.obj
 0001:00063380       ??$type_case_integer_parse_into_buffer@I@?$output_processor@_WV?$string_output_adapter@_W@__crt_stdio_output@@V?$standard_base@_WV?$string_output_adapter@_W@__crt_stdio_output@@@2@@__crt_stdio_output@@AAEXII_N@Z 10064380 f i libucrtd:output.obj
 0001:00063490       ??$type_case_integer_parse_into_buffer@_K@?$output_processor@DV?$stream_output_adapter@D@__crt_stdio_output@@V?$format_validation_base@DV?$stream_output_adapter@D@__crt_stdio_output@@@2@@__crt_stdio_output@@AAEX_KI_N@Z 10064490 f i libucrtd:output.obj
 0001:000635c0       ??$type_case_integer_parse_into_buffer@_K@?$output_processor@DV?$stream_output_adapter@D@__crt_stdio_output@@V?$positional_parameter_base@DV?$stream_output_adapter@D@__crt_stdio_output@@@2@@__crt_stdio_output@@AAEX_KI_N@Z 100645c0 f i libucrtd:output.obj
 0001:000636f0       ??$type_case_integer_parse_into_buffer@_K@?$output_processor@DV?$stream_output_adapter@D@__crt_stdio_output@@V?$standard_base@DV?$stream_output_adapter@D@__crt_stdio_output@@@2@@__crt_stdio_output@@AAEX_KI_N@Z 100646f0 f i libucrtd:output.obj
 0001:00063820       ??$type_case_integer_parse_into_buffer@_K@?$output_processor@DV?$string_output_adapter@D@__crt_stdio_output@@V?$format_validation_base@DV?$string_output_adapter@D@__crt_stdio_output@@@2@@__crt_stdio_output@@AAEX_KI_N@Z 10064820 f i libucrtd:output.obj
 0001:00063950       ??$type_case_integer_parse_into_buffer@_K@?$output_processor@DV?$string_output_adapter@D@__crt_stdio_output@@V?$positional_parameter_base@DV?$string_output_adapter@D@__crt_stdio_output@@@2@@__crt_stdio_output@@AAEX_KI_N@Z 10064950 f i libucrtd:output.obj
 0001:00063a80       ??$type_case_integer_parse_into_buffer@_K@?$output_processor@DV?$string_output_adapter@D@__crt_stdio_output@@V?$standard_base@DV?$string_output_adapter@D@__crt_stdio_output@@@2@@__crt_stdio_output@@AAEX_KI_N@Z 10064a80 f i libucrtd:output.obj
 0001:00063bb0       ??$type_case_integer_parse_into_buffer@_K@?$output_processor@_WV?$stream_output_adapter@_W@__crt_stdio_output@@V?$format_validation_base@_WV?$stream_output_adapter@_W@__crt_stdio_output@@@2@@__crt_stdio_output@@AAEX_KI_N@Z 10064bb0 f i libucrtd:output.obj
 0001:00063cf0       ??$type_case_integer_parse_into_buffer@_K@?$output_processor@_WV?$stream_output_adapter@_W@__crt_stdio_output@@V?$positional_parameter_base@_WV?$stream_output_adapter@_W@__crt_stdio_output@@@2@@__crt_stdio_output@@AAEX_KI_N@Z 10064cf0 f i libucrtd:output.obj
 0001:00063e30       ??$type_case_integer_parse_into_buffer@_K@?$output_processor@_WV?$stream_output_adapter@_W@__crt_stdio_output@@V?$standard_base@_WV?$stream_output_adapter@_W@__crt_stdio_output@@@2@@__crt_stdio_output@@AAEX_KI_N@Z 10064e30 f i libucrtd:output.obj
 0001:00063f70       ??$type_case_integer_parse_into_buffer@_K@?$output_processor@_WV?$string_output_adapter@_W@__crt_stdio_output@@V?$format_validation_base@_WV?$string_output_adapter@_W@__crt_stdio_output@@@2@@__crt_stdio_output@@AAEX_KI_N@Z 10064f70 f i libucrtd:output.obj
 0001:000640b0       ??$type_case_integer_parse_into_buffer@_K@?$output_processor@_WV?$string_output_adapter@_W@__crt_stdio_output@@V?$positional_parameter_base@_WV?$string_output_adapter@_W@__crt_stdio_output@@@2@@__crt_stdio_output@@AAEX_KI_N@Z 100650b0 f i libucrtd:output.obj
 0001:000641f0       ??$type_case_integer_parse_into_buffer@_K@?$output_processor@_WV?$string_output_adapter@_W@__crt_stdio_output@@V?$standard_base@_WV?$string_output_adapter@_W@__crt_stdio_output@@@2@@__crt_stdio_output@@AAEX_KI_N@Z 100651f0 f i libucrtd:output.obj
 0001:00064330       ??$write_multiple_characters@V?$stream_output_adapter@D@__crt_stdio_output@@D@__crt_stdio_output@@YAXABV?$stream_output_adapter@D@0@DHQAH@Z 10065330 f i libucrtd:output.obj
 0001:00064390       ??$write_multiple_characters@V?$stream_output_adapter@_W@__crt_stdio_output@@D@__crt_stdio_output@@YAXABV?$stream_output_adapter@_W@0@DHQAH@Z 10065390 f i libucrtd:output.obj
 0001:000643f0       ??$write_multiple_characters@V?$string_output_adapter@D@__crt_stdio_output@@D@__crt_stdio_output@@YAXABV?$string_output_adapter@D@0@DHQAH@Z 100653f0 f i libucrtd:output.obj
 0001:00064450       ??$write_multiple_characters@V?$string_output_adapter@_W@__crt_stdio_output@@D@__crt_stdio_output@@YAXABV?$string_output_adapter@_W@0@DHQAH@Z 10065450 f i libucrtd:output.obj
 0001:000648d0       ??0?$common_data@D@__crt_stdio_output@@IAE@XZ 100658d0 f i libucrtd:output.obj
 0001:000649a0       ??0?$common_data@_W@__crt_stdio_output@@IAE@XZ 100659a0 f i libucrtd:output.obj
 0001:00064a70       ??0?$output_adapter_data@DV?$stream_output_adapter@D@__crt_stdio_output@@@__crt_stdio_output@@IAE@ABV?$stream_output_adapter@D@1@_KQBDQAU__crt_locale_pointers@@QAD@Z 10065a70 f i libucrtd:output.obj
 0001:00064ae0       ??0?$output_adapter_data@DV?$string_output_adapter@D@__crt_stdio_output@@@__crt_stdio_output@@IAE@ABV?$string_output_adapter@D@1@_KQBDQAU__crt_locale_pointers@@QAD@Z 10065ae0 f i libucrtd:output.obj
 0001:00064b50       ??0?$output_adapter_data@_WV?$stream_output_adapter@_W@__crt_stdio_output@@@__crt_stdio_output@@IAE@ABV?$stream_output_adapter@_W@1@_KQB_WQAU__crt_locale_pointers@@QAD@Z 10065b50 f i libucrtd:output.obj
 0001:00064bc0       ??0?$output_adapter_data@_WV?$string_output_adapter@_W@__crt_stdio_output@@@__crt_stdio_output@@IAE@ABV?$string_output_adapter@_W@1@_KQB_WQAU__crt_locale_pointers@@QAD@Z 10065bc0 f i libucrtd:output.obj
 0001:00064c30       ??0?$output_processor@DV?$stream_output_adapter@D@__crt_stdio_output@@V?$format_validation_base@DV?$stream_output_adapter@D@__crt_stdio_output@@@2@@__crt_stdio_output@@QAE@ABV?$stream_output_adapter@D@1@_KQBDQAU__crt_locale_pointers@@QAD@Z 10065c30 f i libucrtd:output.obj
 0001:00064c80       ??0?$output_processor@DV?$stream_output_adapter@D@__crt_stdio_output@@V?$positional_parameter_base@DV?$stream_output_adapter@D@__crt_stdio_output@@@2@@__crt_stdio_output@@QAE@ABV?$stream_output_adapter@D@1@_KQBDQAU__crt_locale_pointers@@QAD@Z 10065c80 f i libucrtd:output.obj
 0001:00064cd0       ??0?$output_processor@DV?$stream_output_adapter@D@__crt_stdio_output@@V?$standard_base@DV?$stream_output_adapter@D@__crt_stdio_output@@@2@@__crt_stdio_output@@QAE@ABV?$stream_output_adapter@D@1@_KQBDQAU__crt_locale_pointers@@QAD@Z 10065cd0 f i libucrtd:output.obj
 0001:00064d20       ??0?$output_processor@DV?$string_output_adapter@D@__crt_stdio_output@@V?$format_validation_base@DV?$string_output_adapter@D@__crt_stdio_output@@@2@@__crt_stdio_output@@QAE@ABV?$string_output_adapter@D@1@_KQBDQAU__crt_locale_pointers@@QAD@Z 10065d20 f i libucrtd:output.obj
 0001:00064d70       ??0?$output_processor@DV?$string_output_adapter@D@__crt_stdio_output@@V?$positional_parameter_base@DV?$string_output_adapter@D@__crt_stdio_output@@@2@@__crt_stdio_output@@QAE@ABV?$string_output_adapter@D@1@_KQBDQAU__crt_locale_pointers@@QAD@Z 10065d70 f i libucrtd:output.obj
 0001:00064dc0       ??0?$output_processor@DV?$string_output_adapter@D@__crt_stdio_output@@V?$standard_base@DV?$string_output_adapter@D@__crt_stdio_output@@@2@@__crt_stdio_output@@QAE@ABV?$string_output_adapter@D@1@_KQBDQAU__crt_locale_pointers@@QAD@Z 10065dc0 f i libucrtd:output.obj
 0001:00064e10       ??0?$output_processor@_WV?$stream_output_adapter@_W@__crt_stdio_output@@V?$format_validation_base@_WV?$stream_output_adapter@_W@__crt_stdio_output@@@2@@__crt_stdio_output@@QAE@ABV?$stream_output_adapter@_W@1@_KQB_WQAU__crt_locale_pointers@@QAD@Z 10065e10 f i libucrtd:output.obj
 0001:00064e60       ??0?$output_processor@_WV?$stream_output_adapter@_W@__crt_stdio_output@@V?$positional_parameter_base@_WV?$stream_output_adapter@_W@__crt_stdio_output@@@2@@__crt_stdio_output@@QAE@ABV?$stream_output_adapter@_W@1@_KQB_WQAU__crt_locale_pointers@@QAD@Z 10065e60 f i libucrtd:output.obj
 0001:00064eb0       ??0?$output_processor@_WV?$stream_output_adapter@_W@__crt_stdio_output@@V?$standard_base@_WV?$stream_output_adapter@_W@__crt_stdio_output@@@2@@__crt_stdio_output@@QAE@ABV?$stream_output_adapter@_W@1@_KQB_WQAU__crt_locale_pointers@@QAD@Z 10065eb0 f i libucrtd:output.obj
 0001:00064f00       ??0?$output_processor@_WV?$string_output_adapter@_W@__crt_stdio_output@@V?$format_validation_base@_WV?$string_output_adapter@_W@__crt_stdio_output@@@2@@__crt_stdio_output@@QAE@ABV?$string_output_adapter@_W@1@_KQB_WQAU__crt_locale_pointers@@QAD@Z 10065f00 f i libucrtd:output.obj
 0001:00064f50       ??0?$output_processor@_WV?$string_output_adapter@_W@__crt_stdio_output@@V?$positional_parameter_base@_WV?$string_output_adapter@_W@__crt_stdio_output@@@2@@__crt_stdio_output@@QAE@ABV?$string_output_adapter@_W@1@_KQB_WQAU__crt_locale_pointers@@QAD@Z 10065f50 f i libucrtd:output.obj
 0001:00064fa0       ??0?$output_processor@_WV?$string_output_adapter@_W@__crt_stdio_output@@V?$standard_base@_WV?$string_output_adapter@_W@__crt_stdio_output@@@2@@__crt_stdio_output@@QAE@ABV?$string_output_adapter@_W@1@_KQB_WQAU__crt_locale_pointers@@QAD@Z 10065fa0 f i libucrtd:output.obj
 0001:00064ff0       ??0?$stream_output_adapter@D@__crt_stdio_output@@QAE@QAU_iobuf@@@Z 10065ff0 f i libucrtd:output.obj
 0001:00065020       ??0?$stream_output_adapter@_W@__crt_stdio_output@@QAE@QAU_iobuf@@@Z 10066020 f i libucrtd:output.obj
 0001:00065050       ??0?$string_output_adapter@D@__crt_stdio_output@@QAE@QAU?$string_output_adapter_context@D@1@@Z 10066050 f i libucrtd:output.obj
 0001:00065070       ??0?$string_output_adapter@_W@__crt_stdio_output@@QAE@QAU?$string_output_adapter_context@_W@1@@Z 10066070 f i libucrtd:output.obj
 0001:00065090       ??0__acrt_stdio_temporary_buffering_guard@@QAE@QAU_iobuf@@@Z 10066090 f i libucrtd:output.obj
 0001:000650d0       ??0__crt_errno_guard@@QAE@QAH@Z 100660d0 f i libucrtd:output.obj
 0001:00065110       ??0__crt_stdio_stream@@QAE@QAU_iobuf@@@Z 10066110 f i libucrtd:output.obj
 0001:00065130       ??0formatting_buffer@__crt_stdio_output@@QAE@XZ 10066130 f i libucrtd:output.obj
 0001:00065170       ??1?$common_data@D@__crt_stdio_output@@QAE@XZ 10066170 f i libucrtd:output.obj
 0001:00065190       ??1?$common_data@_W@__crt_stdio_output@@QAE@XZ 10066190 f i libucrtd:output.obj
 0001:000651b0       ??1?$format_validation_base@DV?$stream_output_adapter@D@__crt_stdio_output@@@__crt_stdio_output@@QAE@XZ 100661b0 f i libucrtd:output.obj
 0001:000651d0       ??1?$format_validation_base@DV?$string_output_adapter@D@__crt_stdio_output@@@__crt_stdio_output@@QAE@XZ 100661d0 f i libucrtd:output.obj
 0001:000651f0       ??1?$format_validation_base@_WV?$stream_output_adapter@_W@__crt_stdio_output@@@__crt_stdio_output@@QAE@XZ 100661f0 f i libucrtd:output.obj
 0001:00065210       ??1?$format_validation_base@_WV?$string_output_adapter@_W@__crt_stdio_output@@@__crt_stdio_output@@QAE@XZ 10066210 f i libucrtd:output.obj
 0001:00065230       ??1?$output_adapter_data@DV?$stream_output_adapter@D@__crt_stdio_output@@@__crt_stdio_output@@QAE@XZ 10066230 f i libucrtd:output.obj
 0001:00065250       ??1?$output_adapter_data@DV?$string_output_adapter@D@__crt_stdio_output@@@__crt_stdio_output@@QAE@XZ 10066250 f i libucrtd:output.obj
 0001:00065270       ??1?$output_adapter_data@_WV?$stream_output_adapter@_W@__crt_stdio_output@@@__crt_stdio_output@@QAE@XZ 10066270 f i libucrtd:output.obj
 0001:00065290       ??1?$output_adapter_data@_WV?$string_output_adapter@_W@__crt_stdio_output@@@__crt_stdio_output@@QAE@XZ 10066290 f i libucrtd:output.obj
 0001:000652b0       ??1?$output_processor@DV?$stream_output_adapter@D@__crt_stdio_output@@V?$format_validation_base@DV?$stream_output_adapter@D@__crt_stdio_output@@@2@@__crt_stdio_output@@QAE@XZ 100662b0 f i libucrtd:output.obj
 0001:000652d0       ??1?$output_processor@DV?$stream_output_adapter@D@__crt_stdio_output@@V?$positional_parameter_base@DV?$stream_output_adapter@D@__crt_stdio_output@@@2@@__crt_stdio_output@@QAE@XZ 100662d0 f i libucrtd:output.obj
 0001:000652f0       ??1?$output_processor@DV?$stream_output_adapter@D@__crt_stdio_output@@V?$standard_base@DV?$stream_output_adapter@D@__crt_stdio_output@@@2@@__crt_stdio_output@@QAE@XZ 100662f0 f i libucrtd:output.obj
 0001:00065310       ??1?$output_processor@DV?$string_output_adapter@D@__crt_stdio_output@@V?$format_validation_base@DV?$string_output_adapter@D@__crt_stdio_output@@@2@@__crt_stdio_output@@QAE@XZ 10066310 f i libucrtd:output.obj
 0001:00065330       ??1?$output_processor@DV?$string_output_adapter@D@__crt_stdio_output@@V?$positional_parameter_base@DV?$string_output_adapter@D@__crt_stdio_output@@@2@@__crt_stdio_output@@QAE@XZ 10066330 f i libucrtd:output.obj
 0001:00065350       ??1?$output_processor@DV?$string_output_adapter@D@__crt_stdio_output@@V?$standard_base@DV?$string_output_adapter@D@__crt_stdio_output@@@2@@__crt_stdio_output@@QAE@XZ 10066350 f i libucrtd:output.obj
 0001:00065370       ??1?$output_processor@_WV?$stream_output_adapter@_W@__crt_stdio_output@@V?$format_validation_base@_WV?$stream_output_adapter@_W@__crt_stdio_output@@@2@@__crt_stdio_output@@QAE@XZ 10066370 f i libucrtd:output.obj
 0001:00065390       ??1?$output_processor@_WV?$stream_output_adapter@_W@__crt_stdio_output@@V?$positional_parameter_base@_WV?$stream_output_adapter@_W@__crt_stdio_output@@@2@@__crt_stdio_output@@QAE@XZ 10066390 f i libucrtd:output.obj
 0001:000653b0       ??1?$output_processor@_WV?$stream_output_adapter@_W@__crt_stdio_output@@V?$standard_base@_WV?$stream_output_adapter@_W@__crt_stdio_output@@@2@@__crt_stdio_output@@QAE@XZ 100663b0 f i libucrtd:output.obj
 0001:000653d0       ??1?$output_processor@_WV?$string_output_adapter@_W@__crt_stdio_output@@V?$format_validation_base@_WV?$string_output_adapter@_W@__crt_stdio_output@@@2@@__crt_stdio_output@@QAE@XZ 100663d0 f i libucrtd:output.obj
 0001:000653f0       ??1?$output_processor@_WV?$string_output_adapter@_W@__crt_stdio_output@@V?$positional_parameter_base@_WV?$string_output_adapter@_W@__crt_stdio_output@@@2@@__crt_stdio_output@@QAE@XZ 100663f0 f i libucrtd:output.obj
 0001:00065410       ??1?$output_processor@_WV?$string_output_adapter@_W@__crt_stdio_output@@V?$standard_base@_WV?$string_output_adapter@_W@__crt_stdio_output@@@2@@__crt_stdio_output@@QAE@XZ 10066410 f i libucrtd:output.obj
 0001:00065430       ??1?$positional_parameter_base@DV?$stream_output_adapter@D@__crt_stdio_output@@@__crt_stdio_output@@QAE@XZ 10066430 f i libucrtd:output.obj
 0001:00065450       ??1?$positional_parameter_base@DV?$string_output_adapter@D@__crt_stdio_output@@@__crt_stdio_output@@QAE@XZ 10066450 f i libucrtd:output.obj
 0001:00065470       ??1?$positional_parameter_base@_WV?$stream_output_adapter@_W@__crt_stdio_output@@@__crt_stdio_output@@QAE@XZ 10066470 f i libucrtd:output.obj
 0001:00065490       ??1?$positional_parameter_base@_WV?$string_output_adapter@_W@__crt_stdio_output@@@__crt_stdio_output@@QAE@XZ 10066490 f i libucrtd:output.obj
 0001:000654b0       ??1?$standard_base@DV?$stream_output_adapter@D@__crt_stdio_output@@@__crt_stdio_output@@QAE@XZ 100664b0 f i libucrtd:output.obj
 0001:000654d0       ??1?$standard_base@DV?$string_output_adapter@D@__crt_stdio_output@@@__crt_stdio_output@@QAE@XZ 100664d0 f i libucrtd:output.obj
 0001:000654f0       ??1?$standard_base@_WV?$stream_output_adapter@_W@__crt_stdio_output@@@__crt_stdio_output@@QAE@XZ 100664f0 f i libucrtd:output.obj
 0001:00065510       ??1?$standard_base@_WV?$string_output_adapter@_W@__crt_stdio_output@@@__crt_stdio_output@@QAE@XZ 10066510 f i libucrtd:output.obj
 0001:00065530       ??1__acrt_stdio_temporary_buffering_guard@@QAE@XZ 10066530 f i libucrtd:output.obj
 0001:00065560       ??1__crt_errno_guard@@QAE@XZ 10066560 f i libucrtd:output.obj
 0001:000655a0       ??1formatting_buffer@__crt_stdio_output@@QAE@XZ 100665a0 f i libucrtd:output.obj
 0001:000655d0       ??4?$__crt_unique_heap_ptr@DU__crt_internal_free_policy@@@@QAEAAV0@$$QAV0@@Z 100665d0 f i libucrtd:output.obj
 0001:00065610       ??C__crt_stdio_stream@@QBEPAU__crt_stdio_stream_data@@XZ 10066610 f i libucrtd:output.obj
 0001:00065f30       ?adjust_hexit@?$output_processor@DV?$stream_output_adapter@D@__crt_stdio_output@@V?$format_validation_base@DV?$stream_output_adapter@D@__crt_stdio_output@@@2@@__crt_stdio_output@@CADH_N@Z 10066f30 f i libucrtd:output.obj
 0001:00065f80       ?adjust_hexit@?$output_processor@DV?$stream_output_adapter@D@__crt_stdio_output@@V?$positional_parameter_base@DV?$stream_output_adapter@D@__crt_stdio_output@@@2@@__crt_stdio_output@@CADH_N@Z 10066f80 f i libucrtd:output.obj
 0001:00065fd0       ?adjust_hexit@?$output_processor@DV?$stream_output_adapter@D@__crt_stdio_output@@V?$standard_base@DV?$stream_output_adapter@D@__crt_stdio_output@@@2@@__crt_stdio_output@@CADH_N@Z 10066fd0 f i libucrtd:output.obj
 0001:00066020       ?adjust_hexit@?$output_processor@DV?$string_output_adapter@D@__crt_stdio_output@@V?$format_validation_base@DV?$string_output_adapter@D@__crt_stdio_output@@@2@@__crt_stdio_output@@CADH_N@Z 10067020 f i libucrtd:output.obj
 0001:00066070       ?adjust_hexit@?$output_processor@DV?$string_output_adapter@D@__crt_stdio_output@@V?$positional_parameter_base@DV?$string_output_adapter@D@__crt_stdio_output@@@2@@__crt_stdio_output@@CADH_N@Z 10067070 f i libucrtd:output.obj
 0001:000660c0       ?adjust_hexit@?$output_processor@DV?$string_output_adapter@D@__crt_stdio_output@@V?$standard_base@DV?$string_output_adapter@D@__crt_stdio_output@@@2@@__crt_stdio_output@@CADH_N@Z 100670c0 f i libucrtd:output.obj
 0001:00066110       ?adjust_hexit@?$output_processor@_WV?$stream_output_adapter@_W@__crt_stdio_output@@V?$format_validation_base@_WV?$stream_output_adapter@_W@__crt_stdio_output@@@2@@__crt_stdio_output@@CADH_N@Z 10067110 f i libucrtd:output.obj
 0001:00066160       ?adjust_hexit@?$output_processor@_WV?$stream_output_adapter@_W@__crt_stdio_output@@V?$positional_parameter_base@_WV?$stream_output_adapter@_W@__crt_stdio_output@@@2@@__crt_stdio_output@@CADH_N@Z 10067160 f i libucrtd:output.obj
 0001:000661b0       ?adjust_hexit@?$output_processor@_WV?$stream_output_adapter@_W@__crt_stdio_output@@V?$standard_base@_WV?$stream_output_adapter@_W@__crt_stdio_output@@@2@@__crt_stdio_output@@CADH_N@Z 100671b0 f i libucrtd:output.obj
 0001:00066200       ?adjust_hexit@?$output_processor@_WV?$string_output_adapter@_W@__crt_stdio_output@@V?$format_validation_base@_WV?$string_output_adapter@_W@__crt_stdio_output@@@2@@__crt_stdio_output@@CADH_N@Z 10067200 f i libucrtd:output.obj
 0001:00066250       ?adjust_hexit@?$output_processor@_WV?$string_output_adapter@_W@__crt_stdio_output@@V?$positional_parameter_base@_WV?$string_output_adapter@_W@__crt_stdio_output@@@2@@__crt_stdio_output@@CADH_N@Z 10067250 f i libucrtd:output.obj
 0001:000662a0       ?adjust_hexit@?$output_processor@_WV?$string_output_adapter@_W@__crt_stdio_output@@V?$standard_base@_WV?$string_output_adapter@_W@__crt_stdio_output@@@2@@__crt_stdio_output@@CADH_N@Z 100672a0 f i libucrtd:output.obj
 0001:000662f0       ?advance_to_next_pass@?$positional_parameter_base@DV?$stream_output_adapter@D@__crt_stdio_output@@@__crt_stdio_output@@IAE_NXZ 100672f0 f i libucrtd:output.obj
 0001:000663b0       ?advance_to_next_pass@?$positional_parameter_base@DV?$string_output_adapter@D@__crt_stdio_output@@@__crt_stdio_output@@IAE_NXZ 100673b0 f i libucrtd:output.obj
 0001:00066470       ?advance_to_next_pass@?$positional_parameter_base@_WV?$stream_output_adapter@_W@__crt_stdio_output@@@__crt_stdio_output@@IAE_NXZ 10067470 f i libucrtd:output.obj
 0001:00066530       ?advance_to_next_pass@?$positional_parameter_base@_WV?$string_output_adapter@_W@__crt_stdio_output@@@__crt_stdio_output@@IAE_NXZ 10067530 f i libucrtd:output.obj
 0001:000665f0       ?advance_to_next_pass@?$standard_base@DV?$stream_output_adapter@D@__crt_stdio_output@@@__crt_stdio_output@@IAE_NXZ 100675f0 f i libucrtd:output.obj
 0001:00066650       ?advance_to_next_pass@?$standard_base@DV?$string_output_adapter@D@__crt_stdio_output@@@__crt_stdio_output@@IAE_NXZ 10067650 f i libucrtd:output.obj
 0001:000666b0       ?advance_to_next_pass@?$standard_base@_WV?$stream_output_adapter@_W@__crt_stdio_output@@@__crt_stdio_output@@IAE_NXZ 100676b0 f i libucrtd:output.obj
 0001:00066710       ?advance_to_next_pass@?$standard_base@_WV?$string_output_adapter@_W@__crt_stdio_output@@@__crt_stdio_output@@IAE_NXZ 10067710 f i libucrtd:output.obj
 0001:00066770       ?crop_zeroes@__crt_stdio_output@@YAXPADQAU__crt_locale_pointers@@@Z 10067770 f i libucrtd:output.obj
 0001:000668a0       ?find_next_state@?$output_processor@DV?$stream_output_adapter@D@__crt_stdio_output@@V?$format_validation_base@DV?$stream_output_adapter@D@__crt_stdio_output@@@2@@__crt_stdio_output@@ABE?AW4state@2@DW432@@Z 100678a0 f i libucrtd:output.obj
 0001:00066930       ?find_next_state@?$output_processor@DV?$stream_output_adapter@D@__crt_stdio_output@@V?$positional_parameter_base@DV?$stream_output_adapter@D@__crt_stdio_output@@@2@@__crt_stdio_output@@ABE?AW4state@2@DW432@@Z 10067930 f i libucrtd:output.obj
 0001:000669c0       ?find_next_state@?$output_processor@DV?$stream_output_adapter@D@__crt_stdio_output@@V?$standard_base@DV?$stream_output_adapter@D@__crt_stdio_output@@@2@@__crt_stdio_output@@ABE?AW4state@2@DW432@@Z 100679c0 f i libucrtd:output.obj
 0001:00066a50       ?find_next_state@?$output_processor@DV?$string_output_adapter@D@__crt_stdio_output@@V?$format_validation_base@DV?$string_output_adapter@D@__crt_stdio_output@@@2@@__crt_stdio_output@@ABE?AW4state@2@DW432@@Z 10067a50 f i libucrtd:output.obj
 0001:00066ae0       ?find_next_state@?$output_processor@DV?$string_output_adapter@D@__crt_stdio_output@@V?$positional_parameter_base@DV?$string_output_adapter@D@__crt_stdio_output@@@2@@__crt_stdio_output@@ABE?AW4state@2@DW432@@Z 10067ae0 f i libucrtd:output.obj
 0001:00066b70       ?find_next_state@?$output_processor@DV?$string_output_adapter@D@__crt_stdio_output@@V?$standard_base@DV?$string_output_adapter@D@__crt_stdio_output@@@2@@__crt_stdio_output@@ABE?AW4state@2@DW432@@Z 10067b70 f i libucrtd:output.obj
 0001:00066c00       ?find_next_state@?$output_processor@_WV?$stream_output_adapter@_W@__crt_stdio_output@@V?$format_validation_base@_WV?$stream_output_adapter@_W@__crt_stdio_output@@@2@@__crt_stdio_output@@ABE?AW4state@2@_WW432@@Z 10067c00 f i libucrtd:output.obj
 0001:00066c90       ?find_next_state@?$output_processor@_WV?$stream_output_adapter@_W@__crt_stdio_output@@V?$positional_parameter_base@_WV?$stream_output_adapter@_W@__crt_stdio_output@@@2@@__crt_stdio_output@@ABE?AW4state@2@_WW432@@Z 10067c90 f i libucrtd:output.obj
 0001:00066d20       ?find_next_state@?$output_processor@_WV?$stream_output_adapter@_W@__crt_stdio_output@@V?$standard_base@_WV?$stream_output_adapter@_W@__crt_stdio_output@@@2@@__crt_stdio_output@@ABE?AW4state@2@_WW432@@Z 10067d20 f i libucrtd:output.obj
 0001:00066db0       ?find_next_state@?$output_processor@_WV?$string_output_adapter@_W@__crt_stdio_output@@V?$format_validation_base@_WV?$string_output_adapter@_W@__crt_stdio_output@@@2@@__crt_stdio_output@@ABE?AW4state@2@_WW432@@Z 10067db0 f i libucrtd:output.obj
 0001:00066e40       ?find_next_state@?$output_processor@_WV?$string_output_adapter@_W@__crt_stdio_output@@V?$positional_parameter_base@_WV?$string_output_adapter@_W@__crt_stdio_output@@@2@@__crt_stdio_output@@ABE?AW4state@2@_WW432@@Z 10067e40 f i libucrtd:output.obj
 0001:00066ed0       ?find_next_state@?$output_processor@_WV?$string_output_adapter@_W@__crt_stdio_output@@V?$standard_base@_WV?$string_output_adapter@_W@__crt_stdio_output@@@2@@__crt_stdio_output@@ABE?AW4state@2@_WW432@@Z 10067ed0 f i libucrtd:output.obj
 0001:00066f60       ?force_decimal_point@__crt_stdio_output@@YAXPADQAU__crt_locale_pointers@@@Z 10067f60 f i libucrtd:output.obj
 0001:00067040       ?get_flags@__crt_stdio_stream@@QBEJXZ 10068040 f i libucrtd:output.obj
 0001:00067070       ?get_parameter_type@?$positional_parameter_base@DV?$stream_output_adapter@D@__crt_stdio_output@@@__crt_stdio_output@@CA?AW4parameter_type@12@F@Z 10068070 f i libucrtd:output.obj
 0001:00067080       ?get_parameter_type@?$positional_parameter_base@DV?$stream_output_adapter@D@__crt_stdio_output@@@__crt_stdio_output@@CA?AW4parameter_type@12@G@Z 10068080 f i libucrtd:output.obj
 0001:00067090       ?get_parameter_type@?$positional_parameter_base@DV?$stream_output_adapter@D@__crt_stdio_output@@@__crt_stdio_output@@CA?AW4parameter_type@12@H@Z 10068090 f i libucrtd:output.obj
 0001:000670a0       ?get_parameter_type@?$positional_parameter_base@DV?$stream_output_adapter@D@__crt_stdio_output@@@__crt_stdio_output@@CA?AW4parameter_type@12@I@Z 100680a0 f i libucrtd:output.obj
 0001:000670b0       ?get_parameter_type@?$positional_parameter_base@DV?$stream_output_adapter@D@__crt_stdio_output@@@__crt_stdio_output@@CA?AW4parameter_type@12@U_CRT_DOUBLE@@@Z 100680b0 f i libucrtd:output.obj
 0001:000670c0       ?get_parameter_type@?$positional_parameter_base@DV?$stream_output_adapter@D@__crt_stdio_output@@@__crt_stdio_output@@CA?AW4parameter_type@12@_J@Z 100680c0 f i libucrtd:output.obj
 0001:000670d0       ?get_parameter_type@?$positional_parameter_base@DV?$stream_output_adapter@D@__crt_stdio_output@@@__crt_stdio_output@@CA?AW4parameter_type@12@_K@Z 100680d0 f i libucrtd:output.obj
 0001:000670e0       ?get_parameter_type@?$positional_parameter_base@DV?$stream_output_adapter@D@__crt_stdio_output@@@__crt_stdio_output@@CA?AW4parameter_type@12@_W@Z 100680e0 f i libucrtd:output.obj
 0001:000670f0       ?get_parameter_type@?$positional_parameter_base@DV?$string_output_adapter@D@__crt_stdio_output@@@__crt_stdio_output@@CA?AW4parameter_type@12@F@Z 100680f0 f i libucrtd:output.obj
 0001:00067100       ?get_parameter_type@?$positional_parameter_base@DV?$string_output_adapter@D@__crt_stdio_output@@@__crt_stdio_output@@CA?AW4parameter_type@12@G@Z 10068100 f i libucrtd:output.obj
 0001:00067110       ?get_parameter_type@?$positional_parameter_base@DV?$string_output_adapter@D@__crt_stdio_output@@@__crt_stdio_output@@CA?AW4parameter_type@12@H@Z 10068110 f i libucrtd:output.obj
 0001:00067120       ?get_parameter_type@?$positional_parameter_base@DV?$string_output_adapter@D@__crt_stdio_output@@@__crt_stdio_output@@CA?AW4parameter_type@12@I@Z 10068120 f i libucrtd:output.obj
 0001:00067130       ?get_parameter_type@?$positional_parameter_base@DV?$string_output_adapter@D@__crt_stdio_output@@@__crt_stdio_output@@CA?AW4parameter_type@12@U_CRT_DOUBLE@@@Z 10068130 f i libucrtd:output.obj
 0001:00067140       ?get_parameter_type@?$positional_parameter_base@DV?$string_output_adapter@D@__crt_stdio_output@@@__crt_stdio_output@@CA?AW4parameter_type@12@_J@Z 10068140 f i libucrtd:output.obj
 0001:00067150       ?get_parameter_type@?$positional_parameter_base@DV?$string_output_adapter@D@__crt_stdio_output@@@__crt_stdio_output@@CA?AW4parameter_type@12@_K@Z 10068150 f i libucrtd:output.obj
 0001:00067160       ?get_parameter_type@?$positional_parameter_base@DV?$string_output_adapter@D@__crt_stdio_output@@@__crt_stdio_output@@CA?AW4parameter_type@12@_W@Z 10068160 f i libucrtd:output.obj
 0001:00067170       ?get_parameter_type@?$positional_parameter_base@_WV?$stream_output_adapter@_W@__crt_stdio_output@@@__crt_stdio_output@@CA?AW4parameter_type@12@F@Z 10068170 f i libucrtd:output.obj
 0001:00067180       ?get_parameter_type@?$positional_parameter_base@_WV?$stream_output_adapter@_W@__crt_stdio_output@@@__crt_stdio_output@@CA?AW4parameter_type@12@G@Z 10068180 f i libucrtd:output.obj
 0001:00067190       ?get_parameter_type@?$positional_parameter_base@_WV?$stream_output_adapter@_W@__crt_stdio_output@@@__crt_stdio_output@@CA?AW4parameter_type@12@H@Z 10068190 f i libucrtd:output.obj
 0001:000671a0       ?get_parameter_type@?$positional_parameter_base@_WV?$stream_output_adapter@_W@__crt_stdio_output@@@__crt_stdio_output@@CA?AW4parameter_type@12@I@Z 100681a0 f i libucrtd:output.obj
 0001:000671b0       ?get_parameter_type@?$positional_parameter_base@_WV?$stream_output_adapter@_W@__crt_stdio_output@@@__crt_stdio_output@@CA?AW4parameter_type@12@U_CRT_DOUBLE@@@Z 100681b0 f i libucrtd:output.obj
 0001:000671c0       ?get_parameter_type@?$positional_parameter_base@_WV?$stream_output_adapter@_W@__crt_stdio_output@@@__crt_stdio_output@@CA?AW4parameter_type@12@_J@Z 100681c0 f i libucrtd:output.obj
 0001:000671d0       ?get_parameter_type@?$positional_parameter_base@_WV?$stream_output_adapter@_W@__crt_stdio_output@@@__crt_stdio_output@@CA?AW4parameter_type@12@_K@Z 100681d0 f i libucrtd:output.obj
 0001:000671e0       ?get_parameter_type@?$positional_parameter_base@_WV?$stream_output_adapter@_W@__crt_stdio_output@@@__crt_stdio_output@@CA?AW4parameter_type@12@_W@Z 100681e0 f i libucrtd:output.obj
 0001:000671f0       ?get_parameter_type@?$positional_parameter_base@_WV?$string_output_adapter@_W@__crt_stdio_output@@@__crt_stdio_output@@CA?AW4parameter_type@12@F@Z 100681f0 f i libucrtd:output.obj
 0001:00067200       ?get_parameter_type@?$positional_parameter_base@_WV?$string_output_adapter@_W@__crt_stdio_output@@@__crt_stdio_output@@CA?AW4parameter_type@12@G@Z 10068200 f i libucrtd:output.obj
 0001:00067210       ?get_parameter_type@?$positional_parameter_base@_WV?$string_output_adapter@_W@__crt_stdio_output@@@__crt_stdio_output@@CA?AW4parameter_type@12@H@Z 10068210 f i libucrtd:output.obj
 0001:00067220       ?get_parameter_type@?$positional_parameter_base@_WV?$string_output_adapter@_W@__crt_stdio_output@@@__crt_stdio_output@@CA?AW4parameter_type@12@I@Z 10068220 f i libucrtd:output.obj
 0001:00067230       ?get_parameter_type@?$positional_parameter_base@_WV?$string_output_adapter@_W@__crt_stdio_output@@@__crt_stdio_output@@CA?AW4parameter_type@12@U_CRT_DOUBLE@@@Z 10068230 f i libucrtd:output.obj
 0001:00067240       ?get_parameter_type@?$positional_parameter_base@_WV?$string_output_adapter@_W@__crt_stdio_output@@@__crt_stdio_output@@CA?AW4parameter_type@12@_J@Z 10068240 f i libucrtd:output.obj
 0001:00067250       ?get_parameter_type@?$positional_parameter_base@_WV?$string_output_adapter@_W@__crt_stdio_output@@@__crt_stdio_output@@CA?AW4parameter_type@12@_K@Z 10068250 f i libucrtd:output.obj
 0001:00067260       ?get_parameter_type@?$positional_parameter_base@_WV?$string_output_adapter@_W@__crt_stdio_output@@@__crt_stdio_output@@CA?AW4parameter_type@12@_W@Z 10068260 f i libucrtd:output.obj
 0001:00067270       ?has_flag@?$output_processor@DV?$stream_output_adapter@D@__crt_stdio_output@@V?$format_validation_base@DV?$stream_output_adapter@D@__crt_stdio_output@@@2@@__crt_stdio_output@@ABE_NI@Z 10068270 f i libucrtd:output.obj
 0001:000672b0       ?has_flag@?$output_processor@DV?$stream_output_adapter@D@__crt_stdio_output@@V?$positional_parameter_base@DV?$stream_output_adapter@D@__crt_stdio_output@@@2@@__crt_stdio_output@@ABE_NI@Z 100682b0 f i libucrtd:output.obj
 0001:000672f0       ?has_flag@?$output_processor@DV?$stream_output_adapter@D@__crt_stdio_output@@V?$standard_base@DV?$stream_output_adapter@D@__crt_stdio_output@@@2@@__crt_stdio_output@@ABE_NI@Z 100682f0 f i libucrtd:output.obj
 0001:00067330       ?has_flag@?$output_processor@DV?$string_output_adapter@D@__crt_stdio_output@@V?$format_validation_base@DV?$string_output_adapter@D@__crt_stdio_output@@@2@@__crt_stdio_output@@ABE_NI@Z 10068330 f i libucrtd:output.obj
 0001:00067370       ?has_flag@?$output_processor@DV?$string_output_adapter@D@__crt_stdio_output@@V?$positional_parameter_base@DV?$string_output_adapter@D@__crt_stdio_output@@@2@@__crt_stdio_output@@ABE_NI@Z 10068370 f i libucrtd:output.obj
 0001:000673b0       ?has_flag@?$output_processor@DV?$string_output_adapter@D@__crt_stdio_output@@V?$standard_base@DV?$string_output_adapter@D@__crt_stdio_output@@@2@@__crt_stdio_output@@ABE_NI@Z 100683b0 f i libucrtd:output.obj
 0001:000673f0       ?has_flag@?$output_processor@_WV?$stream_output_adapter@_W@__crt_stdio_output@@V?$format_validation_base@_WV?$stream_output_adapter@_W@__crt_stdio_output@@@2@@__crt_stdio_output@@ABE_NI@Z 100683f0 f i libucrtd:output.obj
 0001:00067430       ?has_flag@?$output_processor@_WV?$stream_output_adapter@_W@__crt_stdio_output@@V?$positional_parameter_base@_WV?$stream_output_adapter@_W@__crt_stdio_output@@@2@@__crt_stdio_output@@ABE_NI@Z 10068430 f i libucrtd:output.obj
 0001:00067470       ?has_flag@?$output_processor@_WV?$stream_output_adapter@_W@__crt_stdio_output@@V?$standard_base@_WV?$stream_output_adapter@_W@__crt_stdio_output@@@2@@__crt_stdio_output@@ABE_NI@Z 10068470 f i libucrtd:output.obj
 0001:000674b0       ?has_flag@?$output_processor@_WV?$string_output_adapter@_W@__crt_stdio_output@@V?$format_validation_base@_WV?$string_output_adapter@_W@__crt_stdio_output@@@2@@__crt_stdio_output@@ABE_NI@Z 100684b0 f i libucrtd:output.obj
 0001:000674f0       ?has_flag@?$output_processor@_WV?$string_output_adapter@_W@__crt_stdio_output@@V?$positional_parameter_base@_WV?$string_output_adapter@_W@__crt_stdio_output@@@2@@__crt_stdio_output@@ABE_NI@Z 100684f0 f i libucrtd:output.obj
 0001:00067530       ?has_flag@?$output_processor@_WV?$string_output_adapter@_W@__crt_stdio_output@@V?$standard_base@_WV?$string_output_adapter@_W@__crt_stdio_output@@@2@@__crt_stdio_output@@ABE_NI@Z 10068530 f i libucrtd:output.obj
 0001:00067570       ?is_positional_parameter_reappearance_consistent@?$positional_parameter_base@DV?$stream_output_adapter@D@__crt_stdio_output@@@__crt_stdio_output@@AAE_NABUparameter_data@12@W4parameter_type@12@DW4length_modifier@2@@Z 10068570 f i libucrtd:output.obj
 0001:00067820       ?is_positional_parameter_reappearance_consistent@?$positional_parameter_base@DV?$string_output_adapter@D@__crt_stdio_output@@@__crt_stdio_output@@AAE_NABUparameter_data@12@W4parameter_type@12@DW4length_modifier@2@@Z 10068820 f i libucrtd:output.obj
 0001:00067ad0       ?is_positional_parameter_reappearance_consistent@?$positional_parameter_base@_WV?$stream_output_adapter@_W@__crt_stdio_output@@@__crt_stdio_output@@AAE_NABUparameter_data@12@W4parameter_type@12@_WW4length_modifier@2@@Z 10068ad0 f i libucrtd:output.obj
 0001:00067d80       ?is_positional_parameter_reappearance_consistent@?$positional_parameter_base@_WV?$string_output_adapter@_W@__crt_stdio_output@@@__crt_stdio_output@@AAE_NABUparameter_data@12@W4parameter_type@12@_WW4length_modifier@2@@Z 10068d80 f i libucrtd:output.obj
 0001:00068030       ?is_string_backed@__crt_stdio_stream@@QBE_NXZ 10069030 f i libucrtd:output.obj
 0001:00068070       ?narrow_null_string@?$output_processor@DV?$stream_output_adapter@D@__crt_stdio_output@@V?$format_validation_base@DV?$stream_output_adapter@D@__crt_stdio_output@@@2@@__crt_stdio_output@@CAPADXZ 10069070 f i libucrtd:output.obj
 0001:00068080       ?narrow_null_string@?$output_processor@DV?$stream_output_adapter@D@__crt_stdio_output@@V?$positional_parameter_base@DV?$stream_output_adapter@D@__crt_stdio_output@@@2@@__crt_stdio_output@@CAPADXZ 10069080 f i libucrtd:output.obj
 0001:00068090       ?narrow_null_string@?$output_processor@DV?$stream_output_adapter@D@__crt_stdio_output@@V?$standard_base@DV?$stream_output_adapter@D@__crt_stdio_output@@@2@@__crt_stdio_output@@CAPADXZ 10069090 f i libucrtd:output.obj
 0001:000680a0       ?narrow_null_string@?$output_processor@DV?$string_output_adapter@D@__crt_stdio_output@@V?$format_validation_base@DV?$string_output_adapter@D@__crt_stdio_output@@@2@@__crt_stdio_output@@CAPADXZ 100690a0 f i libucrtd:output.obj
 0001:000680b0       ?narrow_null_string@?$output_processor@DV?$string_output_adapter@D@__crt_stdio_output@@V?$positional_parameter_base@DV?$string_output_adapter@D@__crt_stdio_output@@@2@@__crt_stdio_output@@CAPADXZ 100690b0 f i libucrtd:output.obj
 0001:000680c0       ?narrow_null_string@?$output_processor@DV?$string_output_adapter@D@__crt_stdio_output@@V?$standard_base@DV?$string_output_adapter@D@__crt_stdio_output@@@2@@__crt_stdio_output@@CAPADXZ 100690c0 f i libucrtd:output.obj
 0001:000680d0       ?narrow_null_string@?$output_processor@_WV?$stream_output_adapter@_W@__crt_stdio_output@@V?$format_validation_base@_WV?$stream_output_adapter@_W@__crt_stdio_output@@@2@@__crt_stdio_output@@CAPADXZ 100690d0 f i libucrtd:output.obj
 0001:000680e0       ?narrow_null_string@?$output_processor@_WV?$stream_output_adapter@_W@__crt_stdio_output@@V?$positional_parameter_base@_WV?$stream_output_adapter@_W@__crt_stdio_output@@@2@@__crt_stdio_output@@CAPADXZ 100690e0 f i libucrtd:output.obj
 0001:000680f0       ?narrow_null_string@?$output_processor@_WV?$stream_output_adapter@_W@__crt_stdio_output@@V?$standard_base@_WV?$stream_output_adapter@_W@__crt_stdio_output@@@2@@__crt_stdio_output@@CAPADXZ 100690f0 f i libucrtd:output.obj
 0001:00068100       ?narrow_null_string@?$output_processor@_WV?$string_output_adapter@_W@__crt_stdio_output@@V?$format_validation_base@_WV?$string_output_adapter@_W@__crt_stdio_output@@@2@@__crt_stdio_output@@CAPADXZ 10069100 f i libucrtd:output.obj
 0001:00068110       ?narrow_null_string@?$output_processor@_WV?$string_output_adapter@_W@__crt_stdio_output@@V?$positional_parameter_base@_WV?$string_output_adapter@_W@__crt_stdio_output@@@2@@__crt_stdio_output@@CAPADXZ 10069110 f i libucrtd:output.obj
 0001:00068120       ?narrow_null_string@?$output_processor@_WV?$string_output_adapter@_W@__crt_stdio_output@@V?$standard_base@_WV?$string_output_adapter@_W@__crt_stdio_output@@@2@@__crt_stdio_output@@CAPADXZ 10069120 f i libucrtd:output.obj
 0001:00068130       ?parse_int_from_format_string@?$output_processor@DV?$stream_output_adapter@D@__crt_stdio_output@@V?$format_validation_base@DV?$stream_output_adapter@D@__crt_stdio_output@@@2@@__crt_stdio_output@@AAE_NQAH@Z 10069130 f i libucrtd:output.obj
 0001:00068210       ?parse_int_from_format_string@?$output_processor@DV?$stream_output_adapter@D@__crt_stdio_output@@V?$positional_parameter_base@DV?$stream_output_adapter@D@__crt_stdio_output@@@2@@__crt_stdio_output@@AAE_NQAH@Z 10069210 f i libucrtd:output.obj
 0001:000682f0       ?parse_int_from_format_string@?$output_processor@DV?$stream_output_adapter@D@__crt_stdio_output@@V?$standard_base@DV?$stream_output_adapter@D@__crt_stdio_output@@@2@@__crt_stdio_output@@AAE_NQAH@Z 100692f0 f i libucrtd:output.obj
 0001:000683d0       ?parse_int_from_format_string@?$output_processor@DV?$string_output_adapter@D@__crt_stdio_output@@V?$format_validation_base@DV?$string_output_adapter@D@__crt_stdio_output@@@2@@__crt_stdio_output@@AAE_NQAH@Z 100693d0 f i libucrtd:output.obj
 0001:000684b0       ?parse_int_from_format_string@?$output_processor@DV?$string_output_adapter@D@__crt_stdio_output@@V?$positional_parameter_base@DV?$string_output_adapter@D@__crt_stdio_output@@@2@@__crt_stdio_output@@AAE_NQAH@Z 100694b0 f i libucrtd:output.obj
 0001:00068590       ?parse_int_from_format_string@?$output_processor@DV?$string_output_adapter@D@__crt_stdio_output@@V?$standard_base@DV?$string_output_adapter@D@__crt_stdio_output@@@2@@__crt_stdio_output@@AAE_NQAH@Z 10069590 f i libucrtd:output.obj
 0001:00068670       ?parse_int_from_format_string@?$output_processor@_WV?$stream_output_adapter@_W@__crt_stdio_output@@V?$format_validation_base@_WV?$stream_output_adapter@_W@__crt_stdio_output@@@2@@__crt_stdio_output@@AAE_NQAH@Z 10069670 f i libucrtd:output.obj
 0001:00068750       ?parse_int_from_format_string@?$output_processor@_WV?$stream_output_adapter@_W@__crt_stdio_output@@V?$positional_parameter_base@_WV?$stream_output_adapter@_W@__crt_stdio_output@@@2@@__crt_stdio_output@@AAE_NQAH@Z 10069750 f i libucrtd:output.obj
 0001:00068830       ?parse_int_from_format_string@?$output_processor@_WV?$stream_output_adapter@_W@__crt_stdio_output@@V?$standard_base@_WV?$stream_output_adapter@_W@__crt_stdio_output@@@2@@__crt_stdio_output@@AAE_NQAH@Z 10069830 f i libucrtd:output.obj
 0001:00068910       ?parse_int_from_format_string@?$output_processor@_WV?$string_output_adapter@_W@__crt_stdio_output@@V?$format_validation_base@_WV?$string_output_adapter@_W@__crt_stdio_output@@@2@@__crt_stdio_output@@AAE_NQAH@Z 10069910 f i libucrtd:output.obj
 0001:000689f0       ?parse_int_from_format_string@?$output_processor@_WV?$string_output_adapter@_W@__crt_stdio_output@@V?$positional_parameter_base@_WV?$string_output_adapter@_W@__crt_stdio_output@@@2@@__crt_stdio_output@@AAE_NQAH@Z 100699f0 f i libucrtd:output.obj
 0001:00068ad0       ?parse_int_from_format_string@?$output_processor@_WV?$string_output_adapter@_W@__crt_stdio_output@@V?$standard_base@_WV?$string_output_adapter@_W@__crt_stdio_output@@@2@@__crt_stdio_output@@AAE_NQAH@Z 10069ad0 f i libucrtd:output.obj
 0001:00068bb0       ?process@?$output_processor@DV?$stream_output_adapter@D@__crt_stdio_output@@V?$format_validation_base@DV?$stream_output_adapter@D@__crt_stdio_output@@@2@@__crt_stdio_output@@QAEHXZ 10069bb0 f i libucrtd:output.obj
 0001:00068f00       ?process@?$output_processor@DV?$stream_output_adapter@D@__crt_stdio_output@@V?$positional_parameter_base@DV?$stream_output_adapter@D@__crt_stdio_output@@@2@@__crt_stdio_output@@QAEHXZ 10069f00 f i libucrtd:output.obj
 0001:00069250       ?process@?$output_processor@DV?$stream_output_adapter@D@__crt_stdio_output@@V?$standard_base@DV?$stream_output_adapter@D@__crt_stdio_output@@@2@@__crt_stdio_output@@QAEHXZ 1006a250 f i libucrtd:output.obj
 0001:000695a0       ?process@?$output_processor@DV?$string_output_adapter@D@__crt_stdio_output@@V?$format_validation_base@DV?$string_output_adapter@D@__crt_stdio_output@@@2@@__crt_stdio_output@@QAEHXZ 1006a5a0 f i libucrtd:output.obj
 0001:000698f0       ?process@?$output_processor@DV?$string_output_adapter@D@__crt_stdio_output@@V?$positional_parameter_base@DV?$string_output_adapter@D@__crt_stdio_output@@@2@@__crt_stdio_output@@QAEHXZ 1006a8f0 f i libucrtd:output.obj
 0001:00069c40       ?process@?$output_processor@DV?$string_output_adapter@D@__crt_stdio_output@@V?$standard_base@DV?$string_output_adapter@D@__crt_stdio_output@@@2@@__crt_stdio_output@@QAEHXZ 1006ac40 f i libucrtd:output.obj
 0001:00069f90       ?process@?$output_processor@_WV?$stream_output_adapter@_W@__crt_stdio_output@@V?$format_validation_base@_WV?$stream_output_adapter@_W@__crt_stdio_output@@@2@@__crt_stdio_output@@QAEHXZ 1006af90 f i libucrtd:output.obj
 0001:0006a2e0       ?process@?$output_processor@_WV?$stream_output_adapter@_W@__crt_stdio_output@@V?$positional_parameter_base@_WV?$stream_output_adapter@_W@__crt_stdio_output@@@2@@__crt_stdio_output@@QAEHXZ 1006b2e0 f i libucrtd:output.obj
 0001:0006a630       ?process@?$output_processor@_WV?$stream_output_adapter@_W@__crt_stdio_output@@V?$standard_base@_WV?$stream_output_adapter@_W@__crt_stdio_output@@@2@@__crt_stdio_output@@QAEHXZ 1006b630 f i libucrtd:output.obj
 0001:0006a980       ?process@?$output_processor@_WV?$string_output_adapter@_W@__crt_stdio_output@@V?$format_validation_base@_WV?$string_output_adapter@_W@__crt_stdio_output@@@2@@__crt_stdio_output@@QAEHXZ 1006b980 f i libucrtd:output.obj
 0001:0006acd0       ?process@?$output_processor@_WV?$string_output_adapter@_W@__crt_stdio_output@@V?$positional_parameter_base@_WV?$string_output_adapter@_W@__crt_stdio_output@@@2@@__crt_stdio_output@@QAEHXZ 1006bcd0 f i libucrtd:output.obj
 0001:0006b020       ?process@?$output_processor@_WV?$string_output_adapter@_W@__crt_stdio_output@@V?$standard_base@_WV?$string_output_adapter@_W@__crt_stdio_output@@@2@@__crt_stdio_output@@QAEHXZ 1006c020 f i libucrtd:output.obj
 0001:0006b370       ?public_stream@__crt_stdio_stream@@QBEPAU_iobuf@@XZ 1006c370 f i libucrtd:output.obj
 0001:0006b390       ?set_flag@?$output_processor@DV?$stream_output_adapter@D@__crt_stdio_output@@V?$format_validation_base@DV?$stream_output_adapter@D@__crt_stdio_output@@@2@@__crt_stdio_output@@AAEXI@Z 1006c390 f i libucrtd:output.obj
 0001:0006b3c0       ?set_flag@?$output_processor@DV?$stream_output_adapter@D@__crt_stdio_output@@V?$positional_parameter_base@DV?$stream_output_adapter@D@__crt_stdio_output@@@2@@__crt_stdio_output@@AAEXI@Z 1006c3c0 f i libucrtd:output.obj
 0001:0006b3f0       ?set_flag@?$output_processor@DV?$stream_output_adapter@D@__crt_stdio_output@@V?$standard_base@DV?$stream_output_adapter@D@__crt_stdio_output@@@2@@__crt_stdio_output@@AAEXI@Z 1006c3f0 f i libucrtd:output.obj
 0001:0006b420       ?set_flag@?$output_processor@DV?$string_output_adapter@D@__crt_stdio_output@@V?$format_validation_base@DV?$string_output_adapter@D@__crt_stdio_output@@@2@@__crt_stdio_output@@AAEXI@Z 1006c420 f i libucrtd:output.obj
 0001:0006b450       ?set_flag@?$output_processor@DV?$string_output_adapter@D@__crt_stdio_output@@V?$positional_parameter_base@DV?$string_output_adapter@D@__crt_stdio_output@@@2@@__crt_stdio_output@@AAEXI@Z 1006c450 f i libucrtd:output.obj
 0001:0006b480       ?set_flag@?$output_processor@DV?$string_output_adapter@D@__crt_stdio_output@@V?$standard_base@DV?$string_output_adapter@D@__crt_stdio_output@@@2@@__crt_stdio_output@@AAEXI@Z 1006c480 f i libucrtd:output.obj
 0001:0006b4b0       ?set_flag@?$output_processor@_WV?$stream_output_adapter@_W@__crt_stdio_output@@V?$format_validation_base@_WV?$stream_output_adapter@_W@__crt_stdio_output@@@2@@__crt_stdio_output@@AAEXI@Z 1006c4b0 f i libucrtd:output.obj
 0001:0006b4e0       ?set_flag@?$output_processor@_WV?$stream_output_adapter@_W@__crt_stdio_output@@V?$positional_parameter_base@_WV?$stream_output_adapter@_W@__crt_stdio_output@@@2@@__crt_stdio_output@@AAEXI@Z 1006c4e0 f i libucrtd:output.obj
 0001:0006b510       ?set_flag@?$output_processor@_WV?$stream_output_adapter@_W@__crt_stdio_output@@V?$standard_base@_WV?$stream_output_adapter@_W@__crt_stdio_output@@@2@@__crt_stdio_output@@AAEXI@Z 1006c510 f i libucrtd:output.obj
 0001:0006b540       ?set_flag@?$output_processor@_WV?$string_output_adapter@_W@__crt_stdio_output@@V?$format_validation_base@_WV?$string_output_adapter@_W@__crt_stdio_output@@@2@@__crt_stdio_output@@AAEXI@Z 1006c540 f i libucrtd:output.obj
 0001:0006b570       ?set_flag@?$output_processor@_WV?$string_output_adapter@_W@__crt_stdio_output@@V?$positional_parameter_base@_WV?$string_output_adapter@_W@__crt_stdio_output@@@2@@__crt_stdio_output@@AAEXI@Z 1006c570 f i libucrtd:output.obj
 0001:0006b5a0       ?set_flag@?$output_processor@_WV?$string_output_adapter@_W@__crt_stdio_output@@V?$standard_base@_WV?$string_output_adapter@_W@__crt_stdio_output@@@2@@__crt_stdio_output@@AAEXI@Z 1006c5a0 f i libucrtd:output.obj
 0001:0006b5d0       ?should_format@?$positional_parameter_base@DV?$stream_output_adapter@D@__crt_stdio_output@@@__crt_stdio_output@@IAE_NXZ 1006c5d0 f i libucrtd:output.obj
 0001:0006b620       ?should_format@?$positional_parameter_base@DV?$string_output_adapter@D@__crt_stdio_output@@@__crt_stdio_output@@IAE_NXZ 1006c620 f i libucrtd:output.obj
 0001:0006b670       ?should_format@?$positional_parameter_base@_WV?$stream_output_adapter@_W@__crt_stdio_output@@@__crt_stdio_output@@IAE_NXZ 1006c670 f i libucrtd:output.obj
 0001:0006b6c0       ?should_format@?$positional_parameter_base@_WV?$string_output_adapter@_W@__crt_stdio_output@@@__crt_stdio_output@@IAE_NXZ 1006c6c0 f i libucrtd:output.obj
 0001:0006b710       ?should_format@?$standard_base@DV?$stream_output_adapter@D@__crt_stdio_output@@@__crt_stdio_output@@IAE_NXZ 1006c710 f i libucrtd:output.obj
 0001:0006b730       ?should_format@?$standard_base@DV?$string_output_adapter@D@__crt_stdio_output@@@__crt_stdio_output@@IAE_NXZ 1006c730 f i libucrtd:output.obj
 0001:0006b750       ?should_format@?$standard_base@_WV?$stream_output_adapter@_W@__crt_stdio_output@@@__crt_stdio_output@@IAE_NXZ 1006c750 f i libucrtd:output.obj
 0001:0006b770       ?should_format@?$standard_base@_WV?$string_output_adapter@_W@__crt_stdio_output@@@__crt_stdio_output@@IAE_NXZ 1006c770 f i libucrtd:output.obj
 0001:0006b790       ?should_skip_normal_state_processing@?$positional_parameter_base@DV?$stream_output_adapter@D@__crt_stdio_output@@@__crt_stdio_output@@IAE_NXZ 1006c790 f i libucrtd:output.obj
 0001:0006b7f0       ?should_skip_normal_state_processing@?$positional_parameter_base@DV?$string_output_adapter@D@__crt_stdio_output@@@__crt_stdio_output@@IAE_NXZ 1006c7f0 f i libucrtd:output.obj
 0001:0006b850       ?should_skip_normal_state_processing@?$positional_parameter_base@_WV?$stream_output_adapter@_W@__crt_stdio_output@@@__crt_stdio_output@@IAE_NXZ 1006c850 f i libucrtd:output.obj
 0001:0006b8b0       ?should_skip_normal_state_processing@?$positional_parameter_base@_WV?$string_output_adapter@_W@__crt_stdio_output@@@__crt_stdio_output@@IAE_NXZ 1006c8b0 f i libucrtd:output.obj
 0001:0006b910       ?should_skip_normal_state_processing@?$standard_base@DV?$stream_output_adapter@D@__crt_stdio_output@@@__crt_stdio_output@@IAE_NXZ 1006c910 f i libucrtd:output.obj
 0001:0006b930       ?should_skip_normal_state_processing@?$standard_base@DV?$string_output_adapter@D@__crt_stdio_output@@@__crt_stdio_output@@IAE_NXZ 1006c930 f i libucrtd:output.obj
 0001:0006b950       ?should_skip_normal_state_processing@?$standard_base@_WV?$stream_output_adapter@_W@__crt_stdio_output@@@__crt_stdio_output@@IAE_NXZ 1006c950 f i libucrtd:output.obj
 0001:0006b970       ?should_skip_normal_state_processing@?$standard_base@_WV?$string_output_adapter@_W@__crt_stdio_output@@@__crt_stdio_output@@IAE_NXZ 1006c970 f i libucrtd:output.obj
 0001:0006b990       ?should_skip_type_state_output@?$positional_parameter_base@DV?$stream_output_adapter@D@__crt_stdio_output@@@__crt_stdio_output@@IBE_NXZ 1006c990 f i libucrtd:output.obj
 0001:0006b9e0       ?should_skip_type_state_output@?$positional_parameter_base@DV?$string_output_adapter@D@__crt_stdio_output@@@__crt_stdio_output@@IBE_NXZ 1006c9e0 f i libucrtd:output.obj
 0001:0006ba30       ?should_skip_type_state_output@?$positional_parameter_base@_WV?$stream_output_adapter@_W@__crt_stdio_output@@@__crt_stdio_output@@IBE_NXZ 1006ca30 f i libucrtd:output.obj
 0001:0006ba80       ?should_skip_type_state_output@?$positional_parameter_base@_WV?$string_output_adapter@_W@__crt_stdio_output@@@__crt_stdio_output@@IBE_NXZ 1006ca80 f i libucrtd:output.obj
 0001:0006bad0       ?should_skip_type_state_output@?$standard_base@DV?$stream_output_adapter@D@__crt_stdio_output@@@__crt_stdio_output@@IBE_NXZ 1006cad0 f i libucrtd:output.obj
 0001:0006baf0       ?should_skip_type_state_output@?$standard_base@DV?$string_output_adapter@D@__crt_stdio_output@@@__crt_stdio_output@@IBE_NXZ 1006caf0 f i libucrtd:output.obj
 0001:0006bb10       ?should_skip_type_state_output@?$standard_base@_WV?$stream_output_adapter@_W@__crt_stdio_output@@@__crt_stdio_output@@IBE_NXZ 1006cb10 f i libucrtd:output.obj
 0001:0006bb30       ?should_skip_type_state_output@?$standard_base@_WV?$string_output_adapter@_W@__crt_stdio_output@@@__crt_stdio_output@@IBE_NXZ 1006cb30 f i libucrtd:output.obj
 0001:0006bb50       ?state_case_dot@?$output_processor@DV?$stream_output_adapter@D@__crt_stdio_output@@V?$format_validation_base@DV?$stream_output_adapter@D@__crt_stdio_output@@@2@@__crt_stdio_output@@AAE_NXZ 1006cb50 f i libucrtd:output.obj
 0001:0006bb70       ?state_case_dot@?$output_processor@DV?$stream_output_adapter@D@__crt_stdio_output@@V?$positional_parameter_base@DV?$stream_output_adapter@D@__crt_stdio_output@@@2@@__crt_stdio_output@@AAE_NXZ 1006cb70 f i libucrtd:output.obj
 0001:0006bb90       ?state_case_dot@?$output_processor@DV?$stream_output_adapter@D@__crt_stdio_output@@V?$standard_base@DV?$stream_output_adapter@D@__crt_stdio_output@@@2@@__crt_stdio_output@@AAE_NXZ 1006cb90 f i libucrtd:output.obj
 0001:0006bbb0       ?state_case_dot@?$output_processor@DV?$string_output_adapter@D@__crt_stdio_output@@V?$format_validation_base@DV?$string_output_adapter@D@__crt_stdio_output@@@2@@__crt_stdio_output@@AAE_NXZ 1006cbb0 f i libucrtd:output.obj
 0001:0006bbd0       ?state_case_dot@?$output_processor@DV?$string_output_adapter@D@__crt_stdio_output@@V?$positional_parameter_base@DV?$string_output_adapter@D@__crt_stdio_output@@@2@@__crt_stdio_output@@AAE_NXZ 1006cbd0 f i libucrtd:output.obj
 0001:0006bbf0       ?state_case_dot@?$output_processor@DV?$string_output_adapter@D@__crt_stdio_output@@V?$standard_base@DV?$string_output_adapter@D@__crt_stdio_output@@@2@@__crt_stdio_output@@AAE_NXZ 1006cbf0 f i libucrtd:output.obj
 0001:0006bc10       ?state_case_dot@?$output_processor@_WV?$stream_output_adapter@_W@__crt_stdio_output@@V?$format_validation_base@_WV?$stream_output_adapter@_W@__crt_stdio_output@@@2@@__crt_stdio_output@@AAE_NXZ 1006cc10 f i libucrtd:output.obj
 0001:0006bc30       ?state_case_dot@?$output_processor@_WV?$stream_output_adapter@_W@__crt_stdio_output@@V?$positional_parameter_base@_WV?$stream_output_adapter@_W@__crt_stdio_output@@@2@@__crt_stdio_output@@AAE_NXZ 1006cc30 f i libucrtd:output.obj
 0001:0006bc50       ?state_case_dot@?$output_processor@_WV?$stream_output_adapter@_W@__crt_stdio_output@@V?$standard_base@_WV?$stream_output_adapter@_W@__crt_stdio_output@@@2@@__crt_stdio_output@@AAE_NXZ 1006cc50 f i libucrtd:output.obj
 0001:0006bc70       ?state_case_dot@?$output_processor@_WV?$string_output_adapter@_W@__crt_stdio_output@@V?$format_validation_base@_WV?$string_output_adapter@_W@__crt_stdio_output@@@2@@__crt_stdio_output@@AAE_NXZ 1006cc70 f i libucrtd:output.obj
 0001:0006bc90       ?state_case_dot@?$output_processor@_WV?$string_output_adapter@_W@__crt_stdio_output@@V?$positional_parameter_base@_WV?$string_output_adapter@_W@__crt_stdio_output@@@2@@__crt_stdio_output@@AAE_NXZ 1006cc90 f i libucrtd:output.obj
 0001:0006bcb0       ?state_case_dot@?$output_processor@_WV?$string_output_adapter@_W@__crt_stdio_output@@V?$standard_base@_WV?$string_output_adapter@_W@__crt_stdio_output@@@2@@__crt_stdio_output@@AAE_NXZ 1006ccb0 f i libucrtd:output.obj
 0001:0006bcd0       ?state_case_flag@?$output_processor@DV?$stream_output_adapter@D@__crt_stdio_output@@V?$format_validation_base@DV?$stream_output_adapter@D@__crt_stdio_output@@@2@@__crt_stdio_output@@AAE_NXZ 1006ccd0 f i libucrtd:output.obj
 0001:0006bda0       ?state_case_flag@?$output_processor@DV?$stream_output_adapter@D@__crt_stdio_output@@V?$positional_parameter_base@DV?$stream_output_adapter@D@__crt_stdio_output@@@2@@__crt_stdio_output@@AAE_NXZ 1006cda0 f i libucrtd:output.obj
 0001:0006be70       ?state_case_flag@?$output_processor@DV?$stream_output_adapter@D@__crt_stdio_output@@V?$standard_base@DV?$stream_output_adapter@D@__crt_stdio_output@@@2@@__crt_stdio_output@@AAE_NXZ 1006ce70 f i libucrtd:output.obj
 0001:0006bf40       ?state_case_flag@?$output_processor@DV?$string_output_adapter@D@__crt_stdio_output@@V?$format_validation_base@DV?$string_output_adapter@D@__crt_stdio_output@@@2@@__crt_stdio_output@@AAE_NXZ 1006cf40 f i libucrtd:output.obj
 0001:0006c010       ?state_case_flag@?$output_processor@DV?$string_output_adapter@D@__crt_stdio_output@@V?$positional_parameter_base@DV?$string_output_adapter@D@__crt_stdio_output@@@2@@__crt_stdio_output@@AAE_NXZ 1006d010 f i libucrtd:output.obj
 0001:0006c0e0       ?state_case_flag@?$output_processor@DV?$string_output_adapter@D@__crt_stdio_output@@V?$standard_base@DV?$string_output_adapter@D@__crt_stdio_output@@@2@@__crt_stdio_output@@AAE_NXZ 1006d0e0 f i libucrtd:output.obj
 0001:0006c1b0       ?state_case_flag@?$output_processor@_WV?$stream_output_adapter@_W@__crt_stdio_output@@V?$format_validation_base@_WV?$stream_output_adapter@_W@__crt_stdio_output@@@2@@__crt_stdio_output@@AAE_NXZ 1006d1b0 f i libucrtd:output.obj
 0001:0006c280       ?state_case_flag@?$output_processor@_WV?$stream_output_adapter@_W@__crt_stdio_output@@V?$positional_parameter_base@_WV?$stream_output_adapter@_W@__crt_stdio_output@@@2@@__crt_stdio_output@@AAE_NXZ 1006d280 f i libucrtd:output.obj
 0001:0006c350       ?state_case_flag@?$output_processor@_WV?$stream_output_adapter@_W@__crt_stdio_output@@V?$standard_base@_WV?$stream_output_adapter@_W@__crt_stdio_output@@@2@@__crt_stdio_output@@AAE_NXZ 1006d350 f i libucrtd:output.obj
 0001:0006c420       ?state_case_flag@?$output_processor@_WV?$string_output_adapter@_W@__crt_stdio_output@@V?$format_validation_base@_WV?$string_output_adapter@_W@__crt_stdio_output@@@2@@__crt_stdio_output@@AAE_NXZ 1006d420 f i libucrtd:output.obj
 0001:0006c4f0       ?state_case_flag@?$output_processor@_WV?$string_output_adapter@_W@__crt_stdio_output@@V?$positional_parameter_base@_WV?$string_output_adapter@_W@__crt_stdio_output@@@2@@__crt_stdio_output@@AAE_NXZ 1006d4f0 f i libucrtd:output.obj
 0001:0006c5c0       ?state_case_flag@?$output_processor@_WV?$string_output_adapter@_W@__crt_stdio_output@@V?$standard_base@_WV?$string_output_adapter@_W@__crt_stdio_output@@@2@@__crt_stdio_output@@AAE_NXZ 1006d5c0 f i libucrtd:output.obj
 0001:0006c690       ?state_case_normal@?$output_processor@DV?$stream_output_adapter@D@__crt_stdio_output@@V?$format_validation_base@DV?$stream_output_adapter@D@__crt_stdio_output@@@2@@__crt_stdio_output@@AAE_NXZ 1006d690 f i libucrtd:output.obj
 0001:0006c770       ?state_case_normal@?$output_processor@DV?$stream_output_adapter@D@__crt_stdio_output@@V?$positional_parameter_base@DV?$stream_output_adapter@D@__crt_stdio_output@@@2@@__crt_stdio_output@@AAE_NXZ 1006d770 f i libucrtd:output.obj
 0001:0006c850       ?state_case_normal@?$output_processor@DV?$stream_output_adapter@D@__crt_stdio_output@@V?$standard_base@DV?$stream_output_adapter@D@__crt_stdio_output@@@2@@__crt_stdio_output@@AAE_NXZ 1006d850 f i libucrtd:output.obj
 0001:0006c930       ?state_case_normal@?$output_processor@DV?$string_output_adapter@D@__crt_stdio_output@@V?$format_validation_base@DV?$string_output_adapter@D@__crt_stdio_output@@@2@@__crt_stdio_output@@AAE_NXZ 1006d930 f i libucrtd:output.obj
 0001:0006ca10       ?state_case_normal@?$output_processor@DV?$string_output_adapter@D@__crt_stdio_output@@V?$positional_parameter_base@DV?$string_output_adapter@D@__crt_stdio_output@@@2@@__crt_stdio_output@@AAE_NXZ 1006da10 f i libucrtd:output.obj
 0001:0006caf0       ?state_case_normal@?$output_processor@DV?$string_output_adapter@D@__crt_stdio_output@@V?$standard_base@DV?$string_output_adapter@D@__crt_stdio_output@@@2@@__crt_stdio_output@@AAE_NXZ 1006daf0 f i libucrtd:output.obj
 0001:0006cbd0       ?state_case_normal@?$output_processor@_WV?$stream_output_adapter@_W@__crt_stdio_output@@V?$format_validation_base@_WV?$stream_output_adapter@_W@__crt_stdio_output@@@2@@__crt_stdio_output@@AAE_NXZ 1006dbd0 f i libucrtd:output.obj
 0001:0006ccb0       ?state_case_normal@?$output_processor@_WV?$stream_output_adapter@_W@__crt_stdio_output@@V?$positional_parameter_base@_WV?$stream_output_adapter@_W@__crt_stdio_output@@@2@@__crt_stdio_output@@AAE_NXZ 1006dcb0 f i libucrtd:output.obj
 0001:0006cd90       ?state_case_normal@?$output_processor@_WV?$stream_output_adapter@_W@__crt_stdio_output@@V?$standard_base@_WV?$stream_output_adapter@_W@__crt_stdio_output@@@2@@__crt_stdio_output@@AAE_NXZ 1006dd90 f i libucrtd:output.obj
 0001:0006ce70       ?state_case_normal@?$output_processor@_WV?$string_output_adapter@_W@__crt_stdio_output@@V?$format_validation_base@_WV?$string_output_adapter@_W@__crt_stdio_output@@@2@@__crt_stdio_output@@AAE_NXZ 1006de70 f i libucrtd:output.obj
 0001:0006cf50       ?state_case_normal@?$output_processor@_WV?$string_output_adapter@_W@__crt_stdio_output@@V?$positional_parameter_base@_WV?$string_output_adapter@_W@__crt_stdio_output@@@2@@__crt_stdio_output@@AAE_NXZ 1006df50 f i libucrtd:output.obj
 0001:0006d030       ?state_case_normal@?$output_processor@_WV?$string_output_adapter@_W@__crt_stdio_output@@V?$standard_base@_WV?$string_output_adapter@_W@__crt_stdio_output@@@2@@__crt_stdio_output@@AAE_NXZ 1006e030 f i libucrtd:output.obj
 0001:0006d110       ?state_case_normal_common@?$output_processor@DV?$stream_output_adapter@D@__crt_stdio_output@@V?$format_validation_base@DV?$stream_output_adapter@D@__crt_stdio_output@@@2@@__crt_stdio_output@@AAE_NXZ 1006e110 f i libucrtd:output.obj
 0001:0006d170       ?state_case_normal_common@?$output_processor@DV?$stream_output_adapter@D@__crt_stdio_output@@V?$positional_parameter_base@DV?$stream_output_adapter@D@__crt_stdio_output@@@2@@__crt_stdio_output@@AAE_NXZ 1006e170 f i libucrtd:output.obj
 0001:0006d1d0       ?state_case_normal_common@?$output_processor@DV?$stream_output_adapter@D@__crt_stdio_output@@V?$standard_base@DV?$stream_output_adapter@D@__crt_stdio_output@@@2@@__crt_stdio_output@@AAE_NXZ 1006e1d0 f i libucrtd:output.obj
 0001:0006d230       ?state_case_normal_common@?$output_processor@DV?$string_output_adapter@D@__crt_stdio_output@@V?$format_validation_base@DV?$string_output_adapter@D@__crt_stdio_output@@@2@@__crt_stdio_output@@AAE_NXZ 1006e230 f i libucrtd:output.obj
 0001:0006d290       ?state_case_normal_common@?$output_processor@DV?$string_output_adapter@D@__crt_stdio_output@@V?$positional_parameter_base@DV?$string_output_adapter@D@__crt_stdio_output@@@2@@__crt_stdio_output@@AAE_NXZ 1006e290 f i libucrtd:output.obj
 0001:0006d2f0       ?state_case_normal_common@?$output_processor@DV?$string_output_adapter@D@__crt_stdio_output@@V?$standard_base@DV?$string_output_adapter@D@__crt_stdio_output@@@2@@__crt_stdio_output@@AAE_NXZ 1006e2f0 f i libucrtd:output.obj
 0001:0006d350       ?state_case_normal_common@?$output_processor@_WV?$stream_output_adapter@_W@__crt_stdio_output@@V?$format_validation_base@_WV?$stream_output_adapter@_W@__crt_stdio_output@@@2@@__crt_stdio_output@@AAE_NXZ 1006e350 f i libucrtd:output.obj
 0001:0006d3b0       ?state_case_normal_common@?$output_processor@_WV?$stream_output_adapter@_W@__crt_stdio_output@@V?$positional_parameter_base@_WV?$stream_output_adapter@_W@__crt_stdio_output@@@2@@__crt_stdio_output@@AAE_NXZ 1006e3b0 f i libucrtd:output.obj
 0001:0006d410       ?state_case_normal_common@?$output_processor@_WV?$stream_output_adapter@_W@__crt_stdio_output@@V?$standard_base@_WV?$stream_output_adapter@_W@__crt_stdio_output@@@2@@__crt_stdio_output@@AAE_NXZ 1006e410 f i libucrtd:output.obj
 0001:0006d470       ?state_case_normal_common@?$output_processor@_WV?$string_output_adapter@_W@__crt_stdio_output@@V?$format_validation_base@_WV?$string_output_adapter@_W@__crt_stdio_output@@@2@@__crt_stdio_output@@AAE_NXZ 1006e470 f i libucrtd:output.obj
 0001:0006d4d0       ?state_case_normal_common@?$output_processor@_WV?$string_output_adapter@_W@__crt_stdio_output@@V?$positional_parameter_base@_WV?$string_output_adapter@_W@__crt_stdio_output@@@2@@__crt_stdio_output@@AAE_NXZ 1006e4d0 f i libucrtd:output.obj
 0001:0006d530       ?state_case_normal_common@?$output_processor@_WV?$string_output_adapter@_W@__crt_stdio_output@@V?$standard_base@_WV?$string_output_adapter@_W@__crt_stdio_output@@@2@@__crt_stdio_output@@AAE_NXZ 1006e530 f i libucrtd:output.obj
 0001:0006d590       ?state_case_normal_tchar@?$output_processor@DV?$stream_output_adapter@D@__crt_stdio_output@@V?$format_validation_base@DV?$stream_output_adapter@D@__crt_stdio_output@@@2@@__crt_stdio_output@@AAE_ND@Z 1006e590 f i libucrtd:output.obj
 0001:0006d6c0       ?state_case_normal_tchar@?$output_processor@DV?$stream_output_adapter@D@__crt_stdio_output@@V?$positional_parameter_base@DV?$stream_output_adapter@D@__crt_stdio_output@@@2@@__crt_stdio_output@@AAE_ND@Z 1006e6c0 f i libucrtd:output.obj
 0001:0006d7f0       ?state_case_normal_tchar@?$output_processor@DV?$stream_output_adapter@D@__crt_stdio_output@@V?$standard_base@DV?$stream_output_adapter@D@__crt_stdio_output@@@2@@__crt_stdio_output@@AAE_ND@Z 1006e7f0 f i libucrtd:output.obj
 0001:0006d920       ?state_case_normal_tchar@?$output_processor@DV?$string_output_adapter@D@__crt_stdio_output@@V?$format_validation_base@DV?$string_output_adapter@D@__crt_stdio_output@@@2@@__crt_stdio_output@@AAE_ND@Z 1006e920 f i libucrtd:output.obj
 0001:0006da50       ?state_case_normal_tchar@?$output_processor@DV?$string_output_adapter@D@__crt_stdio_output@@V?$positional_parameter_base@DV?$string_output_adapter@D@__crt_stdio_output@@@2@@__crt_stdio_output@@AAE_ND@Z 1006ea50 f i libucrtd:output.obj
 0001:0006db80       ?state_case_normal_tchar@?$output_processor@DV?$string_output_adapter@D@__crt_stdio_output@@V?$standard_base@DV?$string_output_adapter@D@__crt_stdio_output@@@2@@__crt_stdio_output@@AAE_ND@Z 1006eb80 f i libucrtd:output.obj
 0001:0006dcb0       ?state_case_normal_tchar@?$output_processor@_WV?$stream_output_adapter@_W@__crt_stdio_output@@V?$format_validation_base@_WV?$stream_output_adapter@_W@__crt_stdio_output@@@2@@__crt_stdio_output@@AAE_N_W@Z 1006ecb0 f i libucrtd:output.obj
 0001:0006dcd0       ?state_case_normal_tchar@?$output_processor@_WV?$stream_output_adapter@_W@__crt_stdio_output@@V?$positional_parameter_base@_WV?$stream_output_adapter@_W@__crt_stdio_output@@@2@@__crt_stdio_output@@AAE_N_W@Z 1006ecd0 f i libucrtd:output.obj
 0001:0006dcf0       ?state_case_normal_tchar@?$output_processor@_WV?$stream_output_adapter@_W@__crt_stdio_output@@V?$standard_base@_WV?$stream_output_adapter@_W@__crt_stdio_output@@@2@@__crt_stdio_output@@AAE_N_W@Z 1006ecf0 f i libucrtd:output.obj
 0001:0006dd10       ?state_case_normal_tchar@?$output_processor@_WV?$string_output_adapter@_W@__crt_stdio_output@@V?$format_validation_base@_WV?$string_output_adapter@_W@__crt_stdio_output@@@2@@__crt_stdio_output@@AAE_N_W@Z 1006ed10 f i libucrtd:output.obj
 0001:0006dd30       ?state_case_normal_tchar@?$output_processor@_WV?$string_output_adapter@_W@__crt_stdio_output@@V?$positional_parameter_base@_WV?$string_output_adapter@_W@__crt_stdio_output@@@2@@__crt_stdio_output@@AAE_N_W@Z 1006ed30 f i libucrtd:output.obj
 0001:0006dd50       ?state_case_normal_tchar@?$output_processor@_WV?$string_output_adapter@_W@__crt_stdio_output@@V?$standard_base@_WV?$string_output_adapter@_W@__crt_stdio_output@@@2@@__crt_stdio_output@@AAE_N_W@Z 1006ed50 f i libucrtd:output.obj
 0001:0006dd70       ?state_case_percent@?$output_processor@DV?$stream_output_adapter@D@__crt_stdio_output@@V?$format_validation_base@DV?$stream_output_adapter@D@__crt_stdio_output@@@2@@__crt_stdio_output@@AAE_NXZ 1006ed70 f i libucrtd:output.obj
 0001:0006ddd0       ?state_case_percent@?$output_processor@DV?$stream_output_adapter@D@__crt_stdio_output@@V?$positional_parameter_base@DV?$stream_output_adapter@D@__crt_stdio_output@@@2@@__crt_stdio_output@@AAE_NXZ 1006edd0 f i libucrtd:output.obj
 0001:0006de30       ?state_case_percent@?$output_processor@DV?$stream_output_adapter@D@__crt_stdio_output@@V?$standard_base@DV?$stream_output_adapter@D@__crt_stdio_output@@@2@@__crt_stdio_output@@AAE_NXZ 1006ee30 f i libucrtd:output.obj
 0001:0006de90       ?state_case_percent@?$output_processor@DV?$string_output_adapter@D@__crt_stdio_output@@V?$format_validation_base@DV?$string_output_adapter@D@__crt_stdio_output@@@2@@__crt_stdio_output@@AAE_NXZ 1006ee90 f i libucrtd:output.obj
 0001:0006def0       ?state_case_percent@?$output_processor@DV?$string_output_adapter@D@__crt_stdio_output@@V?$positional_parameter_base@DV?$string_output_adapter@D@__crt_stdio_output@@@2@@__crt_stdio_output@@AAE_NXZ 1006eef0 f i libucrtd:output.obj
 0001:0006df50       ?state_case_percent@?$output_processor@DV?$string_output_adapter@D@__crt_stdio_output@@V?$standard_base@DV?$string_output_adapter@D@__crt_stdio_output@@@2@@__crt_stdio_output@@AAE_NXZ 1006ef50 f i libucrtd:output.obj
 0001:0006dfb0       ?state_case_percent@?$output_processor@_WV?$stream_output_adapter@_W@__crt_stdio_output@@V?$format_validation_base@_WV?$stream_output_adapter@_W@__crt_stdio_output@@@2@@__crt_stdio_output@@AAE_NXZ 1006efb0 f i libucrtd:output.obj
 0001:0006e010       ?state_case_percent@?$output_processor@_WV?$stream_output_adapter@_W@__crt_stdio_output@@V?$positional_parameter_base@_WV?$stream_output_adapter@_W@__crt_stdio_output@@@2@@__crt_stdio_output@@AAE_NXZ 1006f010 f i libucrtd:output.obj
 0001:0006e070       ?state_case_percent@?$output_processor@_WV?$stream_output_adapter@_W@__crt_stdio_output@@V?$standard_base@_WV?$stream_output_adapter@_W@__crt_stdio_output@@@2@@__crt_stdio_output@@AAE_NXZ 1006f070 f i libucrtd:output.obj
 0001:0006e0d0       ?state_case_percent@?$output_processor@_WV?$string_output_adapter@_W@__crt_stdio_output@@V?$format_validation_base@_WV?$string_output_adapter@_W@__crt_stdio_output@@@2@@__crt_stdio_output@@AAE_NXZ 1006f0d0 f i libucrtd:output.obj
 0001:0006e130       ?state_case_percent@?$output_processor@_WV?$string_output_adapter@_W@__crt_stdio_output@@V?$positional_parameter_base@_WV?$string_output_adapter@_W@__crt_stdio_output@@@2@@__crt_stdio_output@@AAE_NXZ 1006f130 f i libucrtd:output.obj
 0001:0006e190       ?state_case_percent@?$output_processor@_WV?$string_output_adapter@_W@__crt_stdio_output@@V?$standard_base@_WV?$string_output_adapter@_W@__crt_stdio_output@@@2@@__crt_stdio_output@@AAE_NXZ 1006f190 f i libucrtd:output.obj
 0001:0006e1f0       ?state_case_precision@?$output_processor@DV?$stream_output_adapter@D@__crt_stdio_output@@V?$format_validation_base@DV?$stream_output_adapter@D@__crt_stdio_output@@@2@@__crt_stdio_output@@AAE_NXZ 1006f1f0 f i libucrtd:output.obj
 0001:0006e270       ?state_case_precision@?$output_processor@DV?$stream_output_adapter@D@__crt_stdio_output@@V?$positional_parameter_base@DV?$stream_output_adapter@D@__crt_stdio_output@@@2@@__crt_stdio_output@@AAE_NXZ 1006f270 f i libucrtd:output.obj
 0001:0006e2f0       ?state_case_precision@?$output_processor@DV?$stream_output_adapter@D@__crt_stdio_output@@V?$standard_base@DV?$stream_output_adapter@D@__crt_stdio_output@@@2@@__crt_stdio_output@@AAE_NXZ 1006f2f0 f i libucrtd:output.obj
 0001:0006e370       ?state_case_precision@?$output_processor@DV?$string_output_adapter@D@__crt_stdio_output@@V?$format_validation_base@DV?$string_output_adapter@D@__crt_stdio_output@@@2@@__crt_stdio_output@@AAE_NXZ 1006f370 f i libucrtd:output.obj
 0001:0006e3f0       ?state_case_precision@?$output_processor@DV?$string_output_adapter@D@__crt_stdio_output@@V?$positional_parameter_base@DV?$string_output_adapter@D@__crt_stdio_output@@@2@@__crt_stdio_output@@AAE_NXZ 1006f3f0 f i libucrtd:output.obj
 0001:0006e470       ?state_case_precision@?$output_processor@DV?$string_output_adapter@D@__crt_stdio_output@@V?$standard_base@DV?$string_output_adapter@D@__crt_stdio_output@@@2@@__crt_stdio_output@@AAE_NXZ 1006f470 f i libucrtd:output.obj
 0001:0006e4f0       ?state_case_precision@?$output_processor@_WV?$stream_output_adapter@_W@__crt_stdio_output@@V?$format_validation_base@_WV?$stream_output_adapter@_W@__crt_stdio_output@@@2@@__crt_stdio_output@@AAE_NXZ 1006f4f0 f i libucrtd:output.obj
 0001:0006e570       ?state_case_precision@?$output_processor@_WV?$stream_output_adapter@_W@__crt_stdio_output@@V?$positional_parameter_base@_WV?$stream_output_adapter@_W@__crt_stdio_output@@@2@@__crt_stdio_output@@AAE_NXZ 1006f570 f i libucrtd:output.obj
 0001:0006e5f0       ?state_case_precision@?$output_processor@_WV?$stream_output_adapter@_W@__crt_stdio_output@@V?$standard_base@_WV?$stream_output_adapter@_W@__crt_stdio_output@@@2@@__crt_stdio_output@@AAE_NXZ 1006f5f0 f i libucrtd:output.obj
 0001:0006e670       ?state_case_precision@?$output_processor@_WV?$string_output_adapter@_W@__crt_stdio_output@@V?$format_validation_base@_WV?$string_output_adapter@_W@__crt_stdio_output@@@2@@__crt_stdio_output@@AAE_NXZ 1006f670 f i libucrtd:output.obj
 0001:0006e6f0       ?state_case_precision@?$output_processor@_WV?$string_output_adapter@_W@__crt_stdio_output@@V?$positional_parameter_base@_WV?$string_output_adapter@_W@__crt_stdio_output@@@2@@__crt_stdio_output@@AAE_NXZ 1006f6f0 f i libucrtd:output.obj
 0001:0006e770       ?state_case_precision@?$output_processor@_WV?$string_output_adapter@_W@__crt_stdio_output@@V?$standard_base@_WV?$string_output_adapter@_W@__crt_stdio_output@@@2@@__crt_stdio_output@@AAE_NXZ 1006f770 f i libucrtd:output.obj
 0001:0006e7f0       ?state_case_size@?$output_processor@DV?$stream_output_adapter@D@__crt_stdio_output@@V?$format_validation_base@DV?$stream_output_adapter@D@__crt_stdio_output@@@2@@__crt_stdio_output@@AAE_NXZ 1006f7f0 f i libucrtd:output.obj
 0001:0006ecb0       ?state_case_size@?$output_processor@DV?$stream_output_adapter@D@__crt_stdio_output@@V?$positional_parameter_base@DV?$stream_output_adapter@D@__crt_stdio_output@@@2@@__crt_stdio_output@@AAE_NXZ 1006fcb0 f i libucrtd:output.obj
 0001:0006f170       ?state_case_size@?$output_processor@DV?$stream_output_adapter@D@__crt_stdio_output@@V?$standard_base@DV?$stream_output_adapter@D@__crt_stdio_output@@@2@@__crt_stdio_output@@AAE_NXZ 10070170 f i libucrtd:output.obj
 0001:0006f630       ?state_case_size@?$output_processor@DV?$string_output_adapter@D@__crt_stdio_output@@V?$format_validation_base@DV?$string_output_adapter@D@__crt_stdio_output@@@2@@__crt_stdio_output@@AAE_NXZ 10070630 f i libucrtd:output.obj
 0001:0006faf0       ?state_case_size@?$output_processor@DV?$string_output_adapter@D@__crt_stdio_output@@V?$positional_parameter_base@DV?$string_output_adapter@D@__crt_stdio_output@@@2@@__crt_stdio_output@@AAE_NXZ 10070af0 f i libucrtd:output.obj
 0001:0006ffb0       ?state_case_size@?$output_processor@DV?$string_output_adapter@D@__crt_stdio_output@@V?$standard_base@DV?$string_output_adapter@D@__crt_stdio_output@@@2@@__crt_stdio_output@@AAE_NXZ 10070fb0 f i libucrtd:output.obj
 0001:00070470       ?state_case_size@?$output_processor@_WV?$stream_output_adapter@_W@__crt_stdio_output@@V?$format_validation_base@_WV?$stream_output_adapter@_W@__crt_stdio_output@@@2@@__crt_stdio_output@@AAE_NXZ 10071470 f i libucrtd:output.obj
 0001:00070930       ?state_case_size@?$output_processor@_WV?$stream_output_adapter@_W@__crt_stdio_output@@V?$positional_parameter_base@_WV?$stream_output_adapter@_W@__crt_stdio_output@@@2@@__crt_stdio_output@@AAE_NXZ 10071930 f i libucrtd:output.obj
 0001:00070df0       ?state_case_size@?$output_processor@_WV?$stream_output_adapter@_W@__crt_stdio_output@@V?$standard_base@_WV?$stream_output_adapter@_W@__crt_stdio_output@@@2@@__crt_stdio_output@@AAE_NXZ 10071df0 f i libucrtd:output.obj
 0001:000712b0       ?state_case_size@?$output_processor@_WV?$string_output_adapter@_W@__crt_stdio_output@@V?$format_validation_base@_WV?$string_output_adapter@_W@__crt_stdio_output@@@2@@__crt_stdio_output@@AAE_NXZ 100722b0 f i libucrtd:output.obj
 0001:00071770       ?state_case_size@?$output_processor@_WV?$string_output_adapter@_W@__crt_stdio_output@@V?$positional_parameter_base@_WV?$string_output_adapter@_W@__crt_stdio_output@@@2@@__crt_stdio_output@@AAE_NXZ 10072770 f i libucrtd:output.obj
 0001:00071c30       ?state_case_size@?$output_processor@_WV?$string_output_adapter@_W@__crt_stdio_output@@V?$standard_base@_WV?$string_output_adapter@_W@__crt_stdio_output@@@2@@__crt_stdio_output@@AAE_NXZ 10072c30 f i libucrtd:output.obj
 0001:000720f0       ?state_case_type@?$output_processor@DV?$stream_output_adapter@D@__crt_stdio_output@@V?$format_validation_base@DV?$stream_output_adapter@D@__crt_stdio_output@@@2@@__crt_stdio_output@@AAE_NXZ 100730f0 f i libucrtd:output.obj
 0001:00072590       ?state_case_type@?$output_processor@DV?$stream_output_adapter@D@__crt_stdio_output@@V?$positional_parameter_base@DV?$stream_output_adapter@D@__crt_stdio_output@@@2@@__crt_stdio_output@@AAE_NXZ 10073590 f i libucrtd:output.obj
 0001:00072a30       ?state_case_type@?$output_processor@DV?$stream_output_adapter@D@__crt_stdio_output@@V?$standard_base@DV?$stream_output_adapter@D@__crt_stdio_output@@@2@@__crt_stdio_output@@AAE_NXZ 10073a30 f i libucrtd:output.obj
 0001:00072ed0       ?state_case_type@?$output_processor@DV?$string_output_adapter@D@__crt_stdio_output@@V?$format_validation_base@DV?$string_output_adapter@D@__crt_stdio_output@@@2@@__crt_stdio_output@@AAE_NXZ 10073ed0 f i libucrtd:output.obj
 0001:00073370       ?state_case_type@?$output_processor@DV?$string_output_adapter@D@__crt_stdio_output@@V?$positional_parameter_base@DV?$string_output_adapter@D@__crt_stdio_output@@@2@@__crt_stdio_output@@AAE_NXZ 10074370 f i libucrtd:output.obj
 0001:00073810       ?state_case_type@?$output_processor@DV?$string_output_adapter@D@__crt_stdio_output@@V?$standard_base@DV?$string_output_adapter@D@__crt_stdio_output@@@2@@__crt_stdio_output@@AAE_NXZ 10074810 f i libucrtd:output.obj
 0001:00073cb0       ?state_case_type@?$output_processor@_WV?$stream_output_adapter@_W@__crt_stdio_output@@V?$format_validation_base@_WV?$stream_output_adapter@_W@__crt_stdio_output@@@2@@__crt_stdio_output@@AAE_NXZ 10074cb0 f i libucrtd:output.obj
 0001:00074180       ?state_case_type@?$output_processor@_WV?$stream_output_adapter@_W@__crt_stdio_output@@V?$positional_parameter_base@_WV?$stream_output_adapter@_W@__crt_stdio_output@@@2@@__crt_stdio_output@@AAE_NXZ 10075180 f i libucrtd:output.obj
 0001:00074650       ?state_case_type@?$output_processor@_WV?$stream_output_adapter@_W@__crt_stdio_output@@V?$standard_base@_WV?$stream_output_adapter@_W@__crt_stdio_output@@@2@@__crt_stdio_output@@AAE_NXZ 10075650 f i libucrtd:output.obj
 0001:00074b20       ?state_case_type@?$output_processor@_WV?$string_output_adapter@_W@__crt_stdio_output@@V?$format_validation_base@_WV?$string_output_adapter@_W@__crt_stdio_output@@@2@@__crt_stdio_output@@AAE_NXZ 10075b20 f i libucrtd:output.obj
 0001:00074ff0       ?state_case_type@?$output_processor@_WV?$string_output_adapter@_W@__crt_stdio_output@@V?$positional_parameter_base@_WV?$string_output_adapter@_W@__crt_stdio_output@@@2@@__crt_stdio_output@@AAE_NXZ 10075ff0 f i libucrtd:output.obj
 0001:000754c0       ?state_case_type@?$output_processor@_WV?$string_output_adapter@_W@__crt_stdio_output@@V?$standard_base@_WV?$string_output_adapter@_W@__crt_stdio_output@@@2@@__crt_stdio_output@@AAE_NXZ 100764c0 f i libucrtd:output.obj
 0001:00075990       ?state_case_width@?$output_processor@DV?$stream_output_adapter@D@__crt_stdio_output@@V?$format_validation_base@DV?$stream_output_adapter@D@__crt_stdio_output@@@2@@__crt_stdio_output@@AAE_NXZ 10076990 f i libucrtd:output.obj
 0001:00075a20       ?state_case_width@?$output_processor@DV?$stream_output_adapter@D@__crt_stdio_output@@V?$positional_parameter_base@DV?$stream_output_adapter@D@__crt_stdio_output@@@2@@__crt_stdio_output@@AAE_NXZ 10076a20 f i libucrtd:output.obj
 0001:00075ab0       ?state_case_width@?$output_processor@DV?$stream_output_adapter@D@__crt_stdio_output@@V?$standard_base@DV?$stream_output_adapter@D@__crt_stdio_output@@@2@@__crt_stdio_output@@AAE_NXZ 10076ab0 f i libucrtd:output.obj
 0001:00075b40       ?state_case_width@?$output_processor@DV?$string_output_adapter@D@__crt_stdio_output@@V?$format_validation_base@DV?$string_output_adapter@D@__crt_stdio_output@@@2@@__crt_stdio_output@@AAE_NXZ 10076b40 f i libucrtd:output.obj
 0001:00075bd0       ?state_case_width@?$output_processor@DV?$string_output_adapter@D@__crt_stdio_output@@V?$positional_parameter_base@DV?$string_output_adapter@D@__crt_stdio_output@@@2@@__crt_stdio_output@@AAE_NXZ 10076bd0 f i libucrtd:output.obj
 0001:00075c60       ?state_case_width@?$output_processor@DV?$string_output_adapter@D@__crt_stdio_output@@V?$standard_base@DV?$string_output_adapter@D@__crt_stdio_output@@@2@@__crt_stdio_output@@AAE_NXZ 10076c60 f i libucrtd:output.obj
 0001:00075cf0       ?state_case_width@?$output_processor@_WV?$stream_output_adapter@_W@__crt_stdio_output@@V?$format_validation_base@_WV?$stream_output_adapter@_W@__crt_stdio_output@@@2@@__crt_stdio_output@@AAE_NXZ 10076cf0 f i libucrtd:output.obj
 0001:00075d80       ?state_case_width@?$output_processor@_WV?$stream_output_adapter@_W@__crt_stdio_output@@V?$positional_parameter_base@_WV?$stream_output_adapter@_W@__crt_stdio_output@@@2@@__crt_stdio_output@@AAE_NXZ 10076d80 f i libucrtd:output.obj
 0001:00075e10       ?state_case_width@?$output_processor@_WV?$stream_output_adapter@_W@__crt_stdio_output@@V?$standard_base@_WV?$stream_output_adapter@_W@__crt_stdio_output@@@2@@__crt_stdio_output@@AAE_NXZ 10076e10 f i libucrtd:output.obj
 0001:00075ea0       ?state_case_width@?$output_processor@_WV?$string_output_adapter@_W@__crt_stdio_output@@V?$format_validation_base@_WV?$string_output_adapter@_W@__crt_stdio_output@@@2@@__crt_stdio_output@@AAE_NXZ 10076ea0 f i libucrtd:output.obj
 0001:00075f30       ?state_case_width@?$output_processor@_WV?$string_output_adapter@_W@__crt_stdio_output@@V?$positional_parameter_base@_WV?$string_output_adapter@_W@__crt_stdio_output@@@2@@__crt_stdio_output@@AAE_NXZ 10076f30 f i libucrtd:output.obj
 0001:00075fc0       ?state_case_width@?$output_processor@_WV?$string_output_adapter@_W@__crt_stdio_output@@V?$standard_base@_WV?$string_output_adapter@_W@__crt_stdio_output@@@2@@__crt_stdio_output@@AAE_NXZ 10076fc0 f i libucrtd:output.obj
 0001:00076050       ?state_count@?$format_validation_base@DV?$stream_output_adapter@D@__crt_stdio_output@@@__crt_stdio_output@@KAIXZ 10077050 f i libucrtd:output.obj
 0001:00076060       ?state_count@?$format_validation_base@DV?$string_output_adapter@D@__crt_stdio_output@@@__crt_stdio_output@@KAIXZ 10077060 f i libucrtd:output.obj
 0001:00076070       ?state_count@?$format_validation_base@_WV?$stream_output_adapter@_W@__crt_stdio_output@@@__crt_stdio_output@@KAIXZ 10077070 f i libucrtd:output.obj
 0001:00076080       ?state_count@?$format_validation_base@_WV?$string_output_adapter@_W@__crt_stdio_output@@@__crt_stdio_output@@KAIXZ 10077080 f i libucrtd:output.obj
 0001:00076090       ?state_count@?$standard_base@DV?$stream_output_adapter@D@__crt_stdio_output@@@__crt_stdio_output@@KAIXZ 10077090 f i libucrtd:output.obj
 0001:000760a0       ?state_count@?$standard_base@DV?$string_output_adapter@D@__crt_stdio_output@@@__crt_stdio_output@@KAIXZ 100770a0 f i libucrtd:output.obj
 0001:000760b0       ?state_count@?$standard_base@_WV?$stream_output_adapter@_W@__crt_stdio_output@@@__crt_stdio_output@@KAIXZ 100770b0 f i libucrtd:output.obj
 0001:000760c0       ?state_count@?$standard_base@_WV?$string_output_adapter@_W@__crt_stdio_output@@@__crt_stdio_output@@KAIXZ 100770c0 f i libucrtd:output.obj
 0001:000760d0       ?state_transition_table@?$format_validation_base@DV?$stream_output_adapter@D@__crt_stdio_output@@@__crt_stdio_output@@KAPBEXZ 100770d0 f i libucrtd:output.obj
 0001:000760e0       ?state_transition_table@?$format_validation_base@DV?$string_output_adapter@D@__crt_stdio_output@@@__crt_stdio_output@@KAPBEXZ 100770e0 f i libucrtd:output.obj
 0001:000760f0       ?state_transition_table@?$format_validation_base@_WV?$stream_output_adapter@_W@__crt_stdio_output@@@__crt_stdio_output@@KAPBEXZ 100770f0 f i libucrtd:output.obj
 0001:00076100       ?state_transition_table@?$format_validation_base@_WV?$string_output_adapter@_W@__crt_stdio_output@@@__crt_stdio_output@@KAPBEXZ 10077100 f i libucrtd:output.obj
 0001:00076110       ?state_transition_table@?$standard_base@DV?$stream_output_adapter@D@__crt_stdio_output@@@__crt_stdio_output@@KAPBEXZ 10077110 f i libucrtd:output.obj
 0001:00076120       ?state_transition_table@?$standard_base@DV?$string_output_adapter@D@__crt_stdio_output@@@__crt_stdio_output@@KAPBEXZ 10077120 f i libucrtd:output.obj
 0001:00076130       ?state_transition_table@?$standard_base@_WV?$stream_output_adapter@_W@__crt_stdio_output@@@__crt_stdio_output@@KAPBEXZ 10077130 f i libucrtd:output.obj
 0001:00076140       ?state_transition_table@?$standard_base@_WV?$string_output_adapter@_W@__crt_stdio_output@@@__crt_stdio_output@@KAPBEXZ 10077140 f i libucrtd:output.obj
 0001:00076150       ?to_integer_size@__crt_stdio_output@@YAIW4length_modifier@1@@Z 10077150 f i libucrtd:output.obj
 0001:00076220       ?type_case_X@?$output_processor@DV?$stream_output_adapter@D@__crt_stdio_output@@V?$format_validation_base@DV?$stream_output_adapter@D@__crt_stdio_output@@@2@@__crt_stdio_output@@AAE_NXZ 10077220 f i libucrtd:output.obj
 0001:00076240       ?type_case_X@?$output_processor@DV?$stream_output_adapter@D@__crt_stdio_output@@V?$positional_parameter_base@DV?$stream_output_adapter@D@__crt_stdio_output@@@2@@__crt_stdio_output@@AAE_NXZ 10077240 f i libucrtd:output.obj
 0001:00076260       ?type_case_X@?$output_processor@DV?$stream_output_adapter@D@__crt_stdio_output@@V?$standard_base@DV?$stream_output_adapter@D@__crt_stdio_output@@@2@@__crt_stdio_output@@AAE_NXZ 10077260 f i libucrtd:output.obj
 0001:00076280       ?type_case_X@?$output_processor@DV?$string_output_adapter@D@__crt_stdio_output@@V?$format_validation_base@DV?$string_output_adapter@D@__crt_stdio_output@@@2@@__crt_stdio_output@@AAE_NXZ 10077280 f i libucrtd:output.obj
 0001:000762a0       ?type_case_X@?$output_processor@DV?$string_output_adapter@D@__crt_stdio_output@@V?$positional_parameter_base@DV?$string_output_adapter@D@__crt_stdio_output@@@2@@__crt_stdio_output@@AAE_NXZ 100772a0 f i libucrtd:output.obj
 0001:000762c0       ?type_case_X@?$output_processor@DV?$string_output_adapter@D@__crt_stdio_output@@V?$standard_base@DV?$string_output_adapter@D@__crt_stdio_output@@@2@@__crt_stdio_output@@AAE_NXZ 100772c0 f i libucrtd:output.obj
 0001:000762e0       ?type_case_X@?$output_processor@_WV?$stream_output_adapter@_W@__crt_stdio_output@@V?$format_validation_base@_WV?$stream_output_adapter@_W@__crt_stdio_output@@@2@@__crt_stdio_output@@AAE_NXZ 100772e0 f i libucrtd:output.obj
 0001:00076300       ?type_case_X@?$output_processor@_WV?$stream_output_adapter@_W@__crt_stdio_output@@V?$positional_parameter_base@_WV?$stream_output_adapter@_W@__crt_stdio_output@@@2@@__crt_stdio_output@@AAE_NXZ 10077300 f i libucrtd:output.obj
 0001:00076320       ?type_case_X@?$output_processor@_WV?$stream_output_adapter@_W@__crt_stdio_output@@V?$standard_base@_WV?$stream_output_adapter@_W@__crt_stdio_output@@@2@@__crt_stdio_output@@AAE_NXZ 10077320 f i libucrtd:output.obj
 0001:00076340       ?type_case_X@?$output_processor@_WV?$string_output_adapter@_W@__crt_stdio_output@@V?$format_validation_base@_WV?$string_output_adapter@_W@__crt_stdio_output@@@2@@__crt_stdio_output@@AAE_NXZ 10077340 f i libucrtd:output.obj
 0001:00076360       ?type_case_X@?$output_processor@_WV?$string_output_adapter@_W@__crt_stdio_output@@V?$positional_parameter_base@_WV?$string_output_adapter@_W@__crt_stdio_output@@@2@@__crt_stdio_output@@AAE_NXZ 10077360 f i libucrtd:output.obj
 0001:00076380       ?type_case_X@?$output_processor@_WV?$string_output_adapter@_W@__crt_stdio_output@@V?$standard_base@_WV?$string_output_adapter@_W@__crt_stdio_output@@@2@@__crt_stdio_output@@AAE_NXZ 10077380 f i libucrtd:output.obj
 0001:000763a0       ?type_case_Z@?$output_processor@DV?$stream_output_adapter@D@__crt_stdio_output@@V?$format_validation_base@DV?$stream_output_adapter@D@__crt_stdio_output@@@2@@__crt_stdio_output@@AAE_NXZ 100773a0 f i libucrtd:output.obj
 0001:000764d0       ?type_case_Z@?$output_processor@DV?$stream_output_adapter@D@__crt_stdio_output@@V?$positional_parameter_base@DV?$stream_output_adapter@D@__crt_stdio_output@@@2@@__crt_stdio_output@@AAE_NXZ 100774d0 f i libucrtd:output.obj
 0001:00076600       ?type_case_Z@?$output_processor@DV?$stream_output_adapter@D@__crt_stdio_output@@V?$standard_base@DV?$stream_output_adapter@D@__crt_stdio_output@@@2@@__crt_stdio_output@@AAE_NXZ 10077600 f i libucrtd:output.obj
 0001:00076730       ?type_case_Z@?$output_processor@DV?$string_output_adapter@D@__crt_stdio_output@@V?$format_validation_base@DV?$string_output_adapter@D@__crt_stdio_output@@@2@@__crt_stdio_output@@AAE_NXZ 10077730 f i libucrtd:output.obj
 0001:00076860       ?type_case_Z@?$output_processor@DV?$string_output_adapter@D@__crt_stdio_output@@V?$positional_parameter_base@DV?$string_output_adapter@D@__crt_stdio_output@@@2@@__crt_stdio_output@@AAE_NXZ 10077860 f i libucrtd:output.obj
 0001:00076990       ?type_case_Z@?$output_processor@DV?$string_output_adapter@D@__crt_stdio_output@@V?$standard_base@DV?$string_output_adapter@D@__crt_stdio_output@@@2@@__crt_stdio_output@@AAE_NXZ 10077990 f i libucrtd:output.obj
 0001:00076ac0       ?type_case_Z@?$output_processor@_WV?$stream_output_adapter@_W@__crt_stdio_output@@V?$format_validation_base@_WV?$stream_output_adapter@_W@__crt_stdio_output@@@2@@__crt_stdio_output@@AAE_NXZ 10077ac0 f i libucrtd:output.obj
 0001:00076bf0       ?type_case_Z@?$output_processor@_WV?$stream_output_adapter@_W@__crt_stdio_output@@V?$positional_parameter_base@_WV?$stream_output_adapter@_W@__crt_stdio_output@@@2@@__crt_stdio_output@@AAE_NXZ 10077bf0 f i libucrtd:output.obj
 0001:00076d20       ?type_case_Z@?$output_processor@_WV?$stream_output_adapter@_W@__crt_stdio_output@@V?$standard_base@_WV?$stream_output_adapter@_W@__crt_stdio_output@@@2@@__crt_stdio_output@@AAE_NXZ 10077d20 f i libucrtd:output.obj
 0001:00076e50       ?type_case_Z@?$output_processor@_WV?$string_output_adapter@_W@__crt_stdio_output@@V?$format_validation_base@_WV?$string_output_adapter@_W@__crt_stdio_output@@@2@@__crt_stdio_output@@AAE_NXZ 10077e50 f i libucrtd:output.obj
 0001:00076f80       ?type_case_Z@?$output_processor@_WV?$string_output_adapter@_W@__crt_stdio_output@@V?$positional_parameter_base@_WV?$string_output_adapter@_W@__crt_stdio_output@@@2@@__crt_stdio_output@@AAE_NXZ 10077f80 f i libucrtd:output.obj
 0001:000770b0       ?type_case_Z@?$output_processor@_WV?$string_output_adapter@_W@__crt_stdio_output@@V?$standard_base@_WV?$string_output_adapter@_W@__crt_stdio_output@@@2@@__crt_stdio_output@@AAE_NXZ 100780b0 f i libucrtd:output.obj
 0001:000771e0       ?type_case_a@?$output_processor@DV?$stream_output_adapter@D@__crt_stdio_output@@V?$format_validation_base@DV?$stream_output_adapter@D@__crt_stdio_output@@@2@@__crt_stdio_output@@AAE_NXZ 100781e0 f i libucrtd:output.obj
 0001:000774d0       ?type_case_a@?$output_processor@DV?$stream_output_adapter@D@__crt_stdio_output@@V?$positional_parameter_base@DV?$stream_output_adapter@D@__crt_stdio_output@@@2@@__crt_stdio_output@@AAE_NXZ 100784d0 f i libucrtd:output.obj
 0001:000777c0       ?type_case_a@?$output_processor@DV?$stream_output_adapter@D@__crt_stdio_output@@V?$standard_base@DV?$stream_output_adapter@D@__crt_stdio_output@@@2@@__crt_stdio_output@@AAE_NXZ 100787c0 f i libucrtd:output.obj
 0001:00077ab0       ?type_case_a@?$output_processor@DV?$string_output_adapter@D@__crt_stdio_output@@V?$format_validation_base@DV?$string_output_adapter@D@__crt_stdio_output@@@2@@__crt_stdio_output@@AAE_NXZ 10078ab0 f i libucrtd:output.obj
 0001:00077da0       ?type_case_a@?$output_processor@DV?$string_output_adapter@D@__crt_stdio_output@@V?$positional_parameter_base@DV?$string_output_adapter@D@__crt_stdio_output@@@2@@__crt_stdio_output@@AAE_NXZ 10078da0 f i libucrtd:output.obj
 0001:00078090       ?type_case_a@?$output_processor@DV?$string_output_adapter@D@__crt_stdio_output@@V?$standard_base@DV?$string_output_adapter@D@__crt_stdio_output@@@2@@__crt_stdio_output@@AAE_NXZ 10079090 f i libucrtd:output.obj
 0001:00078380       ?type_case_a@?$output_processor@_WV?$stream_output_adapter@_W@__crt_stdio_output@@V?$format_validation_base@_WV?$stream_output_adapter@_W@__crt_stdio_output@@@2@@__crt_stdio_output@@AAE_NXZ 10079380 f i libucrtd:output.obj
 0001:00078680       ?type_case_a@?$output_processor@_WV?$stream_output_adapter@_W@__crt_stdio_output@@V?$positional_parameter_base@_WV?$stream_output_adapter@_W@__crt_stdio_output@@@2@@__crt_stdio_output@@AAE_NXZ 10079680 f i libucrtd:output.obj
 0001:00078980       ?type_case_a@?$output_processor@_WV?$stream_output_adapter@_W@__crt_stdio_output@@V?$standard_base@_WV?$stream_output_adapter@_W@__crt_stdio_output@@@2@@__crt_stdio_output@@AAE_NXZ 10079980 f i libucrtd:output.obj
 0001:00078c80       ?type_case_a@?$output_processor@_WV?$string_output_adapter@_W@__crt_stdio_output@@V?$format_validation_base@_WV?$string_output_adapter@_W@__crt_stdio_output@@@2@@__crt_stdio_output@@AAE_NXZ 10079c80 f i libucrtd:output.obj
 0001:00078f80       ?type_case_a@?$output_processor@_WV?$string_output_adapter@_W@__crt_stdio_output@@V?$positional_parameter_base@_WV?$string_output_adapter@_W@__crt_stdio_output@@@2@@__crt_stdio_output@@AAE_NXZ 10079f80 f i libucrtd:output.obj
 0001:00079280       ?type_case_a@?$output_processor@_WV?$string_output_adapter@_W@__crt_stdio_output@@V?$standard_base@_WV?$string_output_adapter@_W@__crt_stdio_output@@@2@@__crt_stdio_output@@AAE_NXZ 1007a280 f i libucrtd:output.obj
 0001:00079580       ?type_case_c@?$output_processor@DV?$stream_output_adapter@D@__crt_stdio_output@@V?$format_validation_base@DV?$stream_output_adapter@D@__crt_stdio_output@@@2@@__crt_stdio_output@@AAE_NXZ 1007a580 f i libucrtd:output.obj
 0001:000795a0       ?type_case_c@?$output_processor@DV?$stream_output_adapter@D@__crt_stdio_output@@V?$positional_parameter_base@DV?$stream_output_adapter@D@__crt_stdio_output@@@2@@__crt_stdio_output@@AAE_NXZ 1007a5a0 f i libucrtd:output.obj
 0001:000795c0       ?type_case_c@?$output_processor@DV?$stream_output_adapter@D@__crt_stdio_output@@V?$standard_base@DV?$stream_output_adapter@D@__crt_stdio_output@@@2@@__crt_stdio_output@@AAE_NXZ 1007a5c0 f i libucrtd:output.obj
 0001:000795e0       ?type_case_c@?$output_processor@DV?$string_output_adapter@D@__crt_stdio_output@@V?$format_validation_base@DV?$string_output_adapter@D@__crt_stdio_output@@@2@@__crt_stdio_output@@AAE_NXZ 1007a5e0 f i libucrtd:output.obj
 0001:00079600       ?type_case_c@?$output_processor@DV?$string_output_adapter@D@__crt_stdio_output@@V?$positional_parameter_base@DV?$string_output_adapter@D@__crt_stdio_output@@@2@@__crt_stdio_output@@AAE_NXZ 1007a600 f i libucrtd:output.obj
 0001:00079620       ?type_case_c@?$output_processor@DV?$string_output_adapter@D@__crt_stdio_output@@V?$standard_base@DV?$string_output_adapter@D@__crt_stdio_output@@@2@@__crt_stdio_output@@AAE_NXZ 1007a620 f i libucrtd:output.obj
 0001:00079640       ?type_case_c@?$output_processor@_WV?$stream_output_adapter@_W@__crt_stdio_output@@V?$format_validation_base@_WV?$stream_output_adapter@_W@__crt_stdio_output@@@2@@__crt_stdio_output@@AAE_NXZ 1007a640 f i libucrtd:output.obj
 0001:00079660       ?type_case_c@?$output_processor@_WV?$stream_output_adapter@_W@__crt_stdio_output@@V?$positional_parameter_base@_WV?$stream_output_adapter@_W@__crt_stdio_output@@@2@@__crt_stdio_output@@AAE_NXZ 1007a660 f i libucrtd:output.obj
 0001:00079680       ?type_case_c@?$output_processor@_WV?$stream_output_adapter@_W@__crt_stdio_output@@V?$standard_base@_WV?$stream_output_adapter@_W@__crt_stdio_output@@@2@@__crt_stdio_output@@AAE_NXZ 1007a680 f i libucrtd:output.obj
 0001:000796a0       ?type_case_c@?$output_processor@_WV?$string_output_adapter@_W@__crt_stdio_output@@V?$format_validation_base@_WV?$string_output_adapter@_W@__crt_stdio_output@@@2@@__crt_stdio_output@@AAE_NXZ 1007a6a0 f i libucrtd:output.obj
 0001:000796c0       ?type_case_c@?$output_processor@_WV?$string_output_adapter@_W@__crt_stdio_output@@V?$positional_parameter_base@_WV?$string_output_adapter@_W@__crt_stdio_output@@@2@@__crt_stdio_output@@AAE_NXZ 1007a6c0 f i libucrtd:output.obj
 0001:000796e0       ?type_case_c@?$output_processor@_WV?$string_output_adapter@_W@__crt_stdio_output@@V?$standard_base@_WV?$string_output_adapter@_W@__crt_stdio_output@@@2@@__crt_stdio_output@@AAE_NXZ 1007a6e0 f i libucrtd:output.obj
 0001:00079700       ?type_case_c_tchar@?$output_processor@DV?$stream_output_adapter@D@__crt_stdio_output@@V?$format_validation_base@DV?$stream_output_adapter@D@__crt_stdio_output@@@2@@__crt_stdio_output@@AAE_ND@Z 1007a700 f i libucrtd:output.obj
 0001:00079850       ?type_case_c_tchar@?$output_processor@DV?$stream_output_adapter@D@__crt_stdio_output@@V?$positional_parameter_base@DV?$stream_output_adapter@D@__crt_stdio_output@@@2@@__crt_stdio_output@@AAE_ND@Z 1007a850 f i libucrtd:output.obj
 0001:000799a0       ?type_case_c_tchar@?$output_processor@DV?$stream_output_adapter@D@__crt_stdio_output@@V?$standard_base@DV?$stream_output_adapter@D@__crt_stdio_output@@@2@@__crt_stdio_output@@AAE_ND@Z 1007a9a0 f i libucrtd:output.obj
 0001:00079af0       ?type_case_c_tchar@?$output_processor@DV?$string_output_adapter@D@__crt_stdio_output@@V?$format_validation_base@DV?$string_output_adapter@D@__crt_stdio_output@@@2@@__crt_stdio_output@@AAE_ND@Z 1007aaf0 f i libucrtd:output.obj
 0001:00079c40       ?type_case_c_tchar@?$output_processor@DV?$string_output_adapter@D@__crt_stdio_output@@V?$positional_parameter_base@DV?$string_output_adapter@D@__crt_stdio_output@@@2@@__crt_stdio_output@@AAE_ND@Z 1007ac40 f i libucrtd:output.obj
 0001:00079d90       ?type_case_c_tchar@?$output_processor@DV?$string_output_adapter@D@__crt_stdio_output@@V?$standard_base@DV?$string_output_adapter@D@__crt_stdio_output@@@2@@__crt_stdio_output@@AAE_ND@Z 1007ad90 f i libucrtd:output.obj
 0001:00079ee0       ?type_case_c_tchar@?$output_processor@_WV?$stream_output_adapter@_W@__crt_stdio_output@@V?$format_validation_base@_WV?$stream_output_adapter@_W@__crt_stdio_output@@@2@@__crt_stdio_output@@AAE_N_W@Z 1007aee0 f i libucrtd:output.obj
 0001:0007a020       ?type_case_c_tchar@?$output_processor@_WV?$stream_output_adapter@_W@__crt_stdio_output@@V?$positional_parameter_base@_WV?$stream_output_adapter@_W@__crt_stdio_output@@@2@@__crt_stdio_output@@AAE_N_W@Z 1007b020 f i libucrtd:output.obj
 0001:0007a160       ?type_case_c_tchar@?$output_processor@_WV?$stream_output_adapter@_W@__crt_stdio_output@@V?$standard_base@_WV?$stream_output_adapter@_W@__crt_stdio_output@@@2@@__crt_stdio_output@@AAE_N_W@Z 1007b160 f i libucrtd:output.obj
 0001:0007a2a0       ?type_case_c_tchar@?$output_processor@_WV?$string_output_adapter@_W@__crt_stdio_output@@V?$format_validation_base@_WV?$string_output_adapter@_W@__crt_stdio_output@@@2@@__crt_stdio_output@@AAE_N_W@Z 1007b2a0 f i libucrtd:output.obj
 0001:0007a3e0       ?type_case_c_tchar@?$output_processor@_WV?$string_output_adapter@_W@__crt_stdio_output@@V?$positional_parameter_base@_WV?$string_output_adapter@_W@__crt_stdio_output@@@2@@__crt_stdio_output@@AAE_N_W@Z 1007b3e0 f i libucrtd:output.obj
 0001:0007a520       ?type_case_c_tchar@?$output_processor@_WV?$string_output_adapter@_W@__crt_stdio_output@@V?$standard_base@_WV?$string_output_adapter@_W@__crt_stdio_output@@@2@@__crt_stdio_output@@AAE_N_W@Z 1007b520 f i libucrtd:output.obj
 0001:0007a660       ?type_case_d@?$output_processor@DV?$stream_output_adapter@D@__crt_stdio_output@@V?$format_validation_base@DV?$stream_output_adapter@D@__crt_stdio_output@@@2@@__crt_stdio_output@@AAE_NXZ 1007b660 f i libucrtd:output.obj
 0001:0007a690       ?type_case_d@?$output_processor@DV?$stream_output_adapter@D@__crt_stdio_output@@V?$positional_parameter_base@DV?$stream_output_adapter@D@__crt_stdio_output@@@2@@__crt_stdio_output@@AAE_NXZ 1007b690 f i libucrtd:output.obj
 0001:0007a6c0       ?type_case_d@?$output_processor@DV?$stream_output_adapter@D@__crt_stdio_output@@V?$standard_base@DV?$stream_output_adapter@D@__crt_stdio_output@@@2@@__crt_stdio_output@@AAE_NXZ 1007b6c0 f i libucrtd:output.obj
 0001:0007a6f0       ?type_case_d@?$output_processor@DV?$string_output_adapter@D@__crt_stdio_output@@V?$format_validation_base@DV?$string_output_adapter@D@__crt_stdio_output@@@2@@__crt_stdio_output@@AAE_NXZ 1007b6f0 f i libucrtd:output.obj
 0001:0007a720       ?type_case_d@?$output_processor@DV?$string_output_adapter@D@__crt_stdio_output@@V?$positional_parameter_base@DV?$string_output_adapter@D@__crt_stdio_output@@@2@@__crt_stdio_output@@AAE_NXZ 1007b720 f i libucrtd:output.obj
 0001:0007a750       ?type_case_d@?$output_processor@DV?$string_output_adapter@D@__crt_stdio_output@@V?$standard_base@DV?$string_output_adapter@D@__crt_stdio_output@@@2@@__crt_stdio_output@@AAE_NXZ 1007b750 f i libucrtd:output.obj
 0001:0007a780       ?type_case_d@?$output_processor@_WV?$stream_output_adapter@_W@__crt_stdio_output@@V?$format_validation_base@_WV?$stream_output_adapter@_W@__crt_stdio_output@@@2@@__crt_stdio_output@@AAE_NXZ 1007b780 f i libucrtd:output.obj
 0001:0007a7b0       ?type_case_d@?$output_processor@_WV?$stream_output_adapter@_W@__crt_stdio_output@@V?$positional_parameter_base@_WV?$stream_output_adapter@_W@__crt_stdio_output@@@2@@__crt_stdio_output@@AAE_NXZ 1007b7b0 f i libucrtd:output.obj
 0001:0007a7e0       ?type_case_d@?$output_processor@_WV?$stream_output_adapter@_W@__crt_stdio_output@@V?$standard_base@_WV?$stream_output_adapter@_W@__crt_stdio_output@@@2@@__crt_stdio_output@@AAE_NXZ 1007b7e0 f i libucrtd:output.obj
 0001:0007a810       ?type_case_d@?$output_processor@_WV?$string_output_adapter@_W@__crt_stdio_output@@V?$format_validation_base@_WV?$string_output_adapter@_W@__crt_stdio_output@@@2@@__crt_stdio_output@@AAE_NXZ 1007b810 f i libucrtd:output.obj
 0001:0007a840       ?type_case_d@?$output_processor@_WV?$string_output_adapter@_W@__crt_stdio_output@@V?$positional_parameter_base@_WV?$string_output_adapter@_W@__crt_stdio_output@@@2@@__crt_stdio_output@@AAE_NXZ 1007b840 f i libucrtd:output.obj
 0001:0007a870       ?type_case_d@?$output_processor@_WV?$string_output_adapter@_W@__crt_stdio_output@@V?$standard_base@_WV?$string_output_adapter@_W@__crt_stdio_output@@@2@@__crt_stdio_output@@AAE_NXZ 1007b870 f i libucrtd:output.obj
 0001:0007a8a0       ?type_case_integer@?$output_processor@DV?$stream_output_adapter@D@__crt_stdio_output@@V?$format_validation_base@DV?$stream_output_adapter@D@__crt_stdio_output@@@2@@__crt_stdio_output@@AAE_NI_N@Z 1007b8a0 f i libucrtd:output.obj
 0001:0007acb0       ?type_case_integer@?$output_processor@DV?$stream_output_adapter@D@__crt_stdio_output@@V?$positional_parameter_base@DV?$stream_output_adapter@D@__crt_stdio_output@@@2@@__crt_stdio_output@@AAE_NI_N@Z 1007bcb0 f i libucrtd:output.obj
 0001:0007b0c0       ?type_case_integer@?$output_processor@DV?$stream_output_adapter@D@__crt_stdio_output@@V?$standard_base@DV?$stream_output_adapter@D@__crt_stdio_output@@@2@@__crt_stdio_output@@AAE_NI_N@Z 1007c0c0 f i libucrtd:output.obj
 0001:0007b4d0       ?type_case_integer@?$output_processor@DV?$string_output_adapter@D@__crt_stdio_output@@V?$format_validation_base@DV?$string_output_adapter@D@__crt_stdio_output@@@2@@__crt_stdio_output@@AAE_NI_N@Z 1007c4d0 f i libucrtd:output.obj
 0001:0007b8e0       ?type_case_integer@?$output_processor@DV?$string_output_adapter@D@__crt_stdio_output@@V?$positional_parameter_base@DV?$string_output_adapter@D@__crt_stdio_output@@@2@@__crt_stdio_output@@AAE_NI_N@Z 1007c8e0 f i libucrtd:output.obj
 0001:0007bcf0       ?type_case_integer@?$output_processor@DV?$string_output_adapter@D@__crt_stdio_output@@V?$standard_base@DV?$string_output_adapter@D@__crt_stdio_output@@@2@@__crt_stdio_output@@AAE_NI_N@Z 1007ccf0 f i libucrtd:output.obj
 0001:0007c100       ?type_case_integer@?$output_processor@_WV?$stream_output_adapter@_W@__crt_stdio_output@@V?$format_validation_base@_WV?$stream_output_adapter@_W@__crt_stdio_output@@@2@@__crt_stdio_output@@AAE_NI_N@Z 1007d100 f i libucrtd:output.obj
 0001:0007c510       ?type_case_integer@?$output_processor@_WV?$stream_output_adapter@_W@__crt_stdio_output@@V?$positional_parameter_base@_WV?$stream_output_adapter@_W@__crt_stdio_output@@@2@@__crt_stdio_output@@AAE_NI_N@Z 1007d510 f i libucrtd:output.obj
 0001:0007c920       ?type_case_integer@?$output_processor@_WV?$stream_output_adapter@_W@__crt_stdio_output@@V?$standard_base@_WV?$stream_output_adapter@_W@__crt_stdio_output@@@2@@__crt_stdio_output@@AAE_NI_N@Z 1007d920 f i libucrtd:output.obj
 0001:0007cd30       ?type_case_integer@?$output_processor@_WV?$string_output_adapter@_W@__crt_stdio_output@@V?$format_validation_base@_WV?$string_output_adapter@_W@__crt_stdio_output@@@2@@__crt_stdio_output@@AAE_NI_N@Z 1007dd30 f i libucrtd:output.obj
 0001:0007d140       ?type_case_integer@?$output_processor@_WV?$string_output_adapter@_W@__crt_stdio_output@@V?$positional_parameter_base@_WV?$string_output_adapter@_W@__crt_stdio_output@@@2@@__crt_stdio_output@@AAE_NI_N@Z 1007e140 f i libucrtd:output.obj
 0001:0007d550       ?type_case_integer@?$output_processor@_WV?$string_output_adapter@_W@__crt_stdio_output@@V?$standard_base@_WV?$string_output_adapter@_W@__crt_stdio_output@@@2@@__crt_stdio_output@@AAE_NI_N@Z 1007e550 f i libucrtd:output.obj
 0001:0007d960       ?type_case_n@?$output_processor@DV?$stream_output_adapter@D@__crt_stdio_output@@V?$format_validation_base@DV?$stream_output_adapter@D@__crt_stdio_output@@@2@@__crt_stdio_output@@AAE_NXZ 1007e960 f i libucrtd:output.obj
 0001:0007dbd0       ?type_case_n@?$output_processor@DV?$stream_output_adapter@D@__crt_stdio_output@@V?$positional_parameter_base@DV?$stream_output_adapter@D@__crt_stdio_output@@@2@@__crt_stdio_output@@AAE_NXZ 1007ebd0 f i libucrtd:output.obj
 0001:0007de40       ?type_case_n@?$output_processor@DV?$stream_output_adapter@D@__crt_stdio_output@@V?$standard_base@DV?$stream_output_adapter@D@__crt_stdio_output@@@2@@__crt_stdio_output@@AAE_NXZ 1007ee40 f i libucrtd:output.obj
 0001:0007e0b0       ?type_case_n@?$output_processor@DV?$string_output_adapter@D@__crt_stdio_output@@V?$format_validation_base@DV?$string_output_adapter@D@__crt_stdio_output@@@2@@__crt_stdio_output@@AAE_NXZ 1007f0b0 f i libucrtd:output.obj
 0001:0007e320       ?type_case_n@?$output_processor@DV?$string_output_adapter@D@__crt_stdio_output@@V?$positional_parameter_base@DV?$string_output_adapter@D@__crt_stdio_output@@@2@@__crt_stdio_output@@AAE_NXZ 1007f320 f i libucrtd:output.obj
 0001:0007e590       ?type_case_n@?$output_processor@DV?$string_output_adapter@D@__crt_stdio_output@@V?$standard_base@DV?$string_output_adapter@D@__crt_stdio_output@@@2@@__crt_stdio_output@@AAE_NXZ 1007f590 f i libucrtd:output.obj
 0001:0007e800       ?type_case_n@?$output_processor@_WV?$stream_output_adapter@_W@__crt_stdio_output@@V?$format_validation_base@_WV?$stream_output_adapter@_W@__crt_stdio_output@@@2@@__crt_stdio_output@@AAE_NXZ 1007f800 f i libucrtd:output.obj
 0001:0007ea70       ?type_case_n@?$output_processor@_WV?$stream_output_adapter@_W@__crt_stdio_output@@V?$positional_parameter_base@_WV?$stream_output_adapter@_W@__crt_stdio_output@@@2@@__crt_stdio_output@@AAE_NXZ 1007fa70 f i libucrtd:output.obj
 0001:0007ece0       ?type_case_n@?$output_processor@_WV?$stream_output_adapter@_W@__crt_stdio_output@@V?$standard_base@_WV?$stream_output_adapter@_W@__crt_stdio_output@@@2@@__crt_stdio_output@@AAE_NXZ 1007fce0 f i libucrtd:output.obj
 0001:0007ef50       ?type_case_n@?$output_processor@_WV?$string_output_adapter@_W@__crt_stdio_output@@V?$format_validation_base@_WV?$string_output_adapter@_W@__crt_stdio_output@@@2@@__crt_stdio_output@@AAE_NXZ 1007ff50 f i libucrtd:output.obj
 0001:0007f1c0       ?type_case_n@?$output_processor@_WV?$string_output_adapter@_W@__crt_stdio_output@@V?$positional_parameter_base@_WV?$string_output_adapter@_W@__crt_stdio_output@@@2@@__crt_stdio_output@@AAE_NXZ 100801c0 f i libucrtd:output.obj
 0001:0007f430       ?type_case_n@?$output_processor@_WV?$string_output_adapter@_W@__crt_stdio_output@@V?$standard_base@_WV?$string_output_adapter@_W@__crt_stdio_output@@@2@@__crt_stdio_output@@AAE_NXZ 10080430 f i libucrtd:output.obj
 0001:0007f6a0       ?type_case_o@?$output_processor@DV?$stream_output_adapter@D@__crt_stdio_output@@V?$format_validation_base@DV?$stream_output_adapter@D@__crt_stdio_output@@@2@@__crt_stdio_output@@AAE_NXZ 100806a0 f i libucrtd:output.obj
 0001:0007f6f0       ?type_case_o@?$output_processor@DV?$stream_output_adapter@D@__crt_stdio_output@@V?$positional_parameter_base@DV?$stream_output_adapter@D@__crt_stdio_output@@@2@@__crt_stdio_output@@AAE_NXZ 100806f0 f i libucrtd:output.obj
 0001:0007f740       ?type_case_o@?$output_processor@DV?$stream_output_adapter@D@__crt_stdio_output@@V?$standard_base@DV?$stream_output_adapter@D@__crt_stdio_output@@@2@@__crt_stdio_output@@AAE_NXZ 10080740 f i libucrtd:output.obj
 0001:0007f790       ?type_case_o@?$output_processor@DV?$string_output_adapter@D@__crt_stdio_output@@V?$format_validation_base@DV?$string_output_adapter@D@__crt_stdio_output@@@2@@__crt_stdio_output@@AAE_NXZ 10080790 f i libucrtd:output.obj
 0001:0007f7e0       ?type_case_o@?$output_processor@DV?$string_output_adapter@D@__crt_stdio_output@@V?$positional_parameter_base@DV?$string_output_adapter@D@__crt_stdio_output@@@2@@__crt_stdio_output@@AAE_NXZ 100807e0 f i libucrtd:output.obj
 0001:0007f830       ?type_case_o@?$output_processor@DV?$string_output_adapter@D@__crt_stdio_output@@V?$standard_base@DV?$string_output_adapter@D@__crt_stdio_output@@@2@@__crt_stdio_output@@AAE_NXZ 10080830 f i libucrtd:output.obj
 0001:0007f880       ?type_case_o@?$output_processor@_WV?$stream_output_adapter@_W@__crt_stdio_output@@V?$format_validation_base@_WV?$stream_output_adapter@_W@__crt_stdio_output@@@2@@__crt_stdio_output@@AAE_NXZ 10080880 f i libucrtd:output.obj
 0001:0007f8d0       ?type_case_o@?$output_processor@_WV?$stream_output_adapter@_W@__crt_stdio_output@@V?$positional_parameter_base@_WV?$stream_output_adapter@_W@__crt_stdio_output@@@2@@__crt_stdio_output@@AAE_NXZ 100808d0 f i libucrtd:output.obj
 0001:0007f920       ?type_case_o@?$output_processor@_WV?$stream_output_adapter@_W@__crt_stdio_output@@V?$standard_base@_WV?$stream_output_adapter@_W@__crt_stdio_output@@@2@@__crt_stdio_output@@AAE_NXZ 10080920 f i libucrtd:output.obj
 0001:0007f970       ?type_case_o@?$output_processor@_WV?$string_output_adapter@_W@__crt_stdio_output@@V?$format_validation_base@_WV?$string_output_adapter@_W@__crt_stdio_output@@@2@@__crt_stdio_output@@AAE_NXZ 10080970 f i libucrtd:output.obj
 0001:0007f9c0       ?type_case_o@?$output_processor@_WV?$string_output_adapter@_W@__crt_stdio_output@@V?$positional_parameter_base@_WV?$string_output_adapter@_W@__crt_stdio_output@@@2@@__crt_stdio_output@@AAE_NXZ 100809c0 f i libucrtd:output.obj
 0001:0007fa10       ?type_case_o@?$output_processor@_WV?$string_output_adapter@_W@__crt_stdio_output@@V?$standard_base@_WV?$string_output_adapter@_W@__crt_stdio_output@@@2@@__crt_stdio_output@@AAE_NXZ 10080a10 f i libucrtd:output.obj
 0001:0007fa60       ?type_case_p@?$output_processor@DV?$stream_output_adapter@D@__crt_stdio_output@@V?$format_validation_base@DV?$stream_output_adapter@D@__crt_stdio_output@@@2@@__crt_stdio_output@@AAE_NXZ 10080a60 f i libucrtd:output.obj
 0001:0007faa0       ?type_case_p@?$output_processor@DV?$stream_output_adapter@D@__crt_stdio_output@@V?$positional_parameter_base@DV?$stream_output_adapter@D@__crt_stdio_output@@@2@@__crt_stdio_output@@AAE_NXZ 10080aa0 f i libucrtd:output.obj
 0001:0007fae0       ?type_case_p@?$output_processor@DV?$stream_output_adapter@D@__crt_stdio_output@@V?$standard_base@DV?$stream_output_adapter@D@__crt_stdio_output@@@2@@__crt_stdio_output@@AAE_NXZ 10080ae0 f i libucrtd:output.obj
 0001:0007fb20       ?type_case_p@?$output_processor@DV?$string_output_adapter@D@__crt_stdio_output@@V?$format_validation_base@DV?$string_output_adapter@D@__crt_stdio_output@@@2@@__crt_stdio_output@@AAE_NXZ 10080b20 f i libucrtd:output.obj
 0001:0007fb60       ?type_case_p@?$output_processor@DV?$string_output_adapter@D@__crt_stdio_output@@V?$positional_parameter_base@DV?$string_output_adapter@D@__crt_stdio_output@@@2@@__crt_stdio_output@@AAE_NXZ 10080b60 f i libucrtd:output.obj
 0001:0007fba0       ?type_case_p@?$output_processor@DV?$string_output_adapter@D@__crt_stdio_output@@V?$standard_base@DV?$string_output_adapter@D@__crt_stdio_output@@@2@@__crt_stdio_output@@AAE_NXZ 10080ba0 f i libucrtd:output.obj
 0001:0007fbe0       ?type_case_p@?$output_processor@_WV?$stream_output_adapter@_W@__crt_stdio_output@@V?$format_validation_base@_WV?$stream_output_adapter@_W@__crt_stdio_output@@@2@@__crt_stdio_output@@AAE_NXZ 10080be0 f i libucrtd:output.obj
 0001:0007fc20       ?type_case_p@?$output_processor@_WV?$stream_output_adapter@_W@__crt_stdio_output@@V?$positional_parameter_base@_WV?$stream_output_adapter@_W@__crt_stdio_output@@@2@@__crt_stdio_output@@AAE_NXZ 10080c20 f i libucrtd:output.obj
 0001:0007fc60       ?type_case_p@?$output_processor@_WV?$stream_output_adapter@_W@__crt_stdio_output@@V?$standard_base@_WV?$stream_output_adapter@_W@__crt_stdio_output@@@2@@__crt_stdio_output@@AAE_NXZ 10080c60 f i libucrtd:output.obj
 0001:0007fca0       ?type_case_p@?$output_processor@_WV?$string_output_adapter@_W@__crt_stdio_output@@V?$format_validation_base@_WV?$string_output_adapter@_W@__crt_stdio_output@@@2@@__crt_stdio_output@@AAE_NXZ 10080ca0 f i libucrtd:output.obj
 0001:0007fce0       ?type_case_p@?$output_processor@_WV?$string_output_adapter@_W@__crt_stdio_output@@V?$positional_parameter_base@_WV?$string_output_adapter@_W@__crt_stdio_output@@@2@@__crt_stdio_output@@AAE_NXZ 10080ce0 f i libucrtd:output.obj
 0001:0007fd20       ?type_case_p@?$output_processor@_WV?$string_output_adapter@_W@__crt_stdio_output@@V?$standard_base@_WV?$string_output_adapter@_W@__crt_stdio_output@@@2@@__crt_stdio_output@@AAE_NXZ 10080d20 f i libucrtd:output.obj
 0001:0007fd60       ?type_case_s@?$output_processor@DV?$stream_output_adapter@D@__crt_stdio_output@@V?$format_validation_base@DV?$stream_output_adapter@D@__crt_stdio_output@@@2@@__crt_stdio_output@@AAE_NXZ 10080d60 f i libucrtd:output.obj
 0001:0007fe90       ?type_case_s@?$output_processor@DV?$stream_output_adapter@D@__crt_stdio_output@@V?$positional_parameter_base@DV?$stream_output_adapter@D@__crt_stdio_output@@@2@@__crt_stdio_output@@AAE_NXZ 10080e90 f i libucrtd:output.obj
 0001:0007ffc0       ?type_case_s@?$output_processor@DV?$stream_output_adapter@D@__crt_stdio_output@@V?$standard_base@DV?$stream_output_adapter@D@__crt_stdio_output@@@2@@__crt_stdio_output@@AAE_NXZ 10080fc0 f i libucrtd:output.obj
 0001:000800f0       ?type_case_s@?$output_processor@DV?$string_output_adapter@D@__crt_stdio_output@@V?$format_validation_base@DV?$string_output_adapter@D@__crt_stdio_output@@@2@@__crt_stdio_output@@AAE_NXZ 100810f0 f i libucrtd:output.obj
 0001:00080220       ?type_case_s@?$output_processor@DV?$string_output_adapter@D@__crt_stdio_output@@V?$positional_parameter_base@DV?$string_output_adapter@D@__crt_stdio_output@@@2@@__crt_stdio_output@@AAE_NXZ 10081220 f i libucrtd:output.obj
 0001:00080350       ?type_case_s@?$output_processor@DV?$string_output_adapter@D@__crt_stdio_output@@V?$standard_base@DV?$string_output_adapter@D@__crt_stdio_output@@@2@@__crt_stdio_output@@AAE_NXZ 10081350 f i libucrtd:output.obj
 0001:00080480       ?type_case_s@?$output_processor@_WV?$stream_output_adapter@_W@__crt_stdio_output@@V?$format_validation_base@_WV?$stream_output_adapter@_W@__crt_stdio_output@@@2@@__crt_stdio_output@@AAE_NXZ 10081480 f i libucrtd:output.obj
 0001:000805b0       ?type_case_s@?$output_processor@_WV?$stream_output_adapter@_W@__crt_stdio_output@@V?$positional_parameter_base@_WV?$stream_output_adapter@_W@__crt_stdio_output@@@2@@__crt_stdio_output@@AAE_NXZ 100815b0 f i libucrtd:output.obj
 0001:000806e0       ?type_case_s@?$output_processor@_WV?$stream_output_adapter@_W@__crt_stdio_output@@V?$standard_base@_WV?$stream_output_adapter@_W@__crt_stdio_output@@@2@@__crt_stdio_output@@AAE_NXZ 100816e0 f i libucrtd:output.obj
 0001:00080810       ?type_case_s@?$output_processor@_WV?$string_output_adapter@_W@__crt_stdio_output@@V?$format_validation_base@_WV?$string_output_adapter@_W@__crt_stdio_output@@@2@@__crt_stdio_output@@AAE_NXZ 10081810 f i libucrtd:output.obj
 0001:00080940       ?type_case_s@?$output_processor@_WV?$string_output_adapter@_W@__crt_stdio_output@@V?$positional_parameter_base@_WV?$string_output_adapter@_W@__crt_stdio_output@@@2@@__crt_stdio_output@@AAE_NXZ 10081940 f i libucrtd:output.obj
 0001:00080a70       ?type_case_s@?$output_processor@_WV?$string_output_adapter@_W@__crt_stdio_output@@V?$standard_base@_WV?$string_output_adapter@_W@__crt_stdio_output@@@2@@__crt_stdio_output@@AAE_NXZ 10081a70 f i libucrtd:output.obj
 0001:00080ba0       ?type_case_s_compute_narrow_string_length@?$output_processor@DV?$stream_output_adapter@D@__crt_stdio_output@@V?$format_validation_base@DV?$stream_output_adapter@D@__crt_stdio_output@@@2@@__crt_stdio_output@@ABEHHD@Z 10081ba0 f i libucrtd:output.obj
 0001:00080bd0       ?type_case_s_compute_narrow_string_length@?$output_processor@DV?$stream_output_adapter@D@__crt_stdio_output@@V?$positional_parameter_base@DV?$stream_output_adapter@D@__crt_stdio_output@@@2@@__crt_stdio_output@@ABEHHD@Z 10081bd0 f i libucrtd:output.obj
 0001:00080c00       ?type_case_s_compute_narrow_string_length@?$output_processor@DV?$stream_output_adapter@D@__crt_stdio_output@@V?$standard_base@DV?$stream_output_adapter@D@__crt_stdio_output@@@2@@__crt_stdio_output@@ABEHHD@Z 10081c00 f i libucrtd:output.obj
 0001:00080c30       ?type_case_s_compute_narrow_string_length@?$output_processor@DV?$string_output_adapter@D@__crt_stdio_output@@V?$format_validation_base@DV?$string_output_adapter@D@__crt_stdio_output@@@2@@__crt_stdio_output@@ABEHHD@Z 10081c30 f i libucrtd:output.obj
 0001:00080c60       ?type_case_s_compute_narrow_string_length@?$output_processor@DV?$string_output_adapter@D@__crt_stdio_output@@V?$positional_parameter_base@DV?$string_output_adapter@D@__crt_stdio_output@@@2@@__crt_stdio_output@@ABEHHD@Z 10081c60 f i libucrtd:output.obj
 0001:00080c90       ?type_case_s_compute_narrow_string_length@?$output_processor@DV?$string_output_adapter@D@__crt_stdio_output@@V?$standard_base@DV?$string_output_adapter@D@__crt_stdio_output@@@2@@__crt_stdio_output@@ABEHHD@Z 10081c90 f i libucrtd:output.obj
 0001:00080cc0       ?type_case_s_compute_narrow_string_length@?$output_processor@_WV?$stream_output_adapter@_W@__crt_stdio_output@@V?$format_validation_base@_WV?$stream_output_adapter@_W@__crt_stdio_output@@@2@@__crt_stdio_output@@ABEHH_W@Z 10081cc0 f i libucrtd:output.obj
 0001:00080d50       ?type_case_s_compute_narrow_string_length@?$output_processor@_WV?$stream_output_adapter@_W@__crt_stdio_output@@V?$positional_parameter_base@_WV?$stream_output_adapter@_W@__crt_stdio_output@@@2@@__crt_stdio_output@@ABEHH_W@Z 10081d50 f i libucrtd:output.obj
 0001:00080de0       ?type_case_s_compute_narrow_string_length@?$output_processor@_WV?$stream_output_adapter@_W@__crt_stdio_output@@V?$standard_base@_WV?$stream_output_adapter@_W@__crt_stdio_output@@@2@@__crt_stdio_output@@ABEHH_W@Z 10081de0 f i libucrtd:output.obj
 0001:00080e70       ?type_case_s_compute_narrow_string_length@?$output_processor@_WV?$string_output_adapter@_W@__crt_stdio_output@@V?$format_validation_base@_WV?$string_output_adapter@_W@__crt_stdio_output@@@2@@__crt_stdio_output@@ABEHH_W@Z 10081e70 f i libucrtd:output.obj
 0001:00080f00       ?type_case_s_compute_narrow_string_length@?$output_processor@_WV?$string_output_adapter@_W@__crt_stdio_output@@V?$positional_parameter_base@_WV?$string_output_adapter@_W@__crt_stdio_output@@@2@@__crt_stdio_output@@ABEHH_W@Z 10081f00 f i libucrtd:output.obj
 0001:00080f90       ?type_case_s_compute_narrow_string_length@?$output_processor@_WV?$string_output_adapter@_W@__crt_stdio_output@@V?$standard_base@_WV?$string_output_adapter@_W@__crt_stdio_output@@@2@@__crt_stdio_output@@ABEHH_W@Z 10081f90 f i libucrtd:output.obj
 0001:00081020       ?type_case_u@?$output_processor@DV?$stream_output_adapter@D@__crt_stdio_output@@V?$format_validation_base@DV?$stream_output_adapter@D@__crt_stdio_output@@@2@@__crt_stdio_output@@AAE_NXZ 10082020 f i libucrtd:output.obj
 0001:00081040       ?type_case_u@?$output_processor@DV?$stream_output_adapter@D@__crt_stdio_output@@V?$positional_parameter_base@DV?$stream_output_adapter@D@__crt_stdio_output@@@2@@__crt_stdio_output@@AAE_NXZ 10082040 f i libucrtd:output.obj
 0001:00081060       ?type_case_u@?$output_processor@DV?$stream_output_adapter@D@__crt_stdio_output@@V?$standard_base@DV?$stream_output_adapter@D@__crt_stdio_output@@@2@@__crt_stdio_output@@AAE_NXZ 10082060 f i libucrtd:output.obj
 0001:00081080       ?type_case_u@?$output_processor@DV?$string_output_adapter@D@__crt_stdio_output@@V?$format_validation_base@DV?$string_output_adapter@D@__crt_stdio_output@@@2@@__crt_stdio_output@@AAE_NXZ 10082080 f i libucrtd:output.obj
 0001:000810a0       ?type_case_u@?$output_processor@DV?$string_output_adapter@D@__crt_stdio_output@@V?$positional_parameter_base@DV?$string_output_adapter@D@__crt_stdio_output@@@2@@__crt_stdio_output@@AAE_NXZ 100820a0 f i libucrtd:output.obj
 0001:000810c0       ?type_case_u@?$output_processor@DV?$string_output_adapter@D@__crt_stdio_output@@V?$standard_base@DV?$string_output_adapter@D@__crt_stdio_output@@@2@@__crt_stdio_output@@AAE_NXZ 100820c0 f i libucrtd:output.obj
 0001:000810e0       ?type_case_u@?$output_processor@_WV?$stream_output_adapter@_W@__crt_stdio_output@@V?$format_validation_base@_WV?$stream_output_adapter@_W@__crt_stdio_output@@@2@@__crt_stdio_output@@AAE_NXZ 100820e0 f i libucrtd:output.obj
 0001:00081100       ?type_case_u@?$output_processor@_WV?$stream_output_adapter@_W@__crt_stdio_output@@V?$positional_parameter_base@_WV?$stream_output_adapter@_W@__crt_stdio_output@@@2@@__crt_stdio_output@@AAE_NXZ 10082100 f i libucrtd:output.obj
 0001:00081120       ?type_case_u@?$output_processor@_WV?$stream_output_adapter@_W@__crt_stdio_output@@V?$standard_base@_WV?$stream_output_adapter@_W@__crt_stdio_output@@@2@@__crt_stdio_output@@AAE_NXZ 10082120 f i libucrtd:output.obj
 0001:00081140       ?type_case_u@?$output_processor@_WV?$string_output_adapter@_W@__crt_stdio_output@@V?$format_validation_base@_WV?$string_output_adapter@_W@__crt_stdio_output@@@2@@__crt_stdio_output@@AAE_NXZ 10082140 f i libucrtd:output.obj
 0001:00081160       ?type_case_u@?$output_processor@_WV?$string_output_adapter@_W@__crt_stdio_output@@V?$positional_parameter_base@_WV?$string_output_adapter@_W@__crt_stdio_output@@@2@@__crt_stdio_output@@AAE_NXZ 10082160 f i libucrtd:output.obj
 0001:00081180       ?type_case_u@?$output_processor@_WV?$string_output_adapter@_W@__crt_stdio_output@@V?$standard_base@_WV?$string_output_adapter@_W@__crt_stdio_output@@@2@@__crt_stdio_output@@AAE_NXZ 10082180 f i libucrtd:output.obj
 0001:000811a0       ?type_case_x@?$output_processor@DV?$stream_output_adapter@D@__crt_stdio_output@@V?$format_validation_base@DV?$stream_output_adapter@D@__crt_stdio_output@@@2@@__crt_stdio_output@@AAE_NXZ 100821a0 f i libucrtd:output.obj
 0001:000811c0       ?type_case_x@?$output_processor@DV?$stream_output_adapter@D@__crt_stdio_output@@V?$positional_parameter_base@DV?$stream_output_adapter@D@__crt_stdio_output@@@2@@__crt_stdio_output@@AAE_NXZ 100821c0 f i libucrtd:output.obj
 0001:000811e0       ?type_case_x@?$output_processor@DV?$stream_output_adapter@D@__crt_stdio_output@@V?$standard_base@DV?$stream_output_adapter@D@__crt_stdio_output@@@2@@__crt_stdio_output@@AAE_NXZ 100821e0 f i libucrtd:output.obj
 0001:00081200       ?type_case_x@?$output_processor@DV?$string_output_adapter@D@__crt_stdio_output@@V?$format_validation_base@DV?$string_output_adapter@D@__crt_stdio_output@@@2@@__crt_stdio_output@@AAE_NXZ 10082200 f i libucrtd:output.obj
 0001:00081220       ?type_case_x@?$output_processor@DV?$string_output_adapter@D@__crt_stdio_output@@V?$positional_parameter_base@DV?$string_output_adapter@D@__crt_stdio_output@@@2@@__crt_stdio_output@@AAE_NXZ 10082220 f i libucrtd:output.obj
 0001:00081240       ?type_case_x@?$output_processor@DV?$string_output_adapter@D@__crt_stdio_output@@V?$standard_base@DV?$string_output_adapter@D@__crt_stdio_output@@@2@@__crt_stdio_output@@AAE_NXZ 10082240 f i libucrtd:output.obj
 0001:00081260       ?type_case_x@?$output_processor@_WV?$stream_output_adapter@_W@__crt_stdio_output@@V?$format_validation_base@_WV?$stream_output_adapter@_W@__crt_stdio_output@@@2@@__crt_stdio_output@@AAE_NXZ 10082260 f i libucrtd:output.obj
 0001:00081280       ?type_case_x@?$output_processor@_WV?$stream_output_adapter@_W@__crt_stdio_output@@V?$positional_parameter_base@_WV?$stream_output_adapter@_W@__crt_stdio_output@@@2@@__crt_stdio_output@@AAE_NXZ 10082280 f i libucrtd:output.obj
 0001:000812a0       ?type_case_x@?$output_processor@_WV?$stream_output_adapter@_W@__crt_stdio_output@@V?$standard_base@_WV?$stream_output_adapter@_W@__crt_stdio_output@@@2@@__crt_stdio_output@@AAE_NXZ 100822a0 f i libucrtd:output.obj
 0001:000812c0       ?type_case_x@?$output_processor@_WV?$string_output_adapter@_W@__crt_stdio_output@@V?$format_validation_base@_WV?$string_output_adapter@_W@__crt_stdio_output@@@2@@__crt_stdio_output@@AAE_NXZ 100822c0 f i libucrtd:output.obj
 0001:000812e0       ?type_case_x@?$output_processor@_WV?$string_output_adapter@_W@__crt_stdio_output@@V?$positional_parameter_base@_WV?$string_output_adapter@_W@__crt_stdio_output@@@2@@__crt_stdio_output@@AAE_NXZ 100822e0 f i libucrtd:output.obj
 0001:00081300       ?type_case_x@?$output_processor@_WV?$string_output_adapter@_W@__crt_stdio_output@@V?$standard_base@_WV?$string_output_adapter@_W@__crt_stdio_output@@@2@@__crt_stdio_output@@AAE_NXZ 10082300 f i libucrtd:output.obj
 0001:00081320       ?unset_flag@?$output_processor@DV?$stream_output_adapter@D@__crt_stdio_output@@V?$format_validation_base@DV?$stream_output_adapter@D@__crt_stdio_output@@@2@@__crt_stdio_output@@AAEXI@Z 10082320 f i libucrtd:output.obj
 0001:00081350       ?unset_flag@?$output_processor@DV?$stream_output_adapter@D@__crt_stdio_output@@V?$positional_parameter_base@DV?$stream_output_adapter@D@__crt_stdio_output@@@2@@__crt_stdio_output@@AAEXI@Z 10082350 f i libucrtd:output.obj
 0001:00081380       ?unset_flag@?$output_processor@DV?$stream_output_adapter@D@__crt_stdio_output@@V?$standard_base@DV?$stream_output_adapter@D@__crt_stdio_output@@@2@@__crt_stdio_output@@AAEXI@Z 10082380 f i libucrtd:output.obj
 0001:000813b0       ?unset_flag@?$output_processor@DV?$string_output_adapter@D@__crt_stdio_output@@V?$format_validation_base@DV?$string_output_adapter@D@__crt_stdio_output@@@2@@__crt_stdio_output@@AAEXI@Z 100823b0 f i libucrtd:output.obj
 0001:000813e0       ?unset_flag@?$output_processor@DV?$string_output_adapter@D@__crt_stdio_output@@V?$positional_parameter_base@DV?$string_output_adapter@D@__crt_stdio_output@@@2@@__crt_stdio_output@@AAEXI@Z 100823e0 f i libucrtd:output.obj
 0001:00081410       ?unset_flag@?$output_processor@DV?$string_output_adapter@D@__crt_stdio_output@@V?$standard_base@DV?$string_output_adapter@D@__crt_stdio_output@@@2@@__crt_stdio_output@@AAEXI@Z 10082410 f i libucrtd:output.obj
 0001:00081440       ?unset_flag@?$output_processor@_WV?$stream_output_adapter@_W@__crt_stdio_output@@V?$format_validation_base@_WV?$stream_output_adapter@_W@__crt_stdio_output@@@2@@__crt_stdio_output@@AAEXI@Z 10082440 f i libucrtd:output.obj
 0001:00081470       ?unset_flag@?$output_processor@_WV?$stream_output_adapter@_W@__crt_stdio_output@@V?$positional_parameter_base@_WV?$stream_output_adapter@_W@__crt_stdio_output@@@2@@__crt_stdio_output@@AAEXI@Z 10082470 f i libucrtd:output.obj
 0001:000814a0       ?unset_flag@?$output_processor@_WV?$stream_output_adapter@_W@__crt_stdio_output@@V?$standard_base@_WV?$stream_output_adapter@_W@__crt_stdio_output@@@2@@__crt_stdio_output@@AAEXI@Z 100824a0 f i libucrtd:output.obj
 0001:000814d0       ?unset_flag@?$output_processor@_WV?$string_output_adapter@_W@__crt_stdio_output@@V?$format_validation_base@_WV?$string_output_adapter@_W@__crt_stdio_output@@@2@@__crt_stdio_output@@AAEXI@Z 100824d0 f i libucrtd:output.obj
 0001:00081500       ?unset_flag@?$output_processor@_WV?$string_output_adapter@_W@__crt_stdio_output@@V?$positional_parameter_base@_WV?$string_output_adapter@_W@__crt_stdio_output@@@2@@__crt_stdio_output@@AAEXI@Z 10082500 f i libucrtd:output.obj
 0001:00081530       ?unset_flag@?$output_processor@_WV?$string_output_adapter@_W@__crt_stdio_output@@V?$standard_base@_WV?$string_output_adapter@_W@__crt_stdio_output@@@2@@__crt_stdio_output@@AAEXI@Z 10082530 f i libucrtd:output.obj
 0001:00081560       ?update_field_width@?$positional_parameter_base@DV?$stream_output_adapter@D@__crt_stdio_output@@@__crt_stdio_output@@IAE_NXZ 10082560 f i libucrtd:output.obj
 0001:00081740       ?update_field_width@?$positional_parameter_base@DV?$string_output_adapter@D@__crt_stdio_output@@@__crt_stdio_output@@IAE_NXZ 10082740 f i libucrtd:output.obj
 0001:00081920       ?update_field_width@?$positional_parameter_base@_WV?$stream_output_adapter@_W@__crt_stdio_output@@@__crt_stdio_output@@IAE_NXZ 10082920 f i libucrtd:output.obj
 0001:00081b00       ?update_field_width@?$positional_parameter_base@_WV?$string_output_adapter@_W@__crt_stdio_output@@@__crt_stdio_output@@IAE_NXZ 10082b00 f i libucrtd:output.obj
 0001:00081ce0       ?update_field_width@?$standard_base@DV?$stream_output_adapter@D@__crt_stdio_output@@@__crt_stdio_output@@IAE_NXZ 10082ce0 f i libucrtd:output.obj
 0001:00081d10       ?update_field_width@?$standard_base@DV?$string_output_adapter@D@__crt_stdio_output@@@__crt_stdio_output@@IAE_NXZ 10082d10 f i libucrtd:output.obj
 0001:00081d40       ?update_field_width@?$standard_base@_WV?$stream_output_adapter@_W@__crt_stdio_output@@@__crt_stdio_output@@IAE_NXZ 10082d40 f i libucrtd:output.obj
 0001:00081d70       ?update_field_width@?$standard_base@_WV?$string_output_adapter@_W@__crt_stdio_output@@@__crt_stdio_output@@IAE_NXZ 10082d70 f i libucrtd:output.obj
 0001:00081da0       ?update_precision@?$positional_parameter_base@DV?$stream_output_adapter@D@__crt_stdio_output@@@__crt_stdio_output@@IAE_NXZ 10082da0 f i libucrtd:output.obj
 0001:00081f80       ?update_precision@?$positional_parameter_base@DV?$string_output_adapter@D@__crt_stdio_output@@@__crt_stdio_output@@IAE_NXZ 10082f80 f i libucrtd:output.obj
 0001:00082160       ?update_precision@?$positional_parameter_base@_WV?$stream_output_adapter@_W@__crt_stdio_output@@@__crt_stdio_output@@IAE_NXZ 10083160 f i libucrtd:output.obj
 0001:00082340       ?update_precision@?$positional_parameter_base@_WV?$string_output_adapter@_W@__crt_stdio_output@@@__crt_stdio_output@@IAE_NXZ 10083340 f i libucrtd:output.obj
 0001:00082520       ?update_precision@?$standard_base@DV?$stream_output_adapter@D@__crt_stdio_output@@@__crt_stdio_output@@IAE_NXZ 10083520 f i libucrtd:output.obj
 0001:00082550       ?update_precision@?$standard_base@DV?$string_output_adapter@D@__crt_stdio_output@@@__crt_stdio_output@@IAE_NXZ 10083550 f i libucrtd:output.obj
 0001:00082580       ?update_precision@?$standard_base@_WV?$stream_output_adapter@_W@__crt_stdio_output@@@__crt_stdio_output@@IAE_NXZ 10083580 f i libucrtd:output.obj
 0001:000825b0       ?update_precision@?$standard_base@_WV?$string_output_adapter@_W@__crt_stdio_output@@@__crt_stdio_output@@IAE_NXZ 100835b0 f i libucrtd:output.obj
 0001:000825e0       ?valid@__crt_stdio_stream@@QBE_NXZ 100835e0 f i libucrtd:output.obj
 0001:00082620       ?validate@?$stream_output_adapter@D@__crt_stdio_output@@QBE_NXZ 10083620 f i libucrtd:output.obj
 0001:000826f0       ?validate@?$stream_output_adapter@_W@__crt_stdio_output@@QBE_NXZ 100836f0 f i libucrtd:output.obj
 0001:000827c0       ?validate@?$string_output_adapter@D@__crt_stdio_output@@QBE_NXZ 100837c0 f i libucrtd:output.obj
 0001:00082880       ?validate@?$string_output_adapter@_W@__crt_stdio_output@@QBE_NXZ 10083880 f i libucrtd:output.obj
 0001:00082940       ?validate_and_store_parameter_data@?$positional_parameter_base@DV?$stream_output_adapter@D@__crt_stdio_output@@@__crt_stdio_output@@AAE_NAAUparameter_data@12@W4parameter_type@12@DW4length_modifier@2@@Z 10083940 f i libucrtd:output.obj
 0001:00082a50       ?validate_and_store_parameter_data@?$positional_parameter_base@DV?$string_output_adapter@D@__crt_stdio_output@@@__crt_stdio_output@@AAE_NAAUparameter_data@12@W4parameter_type@12@DW4length_modifier@2@@Z 10083a50 f i libucrtd:output.obj
 0001:00082b60       ?validate_and_store_parameter_data@?$positional_parameter_base@_WV?$stream_output_adapter@_W@__crt_stdio_output@@@__crt_stdio_output@@AAE_NAAUparameter_data@12@W4parameter_type@12@_WW4length_modifier@2@@Z 10083b60 f i libucrtd:output.obj
 0001:00082c70       ?validate_and_store_parameter_data@?$positional_parameter_base@_WV?$string_output_adapter@_W@__crt_stdio_output@@@__crt_stdio_output@@AAE_NAAUparameter_data@12@W4parameter_type@12@_WW4length_modifier@2@@Z 10083c70 f i libucrtd:output.obj
 0001:00082d80       ?validate_and_update_state_at_beginning_of_format_character@?$positional_parameter_base@DV?$stream_output_adapter@D@__crt_stdio_output@@@__crt_stdio_output@@IAE_NXZ 10083d80 f i libucrtd:output.obj
 0001:00083030       ?validate_and_update_state_at_beginning_of_format_character@?$positional_parameter_base@DV?$string_output_adapter@D@__crt_stdio_output@@@__crt_stdio_output@@IAE_NXZ 10084030 f i libucrtd:output.obj
 0001:000832e0       ?validate_and_update_state_at_beginning_of_format_character@?$positional_parameter_base@_WV?$stream_output_adapter@_W@__crt_stdio_output@@@__crt_stdio_output@@IAE_NXZ 100842e0 f i libucrtd:output.obj
 0001:00083590       ?validate_and_update_state_at_beginning_of_format_character@?$positional_parameter_base@_WV?$string_output_adapter@_W@__crt_stdio_output@@@__crt_stdio_output@@IAE_NXZ 10084590 f i libucrtd:output.obj
 0001:00083840       ?validate_and_update_state_at_beginning_of_format_character@?$standard_base@DV?$stream_output_adapter@D@__crt_stdio_output@@@__crt_stdio_output@@IAE_NXZ 10084840 f i libucrtd:output.obj
 0001:00083860       ?validate_and_update_state_at_beginning_of_format_character@?$standard_base@DV?$string_output_adapter@D@__crt_stdio_output@@@__crt_stdio_output@@IAE_NXZ 10084860 f i libucrtd:output.obj
 0001:00083880       ?validate_and_update_state_at_beginning_of_format_character@?$standard_base@_WV?$stream_output_adapter@_W@__crt_stdio_output@@@__crt_stdio_output@@IAE_NXZ 10084880 f i libucrtd:output.obj
 0001:000838a0       ?validate_and_update_state_at_beginning_of_format_character@?$standard_base@_WV?$string_output_adapter@_W@__crt_stdio_output@@@__crt_stdio_output@@IAE_NXZ 100848a0 f i libucrtd:output.obj
 0001:000838c0       ?validate_and_update_state_at_end_of_format_string@?$format_validation_base@DV?$stream_output_adapter@D@__crt_stdio_output@@@__crt_stdio_output@@IBE_NXZ 100848c0 f i libucrtd:output.obj
 0001:00083980       ?validate_and_update_state_at_end_of_format_string@?$format_validation_base@DV?$string_output_adapter@D@__crt_stdio_output@@@__crt_stdio_output@@IBE_NXZ 10084980 f i libucrtd:output.obj
 0001:00083a40       ?validate_and_update_state_at_end_of_format_string@?$format_validation_base@_WV?$stream_output_adapter@_W@__crt_stdio_output@@@__crt_stdio_output@@IBE_NXZ 10084a40 f i libucrtd:output.obj
 0001:00083b00       ?validate_and_update_state_at_end_of_format_string@?$format_validation_base@_WV?$string_output_adapter@_W@__crt_stdio_output@@@__crt_stdio_output@@IBE_NXZ 10084b00 f i libucrtd:output.obj
 0001:00083bc0       ?validate_and_update_state_at_end_of_format_string@?$positional_parameter_base@DV?$stream_output_adapter@D@__crt_stdio_output@@@__crt_stdio_output@@IAE_NXZ 10084bc0 f i libucrtd:output.obj
 0001:00083dc0       ?validate_and_update_state_at_end_of_format_string@?$positional_parameter_base@DV?$string_output_adapter@D@__crt_stdio_output@@@__crt_stdio_output@@IAE_NXZ 10084dc0 f i libucrtd:output.obj
 0001:00083fc0       ?validate_and_update_state_at_end_of_format_string@?$positional_parameter_base@_WV?$stream_output_adapter@_W@__crt_stdio_output@@@__crt_stdio_output@@IAE_NXZ 10084fc0 f i libucrtd:output.obj
 0001:000841c0       ?validate_and_update_state_at_end_of_format_string@?$positional_parameter_base@_WV?$string_output_adapter@_W@__crt_stdio_output@@@__crt_stdio_output@@IAE_NXZ 100851c0 f i libucrtd:output.obj
 0001:000843c0       ?validate_and_update_state_at_end_of_format_string@?$standard_base@DV?$stream_output_adapter@D@__crt_stdio_output@@@__crt_stdio_output@@IBE_NXZ 100853c0 f i libucrtd:output.obj
 0001:000843e0       ?validate_and_update_state_at_end_of_format_string@?$standard_base@DV?$string_output_adapter@D@__crt_stdio_output@@@__crt_stdio_output@@IBE_NXZ 100853e0 f i libucrtd:output.obj
 0001:00084400       ?validate_and_update_state_at_end_of_format_string@?$standard_base@_WV?$stream_output_adapter@_W@__crt_stdio_output@@@__crt_stdio_output@@IBE_NXZ 10085400 f i libucrtd:output.obj
 0001:00084420       ?validate_and_update_state_at_end_of_format_string@?$standard_base@_WV?$string_output_adapter@_W@__crt_stdio_output@@@__crt_stdio_output@@IBE_NXZ 10085420 f i libucrtd:output.obj
 0001:00084440       ?validate_state_for_type_case_a@?$positional_parameter_base@DV?$stream_output_adapter@D@__crt_stdio_output@@@__crt_stdio_output@@IAE_NXZ 10085440 f i libucrtd:output.obj
 0001:00084570       ?validate_state_for_type_case_a@?$positional_parameter_base@DV?$string_output_adapter@D@__crt_stdio_output@@@__crt_stdio_output@@IAE_NXZ 10085570 f i libucrtd:output.obj
 0001:000846a0       ?validate_state_for_type_case_a@?$positional_parameter_base@_WV?$stream_output_adapter@_W@__crt_stdio_output@@@__crt_stdio_output@@IAE_NXZ 100856a0 f i libucrtd:output.obj
 0001:000847d0       ?validate_state_for_type_case_a@?$positional_parameter_base@_WV?$string_output_adapter@_W@__crt_stdio_output@@@__crt_stdio_output@@IAE_NXZ 100857d0 f i libucrtd:output.obj
 0001:00084900       ?validate_state_for_type_case_a@?$standard_base@DV?$stream_output_adapter@D@__crt_stdio_output@@@__crt_stdio_output@@IBE_NXZ 10085900 f i libucrtd:output.obj
 0001:00084920       ?validate_state_for_type_case_a@?$standard_base@DV?$string_output_adapter@D@__crt_stdio_output@@@__crt_stdio_output@@IBE_NXZ 10085920 f i libucrtd:output.obj
 0001:00084940       ?validate_state_for_type_case_a@?$standard_base@_WV?$stream_output_adapter@_W@__crt_stdio_output@@@__crt_stdio_output@@IBE_NXZ 10085940 f i libucrtd:output.obj
 0001:00084960       ?validate_state_for_type_case_a@?$standard_base@_WV?$string_output_adapter@_W@__crt_stdio_output@@@__crt_stdio_output@@IBE_NXZ 10085960 f i libucrtd:output.obj
 0001:00084980       ?validate_stream_is_ansi_if_required@?$__acrt_stdio_char_traits@D@@SA_NQAU_iobuf@@@Z 10085980 f i libucrtd:output.obj
 0001:00084b00       ?validate_stream_is_ansi_if_required@?$__acrt_stdio_char_traits@_W@@SA_NQAU_iobuf@@@Z 10085b00 f i libucrtd:output.obj
 0001:00084b10       ?wide_null_string@?$output_processor@DV?$stream_output_adapter@D@__crt_stdio_output@@V?$format_validation_base@DV?$stream_output_adapter@D@__crt_stdio_output@@@2@@__crt_stdio_output@@CAPA_WXZ 10085b10 f i libucrtd:output.obj
 0001:00084b20       ?wide_null_string@?$output_processor@DV?$stream_output_adapter@D@__crt_stdio_output@@V?$positional_parameter_base@DV?$stream_output_adapter@D@__crt_stdio_output@@@2@@__crt_stdio_output@@CAPA_WXZ 10085b20 f i libucrtd:output.obj
 0001:00084b30       ?wide_null_string@?$output_processor@DV?$stream_output_adapter@D@__crt_stdio_output@@V?$standard_base@DV?$stream_output_adapter@D@__crt_stdio_output@@@2@@__crt_stdio_output@@CAPA_WXZ 10085b30 f i libucrtd:output.obj
 0001:00084b40       ?wide_null_string@?$output_processor@DV?$string_output_adapter@D@__crt_stdio_output@@V?$format_validation_base@DV?$string_output_adapter@D@__crt_stdio_output@@@2@@__crt_stdio_output@@CAPA_WXZ 10085b40 f i libucrtd:output.obj
 0001:00084b50       ?wide_null_string@?$output_processor@DV?$string_output_adapter@D@__crt_stdio_output@@V?$positional_parameter_base@DV?$string_output_adapter@D@__crt_stdio_output@@@2@@__crt_stdio_output@@CAPA_WXZ 10085b50 f i libucrtd:output.obj
 0001:00084b60       ?wide_null_string@?$output_processor@DV?$string_output_adapter@D@__crt_stdio_output@@V?$standard_base@DV?$string_output_adapter@D@__crt_stdio_output@@@2@@__crt_stdio_output@@CAPA_WXZ 10085b60 f i libucrtd:output.obj
 0001:00084b70       ?wide_null_string@?$output_processor@_WV?$stream_output_adapter@_W@__crt_stdio_output@@V?$format_validation_base@_WV?$stream_output_adapter@_W@__crt_stdio_output@@@2@@__crt_stdio_output@@CAPA_WXZ 10085b70 f i libucrtd:output.obj
 0001:00084b80       ?wide_null_string@?$output_processor@_WV?$stream_output_adapter@_W@__crt_stdio_output@@V?$positional_parameter_base@_WV?$stream_output_adapter@_W@__crt_stdio_output@@@2@@__crt_stdio_output@@CAPA_WXZ 10085b80 f i libucrtd:output.obj
 0001:00084b90       ?wide_null_string@?$output_processor@_WV?$stream_output_adapter@_W@__crt_stdio_output@@V?$standard_base@_WV?$stream_output_adapter@_W@__crt_stdio_output@@@2@@__crt_stdio_output@@CAPA_WXZ 10085b90 f i libucrtd:output.obj
 0001:00084ba0       ?wide_null_string@?$output_processor@_WV?$string_output_adapter@_W@__crt_stdio_output@@V?$format_validation_base@_WV?$string_output_adapter@_W@__crt_stdio_output@@@2@@__crt_stdio_output@@CAPA_WXZ 10085ba0 f i libucrtd:output.obj
 0001:00084bb0       ?wide_null_string@?$output_processor@_WV?$string_output_adapter@_W@__crt_stdio_output@@V?$positional_parameter_base@_WV?$string_output_adapter@_W@__crt_stdio_output@@@2@@__crt_stdio_output@@CAPA_WXZ 10085bb0 f i libucrtd:output.obj
 0001:00084bc0       ?wide_null_string@?$output_processor@_WV?$string_output_adapter@_W@__crt_stdio_output@@V?$standard_base@_WV?$string_output_adapter@_W@__crt_stdio_output@@@2@@__crt_stdio_output@@CAPA_WXZ 10085bc0 f i libucrtd:output.obj
 0001:00084bd0       ?write_character@?$stream_output_adapter@D@__crt_stdio_output@@QBEXDQAH@Z 10085bd0 f i libucrtd:output.obj
 0001:00084c70       ?write_character@?$stream_output_adapter@_W@__crt_stdio_output@@QBEX_WQAH@Z 10085c70 f i libucrtd:output.obj
 0001:00084d10       ?write_character@?$string_output_adapter@D@__crt_stdio_output@@QBE_NDQAH@Z 10085d10 f i libucrtd:output.obj
 0001:00084dd0       ?write_character@?$string_output_adapter@_W@__crt_stdio_output@@QBE_N_WQAH@Z 10085dd0 f i libucrtd:output.obj
 0001:00084e90       ?write_stored_string_tchar@?$output_processor@DV?$stream_output_adapter@D@__crt_stdio_output@@V?$format_validation_base@DV?$stream_output_adapter@D@__crt_stdio_output@@@2@@__crt_stdio_output@@AAE_ND@Z 10085e90 f i libucrtd:output.obj
 0001:00084fe0       ?write_stored_string_tchar@?$output_processor@DV?$stream_output_adapter@D@__crt_stdio_output@@V?$positional_parameter_base@DV?$stream_output_adapter@D@__crt_stdio_output@@@2@@__crt_stdio_output@@AAE_ND@Z 10085fe0 f i libucrtd:output.obj
 0001:00085130       ?write_stored_string_tchar@?$output_processor@DV?$stream_output_adapter@D@__crt_stdio_output@@V?$standard_base@DV?$stream_output_adapter@D@__crt_stdio_output@@@2@@__crt_stdio_output@@AAE_ND@Z 10086130 f i libucrtd:output.obj
 0001:00085280       ?write_stored_string_tchar@?$output_processor@DV?$string_output_adapter@D@__crt_stdio_output@@V?$format_validation_base@DV?$string_output_adapter@D@__crt_stdio_output@@@2@@__crt_stdio_output@@AAE_ND@Z 10086280 f i libucrtd:output.obj
 0001:000853d0       ?write_stored_string_tchar@?$output_processor@DV?$string_output_adapter@D@__crt_stdio_output@@V?$positional_parameter_base@DV?$string_output_adapter@D@__crt_stdio_output@@@2@@__crt_stdio_output@@AAE_ND@Z 100863d0 f i libucrtd:output.obj
 0001:00085520       ?write_stored_string_tchar@?$output_processor@DV?$string_output_adapter@D@__crt_stdio_output@@V?$standard_base@DV?$string_output_adapter@D@__crt_stdio_output@@@2@@__crt_stdio_output@@AAE_ND@Z 10086520 f i libucrtd:output.obj
 0001:00085670       ?write_stored_string_tchar@?$output_processor@_WV?$stream_output_adapter@_W@__crt_stdio_output@@V?$format_validation_base@_WV?$stream_output_adapter@_W@__crt_stdio_output@@@2@@__crt_stdio_output@@AAE_N_W@Z 10086670 f i libucrtd:output.obj
 0001:00085790       ?write_stored_string_tchar@?$output_processor@_WV?$stream_output_adapter@_W@__crt_stdio_output@@V?$positional_parameter_base@_WV?$stream_output_adapter@_W@__crt_stdio_output@@@2@@__crt_stdio_output@@AAE_N_W@Z 10086790 f i libucrtd:output.obj
 0001:000858b0       ?write_stored_string_tchar@?$output_processor@_WV?$stream_output_adapter@_W@__crt_stdio_output@@V?$standard_base@_WV?$stream_output_adapter@_W@__crt_stdio_output@@@2@@__crt_stdio_output@@AAE_N_W@Z 100868b0 f i libucrtd:output.obj
 0001:000859d0       ?write_stored_string_tchar@?$output_processor@_WV?$string_output_adapter@_W@__crt_stdio_output@@V?$format_validation_base@_WV?$string_output_adapter@_W@__crt_stdio_output@@@2@@__crt_stdio_output@@AAE_N_W@Z 100869d0 f i libucrtd:output.obj
 0001:00085af0       ?write_stored_string_tchar@?$output_processor@_WV?$string_output_adapter@_W@__crt_stdio_output@@V?$positional_parameter_base@_WV?$string_output_adapter@_W@__crt_stdio_output@@@2@@__crt_stdio_output@@AAE_N_W@Z 10086af0 f i libucrtd:output.obj
 0001:00085c10       ?write_stored_string_tchar@?$output_processor@_WV?$string_output_adapter@_W@__crt_stdio_output@@V?$standard_base@_WV?$string_output_adapter@_W@__crt_stdio_output@@@2@@__crt_stdio_output@@AAE_N_W@Z 10086c10 f i libucrtd:output.obj
 0001:00085d30       ?write_string@?$stream_output_adapter@D@__crt_stdio_output@@QBEXQBDHQAH1@Z 10086d30 f i libucrtd:output.obj
 0001:00085e10       ?write_string@?$stream_output_adapter@_W@__crt_stdio_output@@QBEXQB_WHQAH1@Z 10086e10 f i libucrtd:output.obj
 0001:00085ef0       ?write_string@?$string_output_adapter@D@__crt_stdio_output@@QBEXQBDHQAH1@Z 10086ef0 f i libucrtd:output.obj
 0001:00086050       ?write_string@?$string_output_adapter@_W@__crt_stdio_output@@QBEXQB_WHQAH1@Z 10087050 f i libucrtd:output.obj
 0001:000861b0       ___acrt_isleadbyte_l_noupdate 100871b0 f i libucrtd:output.obj
 0001:000861e0       ___stdio_common_vfprintf   100871e0 f   libucrtd:output.obj
 0001:00086210       ___stdio_common_vfprintf_p 10087210 f   libucrtd:output.obj
 0001:00086240       ___stdio_common_vfprintf_s 10087240 f   libucrtd:output.obj
 0001:00086270       ___stdio_common_vfwprintf  10087270 f   libucrtd:output.obj
 0001:000862a0       ___stdio_common_vfwprintf_p 100872a0 f   libucrtd:output.obj
 0001:000862d0       ___stdio_common_vfwprintf_s 100872d0 f   libucrtd:output.obj
 0001:00086300       ___stdio_common_vsnprintf_s 10087300 f   libucrtd:output.obj
 0001:00086340       ___stdio_common_vsnwprintf_s 10087340 f   libucrtd:output.obj
 0001:00086380       ___stdio_common_vsprintf   10087380 f   libucrtd:output.obj
 0001:000863c0       ___stdio_common_vsprintf_p 100873c0 f   libucrtd:output.obj
 0001:00086400       ___stdio_common_vsprintf_s 10087400 f   libucrtd:output.obj
 0001:00086440       ___stdio_common_vswprintf  10087440 f   libucrtd:output.obj
 0001:00086480       ___stdio_common_vswprintf_p 10087480 f   libucrtd:output.obj
 0001:000864c0       ___stdio_common_vswprintf_s 100874c0 f   libucrtd:output.obj
 0001:00087080       __makepath                 10088080 f   libucrtd:makepath.obj
 0001:000870b0       __makepath_s               100880b0 f   libucrtd:makepath.obj
 0001:000870e0       __wmakepath                100880e0 f   libucrtd:makepath.obj
 0001:00087110       __wmakepath_s              10088110 f   libucrtd:makepath.obj
 0001:00088fa0       ??$tcsncpy_s@AAPADIAAPBDABI@?$__crt_char_traits@D@@SAHAAPAD$$QAIAAPBDABI@Z 10089fa0 f i libucrtd:splitpath.obj
 0001:00088fd0       ??$tcsncpy_s@AAPADIAAPBDH@?$__crt_char_traits@D@@SAHAAPAD$$QAIAAPBD$$QAH@Z 10089fd0 f i libucrtd:splitpath.obj
 0001:00089000       ??$tcsncpy_s@AAPA_WIAAPB_WABI@?$__crt_char_traits@_W@@SAHAAPA_W$$QAIAAPB_WABI@Z 1008a000 f i libucrtd:splitpath.obj
 0001:00089030       ??$tcsncpy_s@AAPA_WIAAPB_WH@?$__crt_char_traits@_W@@SAHAAPA_W$$QAIAAPB_W$$QAH@Z 1008a030 f i libucrtd:splitpath.obj
 0001:00089280       __splitpath                1008a280 f   libucrtd:splitpath.obj
 0001:000892b0       __splitpath_s              1008a2b0 f   libucrtd:splitpath.obj
 0001:00089310       __wsplitpath               1008a310 f   libucrtd:splitpath.obj
 0001:00089340       __wsplitpath_s             1008a340 f   libucrtd:splitpath.obj
 0001:00089780       _wcscpy_s                  1008a780 f   libucrtd:wcscpy_s.obj
 0001:000897b0       __set_abort_behavior       1008a7b0 f   libucrtd:abort.obj
 0001:000897f0       _abort                     1008a7f0 f   libucrtd:abort.obj
 0001:00089c50       _strcpy_s                  1008ac50 f   libucrtd:strcpy_s.obj
 0001:00089c80       _strcmp                    1008ac80 f   libucrtd:strcmp.obj
 0001:00089d30       _strlen                    1008ad30 f   libucrtd:strlen.obj
 0001:00089de0       ??$is_overflow_condition@K@__crt_strtox@@YA_NIK@Z 1008ade0 f i libucrtd:atox.obj
 0001:00089e50       ??$is_overflow_condition@_K@__crt_strtox@@YA_NI_K@Z 1008ae50 f i libucrtd:atox.obj
 0001:00089f00       ??$make_c_string_character_source@D$$T@__crt_strtox@@YA?AV?$c_string_character_source@D@0@QBD$$T@Z 1008af00 f i libucrtd:atox.obj
 0001:00089f20       ??$make_c_string_character_source@_W$$T@__crt_strtox@@YA?AV?$c_string_character_source@_W@0@QB_W$$T@Z 1008af20 f i libucrtd:atox.obj
 0001:00089f40       ??$parse_integer@KV?$c_string_character_source@D@__crt_strtox@@@__crt_strtox@@YAKQAU__crt_locale_pointers@@V?$c_string_character_source@D@0@H_N@Z 1008af40 f i libucrtd:atox.obj
 0001:0008a390       ??$parse_integer@KV?$c_string_character_source@_W@__crt_strtox@@@__crt_strtox@@YAKQAU__crt_locale_pointers@@V?$c_string_character_source@_W@0@H_N@Z 1008b390 f i libucrtd:atox.obj
 0001:0008a7e0       ??$parse_integer@_KV?$c_string_character_source@D@__crt_strtox@@@__crt_strtox@@YA_KQAU__crt_locale_pointers@@V?$c_string_character_source@D@0@H_N@Z 1008b7e0 f i libucrtd:atox.obj
 0001:0008ad00       ??$parse_integer@_KV?$c_string_character_source@_W@__crt_strtox@@@__crt_strtox@@YA_KQAU__crt_locale_pointers@@V?$c_string_character_source@_W@0@H_N@Z 1008bd00 f i libucrtd:atox.obj
 0001:0008b240       ??$parse_integer_from_string@JD$$T@__crt_strtox@@YAJQBD$$THQAU__crt_locale_pointers@@@Z 1008c240 f i libucrtd:atox.obj
 0001:0008b290       ??$parse_integer_from_string@J_W$$T@__crt_strtox@@YAJQB_W$$THQAU__crt_locale_pointers@@@Z 1008c290 f i libucrtd:atox.obj
 0001:0008b2e0       ??$parse_integer_from_string@_JD$$T@__crt_strtox@@YA_JQBD$$THQAU__crt_locale_pointers@@@Z 1008c2e0 f i libucrtd:atox.obj
 0001:0008b330       ??$parse_integer_from_string@_J_W$$T@__crt_strtox@@YA_JQB_W$$THQAU__crt_locale_pointers@@@Z 1008c330 f i libucrtd:atox.obj
 0001:0008b380       ??0?$c_string_character_source@D@__crt_strtox@@QAE@QBDQAPBD@Z 1008c380 f i libucrtd:atox.obj
 0001:0008b3c0       ??0?$c_string_character_source@_W@__crt_strtox@@QAE@QB_WQAPB_W@Z 1008c3c0 f i libucrtd:atox.obj
 0001:0008b400       ??1?$c_string_character_source@D@__crt_strtox@@QAE@XZ 1008c400 f i libucrtd:atox.obj
 0001:0008b430       ??1?$c_string_character_source@_W@__crt_strtox@@QAE@XZ 1008c430 f i libucrtd:atox.obj
 0001:0008b460       ?get@?$c_string_character_source@D@__crt_strtox@@QAEDXZ 1008c460 f i libucrtd:atox.obj
 0001:0008b4a0       ?get@?$c_string_character_source@_W@__crt_strtox@@QAE_WXZ 1008c4a0 f i libucrtd:atox.obj
 0001:0008b4e0       ?is_space@__crt_strtox@@YA_NDQAU__crt_locale_pointers@@@Z 1008c4e0 f i libucrtd:atox.obj
 0001:0008b530       ?is_space@__crt_strtox@@YA_N_WPAU__crt_locale_pointers@@@Z 1008c530 f i libucrtd:atox.obj
 0001:0008b570       ?maximum_signed_value@__crt_strtox@@YAJK@Z 1008c570 f i libucrtd:atox.obj
 0001:0008b580       ?maximum_signed_value@__crt_strtox@@YA_J_K@Z 1008c580 f i libucrtd:atox.obj
 0001:0008b5a0       ?minimum_signed_value@__crt_strtox@@YAJK@Z 1008c5a0 f i libucrtd:atox.obj
 0001:0008b5b0       ?minimum_signed_value@__crt_strtox@@YA_J_K@Z 1008c5b0 f i libucrtd:atox.obj
 0001:0008b5d0       ?parse_digit@__crt_strtox@@YAID@Z 1008c5d0 f i libucrtd:atox.obj
 0001:0008b650       ?parse_digit@__crt_strtox@@YAI_W@Z 1008c650 f i libucrtd:atox.obj
 0001:0008b6f0       ?restore_state@?$c_string_character_source@D@__crt_strtox@@QAE_NQBD@Z 1008c6f0 f i libucrtd:atox.obj
 0001:0008b710       ?restore_state@?$c_string_character_source@_W@__crt_strtox@@QAE_NQB_W@Z 1008c710 f i libucrtd:atox.obj
 0001:0008b730       ?save_state@?$c_string_character_source@D@__crt_strtox@@QBEPBDXZ 1008c730 f i libucrtd:atox.obj
 0001:0008b750       ?save_state@?$c_string_character_source@_W@__crt_strtox@@QBEPB_WXZ 1008c750 f i libucrtd:atox.obj
 0001:0008b770       ?unget@?$c_string_character_source@D@__crt_strtox@@QAEXD@Z 1008c770 f i libucrtd:atox.obj
 0001:0008b840       ?unget@?$c_string_character_source@_W@__crt_strtox@@QAEX_W@Z 1008c840 f i libucrtd:atox.obj
 0001:0008b910       ?validate@?$c_string_character_source@D@__crt_strtox@@QBE_NXZ 1008c910 f i libucrtd:atox.obj
 0001:0008b9d0       ?validate@?$c_string_character_source@_W@__crt_strtox@@QBE_NXZ 1008c9d0 f i libucrtd:atox.obj
 0001:0008ba90       ?wide_character_to_digit@__crt_strtox@@YAH_W@Z 1008ca90 f i libucrtd:atox.obj
 0001:0008be80       __atoi64                   1008ce80 f   libucrtd:atox.obj
 0001:0008bea0       __atoi64_l                 1008cea0 f   libucrtd:atox.obj
 0001:0008bed0       __atoi_l                   1008ced0 f   libucrtd:atox.obj
 0001:0008bf00       __atol_l                   1008cf00 f   libucrtd:atox.obj
 0001:0008bf30       __atoll_l                  1008cf30 f   libucrtd:atox.obj
 0001:0008bf60       __wtoi                     1008cf60 f   libucrtd:atox.obj
 0001:0008bf80       __wtoi64                   1008cf80 f   libucrtd:atox.obj
 0001:0008bfa0       __wtoi64_l                 1008cfa0 f   libucrtd:atox.obj
 0001:0008bfd0       __wtoi_l                   1008cfd0 f   libucrtd:atox.obj
 0001:0008c000       __wtol                     1008d000 f   libucrtd:atox.obj
 0001:0008c020       __wtol_l                   1008d020 f   libucrtd:atox.obj
 0001:0008c050       __wtoll                    1008d050 f   libucrtd:atox.obj
 0001:0008c070       __wtoll_l                  1008d070 f   libucrtd:atox.obj
 0001:0008c0a0       _atoi                      1008d0a0 f   libucrtd:atox.obj
 0001:0008c0c0       _atol                      1008d0c0 f   libucrtd:atox.obj
 0001:0008c0e0       _atoll                     1008d0e0 f   libucrtd:atox.obj
 0001:0008c100       __add_exp                  1008d100 f   libucrtd:util.obj
 0001:0008c140       __decomp                   1008d140 f   libucrtd:util.obj
 0001:0008c2b0       __get_exp                  1008d2b0 f   libucrtd:util.obj
 0001:0008c2f0       __set_bexp                 1008d2f0 f   libucrtd:util.obj
 0001:0008c330       __set_exp                  1008d330 f   libucrtd:util.obj
 0001:0008c380       __sptype                   1008d380 f   libucrtd:util.obj
 0001:0008c420       ___clrfp_sse2              1008d420 f   libucrtd:fpctrl.obj
 0001:0008c470       ___ctrlfp_sse2             1008d470 f   libucrtd:fpctrl.obj
 0001:0008c4e0       ___fclrf_sse2              1008d4e0 f   libucrtd:fpctrl.obj
 0001:0008c510       ___get_fpsr_sse2           1008d510 f   libucrtd:fpctrl.obj
 0001:0008c540       ___set_fpsr_sse2           1008d540 f   libucrtd:fpctrl.obj
 0001:0008c650       ___set_statfp_sse2         1008d650 f   libucrtd:fpctrl.obj
 0001:0008c690       ___statfp_sse2             1008d690 f   libucrtd:fpctrl.obj
 0001:0008c6d0       __clrfp                    1008d6d0 f   libucrtd:fpctrl.obj
 0001:0008c6f0       __ctrlfp                   1008d6f0 f   libucrtd:fpctrl.obj
 0001:0008c730       __set_statfp               1008d730 f   libucrtd:fpctrl.obj
 0001:0008c7b0       __statfp                   1008d7b0 f   libucrtd:fpctrl.obj
 0001:0008c7d0       __trandisp1                1008d7d0 f   libucrtd:87disp.obj
 0001:0008c837       __trandisp2                1008d837 f   libucrtd:87disp.obj
 0001:0008c8c3       __rttospopde               1008d8c3     libucrtd:87disp.obj
 0001:0008c8c8       __rttospop                 1008d8c8     libucrtd:87disp.obj
 0001:0008c8ca       __rtnospop                 1008d8ca     libucrtd:87disp.obj
 0001:0008c8cc       __rttosnpop                1008d8cc     libucrtd:87disp.obj
 0001:0008c8cd       __rtnospopde               1008d8cd     libucrtd:87disp.obj
 0001:0008c8d4       __rtzeropop                1008d8d4     libucrtd:87disp.obj
 0001:0008c8d6       __rtzeronpop               1008d8d6     libucrtd:87disp.obj
 0001:0008c8db       __rtzerospop               1008d8db     libucrtd:87disp.obj
 0001:0008c8e8       __rtonepop                 1008d8e8     libucrtd:87disp.obj
 0001:0008c8ea       __rtonenpop                1008d8ea     libucrtd:87disp.obj
 0001:0008c8ef       __tosnan1                  1008d8ef     libucrtd:87disp.obj
 0001:0008c91a       __nosnan2                  1008d91a     libucrtd:87disp.obj
 0001:0008c91c       __tosnan2                  1008d91c     libucrtd:87disp.obj
 0001:0008c944       __nan2                     1008d944     libucrtd:87disp.obj
 0001:0008c983       __rtindfpop                1008d983     libucrtd:87disp.obj
 0001:0008c985       __rtindfnpop               1008d985     libucrtd:87disp.obj
 0001:0008c996       __rttosnpopde              1008d996     libucrtd:87disp.obj
 0001:0008c9a0       __rtatan2inf               1008d9a0     libucrtd:87disp.obj
 0001:0008c9bd       __rtchsifneg               1008d9bd     libucrtd:87disp.obj
 0001:0008ca50       ___setfflag                1008da50 f   libucrtd:fp_flags.obj
 0001:0008ca80       __startTwoArgErrorHandling 1008da80 f   libucrtd:genexcep.obj
 0001:0008ca97       __startOneArgErrorHandling 1008da97 f   libucrtd:genexcep.obj
 0001:0008caf0       __twoToTOS                 1008daf0 f   libucrtd:common.obj
 0001:0008cb05       __load_CW                  1008db05 f   libucrtd:common.obj
 0001:0008cb1c       __convertTOStoQNaN         1008db1c f   libucrtd:common.obj
 0001:0008cb35       __fload_withFB             1008db35 f   libucrtd:common.obj
 0001:0008cb78       __checkTOS_withFB          1008db78 f   libucrtd:common.obj
 0001:0008cb8e       __fast_exit                1008db8e f   libucrtd:common.obj
 0001:0008cb9b       __math_exit                1008db9b f   libucrtd:common.obj
 0001:0008cbc5       __check_overflow_exit      1008dbc5 f   libucrtd:common.obj
 0001:0008cbd9       __check_range_exit         1008dbd9 f   libucrtd:common.obj
 0001:0008cce0       _ldexp                     1008dce0 f   libucrtd:ldexp.obj
 0001:0008d070       _nextafter                 1008e070 f   libucrtd:nextafter.obj
 0001:0008d0a0       ??$__crt_fast_decode_pointer@P6AXPB_W00II@Z@@YAP6AXPB_W00II@ZQ6AX000II@Z@Z 1008e0a0 f i libucrtd:invalid_parameter.obj
 0001:0008d0e0       ??$__crt_fast_encode_pointer@P6AXPB_W00II@Z@@YAP6AXPB_W00II@ZQ6AX000II@Z@Z 1008e0e0 f i libucrtd:invalid_parameter.obj
 0001:0008d120       ?initialize@?$dual_state_global@P6AXPB_W00II@Z@__crt_state_management@@QAEXQ6AXPB_W00II@Z@Z 1008e120 f i libucrtd:invalid_parameter.obj
 0001:0008d170       ?value@?$dual_state_global@P6AXPB_W00II@Z@__crt_state_management@@QAEAAP6AXPB_W00II@ZXZ 1008e170 f i libucrtd:invalid_parameter.obj
 0001:0008d190       ___acrt_call_reportfault   1008e190 f   libucrtd:invalid_parameter.obj
 0001:0008d340       ___acrt_initialize_invalid_parameter_handler 1008e340 f   libucrtd:invalid_parameter.obj
 0001:0008d360       __get_invalid_parameter_handler 1008e360 f   libucrtd:invalid_parameter.obj
 0001:0008d390       __get_thread_local_invalid_parameter_handler 1008e390 f   libucrtd:invalid_parameter.obj
 0001:0008d3c0       __invalid_parameter        1008e3c0 f   libucrtd:invalid_parameter.obj
 0001:0008d4c0       __invalid_parameter_noinfo 1008e4c0 f   libucrtd:invalid_parameter.obj
 0001:0008d4e0       __invalid_parameter_noinfo_noreturn 1008e4e0 f   libucrtd:invalid_parameter.obj
 0001:0008d520       __invoke_watson            1008e520 f   libucrtd:invalid_parameter.obj
 0001:0008d570       __set_invalid_parameter_handler 1008e570 f   libucrtd:invalid_parameter.obj
 0001:0008d5d0       __set_thread_local_invalid_parameter_handler 1008e5d0 f   libucrtd:invalid_parameter.obj
 0001:0008d610       __CrtGetReportHook         1008e610 f   libucrtd:dbgrptt.obj
 0001:0008d620       __CrtSetReportFile         1008e620 f   libucrtd:dbgrptt.obj
 0001:0008d750       __CrtSetReportHook         1008e750 f   libucrtd:dbgrptt.obj
 0001:0008d780       __CrtSetReportMode         1008e780 f   libucrtd:dbgrptt.obj
 0001:0008d910       __VCrtDbgReportA           1008e910 f   libucrtd:dbgrptt.obj
 0001:0008e3d0       __VCrtDbgReportW           1008f3d0 f   libucrtd:dbgrptt.obj
 0001:0008eff0       __snprintf_s               1008fff0 f i libucrtd:dbgrptt.obj
 0001:0008f050       __vsnprintf_s              10090050 f i libucrtd:dbgrptt.obj
 0001:0008f080       __vsnprintf_s_l            10090080 f i libucrtd:dbgrptt.obj
 0001:0008f0f0       __vsnwprintf_s             100900f0 f i libucrtd:dbgrptt.obj
 0001:0008f120       ___acrt_errno_from_os_error 10090120 f   libucrtd:errno.obj
 0001:0008f1c0       ___acrt_errno_map_os_error 100901c0 f   libucrtd:errno.obj
 0001:0008f200       ___doserrno                10090200 f   libucrtd:errno.obj
 0001:0008f230       __errno                    10090230 f   libucrtd:errno.obj
 0001:0008f260       __get_doserrno             10090260 f   libucrtd:errno.obj
 0001:0008f310       __get_errno                10090310 f   libucrtd:errno.obj
 0001:0008f3c0       __set_doserrno             100903c0 f   libucrtd:errno.obj
 0001:0008f400       __set_errno                10090400 f   libucrtd:errno.obj
 0001:0008f440       _wcslen                    10090440 f   libucrtd:wcslen.obj
 0001:0008f830       ??$message_box@$$TAAPBDAAPBDAAI@?$__crt_char_traits@D@@SAH$$QA$$TAAPBD1AAI@Z 10090830 f i libucrtd:crtmbox.obj
 0001:0008f860       ??$message_box@$$TAAPB_WAAPB_WAAI@?$__crt_char_traits@_W@@SAH$$QA$$TAAPB_W1AAI@Z 10090860 f i libucrtd:crtmbox.obj
 0001:0008f890       ??$message_box@$$TABQBDABQBDK@?$__crt_char_traits@D@@SAH$$QA$$TABQBD1$$QAK@Z 10090890 f i libucrtd:crtmbox.obj
 0001:0008f8c0       ??$message_box@$$TABQB_WABQB_WK@?$__crt_char_traits@_W@@SAH$$QA$$TABQB_W1$$QAK@Z 100908c0 f i libucrtd:crtmbox.obj
 0001:0008f8f0       ??$message_box@PAUHWND__@@ABQBDABQBDABI@?$__crt_char_traits@D@@SAH$$QAPAUHWND__@@ABQBD1ABI@Z 100908f0 f i libucrtd:crtmbox.obj
 0001:0008f920       ??$message_box@PAUHWND__@@ABQB_WABQB_WABI@?$__crt_char_traits@_W@@SAH$$QAPAUHWND__@@ABQB_W1ABI@Z 10090920 f i libucrtd:crtmbox.obj
 0001:0008fa10       ??$output_debug_string@ABQBD@?$__crt_char_traits@D@@SAXABQBD@Z 10090a10 f i libucrtd:crtmbox.obj
 0001:0008fa30       ??$output_debug_string@ABQB_W@?$__crt_char_traits@_W@@SAXABQB_W@Z 10090a30 f i libucrtd:crtmbox.obj
 0001:0008fa50       ??0?$__crt_unique_handle_t@U__crt_handle_traits@@@@QAE@QAX@Z 10090a50 f i libucrtd:crtmbox.obj
 0001:0008fa70       ??1?$__crt_unique_handle_t@U__crt_handle_traits@@@@QAE@XZ 10090a70 f i libucrtd:crtmbox.obj
 0001:0008fa90       ??B?$__crt_unique_handle_t@U__crt_handle_traits@@@@QBE_NXZ 10090a90 f i libucrtd:crtmbox.obj
 0001:0008fab0       ?close@?$__crt_unique_handle_t@U__crt_handle_traits@@@@QAEXXZ 10090ab0 f i libucrtd:crtmbox.obj
 0001:0008faf0       ?close@__crt_handle_traits@@SA_NPAX@Z 10090af0 f i libucrtd:crtmbox.obj
 0001:0008fb30       ?get@?$__crt_unique_handle_t@U__crt_handle_traits@@@@QBEPAXXZ 10090b30 f i libucrtd:crtmbox.obj
 0001:0008fb50       ?get_invalid_value@__crt_handle_traits@@SAPAXXZ 10090b50 f i libucrtd:crtmbox.obj
 0001:0008fb60       ?is_valid@?$__crt_unique_handle_t@U__crt_handle_traits@@@@QBE_NXZ 10090b60 f i libucrtd:crtmbox.obj
 0001:0008fba0       ___acrt_show_narrow_message_box 10090ba0 f   libucrtd:crtmbox.obj
 0001:0008fbd0       ___acrt_show_wide_message_box 10090bd0 f   libucrtd:crtmbox.obj
 0001:0008fc00       ___acrt_initialize_locks   10090c00 f   libucrtd:locks.obj
 0001:0008fc80       ___acrt_lock               10090c80 f   libucrtd:locks.obj
 0001:0008fca0       ___acrt_uninitialize_locks 10090ca0 f   libucrtd:locks.obj
 0001:0008fd00       ___acrt_unlock             10090d00 f   libucrtd:locks.obj
 0001:0008fd20       __lock_locales             10090d20 f   libucrtd:locks.obj
 0001:0008fd40       __unlock_locales           10090d40 f   libucrtd:locks.obj
 0001:0008fd60       ??$?B$$A6AXH@Z@__crt_fast_encoded_nullptr_t@@QBEP6AXH@ZXZ 10090d60 f i libucrtd:signal.obj
 0001:0008fd80       ??$?RV<lambda_a048d3beccc847880fc8490e18b82769>@@AAV<lambda_ec61778202f4f5fc7e7711acc23c3bca>@@V<lambda_f7496a158712204296dd6628a163878e>@@@?$__crt_seh_guarded_call@P6AXH@Z@@QAEP6AXH@Z$$QAV<lambda_a048d3beccc847880fc8490e18b82769>@@AAV<lambda_ec61778202f4f5fc7e7711acc23c3bca>@@$$QAV<lambda_f7496a158712204296dd6628a163878e>@@@Z 10090d80 f i libucrtd:signal.obj
 0001:0008fe30       ??$__acrt_lock_and_call@V<lambda_ec61778202f4f5fc7e7711acc23c3bca>@@@@YAP6AXH@ZW4__acrt_lock_id@@$$QAV<lambda_ec61778202f4f5fc7e7711acc23c3bca>@@@Z 10090e30 f i libucrtd:signal.obj
 0001:0008fe80       ??$__crt_fast_decode_pointer@P6AXH@Z@@YAP6AXH@ZQ6AXH@Z@Z 10090e80 f i libucrtd:signal.obj
 0001:0008fec0       ??$__crt_fast_encode_pointer@P6AXH@Z@@YAP6AXH@ZQ6AXH@Z@Z 10090ec0 f i libucrtd:signal.obj
 0001:00090240       ?initialize@?$dual_state_global@P6AXH@Z@__crt_state_management@@QAEXQ6AXH@Z@Z 10091240 f i libucrtd:signal.obj
 0001:00090360       ?value@?$dual_state_global@P6AXH@Z@__crt_state_management@@QAEAAP6AXH@ZXZ 10091360 f i libucrtd:signal.obj
 0001:00090380       ___acrt_get_sigabrt_handler 10091380 f   libucrtd:signal.obj
 0001:000903a0       ___acrt_initialize_signal_handlers 100913a0 f   libucrtd:signal.obj
 0001:000903f0       ___fpecode                 100913f0 f   libucrtd:signal.obj
 0001:00090410       ___pxcptinfoptrs           10091410 f   libucrtd:signal.obj
 0001:00090430       _raise                     10091430 f   libucrtd:signal.obj
 0001:00090900       _signal                    10091900 f   libucrtd:signal.obj
 0001:00090c30       ??$__crt_fast_decode_pointer@P6AHPAU_exception@@@Z@@YAP6AHPAU_exception@@@ZQ6AH0@Z@Z 10091c30 f i libucrtd:matherr.obj
 0001:00090c70       ??$__crt_fast_encode_pointer@P6AHPAU_exception@@@Z@@YAP6AHPAU_exception@@@ZQ6AH0@Z@Z 10091c70 f i libucrtd:matherr.obj
 0001:00090cb0       ?initialize@?$dual_state_global@P6AHPAU_exception@@@Z@__crt_state_management@@QAEXQ6AHPAU_exception@@@Z@Z 10091cb0 f i libucrtd:matherr.obj
 0001:00090d00       ?value@?$dual_state_global@P6AHPAU_exception@@@Z@__crt_state_management@@QAEAAP6AHPAU_exception@@@ZXZ 10091d00 f i libucrtd:matherr.obj
 0001:00090d20       ___acrt_has_user_matherr   10091d20 f   libucrtd:matherr.obj
 0001:00090d70       ___acrt_initialize_user_matherr 10091d70 f   libucrtd:matherr.obj
 0001:00090d90       ___acrt_invoke_user_matherr 10091d90 f   libucrtd:matherr.obj
 0001:00090e10       ___setusermatherr          10091e10 f   libucrtd:matherr.obj
 0001:00090e40       ??$?B$$A6AHI@Z@__crt_fast_encoded_nullptr_t@@QBEP6AHI@ZXZ 10091e40 f i libucrtd:new_handler.obj
 0001:00090e60       ??$__crt_fast_decode_pointer@P6AHI@Z@@YAP6AHI@ZQ6AHI@Z@Z 10091e60 f i libucrtd:new_handler.obj
 0001:00090ea0       ??$__crt_fast_encode_pointer@P6AHI@Z@@YAP6AHI@ZQ6AHI@Z@Z 10091ea0 f i libucrtd:new_handler.obj
 0001:00090ee0       ?_set_new_handler@@YAP6AHI@ZH@Z 10091ee0 f   libucrtd:new_handler.obj
 0001:00090f50       ?initialize@?$dual_state_global@P6AHI@Z@__crt_state_management@@QAEXQ6AHI@Z@Z 10091f50 f i libucrtd:new_handler.obj
 0001:00090fa0       ?value@?$dual_state_global@P6AHI@Z@__crt_state_management@@QAEAAP6AHI@ZXZ 10091fa0 f i libucrtd:new_handler.obj
 0001:00090fc0       ___acrt_initialize_new_handler 10091fc0 f   libucrtd:new_handler.obj
 0001:00090fe0       __callnewh                 10091fe0 f   libucrtd:new_handler.obj
 0001:00091050       __query_new_handler        10092050 f   libucrtd:new_handler.obj
 0001:00091110       __set_new_handler          10092110 f   libucrtd:new_handler.obj
 0001:000911f0       ??$__crt_interlocked_exchange_pointer@X$$T@@YAPAXPDSAX$$T@Z 100921f0 f i libucrtd:free_base.obj
 0001:00091220       ___acrt_get_msvcrt_heap_handle 10092220 f   libucrtd:free_base.obj
 0001:00091310       __free_base                10092310 f   libucrtd:free_base.obj
 0001:00091370       __msize                    10092370 f   libucrtd:msize.obj
 0001:00091390       __realloc_base             10092390 f   libucrtd:realloc_base.obj
 0001:00091450       __aligned_free             10092450 f   libucrtd:align.obj
 0001:00091470       __aligned_free_base        10092470 f   libucrtd:align.obj
 0001:000914c0       __aligned_malloc           100924c0 f   libucrtd:align.obj
 0001:000914f0       __aligned_malloc_base      100924f0 f   libucrtd:align.obj
 0001:00091510       __aligned_msize            10092510 f   libucrtd:align.obj
 0001:00091540       __aligned_msize_base       10092540 f   libucrtd:align.obj
 0001:000916c0       __aligned_offset_malloc    100926c0 f   libucrtd:align.obj
 0001:000916f0       __aligned_offset_malloc_base 100926f0 f   libucrtd:align.obj
 0001:00091910       __aligned_offset_realloc   10092910 f   libucrtd:align.obj
 0001:00091940       __aligned_offset_realloc_base 10092940 f   libucrtd:align.obj
 0001:00091d20       __aligned_offset_recalloc  10092d20 f   libucrtd:align.obj
 0001:00091d50       __aligned_offset_recalloc_base 10092d50 f   libucrtd:align.obj
 0001:00091e30       __aligned_realloc          10092e30 f   libucrtd:align.obj
 0001:00091e60       __aligned_realloc_base     10092e60 f   libucrtd:align.obj
 0001:00091e90       __aligned_recalloc         10092e90 f   libucrtd:align.obj
 0001:00091ec0       __aligned_recalloc_base    10092ec0 f   libucrtd:align.obj
 0001:00091ef0       __chvalidator              10092ef0 f   libucrtd:isctype.obj
 0001:00091f50       __chvalidator_l            10092f50 f   libucrtd:isctype.obj
 0001:00092010       __isctype                  10093010 f   libucrtd:isctype.obj
 0001:00092060       __isctype_l                10093060 f   libucrtd:isctype.obj
 0001:00092240       ??$?RU__acrt_ptd@@@__crt_internal_free_policy@@QBEXQBU__acrt_ptd@@@Z 10093240 f i libucrtd:per_thread_data.obj
 0001:00092270       ??$?RV<lambda_3518db117f0e7cdb002338c5d3c47b6c>@@AAV<lambda_b2ea41f6bbb362cd97d94c6828d90b61>@@V<lambda_abdedf541bb04549bc734292b4a045d4>@@@?$__crt_seh_guarded_call@X@@QAEX$$QAV<lambda_3518db117f0e7cdb002338c5d3c47b6c>@@AAV<lambda_b2ea41f6bbb362cd97d94c6828d90b61>@@$$QAV<lambda_abdedf541bb04549bc734292b4a045d4>@@@Z 10093270 f i libucrtd:per_thread_data.obj
 0001:00092310       ??$?RV<lambda_5b71d36f03204c0beab531769a5b5694>@@AAV<lambda_be2b3da3f62db62e9dad5dc70221a656>@@V<lambda_8f9ce462984622f9bf76b59e2aaaf805>@@@?$__crt_seh_guarded_call@X@@QAEX$$QAV<lambda_5b71d36f03204c0beab531769a5b5694>@@AAV<lambda_be2b3da3f62db62e9dad5dc70221a656>@@$$QAV<lambda_8f9ce462984622f9bf76b59e2aaaf805>@@@Z 10093310 f i libucrtd:per_thread_data.obj
 0001:000923b0       ??$?RV<lambda_952b238c83a62ef8e81c72265e1e9aa0>@@AAV<lambda_801f60a70ab65355beb13c41cbe335bb>@@V<lambda_84d84f98815add542a0d6e6ca338feb2>@@@?$__crt_seh_guarded_call@X@@QAEX$$QAV<lambda_952b238c83a62ef8e81c72265e1e9aa0>@@AAV<lambda_801f60a70ab65355beb13c41cbe335bb>@@$$QAV<lambda_84d84f98815add542a0d6e6ca338feb2>@@@Z 100933b0 f i libucrtd:per_thread_data.obj
 0001:00092450       ??$?RV<lambda_9df27f884b057bc3edfc946cb5b7cf47>@@AAV<lambda_e69574bed617af4e071282c136b37893>@@V<lambda_cc0d902bcbbeb830f749456577db4721>@@@?$__crt_seh_guarded_call@X@@QAEX$$QAV<lambda_9df27f884b057bc3edfc946cb5b7cf47>@@AAV<lambda_e69574bed617af4e071282c136b37893>@@$$QAV<lambda_cc0d902bcbbeb830f749456577db4721>@@@Z 10093450 f i libucrtd:per_thread_data.obj
 0001:000924f0       ??$__acrt_lock_and_call@V<lambda_801f60a70ab65355beb13c41cbe335bb>@@@@YAXW4__acrt_lock_id@@$$QAV<lambda_801f60a70ab65355beb13c41cbe335bb>@@@Z 100934f0 f i libucrtd:per_thread_data.obj
 0001:00092540       ??$__acrt_lock_and_call@V<lambda_b2ea41f6bbb362cd97d94c6828d90b61>@@@@YAXW4__acrt_lock_id@@$$QAV<lambda_b2ea41f6bbb362cd97d94c6828d90b61>@@@Z 10093540 f i libucrtd:per_thread_data.obj
 0001:00092590       ??$__acrt_lock_and_call@V<lambda_be2b3da3f62db62e9dad5dc70221a656>@@@@YAXW4__acrt_lock_id@@$$QAV<lambda_be2b3da3f62db62e9dad5dc70221a656>@@@Z 10093590 f i libucrtd:per_thread_data.obj
 0001:000925e0       ??$__acrt_lock_and_call@V<lambda_e69574bed617af4e071282c136b37893>@@@@YAXW4__acrt_lock_id@@$$QAV<lambda_e69574bed617af4e071282c136b37893>@@@Z 100935e0 f i libucrtd:per_thread_data.obj
 0001:00092840       ??0?$__crt_unique_heap_ptr@U__acrt_ptd@@U__crt_internal_free_policy@@@@QAE@QAU__acrt_ptd@@@Z 10093840 f i libucrtd:per_thread_data.obj
 0001:00092860       ??0__crt_scoped_get_last_error_reset@@QAE@XZ 10093860 f i libucrtd:per_thread_data.obj
 0001:00092890       ??1?$__crt_unique_heap_ptr@U__acrt_ptd@@U__crt_internal_free_policy@@@@QAE@XZ 10093890 f i libucrtd:per_thread_data.obj
 0001:000928b0       ??1__crt_scoped_get_last_error_reset@@QAE@XZ 100938b0 f i libucrtd:per_thread_data.obj
 0001:000928d0       ??B?$__crt_unique_heap_ptr@U__acrt_ptd@@U__crt_internal_free_policy@@@@QBE_NXZ 100938d0 f i libucrtd:per_thread_data.obj
 0001:00092c90       ?dangerous_get_state_array@?$dual_state_global@PAU__crt_locale_data@@@__crt_state_management@@QAEPAPAU__crt_locale_data@@XZ 10093c90 f i libucrtd:per_thread_data.obj
 0001:00092e70       ?detach@?$__crt_unique_heap_ptr@U__acrt_ptd@@U__crt_internal_free_policy@@@@QAEPAU__acrt_ptd@@XZ 10093e70 f i libucrtd:per_thread_data.obj
 0001:00092ea0       ?get@?$__crt_unique_heap_ptr@U__acrt_ptd@@U__crt_internal_free_policy@@@@QBEPAU__acrt_ptd@@XZ 10093ea0 f i libucrtd:per_thread_data.obj
 0001:00093020       ?is_valid@?$__crt_unique_heap_ptr@U__acrt_ptd@@U__crt_internal_free_policy@@@@QBE_NXZ 10094020 f i libucrtd:per_thread_data.obj
 0001:00093060       ?release@?$__crt_unique_heap_ptr@U__acrt_ptd@@U__crt_internal_free_policy@@@@QAEXXZ 10094060 f i libucrtd:per_thread_data.obj
 0001:00093180       ?value@?$dual_state_global@PAU__crt_locale_data@@@__crt_state_management@@QAEAAPAU__crt_locale_data@@XZ 10094180 f i libucrtd:per_thread_data.obj
 0001:000931a0       ___acrt_freeptd            100941a0 f   libucrtd:per_thread_data.obj
 0001:000931e0       ___acrt_getptd             100941e0 f   libucrtd:per_thread_data.obj
 0001:00093210       ___acrt_getptd_noexit      10094210 f   libucrtd:per_thread_data.obj
 0001:00093220       ___acrt_initialize_ptd     10094220 f   libucrtd:per_thread_data.obj
 0001:00093270       ___acrt_uninitialize_ptd   10094270 f   libucrtd:per_thread_data.obj
 0001:000932a0       ___threadhandle            100942a0 f   libucrtd:per_thread_data.obj
 0001:000932b0       ___threadid                100942b0 f   libucrtd:per_thread_data.obj
 0001:00093320       __expand                   10094320 f   libucrtd:expand.obj
 0001:00093350       __expand_base              10094350 f   libucrtd:expand.obj
 0001:000934d0       ___acrt_update_locale_info 100944d0 f   libucrtd:locale_update.obj
 0001:00093520       ___acrt_update_multibyte_info 10094520 f   libucrtd:locale_update.obj
 0001:00093560       ?value@?$dual_state_global@J@__crt_state_management@@QAEAAJXZ 10094560 f i libucrtd:new_mode.obj
 0001:00093580       __query_new_mode           10094580 f   libucrtd:new_mode.obj
 0001:000935a0       __set_new_mode             100945a0 f   libucrtd:new_mode.obj
 0001:00093670       __CrtDefaultAllocHook      10094670 f   libucrtd:debug_heap_hook.obj
 0001:00093690       ??$?RU__crt_locale_data@@@__crt_internal_free_policy@@QBEXQBU__crt_locale_data@@@Z 10094690 f i libucrtd:wsetlocale.obj
 0001:000936c0       ??$?RU__crt_locale_pointers@@@__crt_internal_free_policy@@QBEXQBU__crt_locale_pointers@@@Z 100946c0 f i libucrtd:wsetlocale.obj
 0001:000936f0       ??$?RU__crt_multibyte_data@@@__crt_internal_free_policy@@QBEXQBU__crt_multibyte_data@@@Z 100946f0 f i libucrtd:wsetlocale.obj
 0001:00093720       ??$?RV<lambda_0f92d0c5a8007722f95b3b6c71cd8e3e>@@AAV<lambda_321f9d61c14d59ff00145e45db1313e0>@@V<lambda_3298c911d7b53f44106027a7fde9a80a>@@@?$__crt_seh_guarded_call@X@@QAEX$$QAV<lambda_0f92d0c5a8007722f95b3b6c71cd8e3e>@@AAV<lambda_321f9d61c14d59ff00145e45db1313e0>@@$$QAV<lambda_3298c911d7b53f44106027a7fde9a80a>@@@Z 10094720 f i libucrtd:wsetlocale.obj
 0001:000937c0       ??$?RV<lambda_507d9fd6b66e39451a8852ba73f804a7>@@AAV<lambda_565169b3e3b494427ce1bebdd17b54ac>@@AAV<lambda_f51fe5fd7c79a33db34fc9310f277369>@@@?$__crt_seh_guarded_call@X@@QAEX$$QAV<lambda_507d9fd6b66e39451a8852ba73f804a7>@@AAV<lambda_565169b3e3b494427ce1bebdd17b54ac>@@AAV<lambda_f51fe5fd7c79a33db34fc9310f277369>@@@Z 100947c0 f i libucrtd:wsetlocale.obj
 0001:00093860       ??$?RV<lambda_76aaead6e312921abc834cb00a638bdd>@@AAV<lambda_176e34f99554166dd2fac165c457248c>@@V<lambda_998ee1c9f4290b119b936bcd6215875a>@@@?$__crt_seh_guarded_call@X@@QAEX$$QAV<lambda_76aaead6e312921abc834cb00a638bdd>@@AAV<lambda_176e34f99554166dd2fac165c457248c>@@$$QAV<lambda_998ee1c9f4290b119b936bcd6215875a>@@@Z 10094860 f i libucrtd:wsetlocale.obj
 0001:00093900       ??$?RV<lambda_c9469061b39d205f0f236529d4a41659>@@AAV<lambda_b7fb1a997d3ebc0cc0186c5835178808>@@V<lambda_14b92c79d699846b5cc916cd4cf280e4>@@@?$__crt_seh_guarded_call@X@@QAEX$$QAV<lambda_c9469061b39d205f0f236529d4a41659>@@AAV<lambda_b7fb1a997d3ebc0cc0186c5835178808>@@$$QAV<lambda_14b92c79d699846b5cc916cd4cf280e4>@@@Z 10094900 f i libucrtd:wsetlocale.obj
 0001:000939a0       ??$__acrt_lock_and_call@V<lambda_176e34f99554166dd2fac165c457248c>@@@@YAXW4__acrt_lock_id@@$$QAV<lambda_176e34f99554166dd2fac165c457248c>@@@Z 100949a0 f i libucrtd:wsetlocale.obj
 0001:000939f0       ??$__acrt_lock_and_call@V<lambda_321f9d61c14d59ff00145e45db1313e0>@@@@YAXW4__acrt_lock_id@@$$QAV<lambda_321f9d61c14d59ff00145e45db1313e0>@@@Z 100949f0 f i libucrtd:wsetlocale.obj
 0001:00093a40       ??$__acrt_lock_and_call@V<lambda_b7fb1a997d3ebc0cc0186c5835178808>@@@@YAXW4__acrt_lock_id@@$$QAV<lambda_b7fb1a997d3ebc0cc0186c5835178808>@@@Z 10094a40 f i libucrtd:wsetlocale.obj
 0001:00093a90       ??$__crt_call_and_cleanup@V<lambda_565169b3e3b494427ce1bebdd17b54ac>@@V<lambda_f51fe5fd7c79a33db34fc9310f277369>@@@@YAX$$QAV<lambda_565169b3e3b494427ce1bebdd17b54ac>@@$$QAV<lambda_f51fe5fd7c79a33db34fc9310f277369>@@@Z 10094a90 f i libucrtd:wsetlocale.obj
 0001:00093ac0       ??$__vcrt_va_start_verify_argument_type@H@@YAXXZ 10094ac0 f i libucrtd:wsetlocale.obj
 0001:00093cf0       ??0?$__crt_unique_heap_ptr@U__crt_locale_data@@U__crt_internal_free_policy@@@@QAE@QAU__crt_locale_data@@@Z 10094cf0 f i libucrtd:wsetlocale.obj
 0001:00093d10       ??0?$__crt_unique_heap_ptr@U__crt_locale_pointers@@U__crt_internal_free_policy@@@@QAE@QAU__crt_locale_pointers@@@Z 10094d10 f i libucrtd:wsetlocale.obj
 0001:00093d30       ??0?$__crt_unique_heap_ptr@U__crt_multibyte_data@@U__crt_internal_free_policy@@@@QAE@QAU__crt_multibyte_data@@@Z 10094d30 f i libucrtd:wsetlocale.obj
 0001:00093d50       ??1?$__crt_unique_heap_ptr@U__crt_locale_data@@U__crt_internal_free_policy@@@@QAE@XZ 10094d50 f i libucrtd:wsetlocale.obj
 0001:00093d70       ??1?$__crt_unique_heap_ptr@U__crt_locale_pointers@@U__crt_internal_free_policy@@@@QAE@XZ 10094d70 f i libucrtd:wsetlocale.obj
 0001:00093d90       ??1?$__crt_unique_heap_ptr@U__crt_multibyte_data@@U__crt_internal_free_policy@@@@QAE@XZ 10094d90 f i libucrtd:wsetlocale.obj
 0001:00093db0       ??B?$__crt_unique_heap_ptr@U__crt_locale_data@@U__crt_internal_free_policy@@@@QBE_NXZ 10094db0 f i libucrtd:wsetlocale.obj
 0001:00093dd0       ??B?$__crt_unique_heap_ptr@U__crt_locale_pointers@@U__crt_internal_free_policy@@@@QBE_NXZ 10094dd0 f i libucrtd:wsetlocale.obj
 0001:00093df0       ??B?$__crt_unique_heap_ptr@U__crt_multibyte_data@@U__crt_internal_free_policy@@@@QBE_NXZ 10094df0 f i libucrtd:wsetlocale.obj
 0001:00094230       ?detach@?$__crt_unique_heap_ptr@U__crt_locale_data@@U__crt_internal_free_policy@@@@QAEPAU__crt_locale_data@@XZ 10095230 f i libucrtd:wsetlocale.obj
 0001:00094260       ?detach@?$__crt_unique_heap_ptr@U__crt_locale_pointers@@U__crt_internal_free_policy@@@@QAEPAU__crt_locale_pointers@@XZ 10095260 f i libucrtd:wsetlocale.obj
 0001:00094290       ?detach@?$__crt_unique_heap_ptr@U__crt_multibyte_data@@U__crt_internal_free_policy@@@@QAEPAU__crt_multibyte_data@@XZ 10095290 f i libucrtd:wsetlocale.obj
 0001:000942c0       ?get@?$__crt_unique_heap_ptr@U__crt_locale_data@@U__crt_internal_free_policy@@@@QBEPAU__crt_locale_data@@XZ 100952c0 f i libucrtd:wsetlocale.obj
 0001:000942e0       ?get@?$__crt_unique_heap_ptr@U__crt_locale_pointers@@U__crt_internal_free_policy@@@@QBEPAU__crt_locale_pointers@@XZ 100952e0 f i libucrtd:wsetlocale.obj
 0001:00094300       ?get@?$__crt_unique_heap_ptr@U__crt_multibyte_data@@U__crt_internal_free_policy@@@@QBEPAU__crt_multibyte_data@@XZ 10095300 f i libucrtd:wsetlocale.obj
 0001:00094320       ?is_valid@?$__crt_unique_heap_ptr@U__crt_locale_data@@U__crt_internal_free_policy@@@@QBE_NXZ 10095320 f i libucrtd:wsetlocale.obj
 0001:00094360       ?is_valid@?$__crt_unique_heap_ptr@U__crt_locale_pointers@@U__crt_internal_free_policy@@@@QBE_NXZ 10095360 f i libucrtd:wsetlocale.obj
 0001:000943a0       ?is_valid@?$__crt_unique_heap_ptr@U__crt_multibyte_data@@U__crt_internal_free_policy@@@@QBE_NXZ 100953a0 f i libucrtd:wsetlocale.obj
 0001:000943e0       ?release@?$__crt_unique_heap_ptr@U__crt_locale_data@@U__crt_internal_free_policy@@@@QAEXXZ 100953e0 f i libucrtd:wsetlocale.obj
 0001:00094420       ?release@?$__crt_unique_heap_ptr@U__crt_locale_pointers@@U__crt_internal_free_policy@@@@QAEXXZ 10095420 f i libucrtd:wsetlocale.obj
 0001:00094460       ?release@?$__crt_unique_heap_ptr@U__crt_multibyte_data@@U__crt_internal_free_policy@@@@QAEXXZ 10095460 f i libucrtd:wsetlocale.obj
 0001:000944a0       ___acrt_copy_locale_name   100954a0 f   libucrtd:wsetlocale.obj
 0001:00094570       ___acrt_set_locale_changed 10095570 f   libucrtd:wsetlocale.obj
 0001:00094590       ___acrt_uninitialize_locale 10095590 f   libucrtd:wsetlocale.obj
 0001:00094660       ___lc_lctowcs              10095660 f   libucrtd:wsetlocale.obj
 0001:00094740       ___lc_wcstolc              10095740 f   libucrtd:wsetlocale.obj
 0001:000949f0       __configthreadlocale       100959f0 f   libucrtd:wsetlocale.obj
 0001:00094bd0       __create_locale            10095bd0 f   libucrtd:wsetlocale.obj
 0001:00094c60       __expandlocale             10095c60 f   libucrtd:wsetlocale.obj
 0001:00095260       __free_locale              10096260 f   libucrtd:wsetlocale.obj
 0001:000953e0       __get_current_locale       100963e0 f   libucrtd:wsetlocale.obj
 0001:000954e0       __wcreate_locale           100964e0 f   libucrtd:wsetlocale.obj
 0001:000957a0       __wcscats                  100967a0 f   libucrtd:wsetlocale.obj
 0001:00095840       __wsetlocale               10096840 f   libucrtd:wsetlocale.obj
 0001:00096b50       ___p___mb_cur_max          10097b50 f   libucrtd:nlsdata.obj
 0001:00096b90       ___acrt_getheap            10097b90 f   libucrtd:heap_handle.obj
 0001:00096be0       ___acrt_initialize_heap    10097be0 f   libucrtd:heap_handle.obj
 0001:00096c10       ___acrt_uninitialize_heap  10097c10 f   libucrtd:heap_handle.obj
 0001:00096c30       __get_heap_handle          10097c30 f   libucrtd:heap_handle.obj
 0001:00096ce0       ??$?B$$A6GHPA_WKJ@Z@__crt_fast_encoded_nullptr_t@@QBEP6GHPA_WKJ@ZXZ 10097ce0 f i libucrtd:winapi_thunks.obj
 0001:00096d00       ??$?RV<lambda_9227be29367c048ad7fd93a717dcb1a1>@@AAV<lambda_a463b7b0560cfcaf9b17f27c6ef46564>@@V<lambda_ccea11b5727ccf69be64f5f5d9a08d9f>@@@?$__crt_seh_guarded_call@H@@QAEH$$QAV<lambda_9227be29367c048ad7fd93a717dcb1a1>@@AAV<lambda_a463b7b0560cfcaf9b17f27c6ef46564>@@$$QAV<lambda_ccea11b5727ccf69be64f5f5d9a08d9f>@@@Z 10097d00 f i libucrtd:winapi_thunks.obj
 0001:00096db0       ??$__acrt_lock_and_call@V<lambda_a463b7b0560cfcaf9b17f27c6ef46564>@@@@YAHW4__acrt_lock_id@@$$QAV<lambda_a463b7b0560cfcaf9b17f27c6ef46564>@@@Z 10097db0 f i libucrtd:winapi_thunks.obj
 0001:00096e00       ??$__crt_fast_decode_pointer@P6GHPA_WKJ@Z@@YAP6GHPA_WKJ@ZQ6GH0KJ@Z@Z 10097e00 f i libucrtd:winapi_thunks.obj
 0001:00096e40       ??$__crt_fast_encode_pointer@P6GHPA_WKJ@Z@@YAP6GHPA_WKJ@ZQ6GH0KJ@Z@Z 10097e40 f i libucrtd:winapi_thunks.obj
 0001:00097a10       ___acrt_AreFileApisANSI@0  10098a10 f   libucrtd:winapi_thunks.obj
 0001:00097a70       ___acrt_CompareStringEx@36 10098a70 f   libucrtd:winapi_thunks.obj
 0001:00097b30       ___acrt_EnumSystemLocalesEx@16 10098b30 f   libucrtd:winapi_thunks.obj
 0001:00097bc0       ___acrt_FlsAlloc@4         10098bc0 f   libucrtd:winapi_thunks.obj
 0001:00097c30       ___acrt_FlsFree@4          10098c30 f   libucrtd:winapi_thunks.obj
 0001:00097ca0       ___acrt_FlsGetValue@4      10098ca0 f   libucrtd:winapi_thunks.obj
 0001:00097d10       ___acrt_FlsSetValue@8      10098d10 f   libucrtd:winapi_thunks.obj
 0001:00097d80       ___acrt_GetDateFormatEx@28 10098d80 f   libucrtd:winapi_thunks.obj
 0001:00097e30       ___acrt_GetEnabledXStateFeatures@0 10098e30 f   libucrtd:winapi_thunks.obj
 0001:00097e90       ___acrt_GetFileInformationByHandleEx@16 10098e90 f   libucrtd:winapi_thunks.obj
 0001:00097f10       ___acrt_GetLocaleInfoEx@16 10098f10 f   libucrtd:winapi_thunks.obj
 0001:00097fa0       ___acrt_GetSystemTimePreciseAsFileTime@4 10098fa0 f   libucrtd:winapi_thunks.obj
 0001:00098010       ___acrt_GetTimeFormatEx@24 10099010 f   libucrtd:winapi_thunks.obj
 0001:000980c0       ___acrt_GetUserDefaultLocaleName@8 100990c0 f   libucrtd:winapi_thunks.obj
 0001:00098140       ___acrt_GetXStateFeaturesMask@8 10099140 f   libucrtd:winapi_thunks.obj
 0001:000981b0       ___acrt_InitializeCriticalSectionEx@12 100991b0 f   libucrtd:winapi_thunks.obj
 0001:00098230       ___acrt_IsValidLocaleName@4 10099230 f   libucrtd:winapi_thunks.obj
 0001:000982b0       ___acrt_LCIDToLocaleName@16 100992b0 f   libucrtd:winapi_thunks.obj
 0001:00098340       ___acrt_LCMapStringEx@36   10099340 f   libucrtd:winapi_thunks.obj
 0001:00098400       ___acrt_LocaleNameToLCID@8 10099400 f   libucrtd:winapi_thunks.obj
 0001:00098470       ___acrt_LocateXStateFeature@12 10099470 f   libucrtd:winapi_thunks.obj
 0001:000984e0       ___acrt_MessageBoxA@16     100994e0 f   libucrtd:winapi_thunks.obj
 0001:00098550       ___acrt_MessageBoxW@16     10099550 f   libucrtd:winapi_thunks.obj
 0001:000985c0       ___acrt_RoInitialize@4     100995c0 f   libucrtd:winapi_thunks.obj
 0001:00098620       ___acrt_RoUninitialize@0   10099620 f   libucrtd:winapi_thunks.obj
 0001:00098670       ___acrt_RtlGenRandom@8     10099670 f   libucrtd:winapi_thunks.obj
 0001:000986e0       ___acrt_SetThreadStackGuarantee@4 100996e0 f   libucrtd:winapi_thunks.obj
 0001:00098740       ___acrt_can_show_message_box 10099740 f   libucrtd:winapi_thunks.obj
 0001:00098780       ___acrt_can_use_vista_locale_apis 10099780 f   libucrtd:winapi_thunks.obj
 0001:000987b0       ___acrt_can_use_xstate_apis 100997b0 f   libucrtd:winapi_thunks.obj
 0001:000987e0       ___acrt_get_parent_window  100997e0 f   libucrtd:winapi_thunks.obj
 0001:00098880       ___acrt_initialize_winapi_thunks 10099880 f   libucrtd:winapi_thunks.obj
 0001:00098900       ___acrt_is_interactive     10099900 f   libucrtd:winapi_thunks.obj
 0001:000989d0       ___acrt_is_packaged_app    100999d0 f   libucrtd:winapi_thunks.obj
 0001:00098b30       ___acrt_uninitialize_winapi_thunks 10099b30 f   libucrtd:winapi_thunks.obj
 0001:00099ea0       ??$find_first_file_ex@ABQADW4_FINDEX_INFO_LEVELS@@PAU_WIN32_FIND_DATAA@@W4_FINDEX_SEARCH_OPS@@$$TH@?$__crt_char_traits@D@@SAPAXABQAD$$QAW4_FINDEX_INFO_LEVELS@@$$QAPAU_WIN32_FIND_DATAA@@$$QAW4_FINDEX_SEARCH_OPS@@$$QA$$T$$QAH@Z 1009aea0 f i libucrtd:argv_wildcards.obj
 0001:00099ee0       ??$find_first_file_ex@ABQA_WW4_FINDEX_INFO_LEVELS@@PAU_WIN32_FIND_DATAW@@W4_FINDEX_SEARCH_OPS@@$$TH@?$__crt_char_traits@_W@@SAPAXABQA_W$$QAW4_FINDEX_INFO_LEVELS@@$$QAPAU_WIN32_FIND_DATAW@@$$QAW4_FINDEX_SEARCH_OPS@@$$QA$$T$$QAH@Z 1009aee0 f i libucrtd:argv_wildcards.obj
 0001:00099f20       ??$find_next_file@PAXPAU_WIN32_FIND_DATAA@@@?$__crt_char_traits@D@@SAH$$QAPAX$$QAPAU_WIN32_FIND_DATAA@@@Z 1009af20 f i libucrtd:argv_wildcards.obj
 0001:00099f40       ??$find_next_file@PAXPAU_WIN32_FIND_DATAW@@@?$__crt_char_traits@_W@@SAH$$QAPAX$$QAPAU_WIN32_FIND_DATAW@@@Z 1009af40 f i libucrtd:argv_wildcards.obj
 0001:00099f60       ??$tcsncpy_s@AAPADIAAPADABI@?$__crt_char_traits@D@@SAHAAPAD$$QAI0ABI@Z 1009af60 f i libucrtd:argv_wildcards.obj
 0001:00099f90       ??$tcsncpy_s@AAPA_WIAAPA_WABI@?$__crt_char_traits@_W@@SAHAAPA_W$$QAI0ABI@Z 1009af90 f i libucrtd:argv_wildcards.obj
 0001:00099fc0       ??$tcsncpy_s@PAD$$CBIABQBDABI@?$__crt_char_traits@D@@SAH$$QAPAD$$QBIABQBDABI@Z 1009afc0 f i libucrtd:argv_wildcards.obj
 0001:00099ff0       ??$tcsncpy_s@PADABIABQBDABI@?$__crt_char_traits@D@@SAH$$QAPADABIABQBD1@Z 1009aff0 f i libucrtd:argv_wildcards.obj
 0001:0009a020       ??$tcsncpy_s@PA_W$$CBIABQB_WABI@?$__crt_char_traits@_W@@SAH$$QAPA_W$$QBIABQB_WABI@Z 1009b020 f i libucrtd:argv_wildcards.obj
 0001:0009a050       ??$tcsncpy_s@PA_WABIABQB_WABI@?$__crt_char_traits@_W@@SAH$$QAPA_WABIABQB_W1@Z 1009b050 f i libucrtd:argv_wildcards.obj
 0001:0009a080       ??$tcspbrk@AAPADAAY02$$CBD@?$__crt_char_traits@D@@SAPADAAPADAAY02$$CBD@Z 1009b080 f i libucrtd:argv_wildcards.obj
 0001:0009a0a0       ??$tcspbrk@AAPA_WAAY02$$CB_W@?$__crt_char_traits@_W@@SAPA_WAAPA_WAAY02$$CB_W@Z 1009b0a0 f i libucrtd:argv_wildcards.obj
 0001:0009a0c0       ??0?$__crt_unique_handle_t@U__crt_findfile_traits@@@@QAE@QAX@Z 1009b0c0 f i libucrtd:argv_wildcards.obj
 0001:0009a0e0       ??0?$argument_list@D@?A0x536e2c96@@QAE@XZ 1009b0e0 f i libucrtd:argv_wildcards.obj
 0001:0009a120       ??0?$argument_list@_W@?A0x536e2c96@@QAE@XZ 1009b120 f i libucrtd:argv_wildcards.obj
 0001:0009a160       ??1?$__crt_unique_handle_t@U__crt_findfile_traits@@@@QAE@XZ 1009b160 f i libucrtd:argv_wildcards.obj
 0001:0009a180       ??1?$argument_list@D@?A0x536e2c96@@QAE@XZ 1009b180 f i libucrtd:argv_wildcards.obj
 0001:0009a1f0       ??1?$argument_list@_W@?A0x536e2c96@@QAE@XZ 1009b1f0 f i libucrtd:argv_wildcards.obj
 0001:0009a340       ?append@?$argument_list@D@?A0x536e2c96@@QAEHQAD@Z 1009b340 f i libucrtd:argv_wildcards.obj
 0001:0009a3b0       ?append@?$argument_list@_W@?A0x536e2c96@@QAEHQA_W@Z 1009b3b0 f i libucrtd:argv_wildcards.obj
 0001:0009a420       ?begin@?$argument_list@D@?A0x536e2c96@@QBEPAPADXZ 1009b420 f i libucrtd:argv_wildcards.obj
 0001:0009a440       ?begin@?$argument_list@_W@?A0x536e2c96@@QBEPAPA_WXZ 1009b440 f i libucrtd:argv_wildcards.obj
 0001:0009a460       ?close@?$__crt_unique_handle_t@U__crt_findfile_traits@@@@QAEXXZ 1009b460 f i libucrtd:argv_wildcards.obj
 0001:0009a4a0       ?close@__crt_findfile_traits@@SA_NPAX@Z 1009b4a0 f i libucrtd:argv_wildcards.obj
 0001:0009a4e0       ?end@?$argument_list@D@?A0x536e2c96@@QBEPAPADXZ 1009b4e0 f i libucrtd:argv_wildcards.obj
 0001:0009a500       ?end@?$argument_list@_W@?A0x536e2c96@@QBEPAPA_WXZ 1009b500 f i libucrtd:argv_wildcards.obj
 0001:0009a520       ?expand_if_necessary@?$argument_list@D@?A0x536e2c96@@AAEHXZ 1009b520 f i libucrtd:argv_wildcards.obj
 0001:0009a6d0       ?expand_if_necessary@?$argument_list@_W@?A0x536e2c96@@AAEHXZ 1009b6d0 f i libucrtd:argv_wildcards.obj
 0001:0009a880       ?get@?$__crt_unique_handle_t@U__crt_findfile_traits@@@@QBEPAXXZ 1009b880 f i libucrtd:argv_wildcards.obj
 0001:0009a8a0       ?get_invalid_value@__crt_findfile_traits@@SAPAXXZ 1009b8a0 f i libucrtd:argv_wildcards.obj
 0001:0009a8e0       ?size@?$argument_list@D@?A0x536e2c96@@QBEIXZ 1009b8e0 f i libucrtd:argv_wildcards.obj
 0001:0009a910       ?size@?$argument_list@_W@?A0x536e2c96@@QBEIXZ 1009b910 f i libucrtd:argv_wildcards.obj
 0001:0009a940       ?strpbrk@@YAPADQADQBD@Z    1009b940 f i libucrtd:argv_wildcards.obj
 0001:0009a960       ?wcspbrk@@YAPA_WPA_WPB_W@Z 1009b960 f i libucrtd:argv_wildcards.obj
 0001:0009a980       ___acrt_expand_narrow_argv_wildcards 1009b980 f   libucrtd:argv_wildcards.obj
 0001:0009a9a0       ___acrt_expand_wide_argv_wildcards 1009b9a0 f   libucrtd:argv_wildcards.obj
 0001:0009a9c0       ??$?RV<lambda_694f386f8d9a4d7d5afe1ac229f209db>@@AAV<lambda_2f900415df1f7f624cdaaefe86d0b1c0>@@V<lambda_17c2d007e408fdf31ce10a4c853c6ffa>@@@?$__crt_seh_guarded_call@X@@QAEX$$QAV<lambda_694f386f8d9a4d7d5afe1ac229f209db>@@AAV<lambda_2f900415df1f7f624cdaaefe86d0b1c0>@@$$QAV<lambda_17c2d007e408fdf31ce10a4c853c6ffa>@@@Z 1009b9c0 f i libucrtd:mbctype.obj
 0001:0009aa60       ??$__acrt_lock_and_call@V<lambda_2f900415df1f7f624cdaaefe86d0b1c0>@@@@YAXW4__acrt_lock_id@@$$QAV<lambda_2f900415df1f7f624cdaaefe86d0b1c0>@@@Z 1009ba60 f i libucrtd:mbctype.obj
 0001:0009b5f0       ___acrt_initialize_multibyte 1009c5f0 f   libucrtd:mbctype.obj
 0001:0009b620       ___acrt_update_thread_multibyte_data 1009c620 f   libucrtd:mbctype.obj
 0001:0009b770       ___p__mbcasemap            1009c770 f   libucrtd:mbctype.obj
 0001:0009b790       ___p__mbctype              1009c790 f   libucrtd:mbctype.obj
 0001:0009b7b0       __getmbcp                  1009c7b0 f   libucrtd:mbctype.obj
 0001:0009b840       __setmbcp                  1009c840 f   libucrtd:mbctype.obj
 0001:0009b860       __setmbcp_nolock           1009c860 f   libucrtd:mbctype.obj
 0001:0009be7b       __ismbbalnum               1009ce7b f   libucrtd:ismbbyte.obj
 0001:0009be9c       __ismbbalnum_l             1009ce9c f   libucrtd:ismbbyte.obj
 0001:0009bebf       __ismbbalpha               1009cebf f   libucrtd:ismbbyte.obj
 0001:0009bee0       __ismbbalpha_l             1009cee0 f   libucrtd:ismbbyte.obj
 0001:0009bf03       __ismbbblank               1009cf03 f   libucrtd:ismbbyte.obj
 0001:0009bf2e       __ismbbblank_l             1009cf2e f   libucrtd:ismbbyte.obj
 0001:0009bf5b       __ismbbgraph               1009cf5b f   libucrtd:ismbbyte.obj
 0001:0009bf7c       __ismbbgraph_l             1009cf7c f   libucrtd:ismbbyte.obj
 0001:0009bf9f       __ismbbkalnum              1009cf9f f   libucrtd:ismbbyte.obj
 0001:0009bfbd       __ismbbkalnum_l            1009cfbd f   libucrtd:ismbbyte.obj
 0001:0009bfdc       __ismbbkana                1009cfdc f   libucrtd:ismbbyte.obj
 0001:0009bff3       __ismbbkana_l              1009cff3 f   libucrtd:ismbbyte.obj
 0001:0009c058       __ismbbkprint              1009d058 f   libucrtd:ismbbyte.obj
 0001:0009c076       __ismbbkprint_l            1009d076 f   libucrtd:ismbbyte.obj
 0001:0009c095       __ismbbkpunct              1009d095 f   libucrtd:ismbbyte.obj
 0001:0009c0b3       __ismbbkpunct_l            1009d0b3 f   libucrtd:ismbbyte.obj
 0001:0009c0d2       __ismbblead                1009d0d2 f   libucrtd:ismbbyte.obj
 0001:0009c0f0       __ismbblead_l              1009d0f0 f   libucrtd:ismbbyte.obj
 0001:0009c10f       __ismbbprint               1009d10f f   libucrtd:ismbbyte.obj
 0001:0009c130       __ismbbprint_l             1009d130 f   libucrtd:ismbbyte.obj
 0001:0009c153       __ismbbpunct               1009d153 f   libucrtd:ismbbyte.obj
 0001:0009c171       __ismbbpunct_l             1009d171 f   libucrtd:ismbbyte.obj
 0001:0009c190       __ismbbtrail               1009d190 f   libucrtd:ismbbyte.obj
 0001:0009c1ae       __ismbbtrail_l             1009d1ae f   libucrtd:ismbbyte.obj
 0001:0009c1d0       ___acrt_initialize_command_line 1009d1d0 f   libucrtd:argv_data.obj
 0001:0009c200       ___acrt_uninitialize_command_line 1009d200 f   libucrtd:argv_data.obj
 0001:0009c210       ___p___argc                1009d210 f   libucrtd:argv_data.obj
 0001:0009c220       ___p___argv                1009d220 f   libucrtd:argv_data.obj
 0001:0009c230       ___p___wargv               1009d230 f   libucrtd:argv_data.obj
 0001:0009c240       ___p__acmdln               1009d240 f   libucrtd:argv_data.obj
 0001:0009c250       ___p__pgmptr               1009d250 f   libucrtd:argv_data.obj
 0001:0009c260       ___p__wcmdln               1009d260 f   libucrtd:argv_data.obj
 0001:0009c270       ___p__wpgmptr              1009d270 f   libucrtd:argv_data.obj
 0001:0009c280       __get_pgmptr               1009d280 f   libucrtd:argv_data.obj
 0001:0009c3e0       __get_wpgmptr              1009d3e0 f   libucrtd:argv_data.obj
 0001:0009c532       ??0?$__crt_unique_handle_t@Uenvironment_strings_traits@?A0xda6148bb@@@@QAE@QA_W@Z 1009d532 f i libucrtd:get_environment_from_os.obj
 0001:0009c546       ??1?$__crt_unique_handle_t@Uenvironment_strings_traits@?A0xda6148bb@@@@QAE@XZ 1009d546 f i libucrtd:get_environment_from_os.obj
 0001:0009c562       ??B?$__crt_unique_handle_t@Uenvironment_strings_traits@?A0xda6148bb@@@@QBE_NXZ 1009d562 f i libucrtd:get_environment_from_os.obj
 0001:0009c56c       ?close@?$__crt_unique_handle_t@Uenvironment_strings_traits@?A0xda6148bb@@@@QAEXXZ 1009d56c f i libucrtd:get_environment_from_os.obj
 0001:0009c588       ?close@environment_strings_traits@?A0xda6148bb@@SA_NPA_W@Z 1009d588 f i libucrtd:get_environment_from_os.obj
 0001:0009c5e2       ?get@?$__crt_unique_handle_t@Uenvironment_strings_traits@?A0xda6148bb@@@@QBEPA_WXZ 1009d5e2 f i libucrtd:get_environment_from_os.obj
 0001:0009c5e5       ?get_invalid_value@environment_strings_traits@?A0xda6148bb@@SAPA_WXZ 1009d5e5 f i libucrtd:get_environment_from_os.obj
 0001:0009c5e8       ?is_valid@?$__crt_unique_handle_t@Uenvironment_strings_traits@?A0xda6148bb@@@@QBE_NXZ 1009d5e8 f i libucrtd:get_environment_from_os.obj
 0001:0009c5f2       ___dcrt_get_narrow_environment_from_os 1009d5f2 f   libucrtd:get_environment_from_os.obj
 0001:0009c6a7       ___dcrt_get_wide_environment_from_os 1009d6a7 f   libucrtd:get_environment_from_os.obj
 0001:0009d247       ??$get_or_create_environment_nolock@$$$V@?$__crt_char_traits@D@@SAPAPADXZ 1009e247 f i libucrtd:setenv.obj
 0001:0009d24c       ??$get_or_create_environment_nolock@$$$V@?$__crt_char_traits@_W@@SAPAPA_WXZ 1009e24c f i libucrtd:setenv.obj
 0001:0009d251       ??$set_environment_variable@ABQADQAD@?$__crt_char_traits@D@@SAHABQAD$$QBQAD@Z 1009e251 f i libucrtd:setenv.obj
 0001:0009d26d       ??$set_environment_variable@ABQA_WQA_W@?$__crt_char_traits@_W@@SAHABQA_W$$QBQA_W@Z 1009e26d f i libucrtd:setenv.obj
 0001:0009d289       ??$tcschr@ABQADD@?$__crt_char_traits@D@@SAPADABQAD$$QAD@Z 1009e289 f i libucrtd:setenv.obj
 0001:0009d2a9       ??$tcschr@ABQA_WD@?$__crt_char_traits@_W@@SAPA_WABQA_W$$QAD@Z 1009e2a9 f i libucrtd:setenv.obj
 0001:0009d2ce       ??$tcscpy_s@AAPADABIAAPAD@?$__crt_char_traits@D@@SAHAAPADABI0@Z 1009e2ce f i libucrtd:setenv.obj
 0001:0009d2f3       ??$tcscpy_s@AAPA_WABIAAPA_W@?$__crt_char_traits@_W@@SAHAAPA_WABI0@Z 1009e2f3 f i libucrtd:setenv.obj
 0001:0009d318       ??$tcscpy_s@ABQADABIABQAD@?$__crt_char_traits@D@@SAHABQADABI0@Z 1009e318 f i libucrtd:setenv.obj
 0001:0009d33d       ??$tcscpy_s@ABQA_WABIABQA_W@?$__crt_char_traits@_W@@SAHABQA_WABI0@Z 1009e33d f i libucrtd:setenv.obj
 0001:0009d362       ??$tcslen@ABQAD@?$__crt_char_traits@D@@SAIABQAD@Z 1009e362 f i libucrtd:setenv.obj
 0001:0009d380       ??$tcslen@ABQA_W@?$__crt_char_traits@_W@@SAIABQA_W@Z 1009e380 f i libucrtd:setenv.obj
 0001:0009d3a5       ??$tcsnicoll@ABQBDAAPADABI@?$__crt_char_traits@D@@SAHABQBDAAPADABI@Z 1009e3a5 f i libucrtd:setenv.obj
 0001:0009d3ca       ??$tcsnicoll@ABQB_WAAPA_WABI@?$__crt_char_traits@_W@@SAHABQB_WAAPA_WABI@Z 1009e3ca f i libucrtd:setenv.obj
 0001:0009d3ef       ??$tcsnlen@QADH@?$__crt_char_traits@D@@SAI$$QBQAD$$QAH@Z 1009e3ef f i libucrtd:setenv.obj
 0001:0009d40d       ??$tcsnlen@QA_WH@?$__crt_char_traits@_W@@SAI$$QBQA_W$$QAH@Z 1009e40d f i libucrtd:setenv.obj
 0001:0009d44f       ?strchr@@YAPADQADH@Z       1009e44f f i libucrtd:setenv.obj
 0001:0009d45c       ?wcschr@@YAPA_WPA_W_W@Z    1009e45c f i libucrtd:setenv.obj
 0001:0009d469       ___dcrt_set_variable_in_narrow_environment_nolock 1009e469 f   libucrtd:setenv.obj
 0001:0009d476       ___dcrt_set_variable_in_wide_environment_nolock 1009e476 f   libucrtd:setenv.obj
 0001:0009d800       ___acrt_initialize_lowio   1009e800 f   libucrtd:ioinit.obj
 0001:0009d8c0       ___acrt_uninitialize_lowio 1009e8c0 f   libucrtd:ioinit.obj
 0001:0009d930       ___acrt_execute_initializers 1009e930 f   libucrtd:shared_initialization.obj
 0001:0009da30       ___acrt_execute_uninitializers 1009ea30 f   libucrtd:shared_initialization.obj
 0001:0009dac0       ?has_any_buffer@__crt_stdio_stream@@QBE_NXZ 1009eac0 f i libucrtd:_sftbuf.obj
 0001:0009dae0       ?has_any_of@__crt_stdio_stream@@QBE_NJ@Z 1009eae0 f i libucrtd:_sftbuf.obj
 0001:0009db20       ?has_temporary_buffer@__crt_stdio_stream@@QBE_NXZ 1009eb20 f i libucrtd:_sftbuf.obj
 0001:0009db40       ?set_flags@__crt_stdio_stream@@QBE_NJ@Z 1009eb40 f i libucrtd:_sftbuf.obj
 0001:0009dba0       ?unset_flags@__crt_stdio_stream@@QBE_NJ@Z 1009eba0 f i libucrtd:_sftbuf.obj
 0001:0009dc00       ___acrt_stdio_begin_temporary_buffering_nolock 1009ec00 f   libucrtd:_sftbuf.obj
 0001:0009de30       ___acrt_stdio_end_temporary_buffering_nolock 1009ee30 f   libucrtd:_sftbuf.obj
 0001:0009def0       ___isascii                 1009eef0 f i libucrtd:_ctype.obj
 0001:0009df20       ___iscsym                  1009ef20 f i libucrtd:_ctype.obj
 0001:0009df70       ___iscsymf                 1009ef70 f i libucrtd:_ctype.obj
 0001:0009dfb0       ___toascii                 1009efb0 f i libucrtd:_ctype.obj
 0001:0009dfc0       __isalnum_l                1009efc0 f i libucrtd:_ctype.obj
 0001:0009e010       __isalpha_l                1009f010 f i libucrtd:_ctype.obj
 0001:0009e060       __isblank_l                1009f060 f i libucrtd:_ctype.obj
 0001:0009e0d0       __iscntrl_l                1009f0d0 f i libucrtd:_ctype.obj
 0001:0009e120       __iscsym_l                 1009f120 f i libucrtd:_ctype.obj
 0001:0009e170       __iscsymf_l                1009f170 f i libucrtd:_ctype.obj
 0001:0009e1c0       __isdigit_l                1009f1c0 f i libucrtd:_ctype.obj
 0001:0009e210       __isgraph_l                1009f210 f i libucrtd:_ctype.obj
 0001:0009e260       __islower_l                1009f260 f i libucrtd:_ctype.obj
 0001:0009e2b0       __isprint_l                1009f2b0 f i libucrtd:_ctype.obj
 0001:0009e300       __ispunct_l                1009f300 f i libucrtd:_ctype.obj
 0001:0009e350       __isspace_l                1009f350 f i libucrtd:_ctype.obj
 0001:0009e3a0       __isupper_l                1009f3a0 f i libucrtd:_ctype.obj
 0001:0009e3f0       __isxdigit_l               1009f3f0 f i libucrtd:_ctype.obj
 0001:0009e440       _isalnum                   1009f440 f i libucrtd:_ctype.obj
 0001:0009e490       _isalpha                   1009f490 f i libucrtd:_ctype.obj
 0001:0009e4e0       _isblank                   1009f4e0 f i libucrtd:_ctype.obj
 0001:0009e550       _iscntrl                   1009f550 f i libucrtd:_ctype.obj
 0001:0009e5a0       _isdigit                   1009f5a0 f i libucrtd:_ctype.obj
 0001:0009e5f0       _isgraph                   1009f5f0 f i libucrtd:_ctype.obj
 0001:0009e640       _islower                   1009f640 f i libucrtd:_ctype.obj
 0001:0009e690       _isprint                   1009f690 f i libucrtd:_ctype.obj
 0001:0009e6e0       _ispunct                   1009f6e0 f i libucrtd:_ctype.obj
 0001:0009e730       _isspace                   1009f730 f i libucrtd:_ctype.obj
 0001:0009e780       _isupper                   1009f780 f i libucrtd:_ctype.obj
 0001:0009e7d0       _isxdigit                  1009f7d0 f i libucrtd:_ctype.obj
 0001:0009ee00       __tolower                  1009fe00 f   libucrtd:tolower_toupper.obj
 0001:0009ee10       __tolower_l                1009fe10 f   libucrtd:tolower_toupper.obj
 0001:0009ee40       __toupper                  1009fe40 f   libucrtd:tolower_toupper.obj
 0001:0009ee50       __toupper_l                1009fe50 f   libucrtd:tolower_toupper.obj
 0001:0009ee80       _tolower                   1009fe80 f   libucrtd:tolower_toupper.obj
 0001:0009eef0       _toupper                   1009fef0 f   libucrtd:tolower_toupper.obj
 0001:0009ef60       __CrtGetDebugFillThreshold 1009ff60 f   libucrtd:debug_fill_threshold.obj
 0001:0009ef70       __CrtSetDebugFillThreshold 1009ff70 f   libucrtd:debug_fill_threshold.obj
 0001:0009efa0       ??$make_c_string_character_source@DPAPAD@__crt_strtox@@YA?AV?$c_string_character_source@D@0@QBDQAPAD@Z 1009ffa0 f i libucrtd:strtox.obj
 0001:0009efc0       ??$make_c_string_character_source@_WPAPA_W@__crt_strtox@@YA?AV?$c_string_character_source@_W@0@QB_WQAPA_W@Z 1009ffc0 f i libucrtd:strtox.obj
 0001:0009efe0       ??$parse_integer_from_string@JDPAPAD@__crt_strtox@@YAJQBDQAPADHQAU__crt_locale_pointers@@@Z 1009ffe0 f i libucrtd:strtox.obj
 0001:0009f030       ??$parse_integer_from_string@J_WPAPA_W@__crt_strtox@@YAJQB_WQAPA_WHQAU__crt_locale_pointers@@@Z 100a0030 f i libucrtd:strtox.obj
 0001:0009f080       ??$parse_integer_from_string@KDPAPAD@__crt_strtox@@YAKQBDQAPADHQAU__crt_locale_pointers@@@Z 100a0080 f i libucrtd:strtox.obj
 0001:0009f0d0       ??$parse_integer_from_string@K_WPAPA_W@__crt_strtox@@YAKQB_WQAPA_WHQAU__crt_locale_pointers@@@Z 100a00d0 f i libucrtd:strtox.obj
 0001:0009f120       ??$parse_integer_from_string@_JDPAPAD@__crt_strtox@@YA_JQBDQAPADHQAU__crt_locale_pointers@@@Z 100a0120 f i libucrtd:strtox.obj
 0001:0009f170       ??$parse_integer_from_string@_J_WPAPA_W@__crt_strtox@@YA_JQB_WQAPA_WHQAU__crt_locale_pointers@@@Z 100a0170 f i libucrtd:strtox.obj
 0001:0009f1c0       ??$parse_integer_from_string@_KDPAPAD@__crt_strtox@@YA_KQBDQAPADHQAU__crt_locale_pointers@@@Z 100a01c0 f i libucrtd:strtox.obj
 0001:0009f210       ??$parse_integer_from_string@_K_WPAPA_W@__crt_strtox@@YA_KQB_WQAPA_WHQAU__crt_locale_pointers@@@Z 100a0210 f i libucrtd:strtox.obj
 0001:0009f260       __strtoi64                 100a0260 f   libucrtd:strtox.obj
 0001:0009f290       __strtoi64_l               100a0290 f   libucrtd:strtox.obj
 0001:0009f2c0       __strtoimax_l              100a02c0 f   libucrtd:strtox.obj
 0001:0009f2f0       __strtol_l                 100a02f0 f   libucrtd:strtox.obj
 0001:0009f320       __strtoll_l                100a0320 f   libucrtd:strtox.obj
 0001:0009f350       __strtoui64                100a0350 f   libucrtd:strtox.obj
 0001:0009f380       __strtoui64_l              100a0380 f   libucrtd:strtox.obj
 0001:0009f3b0       __strtoul_l                100a03b0 f   libucrtd:strtox.obj
 0001:0009f3e0       __strtoull_l               100a03e0 f   libucrtd:strtox.obj
 0001:0009f410       __strtoumax_l              100a0410 f   libucrtd:strtox.obj
 0001:0009f440       __wcstoi64                 100a0440 f   libucrtd:strtox.obj
 0001:0009f470       __wcstoi64_l               100a0470 f   libucrtd:strtox.obj
 0001:0009f4a0       __wcstoimax_l              100a04a0 f   libucrtd:strtox.obj
 0001:0009f4d0       __wcstol_l                 100a04d0 f   libucrtd:strtox.obj
 0001:0009f500       __wcstoll_l                100a0500 f   libucrtd:strtox.obj
 0001:0009f530       __wcstoui64                100a0530 f   libucrtd:strtox.obj
 0001:0009f560       __wcstoui64_l              100a0560 f   libucrtd:strtox.obj
 0001:0009f590       __wcstoul_l                100a0590 f   libucrtd:strtox.obj
 0001:0009f5c0       __wcstoull_l               100a05c0 f   libucrtd:strtox.obj
 0001:0009f5f0       __wcstoumax_l              100a05f0 f   libucrtd:strtox.obj
 0001:0009f620       _strtoimax                 100a0620 f   libucrtd:strtox.obj
 0001:0009f650       _strtol                    100a0650 f   libucrtd:strtox.obj
 0001:0009f680       _strtoll                   100a0680 f   libucrtd:strtox.obj
 0001:0009f6b0       _strtoul                   100a06b0 f   libucrtd:strtox.obj
 0001:0009f6e0       _strtoull                  100a06e0 f   libucrtd:strtox.obj
 0001:0009f710       _strtoumax                 100a0710 f   libucrtd:strtox.obj
 0001:0009f740       _wcstoimax                 100a0740 f   libucrtd:strtox.obj
 0001:0009f770       _wcstol                    100a0770 f   libucrtd:strtox.obj
 0001:0009f7a0       _wcstoll                   100a07a0 f   libucrtd:strtox.obj
 0001:0009f7d0       _wcstoul                   100a07d0 f   libucrtd:strtox.obj
 0001:0009f800       _wcstoull                  100a0800 f   libucrtd:strtox.obj
 0001:0009f830       _wcstoumax                 100a0830 f   libucrtd:strtox.obj
 0001:0009f860       __mbtowc_l                 100a0860 f   libucrtd:mbtowc.obj
 0001:0009fb30       _mbtowc                    100a0b30 f   libucrtd:mbtowc.obj
 0001:0009fb60       __wctomb_l                 100a0b60 f   libucrtd:wctomb.obj
 0001:0009fc00       __wctomb_s_l               100a0c00 f   libucrtd:wctomb.obj
 0001:000a0010       _wctomb                    100a1010 f   libucrtd:wctomb.obj
 0001:000a0070       _wctomb_s                  100a1070 f   libucrtd:wctomb.obj
 0001:000a0a70       ??1?$__crt_simd_cleanup_guard@$00@@QAE@XZ 100a1a70 f i libucrtd:strnlen.obj
 0001:000a0a90       ??1?$__crt_simd_cleanup_guard@$0A@@@QAE@XZ 100a1a90 f i libucrtd:strnlen.obj
 0001:000a0aa0       ?compare_equals@?$__crt_simd_traits@$00E@@SA?AT__m256i@@T2@0@Z 100a1aa0 f i libucrtd:strnlen.obj
 0001:000a0af0       ?compare_equals@?$__crt_simd_traits@$00G@@SA?AT__m256i@@T2@0@Z 100a1af0 f i libucrtd:strnlen.obj
 0001:000a0b40       ?compare_equals@?$__crt_simd_traits@$0A@E@@SA?AT__m128i@@T2@0@Z 100a1b40 f i libucrtd:strnlen.obj
 0001:000a0b90       ?compare_equals@?$__crt_simd_traits@$0A@G@@SA?AT__m128i@@T2@0@Z 100a1b90 f i libucrtd:strnlen.obj
 0001:000a0be0       ?compute_byte_mask@?$__crt_simd_pack_traits@$00@@SAHT__m256i@@@Z 100a1be0 f i libucrtd:strnlen.obj
 0001:000a0c20       ?compute_byte_mask@?$__crt_simd_pack_traits@$0A@@@SAHT__m128i@@@Z 100a1c20 f i libucrtd:strnlen.obj
 0001:000a0c60       ?get_zero_pack@?$__crt_simd_pack_traits@$00@@SA?AT__m256i@@XZ 100a1c60 f i libucrtd:strnlen.obj
 0001:000a0ca0       ?get_zero_pack@?$__crt_simd_pack_traits@$0A@@@SA?AT__m128i@@XZ 100a1ca0 f i libucrtd:strnlen.obj
 0001:000a0ce0       _strnlen                   100a1ce0 f   libucrtd:strnlen.obj
 0001:000a0d00       _wcsnlen                   100a1d00 f   libucrtd:strnlen.obj
 0001:000a0d20       ?__acrt_fp_classify@@YA?AW4__acrt_fp_class@@ABN@Z 100a1d20 f i libucrtd:cvt.obj
 0001:000a0e80       ?__acrt_fp_is_negative@@YA_NABN@Z 100a1e80 f i libucrtd:cvt.obj
 0001:000a2330       ?strrchr@@YAPADQADH@Z      100a3330 f i libucrtd:cvt.obj
 0001:000a2350       ___acrt_fp_format          100a3350 f   libucrtd:cvt.obj
 0001:000a2900       __fputwc_nolock            100a3900 f   libucrtd:fputwc.obj
 0001:000a2b60       __fputwchar                100a3b60 f   libucrtd:fputwc.obj
 0001:000a2b90       __putwc_nolock             100a3b90 f   libucrtd:fputwc.obj
 0001:000a2bb0       _fputwc                    100a3bb0 f   libucrtd:fputwc.obj
 0001:000a2d00       _putwc                     100a3d00 f   libucrtd:fputwc.obj
 0001:000a2d20       _putwchar                  100a3d20 f   libucrtd:fputwc.obj
 0001:000a2d40       ?lowio_handle@__crt_stdio_stream@@QBEHXZ 100a3d40 f i libucrtd:fileno.obj
 0001:000a2d70       __fileno                   100a3d70 f   libucrtd:fileno.obj
 0001:000a2e40       ??$?RPAU__crt_stdio_stream_data@@@__crt_internal_free_policy@@QBEXQBQAU__crt_stdio_stream_data@@@Z 100a3e40 f i libucrtd:_file.obj
 0001:000a2e70       ??0?$__crt_unique_heap_ptr@PAU__crt_stdio_stream_data@@U__crt_internal_free_policy@@@@QAE@QAPAU__crt_stdio_stream_data@@@Z 100a3e70 f i libucrtd:_file.obj
 0001:000a2e90       ??1?$__crt_unique_heap_ptr@PAU__crt_stdio_stream_data@@U__crt_internal_free_policy@@@@QAE@XZ 100a3e90 f i libucrtd:_file.obj
 0001:000a2eb0       ?detach@?$__crt_unique_heap_ptr@PAU__crt_stdio_stream_data@@U__crt_internal_free_policy@@@@QAEPAPAU__crt_stdio_stream_data@@XZ 100a3eb0 f i libucrtd:_file.obj
 0001:000a2ee0       ?release@?$__crt_unique_heap_ptr@PAU__crt_stdio_stream_data@@U__crt_internal_free_policy@@@@QAEXXZ 100a3ee0 f i libucrtd:_file.obj
 0001:000a2f20       ___acrt_initialize_stdio   100a3f20 f   libucrtd:_file.obj
 0001:000a30f0       ___acrt_iob_func           100a40f0 f   libucrtd:_file.obj
 0001:000a3110       ___acrt_uninitialize_stdio 100a4110 f   libucrtd:_file.obj
 0001:000a31b0       __get_stream_buffer_pointers 100a41b0 f   libucrtd:_file.obj
 0001:000a32c0       __lock_file                100a42c0 f   libucrtd:_file.obj
 0001:000a32f0       __unlock_file              100a42f0 f   libucrtd:_file.obj
 0001:000a3320       __fputc_nolock             100a4320 f   libucrtd:fputc.obj
 0001:000a33d0       __fputchar                 100a43d0 f   libucrtd:fputc.obj
 0001:000a3400       __putc_nolock              100a4400 f   libucrtd:fputc.obj
 0001:000a3420       _fputc                     100a4420 f   libucrtd:fputc.obj
 0001:000a36f0       _putc                      100a46f0 f   libucrtd:fputc.obj
 0001:000a3710       _putchar                   100a4710 f   libucrtd:fputc.obj
 0001:000a3730       __get_printf_count_output  100a4730 f   libucrtd:printf_count_output.obj
 0001:000a3770       __set_printf_count_output  100a4770 f   libucrtd:printf_count_output.obj
 0001:000a37de       __mbsdec                   100a47de f   libucrtd:mbsdec.obj
 0001:000a37fa       __mbsdec_l                 100a47fa f   libucrtd:mbsdec.obj
 0001:000a3e50       _wcsncpy_s                 100a4e50 f   libucrtd:wcsncpy_s.obj
 0001:000a4390       _strncpy_s                 100a5390 f   libucrtd:strncpy_s.obj
 0001:000a45d0       ___acrt_report_runtime_error 100a55d0 f   libucrtd:report_runtime_error.obj
 0001:000a4840       __query_app_type           100a5840 f   libucrtd:report_runtime_error.obj
 0001:000a4850       __set_app_type             100a5850 f   libucrtd:report_runtime_error.obj
 0001:000a4870       __iswctype_l               100a5870 f   libucrtd:iswctype.obj
 0001:000a4890       _iswctype                  100a5890 f   libucrtd:iswctype.obj
 0001:000a4920       __87except                 100a5920 f   libucrtd:87except.obj
 0001:000a4b90       _nexttoward                100a5b90 f   libucrtd:nexttoward.obj
 0001:000a64e0       __i64toa                   100a74e0 f   libucrtd:xtoa.obj
 0001:000a6550       __i64toa_s                 100a7550 f   libucrtd:xtoa.obj
 0001:000a65c0       __i64tow                   100a75c0 f   libucrtd:xtoa.obj
 0001:000a6630       __i64tow_s                 100a7630 f   libucrtd:xtoa.obj
 0001:000a66a0       __itoa                     100a76a0 f   libucrtd:xtoa.obj
 0001:000a6700       __itoa_s                   100a7700 f   libucrtd:xtoa.obj
 0001:000a6760       __itow                     100a7760 f   libucrtd:xtoa.obj
 0001:000a67c0       __itow_s                   100a77c0 f   libucrtd:xtoa.obj
 0001:000a6820       __ltoa                     100a7820 f   libucrtd:xtoa.obj
 0001:000a6880       __ltoa_s                   100a7880 f   libucrtd:xtoa.obj
 0001:000a68e0       __ltow                     100a78e0 f   libucrtd:xtoa.obj
 0001:000a6940       __ltow_s                   100a7940 f   libucrtd:xtoa.obj
 0001:000a69a0       __ui64toa                  100a79a0 f   libucrtd:xtoa.obj
 0001:000a69d0       __ui64toa_s                100a79d0 f   libucrtd:xtoa.obj
 0001:000a6a00       __ui64tow                  100a7a00 f   libucrtd:xtoa.obj
 0001:000a6a30       __ui64tow_s                100a7a30 f   libucrtd:xtoa.obj
 0001:000a6a60       __ultoa                    100a7a60 f   libucrtd:xtoa.obj
 0001:000a6a90       __ultoa_s                  100a7a90 f   libucrtd:xtoa.obj
 0001:000a6ac0       __ultow                    100a7ac0 f   libucrtd:xtoa.obj
 0001:000a6af0       __ultow_s                  100a7af0 f   libucrtd:xtoa.obj
 0001:000a6f90       __mbstowcs_l               100a7f90 f   libucrtd:mbstowcs.obj
 0001:000a6fc0       __mbstowcs_s_l             100a7fc0 f   libucrtd:mbstowcs.obj
 0001:000a7470       _mbstowcs                  100a8470 f   libucrtd:mbstowcs.obj
 0001:000a74d0       _mbstowcs_s                100a84d0 f   libucrtd:mbstowcs.obj
 0001:000a7cf0       __wcstombs_l               100a8cf0 f   libucrtd:wcstombs.obj
 0001:000a7d20       __wcstombs_s_l             100a8d20 f   libucrtd:wcstombs.obj
 0001:000a8160       _wcstombs                  100a9160 f   libucrtd:wcstombs.obj
 0001:000a8190       _wcstombs_s                100a9190 f   libucrtd:wcstombs.obj
 0001:000a86f0       _wcscat_s                  100a96f0 f   libucrtd:wcscat_s.obj
 0001:000a8c30       _strcat_s                  100a9c30 f   libucrtd:strcat_s.obj
 0001:000a8c60       __malloc_base              100a9c60 f   libucrtd:malloc_base.obj
 0001:000a8d10       _free                      100a9d10 f   libucrtd:free.obj
 0001:000a8d30       _malloc                    100a9d30 f   libucrtd:malloc.obj
 0001:000a8d50       ___iswcsym                 100a9d50 f i libucrtd:_wctype.obj
 0001:000a8da0       ___iswcsymf                100a9da0 f i libucrtd:_wctype.obj
 0001:000a8df0       __isleadbyte_l             100a9df0 f i libucrtd:_wctype.obj
 0001:000a8e40       __iswalnum_l               100a9e40 f i libucrtd:_wctype.obj
 0001:000a8e60       __iswalpha_l               100a9e60 f i libucrtd:_wctype.obj
 0001:000a8e80       __iswblank_l               100a9e80 f i libucrtd:_wctype.obj
 0001:000a8ec0       __iswcntrl_l               100a9ec0 f i libucrtd:_wctype.obj
 0001:000a8ee0       __iswcsym_l                100a9ee0 f i libucrtd:_wctype.obj
 0001:000a8f30       __iswcsymf_l               100a9f30 f i libucrtd:_wctype.obj
 0001:000a8f80       __iswdigit_l               100a9f80 f i libucrtd:_wctype.obj
 0001:000a8fa0       __iswgraph_l               100a9fa0 f i libucrtd:_wctype.obj
 0001:000a8fc0       __iswlower_l               100a9fc0 f i libucrtd:_wctype.obj
 0001:000a8fe0       __iswprint_l               100a9fe0 f i libucrtd:_wctype.obj
 0001:000a9000       __iswpunct_l               100aa000 f i libucrtd:_wctype.obj
 0001:000a9020       __iswspace_l               100aa020 f i libucrtd:_wctype.obj
 0001:000a9040       __iswupper_l               100aa040 f i libucrtd:_wctype.obj
 0001:000a9060       __iswxdigit_l              100aa060 f i libucrtd:_wctype.obj
 0001:000a9080       _isleadbyte                100aa080 f i libucrtd:_wctype.obj
 0001:000a90a0       _iswalnum                  100aa0a0 f i libucrtd:_wctype.obj
 0001:000a90c0       _iswalpha                  100aa0c0 f i libucrtd:_wctype.obj
 0001:000a90e0       _iswascii                  100aa0e0 f i libucrtd:_wctype.obj
 0001:000a9120       _iswblank                  100aa120 f i libucrtd:_wctype.obj
 0001:000a9160       _iswcntrl                  100aa160 f i libucrtd:_wctype.obj
 0001:000a9180       _iswdigit                  100aa180 f i libucrtd:_wctype.obj
 0001:000a91a0       _iswgraph                  100aa1a0 f i libucrtd:_wctype.obj
 0001:000a91c0       _iswlower                  100aa1c0 f i libucrtd:_wctype.obj
 0001:000a91e0       _iswprint                  100aa1e0 f i libucrtd:_wctype.obj
 0001:000a9200       _iswpunct                  100aa200 f i libucrtd:_wctype.obj
 0001:000a9220       _iswspace                  100aa220 f i libucrtd:_wctype.obj
 0001:000a9240       _iswupper                  100aa240 f i libucrtd:_wctype.obj
 0001:000a9260       _iswxdigit                 100aa260 f i libucrtd:_wctype.obj
 0001:000a9280       ??0?$__crt_scoped_stack_ptr@_W@@QAE@U?$__crt_scoped_stack_ptr_tag@_W@@@Z 100aa280 f i libucrtd:getstringtypea.obj
 0001:000a92a0       ??0?$__crt_scoped_stack_ptr_tag@_W@@QAE@QA_W@Z 100aa2a0 f i libucrtd:getstringtypea.obj
 0001:000a92c0       ??1?$__crt_scoped_stack_ptr@_W@@QAE@XZ 100aa2c0 f i libucrtd:getstringtypea.obj
 0001:000a92f0       ?get@?$__crt_scoped_stack_ptr@_W@@QBEPA_WXZ 100aa2f0 f i libucrtd:getstringtypea.obj
 0001:000a9310       __MallocaComputeSize       100aa310 f i libucrtd:getstringtypea.obj
 0001:000a9350       __MarkAllocaS              100aa350 f i libucrtd:getstringtypea.obj
 0001:000a9380       ___acrt_GetStringTypeA     100aa380 f   libucrtd:getstringtypea.obj
 0001:000a95a0       __freea_crt                100aa5a0 f i libucrtd:getstringtypea.obj
 0001:000a9630       ___acrt_add_locale_ref     100aa630 f   libucrtd:locale_refcounting.obj
 0001:000a9770       ___acrt_free_locale        100aa770 f   libucrtd:locale_refcounting.obj
 0001:000a9ae0       ___acrt_locale_add_lc_time_reference 100aaae0 f   libucrtd:locale_refcounting.obj
 0001:000a9b20       ___acrt_locale_free_lc_time_if_unreferenced 100aab20 f   libucrtd:locale_refcounting.obj
 0001:000a9b80       ___acrt_locale_release_lc_time_reference 100aab80 f   libucrtd:locale_refcounting.obj
 0001:000a9bc0       ___acrt_release_locale_ref 100aabc0 f   libucrtd:locale_refcounting.obj
 0001:000a9d10       ___acrt_update_thread_locale_data 100aad10 f   libucrtd:locale_refcounting.obj
 0001:000a9e20       __updatetlocinfoEx_nolock  100aae20 f   libucrtd:locale_refcounting.obj
 0001:000a9ec0       ___pctype_func             100aaec0 f   libucrtd:ctype.obj
 0001:000a9f00       ___pwctype_func            100aaf00 f   libucrtd:ctype.obj
 0001:000a9f10       ??$?RG@__crt_internal_free_policy@@QBEXQBG@Z 100aaf10 f i libucrtd:initctype.obj
 0001:000a9f40       ??$?RJ@__crt_internal_free_policy@@QBEXQBJ@Z 100aaf40 f i libucrtd:initctype.obj
 0001:000a9f70       ??0?$__crt_unique_heap_ptr@GU__crt_internal_free_policy@@@@QAE@QAG@Z 100aaf70 f i libucrtd:initctype.obj
 0001:000a9f90       ??0?$__crt_unique_heap_ptr@JU__crt_internal_free_policy@@@@QAE@QAJ@Z 100aaf90 f i libucrtd:initctype.obj
 0001:000a9fb0       ??1?$__crt_unique_heap_ptr@GU__crt_internal_free_policy@@@@QAE@XZ 100aafb0 f i libucrtd:initctype.obj
 0001:000a9fd0       ??1?$__crt_unique_heap_ptr@JU__crt_internal_free_policy@@@@QAE@XZ 100aafd0 f i libucrtd:initctype.obj
 0001:000a9ff0       ?detach@?$__crt_unique_heap_ptr@GU__crt_internal_free_policy@@@@QAEPAGXZ 100aaff0 f i libucrtd:initctype.obj
 0001:000aa020       ?detach@?$__crt_unique_heap_ptr@JU__crt_internal_free_policy@@@@QAEPAJXZ 100ab020 f i libucrtd:initctype.obj
 0001:000aa050       ?release@?$__crt_unique_heap_ptr@GU__crt_internal_free_policy@@@@QAEXXZ 100ab050 f i libucrtd:initctype.obj
 0001:000aa090       ?release@?$__crt_unique_heap_ptr@JU__crt_internal_free_policy@@@@QAEXXZ 100ab090 f i libucrtd:initctype.obj
 0001:000aa0d0       ____lc_codepage_func       100ab0d0 f   libucrtd:initctype.obj
 0001:000aa110       ____lc_collate_cp_func     100ab110 f   libucrtd:initctype.obj
 0001:000aa150       ____lc_locale_name_func    100ab150 f   libucrtd:initctype.obj
 0001:000aa1a0       ____mb_cur_max_func        100ab1a0 f   libucrtd:initctype.obj
 0001:000aa1e0       ____mb_cur_max_l_func      100ab1e0 f   libucrtd:initctype.obj
 0001:000aa220       ___acrt_locale_initialize_ctype 100ab220 f   libucrtd:initctype.obj
 0001:000aaa70       ??$?RUlconv@@@__crt_internal_free_policy@@QBEXQBUlconv@@@Z 100aba70 f i libucrtd:initmon.obj
 0001:000aaaa0       ??0?$__crt_unique_heap_ptr@Ulconv@@U__crt_internal_free_policy@@@@QAE@QAUlconv@@@Z 100abaa0 f i libucrtd:initmon.obj
 0001:000aaac0       ??1?$__crt_unique_heap_ptr@Ulconv@@U__crt_internal_free_policy@@@@QAE@XZ 100abac0 f i libucrtd:initmon.obj
 0001:000aaae0       ?detach@?$__crt_unique_heap_ptr@Ulconv@@U__crt_internal_free_policy@@@@QAEPAUlconv@@XZ 100abae0 f i libucrtd:initmon.obj
 0001:000aab10       ?release@?$__crt_unique_heap_ptr@Ulconv@@U__crt_internal_free_policy@@@@QAEXXZ 100abb10 f i libucrtd:initmon.obj
 0001:000aab50       ___acrt_locale_free_monetary 100abb50 f   libucrtd:initmon.obj
 0001:000aad60       ___acrt_locale_initialize_monetary 100abd60 f   libucrtd:initmon.obj
 0001:000ab5b0       ___acrt_locale_free_numeric 100ac5b0 f   libucrtd:initnum.obj
 0001:000ab690       ___acrt_locale_initialize_numeric 100ac690 f   libucrtd:initnum.obj
 0001:000abbe0       ??$?RU__crt_lc_time_data@@@__crt_internal_free_policy@@QBEXQBU__crt_lc_time_data@@@Z 100acbe0 f i libucrtd:inittime.obj
 0001:000abcd0       ??0?$__crt_unique_heap_ptr@U__crt_lc_time_data@@U__crt_internal_free_policy@@@@QAE@QAU__crt_lc_time_data@@@Z 100accd0 f i libucrtd:inittime.obj
 0001:000abcf0       ??1?$__crt_unique_heap_ptr@U__crt_lc_time_data@@U__crt_internal_free_policy@@@@QAE@XZ 100accf0 f i libucrtd:inittime.obj
 0001:000abd10       ??B?$__crt_unique_heap_ptr@U__crt_lc_time_data@@U__crt_internal_free_policy@@@@QBE_NXZ 100acd10 f i libucrtd:inittime.obj
 0001:000abd30       ?detach@?$__crt_unique_heap_ptr@U__crt_lc_time_data@@U__crt_internal_free_policy@@@@QAEPAU__crt_lc_time_data@@XZ 100acd30 f i libucrtd:inittime.obj
 0001:000abdb0       ?get@?$__crt_unique_heap_ptr@U__crt_lc_time_data@@U__crt_internal_free_policy@@@@QBEPAU__crt_lc_time_data@@XZ 100acdb0 f i libucrtd:inittime.obj
 0001:000ac3a0       ?is_valid@?$__crt_unique_heap_ptr@U__crt_lc_time_data@@U__crt_internal_free_policy@@@@QBE_NXZ 100ad3a0 f i libucrtd:inittime.obj
 0001:000ac3e0       ?release@?$__crt_unique_heap_ptr@U__crt_lc_time_data@@U__crt_internal_free_policy@@@@QAEXXZ 100ad3e0 f i libucrtd:inittime.obj
 0001:000ac420       ___acrt_locale_free_time   100ad420 f   libucrtd:inittime.obj
 0001:000ac5c0       ___acrt_locale_initialize_time 100ad5c0 f   libucrtd:inittime.obj
 0001:000ac650       _wcscmp                    100ad650 f   libucrtd:wcscmp.obj
 0001:000ac6d0       _wcscspn                   100ad6d0 f   libucrtd:wcscspn.obj
 0001:000ac760       _wcsncmp                   100ad760 f   libucrtd:wcsncmp.obj
 0001:000ac7d0       _wcspbrk                   100ad7d0 f   libucrtd:wcspbrk.obj
 0001:000ad610       ___acrt_get_qualified_locale 100ae610 f   libucrtd:get_qualified_locale.obj
 0001:000ae980       ___acrt_get_qualified_locale_downlevel 100af980 f   libucrtd:getqloc_downlevel.obj
 0001:000aece0       _localeconv                100afce0 f   libucrtd:localeconv.obj
 0001:000aef60       ___acrt_DownlevelLCIDToLocaleName 100aff60 f   libucrtd:lcidtoname_downlevel.obj
 0001:000af060       ___acrt_DownlevelLocaleNameToLCID 100b0060 f   libucrtd:lcidtoname_downlevel.obj
 0001:000af0b0       ??1scoped_global_state_reset@__crt_state_management@@QAE@XZ 100b00b0 f i libucrtd:qsort.obj
 0001:000af230       _qsort                     100b0230 f   libucrtd:qsort.obj
 0001:000afa50       _strpbrk                   100b0a50 f   libucrtd:strpbrk.obj
 0001:000afae0       ??B?$__crt_scoped_stack_ptr@_W@@QBE_NXZ 100b0ae0 f i libucrtd:lcmapstringa.obj
 0001:000affd0       ___acrt_LCMapStringA       100b0fd0 f   libucrtd:lcmapstringa.obj
 0001:000b0040       __wcsnicoll                100b1040 f   libucrtd:wcsnicol.obj
 0001:000b0330       __wcsnicoll_l              100b1330 f   libucrtd:wcsnicol.obj
 0001:000b06d0       __strnicoll                100b16d0 f   libucrtd:strnicol.obj
 0001:000b0730       __strnicoll_l              100b1730 f   libucrtd:strnicol.obj
 0001:000b0a80       ??$?RU__crt_lowio_handle_data@@@__crt_internal_free_policy@@QBEXQBU__crt_lowio_handle_data@@@Z 100b1a80 f i libucrtd:osfinfo.obj
 0001:000b0ab0       ??0?$__crt_unique_heap_ptr@U__crt_lowio_handle_data@@U__crt_internal_free_policy@@@@QAE@QAU__crt_lowio_handle_data@@@Z 100b1ab0 f i libucrtd:osfinfo.obj
 0001:000b0ad0       ??1?$__crt_unique_heap_ptr@U__crt_lowio_handle_data@@U__crt_internal_free_policy@@@@QAE@XZ 100b1ad0 f i libucrtd:osfinfo.obj
 0001:000b0af0       ??B?$__crt_unique_heap_ptr@U__crt_lowio_handle_data@@U__crt_internal_free_policy@@@@QBE_NXZ 100b1af0 f i libucrtd:osfinfo.obj
 0001:000b0b10       ?detach@?$__crt_unique_heap_ptr@U__crt_lowio_handle_data@@U__crt_internal_free_policy@@@@QAEPAU__crt_lowio_handle_data@@XZ 100b1b10 f i libucrtd:osfinfo.obj
 0001:000b0b40       ?get@?$__crt_unique_heap_ptr@U__crt_lowio_handle_data@@U__crt_internal_free_policy@@@@QBEPAU__crt_lowio_handle_data@@XZ 100b1b40 f i libucrtd:osfinfo.obj
 0001:000b0b60       ?is_valid@?$__crt_unique_heap_ptr@U__crt_lowio_handle_data@@U__crt_internal_free_policy@@@@QBE_NXZ 100b1b60 f i libucrtd:osfinfo.obj
 0001:000b0ba0       ?release@?$__crt_unique_heap_ptr@U__crt_lowio_handle_data@@U__crt_internal_free_policy@@@@QAEXXZ 100b1ba0 f i libucrtd:osfinfo.obj
 0001:000b0be0       ___acrt_lowio_create_handle_array 100b1be0 f   libucrtd:osfinfo.obj
 0001:000b0d70       ___acrt_lowio_destroy_handle_array 100b1d70 f   libucrtd:osfinfo.obj
 0001:000b0de0       ___acrt_lowio_ensure_fh_exists 100b1de0 f   libucrtd:osfinfo.obj
 0001:000b0f90       ___acrt_lowio_lock_fh      100b1f90 f   libucrtd:osfinfo.obj
 0001:000b0fc0       ___acrt_lowio_set_os_handle 100b1fc0 f   libucrtd:osfinfo.obj
 0001:000b10d0       ___acrt_lowio_unlock_fh    100b20d0 f   libucrtd:osfinfo.obj
 0001:000b1100       __alloc_osfhnd             100b2100 f   libucrtd:osfinfo.obj
 0001:000b1350       __free_osfhnd              100b2350 f   libucrtd:osfinfo.obj
 0001:000b1470       __get_osfhandle            100b2470 f   libucrtd:osfinfo.obj
 0001:000b1650       __open_osfhandle           100b2650 f   libucrtd:osfinfo.obj
 0001:000b18d0       __isatty                   100b28d0 f   libucrtd:isatty.obj
 0001:000b19d0       ??0__crt_stdio_stream@@QAE@QAU__crt_stdio_stream_data@@@Z 100b29d0 f i libucrtd:fflush.obj
 0001:000b19f0       ?__acrt_stdio_reset_buffer@@YAXV__crt_stdio_stream@@@Z 100b29f0 f i libucrtd:fflush.obj
 0001:000b1a30       ?has_all_of@__crt_stdio_stream@@QBE_NJ@Z 100b2a30 f i libucrtd:fflush.obj
 0001:000b1a80       ?has_big_buffer@__crt_stdio_stream@@QBE_NXZ 100b2a80 f i libucrtd:fflush.obj
 0001:000b1aa0       ?is_in_use@__crt_stdio_stream@@QBE_NXZ 100b2aa0 f i libucrtd:fflush.obj
 0001:000b1ae0       ___acrt_stdio_flush_nolock 100b2ae0 f   libucrtd:fflush.obj
 0001:000b1bf0       __fflush_nolock            100b2bf0 f   libucrtd:fflush.obj
 0001:000b1c90       __flushall                 100b2c90 f   libucrtd:fflush.obj
 0001:000b1eb0       _fflush                    100b2eb0 f   libucrtd:fflush.obj
 0001:000b1f80       ___acrt_fp_strflt_to_string 100b2f80 f   libucrtd:_fptostr.obj
 0001:000b2b20       ??0big_integer@__crt_strtox@@QAE@ABU01@@Z 100b3b20 f i libucrtd:cfout.obj
 0001:000b2b70       ??0big_integer@__crt_strtox@@QAE@XZ 100b3b70 f i libucrtd:cfout.obj
 0001:000b2bb0       ??0scoped_fp_state_reset@?A0x48fbfdd4@@QAE@XZ 100b3bb0 f i libucrtd:cfout.obj
 0001:000b2c10       ??1scoped_fp_state_reset@?A0x48fbfdd4@@QAE@XZ 100b3c10 f i libucrtd:cfout.obj
 0001:000b2c40       ??4big_integer@__crt_strtox@@QAEAAU01@ABU01@@Z 100b3c40 f i libucrtd:cfout.obj
 0001:000b2c90       ??8__crt_strtox@@YA_NABUbig_integer@0@0@Z 100b3c90 f i libucrtd:cfout.obj
 0001:000b2d00       ??9__crt_strtox@@YA_NABUbig_integer@0@0@Z 100b3d00 f i libucrtd:cfout.obj
 0001:000b2d50       ?add_carry@__crt_strtox@@YAIAAIII@Z 100b3d50 f i libucrtd:cfout.obj
 0001:000b2da0       ?add_multiply_carry@__crt_strtox@@YAIAAIIII@Z 100b3da0 f i libucrtd:cfout.obj
 0001:000b2df0       ?bit_scan_reverse@__crt_strtox@@YAII@Z 100b3df0 f i libucrtd:cfout.obj
 0001:000b2e30       ?count_sequential_high_zeroes@__crt_strtox@@YAII@Z 100b3e30 f i libucrtd:cfout.obj
 0001:000b2e80       ?divide@__crt_strtox@@YA_KAAUbig_integer@1@ABU21@@Z 100b3e80 f i libucrtd:cfout.obj
 0001:000b3ba0       ?is_zero@__crt_strtox@@YA_NABUbig_integer@1@@Z 100b4ba0 f i libucrtd:cfout.obj
 0001:000b3bd0       ?make_big_integer@__crt_strtox@@YA?AUbig_integer@1@_K@Z 100b4bd0 f i libucrtd:cfout.obj
 0001:000b3cb0       ?make_big_integer_power_of_two@__crt_strtox@@YA?AUbig_integer@1@I@Z 100b4cb0 f i libucrtd:cfout.obj
 0001:000b3d90       ?multiply@__crt_strtox@@YA_NAAUbig_integer@1@ABU21@@Z 100b4d90 f i libucrtd:cfout.obj
 0001:000b41f0       ?multiply@__crt_strtox@@YA_NAAUbig_integer@1@I@Z 100b51f0 f i libucrtd:cfout.obj
 0001:000b42f0       ?multiply_64_32@__crt_strtox@@YA_K_KI@Z 100b52f0 f i libucrtd:cfout.obj
 0001:000b4310       ?multiply_by_power_of_ten@__crt_strtox@@YA_NAAUbig_integer@1@I@Z 100b5310 f i libucrtd:cfout.obj
 0001:000b4510       ?multiply_core@__crt_strtox@@YAIQAIII@Z 100b5510 f i libucrtd:cfout.obj
 0001:000b4590       ?shift_left@__crt_strtox@@YA_NAAUbig_integer@1@I@Z 100b5590 f i libucrtd:cfout.obj
 0001:000b49b0       ___acrt_fltout             100b59b0 f   libucrtd:cfout.obj
 0001:000b5750       ___acrt_stdio_flush_and_write_narrow_nolock 100b6750 f   libucrtd:_flsbuf.obj
 0001:000b5780       ___acrt_stdio_flush_and_write_wide_nolock 100b6780 f   libucrtd:_flsbuf.obj
 0001:000b57b0       __fcloseall                100b67b0 f   libucrtd:closeall.obj
 0001:000b5930       ?has_crt_buffer@__crt_stdio_stream@@QBE_NXZ 100b6930 f i libucrtd:_freebuf.obj
 0001:000b5950       ___acrt_stdio_free_buffer_nolock 100b6950 f   libucrtd:_freebuf.obj
 0001:000b5a30       __set_error_mode           100b6a30 f   libucrtd:set_error_mode.obj
 0001:000b5b20       __d_int                    100b6b20 f   libucrtd:_test.obj
 0001:000b5e70       __dtest                    100b6e70 f   libucrtd:_test.obj
 0001:000b5fd0       __fd_int                   100b6fd0 f   libucrtd:_test.obj
 0001:000b6220       __fdtest                   100b7220 f   libucrtd:_test.obj
 0001:000b6320       __fperrraise               100b7320 f   libucrtd:_test.obj
 0001:000b6360       __ld_int                   100b7360 f   libucrtd:_test.obj
 0001:000b6380       __ldtest                   100b7380 f   libucrtd:_test.obj
 0001:000b6690       ___acrt_GetLocaleInfoA     100b7690 f   libucrtd:getlocaleinfoa.obj
 0001:000b6b30       __wcsicmp                  100b7b30 f   libucrtd:wcsicmp.obj
 0001:000b6d70       __wcsicmp_l                100b7d70 f   libucrtd:wcsicmp.obj
 0001:000b7070       __wcsnicmp                 100b8070 f   libucrtd:wcsnicmp.obj
 0001:000b72e0       __wcsnicmp_l               100b82e0 f   libucrtd:wcsnicmp.obj
 0001:000b75e0       ___strncnt                 100b85e0 f   libucrtd:strncnt.obj
 0001:000b7640       ___acrt_CompareStringW     100b8640 f   libucrtd:comparestringw.obj
 0001:000b7710       __strnicmp                 100b8710 f   libucrtd:strnicmp.obj
 0001:000b7950       __strnicmp_l               100b8950 f   libucrtd:strnicmp.obj
 0001:000b8230       ___acrt_CompareStringA     100b9230 f   libucrtd:comparestringa.obj
 0001:000b82a0       ??$?RV<lambda_a7d5e04a8e766f2a135287cf7b01dfe7>@@AAV<lambda_e9ab68cc08dfd839979545c079379e6e>@@V<lambda_14e08a59e78d15c51edeee53d25fb3be>@@@?$__crt_seh_guarded_call@H@@QAEH$$QAV<lambda_a7d5e04a8e766f2a135287cf7b01dfe7>@@AAV<lambda_e9ab68cc08dfd839979545c079379e6e>@@$$QAV<lambda_14e08a59e78d15c51edeee53d25fb3be>@@@Z 100b92a0 f i libucrtd:commit.obj
 0001:000b8350       ??$__acrt_lowio_lock_fh_and_call@V<lambda_e9ab68cc08dfd839979545c079379e6e>@@@@YAHH$$QAV<lambda_e9ab68cc08dfd839979545c079379e6e>@@@Z 100b9350 f i libucrtd:commit.obj
 0001:000b8540       __commit                   100b9540 f   libucrtd:commit.obj
 0001:000b9760       __write                    100ba760 f   libucrtd:write.obj
 0001:000b9a40       __write_nolock             100baa40 f   libucrtd:write.obj
 0001:000b9fa0       _log10                     100bafa0 f   libucrtd:log10.obj
 0001:000b9fe0       __CIlog10                  100bafe0 f   libucrtd:log10.obj
 0001:000ba01b       __CIlog10_default          100bb01b f   libucrtd:log10.obj
 0001:000ba02f       __log10_default            100bb02f     libucrtd:log10.obj
 0001:000ba150       _ceil                      100bb150 f   libucrtd:ceil_pentium4.obj
 0001:000ba190       __ceil_pentium4            100bb190 f   libucrtd:ceil_pentium4.obj
 0001:000ba2c0       _fegetenv                  100bb2c0 f   libucrtd:fegetenv.obj
 0001:000ba2f0       _fesetenv                  100bb2f0 f   libucrtd:fesetenv.obj
 0001:000ba370       _feholdexcept              100bb370 f   libucrtd:feholdexcept.obj
 0001:000bad30       __lseek                    100bbd30 f   libucrtd:lseek.obj
 0001:000bad60       __lseek_nolock             100bbd60 f   libucrtd:lseek.obj
 0001:000bad90       __lseeki64                 100bbd90 f   libucrtd:lseek.obj
 0001:000badc0       __lseeki64_nolock          100bbdc0 f   libucrtd:lseek.obj
 0001:000badf0       ___acrt_stdio_allocate_buffer_nolock 100bbdf0 f   libucrtd:_getbuf.obj
 0001:000baf50       __fclose_nolock            100bbf50 f   libucrtd:fclose.obj
 0001:000bb0e0       _fclose                    100bc0e0 f   libucrtd:fclose.obj
 0001:000bb280       _fegetexceptflag           100bc280 f   libucrtd:fegetexceptflag.obj
 0001:000bb2e0       _fesetexceptflag           100bc2e0 f   libucrtd:fesetexceptflag.obj
 0001:000bb380       ___acrt_fenv_get_fp_status_word_from_exception_mask 100bc380 f   libucrtd:_fenvutils.obj
 0001:000bbb00       __getfpcontrolword         100bcb00 f   libucrtd:_fenvutils.obj
 0001:000bbb70       __getfpstatusword          100bcb70 f   libucrtd:_fenvutils.obj
 0001:000bbbe0       __setfpcontrolword         100bcbe0 f   libucrtd:_fenvutils.obj
 0001:000bbcd0       __setfpstatusword          100bccd0 f   libucrtd:_fenvutils.obj
 0001:000bbdc0       __towlower_l               100bcdc0 f   libucrtd:towlower.obj
 0001:000bbf60       _towlower                  100bcf60 f   libucrtd:towlower.obj
 0001:000bbf80       ___ascii_strnicmp          100bcf80 f   libucrtd:_strnicm.obj
 0001:000bbff9       ??$?RV<lambda_4980db0136e49a56f91ef52c46ca659a>@@AAV<lambda_6e3e78bb6855d1e4040e022c1b427e22>@@V<lambda_9c074eaf62197b4fd0274ed9e7824161>@@@?$__crt_seh_guarded_call@G@@QAEG$$QAV<lambda_4980db0136e49a56f91ef52c46ca659a>@@AAV<lambda_6e3e78bb6855d1e4040e022c1b427e22>@@$$QAV<lambda_9c074eaf62197b4fd0274ed9e7824161>@@@Z 100bcff9 f i libucrtd:putwch.obj
 0001:000bc06e       ??$__acrt_lock_and_call@V<lambda_6e3e78bb6855d1e4040e022c1b427e22>@@@@YAGW4__acrt_lock_id@@$$QAV<lambda_6e3e78bb6855d1e4040e022c1b427e22>@@@Z 100bd06e f i libucrtd:putwch.obj
 0001:000bc106       __putwch                   100bd106 f   libucrtd:putwch.obj
 0001:000bc12a       __putwch_nolock            100bd12a f   libucrtd:putwch.obj
 0001:000bc180       ___acrt_initialize_sse2    100bd180 f   libucrtd:mathfcns.obj
 0001:000bc1a0       __set_SSE2_enable          100bd1a0 f   libucrtd:mathfcns.obj
 0001:000bc200       __CIlog10_pentium4         100bd200 f   libucrtd:log10_pentium4.obj
 0001:000bc218       __log10_pentium4           100bd218     libucrtd:log10_pentium4.obj
 0001:000bc551       __fFEXP                    100bd551     libucrtd:87tran.obj
 0001:000bc5a8       __rtinfpopse               100bd5a8     libucrtd:87tran.obj
 0001:000bc5aa       __rtinfnpopse              100bd5aa     libucrtd:87tran.obj
 0001:000bc5ba       __fFLN                     100bd5ba     libucrtd:87tran.obj
 0001:000bc66f       __rtinfpop                 100bd66f     libucrtd:87tran.obj
 0001:000bc671       __rtinfnpop                100bd671     libucrtd:87tran.obj
 0001:000bc68e       __ffexpm1                  100bd68e     libucrtd:87tran.obj
 0001:000bc7c0       ___libm_error_support      100bd7c0 f   libucrtd:libm_error.obj
 0001:000bcf00       ___libm_setusermatherr     100bdf00 f   libucrtd:libm_error.obj
 0001:000bcf40       __ceil_default             100bdf40 f   libucrtd:ceil.obj
 0001:000bd330       ___control87_2             100be330 f   libucrtd:ieee87.obj
 0001:000bd4a0       ___fpreset_sse2            100be4a0 f   libucrtd:ieee87.obj
 0001:000bd8f0       __clearfp                  100be8f0 f   libucrtd:ieee87.obj
 0001:000bd950       __control87                100be950 f   libucrtd:ieee87.obj
 0001:000bda30       __controlfp                100bea30 f   libucrtd:ieee87.obj
 0001:000bda60       __fpreset                  100bea60 f   libucrtd:ieee87.obj
 0001:000bdc90       __set_controlfp            100bec90 f   libucrtd:ieee87.obj
 0001:000bdd40       __statusfp                 100bed40 f   libucrtd:ieee87.obj
 0001:000bdda0       __statusfp2                100beda0 f   libucrtd:ieee87.obj
 0001:000bddf0       ??$?RV<lambda_4d8dda1ac129e11742d77ae5e3bbda74>@@AAV<lambda_a8f98972ebaa5f7148d35bffe53bd70d>@@V<lambda_5193b64c98d743723bd5dcf162a72339>@@@?$__crt_seh_guarded_call@H@@QAEH$$QAV<lambda_4d8dda1ac129e11742d77ae5e3bbda74>@@AAV<lambda_a8f98972ebaa5f7148d35bffe53bd70d>@@$$QAV<lambda_5193b64c98d743723bd5dcf162a72339>@@@Z 100bedf0 f i libucrtd:close.obj
 0001:000bdea0       ??$__acrt_lowio_lock_fh_and_call@V<lambda_a8f98972ebaa5f7148d35bffe53bd70d>@@@@YAHH$$QAV<lambda_a8f98972ebaa5f7148d35bffe53bd70d>@@@Z 100beea0 f i libucrtd:close.obj
 0001:000be160       __close                    100bf160 f   libucrtd:close.obj
 0001:000be330       __close_nolock             100bf330 f   libucrtd:close.obj
 0001:000be3a0       ??$?RU__crt_stdio_stream_data@@@__crt_internal_free_policy@@QBEXQBU__crt_stdio_stream_data@@@Z 100bf3a0 f i libucrtd:stream.obj
 0001:000be3d0       ??0?$__crt_unique_heap_ptr@U__crt_stdio_stream_data@@U__crt_internal_free_policy@@@@QAE@QAU__crt_stdio_stream_data@@@Z 100bf3d0 f i libucrtd:stream.obj
 0001:000be3f0       ??0__crt_stdio_stream@@QAE@XZ 100bf3f0 f i libucrtd:stream.obj
 0001:000be410       ??1?$__crt_unique_heap_ptr@U__crt_stdio_stream_data@@U__crt_internal_free_policy@@@@QAE@XZ 100bf410 f i libucrtd:stream.obj
 0001:000be430       ?__acrt_stdio_allocate_stream@@YA?AV__crt_stdio_stream@@XZ 100bf430 f   libucrtd:stream.obj
 0001:000be560       ?__acrt_stdio_free_stream@@YAXV__crt_stdio_stream@@@Z 100bf560 f   libucrtd:stream.obj
 0001:000be600       ?deallocate@__crt_stdio_stream@@QAEXXZ 100bf600 f i libucrtd:stream.obj
 0001:000be620       ?detach@?$__crt_unique_heap_ptr@U__crt_stdio_stream_data@@U__crt_internal_free_policy@@@@QAEPAU__crt_stdio_stream_data@@XZ 100bf620 f i libucrtd:stream.obj
 0001:000be7e0       ?lock@__crt_stdio_stream@@QBEXXZ 100bf7e0 f i libucrtd:stream.obj
 0001:000be810       ?release@?$__crt_unique_heap_ptr@U__crt_stdio_stream_data@@U__crt_internal_free_policy@@@@QAEXXZ 100bf810 f i libucrtd:stream.obj
 0001:000be850       ?try_allocate@__crt_stdio_stream@@QAE_NXZ 100bf850 f i libucrtd:stream.obj
 0001:000be8b0       ?unlock@__crt_stdio_stream@@QBEXXZ 100bf8b0 f i libucrtd:stream.obj
 0001:000be8e0       _fetestexcept              100bf8e0 f   libucrtd:fetestexcept.obj
 0001:000be910       ___acrt_LCMapStringW       100bf910 f   libucrtd:lcmapstringw.obj
 0001:000be986       ___dcrt_lowio_initialize_console_output 100bf986 f   libucrtd:initcon.obj
 0001:000be9ac       ___dcrt_terminate_console_output 100bf9ac f   libucrtd:initcon.obj
 0001:000be9d0       __d_inttype                100bf9d0 f   libucrtd:powhlp.obj
 0001:000bea80       __powhlp                   100bfa80 f   libucrtd:powhlp.obj
 0001:000bec90       __frnd                     100bfc90 f   libucrtd:frnd.obj
 0001:000becb0       __controlfp_s              100bfcb0 f   libucrtd:contrlfp.obj
 0001:000bedce       _InitializeSListHead@4     100bfdce f   kernel32:KERNEL32.dll
 0001:000bedd4       _QueryPerformanceCounter@4 100bfdd4 f   kernel32:KERNEL32.dll
 0001:000bedda       _GetCurrentProcessId@0     100bfdda f   kernel32:KERNEL32.dll
 0001:000bede0       _GetCurrentThreadId@0      100bfde0 f   kernel32:KERNEL32.dll
 0001:000bede6       _GetSystemTimeAsFileTime@4 100bfde6 f   kernel32:KERNEL32.dll
 0001:000bedec       _IsDebuggerPresent@0       100bfdec f   kernel32:KERNEL32.dll
 0001:000bedf2       _UnhandledExceptionFilter@4 100bfdf2 f   kernel32:KERNEL32.dll
 0001:000bedf8       _SetUnhandledExceptionFilter@4 100bfdf8 f   kernel32:KERNEL32.dll
 0001:000bedfe       _GetStartupInfoW@4         100bfdfe f   kernel32:KERNEL32.dll
 0001:000bee04       _IsProcessorFeaturePresent@4 100bfe04 f   kernel32:KERNEL32.dll
 0001:000bee0a       _GetModuleHandleW@4        100bfe0a f   kernel32:KERNEL32.dll
 0001:000bee10       _RaiseException@16         100bfe10 f   kernel32:KERNEL32.dll
 0001:000bee16       _MultiByteToWideChar@24    100bfe16 f   kernel32:KERNEL32.dll
 0001:000bee1c       _WideCharToMultiByte@32    100bfe1c f   kernel32:KERNEL32.dll
 0001:000bee22       _GetLastError@0            100bfe22 f   kernel32:KERNEL32.dll
 0001:000bee28       _HeapAlloc@12              100bfe28 f   kernel32:KERNEL32.dll
 0001:000bee2e       _HeapFree@12               100bfe2e f   kernel32:KERNEL32.dll
 0001:000bee34       _GetProcessHeap@0          100bfe34 f   kernel32:KERNEL32.dll
 0001:000bee3a       _VirtualQuery@12           100bfe3a f   kernel32:KERNEL32.dll
 0001:000bee40       _FreeLibrary@4             100bfe40 f   kernel32:KERNEL32.dll
 0001:000bee46       _GetProcAddress@8          100bfe46 f   kernel32:KERNEL32.dll
 0001:000bee4c       _GetCurrentProcess@0       100bfe4c f   kernel32:KERNEL32.dll
 0001:000bee52       _TerminateProcess@8        100bfe52 f   kernel32:KERNEL32.dll
 0001:000bee58       _InterlockedPushEntrySList@8 100bfe58 f   kernel32:KERNEL32.dll
 0001:000bee5e       _InterlockedFlushSList@4   100bfe5e f   kernel32:KERNEL32.dll
 0001:000bee64       _GetModuleFileNameW@12     100bfe64 f   kernel32:KERNEL32.dll
 0001:000bee6a       _LoadLibraryExW@12         100bfe6a f   kernel32:KERNEL32.dll
 0001:000bee70       _RtlUnwind@16              100bfe70 f   kernel32:KERNEL32.dll
 0001:000bee76       _SetLastError@4            100bfe76 f   kernel32:KERNEL32.dll
 0001:000bee7c       _EnterCriticalSection@4    100bfe7c f   kernel32:KERNEL32.dll
 0001:000bee82       _LeaveCriticalSection@4    100bfe82 f   kernel32:KERNEL32.dll
 0001:000bee88       _DeleteCriticalSection@4   100bfe88 f   kernel32:KERNEL32.dll
 0001:000bee8e       _InitializeCriticalSectionAndSpinCount@8 100bfe8e f   kernel32:KERNEL32.dll
 0001:000bee94       _TlsAlloc@0                100bfe94 f   kernel32:KERNEL32.dll
 0001:000bee9a       _TlsGetValue@4             100bfe9a f   kernel32:KERNEL32.dll
 0001:000beea0       _TlsSetValue@8             100bfea0 f   kernel32:KERNEL32.dll
 0001:000beea6       _TlsFree@4                 100bfea6 f   kernel32:KERNEL32.dll
 0001:000beeac       _GetModuleFileNameA@12     100bfeac f   kernel32:KERNEL32.dll
 0001:000beeb2       _GetModuleHandleExW@12     100bfeb2 f   kernel32:KERNEL32.dll
 0001:000beeb8       _HeapValidate@12           100bfeb8 f   kernel32:KERNEL32.dll
 0001:000beebe       _GetSystemInfo@4           100bfebe f   kernel32:KERNEL32.dll
 0001:000beec4       _ExitProcess@4             100bfec4 f   kernel32:KERNEL32.dll
 0001:000beeca       _GetStdHandle@4            100bfeca f   kernel32:KERNEL32.dll
 0001:000beed0       _GetFileType@4             100bfed0 f   kernel32:KERNEL32.dll
 0001:000beed6       _WriteFile@20              100bfed6 f   kernel32:KERNEL32.dll
 0001:000beedc       _OutputDebugStringA@4      100bfedc f   kernel32:KERNEL32.dll
 0001:000beee2       _OutputDebugStringW@4      100bfee2 f   kernel32:KERNEL32.dll
 0001:000beee8       _WriteConsoleW@20          100bfee8 f   kernel32:KERNEL32.dll
 0001:000beeee       _CloseHandle@4             100bfeee f   kernel32:KERNEL32.dll
 0001:000beef4       _WaitForSingleObjectEx@12  100bfef4 f   kernel32:KERNEL32.dll
 0001:000beefa       _CreateThread@24           100bfefa f   kernel32:KERNEL32.dll
 0001:000bef00       _SetConsoleCtrlHandler@8   100bff00 f   kernel32:KERNEL32.dll
 0001:000bef06       _HeapReAlloc@16            100bff06 f   kernel32:KERNEL32.dll
 0001:000bef0c       _GetCurrentThread@0        100bff0c f   kernel32:KERNEL32.dll
 0001:000bef12       _HeapSize@12               100bff12 f   kernel32:KERNEL32.dll
 0001:000bef18       _HeapQueryInformation@20   100bff18 f   kernel32:KERNEL32.dll
 0001:000bef1e       _GetACP@0                  100bff1e f   kernel32:KERNEL32.dll
 0001:000bef24       _GetDateFormatW@24         100bff24 f   kernel32:KERNEL32.dll
 0001:000bef2a       _GetTimeFormatW@24         100bff2a f   kernel32:KERNEL32.dll
 0001:000bef30       _CompareStringW@24         100bff30 f   kernel32:KERNEL32.dll
 0001:000bef36       _LCMapStringW@24           100bff36 f   kernel32:KERNEL32.dll
 0001:000bef3c       _GetLocaleInfoW@16         100bff3c f   kernel32:KERNEL32.dll
 0001:000bef42       _IsValidLocale@8           100bff42 f   kernel32:KERNEL32.dll
 0001:000bef48       _GetUserDefaultLCID@0      100bff48 f   kernel32:KERNEL32.dll
 0001:000bef4e       _EnumSystemLocalesW@8      100bff4e f   kernel32:KERNEL32.dll
 0001:000bef54       _FindClose@4               100bff54 f   kernel32:KERNEL32.dll
 0001:000bef5a       _FindFirstFileExA@24       100bff5a f   kernel32:KERNEL32.dll
 0001:000bef60       _FindFirstFileExW@24       100bff60 f   kernel32:KERNEL32.dll
 0001:000bef66       _FindNextFileA@8           100bff66 f   kernel32:KERNEL32.dll
 0001:000bef6c       _FindNextFileW@8           100bff6c f   kernel32:KERNEL32.dll
 0001:000bef72       _IsValidCodePage@4         100bff72 f   kernel32:KERNEL32.dll
 0001:000bef78       _GetOEMCP@0                100bff78 f   kernel32:KERNEL32.dll
 0001:000bef7e       _GetCPInfo@8               100bff7e f   kernel32:KERNEL32.dll
 0001:000bef84       _GetCommandLineA@0         100bff84 f   kernel32:KERNEL32.dll
 0001:000bef8a       _GetCommandLineW@0         100bff8a f   kernel32:KERNEL32.dll
 0001:000bef90       _GetEnvironmentStringsW@0  100bff90 f   kernel32:KERNEL32.dll
 0001:000bef96       _FreeEnvironmentStringsW@4 100bff96 f   kernel32:KERNEL32.dll
 0001:000bef9c       _SetEnvironmentVariableA@8 100bff9c f   kernel32:KERNEL32.dll
 0001:000befa2       _SetEnvironmentVariableW@8 100bffa2 f   kernel32:KERNEL32.dll
 0001:000befa8       _GetStringTypeW@16         100bffa8 f   kernel32:KERNEL32.dll
 0001:000befae       _SetStdHandle@8            100bffae f   kernel32:KERNEL32.dll
 0001:000befb4       _FlushFileBuffers@4        100bffb4 f   kernel32:KERNEL32.dll
 0001:000befba       _GetConsoleCP@0            100bffba f   kernel32:KERNEL32.dll
 0001:000befc0       _GetConsoleMode@8          100bffc0 f   kernel32:KERNEL32.dll
 0001:000befc6       _SetFilePointerEx@20       100bffc6 f   kernel32:KERNEL32.dll
 0001:000befcc       _EncodePointer@4           100bffcc f   kernel32:KERNEL32.dll
 0001:000befd2       _DecodePointer@4           100bffd2 f   kernel32:KERNEL32.dll
 0001:000befd8       _CreateFileW@28            100bffd8 f   kernel32:KERNEL32.dll
 0001:000befe0       __FindPESection            100bffe0 f   LIBCMTD:pesect.obj
 0001:000bf070       __IsNonwritableInCurrentImage 100c0070 f   LIBCMTD:pesect.obj
 0001:000bf1f0       __ValidateImageBase        100c01f0 f   LIBCMTD:pesect.obj
 0001:000bf270       __allshl                   100c0270 f   LIBCMTD:llshl.obj
 0001:000bf2a0       __aulldiv                  100c02a0 f   LIBCMTD:ulldiv.obj
 0001:000bf330       __aullrem                  100c0330 f   LIBCMTD:ullrem.obj
 0001:000bf3d0       __allmul                   100c03d0 f   LIBCMTD:llmul.obj
 0001:000bf420       __alldiv                   100c0420 f   LIBCMTD:lldiv.obj
 0001:000bf500       __allrem                   100c0500 f   LIBCMTD:llrem.obj
 0001:000bf5e0       __aullshr                  100c05e0 f   LIBCMTD:ullshr.obj
 0001:000bf610       __ftol2_sse                100c0610 f   LIBCMTD:_ftol2_.obj
 0001:000bf619       __ftol2_pentium4           100c0619 f   LIBCMTD:_ftol2_.obj
 0001:000bf62c       __ftol2_sse_excpt          100c062c f   LIBCMTD:_ftol2_.obj
 0001:000bf650       __ftol2                    100c0650 f   LIBCMTD:_ftol2_.obj
 0001:000bf700       __SEH_prolog4              100c0700 f   LIBCMTD:_sehprolg4_.obj
 0001:000bf746       __SEH_epilog4              100c0746 f   LIBCMTD:_sehprolg4_.obj
 0001:000bf780       __initialize_default_precision 100c0780 f   LIBCMTD:default_precision.obj
 0001:000bf7b0       _memmove                   100c07b0 f   libvcruntimed:memmove.obj
 0001:000bfe90       _strchr                    100c0e90 f   libvcruntimed:strchr.obj
 0001:000bfefe       ___from_strstr_to_strchr   100c0efe     libvcruntimed:strchr.obj
 0001:000c0010       _wcschr                    100c1010 f   libvcruntimed:wcschr.obj
 0001:000c01d0       _strrchr                   100c11d0 f   libvcruntimed:strrchr.obj
 0001:000c0360       ?_CallCatchBlock2@@YAPAXPAUEHRegistrationNode@@PBU_s_FuncInfo@@PAXHK@Z 100c1360 f   libvcruntimed:trnsctrl.obj
 0001:000c03f0       ?_CallSETranslator@@YAHPAUEHExceptionRecord@@PAUEHRegistrationNode@@PAX2PBU_s_FuncInfo@@H1@Z 100c13f0 f   libvcruntimed:trnsctrl.obj
 0001:000c0520       ?_GetRangeOfTrysToCheck@@YAPBU_s_TryBlockMapEntry@@PBU_s_FuncInfo@@HHPAI1@Z 100c1520 f   libvcruntimed:trnsctrl.obj
 0001:000c0620       ?_JumpToContinuation@@YGXPAXPAUEHRegistrationNode@@@Z 100c1620 f   libvcruntimed:trnsctrl.obj
 0001:000c0660       ?_UnwindNestedFrames@@YGXPAUEHRegistrationNode@@PAUEHExceptionRecord@@@Z 100c1660 f   libvcruntimed:trnsctrl.obj
 0001:000c06d0       __CatchGuardHandler        100c16d0 f   libvcruntimed:trnsctrl.obj
 0001:000c0730       __CreateFrameInfo          100c1730 f   libvcruntimed:trnsctrl.obj
 0001:000c0770       __FindAndUnlinkFrame       100c1770 f   libvcruntimed:trnsctrl.obj
 0001:000c0800       __IsExceptionObjectToBeDestroyed 100c1800 f   libvcruntimed:trnsctrl.obj
 0001:000c0850       __TranslatorGuardHandler   100c1850 f   libvcruntimed:trnsctrl.obj
 0001:000c0930       ___CxxFrameHandler         100c1930 f   libvcruntimed:trnsctrl.obj
 0001:000c0980       ___CxxFrameHandler2        100c1980 f   libvcruntimed:trnsctrl.obj
 0001:000c09d0       ___CxxFrameHandler3        100c19d0 f   libvcruntimed:trnsctrl.obj
 0001:000c0a20       ___CxxLongjmpUnwind@4      100c1a20 f   libvcruntimed:trnsctrl.obj
 0001:000c0a70       __CallSettingFrame@12      100c1a70 f   libvcruntimed:lowhelpr.obj
 0001:000c0a97       __NLG_Return               100c1a97     libvcruntimed:lowhelpr.obj
 0001:000c0ad0       ___DestructExceptionObject 100c1ad0 f   libvcruntimed:frame.obj
 0001:000c0c50       ??0bad_exception@std@@QAE@ABV01@@Z 100c1c50 f i libvcruntimed:frame.obj
 0001:000c0c80       ??0bad_exception@std@@QAE@XZ 100c1c80 f i libvcruntimed:frame.obj
 0001:000c0cb0       ??0exception@std@@QAE@ABV01@@Z 100c1cb0 f i libvcruntimed:frame.obj
 0001:000c0d00       ??0exception@std@@QAE@QBDH@Z 100c1d00 f i libvcruntimed:frame.obj
 0001:000c0d40       ??1bad_exception@std@@UAE@XZ 100c1d40 f i libvcruntimed:frame.obj
 0001:000c0d60       ??1exception@std@@UAE@XZ   100c1d60 f i libvcruntimed:frame.obj
 0001:000c0d90       ??8type_info@@QBE_NABV0@@Z 100c1d90 f i libvcruntimed:frame.obj
 0001:000c0de0       ??_Ebad_exception@std@@UAEPAXI@Z 100c1de0 f i libvcruntimed:frame.obj
 0001:000c0de0       ??_Gbad_exception@std@@UAEPAXI@Z 100c1de0 f i libvcruntimed:frame.obj
 0001:000c0e20       ??_Gexception@std@@UAEPAXI@Z 100c1e20 f i libvcruntimed:frame.obj
 0001:000c0e20       ??_Eexception@std@@UAEPAXI@Z 100c1e20 f i libvcruntimed:frame.obj
 0001:000c1cf0       ?_CallMemberFunction0@@YGXQAX0@Z 100c2cf0 f i libvcruntimed:frame.obj
 0001:000c1d00       ?_CallMemberFunction1@@YGXQAX00@Z 100c2d00 f i libvcruntimed:frame.obj
 0001:000c1d10       ?_CallMemberFunction2@@YGXQAX00H@Z 100c2d10 f i libvcruntimed:frame.obj
 0001:000c1d20       ?_ValidateExecute@@YA_NP6GHXZ@Z 100c2d20 f i libvcruntimed:frame.obj
 0001:000c1d40       ?_ValidateRead@@YA_NPBXI@Z 100c2d40 f i libvcruntimed:frame.obj
 0001:000c1d60       ?_ValidateWrite@@YA_NPAXI@Z 100c2d60 f i libvcruntimed:frame.obj
 0001:000c1d80       ?raw_name@type_info@@QBEPBDXZ 100c2d80 f i libvcruntimed:frame.obj
 0001:000c1da0       ?what@exception@std@@UBEPBDXZ 100c2da0 f i libvcruntimed:frame.obj
 0001:000c1de0       __SetWinRTOutOfMemoryExceptionCallback 100c2de0 f   libvcruntimed:frame.obj
 0001:000c1df0       ___AdjustPointer           100c2df0 f   libvcruntimed:frame.obj
 0001:000c1e50       ___BuildCatchObject        100c2e50 f   libvcruntimed:frame.obj
 0001:000c1fa0       ___BuildCatchObjectHelper  100c2fa0 f   libvcruntimed:frame.obj
 0001:000c2390       ___CxxDetectRethrow        100c3390 f   libvcruntimed:frame.obj
 0001:000c2430       ___CxxExceptionFilter      100c3430 f   libvcruntimed:frame.obj
 0001:000c26a0       ___CxxQueryExceptionSize   100c36a0 f   libvcruntimed:frame.obj
 0001:000c26b0       ___CxxRegisterExceptionObject 100c36b0 f   libvcruntimed:frame.obj
 0001:000c2820       ___CxxUnregisterExceptionObject 100c3820 f   libvcruntimed:frame.obj
 0001:000c29d0       ___FrameUnwindFilter       100c39d0 f   libvcruntimed:frame.obj
 0001:000c2a60       ___FrameUnwindToState      100c3a60 f   libvcruntimed:frame.obj
 0001:000c2c40       ___GetPlatformExceptionInfo 100c3c40 f   libvcruntimed:frame.obj
 0001:000c2ce0       ___InternalCxxFrameHandler 100c3ce0 f   libvcruntimed:frame.obj
 0001:000c2ef0       ___TypeMatch               100c3ef0 f   libvcruntimed:frame.obj
 0001:000c3000       ___current_exception       100c4000 f   libvcruntimed:frame.obj
 0001:000c3010       ___current_exception_context 100c4010 f   libvcruntimed:frame.obj
 0001:000c3020       ___processing_throw        100c4020 f   libvcruntimed:frame.obj
 0001:000c3030       ___std_terminate           100c4030 f   libvcruntimed:frame.obj
 0001:000c3040       ___uncaught_exception      100c4040 f   libvcruntimed:frame.obj
 0001:000c3070       ___uncaught_exceptions     100c4070 f   libvcruntimed:frame.obj
 0001:000c3080       __is_exception_typeof      100c4080 f   libvcruntimed:frame.obj
 0001:000c31c0       __get_unexpected           100c41c0 f   libvcruntimed:unexpected.obj
 0001:000c31e0       _set_unexpected            100c41e0 f   libvcruntimed:unexpected.obj
 0001:000c3220       _unexpected                100c4220 f   libvcruntimed:unexpected.obj
 0001:000c3260       ??$?RD@__crt_public_free_policy@@QBEXQBD@Z 100c4260 f i libvcruntimed:std_exception.obj
 0001:000c3280       ??0?$__crt_unique_heap_ptr@DU__crt_public_free_policy@@@@QAE@QAD@Z 100c4280 f i libvcruntimed:std_exception.obj
 0001:000c32a0       ??1?$__crt_unique_heap_ptr@DU__crt_public_free_policy@@@@QAE@XZ 100c42a0 f i libvcruntimed:std_exception.obj
 0001:000c32c0       ??B?$__crt_unique_heap_ptr@DU__crt_public_free_policy@@@@QBE_NXZ 100c42c0 f i libvcruntimed:std_exception.obj
 0001:000c32e0       ?detach@?$__crt_unique_heap_ptr@DU__crt_public_free_policy@@@@QAEPADXZ 100c42e0 f i libvcruntimed:std_exception.obj
 0001:000c3310       ?get@?$__crt_unique_heap_ptr@DU__crt_public_free_policy@@@@QBEPADXZ 100c4310 f i libvcruntimed:std_exception.obj
 0001:000c3330       ?is_valid@?$__crt_unique_heap_ptr@DU__crt_public_free_policy@@@@QBE_NXZ 100c4330 f i libvcruntimed:std_exception.obj
 0001:000c3370       ?release@?$__crt_unique_heap_ptr@DU__crt_public_free_policy@@@@QAEXXZ 100c4370 f i libvcruntimed:std_exception.obj
 0001:000c33a0       ___std_exception_copy      100c43a0 f   libvcruntimed:std_exception.obj
 0001:000c34c0       ___std_exception_destroy   100c44c0 f   libvcruntimed:std_exception.obj
 0001:000c3500       __CxxThrowException@8      100c4500 f   libvcruntimed:throw.obj
 0002:00000000       ___xc_a                    100c9000     LIBCMTD:initializers.obj
 0002:00000220       ___xc_z                    100c9220     LIBCMTD:initializers.obj
 0002:00000324       ___xi_a                    100c9324     LIBCMTD:initializers.obj
 0002:00000428       ___acrt_multibyte_initializer 100c9428     libucrtd:multibyte_initializer.obj
 0002:0000042c       ___acrt_stdio_initializer  100c942c     libucrtd:stdio_initializer.obj
 0002:00000430       ___acrt_tran_sse2_initializer 100c9430     libucrtd:sse2_initializer.obj
 0002:00000538       ___xi_z                    100c9538     LIBCMTD:initializers.obj
 0002:0000063c       ___xp_a                    100c963c     LIBCMTD:initializers.obj
 0002:00000740       ___acrt_locale_terminator  100c9740     libucrtd:locale_initializer.obj
 0002:00000744       ___dcrt_console_output_terminator 100c9744     libucrtd:console_output_initializer.obj
 0002:0000084c       ___acrt_stdio_terminator   100c984c     libucrtd:stdio_initializer.obj
 0002:00000950       ___xp_z                    100c9950     LIBCMTD:initializers.obj
 0002:00000a54       ___xt_a                    100c9a54     LIBCMTD:initializers.obj
 0002:00000b58       ___xt_z                    100c9b58     LIBCMTD:initializers.obj
 0002:00000c60       ??_7PxController@physx@@6B@ 100c9c60     CctBoxController.obj
 0002:00000cdc       ??_7PxControllerManager@physx@@6B@ 100c9cdc     CctBoxController.obj
 0002:00000d34       ??_7PxFoundation@physx@@6B@ 100c9d34     CctBoxController.obj
 0002:00000d5c       ??_7PxBoxController@physx@@6B@ 100c9d5c     CctBoxController.obj
 0002:00000df8       ??_7BoxController@Cct@physx@@6BPxBoxController@2@@ 100c9df8     CctBoxController.obj
 0002:00000e94       ??_7BoxController@Cct@physx@@6BController@12@@ 100c9e94     CctBoxController.obj
 0002:00000ea8       ??_C@_0DH@ONIDOKIM@?4?4?2?4?4?2PhysXCharacterKinematic?2sr@ 100c9ea8     CctBoxController.obj
 0002:00000eec       ??_C@_0DB@EHPECLAO@shape?9?$DOgetGeometryType?$CI?$CJ?5?$DN?$DN?5PxGe@ 100c9eec     CctBoxController.obj
 0002:00000f28       __real@00000000            100c9f28     CctBoxController.obj
 0002:00000f2c       __real@3f000000            100c9f2c     CctBoxController.obj
 0002:00000f30       ??_7PxCapsuleController@physx@@6B@ 100c9f30     CctCapsuleController.obj
 0002:00000fcc       ??_7CapsuleController@Cct@physx@@6BPxCapsuleController@2@@ 100c9fcc     CctCapsuleController.obj
 0002:00001068       ??_7CapsuleController@Cct@physx@@6BController@12@@ 100ca068     CctCapsuleController.obj
 0002:0000107c       ??_C@_0DL@DGAPCADK@?4?4?2?4?4?2PhysXCharacterKinematic?2sr@ 100ca07c     CctCapsuleController.obj
 0002:000010c4       ??_C@_0DF@ELIHFCHJ@shape?9?$DOgetGeometryType?$CI?$CJ?5?$DN?$DN?5PxGe@ 100ca0c4     CctCapsuleController.obj
 0002:00001120       ??_C@_0EH@OGDODMBP@I?3?2_DAE?2References?2PhysX?53?44?2PxS@ 100ca120     CctCharacterController.obj
 0002:00001178       ??_C@_0M@BJFDEEID@q0?4isSane?$CI?$CJ?$AA@ 100ca178     CctCharacterController.obj
 0002:00001188       ??_C@_0L@NKGFAGDB@x?4isSane?$CI?$CJ?$AA@ 100ca188     CctCharacterController.obj
 0002:00001198       ??_C@_0L@EGHDLJIP@isFinite?$CI?$CJ?$AA@ 100ca198     CctCharacterController.obj
 0002:000011a8       ??_C@_0N@PMAOLNPB@src?4isSane?$CI?$CJ?$AA@ 100ca1a8     CctCharacterController.obj
 0002:000011b8       ??_C@_08ECJOCDKG@isSane?$CI?$CJ?$AA@ 100ca1b8     CctCharacterController.obj
 0002:000011c4       ??_7?$PxHitCallback@UPxRaycastHit@physx@@@physx@@6B@ 100ca1c4     CctCharacterController.obj
 0002:000011d4       ??_7?$PxHitBuffer@UPxRaycastHit@physx@@@physx@@6B@ 100ca1d4     CctCharacterController.obj
 0002:000011e4       ??_7PxQueryFilterCallback@physx@@6B@ 100ca1e4     CctCharacterController.obj
 0002:000011f8       ??_C@_0EF@HEMEJCFP@I?3?2_DAE?2References?2PhysX?53?44?2PxS@ 100ca1f8     CctCharacterController.obj
 0002:0000124c       ??_C@_09GLGJMIMJ@isValid?$CI?$CJ?$AA@ 100ca24c     CctCharacterController.obj
 0002:00001258       ??_C@_01GBGANLPD@0?$AA@    100ca258     CctCharacterController.obj
 0002:00001260       ??_C@_0FP@CLGOEDDB@i?3?2_dae?2references?2physx?53?44?2phy@ 100ca260     CctCharacterController.obj
 0002:000012d4       ??_C@_0O@PJIOIGML@index?$DM?$DN0xffff?$AA@ 100ca2d4     CctCharacterController.obj
 0002:000012e4       ??_C@_0BE@OJANCLEE@PxU32?$CItype?$CJ?$DM?$DN0xffff?$AA@ 100ca2e4     CctCharacterController.obj
 0002:000012fc       ??_C@_0DN@CCDLNKB@?4?4?2?4?4?2PhysXCharacterKinematic?2sr@ 100ca2fc     CctCharacterController.obj
 0002:00001348       ??_C@_0CJ@IKHMJDFI@volume?9?$DOgetType?$CI?$CJ?$DN?$DNSweptVolumeTy@ 100ca348     CctCharacterController.obj
 0002:0000137c       ??_C@_0CI@GAJNEGBI@geom?9?$DOmType?$DN?$DNTouchedGeomType?3?3eU@ 100ca37c     CctCharacterController.obj
 0002:000013ac       ??_C@_0CM@GPMPGHMM@geom?9?$DOmType?$DN?$DNTouchedGeomType?3?3eU@ 100ca3ac     CctCharacterController.obj
 0002:000013e0       ??_C@_0BM@PIBPPICD@sweepHit?4faceIndex?5?$DM?5nbTris?$AA@ 100ca3e0     CctCharacterController.obj
 0002:00001404       ??_C@_0CE@HELNLPHM@geom?9?$DOmType?$DN?$DNTouchedGeomType?3?3eM@ 100ca404     CctCharacterController.obj
 0002:00001430       ??_C@_0CN@HICDABOB@volume?9?$DOgetType?$CI?$CJ?$DN?$DNSweptVolumeTy@ 100ca430     CctCharacterController.obj
 0002:00001468       ??_C@_0CD@MCGKGDGK@geom?9?$DOmType?$DN?$DNTouchedGeomType?3?3eB@ 100ca468     CctCharacterController.obj
 0002:00001494       ??_C@_0CG@LLMCKHDB@geom?9?$DOmType?$DN?$DNTouchedGeomType?3?3eS@ 100ca494     CctCharacterController.obj
 0002:000014c4       ??_C@_0CH@PDFKDOGO@geom?9?$DOmType?$DN?$DNTouchedGeomType?3?3eC@ 100ca4c4     CctCharacterController.obj
 0002:000014f4       ??_C@_0N@MFKFIMLH@touchedActor?$AA@ 100ca4f4     CctCharacterController.obj
 0002:00001504       ??_C@_0N@IJFFNJEA@touchedShape?$AA@ 100ca504     CctCharacterController.obj
 0002:00001514       ??_C@_0CI@PHBIPOMN@volume?4getType?$CI?$CJ?$DN?$DNSweptVolumeTyp@ 100ca514     CctCharacterController.obj
 0002:00001544       ??_C@_0M@GAENHLJE@depth?$DO?$DN0?40f?$AA@ 100ca544     CctCharacterController.obj
 0002:00001554       ??_C@_0P@IIJOLIBL@mtd?4isFinite?$CI?$CJ?$AA@ 100ca554     CctCharacterController.obj
 0002:00001568       ??_C@_0BC@ELKFBCAO@PxIsFinite?$CIdepth?$CJ?$AA@ 100ca568     CctCharacterController.obj
 0002:00001580       ??_C@_0BJ@ONMIBLA@sweepTestTriangleIndices?$AA@ 100ca580     CctCharacterController.obj
 0002:000015a0       ??_C@_0BA@MNOANCHM@sweepTestStream?$AA@ 100ca5a0     CctCharacterController.obj
 0002:000015b4       ??_C@_0CB@PCJHOHAI@startIndex?5?$DM?$DN?5mGeomStream?4size?$CI?$CJ@ 100ca5b4     CctCharacterController.obj
 0002:000015dc       ??_C@_0BP@HPNLMLEJ@obstacleHit?4distance?$DM?$DNdistance?$AA@ 100ca5dc     CctCharacterController.obj
 0002:00001604       ??_C@_0CI@GHLNKOJE@worldTemporalBox?4isInside?$CImCache@ 100ca604     CctCharacterController.obj
 0002:00001634       ??_C@_0CE@KHMGPOAO@mTriangleIndices?4size?$CI?$CJ?$DN?$DNmNbCach@ 100ca634     CctCharacterController.obj
 0002:00001660       ??_C@_0CA@CFKKDOLG@CharacterController?4doSweepTest?$AA@ 100ca660     CctCharacterController.obj
 0002:00001688       ??_C@_07GDNEKBEC@C?4mGeom?$AA@ 100ca688     CctCharacterController.obj
 0002:00001694       ??_C@_0CC@KMLEHBGF@CharacterController?4moveCharacte@ 100ca694     CctCharacterController.obj
 0002:000016bc       ??_7ControllerFilter@@6B@  100ca6bc     CctCharacterController.obj
 0002:000016d0       ??_C@_0FM@ODFOFIFF@?$CBmCctModule?4mTouchedShape?5?$CG?$CG?5?$CImC@ 100ca6d0     CctCharacterController.obj
 0002:00001740       ??_C@_0BA@PFLCEBBK@hit?4block?4shape?$AA@ 100ca740     CctCharacterController.obj
 0002:00001754       ??_C@_0BA@LJECBEON@hit?4block?4actor?$AA@ 100ca754     CctCharacterController.obj
 0002:00001768       ??_C@_0CG@GNJEGHJI@hit?4block?4distance?$DM?$DNprobeLength?$CL@ 100ca768     CctCharacterController.obj
 0002:00001798       ??_C@_0CI@KOAHEKEJ@obstacleHit?4distance?$DM?$DNprobeLengt@ 100ca798     CctCharacterController.obj
 0002:000017c8       ??_C@_0FL@CLNJAPLP@mCctModule?4mTouchedShape?5?$HM?$HM?5?$CImCc@ 100ca7c8     CctCharacterController.obj
 0002:00001838       ??_C@_0BA@ONBGHLD@touchedObstacle?$AA@ 100ca838     CctCharacterController.obj
 0002:0000184c       ??_C@_0BE@LBOOBFNF@?$CBboxUserData?4size?$CI?$CJ?$AA@ 100ca84c     CctCharacterController.obj
 0002:00001864       ??_C@_0O@CDECJDME@?$CBboxes?4size?$CI?$CJ?$AA@ 100ca864     CctCharacterController.obj
 0002:00001874       ??_C@_0BI@MHBCHGEC@?$CBcapsuleUserData?4size?$CI?$CJ?$AA@ 100ca874     CctCharacterController.obj
 0002:00001890       ??_C@_0BB@FCMKKCBJ@?$CBcapsules?4size?$CI?$CJ?$AA@ 100ca890     CctCharacterController.obj
 0002:000018a4       ??_C@_0CP@PMDHKMKE@CharacterController?4filterCandid@ 100ca8a4     CctCharacterController.obj
 0002:000018dc       ??_C@_0BJ@FHANBDIB@CharacterController?4move?$AA@ 100ca8dc     CctCharacterController.obj
 0002:00001900       ??_C@_0EH@MDGGEGEG@I?3?2_DAE?2References?2PhysX?53?44?2PxS@ 100ca900     CctCharacterController.obj
 0002:00001958       ??_C@_09GCLCCGEM@i?5?$DM?5mSize?$AA@ 100ca958     CctCharacterController.obj
 0002:00001964       ??_C@_0BC@GKLGGHPD@size?5?$DM?$DN?5mCapacity?$AA@ 100ca964     CctCharacterController.obj
 0002:0000197c       ??_C@_0DP@KDFDHJFL@i?3?2_dae?2references?2physx?53?44?2phy@ 100ca97c     CctCharacterController.obj
 0002:000019c8       ??_C@_0CP@NAHMKKEN@index?5?$DM?5getNbTouches?$CI?$CJ?5?$CL?5PxU32?$CIt@ 100ca9c8     CctCharacterController.obj
 0002:00001a00       ??_C@_0BM@BMFMDKFG@this?9?$DOcapacity?$CI?$CJ?5?$DM?5capacity?$AA@ 100caa00     CctCharacterController.obj
 0002:00001a24       ??_C@_0CP@CPGGIPKL@?$CI?$CBcapacity?$CJ?5?$HM?$HM?5?$CInewData?5?$CG?$CG?5?$CInewD@ 100caa24     CctCharacterController.obj
 0002:00001a5c       __real@358637bd            100caa5c     CctCharacterController.obj
 0002:00001a60       __real@3c23d70a            100caa60     CctCharacterController.obj
 0002:00001a64       __real@3ee66666            100caa64     CctCharacterController.obj
 0002:00001a68       __real@3f800000            100caa68     CctCharacterController.obj
 0002:00001a6c       __real@3fc00000            100caa6c     CctCharacterController.obj
 0002:00001a70       __real@40000000            100caa70     CctCharacterController.obj
 0002:00001a74       __real@41200000            100caa74     CctCharacterController.obj
 0002:00001a78       __real@7e7fffff            100caa78     CctCharacterController.obj
 0002:00001a7c       __real@7f7fffff            100caa7c     CctCharacterController.obj
 0002:00001a80       __real@7fefffffffffffff    100caa80     CctCharacterController.obj
 0002:00001a8c       __real@fe7fffff            100caa8c     CctCharacterController.obj
 0002:00001a90       __real@ffefffffffffffff    100caa90     CctCharacterController.obj
 0002:00001aa0       __xmm@80000000800000008000000080000000 100caaa0     CctCharacterController.obj
 0002:00001ac0       ?g_PXSinCoefficients0@aos@shdfnd@physx@@3UPX_VECTORF32@123@B 100caac0     CctCharacterControllerCallbacks.obj
 0002:00001ae0       ?g_PXSinCoefficients1@aos@shdfnd@physx@@3UPX_VECTORF32@123@B 100caae0     CctCharacterControllerCallbacks.obj
 0002:00001b00       ?g_PXSinCoefficients2@aos@shdfnd@physx@@3UPX_VECTORF32@123@B 100cab00     CctCharacterControllerCallbacks.obj
 0002:00001b20       ?g_PXCosCoefficients0@aos@shdfnd@physx@@3UPX_VECTORF32@123@B 100cab20     CctCharacterControllerCallbacks.obj
 0002:00001b40       ?g_PXCosCoefficients1@aos@shdfnd@physx@@3UPX_VECTORF32@123@B 100cab40     CctCharacterControllerCallbacks.obj
 0002:00001b60       ?g_PXCosCoefficients2@aos@shdfnd@physx@@3UPX_VECTORF32@123@B 100cab60     CctCharacterControllerCallbacks.obj
 0002:00001b80       ?g_PXTanCoefficients0@aos@shdfnd@physx@@3UPX_VECTORF32@123@B 100cab80     CctCharacterControllerCallbacks.obj
 0002:00001ba0       ?g_PXTanCoefficients1@aos@shdfnd@physx@@3UPX_VECTORF32@123@B 100caba0     CctCharacterControllerCallbacks.obj
 0002:00001bc0       ?g_PXTanCoefficients2@aos@shdfnd@physx@@3UPX_VECTORF32@123@B 100cabc0     CctCharacterControllerCallbacks.obj
 0002:00001be0       ?g_PXASinCoefficients0@aos@shdfnd@physx@@3UPX_VECTORF32@123@B 100cabe0     CctCharacterControllerCallbacks.obj
 0002:00001c00       ?g_PXASinCoefficients1@aos@shdfnd@physx@@3UPX_VECTORF32@123@B 100cac00     CctCharacterControllerCallbacks.obj
 0002:00001c20       ?g_PXASinCoefficients2@aos@shdfnd@physx@@3UPX_VECTORF32@123@B 100cac20     CctCharacterControllerCallbacks.obj
 0002:00001c40       ?g_PXATanCoefficients0@aos@shdfnd@physx@@3UPX_VECTORF32@123@B 100cac40     CctCharacterControllerCallbacks.obj
 0002:00001c60       ?g_PXATanCoefficients1@aos@shdfnd@physx@@3UPX_VECTORF32@123@B 100cac60     CctCharacterControllerCallbacks.obj
 0002:00001c80       ?g_PXATanCoefficients2@aos@shdfnd@physx@@3UPX_VECTORF32@123@B 100cac80     CctCharacterControllerCallbacks.obj
 0002:00001ca0       ?g_PXSinEstCoefficients@aos@shdfnd@physx@@3UPX_VECTORF32@123@B 100caca0     CctCharacterControllerCallbacks.obj
 0002:00001cc0       ?g_PXCosEstCoefficients@aos@shdfnd@physx@@3UPX_VECTORF32@123@B 100cacc0     CctCharacterControllerCallbacks.obj
 0002:00001ce0       ?g_PXTanEstCoefficients@aos@shdfnd@physx@@3UPX_VECTORF32@123@B 100cace0     CctCharacterControllerCallbacks.obj
 0002:00001d00       ?g_PXATanEstCoefficients@aos@shdfnd@physx@@3UPX_VECTORF32@123@B 100cad00     CctCharacterControllerCallbacks.obj
 0002:00001d20       ?g_PXASinEstCoefficients@aos@shdfnd@physx@@3UPX_VECTORF32@123@B 100cad20     CctCharacterControllerCallbacks.obj
 0002:00001d40       ?g_PXASinEstConstants@aos@shdfnd@physx@@3UPX_VECTORF32@123@B 100cad40     CctCharacterControllerCallbacks.obj
 0002:00001d60       ?g_PXPiConstants0@aos@shdfnd@physx@@3UPX_VECTORF32@123@B 100cad60     CctCharacterControllerCallbacks.obj
 0002:00001d80       ?g_PXReciprocalTwoPi@aos@shdfnd@physx@@3UPX_VECTORF32@123@B 100cad80     CctCharacterControllerCallbacks.obj
 0002:00001da0       ?g_PXTwoPi@aos@shdfnd@physx@@3UPX_VECTORF32@123@B 100cada0     CctCharacterControllerCallbacks.obj
 0002:00001de8       ??_C@_0EC@IGBCLCKJ@I?3?2_DAE?2References?2PhysX?53?44?2PxS@ 100cade8     CctCharacterControllerCallbacks.obj
 0002:00001e38       ??_C@_0L@ICMNFAAK@index?5?$DM?$DN?52?$AA@ 100cae38     CctCharacterControllerCallbacks.obj
 0002:00001e48       ??_7?$PxHitCallback@UPxOverlapHit@physx@@@physx@@6B@ 100cae48     CctCharacterControllerCallbacks.obj
 0002:00001e58       ??_7?$PxHitBuffer@UPxOverlapHit@physx@@@physx@@6B@ 100cae58     CctCharacterControllerCallbacks.obj
 0002:00001e68       ??_C@_0EG@BDPBDCDH@?4?4?2?4?4?2PhysXCharacterKinematic?2sr@ 100cae68     CctCharacterControllerCallbacks.obj
 0002:00001ebc       ??_C@_0DI@JEIEIFFC@planeShape?9?$DOgetGeometryType?$CI?$CJ?5?$DN?$DN@ 100caebc     CctCharacterControllerCallbacks.obj
 0002:00001f00       ??_C@_0DK@DKFHFJAH@sphereShape?9?$DOgetGeometryType?$CI?$CJ?5?$DN@ 100caf00     CctCharacterControllerCallbacks.obj
 0002:00001f48       ??_C@_0DM@CFAOBFIC@capsuleShape?9?$DOgetGeometryType?$CI?$CJ?5@ 100caf48     CctCharacterControllerCallbacks.obj
 0002:00001f90       ??_C@_0DE@KNPLDBPE@boxShape?9?$DOgetGeometryType?$CI?$CJ?5?$DN?$DN?5P@ 100caf90     CctCharacterControllerCallbacks.obj
 0002:00001fd0       ??_C@_0DO@NNKEOCBE@meshShape?9?$DOgetGeometryType?$CI?$CJ?5?$DN?$DN?5@ 100cafd0     CctCharacterControllerCallbacks.obj
 0002:0000201c       ??_C@_0DL@CCMNBOHE@hfShape?9?$DOgetGeometryType?$CI?$CJ?5?$DN?$DN?5Px@ 100cb01c     CctCharacterControllerCallbacks.obj
 0002:00002064       ??_C@_0DO@HGDLFPJM@convexShape?9?$DOgetGeometryType?$CI?$CJ?5?$DN@ 100cb064     CctCharacterControllerCallbacks.obj
 0002:000020b0       ??_C@_0O@CCMLNFEO@cg?4convexMesh?$AA@ 100cb0b0     CctCharacterControllerCallbacks.obj
 0002:000020c0       ??_C@_08BPIOMALF@userData?$AA@ 100cb0c0     CctCharacterControllerCallbacks.obj
 0002:000020cc       ??_C@_0CI@EALPEGI@CharacterController?4findTouchedG@ 100cb0cc     CctCharacterControllerCallbacks.obj
 0002:000020fc       ??_C@_0DG@PFAIDLKM@index?$DMcontroller?9?$DOgetCctManager?$CI@ 100cb0fc     CctCharacterControllerCallbacks.obj
 0002:0000213c       ??_C@_0BI@ODLPKEII@internalData?9?$DOobstacles?$AA@ 100cb13c     CctCharacterControllerCallbacks.obj
 0002:00002158       ??_C@_0DE@DDAKFDEF@index?$DMinternalData?9?$DOobstacles?9?$DOm@ 100cb158     CctCharacterControllerCallbacks.obj
 0002:00002198       ??_C@_0DI@GFNCLEGH@index?$DMinternalData?9?$DOobstacles?9?$DOm@ 100cb198     CctCharacterControllerCallbacks.obj
 0002:000021dc       __real@3a83126f            100cb1dc     CctCharacterControllerCallbacks.obj
 0002:000021e0       __real@3f7ff972            100cb1e0     CctCharacterControllerCallbacks.obj
 0002:000021e4       __real@ba83126f            100cb1e4     CctCharacterControllerCallbacks.obj
 0002:000021f0       __xmm@80000000000000008000000000000000 100cb1f0     CctCharacterControllerCallbacks.obj
 0002:00002204       ??_7PxRenderBuffer@physx@@6B@ 100cb204     CctCharacterControllerManager.obj
 0002:00002238       ??_7PxDeletionListener@physx@@6B@ 100cb238     CctCharacterControllerManager.obj
 0002:00002244       ??_C@_0BA@DLCJDKDM@NonTrackedAlloc?$AA@ 100cb244     CctCharacterControllerManager.obj
 0002:00002258       ??_7RenderBuffer@Cm@physx@@6B@ 100cb258     CctCharacterControllerManager.obj
 0002:0000228c       ??_C@_0BD@LANCFJDL@renderBufferPoints?$AA@ 100cb28c     CctCharacterControllerManager.obj
 0002:000022a4       ??_C@_0BC@OOFKEPCD@renderBufferLines?$AA@ 100cb2a4     CctCharacterControllerManager.obj
 0002:000022bc       ??_C@_0BG@IFGFFBGL@renderBufferTriangles?$AA@ 100cb2bc     CctCharacterControllerManager.obj
 0002:000022d8       ??_C@_0BC@KMLJODNA@renderBufferTexts?$AA@ 100cb2d8     CctCharacterControllerManager.obj
 0002:000022f0       ??_C@_0BE@CNABNMDL@renderBufferCharBuf?$AA@ 100cb2f0     CctCharacterControllerManager.obj
 0002:00002308       ??_7CharacterControllerManager@Cct@physx@@6BPxControllerManager@2@@ 100cb308     CctCharacterControllerManager.obj
 0002:00002360       ??_7CharacterControllerManager@Cct@physx@@6BPxDeletionListener@2@@ 100cb360     CctCharacterControllerManager.obj
 0002:00002370       ??_C@_0EE@IHHKBLHK@?4?4?2?4?4?2PhysXCharacterKinematic?2sr@ 100cb370     CctCharacterControllerManager.obj
 0002:000023c4       ??_C@_0DJ@FJGFFNLM@PxControllerManager?3?3getControll@ 100cb3c4     CctCharacterControllerManager.obj
 0002:00002408       ??_C@_0BE@GJLBACLN@mControllers?$FLindex?$FN?$AA@ 100cb408     CctCharacterControllerManager.obj
 0002:00002420       ??_C@_0EJ@KDOFHNEM@INTERNAL?5ERROR?5?9?5invalid?5CCT?5typ@ 100cb420     CctCharacterControllerManager.obj
 0002:00002478       ??_C@_05HHJOEFFG@nb?$DN?$DN1?$AA@ 100cb478     CctCharacterControllerManager.obj
 0002:00002480       ??_C@_0DE@PHNAMEOL@deletionEvent?5?$DN?$DN?5PxDeletionEvent@ 100cb480     CctCharacterControllerManager.obj
 0002:000024c0       ??_C@_0BE@NGHGDLPG@refCounter?4refCount?$AA@ 100cb4c0     CctCharacterControllerManager.obj
 0002:000024d8       ??_C@_0DO@NLBEEDJJ@PxControllerManager?3?3getObstacle@ 100cb4d8     CctCharacterControllerManager.obj
 0002:00002524       ??_C@_0BJ@KJGCJBBH@mObstacleContexts?$FLindex?$FN?$AA@ 100cb524     CctCharacterControllerManager.obj
 0002:00002544       ??_C@_0DH@IABGKCMP@mObstacleContexts?4find?$CI?$CGoc?$CJ?5?$CB?$DN?5m@ 100cb544     CctCharacterControllerManager.obj
 0002:00002588       ??_C@_0P@MMCGCBLL@?$CBmBoxes?4size?$CI?$CJ?$AA@ 100cb588     CctCharacterControllerManager.obj
 0002:0000259c       ??_C@_0BC@JBELOEOA@?$CBmCapsules?4size?$CI?$CJ?$AA@ 100cb59c     CctCharacterControllerManager.obj
 0002:000025b4       ??_C@_07LNPFLBPN@entity0?$AA@ 100cb5b4     CctCharacterControllerManager.obj
 0002:000025c0       ??_C@_07KEOOIALM@entity1?$AA@ 100cb5c0     CctCharacterControllerManager.obj
 0002:000025cc       ??_C@_0CM@LDNMFPKK@entity0?9?$DOmType?$DN?$DNPxControllerShap@ 100cb5cc     CctCharacterControllerManager.obj
 0002:00002600       ??_C@_0CM@DOFEKCEI@entity1?9?$DOmType?$DN?$DNPxControllerShap@ 100cb600     CctCharacterControllerManager.obj
 0002:00002634       ??_C@_0DA@EMJKANDJ@CharacterControllerManager?3?3comp@ 100cb634     CctCharacterControllerManager.obj
 0002:00002670       ??_C@_0EH@MKALEPDP@I?3?2_DAE?2References?2PhysX?53?44?2PxS@ 100cb670     CctCharacterControllerManager.obj
 0002:000026c8       ??_C@_0EP@JJMHGHOH@i?3?2_dae?2references?2physx?53?44?2pxs@ 100cb6c8     CctCharacterControllerManager.obj
 0002:00002728       ??_C@_0EK@CFJIEPPJ@?$CImFreeList?5?$DN?$DN?5EOL?$CJ?5?$HM?$HM?5?$CIcompactin@ 100cb728     CctCharacterControllerManager.obj
 0002:00002780       ??_C@_0BB@GDPMDOF@?$CBfreeListEmpty?$CI?$CJ?$AA@ 100cb780     CctCharacterControllerManager.obj
 0002:00002794       ??_C@_0BL@DHJNKJLG@mFreeList?5?$DN?$DN?5mEntriesCount?$AA@ 100cb794     CctCharacterControllerManager.obj
 0002:000027b4       ??_C@_08DELPPNON@hashBase?$AA@ 100cb7b4     CctCharacterControllerManager.obj
 0002:000027c0       ??_C@_0BM@OIFKLHDN@?$DMallocation?5names?5disabled?$DO?$AA@ 100cb7c0     CctCharacterControllerManager.obj
 0002:000027e4       ??_C@_0M@MLKAJPLJ@?$CKptr?5?$CB?$DN?5EOL?$AA@ 100cb7e4     CctCharacterControllerManager.obj
 0002:000027f4       ??_C@_0BF@MJIJMGPN@?$CB?$CIsize?5?$CG?5?$CIsize?5?9?51?$CJ?$CJ?$AA@ 100cb7f4     CctCharacterControllerManager.obj
 0002:00002810       ??_C@_09LAGLDPIH@newBuffer?$AA@ 100cb810     CctCharacterControllerManager.obj
 0002:0000281c       ??_C@_0BE@JIMKLMPE@index?5?$CB?$DN?5newHash?$FLh?$FN?$AA@ 100cb81c     CctCharacterControllerManager.obj
 0002:00002834       ??_C@_0BP@CPGKEPEI@compacting?5?$HM?$HM?5mFreeList?5?$DN?$DN?5EOL?$AA@ 100cb834     CctCharacterControllerManager.obj
 0002:0000285c       ??_C@_0BF@OADKGOFH@mFreeList?5?$CB?$DN?5end?5?9?51?$AA@ 100cb85c     CctCharacterControllerManager.obj
 0002:00002878       __real@3f400000            100cb878     CctCharacterControllerManager.obj
 0002:0000287c       __real@40800000            100cb87c     CctCharacterControllerManager.obj
 0002:00002880       __xmm@41f00000000000000000000000000000 100cb880     CctCharacterControllerManager.obj
 0002:00002894       ??_7Controller@Cct@physx@@6B@ 100cb894     CctController.obj
 0002:000028a8       ??_C@_0CF@LJAGPAMD@CCT?3?5up?5direction?5must?5be?5normal@ 100cb8a8     CctController.obj
 0002:000028d4       ??_C@_0DE@LBFOOJJE@?4?4?2?4?4?2PhysXCharacterKinematic?2sr@ 100cb8d4     CctController.obj
 0002:00002914       __real@38d1b717            100cb914     CctController.obj
 0002:00002918       ??_7PxObstacleContext@physx@@6B@ 100cb918     CctObstacleContext.obj
 0002:00002944       ??_7ObstacleContext@Cct@physx@@6B@ 100cb944     CctObstacleContext.obj
 0002:00002970       ??_C@_0EL@LFOFABEN@I?3?2_DAE?2References?2PhysX?53?44?2PxS@ 100cb970     CctObstacleContext.obj
 0002:000029cc       ??_C@_0BA@DPPPOJBK@value?5?$DM?$DN?50xffff?$AA@ 100cb9cc     CctObstacleContext.obj
 0002:000029e0       ??_C@_0O@IPJBGLCC@HandleManager?$AA@ 100cb9e0     CctObstacleContext.obj
 0002:000029f0       ??_C@_0DJ@FPEJDNHL@?4?4?2?4?4?2PhysXCharacterKinematic?2sr@ 100cb9f0     CctObstacleContext.obj
 0002:00002a34       ??_C@_0CP@CDNCDJDD@Internal?5error?5?9?564K?5objects?5in?5@ 100cba34     CctObstacleContext.obj
 0002:00002a6c       ??_C@_0L@PMMEKFHC@index?$DMsize?$AA@ 100cba6c     CctObstacleContext.obj
 0002:00002a7c       ??_C@_0BJ@BENGNNK@type?$DN?$DNobstacle?4getType?$CI?$CJ?$AA@ 100cba7c     CctObstacleContext.obj
 0002:00002a9c       ??_C@_0CF@CEPGALDL@mBoxObstacles?$FLindex?$FN?4mHandle?$DN?$DNha@ 100cba9c     CctObstacleContext.obj
 0002:00002ac8       ??_C@_0CJ@OHPLBPIL@mCapsuleObstacles?$FLindex?$FN?4mHandle@ 100cbac8     CctObstacleContext.obj
 0002:00002afc       ??_C@_0M@GEAKHKHN@raycastFunc?$AA@ 100cbafc     CctObstacleContext.obj
 0002:00002b0c       ??_C@_0CF@GBMJOHHH@geomType?5?$DN?$DN?5PxGeometryType?3?3eCAP@ 100cbb0c     CctObstacleContext.obj
 0002:00002b38       ??_C@_06DJIHEMFI@status?$AA@ 100cbb38     CctObstacleContext.obj
 0002:00002b40       ??_7SweptBox@Cct@physx@@6B@ 100cbb40     CctSweptBox.obj
 0002:00002b4c       ??_7SweptCapsule@Cct@physx@@6B@ 100cbb4c     CctSweptCapsule.obj
 0002:00002b58       ??_7SweptVolume@Cct@physx@@6B@ 100cbb58     CctSweptVolume.obj
 0002:00002b64       ??_C@_0BP@LLBHALBD@PxMeshOverlapUtil?3?3findOverlap?$AA@ 100cbb64     PhysX3ExtensionsDEBUG:ExtTriangleMeshExt.obj
 0002:00002b8c       ??_C@_0DB@HFONPIBD@?4?4?2?4?4?2PhysXExtensions?2src?2ExtTri@ 100cbb8c     PhysX3ExtensionsDEBUG:ExtTriangleMeshExt.obj
 0002:00002bc8       ??_C@_0O@IICGINDC@nbTouchedTris?$AA@ 100cbbc8     PhysX3ExtensionsDEBUG:ExtTriangleMeshExt.obj
 0002:00002bd8       ??_C@_09IOBMEPPH@?$CBoverflow?$AA@ 100cbbd8     PhysX3ExtensionsDEBUG:ExtTriangleMeshExt.obj
 0002:00002be4       ??_C@_0BB@GKJHIFOF@bounds?4isValid?$CI?$CJ?$AA@ 100cbbe4     PhysX3ExtensionsDEBUG:ExtRigidBodyExt.obj
 0002:00002bf8       ??_7?$PxHitCallback@UPxSweepHit@physx@@@physx@@6B@ 100cbbf8     PhysX3ExtensionsDEBUG:ExtRigidBodyExt.obj
 0002:00002c08       ??_7?$PxHitBuffer@UPxSweepHit@physx@@@physx@@6B@ 100cbc08     PhysX3ExtensionsDEBUG:ExtRigidBodyExt.obj
 0002:00002c18       ??_C@_0EN@HBEIBLKL@I?3?2_DAE?2References?2PhysX?53?44?2Phy@ 100cbc18     PhysX3ExtensionsDEBUG:ExtRigidBodyExt.obj
 0002:00002c78       ??_C@_0GJ@LPFDPNEH@inertiaTensor?4column0?4isFinite?$CI?$CJ@ 100cbc78     PhysX3ExtensionsDEBUG:ExtRigidBodyExt.obj
 0002:00002cf8       ??_C@_0BI@NGAJFOA@centerOfMass?4isFinite?$CI?$CJ?$AA@ 100cbcf8     PhysX3ExtensionsDEBUG:ExtRigidBodyExt.obj
 0002:00002d14       ??_C@_0BB@MPGDOBGO@PxIsFinite?$CImass?$CJ?$AA@ 100cbd14     PhysX3ExtensionsDEBUG:ExtRigidBodyExt.obj
 0002:00002d28       ??_C@_0N@KJMNFABF@t?4isFinite?$CI?$CJ?$AA@ 100cbd28     PhysX3ExtensionsDEBUG:ExtRigidBodyExt.obj
 0002:00002d38       ??_C@_0FH@EMBABLBB@inertia?4column0?4isFinite?$CI?$CJ?5?$CG?$CG?5in@ 100cbd38     PhysX3ExtensionsDEBUG:ExtRigidBodyExt.obj
 0002:00002da0       ??_C@_0GG@EEGHGHDM@translatedIT?4column0?4isFinite?$CI?$CJ?5@ 100cbda0     PhysX3ExtensionsDEBUG:ExtRigidBodyExt.obj
 0002:00002e1c       ??_C@_0L@GJCLFDLB@q?4isUnit?$CI?$CJ?$AA@ 100cbe1c     PhysX3ExtensionsDEBUG:ExtRigidBodyExt.obj
 0002:00002e30       ??_C@_0FN@LMOLFFGE@rotatedIT?4column0?4isFinite?$CI?$CJ?5?$CG?$CG?5@ 100cbe30     PhysX3ExtensionsDEBUG:ExtRigidBodyExt.obj
 0002:00002ea0       ??_C@_0BH@OHLICMGK@scaleRotation?4isUnit?$CI?$CJ?$AA@ 100cbea0     PhysX3ExtensionsDEBUG:ExtRigidBodyExt.obj
 0002:00002ebc       ??_C@_0BB@HMINLEPI@scale?4isFinite?$CI?$CJ?$AA@ 100cbebc     PhysX3ExtensionsDEBUG:ExtRigidBodyExt.obj
 0002:00002ed0       ??_C@_0FK@PLENNKDH@scaledIT?4column0?4isFinite?$CI?$CJ?5?$CG?$CG?5s@ 100cbed0     PhysX3ExtensionsDEBUG:ExtRigidBodyExt.obj
 0002:00002f40       ??_C@_0IE@FENODHFK@props?$FLi?$FN?4inertiaTensor?4column0?4i@ 100cbf40     PhysX3ExtensionsDEBUG:ExtRigidBodyExt.obj
 0002:00002fe0       ??_C@_0CB@EJMPDHPE@props?$FLi?$FN?4centerOfMass?4isFinite?$CI?$CJ@ 100cbfe0     PhysX3ExtensionsDEBUG:ExtRigidBodyExt.obj
 0002:00003008       ??_C@_0BK@HLGANDCK@PxIsFinite?$CIprops?$FLi?$FN?4mass?$CJ?$AA@ 100cc008     PhysX3ExtensionsDEBUG:ExtRigidBodyExt.obj
 0002:00003028       ??_C@_0HC@LGMCFEBD@combinedInertiaT?4column0?4isFinit@ 100cc028     PhysX3ExtensionsDEBUG:ExtRigidBodyExt.obj
 0002:000030b0       ??_C@_0BH@LFJLLNEP@combinedCoM?4isFinite?$CI?$CJ?$AA@ 100cc0b0     PhysX3ExtensionsDEBUG:ExtRigidBodyExt.obj
 0002:000030cc       ??_C@_0BJ@KPLJPLGN@PxIsFinite?$CIcombinedMass?$CJ?$AA@ 100cc0cc     PhysX3ExtensionsDEBUG:ExtRigidBodyExt.obj
 0002:000030f0       ??_C@_0FF@DCIDKGMC@i?3?2_dae?2references?2physx?53?44?2phy@ 100cc0f0     PhysX3ExtensionsDEBUG:ExtRigidBodyExt.obj
 0002:00003158       ??_C@_0BC@CPDMLBPM@inertia?4x?5?$CB?$DN?50?40f?$AA@ 100cc158     PhysX3ExtensionsDEBUG:ExtRigidBodyExt.obj
 0002:00003170       ??_C@_0BC@MAPONKMC@inertia?4y?5?$CB?$DN?50?40f?$AA@ 100cc170     PhysX3ExtensionsDEBUG:ExtRigidBodyExt.obj
 0002:00003188       ??_C@_0BC@CLMJGBMB@inertia?4z?5?$CB?$DN?50?40f?$AA@ 100cc188     PhysX3ExtensionsDEBUG:ExtRigidBodyExt.obj
 0002:000031a0       ??_C@_0BD@OPJGPFFH@inertia?4isFinite?$CI?$CJ?$AA@ 100cc1a0     PhysX3ExtensionsDEBUG:ExtRigidBodyExt.obj
 0002:000031b8       ??_C@_0EI@EJLALNOJ@mI?4column0?4isFinite?$CI?$CJ?5?$CG?$CG?5mI?4colu@ 100cc1b8     PhysX3ExtensionsDEBUG:ExtRigidBodyExt.obj
 0002:00003210       ??_C@_0BC@OFOGBKJM@PxIsFinite?$CImMass?$CJ?$AA@ 100cc210     PhysX3ExtensionsDEBUG:ExtRigidBodyExt.obj
 0002:00003228       ??_C@_0O@PGJGBBMD@mG?4isFinite?$CI?$CJ?$AA@ 100cc228     PhysX3ExtensionsDEBUG:ExtRigidBodyExt.obj
 0002:00003238       ??_C@_0IE@PMLMABKM@?$CFs?3?5inertia?5tensor?5has?5negative?5@ 100cc238     PhysX3ExtensionsDEBUG:ExtRigidBodyExt.obj
 0002:000032d8       ??_C@_0CO@PEEEKJKP@?4?4?2?4?4?2PhysXExtensions?2src?2ExtRig@ 100cc2d8     PhysX3ExtensionsDEBUG:ExtRigidBodyExt.obj
 0002:00003310       ??_C@_0BG@FAEGGHDL@?$CBdensities?5?$HM?$HM?5?$CBmasses?$AA@ 100cc310     PhysX3ExtensionsDEBUG:ExtRigidBodyExt.obj
 0002:0000332c       ??_C@_0DC@HOEEJLOF@?$CIdensities?5?$HM?$HM?5masses?$CJ?5?$CG?$CG?5?$CIdensit@ 100cc32c     PhysX3ExtensionsDEBUG:ExtRigidBodyExt.obj
 0002:00003368       ??_C@_08MJBGFJN@PxShape?$CK?$AA@ 100cc368     PhysX3ExtensionsDEBUG:ExtRigidBodyExt.obj
 0002:00003378       ??_C@_0ED@GFJAKEFC@computeMassAndInertia?3?5Provided?5@ 100cc378     PhysX3ExtensionsDEBUG:ExtRigidBodyExt.obj
 0002:000033c8       ??_C@_0FL@MGPHIFPL@computeMassAndInertia?3?5Not?5enoug@ 100cc3c8     PhysX3ExtensionsDEBUG:ExtRigidBodyExt.obj
 0002:00003438       ??_C@_02MFDMBIJM@ok?$AA@   100cc438     PhysX3ExtensionsDEBUG:ExtRigidBodyExt.obj
 0002:00003440       ??_C@_0ED@IINBLCPB@computeMassAndInertia?3?5Dynamic?5a@ 100cc440     PhysX3ExtensionsDEBUG:ExtRigidBodyExt.obj
 0002:00003490       ??_C@_0CF@NFENOJIA@PxRigidBodyExt?3?3updateMassAndIne@ 100cc490     PhysX3ExtensionsDEBUG:ExtRigidBodyExt.obj
 0002:000034c0       ??_C@_0FC@JIKFFKAL@?$CFs?3?5Mass?5and?5inertia?5computation@ 100cc4c0     PhysX3ExtensionsDEBUG:ExtRigidBodyExt.obj
 0002:00003528       ??_C@_0ED@BHIJHOEP@?$CFs?3?5No?5density?5specified?0?5settin@ 100cc528     PhysX3ExtensionsDEBUG:ExtRigidBodyExt.obj
 0002:00003578       ??_C@_0BC@LCFLEJMO@orient?4isFinite?$CI?$CJ?$AA@ 100cc578     PhysX3ExtensionsDEBUG:ExtRigidBodyExt.obj
 0002:00003590       ??_C@_0BG@MOLDNCJJ@diagTensor?4isFinite?$CI?$CJ?$AA@ 100cc590     PhysX3ExtensionsDEBUG:ExtRigidBodyExt.obj
 0002:000035ac       ??_C@_0BE@IMLKJJIO@PxIsFinite?$CImassOut?$CJ?$AA@ 100cc5ac     PhysX3ExtensionsDEBUG:ExtRigidBodyExt.obj
 0002:000035c4       ??_C@_0CI@NNBNKKJG@PxRigidBodyExt?3?3setMassAndUpdate@ 100cc5c4     PhysX3ExtensionsDEBUG:ExtRigidBodyExt.obj
 0002:000035f8       ??_C@_0EA@JNKKHEHF@?$CFs?3?5No?5mass?5specified?0?5setting?5m@ 100cc5f8     PhysX3ExtensionsDEBUG:ExtRigidBodyExt.obj
 0002:00003648       ??_C@_0FI@DKLFOMEB@PxRigidBodyExt?3?3addForce?5methods@ 100cc648     PhysX3ExtensionsDEBUG:ExtRigidBodyExt.obj
 0002:000036b4       ??_C@_0O@NBMIOIOP@shape?5?$CB?$DN?5NULL?$AA@ 100cc6b4     PhysX3ExtensionsDEBUG:ExtRigidBodyExt.obj
 0002:000036c4       ??_C@_0BB@BDAMNKLN@sourceIndex?5?$DO?$DN?5j?$AA@ 100cc6c4     PhysX3ExtensionsDEBUG:ExtRigidBodyExt.obj
 0002:000036d8       ??_C@_0DK@HKHACFOF@sumNbResults?5?$DO?$DN?50?5?$CG?$CG?5sumNbResult@ 100cc6d8     PhysX3ExtensionsDEBUG:ExtRigidBodyExt.obj
 0002:00003720       ??_C@_0EH@ONJKCLLP@i?3?2_dae?2references?2physx?53?44?2pxs@ 100cc720     PhysX3ExtensionsDEBUG:ExtRigidBodyExt.obj
 0002:00003778       __real@3eaaaaab            100cc778     PhysX3ExtensionsDEBUG:ExtRigidBodyExt.obj
 0002:0000377c       __real@3ecccccd            100cc77c     PhysX3ExtensionsDEBUG:ExtRigidBodyExt.obj
 0002:00003780       __real@3f088889            100cc780     PhysX3ExtensionsDEBUG:ExtRigidBodyExt.obj
 0002:00003784       __real@3f2aaaab            100cc784     PhysX3ExtensionsDEBUG:ExtRigidBodyExt.obj
 0002:00003788       __real@3f8147ae            100cc788     PhysX3ExtensionsDEBUG:ExtRigidBodyExt.obj
 0002:0000378c       __real@3faaaaab            100cc78c     PhysX3ExtensionsDEBUG:ExtRigidBodyExt.obj
 0002:00003790       __real@40400000            100cc790     PhysX3ExtensionsDEBUG:ExtRigidBodyExt.obj
 0002:00003794       __real@40490fdb            100cc794     PhysX3ExtensionsDEBUG:ExtRigidBodyExt.obj
 0002:00003798       __real@40860a92            100cc798     PhysX3ExtensionsDEBUG:ExtRigidBodyExt.obj
 0002:0000379c       __real@41000000            100cc79c     PhysX3ExtensionsDEBUG:ExtRigidBodyExt.obj
 0002:000037a0       __real@41400000            100cc7a0     PhysX3ExtensionsDEBUG:ExtRigidBodyExt.obj
 0002:000037a4       __real@41700000            100cc7a4     PhysX3ExtensionsDEBUG:ExtRigidBodyExt.obj
 0002:00003850       ??_7type_info@@6B@         100cc850     LIBCMTD:std_type_info_static.obj
 0002:00003858       __pDefaultRawDllMain       100cc858     LIBCMTD:dll_dllmain.obj
 0002:00003858       __pRawDllMain              100cc858     LIBCMTD:dll_dllmain.obj
 0002:00003874       ??_C@_0BJ@HEGAHDFO@Stack?5pointer?5corruption?$AA@ 100cc874     LIBCMTD:_userapi_.obj
 0002:00003894       ??_C@_0CK@FEGOIOPB@Cast?5to?5smaller?5type?5causing?5los@ 100cc894     LIBCMTD:_userapi_.obj
 0002:000038c8       ??_C@_0BI@CIGMDCBH@Stack?5memory?5corruption?$AA@ 100cc8c8     LIBCMTD:_userapi_.obj
 0002:000038e4       ??_C@_0CK@CNLNOEPB@Local?5variable?5used?5before?5initi@ 100cc8e4     LIBCMTD:_userapi_.obj
 0002:00003918       ??_C@_0BP@OGBCLIBO@Stack?5around?5_alloca?5corrupted?$AA@ 100cc918     LIBCMTD:_userapi_.obj
 0002:00003a00       ??_C@_0NN@NGPKDKPD@The?5value?5of?5ESP?5was?5not?5properl@ 100cca00     LIBCMTD:_error_.obj
 0002:00003b10       ??_C@_0BBN@GPMLNJCF@A?5cast?5to?5a?5smaller?5data?5type?5ha@ 100ccb10     LIBCMTD:_error_.obj
 0002:00003c68       ??_C@_0BN@FFOINMNJ@Stack?5memory?5was?5corrupted?6?$AN?$AA@ 100ccc68     LIBCMTD:_error_.obj
 0002:00003c8c       ??_C@_0DG@HKJMLLLP@A?5local?5variable?5was?5used?5before@ 100ccc8c     LIBCMTD:_error_.obj
 0002:00003ccc       ??_C@_0CM@NGINOKPC@Stack?5memory?5around?5_alloca?5was?5@ 100ccccc     LIBCMTD:_error_.obj
 0002:00003d00       ??_C@_0BO@GNIAFIKK@Unknown?5Runtime?5Check?5Error?6?$AN?$AA@ 100ccd00     LIBCMTD:_error_.obj
 0002:00003d28       ??_C@_1GM@OLMCBDMB@?$AAR?$AAu?$AAn?$AAt?$AAi?$AAm?$AAe?$AA?5?$AAC?$AAh?$AAe?$AAc?$AAk?$AA?5?$AAE?$AAr?$AAr?$AAo?$AAr?$AA?4?$AA?6?$AA?$AN?$AA?5?$AAU?$AAn?$AAa?$AAb?$AAl?$AAe?$AA?5?$AAt?$AAo@ 100ccd28     LIBCMTD:_error_.obj
 0002:00003db0       ??_C@_1EA@NFKNIFJP@?$AAR?$AAu?$AAn?$AA?9?$AAT?$AAi?$AAm?$AAe?$AA?5?$AAC?$AAh?$AAe?$AAc?$AAk?$AA?5?$AAF?$AAa?$AAi?$AAl?$AAu?$AAr?$AAe?$AA?5?$AA?$CD?$AA?$CF?$AAd?$AA?5?$AA?9?$AA?5?$AA?$CF?$AAs?$AA?$AA@ 100ccdb0     LIBCMTD:_error_.obj
 0002:00003dfc       ??_C@_0BB@PFFGGCJP@Unknown?5Filename?$AA@ 100ccdfc     LIBCMTD:_error_.obj
 0002:00003e10       ??_C@_0BE@GNBOBNCK@Unknown?5Module?5Name?$AA@ 100cce10     LIBCMTD:_error_.obj
 0002:00003e28       ??_C@_0CA@IODNCDPG@Run?9Time?5Check?5Failure?5?$CD?$CFd?5?9?5?$CFs?$AA@ 100cce28     LIBCMTD:_error_.obj
 0002:00003e50       ??_C@_0CG@IAFNJNEE@Stack?5corrupted?5near?5unknown?5var@ 100cce50     LIBCMTD:_error_.obj
 0002:00003e80       ??_C@_05MKKEDADM@?$CF?42X?5?$AA@ 100cce80     LIBCMTD:_error_.obj
 0002:00003e88       ??_C@_0EJ@LJKNEOLN@Stack?5area?5around?5_alloca?5memory@ 100cce88     LIBCMTD:_error_.obj
 0002:00003ee0       ??_C@_08OMAHNMHJ@?6Data?3?5?$DM?$AA@ 100ccee0     LIBCMTD:_error_.obj
 0002:00003eec       ??_C@_0CK@DKGBICFE@?6Allocation?5number?5within?5this?5f@ 100cceec     LIBCMTD:_error_.obj
 0002:00003f20       ??_C@_07DFDJCKFN@?6Size?3?5?$AA@ 100ccf20     LIBCMTD:_error_.obj
 0002:00003f2c       ??_C@_0N@MHFFIMFG@?6Address?3?50x?$AA@ 100ccf2c     LIBCMTD:_error_.obj
 0002:00003f40       ??_C@_0EI@CLEPFNGI@Stack?5area?5around?5_alloca?5memory@ 100ccf40     LIBCMTD:_error_.obj
 0002:00003f98       ??_C@_0BC@HHMKLAND@?$CFs?$CFs?$CFp?$CFs?$CFzd?$CFs?$CFd?$CFs?$AA@ 100ccf98     LIBCMTD:_error_.obj
 0002:00003fb0       ??_C@_01EEMJAFIK@?6?$AA@   100ccfb0     LIBCMTD:_error_.obj
 0002:00003fb4       ??_C@_02LLMPMKNF@?$DO?5?$AA@ 100ccfb4     LIBCMTD:_error_.obj
 0002:00003fb8       ??_C@_08KJEDNCKC@?$CFs?$CFs?$CFs?$CFs?$AA@ 100ccfb8     LIBCMTD:_error_.obj
 0002:00003fc4       ??_C@_0DE@OHJBPMBP@A?5variable?5is?5being?5used?5without@ 100ccfc4     LIBCMTD:_error_.obj
 0002:00004060       ??_C@_1EI@MLPKHBGE@?$AAa?$AAp?$AAi?$AA?9?$AAm?$AAs?$AA?9?$AAw?$AAi?$AAn?$AA?9?$AAc?$AAo?$AAr?$AAe?$AA?9?$AAr?$AAe?$AAg?$AAi?$AAs?$AAt?$AAr?$AAy?$AA?9?$AAl?$AA1?$AA?9?$AA1?$AA?9?$AA0?$AA?4@ 100cd060     LIBCMTD:_pdblkup_.obj
 0002:000040b8       ??_C@_1BK@JHLNAEJL@?$AAa?$AAd?$AAv?$AAa?$AAp?$AAi?$AA3?$AA2?$AA?4?$AAd?$AAl?$AAl?$AA?$AA@ 100cd0b8     LIBCMTD:_pdblkup_.obj
 0002:000040d8       ??_C@_0O@COHOBMLB@RegOpenKeyExW?$AA@ 100cd0d8     LIBCMTD:_pdblkup_.obj
 0002:000040e8       ??_C@_0BB@GLNAEDBD@RegQueryValueExW?$AA@ 100cd0e8     LIBCMTD:_pdblkup_.obj
 0002:000040fc       ??_C@_0M@HLOHPNFA@RegCloseKey?$AA@ 100cd0fc     LIBCMTD:_pdblkup_.obj
 0002:00004110       ??_C@_1HE@EBEAGLFB@?$AAS?$AAO?$AAF?$AAT?$AAW?$AAA?$AAR?$AAE?$AA?2?$AAW?$AAo?$AAw?$AA6?$AA4?$AA3?$AA2?$AAN?$AAo?$AAd?$AAe?$AA?2?$AAM?$AAi?$AAc?$AAr?$AAo?$AAs?$AAo?$AAf?$AAt?$AA?2?$AAV@ 100cd110     LIBCMTD:_pdblkup_.obj
 0002:0000419c       ??_C@_1BG@EABPBLLF@?$AAP?$AAr?$AAo?$AAd?$AAu?$AAc?$AAt?$AAD?$AAi?$AAr?$AA?$AA@ 100cd19c     LIBCMTD:_pdblkup_.obj
 0002:000041dc       ??_C@_1BC@JINFINNJ@?$AAM?$AAS?$AAP?$AAD?$AAB?$AA1?$AA4?$AA0?$AA?$AA@ 100cd1dc     LIBCMTD:_pdblkup_.obj
 0002:000041f4       ??_C@_0BB@KCIACLNC@PDBOpenValidate5?$AA@ 100cd1f4     LIBCMTD:_pdblkup_.obj
 0002:00004208       ??_C@_01KDCPPGHE@r?$AA@    100cd208     LIBCMTD:_pdblkup_.obj
 0002:00004218       ??_C@_0DF@NOINFFIM@f?3?2dd?2vctools?2crt?2vcruntime?2src?2@ 100cd218     libvcruntimed:std_type_info.obj
 0002:00004438       ??_C@_08EHJDFFNH@__based?$CI?$AA@ 100cd438     libvcruntimed:undname.obj
 0002:00004444       ??_C@_07KOLFKCDI@__cdecl?$AA@ 100cd444     libvcruntimed:undname.obj
 0002:00004450       ??_C@_08GHMPAG@__pascal?$AA@ 100cd450     libvcruntimed:undname.obj
 0002:0000445c       ??_C@_09IFJBGAPI@__stdcall?$AA@ 100cd45c     libvcruntimed:undname.obj
 0002:00004468       ??_C@_0L@NPHFGOKO@__thiscall?$AA@ 100cd468     libvcruntimed:undname.obj
 0002:00004478       ??_C@_0L@JMKHOMEK@__fastcall?$AA@ 100cd478     libvcruntimed:undname.obj
 0002:00004488       ??_C@_0N@BCKKPABJ@__vectorcall?$AA@ 100cd488     libvcruntimed:undname.obj
 0002:00004498       ??_C@_09HIJEGCPM@__clrcall?$AA@ 100cd498     libvcruntimed:undname.obj
 0002:000044a4       ??_C@_06GHPCKEAG@__eabi?$AA@ 100cd4a4     libvcruntimed:undname.obj
 0002:000044ac       ??_C@_07JOMMBBKO@__ptr64?$AA@ 100cd4ac     libvcruntimed:undname.obj
 0002:000044b8       ??_C@_0L@PILCLIHE@__restrict?$AA@ 100cd4b8     libvcruntimed:undname.obj
 0002:000044c8       ??_C@_0M@GFIIJFMG@__unaligned?$AA@ 100cd4c8     libvcruntimed:undname.obj
 0002:000044d8       ??_C@_09DHDLOLLB@restrict?$CI?$AA@ 100cd4d8     libvcruntimed:undname.obj
 0002:000044e4       ??_C@_00CNPNBAHC@?$AA@     100cd4e4     libvcruntimed:undname.obj
 0002:000044e8       ??_C@_04NIHEBCM@?5new?$AA@ 100cd4e8     libvcruntimed:undname.obj
 0002:000044f0       ??_C@_07FPCDHGMM@?5delete?$AA@ 100cd4f0     libvcruntimed:undname.obj
 0002:000044fc       ??_C@_01NEMOKFLO@?$DN?$AA@ 100cd4fc     libvcruntimed:undname.obj
 0002:00004500       ??_C@_02GPIOPFAK@?$DO?$DO?$AA@ 100cd500     libvcruntimed:undname.obj
 0002:00004504       ??_C@_02FODMEDOG@?$DM?$DM?$AA@ 100cd504     libvcruntimed:undname.obj
 0002:00004508       ??_C@_01DCLJPIOD@?$CB?$AA@ 100cd508     libvcruntimed:undname.obj
 0002:0000450c       ??_C@_02EGOFBIJA@?$DN?$DN?$AA@ 100cd50c     libvcruntimed:undname.obj
 0002:00004510       ??_C@_02FDNJECIE@?$CB?$DN?$AA@ 100cd510     libvcruntimed:undname.obj
 0002:00004514       ??_C@_02GPECMEKF@?$FL?$FN?$AA@ 100cd514     libvcruntimed:undname.obj
 0002:00004518       ??_C@_08LHJFAFGD@operator?$AA@ 100cd518     libvcruntimed:undname.obj
 0002:00004524       ??_C@_02HBOOOICD@?9?$DO?$AA@ 100cd524     libvcruntimed:undname.obj
 0002:00004528       ??_C@_01NBENCBCI@?$CK?$AA@ 100cd528     libvcruntimed:undname.obj
 0002:0000452c       ??_C@_02ECNGHCIF@?$CL?$CL?$AA@ 100cd52c     libvcruntimed:undname.obj
 0002:00004530       ??_C@_02BAABKJLB@?9?9?$AA@ 100cd530     libvcruntimed:undname.obj
 0002:00004534       ??_C@_01JOAMLHOP@?9?$AA@   100cd534     libvcruntimed:undname.obj
 0002:00004538       ??_C@_01MIFGBAGJ@?$CL?$AA@ 100cd538     libvcruntimed:undname.obj
 0002:0000453c       ??_C@_01HNPIGOCE@?$CG?$AA@ 100cd53c     libvcruntimed:undname.obj
 0002:00004540       ??_C@_03MNHNFDLC@?9?$DO?$CK?$AA@ 100cd540     libvcruntimed:undname.obj
 0002:00004544       ??_C@_01KMDKNFGN@?1?$AA@   100cd544     libvcruntimed:undname.obj
 0002:00004548       ??_C@_01FGNFDNOH@?$CF?$AA@ 100cd548     libvcruntimed:undname.obj
 0002:0000454c       ??_C@_01MNNFJEPP@?$DM?$AA@ 100cd54c     libvcruntimed:undname.obj
 0002:00004550       ??_C@_02EHCHHCKH@?$DM?$DN?$AA@ 100cd550     libvcruntimed:undname.obj
 0002:00004554       ??_C@_01PPODPGHN@?$DO?$AA@ 100cd554     libvcruntimed:undname.obj
 0002:00004558       ??_C@_02EEKDKGMJ@?$DO?$DN?$AA@ 100cd558     libvcruntimed:undname.obj
 0002:0000455c       ??_C@_01IHBHIGKO@?0?$AA@   100cd55c     libvcruntimed:undname.obj
 0002:00004560       ??_C@_02HCKGKOFO@?$CI?$CJ?$AA@ 100cd560     libvcruntimed:undname.obj
 0002:00004564       ??_C@_01PJKLJHI@?$HO?$AA@  100cd564     libvcruntimed:undname.obj
 0002:00004568       ??_C@_01JKBOJNNK@?$FO?$AA@ 100cd568     libvcruntimed:undname.obj
 0002:0000456c       ??_C@_01DNKMNLPK@?$HM?$AA@ 100cd56c     libvcruntimed:undname.obj
 0002:00004570       ??_C@_02PPKAJPJL@?$CG?$CG?$AA@ 100cd570     libvcruntimed:undname.obj
 0002:00004574       ??_C@_02NONPIBCD@?$HM?$HM?$AA@ 100cd574     libvcruntimed:undname.obj
 0002:00004578       ??_C@_02FPIMKNGF@?$CK?$DN?$AA@ 100cd578     libvcruntimed:undname.obj
 0002:0000457c       ??_C@_02FOEOMHFC@?$CL?$DN?$AA@ 100cd57c     libvcruntimed:undname.obj
 0002:00004580       ??_C@_02FKMDLLOA@?9?$DN?$AA@ 100cd580     libvcruntimed:undname.obj
 0002:00004584       ??_C@_02FJEHGPIO@?1?$DN?$AA@ 100cd584     libvcruntimed:undname.obj
 0002:00004588       ??_C@_02FENAOKFI@?$CF?$DN?$AA@ 100cd588     libvcruntimed:undname.obj
 0002:0000458c       ??_C@_03IKFCCPFF@?$DO?$DO?$DN?$AA@ 100cd58c     libvcruntimed:undname.obj
 0002:00004590       ??_C@_03CDNPDDLA@?$DM?$DM?$DN?$AA@ 100cd590     libvcruntimed:undname.obj
 0002:00004594       ??_C@_02FGJGFEAB@?$CG?$DN?$AA@ 100cd594     libvcruntimed:undname.obj
 0002:00004598       ??_C@_02DHLNPPGH@?$HM?$DN?$AA@ 100cd598     libvcruntimed:undname.obj
 0002:0000459c       ??_C@_02MHEGNOJ@?$FO?$DN?$AA@ 100cd59c     libvcruntimed:undname.obj
 0002:000045a0       ??_C@_09IFPLHPGF@?$GAvftable?8?$AA@ 100cd5a0     libvcruntimed:undname.obj
 0002:000045ac       ??_C@_09BLBHBJP@?$GAvbtable?8?$AA@ 100cd5ac     libvcruntimed:undname.obj
 0002:000045b8       ??_C@_07FEEIOKP@?$GAvcall?8?$AA@ 100cd5b8     libvcruntimed:undname.obj
 0002:000045c4       ??_C@_08LLFFHHDJ@?$GAtypeof?8?$AA@ 100cd5c4     libvcruntimed:undname.obj
 0002:000045d0       ??_C@_0BF@KDPPACIK@?$GAlocal?5static?5guard?8?$AA@ 100cd5d0     libvcruntimed:undname.obj
 0002:000045ec       ??_C@_08OBABFOLI@?$GAstring?8?$AA@ 100cd5ec     libvcruntimed:undname.obj
 0002:000045f8       ??_C@_0BD@JDLKDPAB@?$GAvbase?5destructor?8?$AA@ 100cd5f8     libvcruntimed:undname.obj
 0002:00004610       ??_C@_0BN@DEGPLNFK@?$GAvector?5deleting?5destructor?8?$AA@ 100cd610     libvcruntimed:undname.obj
 0002:00004634       ??_C@_0BO@OBMKPJIG@?$GAdefault?5constructor?5closure?8?$AA@ 100cd634     libvcruntimed:undname.obj
 0002:00004658       ??_C@_0BN@IMDCHIKM@?$GAscalar?5deleting?5destructor?8?$AA@ 100cd658     libvcruntimed:undname.obj
 0002:0000467c       ??_C@_0BO@PFGOCPJJ@?$GAvector?5constructor?5iterator?8?$AA@ 100cd67c     libvcruntimed:undname.obj
 0002:000046a0       ??_C@_0BN@LFPFMEDL@?$GAvector?5destructor?5iterator?8?$AA@ 100cd6a0     libvcruntimed:undname.obj
 0002:000046c4       ??_C@_0CE@IKBNEHA@?$GAvector?5vbase?5constructor?5iterat@ 100cd6c4     libvcruntimed:undname.obj
 0002:000046f0       ??_C@_0BL@NILFHHPC@?$GAvirtual?5displacement?5map?8?$AA@ 100cd6f0     libvcruntimed:undname.obj
 0002:00004710       ??_C@_0CB@JONCMFFK@?$GAeh?5vector?5constructor?5iterator?8@ 100cd710     libvcruntimed:undname.obj
 0002:00004738       ??_C@_0CA@GCEOPDGL@?$GAeh?5vector?5destructor?5iterator?8?$AA@ 100cd738     libvcruntimed:undname.obj
 0002:00004760       ??_C@_0CH@OOJPLCPH@?$GAeh?5vector?5vbase?5constructor?5ite@ 100cd760     libvcruntimed:undname.obj
 0002:00004790       ??_C@_0BL@LLKPOHJI@?$GAcopy?5constructor?5closure?8?$AA@ 100cd790     libvcruntimed:undname.obj
 0002:000047b0       ??_C@_0BA@KBCDOMBN@?$GAudt?5returning?8?$AA@ 100cd7b0     libvcruntimed:undname.obj
 0002:000047c4       ??_C@_03KLGMFNMG@?$GAEH?$AA@ 100cd7c4     libvcruntimed:undname.obj
 0002:000047c8       ??_C@_05KHLCHHI@?$GARTTI?$AA@ 100cd7c8     libvcruntimed:undname.obj
 0002:000047d0       ??_C@_0BA@KKLDJDLB@?$GAlocal?5vftable?8?$AA@ 100cd7d0     libvcruntimed:undname.obj
 0002:000047e4       ??_C@_0CE@IIHCMGGL@?$GAlocal?5vftable?5constructor?5closu@ 100cd7e4     libvcruntimed:undname.obj
 0002:00004810       ??_C@_06FHBGPFGH@?5new?$FL?$FN?$AA@ 100cd810     libvcruntimed:undname.obj
 0002:00004818       ??_C@_09LBNFPBCA@?5delete?$FL?$FN?$AA@ 100cd818     libvcruntimed:undname.obj
 0002:00004824       ??_C@_0P@HJKNJFNN@?$GAomni?5callsig?8?$AA@ 100cd824     libvcruntimed:undname.obj
 0002:00004838       ??_C@_0BL@CNOONJFP@?$GAplacement?5delete?5closure?8?$AA@ 100cd838     libvcruntimed:undname.obj
 0002:00004858       ??_C@_0BN@CKNJLHMB@?$GAplacement?5delete?$FL?$FN?5closure?8?$AA@ 100cd858     libvcruntimed:undname.obj
 0002:0000487c       ??_C@_0CG@CFDHKGGD@?$GAmanaged?5vector?5constructor?5iter@ 100cd87c     libvcruntimed:undname.obj
 0002:000048ac       ??_C@_0CF@IMGKMJNO@?$GAmanaged?5vector?5destructor?5itera@ 100cd8ac     libvcruntimed:undname.obj
 0002:000048d8       ??_C@_0CG@HLDDJMAG@?$GAeh?5vector?5copy?5constructor?5iter@ 100cd8d8     libvcruntimed:undname.obj
 0002:00004908       ??_C@_0CM@FCBBDIGB@?$GAeh?5vector?5vbase?5copy?5constructo@ 100cd908     libvcruntimed:undname.obj
 0002:0000493c       ??_C@_0BL@CLIPGLGB@?$GAdynamic?5initializer?5for?5?8?$AA@ 100cd93c     libvcruntimed:undname.obj
 0002:0000495c       ??_C@_0CB@PDBIFEP@?$GAdynamic?5atexit?5destructor?5for?5?8@ 100cd95c     libvcruntimed:undname.obj
 0002:00004984       ??_C@_0CD@CGAJBKEJ@?$GAvector?5copy?5constructor?5iterato@ 100cd984     libvcruntimed:undname.obj
 0002:000049b0       ??_C@_0CJ@GJELGAMM@?$GAvector?5vbase?5copy?5constructor?5i@ 100cd9b0     libvcruntimed:undname.obj
 0002:000049e4       ??_C@_0CL@FGIJHLCE@?$GAmanaged?5vector?5copy?5constructor@ 100cd9e4     libvcruntimed:undname.obj
 0002:00004a18       ??_C@_0BM@PMGGMLDN@?$GAlocal?5static?5thread?5guard?8?$AA@ 100cda18     libvcruntimed:undname.obj
 0002:00004a3c       ??_C@_0N@BDNMDMOL@operator?5?$CC?$CC?5?$AA@ 100cda3c     libvcruntimed:undname.obj
 0002:00004a4c       ??_C@_0BC@DAFEJGAK@?5Type?5Descriptor?8?$AA@ 100cda4c     libvcruntimed:undname.obj
 0002:00004a64       ??_C@_0BM@LDKODKLH@?5Base?5Class?5Descriptor?5at?5?$CI?$AA@ 100cda64     libvcruntimed:undname.obj
 0002:00004a88       ??_C@_0BD@LGICGFMM@?5Base?5Class?5Array?8?$AA@ 100cda88     libvcruntimed:undname.obj
 0002:00004aa0       ??_C@_0BN@MECKDCOJ@?5Class?5Hierarchy?5Descriptor?8?$AA@ 100cdaa0     libvcruntimed:undname.obj
 0002:00004ac4       ??_C@_0BK@CFCOFLF@?5Complete?5Object?5Locator?8?$AA@ 100cdac4     libvcruntimed:undname.obj
 0002:00004ae4       ??_C@_04HEJADOOB@CV?3?5?$AA@ 100cdae4     libvcruntimed:undname.obj
 0002:00004aec       ??_C@_02MOLJINC@?3?3?$AA@  100cdaec     libvcruntimed:undname.obj
 0002:00004af0       ??_C@_0BE@JAEOCHPE@template?9parameter?9?$AA@ 100cdaf0     libvcruntimed:undname.obj
 0002:00004b08       ??_C@_0O@KHGCOMHP@generic?9type?9?$AA@ 100cdb08     libvcruntimed:undname.obj
 0002:00004b18       ??_C@_01NLNLIGKH@?$GA?$AA@ 100cdb18     libvcruntimed:undname.obj
 0002:00004b1c       ??_C@_01GEODFPGF@?8?$AA@   100cdb1c     libvcruntimed:undname.obj
 0002:00004b20       ??_C@_0BG@JNJLAMPM@?$GAanonymous?5namespace?8?$AA@ 100cdb20     libvcruntimed:undname.obj
 0002:00004b3c       ??_C@_02OHHJMEON@?8?8?$AA@ 100cdb3c     libvcruntimed:undname.obj
 0002:00004b40       ??_C@_0BN@IBLMMFAP@?$GAnon?9type?9template?9parameter?$AA@ 100cdb40     libvcruntimed:undname.obj
 0002:00004b64       ??_C@_04GKJNKENE@void?$AA@ 100cdb64     libvcruntimed:undname.obj
 0002:00004b6c       ??_C@_0BE@EODMJLIF@?$GAtemplate?9parameter?$AA@ 100cdb6c     libvcruntimed:undname.obj
 0002:00004b84       ??_C@_03KHICJKCI@?4?4?4?$AA@ 100cdb84     libvcruntimed:undname.obj
 0002:00004b88       ??_C@_04HIBGFPH@NULL?$AA@  100cdb88     libvcruntimed:undname.obj
 0002:00004b90       ??_C@_02DPKJAMEF@?$CFd?$AA@ 100cdb90     libvcruntimed:undname.obj
 0002:00004b94       ??_C@_0BK@IHCCFNEL@?$GAtemplate?9type?9parameter?9?$AA@ 100cdb94     libvcruntimed:undname.obj
 0002:00004bb4       ??_C@_0BK@OFCNNNKO@?$GAgeneric?9class?9parameter?9?$AA@ 100cdbb4     libvcruntimed:undname.obj
 0002:00004bd4       ??_C@_0BL@NGJBLFIL@?$GAgeneric?9method?9parameter?9?$AA@ 100cdbd4     libvcruntimed:undname.obj
 0002:00004bf4       ??_C@_03OPGICMGF@?$HN?8?5?$AA@ 100cdbf4     libvcruntimed:undname.obj
 0002:00004bf8       ??_C@_02IGFCGPIL@?$HN?8?$AA@ 100cdbf8     libvcruntimed:undname.obj
 0002:00004bfc       ??_C@_01CLKCMJKC@?5?$AA@   100cdbfc     libvcruntimed:undname.obj
 0002:00004c00       ??_C@_0N@CBHHHENL@?$GAvtordispex?$HL?$AA@ 100cdc00     libvcruntimed:undname.obj
 0002:00004c10       ??_C@_0L@GHPFDFH@?$GAvtordisp?$HL?$AA@ 100cdc10     libvcruntimed:undname.obj
 0002:00004c20       ??_C@_0L@HNGCOGAE@?$GAadjustor?$HL?$AA@ 100cdc20     libvcruntimed:undname.obj
 0002:00004c30       ??_C@_0CB@KJDOOODE@?$GAlocal?5static?5destructor?5helper?8@ 100cdc30     libvcruntimed:undname.obj
 0002:00004c58       ??_C@_0DB@ILEFOCIJ@?$GAtemplate?5static?5data?5member?5con@ 100cdc58     libvcruntimed:undname.obj
 0002:00004c94       ??_C@_0DA@HGFJFBBE@?$GAtemplate?5static?5data?5member?5des@ 100cdc94     libvcruntimed:undname.obj
 0002:00004cd0       ??_C@_07PGOEDBHP@static?5?$AA@ 100cdcd0     libvcruntimed:undname.obj
 0002:00004cdc       ??_C@_08NIEOINHE@virtual?5?$AA@ 100cdcdc     libvcruntimed:undname.obj
 0002:00004ce8       ??_C@_09LAPHOOG@private?3?5?$AA@ 100cdce8     libvcruntimed:undname.obj
 0002:00004cf4       ??_C@_0M@GAIFPFIP@protected?3?5?$AA@ 100cdcf4     libvcruntimed:undname.obj
 0002:00004d04       ??_C@_08GPDDCMKI@public?3?5?$AA@ 100cdd04     libvcruntimed:undname.obj
 0002:00004d10       ??_C@_08KJLFOPNE@?$FLthunk?$FN?3?$AA@ 100cdd10     libvcruntimed:undname.obj
 0002:00004d1c       ??_C@_0M@DHNBOJMP@extern?5?$CCC?$CC?5?$AA@ 100cdd1c     libvcruntimed:undname.obj
 0002:00004d2c       ??_C@_02KCKGHPCA@?$CJ?5?$AA@ 100cdd2c     libvcruntimed:undname.obj
 0002:00004d30       ??_C@_05CIHEBHNO@char?5?$AA@ 100cdd30     libvcruntimed:undname.obj
 0002:00004d38       ??_C@_06EHJMALKF@short?5?$AA@ 100cdd38     libvcruntimed:undname.obj
 0002:00004d40       ??_C@_04LAHKHJMA@int?5?$AA@ 100cdd40     libvcruntimed:undname.obj
 0002:00004d48       ??_C@_05CJIMAING@long?5?$AA@ 100cdd48     libvcruntimed:undname.obj
 0002:00004d50       ??_C@_09EBBEKKIH@unsigned?5?$AA@ 100cdd50     libvcruntimed:undname.obj
 0002:00004d5c       ??_C@_05BEFAKPML@void?5?$AA@ 100cdd5c     libvcruntimed:undname.obj
 0002:00004d64       ??_C@_08PABEKFH@volatile?$AA@ 100cdd64     libvcruntimed:undname.obj
 0002:00004d70       ??_C@_0BA@LKIJLKPP@std?3?3nullptr_t?5?$AA@ 100cdd70     libvcruntimed:undname.obj
 0002:00004d84       ??_C@_0P@GCOCNKDM@std?3?3nullptr_t?$AA@ 100cdd84     libvcruntimed:undname.obj
 0002:00004d98       ??_C@_0L@EGPHHEKN@?$DMellipsis?$DO?$AA@ 100cdd98     libvcruntimed:undname.obj
 0002:00004da8       ??_C@_04EENFHACM@?0?4?4?4?$AA@ 100cdda8     libvcruntimed:undname.obj
 0002:00004db0       ??_C@_0M@ELJOJFFH@?0?$DMellipsis?$DO?$AA@ 100cddb0     libvcruntimed:undname.obj
 0002:00004dc0       ??_C@_07HDJPLPEK@?5throw?$CI?$AA@ 100cddc0     libvcruntimed:undname.obj
 0002:00004dcc       ??_C@_03PBJBJNON@cpu?$AA@  100cddcc     libvcruntimed:undname.obj
 0002:00004dd0       ??_C@_03DCBBJBAA@amp?$AA@  100cddd0     libvcruntimed:undname.obj
 0002:00004dd4       ??_C@_02KEGNLNML@?0?5?$AA@ 100cddd4     libvcruntimed:undname.obj
 0002:00004dd8       ??_C@_04ENMBGAPA@char?$AA@ 100cddd8     libvcruntimed:undname.obj
 0002:00004de0       ??_C@_05BFKKPKCG@short?$AA@ 100cdde0     libvcruntimed:undname.obj
 0002:00004de8       ??_C@_03JBIPMCLC@int?$AA@  100cdde8     libvcruntimed:undname.obj
 0002:00004dec       ??_C@_04GOKPGOLB@long?$AA@ 100cddec     libvcruntimed:undname.obj
 0002:00004df4       ??_C@_05KNFBNCOH@float?$AA@ 100cddf4     libvcruntimed:undname.obj
 0002:00004dfc       ??_C@_06BNJCAIGJ@double?$AA@ 100cddfc     libvcruntimed:undname.obj
 0002:00004e04       ??_C@_04DDKJGDCM@bool?$AA@ 100cde04     libvcruntimed:undname.obj
 0002:00004e0c       ??_C@_06EBGKOKIG@__int8?$AA@ 100cde0c     libvcruntimed:undname.obj
 0002:00004e14       ??_C@_07ICFHOGAF@__int16?$AA@ 100cde14     libvcruntimed:undname.obj
 0002:00004e20       ??_C@_07OFLPPHGP@__int32?$AA@ 100cde20     libvcruntimed:undname.obj
 0002:00004e2c       ??_C@_07LFCOJCAC@__int64?$AA@ 100cde2c     libvcruntimed:undname.obj
 0002:00004e38       ??_C@_08GAHOLHEO@__int128?$AA@ 100cde38     libvcruntimed:undname.obj
 0002:00004e44       ??_C@_09EEKGDCPH@?$DMunknown?$DO?$AA@ 100cde44     libvcruntimed:undname.obj
 0002:00004e50       ??_C@_08HBIPOFJB@char16_t?$AA@ 100cde50     libvcruntimed:undname.obj
 0002:00004e5c       ??_C@_08IECNCBKG@char32_t?$AA@ 100cde5c     libvcruntimed:undname.obj
 0002:00004e68       ??_C@_07CLGGIAMF@wchar_t?$AA@ 100cde68     libvcruntimed:undname.obj
 0002:00004e74       ??_C@_06GCICPBLB@__w64?5?$AA@ 100cde74     libvcruntimed:undname.obj
 0002:00004e7c       ??_C@_07NFANNNEC@UNKNOWN?$AA@ 100cde7c     libvcruntimed:undname.obj
 0002:00004e88       ??_C@_07EDHNAJHC@signed?5?$AA@ 100cde88     libvcruntimed:undname.obj
 0002:00004e94       ??_C@_05BNCCCJPP@const?$AA@ 100cde94     libvcruntimed:undname.obj
 0002:00004e9c       ??_C@_09EFNPDFFP@?5volatile?$AA@ 100cde9c     libvcruntimed:undname.obj
 0002:00004ea8       ??_C@_0P@GCIFDJCJ@?$GAunknown?5ecsu?8?$AA@ 100cdea8     libvcruntimed:undname.obj
 0002:00004ebc       ??_C@_06MOJHIBMG@union?5?$AA@ 100cdebc     libvcruntimed:undname.obj
 0002:00004ec4       ??_C@_07DIBCDNGL@struct?5?$AA@ 100cdec4     libvcruntimed:undname.obj
 0002:00004ed0       ??_C@_06LJBABKPM@class?5?$AA@ 100cded0     libvcruntimed:undname.obj
 0002:00004ed8       ??_C@_08KOFANOFK@coclass?5?$AA@ 100cded8     libvcruntimed:undname.obj
 0002:00004ee4       ??_C@_0N@DLIEFKNA@cointerface?5?$AA@ 100cdee4     libvcruntimed:undname.obj
 0002:00004ef4       ??_C@_05LJGMCFOG@enum?5?$AA@ 100cdef4     libvcruntimed:undname.obj
 0002:00004efc       ??_C@_09GAIEOBLP@volatile?5?$AA@ 100cdefc     libvcruntimed:undname.obj
 0002:00004f08       ??_C@_06LIJLOJAG@const?5?$AA@ 100cdf08     libvcruntimed:undname.obj
 0002:00004f10       ??_C@_02KJPKDIBN@?$CG?5?$AA@ 100cdf10     libvcruntimed:undname.obj
 0002:00004f14       ??_C@_03PCKGMOPB@?$CG?$CG?5?$AA@ 100cdf14     libvcruntimed:undname.obj
 0002:00004f18       ??_C@_0M@EALIELKG@cli?3?3array?$DM?$AA@ 100cdf18     libvcruntimed:undname.obj
 0002:00004f28       ??_C@_0O@GKABPPIF@cli?3?3pin_ptr?$DM?$AA@ 100cdf28     libvcruntimed:undname.obj
 0002:00004f38       ??_C@_02GOGNNPBN@?$CJ?$FL?$AA@ 100cdf38     libvcruntimed:undname.obj
 0002:00004f3c       ??_C@_06EEGAIFAK@?$HLflat?$HN?$AA@ 100cdf3c     libvcruntimed:undname.obj
 0002:00004f44       ??_C@_05JIBOFOHK@?$HLfor?5?$AA@ 100cdf44     libvcruntimed:undname.obj
 0002:00004f4c       ??_C@_02MDINNEEG@s?5?$AA@  100cdf4c     libvcruntimed:undname.obj
 0002:00004f54       ??_7DNameNode@@6B@         100cdf54     libvcruntimed:undname.obj
 0002:00004f68       ??_7charNode@@6B@          100cdf68     libvcruntimed:undname.obj
 0002:00004f7c       ??_7pcharNode@@6B@         100cdf7c     libvcruntimed:undname.obj
 0002:00004f90       ??_7pDNameNode@@6B@        100cdf90     libvcruntimed:undname.obj
 0002:00004fa4       ??_7DNameStatusNode@@6B@   100cdfa4     libvcruntimed:undname.obj
 0002:00004fb8       ??_7pairNode@@6B@          100cdfb8     libvcruntimed:undname.obj
 0002:00004fc8       ??_C@_04OKOHEJBO@?5?$DP?$DP?5?$AA@ 100cdfc8     libvcruntimed:undname.obj
 0002:00004fd0       ??_C@_0DN@JAECLCAP@f?3?2dd?2vctools?2crt?2vcruntime?2src?2@ 100cdfd0     libvcruntimed:per_thread_data.obj
 0002:00005030       ??_C@_1BC@DNHGCMLG@?$AAa?$AAd?$AAv?$AAa?$AAp?$AAi?$AA3?$AA2?$AA?$AA@ 100ce030     libvcruntimed:winapi_downlevel.obj
 0002:00005048       ??_C@_1DM@KHCHBNEB@?$AAa?$AAp?$AAi?$AA?9?$AAm?$AAs?$AA?9?$AAw?$AAi?$AAn?$AA?9?$AAc?$AAo?$AAr?$AAe?$AA?9?$AAf?$AAi?$AAb?$AAe?$AAr?$AAs?$AA?9?$AAl?$AA1?$AA?9?$AA1?$AA?9?$AA1?$AA?$AA@ 100ce048     libvcruntimed:winapi_downlevel.obj
 0002:00005090       ??_C@_1DK@LPPGFMPP@?$AAa?$AAp?$AAi?$AA?9?$AAm?$AAs?$AA?9?$AAw?$AAi?$AAn?$AA?9?$AAc?$AAo?$AAr?$AAe?$AA?9?$AAs?$AAy?$AAn?$AAc?$AAh?$AA?9?$AAl?$AA1?$AA?9?$AA2?$AA?9?$AA0?$AA?$AA@ 100ce090     libvcruntimed:winapi_downlevel.obj
 0002:000050d8       ??_C@_1BC@GDMECMAK@?$AAk?$AAe?$AAr?$AAn?$AAe?$AAl?$AA3?$AA2?$AA?$AA@ 100ce0d8     libvcruntimed:winapi_downlevel.obj
 0002:000050f0       ??_C@_17CNPHIMPH@?$AA?$CF?$AAl?$AAs?$AA?$AA@ 100ce0f0     libvcruntimed:winapi_downlevel.obj
 0002:00005100       ??_C@_1EM@LBIFGLGH@?$AAc?$AAa?$AAc?$AAh?$AAe?$AAd?$AA_?$AAh?$AAa?$AAn?$AAd?$AAl?$AAe?$AA?5?$AA?$DN?$AA?$DN?$AA?5?$AAI?$AAN?$AAV?$AAA?$AAL?$AAI?$AAD?$AA_?$AAH?$AAA?$AAN?$AAD?$AAL?$AAE?$AA_@ 100ce100     libvcruntimed:winapi_downlevel.obj
 0002:00005160       ??_C@_1HM@FGPKDEPG@?$AAf?$AA?3?$AA?2?$AAd?$AAd?$AA?2?$AAv?$AAc?$AAt?$AAo?$AAo?$AAl?$AAs?$AA?2?$AAc?$AAr?$AAt?$AA?2?$AAv?$AAc?$AAr?$AAu?$AAn?$AAt?$AAi?$AAm?$AAe?$AA?2?$AAs?$AAr?$AAc?$AA?2@ 100ce160     libvcruntimed:winapi_downlevel.obj
 0002:000051f4       ??_C@_1DI@MAHEDLDB@?$AAc?$AAa?$AAc?$AAh?$AAe?$AAd?$AA_?$AAh?$AAa?$AAn?$AAd?$AAl?$AAe?$AA?5?$AA?$DN?$AA?$DN?$AA?5?$AAn?$AAe?$AAw?$AA_?$AAh?$AAa?$AAn?$AAd?$AAl?$AAe?$AA?$AA@ 100ce1f4     libvcruntimed:winapi_downlevel.obj
 0002:00005238       ??_C@_1FC@IBNCGNKL@?$AAc?$AAa?$AAc?$AAh?$AAe?$AAd?$AA_?$AAf?$AAp?$AA?5?$AA?$DN?$AA?$DN?$AA?5?$AAi?$AAn?$AAv?$AAa?$AAl?$AAi?$AAd?$AA_?$AAf?$AAu?$AAn?$AAc?$AAt?$AAi?$AAo?$AAn?$AA_?$AAs?$AAe@ 100ce238     libvcruntimed:winapi_downlevel.obj
 0002:0000529c       ??_C@_1CI@GDJBAGLP@?$AAc?$AAa?$AAc?$AAh?$AAe?$AAd?$AA_?$AAf?$AAp?$AA?5?$AA?$DN?$AA?$DN?$AA?5?$AAn?$AAe?$AAw?$AA_?$AAf?$AAp?$AA?$AA@ 100ce29c     libvcruntimed:winapi_downlevel.obj
 0002:000052d0       ??_C@_0O@BAMBGLIE@EventRegister?$AA@ 100ce2d0     libvcruntimed:winapi_downlevel.obj
 0002:000052e4       ??_C@_0BE@BJEEGHGK@EventSetInformation?$AA@ 100ce2e4     libvcruntimed:winapi_downlevel.obj
 0002:00005300       ??_C@_0BA@FAKLIPIC@EventUnregister?$AA@ 100ce300     libvcruntimed:winapi_downlevel.obj
 0002:00005318       ??_C@_0BD@PKLHJPHD@EventWriteTransfer?$AA@ 100ce318     libvcruntimed:winapi_downlevel.obj
 0002:0000533c       ??_C@_08KNHFBNJ@FlsAlloc?$AA@ 100ce33c     libvcruntimed:winapi_downlevel.obj
 0002:00005354       ??_C@_07PEJMOBNF@FlsFree?$AA@ 100ce354     libvcruntimed:winapi_downlevel.obj
 0002:0000536c       ??_C@_0M@GDNOONDI@FlsGetValue?$AA@ 100ce36c     libvcruntimed:winapi_downlevel.obj
 0002:00005388       ??_C@_0M@JCPCPOEF@FlsSetValue?$AA@ 100ce388     libvcruntimed:winapi_downlevel.obj
 0002:000053a4       ??_C@_0BM@HCFOFFN@InitializeCriticalSectionEx?$AA@ 100ce3a4     libvcruntimed:winapi_downlevel.obj
 0002:000053c8       __real@0000000000000000    100ce3c8     libucrtd:fabs.obj
 0002:000053d8       __real@3ff0000000000000    100ce3d8     libucrtd:fabs.obj
 0002:0000540c       ??_C@_1BA@GLMCNLEM@?$AAW?$AAa?$AAr?$AAn?$AAi?$AAn?$AAg?$AA?$AA@ 100ce40c     libucrtd:dbgrpt.obj
 0002:00005420       ??_C@_1M@ILHOPKA@?$AAE?$AAr?$AAr?$AAo?$AAr?$AA?$AA@ 100ce420     libucrtd:dbgrpt.obj
 0002:00005430       ??_C@_1CC@CGHMNGDG@?$AAA?$AAs?$AAs?$AAe?$AAr?$AAt?$AAi?$AAo?$AAn?$AA?5?$AAF?$AAa?$AAi?$AAl?$AAe?$AAd?$AA?$AA@ 100ce430     libucrtd:dbgrpt.obj
 0002:00005460       ??_C@_1OG@PMPPFHAF@?$AA?6?$AA?6?$AAF?$AAo?$AAr?$AA?5?$AAi?$AAn?$AAf?$AAo?$AAr?$AAm?$AAa?$AAt?$AAi?$AAo?$AAn?$AA?5?$AAo?$AAn?$AA?5?$AAh?$AAo?$AAw?$AA?5?$AAy?$AAo?$AAu?$AAr?$AA?5?$AAp?$AAr@ 100ce460     libucrtd:dbgrpt.obj
 0002:00005578       ??_C@_1MG@LJLILFFD@?$AAD?$AAe?$AAb?$AAu?$AAg?$AA?5?$AA?$CF?$AAl?$AAs?$AA?$CB?$AA?6?$AA?6?$AAP?$AAr?$AAo?$AAg?$AAr?$AAa?$AAm?$AA?3?$AA?5?$AA?$CF?$AAh?$AAs?$AA?$CF?$AAl?$AAs?$AA?$CF?$AAl?$AAs?$AA?$CF?$AAh@ 100ce578     libucrtd:dbgrpt.obj
 0002:00005668       ??_C@_1MG@OODCADGL@?$AAD?$AAe?$AAb?$AAu?$AAg?$AA?5?$AA?$CF?$AAl?$AAs?$AA?$CB?$AA?6?$AA?6?$AAP?$AAr?$AAo?$AAg?$AAr?$AAa?$AAm?$AA?3?$AA?5?$AA?$CF?$AAl?$AAs?$AA?$CF?$AAl?$AAs?$AA?$CF?$AAl?$AAs?$AA?$CF?$AAl@ 100ce668     libucrtd:dbgrpt.obj
 0002:00005758       ??_C@_0BH@DNAGHKFM@?$DMprogram?5name?5unknown?$DO?$AA@ 100ce758     libucrtd:dbgrpt.obj
 0002:00005774       ??_C@_1CO@EAEJAADC@?$AA?$DM?$AAp?$AAr?$AAo?$AAg?$AAr?$AAa?$AAm?$AA?5?$AAn?$AAa?$AAm?$AAe?$AA?5?$AAu?$AAn?$AAk?$AAn?$AAo?$AAw?$AAn?$AA?$DO?$AA?$AA@ 100ce774     libucrtd:dbgrpt.obj
 0002:000057b0       ??_C@_1HI@OFEHGPPC@?$AAm?$AAo?$AAd?$AAe?$AA?5?$AA?$DN?$AA?$DN?$AA?5?$AA_?$AAC?$AAR?$AAT?$AA_?$AAR?$AAP?$AAT?$AAH?$AAO?$AAO?$AAK?$AA_?$AAI?$AAN?$AAS?$AAT?$AAA?$AAL?$AAL?$AA?5?$AA?$HM?$AA?$HM?$AA?5@ 100ce7b0     libucrtd:dbgrpt.obj
 0002:00005840       ??_C@_1FO@GMJDLAJD@?$AAm?$AAi?$AAn?$AAk?$AAe?$AAr?$AAn?$AAe?$AAl?$AA?2?$AAc?$AAr?$AAt?$AAs?$AA?2?$AAu?$AAc?$AAr?$AAt?$AA?2?$AAs?$AAr?$AAc?$AA?2?$AAa?$AAp?$AAp?$AAc?$AAr?$AAt?$AA?2?$AAm@ 100ce840     libucrtd:dbgrpt.obj
 0002:000058b0       ??_C@_1CO@FFNKOJOG@?$AAc?$AAo?$AAm?$AAm?$AAo?$AAn?$AA_?$AAs?$AAe?$AAt?$AA_?$AAr?$AAe?$AAp?$AAo?$AAr?$AAt?$AA_?$AAh?$AAo?$AAo?$AAk?$AA?$AA@ 100ce8b0     libucrtd:dbgrpt.obj
 0002:000058e8       ??_C@_1CI@ONEHFNHD@?$AAn?$AAe?$AAw?$AA_?$AAh?$AAo?$AAo?$AAk?$AA?5?$AA?$CB?$AA?$DN?$AA?5?$AAn?$AAu?$AAl?$AAl?$AAp?$AAt?$AAr?$AA?$AA@ 100ce8e8     libucrtd:dbgrpt.obj
 0002:00005918       ??_C@_1CM@EHMOGBJJ@?$AAc?$AAo?$AAm?$AAm?$AAo?$AAn?$AA_?$AAm?$AAe?$AAs?$AAs?$AAa?$AAg?$AAe?$AA_?$AAw?$AAi?$AAn?$AAd?$AAo?$AAw?$AA?$AA@ 100ce918     libucrtd:dbgrpt.obj
 0002:00005950       ??_C@_1PE@ECNALGCA@?$AAt?$AAr?$AAa?$AAi?$AAt?$AAs?$AA?3?$AA?3?$AAt?$AAc?$AAs?$AAc?$AAp?$AAy?$AA_?$AAs?$AA?$CI?$AAp?$AAr?$AAo?$AAg?$AAr?$AAa?$AAm?$AA_?$AAn?$AAa?$AAm?$AAe?$AA?0?$AA?5?$AA?$CI@ 100ce950     libucrtd:dbgrpt.obj
 0002:00005a78       ??_C@_11LOCGONAA@?$AA?$AA@ 100cea78     libucrtd:dbgrpt.obj
 0002:00005a7c       ??_C@_1BK@PEDCIPMA@?$AAE?$AAx?$AAp?$AAr?$AAe?$AAs?$AAs?$AAi?$AAo?$AAn?$AA?3?$AA?5?$AA?$AA@ 100cea7c     libucrtd:dbgrpt.obj
 0002:00005a9c       ??_C@_15IABLJNFO@?$AA?6?$AA?6?$AA?$AA@ 100cea9c     libucrtd:dbgrpt.obj
 0002:00005aa4       ??_C@_1BA@GLLGCPCK@?$AA?6?$AAL?$AAi?$AAn?$AAe?$AA?3?$AA?5?$AA?$AA@ 100ceaa4     libucrtd:dbgrpt.obj
 0002:00005ab8       ??_C@_1BA@LNHECFIM@?$AA?6?$AAF?$AAi?$AAl?$AAe?$AA?3?$AA?5?$AA?$AA@ 100ceab8     libucrtd:dbgrpt.obj
 0002:00005acc       ??_C@_17LGKOMLJ@?$AA?4?$AA?4?$AA?4?$AA?$AA@ 100ceacc     libucrtd:dbgrpt.obj
 0002:00005ad8       ??_C@_1BE@CGCJKGHI@?$AA?6?$AAM?$AAo?$AAd?$AAu?$AAl?$AAe?$AA?3?$AA?5?$AA?$AA@ 100cead8     libucrtd:dbgrpt.obj
 0002:00005af0       ??_C@_1BI@KALLJECN@?$AA?$CI?$AA?$CK?$AA_?$AAe?$AAr?$AAr?$AAn?$AAo?$AA?$CI?$AA?$CJ?$AA?$CJ?$AA?$AA@ 100ceaf0     libucrtd:dbgrpt.obj
 0002:00005b10       ??_C@_1JM@IBOIJEOO@?$AAw?$AAc?$AAs?$AAc?$AAp?$AAy?$AA_?$AAs?$AA?$CI?$AAm?$AAe?$AAs?$AAs?$AAa?$AAg?$AAe?$AA_?$AAb?$AAu?$AAf?$AAf?$AAe?$AAr?$AA?0?$AA?5?$AA4?$AA0?$AA9?$AA6?$AA?0?$AA?5?$AAL@ 100ceb10     libucrtd:dbgrpt.obj
 0002:00005bd0       ??_C@_1FG@BBOLDHGF@?$AA_?$AAC?$AAr?$AAt?$AAD?$AAb?$AAg?$AAR?$AAe?$AAp?$AAo?$AAr?$AAt?$AA?3?$AA?5?$AAS?$AAt?$AAr?$AAi?$AAn?$AAg?$AA?5?$AAt?$AAo?$AAo?$AA?5?$AAl?$AAo?$AAn?$AAg?$AA?5?$AAo@ 100cebd0     libucrtd:dbgrpt.obj
 0002:00005c38       ??_C@_1EK@MBDPDCGA@?$AAM?$AAi?$AAc?$AAr?$AAo?$AAs?$AAo?$AAf?$AAt?$AA?5?$AAV?$AAi?$AAs?$AAu?$AAa?$AAl?$AA?5?$AAC?$AA?$CL?$AA?$CL?$AA?5?$AAR?$AAu?$AAn?$AAt?$AAi?$AAm?$AAe?$AA?5?$AAL?$AAi?$AAb@ 100cec38     libucrtd:dbgrpt.obj
 0002:00005c98       ??_C@_1FK@BNNDOGMN@?$AA?$CI?$AA?$CC?$AAT?$AAh?$AAe?$AA?5?$AAh?$AAo?$AAo?$AAk?$AA?5?$AAf?$AAu?$AAn?$AAc?$AAt?$AAi?$AAo?$AAn?$AA?5?$AAi?$AAs?$AA?5?$AAn?$AAo?$AAt?$AA?5?$AAi?$AAn?$AA?5?$AAt?$AAh@ 100cec98     libucrtd:dbgrpt.obj
 0002:00005d04       ??_C@_0CP@HDJNPEFB@minkernel?2crts?2ucrt?2src?2appcrt?2m@ 100ced04     libucrtd:dbgrpt.obj
 0002:00005e58       ??_C@_03KHJOGHMM@exp?$AA@  100cee58     libucrtd:fpexcept.obj
 0002:00005e5c       ??_C@_03JGHBODFD@pow?$AA@  100cee5c     libucrtd:fpexcept.obj
 0002:00005e60       ??_C@_03MGHMBJCF@log?$AA@  100cee60     libucrtd:fpexcept.obj
 0002:00005e64       ??_C@_05HGHHAHAP@log10?$AA@ 100cee64     libucrtd:fpexcept.obj
 0002:00005e6c       ??_C@_04COOMCNPB@sinh?$AA@ 100cee6c     libucrtd:fpexcept.obj
 0002:00005e74       ??_C@_04HPJJNFIM@cosh?$AA@ 100cee74     libucrtd:fpexcept.obj
 0002:00005e7c       ??_C@_04FJHINJAO@tanh?$AA@ 100cee7c     libucrtd:fpexcept.obj
 0002:00005e84       ??_C@_04FIHNOPOL@asin?$AA@ 100cee84     libucrtd:fpexcept.obj
 0002:00005e8c       ??_C@_04PDIFKINK@acos?$AA@ 100cee8c     libucrtd:fpexcept.obj
 0002:00005e94       ??_C@_04MLLJIGOK@atan?$AA@ 100cee94     libucrtd:fpexcept.obj
 0002:00005e9c       ??_C@_05KNGEOGJB@atan2?$AA@ 100cee9c     libucrtd:fpexcept.obj
 0002:00005ea4       ??_C@_04EIAKFFMI@sqrt?$AA@ 100ceea4     libucrtd:fpexcept.obj
 0002:00005eac       ??_C@_03BLEJJJBH@sin?$AA@  100ceeac     libucrtd:fpexcept.obj
 0002:00005eb0       ??_C@_03LALBNOCG@cos?$AA@  100ceeb0     libucrtd:fpexcept.obj
 0002:00005eb4       ??_C@_03IIINPABG@tan?$AA@  100ceeb4     libucrtd:fpexcept.obj
 0002:00005eb8       ??_C@_04GFPJNGEK@ceil?$AA@ 100ceeb8     libucrtd:fpexcept.obj
 0002:00005ec0       ??_C@_05PBJFFIGL@floor?$AA@ 100ceec0     libucrtd:fpexcept.obj
 0002:00005ec8       ??_C@_04ODHECPBC@fabs?$AA@ 100ceec8     libucrtd:fpexcept.obj
 0002:00005ed0       ??_C@_04EHEDPDJG@modf?$AA@ 100ceed0     libucrtd:fpexcept.obj
 0002:00005ed8       ??_C@_05CEJMAHNP@ldexp?$AA@ 100ceed8     libucrtd:fpexcept.obj
 0002:00005ee0       ??_C@_05KBKMEMPO@_cabs?$AA@ 100ceee0     libucrtd:fpexcept.obj
 0002:00005ee8       ??_C@_06MEIMCGCF@_hypot?$AA@ 100ceee8     libucrtd:fpexcept.obj
 0002:00005ef0       ??_C@_04KEPJIHGP@fmod?$AA@ 100ceef0     libucrtd:fpexcept.obj
 0002:00005ef8       ??_C@_05GKKHEGJL@frexp?$AA@ 100ceef8     libucrtd:fpexcept.obj
 0002:00005f00       ??_C@_03MJLDFKDL@_y0?$AA@  100cef00     libucrtd:fpexcept.obj
 0002:00005f04       ??_C@_03NAKIGLHK@_y1?$AA@  100cef04     libucrtd:fpexcept.obj
 0002:00005f08       ??_C@_03ONILCKOB@_yn?$AA@  100cef08     libucrtd:fpexcept.obj
 0002:00005f0c       ??_C@_05JGDBENOH@_logb?$AA@ 100cef0c     libucrtd:fpexcept.obj
 0002:00005f14       ??_C@_0L@KDOEJCKC@_nextafter?$AA@ 100cef14     libucrtd:fpexcept.obj
 0002:00005f3c       ??_C@_04HJMOFLDF@Free?$AA@ 100cef3c     libucrtd:debug_heap.obj
 0002:00005f44       ??_C@_06EFAGIKOH@Normal?$AA@ 100cef44     libucrtd:debug_heap.obj
 0002:00005f4c       ??_C@_03OGPFLFLO@CRT?$AA@  100cef4c     libucrtd:debug_heap.obj
 0002:00005f50       ??_C@_06KMEJCCGM@Ignore?$AA@ 100cef50     libucrtd:debug_heap.obj
 0002:00005f58       ??_C@_06PJIGMIJB@Client?$AA@ 100cef58     libucrtd:debug_heap.obj
 0002:00005f60       ??_C@_1CE@LJFEPPMP@?$AA_?$AAC?$AAr?$AAt?$AAC?$AAh?$AAe?$AAc?$AAk?$AAM?$AAe?$AAm?$AAo?$AAr?$AAy?$AA?$CI?$AA?$CJ?$AA?$AA@ 100cef60     libucrtd:debug_heap.obj
 0002:00005f90       ??_C@_1GG@OCLHPJPK@?$AAm?$AAi?$AAn?$AAk?$AAe?$AAr?$AAn?$AAe?$AAl?$AA?2?$AAc?$AAr?$AAt?$AAs?$AA?2?$AAu?$AAc?$AAr?$AAt?$AA?2?$AAs?$AAr?$AAc?$AA?2?$AAa?$AAp?$AAp?$AAc?$AAr?$AAt?$AA?2?$AAh@ 100cef90     libucrtd:debug_heap.obj
 0002:0000600c       ??_C@_0DF@BBEGIFEK@Client?5hook?5allocation?5failure?5a@ 100cf00c     libucrtd:debug_heap.obj
 0002:0000604c       ??_C@_0CB@CCLOLAHO@Client?5hook?5allocation?5failure?4?6@ 100cf04c     libucrtd:debug_heap.obj
 0002:00006074       ??_C@_02DKCKIIND@?$CFs?$AA@ 100cf074     libucrtd:debug_heap.obj
 0002:00006078       ??_C@_0DC@JEMAGEKG@Error?3?5memory?5allocation?3?5bad?5me@ 100cf078     libucrtd:debug_heap.obj
 0002:000060b4       ??_C@_0DI@KKJPDPGM@Client?5hook?5re?9allocation?5failur@ 100cf0b4     libucrtd:debug_heap.obj
 0002:000060f8       ??_C@_0CE@DOFMDOL@Client?5hook?5re?9allocation?5failur@ 100cf0f8     libucrtd:debug_heap.obj
 0002:00006128       ??_C@_0FA@EFEIGJKG@Error?3?5memory?5allocation?3?5bad?5me@ 100cf128     libucrtd:debug_heap.obj
 0002:00006188       ??_C@_0EM@LGFLMAGJ@The?5Block?5at?50x?$CFp?5was?5allocated?5@ 100cf188     libucrtd:debug_heap.obj
 0002:000061e4       ??_C@_1DM@DEDLGNML@?$AA_?$AAC?$AAr?$AAt?$AAI?$AAs?$AAV?$AAa?$AAl?$AAi?$AAd?$AAH?$AAe?$AAa?$AAp?$AAP?$AAo?$AAi?$AAn?$AAt?$AAe?$AAr?$AA?$CI?$AAb?$AAl?$AAo?$AAc?$AAk?$AA?$CJ?$AA?$AA@ 100cf1e4     libucrtd:debug_heap.obj
 0002:00006230       ??_C@_1PC@MCGKJLN@?$AAo?$AAl?$AAd?$AA_?$AAh?$AAe?$AAa?$AAd?$AA?9?$AA?$DO?$AA_?$AAl?$AAi?$AAn?$AAe?$AA_?$AAn?$AAu?$AAm?$AAb?$AAe?$AAr?$AA?5?$AA?$DN?$AA?$DN?$AA?5?$AAl?$AAi?$AAn?$AAe?$AA_?$AAn@ 100cf230     libucrtd:debug_heap.obj
 0002:00006354       ??_C@_0DA@HFBKENN@Error?3?5possible?5heap?5corruption?5@ 100cf354     libucrtd:debug_heap.obj
 0002:00006390       ??_C@_1JM@MCMEPJEP@?$AAr?$AAe?$AAa?$AAl?$AAl?$AAo?$AAc?$AAa?$AAt?$AAi?$AAo?$AAn?$AA_?$AAi?$AAs?$AA_?$AAa?$AAl?$AAl?$AAo?$AAw?$AAe?$AAd?$AA?5?$AA?$HM?$AA?$HM?$AA?5?$AA?$CI?$AA?$CB?$AAr?$AAe?$AAa@ 100cf390     libucrtd:debug_heap.obj
 0002:0000644c       ??_C@_1DM@LNOPKAIJ@?$AA_?$AA_?$AAa?$AAc?$AAr?$AAt?$AA_?$AAl?$AAa?$AAs?$AAt?$AA_?$AAb?$AAl?$AAo?$AAc?$AAk?$AA?5?$AA?$DN?$AA?$DN?$AA?5?$AAo?$AAl?$AAd?$AA_?$AAh?$AAe?$AAa?$AAd?$AA?$AA@ 100cf44c     libucrtd:debug_heap.obj
 0002:00006494       ??_C@_1DO@HABCJBHO@?$AA_?$AA_?$AAa?$AAc?$AAr?$AAt?$AA_?$AAf?$AAi?$AAr?$AAs?$AAt?$AA_?$AAb?$AAl?$AAo?$AAc?$AAk?$AA?5?$AA?$DN?$AA?$DN?$AA?5?$AAo?$AAl?$AAd?$AA_?$AAh?$AAe?$AAa?$AAd?$AA?$AA@ 100cf494     libucrtd:debug_heap.obj
 0002:000064e0       ??_C@_1CC@CKEAHJPH@?$AAb?$AAl?$AAo?$AAc?$AAk?$AA?5?$AA?$CB?$AA?$DN?$AA?5?$AAn?$AAu?$AAl?$AAl?$AAp?$AAt?$AAr?$AA?$AA@ 100cf4e0     libucrtd:debug_heap.obj
 0002:00006508       ??_C@_1BI@HAPNGHDP@?$AA_?$AAe?$AAx?$AAp?$AAa?$AAn?$AAd?$AA_?$AAd?$AAb?$AAg?$AA?$AA@ 100cf508     libucrtd:debug_heap.obj
 0002:00006528       ??_C@_0EJ@HEIBCIMJ@The?5Block?5at?50x?$CFp?5was?5allocated?5@ 100cf528     libucrtd:debug_heap.obj
 0002:00006580       ??_C@_0BL@KEIPLFAC@Client?5hook?5free?5failure?4?6?$AA@ 100cf580     libucrtd:debug_heap.obj
 0002:000065a0       ??_C@_1FA@KDNEBILF@?$AAi?$AAs?$AA_?$AAb?$AAl?$AAo?$AAc?$AAk?$AA_?$AAt?$AAy?$AAp?$AAe?$AA_?$AAv?$AAa?$AAl?$AAi?$AAd?$AA?$CI?$AAh?$AAe?$AAa?$AAd?$AAe?$AAr?$AA?9?$AA?$DO?$AA_?$AAb?$AAl?$AAo@ 100cf5a0     libucrtd:debug_heap.obj
 0002:00006600       ??_C@_0KI@JGFOHMEB@HEAP?5CORRUPTION?5DETECTED?3?5before@ 100cf600     libucrtd:debug_heap.obj
 0002:000066d0       ??_C@_0IK@PJCGLBOB@HEAP?5CORRUPTION?5DETECTED?3?5before@ 100cf6d0     libucrtd:debug_heap.obj
 0002:00006778       ??_C@_0KE@MBMNHHHN@HEAP?5CORRUPTION?5DETECTED?3?5after?5@ 100cf778     libucrtd:debug_heap.obj
 0002:00006840       ??_C@_0IG@LEMBDCJK@HEAP?5CORRUPTION?5DETECTED?3?5after?5@ 100cf840     libucrtd:debug_heap.obj
 0002:000068e0       ??_C@_1OK@GFEOEJAF@?$AAh?$AAe?$AAa?$AAd?$AAe?$AAr?$AA?9?$AA?$DO?$AA_?$AAl?$AAi?$AAn?$AAe?$AA_?$AAn?$AAu?$AAm?$AAb?$AAe?$AAr?$AA?5?$AA?$DN?$AA?$DN?$AA?5?$AAl?$AAi?$AAn?$AAe?$AA_?$AAn?$AAu?$AAm@ 100cf8e0     libucrtd:debug_heap.obj
 0002:000069f8       ??_C@_1ME@GFALMLNA@?$AAh?$AAe?$AAa?$AAd?$AAe?$AAr?$AA?9?$AA?$DO?$AA_?$AAb?$AAl?$AAo?$AAc?$AAk?$AA_?$AAu?$AAs?$AAe?$AA?5?$AA?$DN?$AA?$DN?$AA?5?$AAb?$AAl?$AAo?$AAc?$AAk?$AA_?$AAu?$AAs?$AAe?$AA?5@ 100cf9f8     libucrtd:debug_heap.obj
 0002:00006ae4       ??_C@_1DI@ILNOPEPI@?$AA_?$AA_?$AAa?$AAc?$AAr?$AAt?$AA_?$AAl?$AAa?$AAs?$AAt?$AA_?$AAb?$AAl?$AAo?$AAc?$AAk?$AA?5?$AA?$DN?$AA?$DN?$AA?5?$AAh?$AAe?$AAa?$AAd?$AAe?$AAr?$AA?$AA@ 100cfae4     libucrtd:debug_heap.obj
 0002:00006b28       ??_C@_1DK@KEHFGDIJ@?$AA_?$AA_?$AAa?$AAc?$AAr?$AAt?$AA_?$AAf?$AAi?$AAr?$AAs?$AAt?$AA_?$AAb?$AAl?$AAo?$AAc?$AAk?$AA?5?$AA?$DN?$AA?$DN?$AA?5?$AAh?$AAe?$AAa?$AAd?$AAe?$AAr?$AA?$AA@ 100cfb28     libucrtd:debug_heap.obj
 0002:00006b70       ??_C@_1BG@MBKOGDLD@?$AA_?$AAm?$AAs?$AAi?$AAz?$AAe?$AA_?$AAd?$AAb?$AAg?$AA?$AA@ 100cfb70     libucrtd:debug_heap.obj
 0002:00006b8c       ??_C@_07OHKEFPKJ@DAMAGED?$AA@ 100cfb8c     libucrtd:debug_heap.obj
 0002:00006b98       ??_C@_0KA@IHNJJKPL@HEAP?5CORRUPTION?5DETECTED?3?5on?5top@ 100cfb98     libucrtd:debug_heap.obj
 0002:00006c58       ??_C@_0IC@BBJIOOJH@HEAP?5CORRUPTION?5DETECTED?3?5on?5top@ 100cfc58     libucrtd:debug_heap.obj
 0002:00006cf8       ??_C@_0EG@DGJMPDBH@?$CFhs?5located?5at?50x?$CFp?5is?5?$CFIu?5bytes@ 100cfcf8     libucrtd:debug_heap.obj
 0002:00006d4c       ??_C@_0CI@JMLBEDHJ@?$CFhs?5located?5at?50x?$CFp?5is?5?$CFIu?5bytes@ 100cfd4c     libucrtd:debug_heap.obj
 0002:00006d80       ??_C@_0EG@GPFHANHO@Cycle?5in?5block?5list?5detected?5whi@ 100cfd80     libucrtd:debug_heap.obj
 0002:00006dd4       ??_C@_0BJ@ELMAOCAJ@Heap?5validation?5failed?4?6?$AA@ 100cfdd4     libucrtd:debug_heap.obj
 0002:00006df8       ??_C@_1IE@BBIFDGEB@?$AAn?$AAe?$AAw?$AA_?$AAb?$AAi?$AAt?$AAs?$AA?5?$AA?$DN?$AA?$DN?$AA?5?$AA_?$AAC?$AAR?$AAT?$AAD?$AAB?$AAG?$AA_?$AAR?$AAE?$AAP?$AAO?$AAR?$AAT?$AA_?$AAF?$AAL?$AAA?$AAG?$AA?5@ 100cfdf8     libucrtd:debug_heap.obj
 0002:00006e98       ??_C@_1BO@GJFDNMNF@?$AA_?$AAC?$AAr?$AAt?$AAS?$AAe?$AAt?$AAD?$AAb?$AAg?$AAF?$AAl?$AAa?$AAg?$AA?$AA@ 100cfe98     libucrtd:debug_heap.obj
 0002:00006ebc       ??_C@_1CI@CEIBPAIA@?$AAc?$AAa?$AAl?$AAl?$AAb?$AAa?$AAc?$AAk?$AA?5?$AA?$CB?$AA?$DN?$AA?5?$AAn?$AAu?$AAl?$AAl?$AAp?$AAt?$AAr?$AA?$AA@ 100cfebc     libucrtd:debug_heap.obj
 0002:00006eec       ??_C@_1DE@GJCKCKEC@?$AA_?$AAC?$AAr?$AAt?$AAD?$AAo?$AAF?$AAo?$AAr?$AAA?$AAl?$AAl?$AAC?$AAl?$AAi?$AAe?$AAn?$AAt?$AAO?$AAb?$AAj?$AAe?$AAc?$AAt?$AAs?$AA?$AA@ 100cfeec     libucrtd:debug_heap.obj
 0002:00006f2c       ??_C@_1CC@BBKMONGA@?$AAs?$AAt?$AAa?$AAt?$AAe?$AA?5?$AA?$CB?$AA?$DN?$AA?5?$AAn?$AAu?$AAl?$AAl?$AAp?$AAt?$AAr?$AA?$AA@ 100cff2c     libucrtd:debug_heap.obj
 0002:00006f54       ??_C@_1CE@NJJKELF@?$AA_?$AAC?$AAr?$AAt?$AAM?$AAe?$AAm?$AAC?$AAh?$AAe?$AAc?$AAk?$AAp?$AAo?$AAi?$AAn?$AAt?$AA?$AA@ 100cff54     libucrtd:debug_heap.obj
 0002:00006f80       ??_C@_0DP@LEFMFBOD@Bad?5memory?5block?5found?5at?50x?$CFp?4?6@ 100cff80     libucrtd:debug_heap.obj
 0002:00006fcc       ??_C@_0CB@EAAIGELO@Bad?5memory?5block?5found?5at?50x?$CFp?4?6@ 100cffcc     libucrtd:debug_heap.obj
 0002:00006ff4       ??_C@_1CE@PDIENACM@?$AA_?$AAC?$AAr?$AAt?$AAM?$AAe?$AAm?$AAD?$AAi?$AAf?$AAf?$AAe?$AAr?$AAe?$AAn?$AAc?$AAe?$AA?$AA@ 100cfff4     libucrtd:debug_heap.obj
 0002:00007020       ??_C@_1CK@FFKLBHMD@?$AAo?$AAl?$AAd?$AA_?$AAs?$AAt?$AAa?$AAt?$AAe?$AA?5?$AA?$CB?$AA?$DN?$AA?5?$AAn?$AAu?$AAl?$AAl?$AAp?$AAt?$AAr?$AA?$AA@ 100d0020     libucrtd:debug_heap.obj
 0002:00007054       ??_C@_1CK@NJPPHDJP@?$AAn?$AAe?$AAw?$AA_?$AAs?$AAt?$AAa?$AAt?$AAe?$AA?5?$AA?$CB?$AA?$DN?$AA?5?$AAn?$AAu?$AAl?$AAl?$AAp?$AAt?$AAr?$AA?$AA@ 100d0054     libucrtd:debug_heap.obj
 0002:00007088       ??_C@_1CC@DIJAHFFJ@?$AAp?$AAr?$AAi?$AAn?$AAt?$AA_?$AAb?$AAl?$AAo?$AAc?$AAk?$AA_?$AAd?$AAa?$AAt?$AAa?$AA?$AA@ 100d0088     libucrtd:debug_heap.obj
 0002:000070b0       ??_C@_0BA@HJBKCELP@?5Data?3?5?$DM?$CFs?$DO?5?$CFs?6?$AA@ 100d00b0     libucrtd:debug_heap.obj
 0002:000070c4       ??_C@_0BE@KCIPKCIA@Dumping?5objects?5?9?$DO?6?$AA@ 100d00c4     libucrtd:debug_heap.obj
 0002:000070dc       ??_C@_0BE@OIEFNFL@?$CDFile?5Error?$CD?$CI?$CFd?$CJ?5?3?5?$AA@ 100d00dc     libucrtd:debug_heap.obj
 0002:000070f4       ??_C@_0L@JMEFFCCJ@?$CFhs?$CI?$CFd?$CJ?5?3?5?$AA@ 100d00f4     libucrtd:debug_heap.obj
 0002:00007104       ??_C@_06PKLGBFGM@?$HL?$CFld?$HN?5?$AA@ 100d0104     libucrtd:debug_heap.obj
 0002:0000710c       ??_C@_0DD@GHNAAKBB@client?5block?5at?50x?$CFp?0?5subtype?5?$CFx@ 100d010c     libucrtd:debug_heap.obj
 0002:0000714c       ??_C@_0CH@FAGDDGPN@normal?5block?5at?50x?$CFp?0?5?$CFIu?5bytes?5@ 100d014c     libucrtd:debug_heap.obj
 0002:0000717c       ??_C@_0DA@MDLBNIBM@crt?5block?5at?50x?$CFp?0?5subtype?5?$CFx?0?5?$CF@ 100d017c     libucrtd:debug_heap.obj
 0002:000071b8       ??_C@_0BH@GFGKJDCO@Object?5dump?5complete?4?6?$AA@ 100d01b8     libucrtd:debug_heap.obj
 0002:000071d4       ??_C@_0BI@JBFPOEJA@Detected?5memory?5leaks?$CB?6?$AA@ 100d01d4     libucrtd:debug_heap.obj
 0002:000071f0       ??_C@_1CM@MPNIBKGK@?$AA_?$AAC?$AAr?$AAt?$AAM?$AAe?$AAm?$AAD?$AAu?$AAm?$AAp?$AAS?$AAt?$AAa?$AAt?$AAi?$AAs?$AAt?$AAi?$AAc?$AAs?$AA?$AA@ 100d01f0     libucrtd:debug_heap.obj
 0002:00007224       ??_C@_0BO@DACNIABB@?$CFId?5bytes?5in?5?$CFId?5?$CFhs?5Blocks?4?6?$AA@ 100d0224     libucrtd:debug_heap.obj
 0002:00007248       ??_C@_0CB@BLHDAFNE@Largest?5number?5used?3?5?$CFId?5bytes?4?6@ 100d0248     libucrtd:debug_heap.obj
 0002:00007270       ??_C@_0BP@DEDHGGGI@Total?5allocations?3?5?$CFId?5bytes?4?6?$AA@ 100d0270     libucrtd:debug_heap.obj
 0002:00007298       ??_C@_1CM@JKMDHENJ@?$AAI?$AAS?$AA_?$AA2?$AA_?$AAP?$AAO?$AAW?$AA_?$AAN?$AA?$CI?$AAa?$AAl?$AAi?$AAg?$AAn?$AAm?$AAe?$AAn?$AAt?$AA?$CJ?$AA?$AA@ 100d0298     libucrtd:debug_heap.obj
 0002:000072cc       ??_C@_1DG@DONCJBBJ@?$AA_?$AAa?$AAl?$AAi?$AAg?$AAn?$AAe?$AAd?$AA_?$AAo?$AAf?$AAf?$AAs?$AAe?$AAt?$AA_?$AAm?$AAa?$AAl?$AAl?$AAo?$AAc?$AA_?$AAd?$AAb?$AAg?$AA?$AA@ 100d02cc     libucrtd:debug_heap.obj
 0002:0000730c       ??_C@_1DK@LFLKFPDA@?$AAo?$AAf?$AAf?$AAs?$AAe?$AAt?$AA?5?$AA?$DN?$AA?$DN?$AA?5?$AA0?$AA?5?$AA?$HM?$AA?$HM?$AA?5?$AAo?$AAf?$AAf?$AAs?$AAe?$AAt?$AA?5?$AA?$DM?$AA?5?$AAs?$AAi?$AAz?$AAe?$AA?$AA@ 100d030c     libucrtd:debug_heap.obj
 0002:00007358       ??_C@_0EI@NDNJMAJK@The?5block?5at?50x?$CFp?5was?5not?5alloca@ 100d0358     libucrtd:debug_heap.obj
 0002:000073b0       ??_C@_0DL@PGHMMKNE@Damage?5before?50x?$CFp?5which?5was?5all@ 100d03b0     libucrtd:debug_heap.obj
 0002:000073f8       ??_C@_1DI@NINIKFFK@?$AA_?$AAa?$AAl?$AAi?$AAg?$AAn?$AAe?$AAd?$AA_?$AAo?$AAf?$AAf?$AAs?$AAe?$AAt?$AA_?$AAr?$AAe?$AAa?$AAl?$AAl?$AAo?$AAc?$AA_?$AAd?$AAb?$AAg?$AA?$AA@ 100d03f8     libucrtd:debug_heap.obj
 0002:0000743c       ??_C@_1CG@CEGMHIMN@?$AA_?$AAa?$AAl?$AAi?$AAg?$AAn?$AAe?$AAd?$AA_?$AAm?$AAs?$AAi?$AAz?$AAe?$AA_?$AAd?$AAb?$AAg?$AA?$AA@ 100d043c     libucrtd:debug_heap.obj
 0002:00007470       ??_C@_0EF@PGELACII@The?5block?5at?50x?$CFp?5was?5not?5alloca@ 100d0470     libucrtd:debug_heap.obj
 0002:000074c8       ___acrt_exception_action_table 100d04c8     libucrtd:exception_filter.obj
 0002:00007574       ___acrt_signal_action_table_count 100d0574     libucrtd:exception_filter.obj
 0002:00007578       ___acrt_signal_action_table_size 100d0578     libucrtd:exception_filter.obj
 0002:0000757c       ___acrt_signal_action_first_fpe_index 100d057c     libucrtd:exception_filter.obj
 0002:00007580       ___acrt_signal_action_fpe_count 100d0580     libucrtd:exception_filter.obj
 0002:00007584       _RtlNtPathSeperatorString  100d0584     libucrtd:exit.obj
 0002:00007590       ??_C@_13FPGAJAPJ@?$AA?2?$AA?$AA@ 100d0590     libucrtd:exit.obj
 0002:00007594       _RtlDosPathSeperatorsString 100d0594     libucrtd:exit.obj
 0002:000075a0       ??_C@_15MNCACJLI@?$AA?2?$AA?1?$AA?$AA@ 100d05a0     libucrtd:exit.obj
 0002:000075a8       _RtlAlternateDosPathSeperatorString 100d05a8     libucrtd:exit.obj
 0002:000075b4       ??_C@_13CGOKJPIL@?$AA?1?$AA?$AA@ 100d05b4     libucrtd:exit.obj
 0002:000075b8       ??_C@_1BI@BGOHAHKC@?$AAm?$AAs?$AAc?$AAo?$AAr?$AAe?$AAe?$AA?4?$AAd?$AAl?$AAl?$AA?$AA@ 100d05b8     libucrtd:exit.obj
 0002:000075d4       ??_C@_0P@MIGLKIOC@CorExitProcess?$AA@ 100d05d4     libucrtd:exit.obj
 0002:000075e8       ??_C@_0DI@KNDIGDEP@minkernel?2crts?2ucrt?2src?2appcrt?2s@ 100d05e8     libucrtd:argv_parsing.obj
 0002:00007630       ??_C@_1JO@PGBIJBAM@?$AAm?$AAo?$AAd?$AAe?$AA?5?$AA?$DN?$AA?$DN?$AA?5?$AA_?$AAc?$AAr?$AAt?$AA_?$AAa?$AAr?$AAg?$AAv?$AA_?$AAe?$AAx?$AAp?$AAa?$AAn?$AAd?$AAe?$AAd?$AA_?$AAa?$AAr?$AAg?$AAu?$AAm@ 100d0630     libucrtd:argv_parsing.obj
 0002:000076f0       ??_C@_1HA@JMLCANEE@?$AAm?$AAi?$AAn?$AAk?$AAe?$AAr?$AAn?$AAe?$AAl?$AA?2?$AAc?$AAr?$AAt?$AAs?$AA?2?$AAu?$AAc?$AAr?$AAt?$AA?2?$AAs?$AAr?$AAc?$AA?2?$AAa?$AAp?$AAp?$AAc?$AAr?$AAt?$AA?2?$AAs@ 100d06f0     libucrtd:argv_parsing.obj
 0002:00007778       ??_C@_1CM@LHOJELIC@?$AAc?$AAo?$AAm?$AAm?$AAo?$AAn?$AA_?$AAc?$AAo?$AAn?$AAf?$AAi?$AAg?$AAu?$AAr?$AAe?$AA_?$AAa?$AAr?$AAg?$AAv?$AA?$AA@ 100d0778     libucrtd:argv_parsing.obj
 0002:000077b0       ??_C@_0EG@LEHKHOEH@minkernel?2crts?2ucrt?2src?2desktopc@ 100d07b0     libucrtd:environment_initialization.obj
 0002:00007808       ??_C@_1IM@IMOFFPLG@?$AAm?$AAi?$AAn?$AAk?$AAe?$AAr?$AAn?$AAe?$AAl?$AA?2?$AAc?$AAr?$AAt?$AAs?$AA?2?$AAu?$AAc?$AAr?$AAt?$AA?2?$AAs?$AAr?$AAc?$AA?2?$AAd?$AAe?$AAs?$AAk?$AAt?$AAo?$AAp?$AAc@ 100d0808     libucrtd:environment_initialization.obj
 0002:000078b0       ??_C@_1CG@MNNNBNAK@?$AAc?$AAr?$AAe?$AAa?$AAt?$AAe?$AA_?$AAe?$AAn?$AAv?$AAi?$AAr?$AAo?$AAn?$AAm?$AAe?$AAn?$AAt?$AA?$AA@ 100d08b0     libucrtd:environment_initialization.obj
 0002:000078e0       ??_C@_1HI@OOPIFFGA@?$AAt?$AAr?$AAa?$AAi?$AAt?$AAs?$AA?3?$AA?3?$AAt?$AAc?$AAs?$AAc?$AAp?$AAy?$AA_?$AAs?$AA?$CI?$AAv?$AAa?$AAr?$AAi?$AAa?$AAb?$AAl?$AAe?$AA?4?$AAg?$AAe?$AAt?$AA?$CI?$AA?$CJ?$AA?0@ 100d08e0     libucrtd:environment_initialization.obj
 0002:00007970       ??_C@_0DC@NBHMIIKL@minkernel?2crts?2ucrt?2src?2appcrt?2s@ 100d0970     libucrtd:onexit.obj
 0002:00007a40       _standard_lookup_table     100d0a40     libucrtd:output.obj
 0002:00007ab0       _format_validation_lookup_table 100d0ab0     libucrtd:output.obj
 0002:00007b20       ??_C@_1BDG@MKBKGHOH@?$AA?$CI?$AA?5?$AA?$CI?$AA_?$AAS?$AAt?$AAr?$AAe?$AAa?$AAm?$AA?4?$AAi?$AAs?$AA_?$AAs?$AAt?$AAr?$AAi?$AAn?$AAg?$AA_?$AAb?$AAa?$AAc?$AAk?$AAe?$AAd?$AA?$CI?$AA?$CJ?$AA?$CJ?$AA?5?$AA?$HM@ 100d0b20     libucrtd:output.obj
 0002:00007c98       ??_C@_1GC@LCDLABEA@?$AAm?$AAi?$AAn?$AAk?$AAe?$AAr?$AAn?$AAe?$AAl?$AA?2?$AAc?$AAr?$AAt?$AAs?$AA?2?$AAu?$AAc?$AAr?$AAt?$AA?2?$AAi?$AAn?$AAc?$AA?2?$AAc?$AAo?$AAr?$AAe?$AAc?$AAr?$AAt?$AA_@ 100d0c98     libucrtd:output.obj
 0002:00007d10       ??_C@_1II@DIIMCJOK@?$AA_?$AA_?$AAa?$AAc?$AAr?$AAt?$AA_?$AAs?$AAt?$AAd?$AAi?$AAo?$AA_?$AAc?$AAh?$AAa?$AAr?$AA_?$AAt?$AAr?$AAa?$AAi?$AAt?$AAs?$AA?$DM?$AAc?$AAh?$AAa?$AAr?$AA?$DO?$AA?3?$AA?3@ 100d0d10     libucrtd:output.obj
 0002:00007db4       ??_C@_1CE@JLIJLEKO@?$AAs?$AAt?$AAr?$AAe?$AAa?$AAm?$AA?5?$AA?$CB?$AA?$DN?$AA?5?$AAn?$AAu?$AAl?$AAl?$AAp?$AAt?$AAr?$AA?$AA@ 100d0db4     libucrtd:output.obj
 0002:00007de0       ??_C@_1GA@MOBAPGIO@?$AAm?$AAi?$AAn?$AAk?$AAe?$AAr?$AAn?$AAe?$AAl?$AA?2?$AAc?$AAr?$AAt?$AAs?$AA?2?$AAu?$AAc?$AAr?$AAt?$AA?2?$AAs?$AAr?$AAc?$AA?2?$AAa?$AAp?$AAp?$AAc?$AAr?$AAt?$AA?2?$AAs@ 100d0de0     libucrtd:output.obj
 0002:00007e54       ??_C@_1CA@GELIJBMC@?$AAc?$AAo?$AAm?$AAm?$AAo?$AAn?$AA_?$AAv?$AAf?$AAp?$AAr?$AAi?$AAn?$AAt?$AAf?$AA?$AA@ 100d0e54     libucrtd:output.obj
 0002:00007e7c       ??_C@_1CE@EAKLPBKK@?$AAf?$AAo?$AAr?$AAm?$AAa?$AAt?$AA?5?$AA?$CB?$AA?$DN?$AA?5?$AAn?$AAu?$AAl?$AAl?$AAp?$AAt?$AAr?$AA?$AA@ 100d0e7c     libucrtd:output.obj
 0002:00007ea8       ??_C@_1CA@PIMGHCEK@?$AAc?$AAo?$AAm?$AAm?$AAo?$AAn?$AA_?$AAv?$AAs?$AAp?$AAr?$AAi?$AAn?$AAt?$AAf?$AA?$AA@ 100d0ea8     libucrtd:output.obj
 0002:00007ed0       ??_C@_1EO@EGEEFEFM@?$AAb?$AAu?$AAf?$AAf?$AAe?$AAr?$AA_?$AAc?$AAo?$AAu?$AAn?$AAt?$AA?5?$AA?$DN?$AA?$DN?$AA?5?$AA0?$AA?5?$AA?$HM?$AA?$HM?$AA?5?$AAb?$AAu?$AAf?$AAf?$AAe?$AAr?$AA?5?$AA?$CB?$AA?$DN?$AA?5?$AAn@ 100d0ed0     libucrtd:output.obj
 0002:00007f30       ??_C@_1CE@JEILLNB@?$AAc?$AAo?$AAm?$AAm?$AAo?$AAn?$AA_?$AAv?$AAs?$AAp?$AAr?$AAi?$AAn?$AAt?$AAf?$AA_?$AAs?$AA?$AA@ 100d0f30     libucrtd:output.obj
 0002:00007f60       ??_C@_1EM@OAFHAOLH@?$AAb?$AAu?$AAf?$AAf?$AAe?$AAr?$AA?5?$AA?$CB?$AA?$DN?$AA?5?$AAn?$AAu?$AAl?$AAl?$AAp?$AAt?$AAr?$AA?5?$AA?$CG?$AA?$CG?$AA?5?$AAb?$AAu?$AAf?$AAf?$AAe?$AAr?$AA_?$AAc?$AAo?$AAu?$AAn@ 100d0f60     libucrtd:output.obj
 0002:00007fbc       ??_C@_1DA@HPBFKMEB@?$AA?$CI?$AA?$CC?$AAB?$AAu?$AAf?$AAf?$AAe?$AAr?$AA?5?$AAt?$AAo?$AAo?$AA?5?$AAs?$AAm?$AAa?$AAl?$AAl?$AA?$CC?$AA?0?$AA?5?$AA0?$AA?$CJ?$AA?$AA@ 100d0fbc     libucrtd:output.obj
 0002:00007ff8       ??_C@_1CG@LHFJHFBB@?$AAc?$AAo?$AAm?$AAm?$AAo?$AAn?$AA_?$AAv?$AAs?$AAn?$AAp?$AAr?$AAi?$AAn?$AAt?$AAf?$AA_?$AAs?$AA?$AA@ 100d0ff8     libucrtd:output.obj
 0002:00008028       ??_C@_1CM@JOIJBMEM@?$AA_?$AAf?$AAo?$AAr?$AAm?$AAa?$AAt?$AA_?$AAi?$AAt?$AA?5?$AA?$CB?$AA?$DN?$AA?5?$AAn?$AAu?$AAl?$AAl?$AAp?$AAt?$AAr?$AA?$AA@ 100d1028     libucrtd:output.obj
 0002:00008060       ??_C@_1HA@DMAAKIJP@?$AAm?$AAi?$AAn?$AAk?$AAe?$AAr?$AAn?$AAe?$AAl?$AA?2?$AAc?$AAr?$AAt?$AAs?$AA?2?$AAu?$AAc?$AAr?$AAt?$AA?2?$AAi?$AAn?$AAc?$AA?2?$AAc?$AAo?$AAr?$AAe?$AAc?$AAr?$AAt?$AA_@ 100d1060     libucrtd:output.obj
 0002:000080e8       ??_C@_1BKA@IIAAOGBO@?$AA_?$AA_?$AAc?$AAr?$AAt?$AA_?$AAs?$AAt?$AAd?$AAi?$AAo?$AA_?$AAo?$AAu?$AAt?$AAp?$AAu?$AAt?$AA?3?$AA?3?$AAo?$AAu?$AAt?$AAp?$AAu?$AAt?$AA_?$AAp?$AAr?$AAo?$AAc?$AAe@ 100d10e8     libucrtd:output.obj
 0002:000082e0       ??_C@_1EE@DMAIGNBG@?$AA?$CI?$AA?$CC?$AAI?$AAn?$AAc?$AAo?$AAr?$AAr?$AAe?$AAc?$AAt?$AA?5?$AAf?$AAo?$AAr?$AAm?$AAa?$AAt?$AA?5?$AAs?$AAp?$AAe?$AAc?$AAi?$AAf?$AAi?$AAe?$AAr?$AA?$CC?$AA?0?$AA?5?$AA0@ 100d12e0     libucrtd:output.obj
 0002:00008338       ??_C@_1BLI@EEAAPJD@?$AA_?$AA_?$AAc?$AAr?$AAt?$AA_?$AAs?$AAt?$AAd?$AAi?$AAo?$AA_?$AAo?$AAu?$AAt?$AAp?$AAu?$AAt?$AA?3?$AA?3?$AAo?$AAu?$AAt?$AAp?$AAu?$AAt?$AA_?$AAp?$AAr?$AAo?$AAc?$AAe@ 100d1338     libucrtd:output.obj
 0002:00008548       ??_C@_1BLC@PMCLHHAE@?$AA_?$AA_?$AAc?$AAr?$AAt?$AA_?$AAs?$AAt?$AAd?$AAi?$AAo?$AA_?$AAo?$AAu?$AAt?$AAp?$AAu?$AAt?$AA?3?$AA?3?$AAo?$AAu?$AAt?$AAp?$AAu?$AAt?$AA_?$AAp?$AAr?$AAo?$AAc?$AAe@ 100d1548     libucrtd:output.obj
 0002:00008750       ??_C@_1BMK@CPBKHDIH@?$AA_?$AA_?$AAc?$AAr?$AAt?$AA_?$AAs?$AAt?$AAd?$AAi?$AAo?$AA_?$AAo?$AAu?$AAt?$AAp?$AAu?$AAt?$AA?3?$AA?3?$AAo?$AAu?$AAt?$AAp?$AAu?$AAt?$AA_?$AAp?$AAr?$AAo?$AAc?$AAe@ 100d1750     libucrtd:output.obj
 0002:00008978       ??_C@_1BLI@FOCNEPKJ@?$AA_?$AA_?$AAc?$AAr?$AAt?$AA_?$AAs?$AAt?$AAd?$AAi?$AAo?$AA_?$AAo?$AAu?$AAt?$AAp?$AAu?$AAt?$AA?3?$AA?3?$AAo?$AAu?$AAt?$AAp?$AAu?$AAt?$AA_?$AAp?$AAr?$AAo?$AAc?$AAe@ 100d1978     libucrtd:output.obj
 0002:00008b88       ??_C@_1BNA@HGLCOOBP@?$AA_?$AA_?$AAc?$AAr?$AAt?$AA_?$AAs?$AAt?$AAd?$AAi?$AAo?$AA_?$AAo?$AAu?$AAt?$AAp?$AAu?$AAt?$AA?3?$AA?3?$AAo?$AAu?$AAt?$AAp?$AAu?$AAt?$AA_?$AAp?$AAr?$AAo?$AAc?$AAe@ 100d1b88     libucrtd:output.obj
 0002:00008db8       ??_C@_1BKA@DNADAJMC@?$AA_?$AA_?$AAc?$AAr?$AAt?$AA_?$AAs?$AAt?$AAd?$AAi?$AAo?$AA_?$AAo?$AAu?$AAt?$AAp?$AAu?$AAt?$AA?3?$AA?3?$AAo?$AAu?$AAt?$AAp?$AAu?$AAt?$AA_?$AAp?$AAr?$AAo?$AAc?$AAe@ 100d1db8     libucrtd:output.obj
 0002:00008fb0       ??_C@_1BLI@IKDKMDHI@?$AA_?$AA_?$AAc?$AAr?$AAt?$AA_?$AAs?$AAt?$AAd?$AAi?$AAo?$AA_?$AAo?$AAu?$AAt?$AAp?$AAu?$AAt?$AA?3?$AA?3?$AAo?$AAu?$AAt?$AAp?$AAu?$AAt?$AA_?$AAp?$AAr?$AAo?$AAc?$AAe@ 100d1fb0     libucrtd:output.obj
 0002:000091c0       ??_C@_1BLI@EGFICANE@?$AA_?$AA_?$AAc?$AAr?$AAt?$AA_?$AAs?$AAt?$AAd?$AAi?$AAo?$AA_?$AAo?$AAu?$AAt?$AAp?$AAu?$AAt?$AA?3?$AA?3?$AAo?$AAu?$AAt?$AAp?$AAu?$AAt?$AA_?$AAp?$AAr?$AAo?$AAc?$AAe@ 100d21c0     libucrtd:output.obj
 0002:000093d0       ??_C@_1BNA@OIIAGHJI@?$AA_?$AA_?$AAc?$AAr?$AAt?$AA_?$AAs?$AAt?$AAd?$AAi?$AAo?$AA_?$AAo?$AAu?$AAt?$AAp?$AAu?$AAt?$AA?3?$AA?3?$AAo?$AAu?$AAt?$AAp?$AAu?$AAt?$AA_?$AAp?$AAr?$AAo?$AAc?$AAe@ 100d23d0     libucrtd:output.obj
 0002:000095fc       ??_C@_1CA@ONEGMNAN@?$AA_?$AAs?$AAt?$AAr?$AAe?$AAa?$AAm?$AA?4?$AAv?$AAa?$AAl?$AAi?$AAd?$AA?$CI?$AA?$CJ?$AA?$AA@ 100d25fc     libucrtd:output.obj
 0002:00009628       ??_C@_1HE@FGKHNBNL@?$AA_?$AA_?$AAc?$AAr?$AAt?$AA_?$AAs?$AAt?$AAd?$AAi?$AAo?$AA_?$AAo?$AAu?$AAt?$AAp?$AAu?$AAt?$AA?3?$AA?3?$AAs?$AAt?$AAr?$AAe?$AAa?$AAm?$AA_?$AAo?$AAu?$AAt?$AAp?$AAu@ 100d2628     libucrtd:output.obj
 0002:000096b4       ??_C@_1DG@CEJKFDMO@?$AAs?$AAt?$AAa?$AAt?$AAe?$AA_?$AAc?$AAa?$AAs?$AAe?$AA_?$AAn?$AAo?$AAr?$AAm?$AAa?$AAl?$AA_?$AAc?$AAo?$AAm?$AAm?$AAo?$AAn?$AA?$CI?$AA?$CJ?$AA?$AA@ 100d26b4     libucrtd:output.obj
 0002:000096f8       ??_C@_1BLE@PAACOKDK@?$AA_?$AA_?$AAc?$AAr?$AAt?$AA_?$AAs?$AAt?$AAd?$AAi?$AAo?$AA_?$AAo?$AAu?$AAt?$AAp?$AAu?$AAt?$AA?3?$AA?3?$AAo?$AAu?$AAt?$AAp?$AAu?$AAt?$AA_?$AAp?$AAr?$AAo?$AAc?$AAe@ 100d26f8     libucrtd:output.obj
 0002:00009908       ??_C@_1FG@OBJBDPAC@?$AA?$CI?$AA?$CC?$AAN?$AA?5?$AAl?$AAe?$AAn?$AAg?$AAt?$AAh?$AA?5?$AAm?$AAo?$AAd?$AAi?$AAf?$AAi?$AAe?$AAr?$AA?5?$AAn?$AAo?$AAt?$AA?5?$AAs?$AAp?$AAe?$AAc?$AAi?$AAf?$AAi?$AAe@ 100d2908     libucrtd:output.obj
 0002:00009970       ??_C@_1BLA@GJNGKGIK@?$AA_?$AA_?$AAc?$AAr?$AAt?$AA_?$AAs?$AAt?$AAd?$AAi?$AAo?$AA_?$AAo?$AAu?$AAt?$AAp?$AAu?$AAt?$AA?3?$AA?3?$AAo?$AAu?$AAt?$AAp?$AAu?$AAt?$AA_?$AAp?$AAr?$AAo?$AAc?$AAe@ 100d2970     libucrtd:output.obj
 0002:00009b78       ??_C@_1EC@GJPNJDCN@?$AA_?$AAl?$AAe?$AAn?$AAg?$AAt?$AAh?$AA?5?$AA?$DN?$AA?$DN?$AA?5?$AAl?$AAe?$AAn?$AAg?$AAt?$AAh?$AA_?$AAm?$AAo?$AAd?$AAi?$AAf?$AAi?$AAe?$AAr?$AA?3?$AA?3?$AAn?$AAo?$AAn?$AAe@ 100d2b78     libucrtd:output.obj
 0002:00009bc8       ??_C@_1HK@MPBCDOK@?$AA_?$AA_?$AAc?$AAr?$AAt?$AA_?$AAs?$AAt?$AAd?$AAi?$AAo?$AA_?$AAo?$AAu?$AAt?$AAp?$AAu?$AAt?$AA?3?$AA?3?$AAs?$AAt?$AAr?$AAe?$AAa?$AAm?$AA_?$AAo?$AAu?$AAt?$AAp?$AAu@ 100d2bc8     libucrtd:output.obj
 0002:00009c60       ??_C@_1BMM@JHGFKAND@?$AA_?$AA_?$AAc?$AAr?$AAt?$AA_?$AAs?$AAt?$AAd?$AAi?$AAo?$AA_?$AAo?$AAu?$AAt?$AAp?$AAu?$AAt?$AA?3?$AA?3?$AAo?$AAu?$AAt?$AAp?$AAu?$AAt?$AA_?$AAp?$AAr?$AAo?$AAc?$AAe@ 100d2c60     libucrtd:output.obj
 0002:00009e88       ??_C@_1BMI@DNMDMAAN@?$AA_?$AA_?$AAc?$AAr?$AAt?$AA_?$AAs?$AAt?$AAd?$AAi?$AAo?$AA_?$AAo?$AAu?$AAt?$AAp?$AAu?$AAt?$AA?3?$AA?3?$AAo?$AAu?$AAt?$AAp?$AAu?$AAt?$AA_?$AAp?$AAr?$AAo?$AAc?$AAe@ 100d2e88     libucrtd:output.obj
 0002:0000a0b0       ??_C@_1BMG@KOENKAMB@?$AA_?$AA_?$AAc?$AAr?$AAt?$AA_?$AAs?$AAt?$AAd?$AAi?$AAo?$AA_?$AAo?$AAu?$AAt?$AAp?$AAu?$AAt?$AA?3?$AA?3?$AAo?$AAu?$AAt?$AAp?$AAu?$AAt?$AA_?$AAp?$AAr?$AAo?$AAc?$AAe@ 100d30b0     libucrtd:output.obj
 0002:0000a2d0       ??_C@_1BMC@DAENMDAD@?$AA_?$AA_?$AAc?$AAr?$AAt?$AA_?$AAs?$AAt?$AAd?$AAi?$AAo?$AA_?$AAo?$AAu?$AAt?$AAp?$AAu?$AAt?$AA?3?$AA?3?$AAo?$AAu?$AAt?$AAp?$AAu?$AAt?$AA_?$AAp?$AAr?$AAo?$AAc?$AAe@ 100d32d0     libucrtd:output.obj
 0002:0000a4f0       ??_C@_1GC@BNMHNGKM@?$AA_?$AAs?$AAt?$AAa?$AAt?$AAe?$AA?5?$AA?$DN?$AA?$DN?$AA?5?$AAs?$AAt?$AAa?$AAt?$AAe?$AA?3?$AA?3?$AAn?$AAo?$AAr?$AAm?$AAa?$AAl?$AA?5?$AA?$HM?$AA?$HM?$AA?5?$AA_?$AAs?$AAt?$AAa?$AAt@ 100d34f0     libucrtd:output.obj
 0002:0000a568       ??_C@_1BDG@PLANJEFE@?$AA_?$AA_?$AAc?$AAr?$AAt?$AA_?$AAs?$AAt?$AAd?$AAi?$AAo?$AA_?$AAo?$AAu?$AAt?$AAp?$AAu?$AAt?$AA?3?$AA?3?$AAf?$AAo?$AAr?$AAm?$AAa?$AAt?$AA_?$AAv?$AAa?$AAl?$AAi?$AAd@ 100d3568     libucrtd:output.obj
 0002:0000a6e0       ??_C@_1BNO@LMMLJOOJ@?$AA_?$AA_?$AAc?$AAr?$AAt?$AA_?$AAs?$AAt?$AAd?$AAi?$AAo?$AA_?$AAo?$AAu?$AAt?$AAp?$AAu?$AAt?$AA?3?$AA?3?$AAo?$AAu?$AAt?$AAp?$AAu?$AAt?$AA_?$AAp?$AAr?$AAo?$AAc?$AAe@ 100d36e0     libucrtd:output.obj
 0002:0000a920       ??_C@_1BNK@ONPHCEAM@?$AA_?$AA_?$AAc?$AAr?$AAt?$AA_?$AAs?$AAt?$AAd?$AAi?$AAo?$AA_?$AAo?$AAu?$AAt?$AAp?$AAu?$AAt?$AA?3?$AA?3?$AAo?$AAu?$AAt?$AAp?$AAu?$AAt?$AA_?$AAp?$AAr?$AAo?$AAc?$AAe@ 100d3920     libucrtd:output.obj
 0002:0000ab58       ??_C@_1BEC@FNIGNBHI@?$AA_?$AA_?$AAc?$AAr?$AAt?$AA_?$AAs?$AAt?$AAd?$AAi?$AAo?$AA_?$AAo?$AAu?$AAt?$AAp?$AAu?$AAt?$AA?3?$AA?3?$AAf?$AAo?$AAr?$AAm?$AAa?$AAt?$AA_?$AAv?$AAa?$AAl?$AAi?$AAd@ 100d3b58     libucrtd:output.obj
 0002:0000ace0       ??_C@_1BMM@BLBJDDIA@?$AA_?$AA_?$AAc?$AAr?$AAt?$AA_?$AAs?$AAt?$AAd?$AAi?$AAo?$AA_?$AAo?$AAu?$AAt?$AAp?$AAu?$AAt?$AA?3?$AA?3?$AAo?$AAu?$AAt?$AAp?$AAu?$AAt?$AA_?$AAp?$AAr?$AAo?$AAc?$AAe@ 100d3ce0     libucrtd:output.obj
 0002:0000af08       ??_C@_1BMI@PKGBOKJK@?$AA_?$AA_?$AAc?$AAr?$AAt?$AA_?$AAs?$AAt?$AAd?$AAi?$AAo?$AA_?$AAo?$AAu?$AAt?$AAp?$AAu?$AAt?$AA?3?$AA?3?$AAo?$AAu?$AAt?$AAp?$AAu?$AAt?$AA_?$AAp?$AAr?$AAo?$AAc?$AAe@ 100d3f08     libucrtd:output.obj
 0002:0000b130       ??_C@_1FK@BCPANIEK@?$AA?$CI?$AA?$CC?$AAM?$AAi?$AAs?$AAs?$AAi?$AAn?$AAg?$AA?5?$AAp?$AAo?$AAs?$AAi?$AAt?$AAi?$AAo?$AAn?$AA?5?$AAi?$AAn?$AA?5?$AAt?$AAh?$AAe?$AA?5?$AAf?$AAo?$AAr?$AAm?$AAa?$AAt@ 100d4130     libucrtd:output.obj
 0002:0000b1a0       ??_C@_1BDM@FDOLKCHK@?$AA_?$AA_?$AAc?$AAr?$AAt?$AA_?$AAs?$AAt?$AAd?$AAi?$AAo?$AA_?$AAo?$AAu?$AAt?$AAp?$AAu?$AAt?$AA?3?$AA?3?$AAp?$AAo?$AAs?$AAi?$AAt?$AAi?$AAo?$AAn?$AAa?$AAl?$AA_?$AAp@ 100d41a0     libucrtd:output.obj
 0002:0000b320       ??_C@_1IC@NLEOMCDL@?$AA_?$AAt?$AAy?$AAp?$AAe?$AA_?$AAi?$AAn?$AAd?$AAe?$AAx?$AA?5?$AA?$DO?$AA?$DN?$AA?5?$AA0?$AA?5?$AA?$CG?$AA?$CG?$AA?5?$AA?$CK?$AAe?$AAn?$AAd?$AA_?$AAp?$AAo?$AAi?$AAn?$AAt?$AAe?$AAr@ 100d4320     libucrtd:output.obj
 0002:0000b3c0       ??_C@_1BEO@JEHLMMKB@?$AA_?$AA_?$AAc?$AAr?$AAt?$AA_?$AAs?$AAt?$AAd?$AAi?$AAo?$AA_?$AAo?$AAu?$AAt?$AAp?$AAu?$AAt?$AA?3?$AA?3?$AAp?$AAo?$AAs?$AAi?$AAt?$AAi?$AAo?$AAn?$AAa?$AAl?$AA_?$AAp@ 100d43c0     libucrtd:output.obj
 0002:0000b550       ??_C@_1BOE@NLICFINO@?$AA_?$AA_?$AAc?$AAr?$AAt?$AA_?$AAs?$AAt?$AAd?$AAi?$AAo?$AA_?$AAo?$AAu?$AAt?$AAp?$AAu?$AAt?$AA?3?$AA?3?$AAo?$AAu?$AAt?$AAp?$AAu?$AAt?$AA_?$AAp?$AAr?$AAo?$AAc?$AAe@ 100d4550     libucrtd:output.obj
 0002:0000b798       ??_C@_1BOA@CBIEMBEE@?$AA_?$AA_?$AAc?$AAr?$AAt?$AA_?$AAs?$AAt?$AAd?$AAi?$AAo?$AA_?$AAo?$AAu?$AAt?$AAp?$AAu?$AAt?$AA?3?$AA?3?$AAo?$AAu?$AAt?$AAp?$AAu?$AAt?$AA_?$AAp?$AAr?$AAo?$AAc?$AAe@ 100d4798     libucrtd:output.obj
 0002:0000b9d8       ??_C@_1BEI@JNJAFAD@?$AA_?$AA_?$AAc?$AAr?$AAt?$AA_?$AAs?$AAt?$AAd?$AAi?$AAo?$AA_?$AAo?$AAu?$AAt?$AAp?$AAu?$AAt?$AA?3?$AA?3?$AAp?$AAo?$AAs?$AAi?$AAt?$AAi?$AAo?$AAn?$AAa?$AAl?$AA_?$AAp@ 100d49d8     libucrtd:output.obj
 0002:0000bb68       ??_C@_1BFK@IOIDDMPJ@?$AA_?$AA_?$AAc?$AAr?$AAt?$AA_?$AAs?$AAt?$AAd?$AAi?$AAo?$AA_?$AAo?$AAu?$AAt?$AAp?$AAu?$AAt?$AA?3?$AA?3?$AAp?$AAo?$AAs?$AAi?$AAt?$AAi?$AAo?$AAn?$AAa?$AAl?$AA_?$AAp@ 100d4b68     libucrtd:output.obj
 0002:0000bd08       ??_C@_1CI@DDKMNCPP@?$AA_?$AAc?$AAo?$AAn?$AAt?$AAe?$AAx?$AAt?$AA?5?$AA?$CB?$AA?$DN?$AA?5?$AAn?$AAu?$AAl?$AAl?$AAp?$AAt?$AAr?$AA?$AA@ 100d4d08     libucrtd:output.obj
 0002:0000bd38       ??_C@_1HE@IACOMEJF@?$AA_?$AA_?$AAc?$AAr?$AAt?$AA_?$AAs?$AAt?$AAd?$AAi?$AAo?$AA_?$AAo?$AAu?$AAt?$AAp?$AAu?$AAt?$AA?3?$AA?3?$AAs?$AAt?$AAr?$AAi?$AAn?$AAg?$AA_?$AAo?$AAu?$AAt?$AAp?$AAu@ 100d4d38     libucrtd:output.obj
 0002:0000bdc8       ??_C@_1BLE@LCKPBJON@?$AA_?$AA_?$AAc?$AAr?$AAt?$AA_?$AAs?$AAt?$AAd?$AAi?$AAo?$AA_?$AAo?$AAu?$AAt?$AAp?$AAu?$AAt?$AA?3?$AA?3?$AAo?$AAu?$AAt?$AAp?$AAu?$AAt?$AA_?$AAp?$AAr?$AAo?$AAc?$AAe@ 100d4dc8     libucrtd:output.obj
 0002:0000bfd8       ??_C@_1BLA@MEDMHIOH@?$AA_?$AA_?$AAc?$AAr?$AAt?$AA_?$AAs?$AAt?$AAd?$AAi?$AAo?$AA_?$AAo?$AAu?$AAt?$AAp?$AAu?$AAt?$AA?3?$AA?3?$AAo?$AAu?$AAt?$AAp?$AAu?$AAt?$AA_?$AAp?$AAr?$AAo?$AAc?$AAe@ 100d4fd8     libucrtd:output.obj
 0002:0000c1e0       ??_C@_1HK@IIPGOADH@?$AA_?$AA_?$AAc?$AAr?$AAt?$AA_?$AAs?$AAt?$AAd?$AAi?$AAo?$AA_?$AAo?$AAu?$AAt?$AAp?$AAu?$AAt?$AA?3?$AA?3?$AAs?$AAt?$AAr?$AAi?$AAn?$AAg?$AA_?$AAo?$AAu?$AAt?$AAp?$AAu@ 100d51e0     libucrtd:output.obj
 0002:0000c278       ??_C@_1BMM@PGHHMNDM@?$AA_?$AA_?$AAc?$AAr?$AAt?$AA_?$AAs?$AAt?$AAd?$AAi?$AAo?$AA_?$AAo?$AAu?$AAt?$AAp?$AAu?$AAt?$AA?3?$AA?3?$AAo?$AAu?$AAt?$AAp?$AAu?$AAt?$AA_?$AAp?$AAr?$AAo?$AAc?$AAe@ 100d5278     libucrtd:output.obj
 0002:0000c4a0       ??_C@_1BMI@KBPJOJJI@?$AA_?$AA_?$AAc?$AAr?$AAt?$AA_?$AAs?$AAt?$AAd?$AAi?$AAo?$AA_?$AAo?$AAu?$AAt?$AAp?$AAu?$AAt?$AA?3?$AA?3?$AAo?$AAu?$AAt?$AAp?$AAu?$AAt?$AA_?$AAp?$AAr?$AAo?$AAc?$AAe@ 100d54a0     libucrtd:output.obj
 0002:0000c6c8       ??_C@_1BMM@JGEKEBKL@?$AA_?$AA_?$AAc?$AAr?$AAt?$AA_?$AAs?$AAt?$AAd?$AAi?$AAo?$AA_?$AAo?$AAu?$AAt?$AAp?$AAu?$AAt?$AA?3?$AA?3?$AAo?$AAu?$AAt?$AAp?$AAu?$AAt?$AA_?$AAp?$AAr?$AAo?$AAc?$AAe@ 100d56c8     libucrtd:output.obj
 0002:0000c8f0       ??_C@_1BMI@LKDDDFDL@?$AA_?$AA_?$AAc?$AAr?$AAt?$AA_?$AAs?$AAt?$AAd?$AAi?$AAo?$AA_?$AAo?$AAu?$AAt?$AAp?$AAu?$AAt?$AA?3?$AA?3?$AAo?$AAu?$AAt?$AAp?$AAu?$AAt?$AA_?$AAp?$AAr?$AAo?$AAc?$AAe@ 100d58f0     libucrtd:output.obj
 0002:0000cb18       ??_C@_1BDM@GFCGMNL@?$AA_?$AA_?$AAc?$AAr?$AAt?$AA_?$AAs?$AAt?$AAd?$AAi?$AAo?$AA_?$AAo?$AAu?$AAt?$AAp?$AAu?$AAt?$AA?3?$AA?3?$AAp?$AAo?$AAs?$AAi?$AAt?$AAi?$AAo?$AAn?$AAa?$AAl?$AA_?$AAp@ 100d5b18     libucrtd:output.obj
 0002:0000cc98       ??_C@_1BEO@ODGKIOAL@?$AA_?$AA_?$AAc?$AAr?$AAt?$AA_?$AAs?$AAt?$AAd?$AAi?$AAo?$AA_?$AAo?$AAu?$AAt?$AAp?$AAu?$AAt?$AA?3?$AA?3?$AAp?$AAo?$AAs?$AAi?$AAt?$AAi?$AAo?$AAn?$AAa?$AAl?$AA_?$AAp@ 100d5c98     libucrtd:output.obj
 0002:0000ce28       ??_C@_1BOE@IPKNNOEE@?$AA_?$AA_?$AAc?$AAr?$AAt?$AA_?$AAs?$AAt?$AAd?$AAi?$AAo?$AA_?$AAo?$AAu?$AAt?$AAp?$AAu?$AAt?$AA?3?$AA?3?$AAo?$AAu?$AAt?$AAp?$AAu?$AAt?$AA_?$AAp?$AAr?$AAo?$AAc?$AAe@ 100d5e28     libucrtd:output.obj
 0002:0000d070       ??_C@_1BOA@BMEGDMHF@?$AA_?$AA_?$AAc?$AAr?$AAt?$AA_?$AAs?$AAt?$AAd?$AAi?$AAo?$AA_?$AAo?$AAu?$AAt?$AAp?$AAu?$AAt?$AA?3?$AA?3?$AAo?$AAu?$AAt?$AAp?$AAu?$AAt?$AA_?$AAp?$AAr?$AAo?$AAc?$AAe@ 100d6070     libucrtd:output.obj
 0002:0000d2b0       ??_C@_1BEI@IHLBHMLJ@?$AA_?$AA_?$AAc?$AAr?$AAt?$AA_?$AAs?$AAt?$AAd?$AAi?$AAo?$AA_?$AAo?$AAu?$AAt?$AAp?$AAu?$AAt?$AA?3?$AA?3?$AAp?$AAo?$AAs?$AAi?$AAt?$AAi?$AAo?$AAn?$AAa?$AAl?$AA_?$AAp@ 100d62b0     libucrtd:output.obj
 0002:0000d440       ??_C@_1BFK@KNCMELHH@?$AA_?$AA_?$AAc?$AAr?$AAt?$AA_?$AAs?$AAt?$AAd?$AAi?$AAo?$AA_?$AAo?$AAu?$AAt?$AAp?$AAu?$AAt?$AA?3?$AA?3?$AAp?$AAo?$AAs?$AAi?$AAt?$AAi?$AAo?$AAn?$AAa?$AAl?$AA_?$AAp@ 100d6440     libucrtd:output.obj
 0002:0000d5e0       ??_C@_1EK@PNGFDECN@?$AA?$CI?$AA?$CC?$AA?8?$AAn?$AA?8?$AA?5?$AAf?$AAo?$AAr?$AAm?$AAa?$AAt?$AA?5?$AAs?$AAp?$AAe?$AAc?$AAi?$AAf?$AAi?$AAe?$AAr?$AA?5?$AAd?$AAi?$AAs?$AAa?$AAb?$AAl?$AAe?$AAd?$AA?$CC@ 100d65e0     libucrtd:output.obj
 0002:0000d638       ??_C@_1BKI@NDKBCDGP@?$AA_?$AA_?$AAc?$AAr?$AAt?$AA_?$AAs?$AAt?$AAd?$AAi?$AAo?$AA_?$AAo?$AAu?$AAt?$AAp?$AAu?$AAt?$AA?3?$AA?3?$AAo?$AAu?$AAt?$AAp?$AAu?$AAt?$AA_?$AAp?$AAr?$AAo?$AAc?$AAe@ 100d6638     libucrtd:output.obj
 0002:0000d838       ??_C@_1EO@GHKFGFKL@?$AA?$CI?$AA?$CC?$AAI?$AAn?$AAv?$AAa?$AAl?$AAi?$AAd?$AA?5?$AAi?$AAn?$AAt?$AAe?$AAg?$AAe?$AAr?$AA?5?$AAl?$AAe?$AAn?$AAg?$AAt?$AAh?$AA?5?$AAm?$AAo?$AAd?$AAi?$AAf?$AAi?$AAe@ 100d6838     libucrtd:output.obj
 0002:0000d898       ??_C@_1BMA@PGOJAHFP@?$AA_?$AA_?$AAc?$AAr?$AAt?$AA_?$AAs?$AAt?$AAd?$AAi?$AAo?$AA_?$AAo?$AAu?$AAt?$AAp?$AAu?$AAt?$AA?3?$AA?3?$AAo?$AAu?$AAt?$AAp?$AAu?$AAt?$AA_?$AAp?$AAr?$AAo?$AAc?$AAe@ 100d6898     libucrtd:output.obj
 0002:0000dab8       ??_C@_1BLK@BGFMMAPO@?$AA_?$AA_?$AAc?$AAr?$AAt?$AA_?$AAs?$AAt?$AAd?$AAi?$AAo?$AA_?$AAo?$AAu?$AAt?$AAp?$AAu?$AAt?$AA?3?$AA?3?$AAo?$AAu?$AAt?$AAp?$AAu?$AAt?$AA_?$AAp?$AAr?$AAo?$AAc?$AAe@ 100d6ab8     libucrtd:output.obj
 0002:0000dcd0       ??_C@_1BNC@DONELHFF@?$AA_?$AA_?$AAc?$AAr?$AAt?$AA_?$AAs?$AAt?$AAd?$AAi?$AAo?$AA_?$AAo?$AAu?$AAt?$AAp?$AAu?$AAt?$AA?3?$AA?3?$AAo?$AAu?$AAt?$AAp?$AAu?$AAt?$AA_?$AAp?$AAr?$AAo?$AAc?$AAe@ 100d6cd0     libucrtd:output.obj
 0002:0000df00       ??_C@_1BMA@GACGPGHN@?$AA_?$AA_?$AAc?$AAr?$AAt?$AA_?$AAs?$AAt?$AAd?$AAi?$AAo?$AA_?$AAo?$AAu?$AAt?$AAp?$AAu?$AAt?$AA?3?$AA?3?$AAo?$AAu?$AAt?$AAp?$AAu?$AAt?$AA_?$AAp?$AAr?$AAo?$AAc?$AAe@ 100d6f00     libucrtd:output.obj
 0002:0000e120       ??_C@_1IC@KGDNLBNC@?$AAw?$AAi?$AAd?$AAt?$AAh?$AA_?$AAi?$AAn?$AAd?$AAe?$AAx?$AA?5?$AA?$DO?$AA?$DN?$AA?5?$AA0?$AA?5?$AA?$CG?$AA?$CG?$AA?5?$AA?$CK?$AAe?$AAn?$AAd?$AA_?$AAp?$AAo?$AAi?$AAn?$AAt?$AAe?$AAr@ 100d7120     libucrtd:output.obj
 0002:0000e1c0       ??_C@_1PO@LKIIANED@?$AA_?$AA_?$AAc?$AAr?$AAt?$AA_?$AAs?$AAt?$AAd?$AAi?$AAo?$AA_?$AAo?$AAu?$AAt?$AAp?$AAu?$AAt?$AA?3?$AA?3?$AAp?$AAo?$AAs?$AAi?$AAt?$AAi?$AAo?$AAn?$AAa?$AAl?$AA_?$AAp@ 100d71c0     libucrtd:output.obj
 0002:0000e2f0       ??_C@_1JC@PMCLKCOC@?$AAp?$AAr?$AAe?$AAc?$AAi?$AAs?$AAi?$AAo?$AAn?$AA_?$AAi?$AAn?$AAd?$AAe?$AAx?$AA?5?$AA?$DO?$AA?$DN?$AA?5?$AA0?$AA?5?$AA?$CG?$AA?$CG?$AA?5?$AA?$CK?$AAe?$AAn?$AAd?$AA_?$AAp?$AAo?$AAi@ 100d72f0     libucrtd:output.obj
 0002:0000e3a0       ??_C@_1PK@KBJECIEM@?$AA_?$AA_?$AAc?$AAr?$AAt?$AA_?$AAs?$AAt?$AAd?$AAi?$AAo?$AA_?$AAo?$AAu?$AAt?$AAp?$AAu?$AAt?$AA?3?$AA?3?$AAp?$AAo?$AAs?$AAi?$AAt?$AAi?$AAo?$AAn?$AAa?$AAl?$AA_?$AAp@ 100d73a0     libucrtd:output.obj
 0002:0000e4d0       ??_C@_1BNI@IMOCDBNE@?$AA_?$AA_?$AAc?$AAr?$AAt?$AA_?$AAs?$AAt?$AAd?$AAi?$AAo?$AA_?$AAo?$AAu?$AAt?$AAp?$AAu?$AAt?$AA?3?$AA?3?$AAo?$AAu?$AAt?$AAp?$AAu?$AAt?$AA_?$AAp?$AAr?$AAo?$AAc?$AAe@ 100d74d0     libucrtd:output.obj
 0002:0000e708       ??_C@_1BAK@DALINHHB@?$AA_?$AA_?$AAc?$AAr?$AAt?$AA_?$AAs?$AAt?$AAd?$AAi?$AAo?$AA_?$AAo?$AAu?$AAt?$AAp?$AAu?$AAt?$AA?3?$AA?3?$AAp?$AAo?$AAs?$AAi?$AAt?$AAi?$AAo?$AAn?$AAa?$AAl?$AA_?$AAp@ 100d7708     libucrtd:output.obj
 0002:0000e848       ??_C@_1BAG@DOFNHDMF@?$AA_?$AA_?$AAc?$AAr?$AAt?$AA_?$AAs?$AAt?$AAd?$AAi?$AAo?$AA_?$AAo?$AAu?$AAt?$AAp?$AAu?$AAt?$AA?3?$AA?3?$AAp?$AAo?$AAs?$AAi?$AAt?$AAi?$AAo?$AAn?$AAa?$AAl?$AA_?$AAp@ 100d7848     libucrtd:output.obj
 0002:0000e988       ??_C@_1BKI@CJEIGDAI@?$AA_?$AA_?$AAc?$AAr?$AAt?$AA_?$AAs?$AAt?$AAd?$AAi?$AAo?$AA_?$AAo?$AAu?$AAt?$AAp?$AAu?$AAt?$AA?3?$AA?3?$AAo?$AAu?$AAt?$AAp?$AAu?$AAt?$AA_?$AAp?$AAr?$AAo?$AAc?$AAe@ 100d7988     libucrtd:output.obj
 0002:0000eb88       ??_C@_1BMA@IHIBOLMD@?$AA_?$AA_?$AAc?$AAr?$AAt?$AA_?$AAs?$AAt?$AAd?$AAi?$AAo?$AA_?$AAo?$AAu?$AAt?$AAp?$AAu?$AAt?$AA?3?$AA?3?$AAo?$AAu?$AAt?$AAp?$AAu?$AAt?$AA_?$AAp?$AAr?$AAo?$AAc?$AAe@ 100d7b88     libucrtd:output.obj
 0002:0000eda8       ??_C@_1BMA@CBPCAOAB@?$AA_?$AA_?$AAc?$AAr?$AAt?$AA_?$AAs?$AAt?$AAd?$AAi?$AAo?$AA_?$AAo?$AAu?$AAt?$AAp?$AAu?$AAt?$AA?3?$AA?3?$AAo?$AAu?$AAt?$AAp?$AAu?$AAt?$AA_?$AAp?$AAr?$AAo?$AAc?$AAe@ 100d7da8     libucrtd:output.obj
 0002:0000efc8       ??_C@_1PO@PODEJAGE@?$AA_?$AA_?$AAc?$AAr?$AAt?$AA_?$AAs?$AAt?$AAd?$AAi?$AAo?$AA_?$AAo?$AAu?$AAt?$AAp?$AAu?$AAt?$AA?3?$AA?3?$AAp?$AAo?$AAs?$AAi?$AAt?$AAi?$AAo?$AAn?$AAa?$AAl?$AA_?$AAp@ 100d7fc8     libucrtd:output.obj
 0002:0000f0f8       ??_C@_1PK@KBJLALII@?$AA_?$AA_?$AAc?$AAr?$AAt?$AA_?$AAs?$AAt?$AAd?$AAi?$AAo?$AA_?$AAo?$AAu?$AAt?$AAp?$AAu?$AAt?$AA?3?$AA?3?$AAp?$AAo?$AAs?$AAi?$AAt?$AAi?$AAo?$AAn?$AAa?$AAl?$AA_?$AAp@ 100d80f8     libucrtd:output.obj
 0002:0000f228       ??_C@_1BDG@KOLEFKPF@?$AA_?$AA_?$AAc?$AAr?$AAt?$AA_?$AAs?$AAt?$AAd?$AAi?$AAo?$AA_?$AAo?$AAu?$AAt?$AAp?$AAu?$AAt?$AA?3?$AA?3?$AAf?$AAo?$AAr?$AAm?$AAa?$AAt?$AA_?$AAv?$AAa?$AAl?$AAi?$AAd@ 100d8228     libucrtd:output.obj
 0002:0000f3a0       ??_C@_1BNI@OPBGCNOB@?$AA_?$AA_?$AAc?$AAr?$AAt?$AA_?$AAs?$AAt?$AAd?$AAi?$AAo?$AA_?$AAo?$AAu?$AAt?$AAp?$AAu?$AAt?$AA?3?$AA?3?$AAo?$AAu?$AAt?$AAp?$AAu?$AAt?$AA_?$AAp?$AAr?$AAo?$AAc?$AAe@ 100d83a0     libucrtd:output.obj
 0002:0000f5d8       ??_C@_1BAK@CDLANFGA@?$AA_?$AA_?$AAc?$AAr?$AAt?$AA_?$AAs?$AAt?$AAd?$AAi?$AAo?$AA_?$AAo?$AAu?$AAt?$AAp?$AAu?$AAt?$AA?3?$AA?3?$AAp?$AAo?$AAs?$AAi?$AAt?$AAi?$AAo?$AAn?$AAa?$AAl?$AA_?$AAp@ 100d85d8     libucrtd:output.obj
 0002:0000f718       ??_C@_1BAG@GKCGGKOF@?$AA_?$AA_?$AAc?$AAr?$AAt?$AA_?$AAs?$AAt?$AAd?$AAi?$AAo?$AA_?$AAo?$AAu?$AAt?$AAp?$AAu?$AAt?$AA?3?$AA?3?$AAp?$AAo?$AAs?$AAi?$AAt?$AAi?$AAo?$AAn?$AAa?$AAl?$AA_?$AAp@ 100d8718     libucrtd:output.obj
 0002:0000f858       ??_C@_1BEC@NDOOKIMC@?$AA_?$AA_?$AAc?$AAr?$AAt?$AA_?$AAs?$AAt?$AAd?$AAi?$AAo?$AA_?$AAo?$AAu?$AAt?$AAp?$AAu?$AAt?$AA?3?$AA?3?$AAf?$AAo?$AAr?$AAm?$AAa?$AAt?$AA_?$AAv?$AAa?$AAl?$AAi?$AAd@ 100d8858     libucrtd:output.obj
 0002:0000f9dc       ??_C@_1CK@LGDCECDH@?$AA_?$AAf?$AAo?$AAr?$AAm?$AAa?$AAt?$AA_?$AAc?$AAh?$AAa?$AAr?$AA?5?$AA?$CB?$AA?$DN?$AA?5?$AA?8?$AA?2?$AA0?$AA?8?$AA?$AA@ 100d89dc     libucrtd:output.obj
 0002:0000fa10       ??_C@_1BMA@MEBEEDJE@?$AA_?$AA_?$AAc?$AAr?$AAt?$AA_?$AAs?$AAt?$AAd?$AAi?$AAo?$AA_?$AAo?$AAu?$AAt?$AAp?$AAu?$AAt?$AA?3?$AA?3?$AAo?$AAu?$AAt?$AAp?$AAu?$AAt?$AA_?$AAp?$AAr?$AAo?$AAc?$AAe@ 100d8a10     libucrtd:output.obj
 0002:0000fc30       ??_C@_1BLE@MHLEAOID@?$AA_?$AA_?$AAc?$AAr?$AAt?$AA_?$AAs?$AAt?$AAd?$AAi?$AAo?$AA_?$AAo?$AAu?$AAt?$AAp?$AAu?$AAt?$AA?3?$AA?3?$AAo?$AAu?$AAt?$AAp?$AAu?$AAt?$AA_?$AAp?$AAr?$AAo?$AAc?$AAe@ 100d8c30     libucrtd:output.obj
 0002:0000fe3c       ??_C@_06OJHGLDPL@?$CInull?$CJ?$AA@ 100d8e3c     libucrtd:output.obj
 0002:0000fe44       ??_C@_1O@CEDCILHN@?$AA?$CI?$AAn?$AAu?$AAl?$AAl?$AA?$CJ?$AA?$AA@ 100d8e44     libucrtd:output.obj
 0002:0000fe58       ??_C@_1BMM@KANDEEGK@?$AA_?$AA_?$AAc?$AAr?$AAt?$AA_?$AAs?$AAt?$AAd?$AAi?$AAo?$AA_?$AAo?$AAu?$AAt?$AAp?$AAu?$AAt?$AA?3?$AA?3?$AAo?$AAu?$AAt?$AAp?$AAu?$AAt?$AA_?$AAp?$AAr?$AAo?$AAc?$AAe@ 100d8e58     libucrtd:output.obj
 0002:00010080       ??_C@_1BNC@BAMNIOCM@?$AA_?$AA_?$AAc?$AAr?$AAt?$AA_?$AAs?$AAt?$AAd?$AAi?$AAo?$AA_?$AAo?$AAu?$AAt?$AAp?$AAu?$AAt?$AA?3?$AA?3?$AAo?$AAu?$AAt?$AAp?$AAu?$AAt?$AA_?$AAp?$AAr?$AAo?$AAc?$AAe@ 100d9080     libucrtd:output.obj
 0002:000102b0       ??_C@_1BMG@JJPLEEHI@?$AA_?$AA_?$AAc?$AAr?$AAt?$AA_?$AAs?$AAt?$AAd?$AAi?$AAo?$AA_?$AAo?$AAu?$AAt?$AAp?$AAu?$AAt?$AA?3?$AA?3?$AAo?$AAu?$AAt?$AAp?$AAu?$AAt?$AA_?$AAp?$AAr?$AAo?$AAc?$AAe@ 100d92b0     libucrtd:output.obj
 0002:000104d0       ??_C@_1BNO@ILHNHKFA@?$AA_?$AA_?$AAc?$AAr?$AAt?$AA_?$AAs?$AAt?$AAd?$AAi?$AAo?$AA_?$AAo?$AAu?$AAt?$AAp?$AAu?$AAt?$AA?3?$AA?3?$AAo?$AAu?$AAt?$AAp?$AAu?$AAt?$AA_?$AAp?$AAr?$AAo?$AAc?$AAe@ 100d94d0     libucrtd:output.obj
 0002:00010710       ??_C@_1BNI@EJPCEBAG@?$AA_?$AA_?$AAc?$AAr?$AAt?$AA_?$AAs?$AAt?$AAd?$AAi?$AAo?$AA_?$AAo?$AAu?$AAt?$AAp?$AAu?$AAt?$AA?3?$AA?3?$AAo?$AAu?$AAt?$AAp?$AAu?$AAt?$AA_?$AAp?$AAr?$AAo?$AAc?$AAe@ 100d9710     libucrtd:output.obj
 0002:00010948       ??_C@_1BMM@CMKPNHDJ@?$AA_?$AA_?$AAc?$AAr?$AAt?$AA_?$AAs?$AAt?$AAd?$AAi?$AAo?$AA_?$AAo?$AAu?$AAt?$AAp?$AAu?$AAt?$AA?3?$AA?3?$AAo?$AAu?$AAt?$AAp?$AAu?$AAt?$AA_?$AAp?$AAr?$AAo?$AAc?$AAe@ 100d9948     libucrtd:output.obj
 0002:00010b70       ??_C@_1FE@IAFJEKN@?$AA_?$AAt?$AAy?$AAp?$AAe?$AA_?$AAi?$AAn?$AAd?$AAe?$AAx?$AA?5?$AA?$DO?$AA?$DN?$AA?5?$AA0?$AA?5?$AA?$CG?$AA?$CG?$AA?5?$AA_?$AAt?$AAy?$AAp?$AAe?$AA_?$AAi?$AAn?$AAd?$AAe?$AAx?$AA?5@ 100d9b70     libucrtd:output.obj
 0002:00010bd8       ??_C@_1BBG@JLLDGFML@?$AA_?$AA_?$AAc?$AAr?$AAt?$AA_?$AAs?$AAt?$AAd?$AAi?$AAo?$AA_?$AAo?$AAu?$AAt?$AAp?$AAu?$AAt?$AA?3?$AA?3?$AAp?$AAo?$AAs?$AAi?$AAt?$AAi?$AAo?$AAn?$AAa?$AAl?$AA_?$AAp@ 100d9bd8     libucrtd:output.obj
 0002:00010d28       ??_C@_1LO@HECDHMMI@?$AAi?$AAs?$AA_?$AAp?$AAo?$AAs?$AAi?$AAt?$AAi?$AAo?$AAn?$AAa?$AAl?$AA_?$AAp?$AAa?$AAr?$AAa?$AAm?$AAe?$AAt?$AAe?$AAr?$AA_?$AAr?$AAe?$AAa?$AAp?$AAp?$AAe?$AAa?$AAr@ 100d9d28     libucrtd:output.obj
 0002:00010e10       ??_C@_1BBM@LLHBCDAF@?$AA_?$AA_?$AAc?$AAr?$AAt?$AA_?$AAs?$AAt?$AAd?$AAi?$AAo?$AA_?$AAo?$AAu?$AAt?$AAp?$AAu?$AAt?$AA?3?$AA?3?$AAp?$AAo?$AAs?$AAi?$AAt?$AAi?$AAo?$AAn?$AAa?$AAl?$AA_?$AAp@ 100d9e10     libucrtd:output.obj
 0002:00010f68       ??_C@_1BOE@OMDELMGH@?$AA_?$AA_?$AAc?$AAr?$AAt?$AA_?$AAs?$AAt?$AAd?$AAi?$AAo?$AA_?$AAo?$AAu?$AAt?$AAp?$AAu?$AAt?$AA?3?$AA?3?$AAo?$AAu?$AAt?$AAp?$AAu?$AAt?$AA_?$AAp?$AAr?$AAo?$AAc?$AAe@ 100d9f68     libucrtd:output.obj
 0002:000111b0       ??_C@_1BCC@PDNLFIHK@?$AA_?$AA_?$AAc?$AAr?$AAt?$AA_?$AAs?$AAt?$AAd?$AAi?$AAo?$AA_?$AAo?$AAu?$AAt?$AAp?$AAu?$AAt?$AA?3?$AA?3?$AAp?$AAo?$AAs?$AAi?$AAt?$AAi?$AAo?$AAn?$AAa?$AAl?$AA_?$AAp@ 100da1b0     libucrtd:output.obj
 0002:00011310       ??_C@_1BCI@ILAANKJG@?$AA_?$AA_?$AAc?$AAr?$AAt?$AA_?$AAs?$AAt?$AAd?$AAi?$AAo?$AA_?$AAo?$AAu?$AAt?$AAp?$AAu?$AAt?$AA?3?$AA?3?$AAp?$AAo?$AAs?$AAi?$AAt?$AAi?$AAo?$AAn?$AAa?$AAl?$AA_?$AAp@ 100da310     libucrtd:output.obj
 0002:00011478       ??_C@_1BMA@FANDDEHK@?$AA_?$AA_?$AAc?$AAr?$AAt?$AA_?$AAs?$AAt?$AAd?$AAi?$AAo?$AA_?$AAo?$AAu?$AAt?$AAp?$AAu?$AAt?$AA?3?$AA?3?$AAo?$AAu?$AAt?$AAp?$AAu?$AAt?$AA_?$AAp?$AAr?$AAo?$AAc?$AAe@ 100da478     libucrtd:output.obj
 0002:00011698       ??_C@_1BLE@IFBJPNFE@?$AA_?$AA_?$AAc?$AAr?$AAt?$AA_?$AAs?$AAt?$AAd?$AAi?$AAo?$AA_?$AAo?$AAu?$AAt?$AAp?$AAu?$AAt?$AA?3?$AA?3?$AAo?$AAu?$AAt?$AAp?$AAu?$AAt?$AA_?$AAp?$AAr?$AAo?$AAc?$AAe@ 100da698     libucrtd:output.obj
 0002:000118a8       ??_C@_1BMM@MBMBCJIF@?$AA_?$AA_?$AAc?$AAr?$AAt?$AA_?$AAs?$AAt?$AAd?$AAi?$AAo?$AA_?$AAo?$AAu?$AAt?$AAp?$AAu?$AAt?$AA?3?$AA?3?$AAo?$AAu?$AAt?$AAp?$AAu?$AAt?$AA_?$AAp?$AAr?$AAo?$AAc?$AAe@ 100da8a8     libucrtd:output.obj
 0002:00011ad0       ??_C@_1BNI@EDCGAPJB@?$AA_?$AA_?$AAc?$AAr?$AAt?$AA_?$AAs?$AAt?$AAd?$AAi?$AAo?$AA_?$AAo?$AAu?$AAt?$AAp?$AAu?$AAt?$AA?3?$AA?3?$AAo?$AAu?$AAt?$AAp?$AAu?$AAt?$AA_?$AAp?$AAr?$AAo?$AAc?$AAe@ 100daad0     libucrtd:output.obj
 0002:00011d08       ??_C@_1BMM@KBPMKFBC@?$AA_?$AA_?$AAc?$AAr?$AAt?$AA_?$AAs?$AAt?$AAd?$AAi?$AAo?$AA_?$AAo?$AAu?$AAt?$AAp?$AAu?$AAt?$AA?3?$AA?3?$AAo?$AAu?$AAt?$AAp?$AAu?$AAt?$AA_?$AAp?$AAr?$AAo?$AAc?$AAe@ 100dad08     libucrtd:output.obj
 0002:00011f30       ??_C@_1BBG@KIHCHFIM@?$AA_?$AA_?$AAc?$AAr?$AAt?$AA_?$AAs?$AAt?$AAd?$AAi?$AAo?$AA_?$AAo?$AAu?$AAt?$AAp?$AAu?$AAt?$AA?3?$AA?3?$AAp?$AAo?$AAs?$AAi?$AAt?$AAi?$AAo?$AAn?$AAa?$AAl?$AA_?$AAp@ 100daf30     libucrtd:output.obj
 0002:00012080       ??_C@_1BBM@CBBAFMPJ@?$AA_?$AA_?$AAc?$AAr?$AAt?$AA_?$AAs?$AAt?$AAd?$AAi?$AAo?$AA_?$AAo?$AAu?$AAt?$AAp?$AAu?$AAt?$AA?3?$AA?3?$AAp?$AAo?$AAs?$AAi?$AAt?$AAi?$AAo?$AAn?$AAa?$AAl?$AA_?$AAp@ 100db080     libucrtd:output.obj
 0002:000121d8       ??_C@_1BOE@LIBLDKPN@?$AA_?$AA_?$AAc?$AAr?$AAt?$AA_?$AAs?$AAt?$AAd?$AAi?$AAo?$AA_?$AAo?$AAu?$AAt?$AAp?$AAu?$AAt?$AA?3?$AA?3?$AAo?$AAu?$AAt?$AAp?$AAu?$AAt?$AA_?$AAp?$AAr?$AAo?$AAc?$AAe@ 100db1d8     libucrtd:output.obj
 0002:00012420       ??_C@_1BCC@GJLKCHIG@?$AA_?$AA_?$AAc?$AAr?$AAt?$AA_?$AAs?$AAt?$AAd?$AAi?$AAo?$AA_?$AAo?$AAu?$AAt?$AAp?$AAu?$AAt?$AA?3?$AA?3?$AAp?$AAo?$AAs?$AAi?$AAt?$AAi?$AAo?$AAn?$AAa?$AAl?$AA_?$AAp@ 100db420     libucrtd:output.obj
 0002:00012580       ??_C@_1BCI@OBMMNJKK@?$AA_?$AA_?$AAc?$AAr?$AAt?$AA_?$AAs?$AAt?$AAd?$AAi?$AAo?$AA_?$AAo?$AAu?$AAt?$AAp?$AAu?$AAt?$AA?3?$AA?3?$AAp?$AAo?$AAs?$AAi?$AAt?$AAi?$AAo?$AAn?$AAa?$AAl?$AA_?$AAp@ 100db580     libucrtd:output.obj
 0002:000126e4       ??_C@_0DI@KIFBHMNO@minkernel?2crts?2ucrt?2inc?2corecrt_@ 100db6e4     libucrtd:output.obj
 0002:00012728       ??_C@_1BBE@FLKADCDA@?$AA_?$AA_?$AAc?$AAr?$AAt?$AA_?$AAs?$AAt?$AAd?$AAi?$AAo?$AA_?$AAo?$AAu?$AAt?$AAp?$AAu?$AAt?$AA?3?$AA?3?$AAp?$AAo?$AAs?$AAi?$AAt?$AAi?$AAo?$AAn?$AAa?$AAl?$AA_?$AAp@ 100db728     libucrtd:output.obj
 0002:00012878       ??_C@_1BCA@FCGNBIN@?$AA_?$AA_?$AAc?$AAr?$AAt?$AA_?$AAs?$AAt?$AAd?$AAi?$AAo?$AA_?$AAo?$AAu?$AAt?$AAp?$AAu?$AAt?$AA?3?$AA?3?$AAp?$AAo?$AAs?$AAi?$AAt?$AAi?$AAo?$AAn?$AAa?$AAl?$AA_?$AAp@ 100db878     libucrtd:output.obj
 0002:000129d8       ??_C@_1BBE@IBPNPIIM@?$AA_?$AA_?$AAc?$AAr?$AAt?$AA_?$AAs?$AAt?$AAd?$AAi?$AAo?$AA_?$AAo?$AAu?$AAt?$AAp?$AAu?$AAt?$AA?3?$AA?3?$AAp?$AAo?$AAs?$AAi?$AAt?$AAi?$AAo?$AAn?$AAa?$AAl?$AA_?$AAp@ 100db9d8     libucrtd:output.obj
 0002:00012b28       ??_C@_1BCA@HCPCJFGA@?$AA_?$AA_?$AAc?$AAr?$AAt?$AA_?$AAs?$AAt?$AAd?$AAi?$AAo?$AA_?$AAo?$AAu?$AAt?$AAp?$AAu?$AAt?$AA?3?$AA?3?$AAp?$AAo?$AAs?$AAi?$AAt?$AAi?$AAo?$AAn?$AAa?$AAl?$AA_?$AAp@ 100dbb28     libucrtd:output.obj
 0002:00012c88       ??_C@_1BLC@INKIGOCN@?$AA_?$AA_?$AAc?$AAr?$AAt?$AA_?$AAs?$AAt?$AAd?$AAi?$AAo?$AA_?$AAo?$AAu?$AAt?$AAp?$AAu?$AAt?$AA?3?$AA?3?$AAo?$AAu?$AAt?$AAp?$AAu?$AAt?$AA_?$AAp?$AAr?$AAo?$AAc?$AAe@ 100dbc88     libucrtd:output.obj
 0002:00012e90       ??_C@_1BMK@JGIBNIA@?$AA_?$AA_?$AAc?$AAr?$AAt?$AA_?$AAs?$AAt?$AAd?$AAi?$AAo?$AA_?$AAo?$AAu?$AAt?$AAp?$AAu?$AAt?$AA?3?$AA?3?$AAo?$AAu?$AAt?$AAp?$AAu?$AAt?$AA_?$AAp?$AAr?$AAo?$AAc?$AAe@ 100dbe90     libucrtd:output.obj
 0002:000130b8       ??_C@_1BMG@CGPDIFDK@?$AA_?$AA_?$AAc?$AAr?$AAt?$AA_?$AAs?$AAt?$AAd?$AAi?$AAo?$AA_?$AAo?$AAu?$AAt?$AAp?$AAu?$AAt?$AA?3?$AA?3?$AAo?$AAu?$AAt?$AAp?$AAu?$AAt?$AA_?$AAp?$AAr?$AAo?$AAc?$AAe@ 100dc0b8     libucrtd:output.obj
 0002:000132d8       ??_C@_1BMC@FAGJFBLI@?$AA_?$AA_?$AAc?$AAr?$AAt?$AA_?$AAs?$AAt?$AAd?$AAi?$AAo?$AA_?$AAo?$AAu?$AAt?$AAp?$AAu?$AAt?$AA?3?$AA?3?$AAo?$AAu?$AAt?$AAp?$AAu?$AAt?$AA_?$AAp?$AAr?$AAo?$AAc?$AAe@ 100dc2d8     libucrtd:output.obj
 0002:000134f8       ??_C@_1BNO@OHFFMOOJ@?$AA_?$AA_?$AAc?$AAr?$AAt?$AA_?$AAs?$AAt?$AAd?$AAi?$AAo?$AA_?$AAo?$AAu?$AAt?$AAp?$AAu?$AAt?$AA?3?$AA?3?$AAo?$AAu?$AAt?$AAp?$AAu?$AAt?$AA_?$AAp?$AAr?$AAo?$AAc?$AAe@ 100dc4f8     libucrtd:output.obj
 0002:00013738       ??_C@_1BNK@KHNJGCCP@?$AA_?$AA_?$AAc?$AAr?$AAt?$AA_?$AAs?$AAt?$AAd?$AAi?$AAo?$AA_?$AAo?$AAu?$AAt?$AAp?$AAu?$AAt?$AA?3?$AA?3?$AAo?$AAu?$AAt?$AAp?$AAu?$AAt?$AA_?$AAp?$AAr?$AAo?$AAc?$AAe@ 100dc738     libucrtd:output.obj
 0002:00013970       ??_C@_1BLK@FOLFMPJH@?$AA_?$AA_?$AAc?$AAr?$AAt?$AA_?$AAs?$AAt?$AAd?$AAi?$AAo?$AA_?$AAo?$AAu?$AAt?$AAp?$AAu?$AAt?$AA?3?$AA?3?$AAo?$AAu?$AAt?$AAp?$AAu?$AAt?$AA_?$AAp?$AAr?$AAo?$AAc?$AAe@ 100dc970     libucrtd:output.obj
 0002:00013b88       ??_C@_1BNC@OHPDPPJK@?$AA_?$AA_?$AAc?$AAr?$AAt?$AA_?$AAs?$AAt?$AAd?$AAi?$AAo?$AA_?$AAo?$AAu?$AAt?$AAp?$AAu?$AAt?$AA?3?$AA?3?$AAo?$AAu?$AAt?$AAp?$AAu?$AAt?$AA_?$AAp?$AAr?$AAo?$AAc?$AAe@ 100dcb88     libucrtd:output.obj
 0002:00013db8       ??_C@_1BNC@JPKLPOHO@?$AA_?$AA_?$AAc?$AAr?$AAt?$AA_?$AAs?$AAt?$AAd?$AAi?$AAo?$AA_?$AAo?$AAu?$AAt?$AAp?$AAu?$AAt?$AA?3?$AA?3?$AAo?$AAu?$AAt?$AAp?$AAu?$AAt?$AA_?$AAp?$AAr?$AAo?$AAc?$AAe@ 100dcdb8     libucrtd:output.obj
 0002:00013fe8       ??_C@_1BMG@BBEFGBID@?$AA_?$AA_?$AAc?$AAr?$AAt?$AA_?$AAs?$AAt?$AAd?$AAi?$AAo?$AA_?$AAo?$AAu?$AAt?$AAp?$AAu?$AAt?$AA?3?$AA?3?$AAo?$AAu?$AAt?$AAp?$AAu?$AAt?$AA_?$AAp?$AAr?$AAo?$AAc?$AAe@ 100dcfe8     libucrtd:output.obj
 0002:00014208       ??_C@_1BNO@NAODCKFA@?$AA_?$AA_?$AAc?$AAr?$AAt?$AA_?$AAs?$AAt?$AAd?$AAi?$AAo?$AA_?$AAo?$AAu?$AAt?$AAp?$AAu?$AAt?$AA?3?$AA?3?$AAo?$AAu?$AAt?$AAp?$AAu?$AAt?$AA_?$AAp?$AAr?$AAo?$AAc?$AAe@ 100dd208     libucrtd:output.obj
 0002:00014448       ??_C@_1GE@IHIGNC@?$AA?$CI?$AA?$CI?$AAr?$AAe?$AAs?$AAu?$AAl?$AAt?$AA_?$AAb?$AAu?$AAf?$AAf?$AAe?$AAr?$AA?$CJ?$AA?$CJ?$AA?5?$AA?$CB?$AA?$DN?$AA?5?$AAN?$AAU?$AAL?$AAL?$AA?5?$AA?$CG?$AA?$CG?$AA?5?$AA?$CI?$AA?$CI?$AAr@ 100dd448     libucrtd:makepath.obj
 0002:000144c0       ??_C@_1GO@CPMBDHKK@?$AAm?$AAi?$AAn?$AAk?$AAe?$AAr?$AAn?$AAe?$AAl?$AA?2?$AAc?$AAr?$AAt?$AAs?$AA?2?$AAu?$AAc?$AAr?$AAt?$AA?2?$AAs?$AAr?$AAc?$AA?2?$AAa?$AAp?$AAp?$AAc?$AAr?$AAt?$AA?2?$AAf@ 100dd4c0     libucrtd:makepath.obj
 0002:00014544       ??_C@_1CE@GNNMAAIL@?$AAc?$AAo?$AAm?$AAm?$AAo?$AAn?$AA_?$AAm?$AAa?$AAk?$AAe?$AAp?$AAa?$AAt?$AAh?$AA_?$AAs?$AA?$AA@ 100dd544     libucrtd:makepath.obj
 0002:00014570       ??_C@_1CI@HCPHDDLE@?$AAB?$AAu?$AAf?$AAf?$AAe?$AAr?$AA?5?$AAi?$AAs?$AA?5?$AAt?$AAo?$AAo?$AA?5?$AAs?$AAm?$AAa?$AAl?$AAl?$AA?$AA@ 100dd570     libucrtd:makepath.obj
 0002:000145a0       ??_C@_1DM@MADKGDLO@?$AA?$CI?$AAL?$AA?$CC?$AAB?$AAu?$AAf?$AAf?$AAe?$AAr?$AA?5?$AAi?$AAs?$AA?5?$AAt?$AAo?$AAo?$AA?5?$AAs?$AAm?$AAa?$AAl?$AAl?$AA?$CC?$AA?5?$AA?$CG?$AA?$CG?$AA?5?$AA0?$AA?$CJ?$AA?$AA@ 100dd5a0     libucrtd:makepath.obj
 0002:000145e8       ??_C@_1CI@KGHCCPCN@?$AAc?$AAl?$AAe?$AAa?$AAn?$AAu?$AAp?$AA_?$AAa?$AAf?$AAt?$AAe?$AAr?$AA_?$AAe?$AAr?$AAr?$AAo?$AAr?$AA?$AA@ 100dd5e8     libucrtd:makepath.obj
 0002:00014618       ??_C@_1M@HLGKFCJM@?$AAf?$AAa?$AAl?$AAs?$AAe?$AA?$AA@ 100dd618     libucrtd:splitpath.obj
 0002:00014628       ??_C@_1HA@BEJINBHO@?$AAm?$AAi?$AAn?$AAk?$AAe?$AAr?$AAn?$AAe?$AAl?$AA?2?$AAc?$AAr?$AAt?$AAs?$AA?2?$AAu?$AAc?$AAr?$AAt?$AA?2?$AAs?$AAr?$AAc?$AA?2?$AAa?$AAp?$AAp?$AAc?$AAr?$AAt?$AA?2?$AAf@ 100dd628     libucrtd:splitpath.obj
 0002:000146b0       ??_C@_1DE@EEECINKG@?$AAc?$AAo?$AAm?$AAm?$AAo?$AAn?$AA_?$AAs?$AAp?$AAl?$AAi?$AAt?$AAp?$AAa?$AAt?$AAh?$AA_?$AAi?$AAn?$AAt?$AAe?$AAr?$AAn?$AAa?$AAl?$AA?$AA@ 100dd6b0     libucrtd:splitpath.obj
 0002:000146f0       ??_C@_1GI@BBAEIKL@?$AA?$CI?$AA?$CI?$AAd?$AAe?$AAs?$AAt?$AAi?$AAn?$AAa?$AAt?$AAi?$AAo?$AAn?$AA?$CJ?$AA?$CJ?$AA?5?$AA?$CB?$AA?$DN?$AA?5?$AAN?$AAU?$AAL?$AAL?$AA?5?$AA?$CG?$AA?$CG?$AA?5?$AA?$CI?$AA?$CI?$AAs?$AAi?$AAz@ 100dd6f0     libucrtd:wcscpy_s.obj
 0002:00014770       ??_C@_1HI@PBJPCEBC@?$AAm?$AAi?$AAn?$AAk?$AAe?$AAr?$AAn?$AAe?$AAl?$AA?2?$AAc?$AAr?$AAt?$AAs?$AA?2?$AAu?$AAc?$AAr?$AAt?$AA?2?$AAi?$AAn?$AAc?$AA?2?$AAc?$AAo?$AAr?$AAe?$AAc?$AAr?$AAt?$AA_@ 100dd770     libucrtd:wcscpy_s.obj
 0002:00014800       ??_C@_1CA@FHIAGDFH@?$AAc?$AAo?$AAm?$AAm?$AAo?$AAn?$AA_?$AAt?$AAc?$AAs?$AAc?$AAp?$AAy?$AA_?$AAs?$AA?$AA@ 100dd800     libucrtd:wcscpy_s.obj
 0002:00014828       ??_C@_1CK@EIOKGPJL@?$AA?$CI?$AA?$CI?$AA?$CI?$AAs?$AAo?$AAu?$AAr?$AAc?$AAe?$AA?$CJ?$AA?$CJ?$AA?$CJ?$AA?5?$AA?$CB?$AA?$DN?$AA?5?$AAN?$AAU?$AAL?$AAL?$AA?$AA@ 100dd828     libucrtd:wcscpy_s.obj
 0002:0001485c       ??_C@_1DA@LLLMNMKI@?$AAa?$AAb?$AAo?$AAr?$AAt?$AA?$CI?$AA?$CJ?$AA?5?$AAh?$AAa?$AAs?$AA?5?$AAb?$AAe?$AAe?$AAn?$AA?5?$AAc?$AAa?$AAl?$AAl?$AAe?$AAd?$AA?$AA@ 100dd85c     libucrtd:abort.obj
 0002:00014898       __Fenv0                    100dd898     libucrtd:atox.obj
 0002:000148a8       ??_C@_1GE@DPGDJKLM@?$AAm?$AAi?$AAn?$AAk?$AAe?$AAr?$AAn?$AAe?$AAl?$AA?2?$AAc?$AAr?$AAt?$AAs?$AA?2?$AAu?$AAc?$AAr?$AAt?$AA?2?$AAi?$AAn?$AAc?$AA?2?$AAc?$AAo?$AAr?$AAe?$AAc?$AAr?$AAt?$AA_@ 100dd8a8     libucrtd:atox.obj
 0002:00014920       ??_C@_1EO@MLJCKPIB@?$AAb?$AAa?$AAs?$AAe?$AA?5?$AA?$DN?$AA?$DN?$AA?5?$AA0?$AA?5?$AA?$HM?$AA?$HM?$AA?5?$AA?$CI?$AA2?$AA?5?$AA?$DM?$AA?$DN?$AA?5?$AAb?$AAa?$AAs?$AAe?$AA?5?$AA?$CG?$AA?$CG?$AA?5?$AAb?$AAa?$AAs?$AAe?$AA?5@ 100dd920     libucrtd:atox.obj
 0002:00014980       ??_C@_1DI@BANODKFL@?$AA_?$AA_?$AAc?$AAr?$AAt?$AA_?$AAs?$AAt?$AAr?$AAt?$AAo?$AAx?$AA?3?$AA?3?$AAp?$AAa?$AAr?$AAs?$AAe?$AA_?$AAi?$AAn?$AAt?$AAe?$AAg?$AAe?$AAr?$AA?$AA@ 100dd980     libucrtd:atox.obj
 0002:000149c4       ??_C@_1BM@PNEBBBDO@?$AA_?$AAp?$AA?5?$AA?$CB?$AA?$DN?$AA?5?$AAn?$AAu?$AAl?$AAl?$AAp?$AAt?$AAr?$AA?$AA@ 100dd9c4     libucrtd:atox.obj
 0002:000149e8       ??_C@_1HA@MKKIHBHP@?$AA_?$AA_?$AAc?$AAr?$AAt?$AA_?$AAs?$AAt?$AAr?$AAt?$AAo?$AAx?$AA?3?$AA?3?$AAc?$AA_?$AAs?$AAt?$AAr?$AAi?$AAn?$AAg?$AA_?$AAc?$AAh?$AAa?$AAr?$AAa?$AAc?$AAt?$AAe?$AAr@ 100dd9e8     libucrtd:atox.obj
 0002:00014a70       ??_C@_1CM@GJENOOEJ@?$AAc?$AA?5?$AA?$DN?$AA?$DN?$AA?5?$AA?8?$AA?2?$AA0?$AA?8?$AA?5?$AA?$HM?$AA?$HM?$AA?5?$AA?$CK?$AA_?$AAp?$AA?5?$AA?$DN?$AA?$DN?$AA?5?$AAc?$AA?$AA@ 100dda70     libucrtd:atox.obj
 0002:00014aa8       ??_C@_1GK@MNHIDABG@?$AA_?$AA_?$AAc?$AAr?$AAt?$AA_?$AAs?$AAt?$AAr?$AAt?$AAo?$AAx?$AA?3?$AA?3?$AAc?$AA_?$AAs?$AAt?$AAr?$AAi?$AAn?$AAg?$AA_?$AAc?$AAh?$AAa?$AAr?$AAa?$AAc?$AAt?$AAe?$AAr@ 100ddaa8     libucrtd:atox.obj
 0002:00014b28       ??_C@_1HG@FCDBLOEG@?$AA_?$AA_?$AAc?$AAr?$AAt?$AA_?$AAs?$AAt?$AAr?$AAt?$AAo?$AAx?$AA?3?$AA?3?$AAc?$AA_?$AAs?$AAt?$AAr?$AAi?$AAn?$AAg?$AA_?$AAc?$AAh?$AAa?$AAr?$AAa?$AAc?$AAt?$AAe?$AAr@ 100ddb28     libucrtd:atox.obj
 0002:00014bb8       ??_C@_1HA@CONLANFI@?$AA_?$AA_?$AAc?$AAr?$AAt?$AA_?$AAs?$AAt?$AAr?$AAt?$AAo?$AAx?$AA?3?$AA?3?$AAc?$AA_?$AAs?$AAt?$AAr?$AAi?$AAn?$AAg?$AA_?$AAc?$AAh?$AAa?$AAr?$AAa?$AAc?$AAt?$AAe?$AAr@ 100ddbb8     libucrtd:atox.obj
 0002:00014c40       __d_inf                    100ddc40     libucrtd:util.obj
 0002:00014c50       __d_ind                    100ddc50     libucrtd:util.obj
 0002:00014c60       __d_max                    100ddc60     libucrtd:util.obj
 0002:00014c70       __d_min                    100ddc70     libucrtd:util.obj
 0002:00014c80       __d_mzero                  100ddc80     libucrtd:util.obj
 0002:00014cb0       __indefinite               100ddcb0     libucrtd:87disp.obj
 0002:00014cba       __piby2                    100ddcba     libucrtd:87disp.obj
 0002:00014cc4       __piby4                    100ddcc4     libucrtd:87disp.obj
 0002:00014d08       __DEFAULT_CW_in_mem        100ddd08     libucrtd:common.obj
 0002:00014d0a       __pi_by_2_to_61            100ddd0a     libucrtd:common.obj
 0002:00014d58       ??_C@_1FA@IFFFOLDJ@?$AAn?$AAR?$AAp?$AAt?$AAT?$AAy?$AAp?$AAe?$AA?5?$AA?$DO?$AA?$DN?$AA?5?$AA0?$AA?5?$AA?$CG?$AA?$CG?$AA?5?$AAn?$AAR?$AAp?$AAt?$AAT?$AAy?$AAp?$AAe?$AA?5?$AA?$DM?$AA?5?$AA_?$AAC?$AAR?$AAT@ 100ddd58     libucrtd:dbgrptt.obj
 0002:00014db8       ??_C@_1GA@LFAOKOOP@?$AAm?$AAi?$AAn?$AAk?$AAe?$AAr?$AAn?$AAe?$AAl?$AA?2?$AAc?$AAr?$AAt?$AAs?$AA?2?$AAu?$AAc?$AAr?$AAt?$AA?2?$AAs?$AAr?$AAc?$AA?2?$AAa?$AAp?$AAp?$AAc?$AAr?$AAt?$AA?2?$AAm@ 100dddb8     libucrtd:dbgrptt.obj
 0002:00014e2c       ??_C@_1CE@FIHIECNJ@?$AA_?$AAC?$AAr?$AAt?$AAS?$AAe?$AAt?$AAR?$AAe?$AAp?$AAo?$AAr?$AAt?$AAM?$AAo?$AAd?$AAe?$AA?$AA@ 100dde2c     libucrtd:dbgrptt.obj
 0002:00014e58       ??_C@_1NK@LOFHIHFC@?$AAf?$AAM?$AAo?$AAd?$AAe?$AA?5?$AA?$DN?$AA?$DN?$AA?5?$AA_?$AAC?$AAR?$AAT?$AAD?$AAB?$AAG?$AA_?$AAR?$AAE?$AAP?$AAO?$AAR?$AAT?$AA_?$AAM?$AAO?$AAD?$AAE?$AA?5?$AA?$HM?$AA?$HM?$AA?5@ 100dde58     libucrtd:dbgrptt.obj
 0002:00014f60       ??_C@_1CE@IKKEDCME@?$AA_?$AAC?$AAr?$AAt?$AAS?$AAe?$AAt?$AAR?$AAe?$AAp?$AAo?$AAr?$AAt?$AAF?$AAi?$AAl?$AAe?$AA?$AA@ 100ddf60     libucrtd:dbgrptt.obj
 0002:00014f8c       ??_C@_1CA@KHJHLKA@?$AA_?$AAV?$AAC?$AAr?$AAt?$AAD?$AAb?$AAg?$AAR?$AAe?$AAp?$AAo?$AAr?$AAt?$AAA?$AA?$AA@ 100ddf8c     libucrtd:dbgrptt.obj
 0002:00014fb8       ??_C@_1FA@JPHJBHEM@?$AA_?$AAi?$AAt?$AAo?$AAa?$AA_?$AAs?$AA?$CI?$AAn?$AAL?$AAi?$AAn?$AAe?$AA?0?$AA?5?$AAs?$AAz?$AAL?$AAi?$AAn?$AAe?$AAM?$AAe?$AAs?$AAs?$AAa?$AAg?$AAe?$AA?0?$AA?5?$AA4?$AA0@ 100ddfb8     libucrtd:dbgrptt.obj
 0002:00015018       ??_C@_0CG@BNGLOCEO@Second?5Chance?5Assertion?5Failed?3?5@ 100de018     libucrtd:dbgrptt.obj
 0002:00015048       ??_C@_0P@DFJNDPOP@?$DMfile?5unknown?$DO?$AA@ 100de048     libucrtd:dbgrptt.obj
 0002:0001505c       ??_C@_07BHGABMGB@?0?5Line?5?$AA@ 100de05c     libucrtd:dbgrptt.obj
 0002:00015068       ??_C@_1JI@GAALPGBM@?$AAs?$AAt?$AAr?$AAc?$AAp?$AAy?$AA_?$AAs?$AA?$CI?$AAs?$AAz?$AAU?$AAs?$AAe?$AAr?$AAM?$AAe?$AAs?$AAs?$AAa?$AAg?$AAe?$AA?0?$AA?5?$AA4?$AA0?$AA9?$AA6?$AA?0?$AA?5?$AA?$CC?$AA_@ 100de068     libucrtd:dbgrptt.obj
 0002:00015120       ??_C@_0CL@EACFGMNB@_CrtDbgReport?3?5String?5too?5long?5o@ 100de120     libucrtd:dbgrptt.obj
 0002:00015158       ??_C@_1KK@GIGAEDMO@?$AAs?$AAt?$AAr?$AAc?$AAp?$AAy?$AA_?$AAs?$AA?$CI?$AAs?$AAz?$AAL?$AAi?$AAn?$AAe?$AAM?$AAe?$AAs?$AAs?$AAa?$AAg?$AAe?$AA?0?$AA?5?$AA4?$AA0?$AA9?$AA6?$AA?0?$AA?5?$AAs?$AAz@ 100de158     libucrtd:dbgrptt.obj
 0002:00015224       ??_C@_0BD@CAENFOHP@Assertion?5failed?3?5?$AA@ 100de224     libucrtd:dbgrptt.obj
 0002:0001523c       ??_C@_0BC@LAIDCHCH@Assertion?5failed?$CB?$AA@ 100de23c     libucrtd:dbgrptt.obj
 0002:00015258       ??_C@_1FK@NPGBPOFO@?$AAs?$AAt?$AAr?$AAc?$AAa?$AAt?$AA_?$AAs?$AA?$CI?$AAs?$AAz?$AAL?$AAi?$AAn?$AAe?$AAM?$AAe?$AAs?$AAs?$AAa?$AAg?$AAe?$AA?0?$AA?5?$AA4?$AA0?$AA9?$AA6?$AA?0?$AA?5?$AAs?$AAz@ 100de258     libucrtd:dbgrptt.obj
 0002:000152c8       ??_C@_1EI@CACDLAFK@?$AAs?$AAt?$AAr?$AAc?$AAa?$AAt?$AA_?$AAs?$AA?$CI?$AAs?$AAz?$AAL?$AAi?$AAn?$AAe?$AAM?$AAe?$AAs?$AAs?$AAa?$AAg?$AAe?$AA?0?$AA?5?$AA4?$AA0?$AA9?$AA6?$AA?0?$AA?5?$AA?$CC?$AA?2@ 100de2c8     libucrtd:dbgrptt.obj
 0002:00015320       ??_C@_01LIIJDEN@?$AN?$AA@  100de320     libucrtd:dbgrptt.obj
 0002:00015328       ??_C@_1EI@LDHJEDO@?$AAs?$AAt?$AAr?$AAc?$AAa?$AAt?$AA_?$AAs?$AA?$CI?$AAs?$AAz?$AAL?$AAi?$AAn?$AAe?$AAM?$AAe?$AAs?$AAs?$AAa?$AAg?$AAe?$AA?0?$AA?5?$AA4?$AA0?$AA9?$AA6?$AA?0?$AA?5?$AA?$CC?$AA?2@ 100de328     libucrtd:dbgrptt.obj
 0002:00015380       ??_C@_0M@IPILFDFN@?$CFs?$CI?$CFd?$CJ?5?3?5?$CFs?$AA@ 100de380     libucrtd:dbgrptt.obj
 0002:00015390       ??_C@_1JG@CPKCIOEE@?$AAs?$AAt?$AAr?$AAc?$AAp?$AAy?$AA_?$AAs?$AA?$CI?$AAs?$AAz?$AAO?$AAu?$AAt?$AAM?$AAe?$AAs?$AAs?$AAa?$AAg?$AAe?$AA?0?$AA?5?$AA4?$AA0?$AA9?$AA6?$AA?0?$AA?5?$AA?$CC?$AA_?$AAC@ 100de390     libucrtd:dbgrptt.obj
 0002:00015448       ??_C@_1FI@IBIOIHEG@?$AAs?$AAt?$AAr?$AAc?$AAp?$AAy?$AA_?$AAs?$AA?$CI?$AAs?$AAz?$AAO?$AAu?$AAt?$AAM?$AAe?$AAs?$AAs?$AAa?$AAg?$AAe?$AA?0?$AA?5?$AA4?$AA0?$AA9?$AA6?$AA?0?$AA?5?$AAs?$AAz?$AAL@ 100de448     libucrtd:dbgrptt.obj
 0002:000154b8       ??_C@_1IM@OOKIFKOH@?$AAe?$AA?5?$AA?$DN?$AA?5?$AAm?$AAb?$AAs?$AAt?$AAo?$AAw?$AAc?$AAs?$AA_?$AAs?$AA?$CI?$AA?$CG?$AAr?$AAe?$AAt?$AA?0?$AA?5?$AAs?$AAz?$AAO?$AAu?$AAt?$AAM?$AAe?$AAs?$AAs?$AAa?$AAg@ 100de4b8     libucrtd:dbgrptt.obj
 0002:00015560       ??_C@_1MC@IGEECMDB@?$AAw?$AAc?$AAs?$AAc?$AAp?$AAy?$AA_?$AAs?$AA?$CI?$AAs?$AAz?$AAO?$AAu?$AAt?$AAM?$AAe?$AAs?$AAs?$AAa?$AAg?$AAe?$AA2?$AA?0?$AA?5?$AA4?$AA0?$AA9?$AA6?$AA?0?$AA?5?$AAL?$AA?$CC@ 100de560     libucrtd:dbgrptt.obj
 0002:00015648       ??_C@_1HO@PJOFIKFE@?$AA_?$AAC?$AAr?$AAt?$AAD?$AAb?$AAg?$AAR?$AAe?$AAp?$AAo?$AAr?$AAt?$AA?3?$AA?5?$AAS?$AAt?$AAr?$AAi?$AAn?$AAg?$AA?5?$AAt?$AAo?$AAo?$AA?5?$AAl?$AAo?$AAn?$AAg?$AA?5?$AAo@ 100de648     libucrtd:dbgrptt.obj
 0002:000156e0       ??_C@_1CA@HPALHDOD@?$AA_?$AAV?$AAC?$AAr?$AAt?$AAD?$AAb?$AAg?$AAR?$AAe?$AAp?$AAo?$AAr?$AAt?$AAW?$AA?$AA@ 100de6e0     libucrtd:dbgrptt.obj
 0002:00015708       ??_C@_1FA@CNLLOMHI@?$AA_?$AAi?$AAt?$AAo?$AAw?$AA_?$AAs?$AA?$CI?$AAn?$AAL?$AAi?$AAn?$AAe?$AA?0?$AA?5?$AAs?$AAz?$AAL?$AAi?$AAn?$AAe?$AAM?$AAe?$AAs?$AAs?$AAa?$AAg?$AAe?$AA?0?$AA?5?$AA4?$AA0@ 100de708     libucrtd:dbgrptt.obj
 0002:00015768       ??_C@_1EM@MJFLEDMB@?$AAS?$AAe?$AAc?$AAo?$AAn?$AAd?$AA?5?$AAC?$AAh?$AAa?$AAn?$AAc?$AAe?$AA?5?$AAA?$AAs?$AAs?$AAe?$AAr?$AAt?$AAi?$AAo?$AAn?$AA?5?$AAF?$AAa?$AAi?$AAl?$AAe?$AAd?$AA?3?$AA?5@ 100de768     libucrtd:dbgrptt.obj
 0002:000157c4       ??_C@_1BO@OCHMLCAG@?$AA?$DM?$AAf?$AAi?$AAl?$AAe?$AA?5?$AAu?$AAn?$AAk?$AAn?$AAo?$AAw?$AAn?$AA?$DO?$AA?$AA@ 100de7c4     libucrtd:dbgrptt.obj
 0002:000157e8       ??_C@_1BA@ELMMDCFC@?$AA?0?$AA?5?$AAL?$AAi?$AAn?$AAe?$AA?5?$AA?$AA@ 100de7e8     libucrtd:dbgrptt.obj
 0002:000157fc       ??_C@_13LBAGMAIH@?$AA?6?$AA?$AA@ 100de7fc     libucrtd:dbgrptt.obj
 0002:00015800       ??_C@_1JK@KHFABAEO@?$AAw?$AAc?$AAs?$AAc?$AAp?$AAy?$AA_?$AAs?$AA?$CI?$AAs?$AAz?$AAU?$AAs?$AAe?$AAr?$AAM?$AAe?$AAs?$AAs?$AAa?$AAg?$AAe?$AA?0?$AA?5?$AA4?$AA0?$AA9?$AA6?$AA?0?$AA?5?$AAL?$AA?$CC@ 100de800     libucrtd:dbgrptt.obj
 0002:000158b8       ??_C@_1KO@DGAHENCH@?$AAw?$AAc?$AAs?$AAc?$AAp?$AAy?$AA_?$AAs?$AA?$CI?$AAs?$AAz?$AAL?$AAi?$AAn?$AAe?$AAM?$AAe?$AAs?$AAs?$AAa?$AAg?$AAe?$AA?0?$AA?5?$AA4?$AA0?$AA9?$AA6?$AA?0?$AA?5?$AAs?$AAz@ 100de8b8     libucrtd:dbgrptt.obj
 0002:00015988       ??_C@_1CG@FFFGGODN@?$AAA?$AAs?$AAs?$AAe?$AAr?$AAt?$AAi?$AAo?$AAn?$AA?5?$AAf?$AAa?$AAi?$AAl?$AAe?$AAd?$AA?3?$AA?5?$AA?$AA@ 100de988     libucrtd:dbgrptt.obj
 0002:000159b8       ??_C@_1CE@OJBNHDMO@?$AAA?$AAs?$AAs?$AAe?$AAr?$AAt?$AAi?$AAo?$AAn?$AA?5?$AAf?$AAa?$AAi?$AAl?$AAe?$AAd?$AA?$CB?$AA?$AA@ 100de9b8     libucrtd:dbgrptt.obj
 0002:000159e8       ??_C@_1FK@HPADHBBD@?$AAw?$AAc?$AAs?$AAc?$AAa?$AAt?$AA_?$AAs?$AA?$CI?$AAs?$AAz?$AAL?$AAi?$AAn?$AAe?$AAM?$AAe?$AAs?$AAs?$AAa?$AAg?$AAe?$AA?0?$AA?5?$AA4?$AA0?$AA9?$AA6?$AA?0?$AA?5?$AAs?$AAz@ 100de9e8     libucrtd:dbgrptt.obj
 0002:00015a58       ??_C@_1EK@NMDFGHMF@?$AAw?$AAc?$AAs?$AAc?$AAa?$AAt?$AA_?$AAs?$AA?$CI?$AAs?$AAz?$AAL?$AAi?$AAn?$AAe?$AAM?$AAe?$AAs?$AAs?$AAa?$AAg?$AAe?$AA?0?$AA?5?$AA4?$AA0?$AA9?$AA6?$AA?0?$AA?5?$AAL?$AA?$CC@ 100dea58     libucrtd:dbgrptt.obj
 0002:00015ab0       ??_C@_13CMNBPIDO@?$AA?$AN?$AA?$AA@ 100deab0     libucrtd:dbgrptt.obj
 0002:00015ab8       ??_C@_1EK@PHCBEDKB@?$AAw?$AAc?$AAs?$AAc?$AAa?$AAt?$AA_?$AAs?$AA?$CI?$AAs?$AAz?$AAL?$AAi?$AAn?$AAe?$AAM?$AAe?$AAs?$AAs?$AAa?$AAg?$AAe?$AA?0?$AA?5?$AA4?$AA0?$AA9?$AA6?$AA?0?$AA?5?$AAL?$AA?$CC@ 100deab8     libucrtd:dbgrptt.obj
 0002:00015b10       ??_C@_1BM@GIBPMLNL@?$AA?$CF?$AAl?$AAs?$AA?$CI?$AA?$CF?$AAd?$AA?$CJ?$AA?5?$AA?3?$AA?5?$AA?$CF?$AAl?$AAs?$AA?$AA@ 100deb10     libucrtd:dbgrptt.obj
 0002:00015b38       ??_C@_1JI@EACPGHID@?$AAw?$AAc?$AAs?$AAc?$AAp?$AAy?$AA_?$AAs?$AA?$CI?$AAs?$AAz?$AAO?$AAu?$AAt?$AAM?$AAe?$AAs?$AAs?$AAa?$AAg?$AAe?$AA?0?$AA?5?$AA4?$AA0?$AA9?$AA6?$AA?0?$AA?5?$AAL?$AA?$CC?$AA_@ 100deb38     libucrtd:dbgrptt.obj
 0002:00015bf0       ??_C@_1FI@DBAIJPJE@?$AAw?$AAc?$AAs?$AAc?$AAp?$AAy?$AA_?$AAs?$AA?$CI?$AAs?$AAz?$AAO?$AAu?$AAt?$AAM?$AAe?$AAs?$AAs?$AAa?$AAg?$AAe?$AA?0?$AA?5?$AA4?$AA0?$AA9?$AA6?$AA?0?$AA?5?$AAs?$AAz?$AAL@ 100debf0     libucrtd:dbgrptt.obj
 0002:00015c60       ??_C@_1IK@LEBMBAP@?$AAw?$AAc?$AAs?$AAt?$AAo?$AAm?$AAb?$AAs?$AA_?$AAs?$AA?$CI?$AAn?$AAu?$AAl?$AAl?$AAp?$AAt?$AAr?$AA?0?$AA?5?$AAs?$AAz?$AAO?$AAu?$AAt?$AAM?$AAe?$AAs?$AAs?$AAa?$AAg?$AAe@ 100dec60     libucrtd:dbgrptt.obj
 0002:00015d08       ??_C@_1MA@LBAMNNOB@?$AAs?$AAt?$AAr?$AAc?$AAp?$AAy?$AA_?$AAs?$AA?$CI?$AAs?$AAz?$AAO?$AAu?$AAt?$AAM?$AAe?$AAs?$AAs?$AAa?$AAg?$AAe?$AA2?$AA?0?$AA?5?$AA4?$AA0?$AA9?$AA6?$AA?0?$AA?5?$AA?$CC?$AA_@ 100ded08     libucrtd:dbgrptt.obj
 0002:00015df0       ??_C@_0DP@GNPEPHJD@_CrtDbgReport?3?5String?5too?5long?5o@ 100dedf0     libucrtd:dbgrptt.obj
 0002:00015e40       ??_C@_1IE@CPGKIAGP@?$AAw?$AAc?$AAs?$AAt?$AAo?$AAm?$AAb?$AAs?$AA_?$AAs?$AA?$CI?$AA?$CG?$AAr?$AAe?$AAt?$AA?0?$AA?5?$AAs?$AAz?$AAa?$AAO?$AAu?$AAt?$AAM?$AAe?$AAs?$AAs?$AAa?$AAg?$AAe?$AA?0?$AA?5@ 100dee40     libucrtd:dbgrptt.obj
 0002:00016090       ??_C@_1CE@JMFACANE@?$AAr?$AAe?$AAs?$AAu?$AAl?$AAt?$AA?5?$AA?$CB?$AA?$DN?$AA?5?$AAn?$AAu?$AAl?$AAl?$AAp?$AAt?$AAr?$AA?$AA@ 100df090     libucrtd:errno.obj
 0002:000160c0       ??_C@_1FM@MJJGEFKM@?$AAm?$AAi?$AAn?$AAk?$AAe?$AAr?$AAn?$AAe?$AAl?$AA?2?$AAc?$AAr?$AAt?$AAs?$AA?2?$AAu?$AAc?$AAr?$AAt?$AA?2?$AAs?$AAr?$AAc?$AA?2?$AAa?$AAp?$AAp?$AAc?$AAr?$AAt?$AA?2?$AAm@ 100df0c0     libucrtd:errno.obj
 0002:00016130       ??_C@_1BG@KCMPBBDK@?$AA_?$AAg?$AAe?$AAt?$AA_?$AAe?$AAr?$AAr?$AAn?$AAo?$AA?$AA@ 100df130     libucrtd:errno.obj
 0002:0001614c       ??_C@_1BM@INIPHHDD@?$AA_?$AAg?$AAe?$AAt?$AA_?$AAd?$AAo?$AAs?$AAe?$AAr?$AAr?$AAn?$AAo?$AA?$AA@ 100df14c     libucrtd:errno.obj
 0002:00016170       ??_C@_0CP@JIIONAG@minkernel?2crts?2ucrt?2src?2appcrt?2m@ 100df170     libucrtd:signal.obj
 0002:000161a8       ??_C@_1DA@NBILLKNO@?$AAl?$AAo?$AAc?$AAa?$AAl?$AA_?$AAa?$AAc?$AAt?$AAi?$AAo?$AAn?$AA?5?$AA?$CB?$AA?$DN?$AA?5?$AAn?$AAu?$AAl?$AAl?$AAp?$AAt?$AAr?$AA?$AA@ 100df1a8     libucrtd:signal.obj
 0002:000161e8       ??_C@_1FO@CCGDPEKE@?$AAm?$AAi?$AAn?$AAk?$AAe?$AAr?$AAn?$AAe?$AAl?$AA?2?$AAc?$AAr?$AAt?$AAs?$AA?2?$AAu?$AAc?$AAr?$AAt?$AA?2?$AAs?$AAr?$AAc?$AA?2?$AAa?$AAp?$AAp?$AAc?$AAr?$AAt?$AA?2?$AAm@ 100df1e8     libucrtd:signal.obj
 0002:00016258       ??_C@_1M@DMJEIKHL@?$AAr?$AAa?$AAi?$AAs?$AAe?$AA?$AA@ 100df258     libucrtd:signal.obj
 0002:00016268       ??_C@_1DO@MLNEDKGB@?$AA?$CI?$AA?$CC?$AAI?$AAn?$AAv?$AAa?$AAl?$AAi?$AAd?$AA?5?$AAs?$AAi?$AAg?$AAn?$AAa?$AAl?$AA?5?$AAo?$AAr?$AA?5?$AAe?$AAr?$AAr?$AAo?$AAr?$AA?$CC?$AA?0?$AA?5?$AA0?$AA?$CJ?$AA?$AA@ 100df268     libucrtd:signal.obj
 0002:000162b4       ??_C@_1CC@LLFJPCJO@?$AAn?$AAe?$AAw?$AA_?$AAh?$AAa?$AAn?$AAd?$AAl?$AAe?$AAr?$AA?5?$AA?$DN?$AA?$DN?$AA?5?$AA0?$AA?$AA@ 100df2b4     libucrtd:new_handler.obj
 0002:000162e0       ??_C@_1GI@GALDAPMM@?$AAm?$AAi?$AAn?$AAk?$AAe?$AAr?$AAn?$AAe?$AAl?$AA?2?$AAc?$AAr?$AAt?$AAs?$AA?2?$AAu?$AAc?$AAr?$AAt?$AA?2?$AAs?$AAr?$AAc?$AA?2?$AAa?$AAp?$AAp?$AAc?$AAr?$AAt?$AA?2?$AAh@ 100df2e0     libucrtd:new_handler.obj
 0002:0001635c       ??_C@_1BG@HHIFPOEK@?$AAm?$AAs?$AAv?$AAc?$AAr?$AAt?$AA?4?$AAd?$AAl?$AAl?$AA?$AA@ 100df35c     libucrtd:free_base.obj
 0002:00016378       ??_C@_1CE@NPMGPNNP@?$AAI?$AAS?$AA_?$AA2?$AA_?$AAP?$AAO?$AAW?$AA_?$AAN?$AA?$CI?$AAa?$AAl?$AAi?$AAg?$AAn?$AA?$CJ?$AA?$AA@ 100df378     libucrtd:align.obj
 0002:000163a8       ??_C@_1FM@GHAMPDNO@?$AAm?$AAi?$AAn?$AAk?$AAe?$AAr?$AAn?$AAe?$AAl?$AA?2?$AAc?$AAr?$AAt?$AAs?$AA?2?$AAu?$AAc?$AAr?$AAt?$AA?2?$AAs?$AAr?$AAc?$AA?2?$AAa?$AAp?$AAp?$AAc?$AAr?$AAt?$AA?2?$AAh@ 100df3a8     libucrtd:align.obj
 0002:00016418       ??_C@_1DI@LCGAEAA@?$AA_?$AAa?$AAl?$AAi?$AAg?$AAn?$AAe?$AAd?$AA_?$AAo?$AAf?$AAf?$AAs?$AAe?$AAt?$AA_?$AAm?$AAa?$AAl?$AAl?$AAo?$AAc?$AA_?$AAb?$AAa?$AAs?$AAe?$AA?$AA@ 100df418     libucrtd:align.obj
 0002:0001645c       ??_C@_1DK@PBMGAKHJ@?$AA_?$AAa?$AAl?$AAi?$AAg?$AAn?$AAe?$AAd?$AA_?$AAo?$AAf?$AAf?$AAs?$AAe?$AAt?$AA_?$AAr?$AAe?$AAa?$AAl?$AAl?$AAo?$AAc?$AA_?$AAb?$AAa?$AAs?$AAe?$AA?$AA@ 100df45c     libucrtd:align.obj
 0002:000164a4       ??_C@_1CI@DHKEEEHJ@?$AA_?$AAa?$AAl?$AAi?$AAg?$AAn?$AAe?$AAd?$AA_?$AAm?$AAs?$AAi?$AAz?$AAe?$AA_?$AAb?$AAa?$AAs?$AAe?$AA?$AA@ 100df4a4     libucrtd:align.obj
 0002:000164d4       ??_C@_1CI@JELMFMDH@?$AAc?$AA?5?$AA?$DO?$AA?$DN?$AA?5?$AA?9?$AA1?$AA?5?$AA?$CG?$AA?$CG?$AA?5?$AAc?$AA?5?$AA?$DM?$AA?$DN?$AA?5?$AA2?$AA5?$AA5?$AA?$AA@ 100df4d4     libucrtd:isctype.obj
 0002:00016508       ??_C@_1GG@KPBGDFHJ@?$AAm?$AAi?$AAn?$AAk?$AAe?$AAr?$AAn?$AAe?$AAl?$AA?2?$AAc?$AAr?$AAt?$AAs?$AA?2?$AAu?$AAc?$AAr?$AAt?$AA?2?$AAs?$AAr?$AAc?$AA?2?$AAa?$AAp?$AAp?$AAc?$AAr?$AAt?$AA?2?$AAc@ 100df508     libucrtd:isctype.obj
 0002:00016584       ??_C@_0DM@DKIFNNOL@minkernel?2crts?2ucrt?2src?2appcrt?2i@ 100df584     libucrtd:per_thread_data.obj
 0002:000165d0       ??_C@_1FO@GEKPJHID@?$AAm?$AAi?$AAn?$AAk?$AAe?$AAr?$AAn?$AAe?$AAl?$AA?2?$AAc?$AAr?$AAt?$AAs?$AA?2?$AAu?$AAc?$AAr?$AAt?$AA?2?$AAs?$AAr?$AAc?$AA?2?$AAa?$AAp?$AAp?$AAc?$AAr?$AAt?$AA?2?$AAh@ 100df5d0     libucrtd:expand.obj
 0002:00016640       ??_C@_1BK@JMCGJOCC@?$AA_?$AAe?$AAx?$AAp?$AAa?$AAn?$AAd?$AA_?$AAb?$AAa?$AAs?$AAe?$AA?$AA@ 100df640     libucrtd:expand.obj
 0002:00016660       ??_C@_1CO@JKFLNGDK@?$AAm?$AAo?$AAd?$AAe?$AA?5?$AA?$DN?$AA?$DN?$AA?5?$AA0?$AA?5?$AA?$HM?$AA?$HM?$AA?5?$AAm?$AAo?$AAd?$AAe?$AA?5?$AA?$DN?$AA?$DN?$AA?5?$AA1?$AA?$AA@ 100df660     libucrtd:new_mode.obj
 0002:00016698       ??_C@_1GC@PJMKBHEK@?$AAm?$AAi?$AAn?$AAk?$AAe?$AAr?$AAn?$AAe?$AAl?$AA?2?$AAc?$AAr?$AAt?$AAs?$AA?2?$AAu?$AAc?$AAr?$AAt?$AA?2?$AAs?$AAr?$AAc?$AA?2?$AAa?$AAp?$AAp?$AAc?$AAr?$AAt?$AA?2?$AAh@ 100df698     libucrtd:new_mode.obj
 0002:00016710       ??_C@_1BM@PDPAKJNF@?$AA_?$AAs?$AAe?$AAt?$AA_?$AAn?$AAe?$AAw?$AA_?$AAm?$AAo?$AAd?$AAe?$AA?$AA@ 100df710     libucrtd:new_mode.obj
 0002:00016738       ___lc_category             100df738     libucrtd:wsetlocale.obj
 0002:00016790       ??_C@_1O@GIFLHMA@?$AAL?$AAC?$AA_?$AAA?$AAL?$AAL?$AA?$AA@ 100df790     libucrtd:wsetlocale.obj
 0002:000167a0       ??_C@_1BG@PPOMIBNJ@?$AAL?$AAC?$AA_?$AAC?$AAO?$AAL?$AAL?$AAA?$AAT?$AAE?$AA?$AA@ 100df7a0     libucrtd:wsetlocale.obj
 0002:000167bc       ??_C@_1BC@FFJGAPJM@?$AAL?$AAC?$AA_?$AAC?$AAT?$AAY?$AAP?$AAE?$AA?$AA@ 100df7bc     libucrtd:wsetlocale.obj
 0002:000167d4       ??_C@_1BI@PCKFNJFB@?$AAL?$AAC?$AA_?$AAM?$AAO?$AAN?$AAE?$AAT?$AAA?$AAR?$AAY?$AA?$AA@ 100df7d4     libucrtd:wsetlocale.obj
 0002:000167f0       ??_C@_1BG@ENIEDKID@?$AAL?$AAC?$AA_?$AAN?$AAU?$AAM?$AAE?$AAR?$AAI?$AAC?$AA?$AA@ 100df7f0     libucrtd:wsetlocale.obj
 0002:0001680c       ??_C@_1BA@HAAOMIIG@?$AAL?$AAC?$AA_?$AAT?$AAI?$AAM?$AAE?$AA?$AA@ 100df80c     libucrtd:wsetlocale.obj
 0002:000168b8       ??_C@_1GA@LDEGDKD@?$AA?$CI?$AA?$CC?$AAI?$AAn?$AAv?$AAa?$AAl?$AAi?$AAd?$AA?5?$AAp?$AAa?$AAr?$AAa?$AAm?$AAe?$AAt?$AAe?$AAr?$AA?5?$AAf?$AAo?$AAr?$AA?5?$AA_?$AAc?$AAo?$AAn?$AAf?$AAi?$AAg?$AAt@ 100df8b8     libucrtd:wsetlocale.obj
 0002:00016930       ??_C@_1GK@DPKNLBIE@?$AAm?$AAi?$AAn?$AAk?$AAe?$AAr?$AAn?$AAe?$AAl?$AA?2?$AAc?$AAr?$AAt?$AAs?$AA?2?$AAu?$AAc?$AAr?$AAt?$AA?2?$AAs?$AAr?$AAc?$AA?2?$AAa?$AAp?$AAp?$AAc?$AAr?$AAt?$AA?2?$AAl@ 100df930     libucrtd:wsetlocale.obj
 0002:000169b0       ??_C@_1CI@FGIONOJM@?$AA_?$AAc?$AAo?$AAn?$AAf?$AAi?$AAg?$AAt?$AAh?$AAr?$AAe?$AAa?$AAd?$AAl?$AAo?$AAc?$AAa?$AAl?$AAe?$AA?$AA@ 100df9b0     libucrtd:wsetlocale.obj
 0002:000169e0       ??_C@_0DF@MKMHJGEJ@minkernel?2crts?2ucrt?2src?2appcrt?2l@ 100df9e0     libucrtd:wsetlocale.obj
 0002:00016a20       ??_C@_1FG@OHLFEKMC@?$AAL?$AAC?$AA_?$AAM?$AAI?$AAN?$AA?5?$AA?$DM?$AA?$DN?$AA?5?$AA_?$AAc?$AAa?$AAt?$AAe?$AAg?$AAo?$AAr?$AAy?$AA?5?$AA?$CG?$AA?$CG?$AA?5?$AA_?$AAc?$AAa?$AAt?$AAe?$AAg?$AAo?$AAr?$AAy@ 100dfa20     libucrtd:wsetlocale.obj
 0002:00016a88       ??_C@_1BI@KJNPAEHL@?$AA_?$AAw?$AAs?$AAe?$AAt?$AAl?$AAo?$AAc?$AAa?$AAl?$AAe?$AA?$AA@ 100dfa88     libucrtd:wsetlocale.obj
 0002:00016aa4       ??_C@_15NBPDDFIP@?$AA?$DN?$AA?$DL?$AA?$AA@ 100dfaa4     libucrtd:wsetlocale.obj
 0002:00016aac       ??_C@_13PJJBFPED@?$AA?$DL?$AA?$AA@ 100dfaac     libucrtd:wsetlocale.obj
 0002:00016ab0       ??_C@_1CG@DKJCBBPP@?$AA_?$AAw?$AAs?$AAe?$AAt?$AAl?$AAo?$AAc?$AAa?$AAl?$AAe?$AA_?$AAn?$AAo?$AAl?$AAo?$AAc?$AAk?$AA?$AA@ 100dfab0     libucrtd:wsetlocale.obj
 0002:00016ae0       ??_C@_1IG@NGDCPCDE@?$AAw?$AAc?$AAs?$AAn?$AAc?$AAp?$AAy?$AA_?$AAs?$AA?$CI?$AAl?$AAc?$AAt?$AAe?$AAm?$AAp?$AA?0?$AA?5?$AA?$CI?$AAs?$AAi?$AAz?$AAe?$AAo?$AAf?$AA?$CI?$AA?$CK?$AA_?$AA_?$AAc?$AAo?$AAu@ 100dfae0     libucrtd:wsetlocale.obj
 0002:00016b80       ??_C@_1CI@ODOPEMNJ@?$AA_?$AAw?$AAs?$AAe?$AAt?$AAl?$AAo?$AAc?$AAa?$AAl?$AAe?$AA_?$AAs?$AAe?$AAt?$AA_?$AAc?$AAa?$AAt?$AA?$AA@ 100dfb80     libucrtd:wsetlocale.obj
 0002:00016bb0       ??_C@_1EM@MHOCNIAA@?$AAw?$AAc?$AAs?$AAc?$AAp?$AAy?$AA_?$AAs?$AA?$CI?$AAp?$AAc?$AAh?$AA_?$AAc?$AAa?$AAt?$AA_?$AAl?$AAo?$AAc?$AAa?$AAl?$AAe?$AA?0?$AA?5?$AAc?$AAc?$AAh?$AA?0?$AA?5?$AAl?$AAc@ 100dfbb0     libucrtd:wsetlocale.obj
 0002:00016c0c       ??_C@_13NMPKAAJP@?$AA?$DN?$AA?$AA@ 100dfc0c     libucrtd:wsetlocale.obj
 0002:00016c10       ??_C@_1CI@LKOPFFBD@?$AA_?$AAw?$AAs?$AAe?$AAt?$AAl?$AAo?$AAc?$AAa?$AAl?$AAe?$AA_?$AAg?$AAe?$AAt?$AA_?$AAa?$AAl?$AAl?$AA?$AA@ 100dfc10     libucrtd:wsetlocale.obj
 0002:00016c40       ??_C@_1DC@HMLJMODP@?$AAw?$AAc?$AAs?$AAc?$AAa?$AAt?$AA_?$AAs?$AA?$CI?$AAp?$AAc?$AAh?$AA?0?$AA?5?$AAc?$AAc?$AAh?$AA?0?$AA?5?$AAL?$AA?$CC?$AA?$DL?$AA?$CC?$AA?$CJ?$AA?$AA@ 100dfc40     libucrtd:wsetlocale.obj
 0002:00016c7c       ??_C@_1BM@OIIBLEFG@?$AA_?$AAe?$AAx?$AAp?$AAa?$AAn?$AAd?$AAl?$AAo?$AAc?$AAa?$AAl?$AAe?$AA?$AA@ 100dfc7c     libucrtd:wsetlocale.obj
 0002:00016ca0       ??_C@_1BCM@BOFLACKH@?$AAw?$AAc?$AAs?$AAn?$AAc?$AAp?$AAy?$AA_?$AAs?$AA?$CI?$AAl?$AAo?$AAc?$AAa?$AAl?$AAe?$AAN?$AAa?$AAm?$AAe?$AAO?$AAu?$AAt?$AAp?$AAu?$AAt?$AA?0?$AA?5?$AAl?$AAo?$AAc?$AAa@ 100dfca0     libucrtd:wsetlocale.obj
 0002:00016e08       ??_C@_1EI@OCINLCHN@?$AAw?$AAc?$AAs?$AAc?$AAp?$AAy?$AA_?$AAs?$AA?$CI?$AAo?$AAu?$AAt?$AAp?$AAu?$AAt?$AA?0?$AA?5?$AAs?$AAi?$AAz?$AAe?$AAI?$AAn?$AAC?$AAh?$AAa?$AAr?$AAs?$AA?0?$AA?5?$AAL?$AA?$CC@ 100dfe08     libucrtd:wsetlocale.obj
 0002:00016e60       ??_C@_13FHBKNHDA@?$AAC?$AA?$AA@ 100dfe60     libucrtd:wsetlocale.obj
 0002:00016e68       ??_C@_1MO@NNCNEOAP@?$AAw?$AAc?$AAs?$AAn?$AAc?$AAp?$AAy?$AA_?$AAs?$AA?$CI?$AAl?$AAo?$AAc?$AAa?$AAl?$AAe?$AAN?$AAa?$AAm?$AAe?$AAO?$AAu?$AAt?$AAp?$AAu?$AAt?$AA?0?$AA?5?$AAl?$AAo?$AAc?$AAa@ 100dfe68     libucrtd:wsetlocale.obj
 0002:00016f60       ??_C@_1IG@MKDIEKFD@?$AAw?$AAc?$AAs?$AAn?$AAc?$AAp?$AAy?$AA_?$AAs?$AA?$CI?$AAc?$AAa?$AAc?$AAh?$AAe?$AAo?$AAu?$AAt?$AA?0?$AA?5?$AAc?$AAa?$AAc?$AAh?$AAe?$AAo?$AAu?$AAt?$AAL?$AAe?$AAn?$AA?0@ 100dff60     libucrtd:wsetlocale.obj
 0002:00017000       ??_C@_1KK@KMIFPBBC@?$AAw?$AAc?$AAs?$AAn?$AAc?$AAp?$AAy?$AA_?$AAs?$AA?$CI?$AAl?$AAo?$AAc?$AAa?$AAl?$AAe?$AAN?$AAa?$AAm?$AAe?$AAO?$AAu?$AAt?$AAp?$AAu?$AAt?$AA?0?$AA?5?$AAl?$AAo?$AAc?$AAa@ 100e0000     libucrtd:wsetlocale.obj
 0002:000170d0       ??_C@_1BBO@MGLBPLBP@?$AAw?$AAc?$AAs?$AAn?$AAc?$AAp?$AAy?$AA_?$AAs?$AA?$CI?$AA_?$AAp?$AAs?$AAe?$AAt?$AAl?$AAo?$AAc?$AA_?$AAd?$AAa?$AAt?$AAa?$AA?9?$AA?$DO?$AA_?$AAc?$AAa?$AAc?$AAh?$AAe?$AAL@ 100e00d0     libucrtd:wsetlocale.obj
 0002:00017228       ??_C@_1BDK@DHHMOMPJ@?$AAw?$AAc?$AAs?$AAn?$AAc?$AAp?$AAy?$AA_?$AAs?$AA?$CI?$AA_?$AAp?$AAs?$AAe?$AAt?$AAl?$AAo?$AAc?$AA_?$AAd?$AAa?$AAt?$AAa?$AA?9?$AA?$DO?$AA_?$AAc?$AAa?$AAc?$AAh?$AAe?$AAL@ 100e0228     libucrtd:wsetlocale.obj
 0002:000173a0       ??_C@_1IC@FCCDBGLL@?$AAw?$AAc?$AAs?$AAn?$AAc?$AAp?$AAy?$AA_?$AAs?$AA?$CI?$AAc?$AAa?$AAc?$AAh?$AAe?$AAi?$AAn?$AA?0?$AA?5?$AAc?$AAa?$AAc?$AAh?$AAe?$AAi?$AAn?$AAL?$AAe?$AAn?$AA?0?$AA?5?$AAe@ 100e03a0     libucrtd:wsetlocale.obj
 0002:00017440       ??_C@_1FA@HOOAAHFF@?$AAw?$AAc?$AAs?$AAc?$AAp?$AAy?$AA_?$AAs?$AA?$CI?$AAo?$AAu?$AAt?$AAp?$AAu?$AAt?$AA?0?$AA?5?$AAs?$AAi?$AAz?$AAe?$AAI?$AAn?$AAC?$AAh?$AAa?$AAr?$AAs?$AA?0?$AA?5?$AAc?$AAa@ 100e0440     libucrtd:wsetlocale.obj
 0002:000174a0       ??_C@_1BC@LEOKFFML@?$AA_?$AAw?$AAc?$AAs?$AAc?$AAa?$AAt?$AAs?$AA?$AA@ 100e04a0     libucrtd:wsetlocale.obj
 0002:000174b8       ??_C@_1BHK@BGMBCJOP@?$AAw?$AAc?$AAs?$AAc?$AAa?$AAt?$AA_?$AAs?$AA?$CI?$AAo?$AAu?$AAt?$AAs?$AAt?$AAr?$AA?0?$AA?5?$AAn?$AAu?$AAm?$AAb?$AAe?$AAr?$AAO?$AAf?$AAE?$AAl?$AAe?$AAm?$AAe?$AAn?$AAt@ 100e04b8     libucrtd:wsetlocale.obj
 0002:00017680       ??_C@_1BK@GNCHCGCN@?$AA_?$AA_?$AAl?$AAc?$AA_?$AAw?$AAc?$AAs?$AAt?$AAo?$AAl?$AAc?$AA?$AA@ 100e0680     libucrtd:wsetlocale.obj
 0002:000176a0       ??_C@_1MI@MGHKCMFH@?$AAw?$AAc?$AAs?$AAn?$AAc?$AAp?$AAy?$AA_?$AAs?$AA?$CI?$AAn?$AAa?$AAm?$AAe?$AAs?$AA?9?$AA?$DO?$AAs?$AAz?$AAC?$AAo?$AAd?$AAe?$AAP?$AAa?$AAg?$AAe?$AA?0?$AA?5?$AA?$CI?$AAs?$AAi@ 100e06a0     libucrtd:wsetlocale.obj
 0002:00017790       ??_C@_17MBJJLFDM@?$AA_?$AA?4?$AA?0?$AA?$AA@ 100e0790     libucrtd:wsetlocale.obj
 0002:000177a0       ??_C@_1LO@GGCCDNLJ@?$AAw?$AAc?$AAs?$AAn?$AAc?$AAp?$AAy?$AA_?$AAs?$AA?$CI?$AAn?$AAa?$AAm?$AAe?$AAs?$AA?9?$AA?$DO?$AAs?$AAz?$AAL?$AAa?$AAn?$AAg?$AAu?$AAa?$AAg?$AAe?$AA?0?$AA?5?$AA?$CI?$AAs?$AAi@ 100e07a0     libucrtd:wsetlocale.obj
 0002:00017888       ??_C@_1LK@JOIOCOID@?$AAw?$AAc?$AAs?$AAn?$AAc?$AAp?$AAy?$AA_?$AAs?$AA?$CI?$AAn?$AAa?$AAm?$AAe?$AAs?$AA?9?$AA?$DO?$AAs?$AAz?$AAC?$AAo?$AAu?$AAn?$AAt?$AAr?$AAy?$AA?0?$AA?5?$AA?$CI?$AAs?$AAi?$AAz@ 100e0888     libucrtd:wsetlocale.obj
 0002:00017968       ??_C@_1LO@OJICFEP@?$AAw?$AAc?$AAs?$AAn?$AAc?$AAp?$AAy?$AA_?$AAs?$AA?$CI?$AAn?$AAa?$AAm?$AAe?$AAs?$AA?9?$AA?$DO?$AAs?$AAz?$AAC?$AAo?$AAd?$AAe?$AAP?$AAa?$AAg?$AAe?$AA?0?$AA?5?$AA?$CI?$AAs?$AAi@ 100e0968     libucrtd:wsetlocale.obj
 0002:00017a4c       ??_C@_1BK@HEBMGPEK@?$AA_?$AA_?$AAl?$AAc?$AA_?$AAl?$AAc?$AAt?$AAo?$AAw?$AAc?$AAs?$AA?$AA@ 100e0a4c     libucrtd:wsetlocale.obj
 0002:00017a70       ??_C@_1GM@FOFMGOEK@?$AAw?$AAc?$AAs?$AAc?$AAp?$AAy?$AA_?$AAs?$AA?$CI?$AAl?$AAo?$AAc?$AAa?$AAl?$AAe?$AA?0?$AA?5?$AAn?$AAu?$AAm?$AAb?$AAe?$AAr?$AAO?$AAf?$AAE?$AAl?$AAe?$AAm?$AAe?$AAn?$AAt@ 100e0a70     libucrtd:wsetlocale.obj
 0002:00017af4       ??_C@_13ENNFDPBH@?$AA_?$AA?$AA@ 100e0af4     libucrtd:wsetlocale.obj
 0002:00017af8       ??_C@_13JOFGPIOO@?$AA?4?$AA?$AA@ 100e0af8     libucrtd:wsetlocale.obj
 0002:00017afc       ??_C@_1DA@BBIOOKDN@?$AA_?$AA_?$AAa?$AAc?$AAr?$AAt?$AA_?$AAc?$AAo?$AAp?$AAy?$AA_?$AAl?$AAo?$AAc?$AAa?$AAl?$AAe?$AA_?$AAn?$AAa?$AAm?$AAe?$AA?$AA@ 100e0afc     libucrtd:wsetlocale.obj
 0002:00017b38       ??_C@_1GI@HBNMCKGD@?$AAw?$AAc?$AAs?$AAn?$AAc?$AAp?$AAy?$AA_?$AAs?$AA?$CI?$AAl?$AAo?$AAc?$AAa?$AAl?$AAe?$AAN?$AAa?$AAm?$AAe?$AAC?$AAo?$AAp?$AAy?$AA?0?$AA?5?$AAc?$AAc?$AAh?$AA?$CL?$AA1?$AA?0@ 100e0b38     libucrtd:wsetlocale.obj
 0002:00017bb4       ??_C@_03KOEHGMDN@Sun?$AA@  100e0bb4     libucrtd:nlsdata.obj
 0002:00017bb8       ??_C@_03PDAGKDH@Mon?$AA@   100e0bb8     libucrtd:nlsdata.obj
 0002:00017bbc       ??_C@_03NAGEINEP@Tue?$AA@  100e0bbc     libucrtd:nlsdata.obj
 0002:00017bc0       ??_C@_03MHOMLAJA@Wed?$AA@  100e0bc0     libucrtd:nlsdata.obj
 0002:00017bc4       ??_C@_03IOFIKPDN@Thu?$AA@  100e0bc4     libucrtd:nlsdata.obj
 0002:00017bc8       ??_C@_03IDIOELNC@Fri?$AA@  100e0bc8     libucrtd:nlsdata.obj
 0002:00017bcc       ??_C@_03FEFJNEK@Sat?$AA@   100e0bcc     libucrtd:nlsdata.obj
 0002:00017bd0       ??_C@_06OOPIFAJ@Sunday?$AA@ 100e0bd0     libucrtd:nlsdata.obj
 0002:00017bd8       ??_C@_06JLEDEDGH@Monday?$AA@ 100e0bd8     libucrtd:nlsdata.obj
 0002:00017be0       ??_C@_07BAAGCFCM@Tuesday?$AA@ 100e0be0     libucrtd:nlsdata.obj
 0002:00017bec       ??_C@_09DLIGFAKA@Wednesday?$AA@ 100e0bec     libucrtd:nlsdata.obj
 0002:00017bf8       ??_C@_08HACCIKIA@Thursday?$AA@ 100e0bf8     libucrtd:nlsdata.obj
 0002:00017c04       ??_C@_06JECMNKMI@Friday?$AA@ 100e0c04     libucrtd:nlsdata.obj
 0002:00017c0c       ??_C@_08INBOOONO@Saturday?$AA@ 100e0c0c     libucrtd:nlsdata.obj
 0002:00017c18       ??_C@_03JIHJHPIE@Jan?$AA@  100e0c18     libucrtd:nlsdata.obj
 0002:00017c1c       ??_C@_03HJBDCHOM@Feb?$AA@  100e0c1c     libucrtd:nlsdata.obj
 0002:00017c20       ??_C@_03ODNJBKGA@Mar?$AA@  100e0c20     libucrtd:nlsdata.obj
 0002:00017c24       ??_C@_03LEOLGMJP@Apr?$AA@  100e0c24     libucrtd:nlsdata.obj
 0002:00017c28       ??_C@_03CNMDKL@May?$AA@    100e0c28     libucrtd:nlsdata.obj
 0002:00017c2c       ??_C@_03IDFGHECI@Jun?$AA@  100e0c2c     libucrtd:nlsdata.obj
 0002:00017c30       ??_C@_03LBGABGKK@Jul?$AA@  100e0c30     libucrtd:nlsdata.obj
 0002:00017c34       ??_C@_03IFJFEIGA@Aug?$AA@  100e0c34     libucrtd:nlsdata.obj
 0002:00017c38       ??_C@_03GGCAPAJC@Sep?$AA@  100e0c38     libucrtd:nlsdata.obj
 0002:00017c3c       ??_C@_03BMAOKBAD@Oct?$AA@  100e0c3c     libucrtd:nlsdata.obj
 0002:00017c40       ??_C@_03JPJOFNIA@Nov?$AA@  100e0c40     libucrtd:nlsdata.obj
 0002:00017c44       ??_C@_03MKABNOCG@Dec?$AA@  100e0c44     libucrtd:nlsdata.obj
 0002:00017c48       ??_C@_07CGJPFGJA@January?$AA@ 100e0c48     libucrtd:nlsdata.obj
 0002:00017c54       ??_C@_08GNJGEPFN@February?$AA@ 100e0c54     libucrtd:nlsdata.obj
 0002:00017c60       ??_C@_05HPCKOFNC@March?$AA@ 100e0c60     libucrtd:nlsdata.obj
 0002:00017c68       ??_C@_05DMJDNLEJ@April?$AA@ 100e0c68     libucrtd:nlsdata.obj
 0002:00017c70       ??_C@_04CNLMGBGM@June?$AA@ 100e0c70     libucrtd:nlsdata.obj
 0002:00017c78       ??_C@_04MIEPOIFP@July?$AA@ 100e0c78     libucrtd:nlsdata.obj
 0002:00017c80       ??_C@_06LBBHFDDG@August?$AA@ 100e0c80     libucrtd:nlsdata.obj
 0002:00017c88       ??_C@_09BHHEALKD@September?$AA@ 100e0c88     libucrtd:nlsdata.obj
 0002:00017c94       ??_C@_07JJNFCEND@October?$AA@ 100e0c94     libucrtd:nlsdata.obj
 0002:00017ca0       ??_C@_08HCHEGEOA@November?$AA@ 100e0ca0     libucrtd:nlsdata.obj
 0002:00017cac       ??_C@_08EDHMEBNP@December?$AA@ 100e0cac     libucrtd:nlsdata.obj
 0002:00017cb8       ??_C@_02DEDBPAFC@AM?$AA@   100e0cb8     libucrtd:nlsdata.obj
 0002:00017cbc       ??_C@_02CJNFDJBF@PM?$AA@   100e0cbc     libucrtd:nlsdata.obj
 0002:00017cc0       ??_C@_08BPBNCDIB@MM?1dd?1yy?$AA@ 100e0cc0     libucrtd:nlsdata.obj
 0002:00017ccc       ??_C@_0BE@CKGJFCPC@dddd?0?5MMMM?5dd?0?5yyyy?$AA@ 100e0ccc     libucrtd:nlsdata.obj
 0002:00017ce4       ??_C@_08JCCMCCIL@HH?3mm?3ss?$AA@ 100e0ce4     libucrtd:nlsdata.obj
 0002:00017cf0       ??_C@_17MBGCMIPB@?$AAS?$AAu?$AAn?$AA?$AA@ 100e0cf0     libucrtd:nlsdata.obj
 0002:00017cfc       ??_C@_17KBOMKBF@?$AAM?$AAo?$AAn?$AA?$AA@ 100e0cfc     libucrtd:nlsdata.obj
 0002:00017d08       ??_C@_17BMKGEGOJ@?$AAT?$AAu?$AAe?$AA?$AA@ 100e0d08     libucrtd:nlsdata.obj
 0002:00017d14       ??_C@_17CJEDCEPE@?$AAW?$AAe?$AAd?$AA?$AA@ 100e0d14     libucrtd:nlsdata.obj
 0002:00017d20       ??_C@_17PDPHAADD@?$AAT?$AAh?$AAu?$AA?$AA@ 100e0d20     libucrtd:nlsdata.obj
 0002:00017d2c       ??_C@_17HFOLPPLP@?$AAF?$AAr?$AAi?$AA?$AA@ 100e0d2c     libucrtd:nlsdata.obj
 0002:00017d38       ??_C@_17GGIBDPIH@?$AAS?$AAa?$AAt?$AA?$AA@ 100e0d38     libucrtd:nlsdata.obj
 0002:00017d44       ??_C@_1O@IHNHDHPB@?$AAS?$AAu?$AAn?$AAd?$AAa?$AAy?$AA?$AA@ 100e0d44     libucrtd:nlsdata.obj
 0002:00017d54       ??_C@_1O@MMNBFLIA@?$AAM?$AAo?$AAn?$AAd?$AAa?$AAy?$AA?$AA@ 100e0d54     libucrtd:nlsdata.obj
 0002:00017d64       ??_C@_1BA@ENFBFFEK@?$AAT?$AAu?$AAe?$AAs?$AAd?$AAa?$AAy?$AA?$AA@ 100e0d64     libucrtd:nlsdata.obj
 0002:00017d78       ??_C@_1BE@EBOGMDOH@?$AAW?$AAe?$AAd?$AAn?$AAe?$AAs?$AAd?$AAa?$AAy?$AA?$AA@ 100e0d78     libucrtd:nlsdata.obj
 0002:00017d90       ??_C@_1BC@HHMNLIHE@?$AAT?$AAh?$AAu?$AAr?$AAs?$AAd?$AAa?$AAy?$AA?$AA@ 100e0d90     libucrtd:nlsdata.obj
 0002:00017da8       ??_C@_1O@PDICJHAG@?$AAF?$AAr?$AAi?$AAd?$AAa?$AAy?$AA?$AA@ 100e0da8     libucrtd:nlsdata.obj
 0002:00017db8       ??_C@_1BC@ENMNNPAJ@?$AAS?$AAa?$AAt?$AAu?$AAr?$AAd?$AAa?$AAy?$AA?$AA@ 100e0db8     libucrtd:nlsdata.obj
 0002:00017dd0       ??_C@_17DKNBKCHM@?$AAJ?$AAa?$AAn?$AA?$AA@ 100e0dd0     libucrtd:nlsdata.obj
 0002:00017ddc       ??_C@_17LMDJEKJN@?$AAF?$AAe?$AAb?$AA?$AA@ 100e0ddc     libucrtd:nlsdata.obj
 0002:00017de8       ??_C@_17CKNLEDEC@?$AAM?$AAa?$AAr?$AA?$AA@ 100e0de8     libucrtd:nlsdata.obj
 0002:00017df4       ??_C@_17LFPOIHDD@?$AAA?$AAp?$AAr?$AA?$AA@ 100e0df4     libucrtd:nlsdata.obj
 0002:00017e00       ??_C@_17PNNKMEED@?$AAM?$AAa?$AAy?$AA?$AA@ 100e0e00     libucrtd:nlsdata.obj
 0002:00017e0c       ??_C@_17KCJGOCPB@?$AAJ?$AAu?$AAn?$AA?$AA@ 100e0e0c     libucrtd:nlsdata.obj
 0002:00017e18       ??_C@_17IJPCKHK@?$AAJ?$AAu?$AAl?$AA?$AA@ 100e0e18     libucrtd:nlsdata.obj
 0002:00017e24       ??_C@_17ICPELBCN@?$AAA?$AAu?$AAg?$AA?$AA@ 100e0e24     libucrtd:nlsdata.obj
 0002:00017e30       ??_C@_17HCHCOKMG@?$AAS?$AAe?$AAp?$AA?$AA@ 100e0e30     libucrtd:nlsdata.obj
 0002:00017e3c       ??_C@_17FNLKOI@?$AAO?$AAc?$AAt?$AA?$AA@ 100e0e3c     libucrtd:nlsdata.obj
 0002:00017e48       ??_C@_17BBDMLCIG@?$AAN?$AAo?$AAv?$AA?$AA@ 100e0e48     libucrtd:nlsdata.obj
 0002:00017e54       ??_C@_17EGKACKIF@?$AAD?$AAe?$AAc?$AA?$AA@ 100e0e54     libucrtd:nlsdata.obj
 0002:00017e60       ??_C@_1BA@EFMEIEBA@?$AAJ?$AAa?$AAn?$AAu?$AAa?$AAr?$AAy?$AA?$AA@ 100e0e60     libucrtd:nlsdata.obj
 0002:00017e74       ??_C@_1BC@JGDDFFAM@?$AAF?$AAe?$AAb?$AAr?$AAu?$AAa?$AAr?$AAy?$AA?$AA@ 100e0e74     libucrtd:nlsdata.obj
 0002:00017e8c       ??_C@_1M@IKEENEDF@?$AAM?$AAa?$AAr?$AAc?$AAh?$AA?$AA@ 100e0e8c     libucrtd:nlsdata.obj
 0002:00017e9c       ??_C@_1M@GJNLMHFD@?$AAA?$AAp?$AAr?$AAi?$AAl?$AA?$AA@ 100e0e9c     libucrtd:nlsdata.obj
 0002:00017eac       ??_C@_19EPFLPGAP@?$AAJ?$AAu?$AAn?$AAe?$AA?$AA@ 100e0eac     libucrtd:nlsdata.obj
 0002:00017eb8       ??_C@_19BIFMLPCD@?$AAJ?$AAu?$AAl?$AAy?$AA?$AA@ 100e0eb8     libucrtd:nlsdata.obj
 0002:00017ec4       ??_C@_1O@PAHLKOAC@?$AAA?$AAu?$AAg?$AAu?$AAs?$AAt?$AA?$AA@ 100e0ec4     libucrtd:nlsdata.obj
 0002:00017ed4       ??_C@_1BE@DKAAMBJL@?$AAS?$AAe?$AAp?$AAt?$AAe?$AAm?$AAb?$AAe?$AAr?$AA?$AA@ 100e0ed4     libucrtd:nlsdata.obj
 0002:00017eec       ??_C@_1BA@EPANDLNG@?$AAO?$AAc?$AAt?$AAo?$AAb?$AAe?$AAr?$AA?$AA@ 100e0eec     libucrtd:nlsdata.obj
 0002:00017f00       ??_C@_1BC@BGLIFPF@?$AAN?$AAo?$AAv?$AAe?$AAm?$AAb?$AAe?$AAr?$AA?$AA@ 100e0f00     libucrtd:nlsdata.obj
 0002:00017f18       ??_C@_1BC@FEMKIFH@?$AAD?$AAe?$AAc?$AAe?$AAm?$AAb?$AAe?$AAr?$AA?$AA@ 100e0f18     libucrtd:nlsdata.obj
 0002:00017f30       ??_C@_15ODEHAHHF@?$AAA?$AAM?$AA?$AA@ 100e0f30     libucrtd:nlsdata.obj
 0002:00017f38       ??_C@_15CLMNNGEL@?$AAP?$AAM?$AA?$AA@ 100e0f38     libucrtd:nlsdata.obj
 0002:00017f40       ??_C@_1BC@IEBCMHCM@?$AAM?$AAM?$AA?1?$AAd?$AAd?$AA?1?$AAy?$AAy?$AA?$AA@ 100e0f40     libucrtd:nlsdata.obj
 0002:00017f58       ??_C@_1CI@KNAKOEBC@?$AAd?$AAd?$AAd?$AAd?$AA?0?$AA?5?$AAM?$AAM?$AAM?$AAM?$AA?5?$AAd?$AAd?$AA?0?$AA?5?$AAy?$AAy?$AAy?$AAy?$AA?$AA@ 100e0f58     libucrtd:nlsdata.obj
 0002:00017f88       ??_C@_1BC@GDGBMEMK@?$AAH?$AAH?$AA?3?$AAm?$AAm?$AA?3?$AAs?$AAs?$AA?$AA@ 100e0f88     libucrtd:nlsdata.obj
 0002:00017fa0       ??_C@_1M@BMHNFIME@?$AAe?$AAn?$AA?9?$AAU?$AAS?$AA?$AA@ 100e0fa0     libucrtd:nlsdata.obj
 0002:00017fb0       ___lc_time_c               100e0fb0     libucrtd:nlsdata.obj
 0002:0001815c       ??_C@_1CO@HCPPKOH@?$AA_?$AA_?$AAa?$AAc?$AAr?$AAt?$AA_?$AAh?$AAe?$AAa?$AAp?$AA?5?$AA?$CB?$AA?$DN?$AA?5?$AAn?$AAu?$AAl?$AAl?$AAp?$AAt?$AAr?$AA?$AA@ 100e115c     libucrtd:heap_handle.obj
 0002:00018198       ??_C@_1GI@OADBAEGE@?$AAm?$AAi?$AAn?$AAk?$AAe?$AAr?$AAn?$AAe?$AAl?$AA?2?$AAc?$AAr?$AAt?$AAs?$AA?2?$AAu?$AAc?$AAr?$AAt?$AA?2?$AAs?$AAr?$AAc?$AA?2?$AAa?$AAp?$AAp?$AAc?$AAr?$AAt?$AA?2?$AAh@ 100e1198     libucrtd:heap_handle.obj
 0002:00018278       ??_C@_1EG@CNNIPFIM@?$AAa?$AAp?$AAi?$AA?9?$AAm?$AAs?$AA?9?$AAw?$AAi?$AAn?$AA?9?$AAa?$AAp?$AAp?$AAm?$AAo?$AAd?$AAe?$AAl?$AA?9?$AAr?$AAu?$AAn?$AAt?$AAi?$AAm?$AAe?$AA?9?$AAl?$AA1?$AA?9?$AA1@ 100e1278     libucrtd:winapi_thunks.obj
 0002:000182d0       ??_C@_1EA@JGEFHKEI@?$AAa?$AAp?$AAi?$AA?9?$AAm?$AAs?$AA?9?$AAw?$AAi?$AAn?$AA?9?$AAc?$AAo?$AAr?$AAe?$AA?9?$AAd?$AAa?$AAt?$AAe?$AAt?$AAi?$AAm?$AAe?$AA?9?$AAl?$AA1?$AA?9?$AA1?$AA?9?$AA1?$AA?$AA@ 100e12d0     libucrtd:winapi_thunks.obj
 0002:0001831c       ??_C@_1DI@GCIAAENM@?$AAa?$AAp?$AAi?$AA?9?$AAm?$AAs?$AA?9?$AAw?$AAi?$AAn?$AA?9?$AAc?$AAo?$AAr?$AAe?$AA?9?$AAf?$AAi?$AAl?$AAe?$AA?9?$AAl?$AA2?$AA?9?$AA1?$AA?9?$AA1?$AA?$AA@ 100e131c     libucrtd:winapi_thunks.obj
 0002:00018360       ??_C@_1EI@MPIAOHOC@?$AAa?$AAp?$AAi?$AA?9?$AAm?$AAs?$AA?9?$AAw?$AAi?$AAn?$AA?9?$AAc?$AAo?$AAr?$AAe?$AA?9?$AAl?$AAo?$AAc?$AAa?$AAl?$AAi?$AAz?$AAa?$AAt?$AAi?$AAo?$AAn?$AA?9?$AAl?$AA1?$AA?9@ 100e1360     libucrtd:winapi_thunks.obj
 0002:000183b8       ??_C@_1FK@FPHCKFIE@?$AAa?$AAp?$AAi?$AA?9?$AAm?$AAs?$AA?9?$AAw?$AAi?$AAn?$AA?9?$AAc?$AAo?$AAr?$AAe?$AA?9?$AAl?$AAo?$AAc?$AAa?$AAl?$AAi?$AAz?$AAa?$AAt?$AAi?$AAo?$AAn?$AA?9?$AAo?$AAb?$AAs@ 100e13b8     libucrtd:winapi_thunks.obj
 0002:00018428       ??_C@_1EM@DILCGIIO@?$AAa?$AAp?$AAi?$AA?9?$AAm?$AAs?$AA?9?$AAw?$AAi?$AAn?$AA?9?$AAc?$AAo?$AAr?$AAe?$AA?9?$AAp?$AAr?$AAo?$AAc?$AAe?$AAs?$AAs?$AAt?$AAh?$AAr?$AAe?$AAa?$AAd?$AAs?$AA?9?$AAl@ 100e1428     libucrtd:winapi_thunks.obj
 0002:00018484       ??_C@_1DM@LNCGDDPN@?$AAa?$AAp?$AAi?$AA?9?$AAm?$AAs?$AA?9?$AAw?$AAi?$AAn?$AA?9?$AAc?$AAo?$AAr?$AAe?$AA?9?$AAs?$AAt?$AAr?$AAi?$AAn?$AAg?$AA?9?$AAl?$AA1?$AA?9?$AA1?$AA?9?$AA0?$AA?$AA@ 100e1484     libucrtd:winapi_thunks.obj
 0002:000184cc       ??_C@_1DO@FPAPJEMD@?$AAa?$AAp?$AAi?$AA?9?$AAm?$AAs?$AA?9?$AAw?$AAi?$AAn?$AA?9?$AAc?$AAo?$AAr?$AAe?$AA?9?$AAs?$AAy?$AAs?$AAi?$AAn?$AAf?$AAo?$AA?9?$AAl?$AA1?$AA?9?$AA2?$AA?9?$AA1?$AA?$AA@ 100e14cc     libucrtd:winapi_thunks.obj
 0002:00018518       ??_C@_1DK@NDHNAHIO@?$AAa?$AAp?$AAi?$AA?9?$AAm?$AAs?$AA?9?$AAw?$AAi?$AAn?$AA?9?$AAc?$AAo?$AAr?$AAe?$AA?9?$AAw?$AAi?$AAn?$AAr?$AAt?$AA?9?$AAl?$AA1?$AA?9?$AA1?$AA?9?$AA0?$AA?$AA@ 100e1518     libucrtd:winapi_thunks.obj
 0002:00018560       ??_C@_1DM@KGHDGBCM@?$AAa?$AAp?$AAi?$AA?9?$AAm?$AAs?$AA?9?$AAw?$AAi?$AAn?$AA?9?$AAc?$AAo?$AAr?$AAe?$AA?9?$AAx?$AAs?$AAt?$AAa?$AAt?$AAe?$AA?9?$AAl?$AA2?$AA?9?$AA1?$AA?9?$AA0?$AA?$AA@ 100e1560     libucrtd:winapi_thunks.obj
 0002:000185a8       ??_C@_1EO@IJIOEFOH@?$AAa?$AAp?$AAi?$AA?9?$AAm?$AAs?$AA?9?$AAw?$AAi?$AAn?$AA?9?$AAr?$AAt?$AAc?$AAo?$AAr?$AAe?$AA?9?$AAn?$AAt?$AAu?$AAs?$AAe?$AAr?$AA?9?$AAw?$AAi?$AAn?$AAd?$AAo?$AAw?$AA?9@ 100e15a8     libucrtd:winapi_thunks.obj
 0002:00018608       ??_C@_1FG@HHGEKANL@?$AAa?$AAp?$AAi?$AA?9?$AAm?$AAs?$AA?9?$AAw?$AAi?$AAn?$AA?9?$AAs?$AAe?$AAc?$AAu?$AAr?$AAi?$AAt?$AAy?$AA?9?$AAs?$AAy?$AAs?$AAt?$AAe?$AAm?$AAf?$AAu?$AAn?$AAc?$AAt?$AAi@ 100e1608     libucrtd:winapi_thunks.obj
 0002:00018670       ??_C@_1FG@NCKKOLKO@?$AAe?$AAx?$AAt?$AA?9?$AAm?$AAs?$AA?9?$AAw?$AAi?$AAn?$AA?9?$AAk?$AAe?$AAr?$AAn?$AAe?$AAl?$AA3?$AA2?$AA?9?$AAp?$AAa?$AAc?$AAk?$AAa?$AAg?$AAe?$AA?9?$AAc?$AAu?$AAr?$AAr@ 100e1670     libucrtd:winapi_thunks.obj
 0002:000186d8       ??_C@_1EG@DBIOJECG@?$AAe?$AAx?$AAt?$AA?9?$AAm?$AAs?$AA?9?$AAw?$AAi?$AAn?$AA?9?$AAn?$AAt?$AAu?$AAs?$AAe?$AAr?$AA?9?$AAd?$AAi?$AAa?$AAl?$AAo?$AAg?$AAb?$AAo?$AAx?$AA?9?$AAl?$AA1?$AA?9?$AA1@ 100e16d8     libucrtd:winapi_thunks.obj
 0002:00018730       ??_C@_1EO@FIHMJCLF@?$AAe?$AAx?$AAt?$AA?9?$AAm?$AAs?$AA?9?$AAw?$AAi?$AAn?$AA?9?$AAn?$AAt?$AAu?$AAs?$AAe?$AAr?$AA?9?$AAw?$AAi?$AAn?$AAd?$AAo?$AAw?$AAs?$AAt?$AAa?$AAt?$AAi?$AAo?$AAn?$AA?9@ 100e1730     libucrtd:winapi_thunks.obj
 0002:00018790       ??_C@_1O@BCCLBEOE@?$AAu?$AAs?$AAe?$AAr?$AA3?$AA2?$AA?$AA@ 100e1790     libucrtd:winapi_thunks.obj
 0002:000187a0       ??_C@_1HE@OILMBOBA@?$AAm?$AAi?$AAn?$AAk?$AAe?$AAr?$AAn?$AAe?$AAl?$AA?2?$AAc?$AAr?$AAt?$AAs?$AA?2?$AAu?$AAc?$AAr?$AAt?$AA?2?$AAs?$AAr?$AAc?$AA?2?$AAa?$AAp?$AAp?$AAc?$AAr?$AAt?$AA?2?$AAi@ 100e17a0     libucrtd:winapi_thunks.obj
 0002:00018830       ??_C@_0BA@FHFNEAED@AreFileApisANSI?$AA@ 100e1830     libucrtd:winapi_thunks.obj
 0002:00018850       ??_C@_0BA@IHGNDAEB@CompareStringEx?$AA@ 100e1850     libucrtd:winapi_thunks.obj
 0002:00018870       ??_C@_0BE@LJANKFHF@EnumSystemLocalesEx?$AA@ 100e1870     libucrtd:winapi_thunks.obj
 0002:000188c4       ??_C@_0BA@HNOPNCHB@GetActiveWindow?$AA@ 100e18c4     libucrtd:winapi_thunks.obj
 0002:000188e4       ??_C@_0BE@JOGNEJCI@GetCurrentPackageId?$AA@ 100e18e4     libucrtd:winapi_thunks.obj
 0002:00018908       ??_C@_0BA@EPCJIIPD@GetDateFormatEx?$AA@ 100e1908     libucrtd:winapi_thunks.obj
 0002:00018928       ??_C@_0BJ@DIBIJBHA@GetEnabledXStateFeatures?$AA@ 100e1928     libucrtd:winapi_thunks.obj
 0002:00018954       ??_C@_0BN@NEEHBBPO@GetFileInformationByHandleEx?$AA@ 100e1954     libucrtd:winapi_thunks.obj
 0002:00018984       ??_C@_0BD@HHGDFDBJ@GetLastActivePopup?$AA@ 100e1984     libucrtd:winapi_thunks.obj
 0002:000189a8       ??_C@_0BA@ONOKGCMP@GetLocaleInfoEx?$AA@ 100e19a8     libucrtd:winapi_thunks.obj
 0002:000189c8       ??_C@_0BI@DFKBFLJE@GetProcessWindowStation?$AA@ 100e19c8     libucrtd:winapi_thunks.obj
 0002:000189e8       ??_C@_0BP@FPNJPEJC@GetSystemTimePreciseAsFileTime?$AA@ 100e19e8     libucrtd:winapi_thunks.obj
 0002:00018a1c       ??_C@_0BA@CIJJKCJJ@GetTimeFormatEx?$AA@ 100e1a1c     libucrtd:winapi_thunks.obj
 0002:00018a3c       ??_C@_0BJ@PBCCBIPI@GetUserDefaultLocaleName?$AA@ 100e1a3c     libucrtd:winapi_thunks.obj
 0002:00018a68       ??_C@_0BK@DEKFELLI@GetUserObjectInformationW?$AA@ 100e1a68     libucrtd:winapi_thunks.obj
 0002:00018a94       ??_C@_0BG@IKLDMBLM@GetXStateFeaturesMask?$AA@ 100e1a94     libucrtd:winapi_thunks.obj
 0002:00018ac8       ??_C@_0BC@CELBKLLA@IsValidLocaleName?$AA@ 100e1ac8     libucrtd:winapi_thunks.obj
 0002:00018aec       ??_C@_0O@KKBNKAPF@LCMapStringEx?$AA@ 100e1aec     libucrtd:winapi_thunks.obj
 0002:00018b08       ??_C@_0BB@CDHDDLLP@LCIDToLocaleName?$AA@ 100e1b08     libucrtd:winapi_thunks.obj
 0002:00018b28       ??_C@_0BB@HBDEELFH@LocaleNameToLCID?$AA@ 100e1b28     libucrtd:winapi_thunks.obj
 0002:00018b48       ??_C@_0BE@KINNKFDA@LocateXStateFeature?$AA@ 100e1b48     libucrtd:winapi_thunks.obj
 0002:00018b6c       ??_C@_0M@CHKKJDAI@MessageBoxA?$AA@ 100e1b6c     libucrtd:winapi_thunks.obj
 0002:00018b88       ??_C@_0M@DLDCCGNP@MessageBoxW?$AA@ 100e1b88     libucrtd:winapi_thunks.obj
 0002:00018b9c       ??_C@_0N@PPOMPGGK@RoInitialize?$AA@ 100e1b9c     libucrtd:winapi_thunks.obj
 0002:00018bb0       ??_C@_0P@LLFHBIJD@RoUninitialize?$AA@ 100e1bb0     libucrtd:winapi_thunks.obj
 0002:00018bd0       ??_C@_0BI@BKLFFAPO@SetThreadStackGuarantee?$AA@ 100e1bd0     libucrtd:winapi_thunks.obj
 0002:00018bf8       ??_C@_0BC@JEAENNKH@SystemFunction036?$AA@ 100e1bf8     libucrtd:winapi_thunks.obj
 0002:00018c10       ??_C@_1DC@JKJAOJNC@?$AAc?$AAa?$AAc?$AAh?$AAe?$AAd?$AA_?$AAs?$AAt?$AAa?$AAt?$AAe?$AA?5?$AA?$DN?$AA?$DN?$AA?5?$AAp?$AAa?$AAc?$AAk?$AAa?$AAg?$AAe?$AAd?$AA?$AA@ 100e1c10     libucrtd:winapi_thunks.obj
 0002:00018c4c       ??_C@_1DK@JOPMHFDB@?$AAc?$AAa?$AAc?$AAh?$AAe?$AAd?$AA_?$AAs?$AAt?$AAa?$AAt?$AAe?$AA?5?$AA?$DN?$AA?$DN?$AA?5?$AAn?$AAo?$AAt?$AA_?$AAp?$AAa?$AAc?$AAk?$AAa?$AAg?$AAe?$AAd?$AA?$AA@ 100e1c4c     libucrtd:winapi_thunks.obj
 0002:00018c98       ??_C@_1HE@CEMHPOHH@?$AAm?$AAi?$AAn?$AAk?$AAe?$AAr?$AAn?$AAe?$AAl?$AA?2?$AAc?$AAr?$AAt?$AAs?$AA?2?$AAu?$AAc?$AAr?$AAt?$AA?2?$AAs?$AAr?$AAc?$AA?2?$AAa?$AAp?$AAp?$AAc?$AAr?$AAt?$AA?2?$AAs@ 100e1c98     libucrtd:argv_wildcards.obj
 0002:00018d24       ??_C@_1DK@IBFFOJGB@?$AAc?$AAo?$AAm?$AAm?$AAo?$AAn?$AA_?$AAe?$AAx?$AAp?$AAa?$AAn?$AAd?$AA_?$AAa?$AAr?$AAg?$AAv?$AA_?$AAw?$AAi?$AAl?$AAd?$AAc?$AAa?$AAr?$AAd?$AAs?$AA?$AA@ 100e1d24     libucrtd:argv_wildcards.obj
 0002:00018d70       ??_C@_1MC@FLPKOFON@?$AAt?$AAr?$AAa?$AAi?$AAt?$AAs?$AA?3?$AA?3?$AAt?$AAc?$AAs?$AAn?$AAc?$AAp?$AAy?$AA_?$AAs?$AA?$CI?$AA?5?$AAc?$AAh?$AAa?$AAr?$AAa?$AAc?$AAt?$AAe?$AAr?$AA_?$AAi?$AAt?$AA?0@ 100e1d70     libucrtd:argv_wildcards.obj
 0002:00018e58       ??_C@_0DK@FPFMIIJB@minkernel?2crts?2ucrt?2src?2appcrt?2s@ 100e1e58     libucrtd:argv_wildcards.obj
 0002:00018ea0       ??_C@_1EA@KOCCBLAD@?$AAc?$AAo?$AAp?$AAy?$AA_?$AAa?$AAn?$AAd?$AA_?$AAa?$AAd?$AAd?$AA_?$AAa?$AAr?$AAg?$AAu?$AAm?$AAe?$AAn?$AAt?$AA_?$AAt?$AAo?$AA_?$AAb?$AAu?$AAf?$AAf?$AAe?$AAr?$AA?$AA@ 100e1ea0     libucrtd:argv_wildcards.obj
 0002:00018ef0       ??_C@_1KM@GDJIGAGL@?$AAt?$AAr?$AAa?$AAi?$AAt?$AAs?$AA?3?$AA?3?$AAt?$AAc?$AAs?$AAn?$AAc?$AAp?$AAy?$AA_?$AAs?$AA?$CI?$AAa?$AAr?$AAg?$AAu?$AAm?$AAe?$AAn?$AAt?$AA_?$AAb?$AAu?$AAf?$AAf?$AAe@ 100e1ef0     libucrtd:argv_wildcards.obj
 0002:00018fc0       ??_C@_1PI@FGFLAGCC@?$AAt?$AAr?$AAa?$AAi?$AAt?$AAs?$AA?3?$AA?3?$AAt?$AAc?$AAs?$AAn?$AAc?$AAp?$AAy?$AA_?$AAs?$AA?$CI?$AA?5?$AAa?$AAr?$AAg?$AAu?$AAm?$AAe?$AAn?$AAt?$AA_?$AAb?$AAu?$AAf?$AAf@ 100e1fc0     libucrtd:argv_wildcards.obj
 0002:00019100       ??_C@_1M@HPNHIDJI@?$AAj?$AAa?$AA?9?$AAJ?$AAP?$AA?$AA@ 100e2100     libucrtd:mbctype.obj
 0002:00019110       ??_C@_1M@BIBDDEMK@?$AAz?$AAh?$AA?9?$AAC?$AAN?$AA?$AA@ 100e2110     libucrtd:mbctype.obj
 0002:00019120       ??_C@_1M@JLOOOEGK@?$AAk?$AAo?$AA?9?$AAK?$AAR?$AA?$AA@ 100e2120     libucrtd:mbctype.obj
 0002:00019130       ??_C@_1M@CLNBBOPM@?$AAz?$AAh?$AA?9?$AAT?$AAW?$AA?$AA@ 100e2130     libucrtd:mbctype.obj
 0002:00019140       ??_C@_0DE@HGDKNBFD@minkernel?2crts?2ucrt?2src?2appcrt?2m@ 100e2140     libucrtd:mbctype.obj
 0002:00019180       ??_C@_1GK@EMNILMBI@?$AAm?$AAi?$AAn?$AAk?$AAe?$AAr?$AAn?$AAe?$AAl?$AA?2?$AAc?$AAr?$AAt?$AAs?$AA?2?$AAu?$AAc?$AAr?$AAt?$AA?2?$AAs?$AAr?$AAc?$AA?2?$AAa?$AAp?$AAp?$AAc?$AAr?$AAt?$AA?2?$AAs@ 100e2180     libucrtd:argv_data.obj
 0002:00019200       ??_C@_1BK@PNLDCCDP@?$AA_?$AAg?$AAe?$AAt?$AA_?$AAw?$AAp?$AAg?$AAm?$AAp?$AAt?$AAr?$AA?$AA@ 100e2200     libucrtd:argv_data.obj
 0002:00019220       ??_C@_1CI@ENCADPBF@?$AA_?$AAw?$AAp?$AAg?$AAm?$AAp?$AAt?$AAr?$AA?5?$AA?$CB?$AA?$DN?$AA?5?$AAn?$AAu?$AAl?$AAl?$AAp?$AAt?$AAr?$AA?$AA@ 100e2220     libucrtd:argv_data.obj
 0002:00019250       ??_C@_1BI@COAAPHJK@?$AA_?$AAg?$AAe?$AAt?$AA_?$AAp?$AAg?$AAm?$AAp?$AAt?$AAr?$AA?$AA@ 100e2250     libucrtd:argv_data.obj
 0002:0001926c       ??_C@_1CG@CKJHPBDG@?$AA_?$AAp?$AAg?$AAm?$AAp?$AAt?$AAr?$AA?5?$AA?$CB?$AA?$DN?$AA?5?$AAn?$AAu?$AAl?$AAl?$AAp?$AAt?$AAr?$AA?$AA@ 100e226c     libucrtd:argv_data.obj
 0002:000192a0       ??_C@_0ED@BLPEHJAI@minkernel?2crts?2ucrt?2src?2desktopc@ 100e22a0     libucrtd:get_environment_from_os.obj
 0002:000192f0       ??_C@_1DO@PANKIJNP@?$AAe?$AAq?$AAu?$AAa?$AAl?$AA_?$AAs?$AAi?$AAg?$AAn?$AA?5?$AA?9?$AA?5?$AAo?$AAp?$AAt?$AAi?$AAo?$AAn?$AA?5?$AA?$DM?$AA?5?$AA_?$AAM?$AAA?$AAX?$AA_?$AAE?$AAN?$AAV?$AA?$AA@ 100e22f0     libucrtd:setenv.obj
 0002:00019340       ??_C@_1GE@MMOHBENP@?$AAm?$AAi?$AAn?$AAk?$AAe?$AAr?$AAn?$AAe?$AAl?$AA?2?$AAc?$AAr?$AAt?$AAs?$AA?2?$AAu?$AAc?$AAr?$AAt?$AA?2?$AAs?$AAr?$AAc?$AA?2?$AAd?$AAe?$AAs?$AAk?$AAt?$AAo?$AAp?$AAc@ 100e2340     libucrtd:setenv.obj
 0002:000193b8       ??_C@_1GK@KBABANDM@?$AAt?$AAr?$AAa?$AAi?$AAt?$AAs?$AA?3?$AA?3?$AAt?$AAc?$AAs?$AAn?$AAl?$AAe?$AAn?$AA?$CI?$AAe?$AAq?$AAu?$AAa?$AAl?$AA_?$AAs?$AAi?$AAg?$AAn?$AA?5?$AA?$CL?$AA?5?$AA1?$AA?0?$AA?5@ 100e23b8     libucrtd:setenv.obj
 0002:00019438       ??_C@_0DC@NJKMKCIL@minkernel?2crts?2ucrt?2src?2desktopc@ 100e2438     libucrtd:setenv.obj
 0002:00019478       ??_C@_1EC@IKJPFBIM@?$AA?$CI?$AA?$CC?$AAC?$AAR?$AAT?$AA?5?$AAl?$AAo?$AAg?$AAi?$AAc?$AA?5?$AAe?$AAr?$AAr?$AAo?$AAr?$AA?5?$AAi?$AAn?$AA?5?$AAs?$AAe?$AAt?$AAe?$AAn?$AAv?$AA?$CC?$AA?0?$AA?5?$AA0?$AA?$CJ@ 100e2478     libucrtd:setenv.obj
 0002:000194c8       ??_C@_1FE@KHMDCEEJ@?$AAc?$AAo?$AAm?$AAm?$AAo?$AAn?$AA_?$AAs?$AAe?$AAt?$AA_?$AAv?$AAa?$AAr?$AAi?$AAa?$AAb?$AAl?$AAe?$AA_?$AAi?$AAn?$AA_?$AAe?$AAn?$AAv?$AAi?$AAr?$AAo?$AAn?$AAm?$AAe@ 100e24c8     libucrtd:setenv.obj
 0002:00019530       ??_C@_1EM@NIOJJLEA@?$AAt?$AAr?$AAa?$AAi?$AAt?$AAs?$AA?3?$AA?3?$AAt?$AAc?$AAs?$AAc?$AAp?$AAy?$AA_?$AAs?$AA?$CI?$AAn?$AAa?$AAm?$AAe?$AA?0?$AA?5?$AAc?$AAo?$AAu?$AAn?$AAt?$AA?0?$AA?5?$AAo?$AAp@ 100e2530     libucrtd:setenv.obj
 0002:0001958c       ??_C@_1CC@PIMGMDJH@?$AAc?$AAo?$AAp?$AAy?$AA_?$AAe?$AAn?$AAv?$AAi?$AAr?$AAo?$AAn?$AAm?$AAe?$AAn?$AAt?$AA?$AA@ 100e258c     libucrtd:setenv.obj
 0002:000195b8       ??_C@_1GG@EDHOMIDL@?$AAt?$AAr?$AAa?$AAi?$AAt?$AAs?$AA?3?$AA?3?$AAt?$AAc?$AAs?$AAc?$AAp?$AAy?$AA_?$AAs?$AA?$CI?$AA?$CK?$AAn?$AAe?$AAw?$AA_?$AAi?$AAt?$AA?0?$AA?5?$AAr?$AAe?$AAq?$AAu?$AAi?$AAr@ 100e25b8     libucrtd:setenv.obj
 0002:00019634       ??_C@_1DC@OGOLMDEL@?$AAp?$AAu?$AAb?$AAl?$AAi?$AAc?$AA_?$AAs?$AAt?$AAr?$AAe?$AAa?$AAm?$AA?5?$AA?$CB?$AA?$DN?$AA?5?$AAn?$AAu?$AAl?$AAl?$AAp?$AAt?$AAr?$AA?$AA@ 100e2634     libucrtd:_sftbuf.obj
 0002:00019670       ??_C@_1GC@GBMDABED@?$AAm?$AAi?$AAn?$AAk?$AAe?$AAr?$AAn?$AAe?$AAl?$AA?2?$AAc?$AAr?$AAt?$AAs?$AA?2?$AAu?$AAc?$AAr?$AAt?$AA?2?$AAs?$AAr?$AAc?$AA?2?$AAa?$AAp?$AAp?$AAc?$AAr?$AAt?$AA?2?$AAs@ 100e2670     libucrtd:_sftbuf.obj
 0002:000196e8       ??_C@_0DB@EPIHMFLB@minkernel?2crts?2ucrt?2src?2appcrt?2s@ 100e26e8     libucrtd:_sftbuf.obj
 0002:00019728       ??_C@_1BBC@DECGKMGJ@?$AA_?$AAl?$AAo?$AAc?$AA_?$AAu?$AAp?$AAd?$AAa?$AAt?$AAe?$AA?4?$AAG?$AAe?$AAt?$AAL?$AAo?$AAc?$AAa?$AAl?$AAe?$AAT?$AA?$CI?$AA?$CJ?$AA?9?$AA?$DO?$AAl?$AAo?$AAc?$AAi?$AAn?$AAf@ 100e2728     libucrtd:mbtowc.obj
 0002:00019870       ??_C@_1GE@CGIHMDEJ@?$AAm?$AAi?$AAn?$AAk?$AAe?$AAr?$AAn?$AAe?$AAl?$AA?2?$AAc?$AAr?$AAt?$AAs?$AA?2?$AAu?$AAc?$AAr?$AAt?$AA?2?$AAs?$AAr?$AAc?$AA?2?$AAa?$AAp?$AAp?$AAc?$AAr?$AAt?$AA?2?$AAc@ 100e2870     libucrtd:mbtowc.obj
 0002:000198e8       ??_C@_1DK@NBNOAGKB@?$AAd?$AAe?$AAs?$AAt?$AAi?$AAn?$AAa?$AAt?$AAi?$AAo?$AAn?$AA_?$AAc?$AAo?$AAu?$AAn?$AAt?$AA?5?$AA?$DM?$AA?$DN?$AA?5?$AAI?$AAN?$AAT?$AA_?$AAM?$AAA?$AAX?$AA?$AA@ 100e28e8     libucrtd:wctomb.obj
 0002:00019930       ??_C@_1GE@FCCEPHFG@?$AAm?$AAi?$AAn?$AAk?$AAe?$AAr?$AAn?$AAe?$AAl?$AA?2?$AAc?$AAr?$AAt?$AAs?$AA?2?$AAu?$AAc?$AAr?$AAt?$AA?2?$AAs?$AAr?$AAc?$AA?2?$AAa?$AAp?$AAp?$AAc?$AAr?$AAt?$AA?2?$AAc@ 100e2930     libucrtd:wctomb.obj
 0002:000199a8       ??_C@_1BI@IEADNOHF@?$AA_?$AAw?$AAc?$AAt?$AAo?$AAm?$AAb?$AA_?$AAs?$AA_?$AAl?$AA?$AA@ 100e29a8     libucrtd:wctomb.obj
 0002:000199c4       ??_C@_1CM@ENFEGCNE@?$AAd?$AAe?$AAs?$AAt?$AAi?$AAn?$AAa?$AAt?$AAi?$AAo?$AAn?$AA_?$AAc?$AAo?$AAu?$AAn?$AAt?$AA?5?$AA?$DO?$AA?5?$AA0?$AA?$AA@ 100e29c4     libucrtd:wctomb.obj
 0002:000199f8       ??_C@_03OEIAHPBN@INF?$AA@  100e29f8     libucrtd:cvt.obj
 0002:000199fc       ??_C@_03OJHLLCGB@inf?$AA@  100e29fc     libucrtd:cvt.obj
 0002:00019a00       ??_C@_03LKNCIKJB@NAN?$AA@  100e2a00     libucrtd:cvt.obj
 0002:00019a04       ??_C@_03LHCJEHON@nan?$AA@  100e2a04     libucrtd:cvt.obj
 0002:00019a08       ??_C@_09OFJJIMPC@NAN?$CISNAN?$CJ?$AA@ 100e2a08     libucrtd:cvt.obj
 0002:00019a14       ??_C@_09IPFBKMDL@nan?$CIsnan?$CJ?$AA@ 100e2a14     libucrtd:cvt.obj
 0002:00019a20       ??_C@_08IKHNHAJ@NAN?$CIIND?$CJ?$AA@ 100e2a20     libucrtd:cvt.obj
 0002:00019a2c       ??_C@_08OFCDMILK@nan?$CIind?$CJ?$AA@ 100e2a2c     libucrtd:cvt.obj
 0002:00019a38       ??_C@_1FO@GKAKAPLI@?$AAm?$AAi?$AAn?$AAk?$AAe?$AAr?$AAn?$AAe?$AAl?$AA?2?$AAc?$AAr?$AAt?$AAs?$AA?2?$AAu?$AAc?$AAr?$AAt?$AA?2?$AAs?$AAr?$AAc?$AA?2?$AAa?$AAp?$AAp?$AAc?$AAr?$AAt?$AA?2?$AAc@ 100e2a38     libucrtd:cvt.obj
 0002:00019aa8       ??_C@_1DE@EHGIGIDK@?$AAf?$AAp?$AA_?$AAf?$AAo?$AAr?$AAm?$AAa?$AAt?$AA_?$AAn?$AAa?$AAn?$AA_?$AAo?$AAr?$AA_?$AAi?$AAn?$AAf?$AAi?$AAn?$AAi?$AAt?$AAy?$AA?$AA@ 100e2aa8     libucrtd:cvt.obj
 0002:00019ae8       ??_C@_1LI@PCMLJPCO@?$AAs?$AAt?$AAr?$AAc?$AAp?$AAy?$AA_?$AAs?$AA?$CI?$AA?5?$AAr?$AAe?$AAs?$AAu?$AAl?$AAt?$AA_?$AAb?$AAu?$AAf?$AAf?$AAe?$AAr?$AA?0?$AA?5?$AAr?$AAe?$AAs?$AAu?$AAl?$AAt?$AA_@ 100e2ae8     libucrtd:cvt.obj
 0002:00019bc8       ??_C@_1KO@LJHOFBCD@?$AAr?$AAe?$AAs?$AAu?$AAl?$AAt?$AA_?$AAb?$AAu?$AAf?$AAf?$AAe?$AAr?$AA_?$AAc?$AAo?$AAu?$AAn?$AAt?$AA?5?$AA?$DO?$AA?5?$AAs?$AAt?$AAa?$AAt?$AAi?$AAc?$AA_?$AAc?$AAa?$AAs@ 100e2bc8     libucrtd:cvt.obj
 0002:00019c98       ??_C@_1CK@BOLHOMFO@?$AAf?$AAp?$AA_?$AAf?$AAo?$AAr?$AAm?$AAa?$AAt?$AA_?$AAe?$AA_?$AAi?$AAn?$AAt?$AAe?$AAr?$AAn?$AAa?$AAl?$AA?$AA@ 100e2c98     libucrtd:cvt.obj
 0002:00019cd0       ??_C@_1BBA@FHDJNBGM@?$AAs?$AAt?$AAr?$AAc?$AAp?$AAy?$AA_?$AAs?$AA?$CI?$AA?5?$AAp?$AA?0?$AA?5?$AAr?$AAe?$AAs?$AAu?$AAl?$AAt?$AA_?$AAb?$AAu?$AAf?$AAf?$AAe?$AAr?$AA_?$AAc?$AAo?$AAu?$AAn?$AAt@ 100e2cd0     libucrtd:cvt.obj
 0002:00019e18       ??_C@_05KLBDPFGC@e?$CL000?$AA@ 100e2e18     libucrtd:cvt.obj
 0002:00019e20       ??_C@_1IC@FILKPBAB@?$AAr?$AAe?$AAs?$AAu?$AAl?$AAt?$AA_?$AAb?$AAu?$AAf?$AAf?$AAe?$AAr?$AA_?$AAc?$AAo?$AAu?$AAn?$AAt?$AA?5?$AA?$DO?$AA?5?$AAs?$AAt?$AAa?$AAt?$AAi?$AAc?$AA_?$AAc?$AAa?$AAs@ 100e2e20     libucrtd:cvt.obj
 0002:00019ebc       ??_C@_1BI@PNBDLNBB@?$AAf?$AAp?$AA_?$AAf?$AAo?$AAr?$AAm?$AAa?$AAt?$AA_?$AAa?$AA?$AA@ 100e2ebc     libucrtd:cvt.obj
 0002:00019ed8       ??_C@_1DC@MGKAFPFD@?$AAr?$AAe?$AAs?$AAu?$AAl?$AAt?$AA_?$AAb?$AAu?$AAf?$AAf?$AAe?$AAr?$AA?5?$AA?$CB?$AA?$DN?$AA?5?$AAn?$AAu?$AAl?$AAl?$AAp?$AAt?$AAr?$AA?$AA@ 100e2ed8     libucrtd:cvt.obj
 0002:00019f14       ??_C@_1CC@LDAHJAKK@?$AA_?$AA_?$AAa?$AAc?$AAr?$AAt?$AA_?$AAf?$AAp?$AA_?$AAf?$AAo?$AAr?$AAm?$AAa?$AAt?$AA?$AA@ 100e2f14     libucrtd:cvt.obj
 0002:00019f3c       ??_C@_1DA@NMLJJOCO@?$AAr?$AAe?$AAs?$AAu?$AAl?$AAt?$AA_?$AAb?$AAu?$AAf?$AAf?$AAe?$AAr?$AA_?$AAc?$AAo?$AAu?$AAn?$AAt?$AA?5?$AA?$DO?$AA?5?$AA0?$AA?$AA@ 100e2f3c     libucrtd:cvt.obj
 0002:00019f78       ??_C@_1DE@MNOPBCOK@?$AAs?$AAc?$AAr?$AAa?$AAt?$AAc?$AAh?$AA_?$AAb?$AAu?$AAf?$AAf?$AAe?$AAr?$AA?5?$AA?$CB?$AA?$DN?$AA?5?$AAn?$AAu?$AAl?$AAl?$AAp?$AAt?$AAr?$AA?$AA@ 100e2f78     libucrtd:cvt.obj
 0002:00019fb8       ??_C@_1DC@CKBKNFKH@?$AAs?$AAc?$AAr?$AAa?$AAt?$AAc?$AAh?$AA_?$AAb?$AAu?$AAf?$AAf?$AAe?$AAr?$AA_?$AAc?$AAo?$AAu?$AAn?$AAt?$AA?5?$AA?$DO?$AA?5?$AA0?$AA?$AA@ 100e2fb8     libucrtd:cvt.obj
 0002:00019ff8       ??_C@_1EI@JAHBOGIM@?$AA?$CI?$AA?$CC?$AAU?$AAn?$AAs?$AAu?$AAp?$AAp?$AAo?$AAr?$AAt?$AAe?$AAd?$AA?5?$AAf?$AAo?$AAr?$AAm?$AAa?$AAt?$AA?5?$AAs?$AAp?$AAe?$AAc?$AAi?$AAf?$AAi?$AAe?$AAr?$AA?$CC?$AA?0@ 100e2ff8     libucrtd:cvt.obj
 0002:0001a050       ??_C@_1GA@OJHMFOOJ@?$AAm?$AAi?$AAn?$AAk?$AAe?$AAr?$AAn?$AAe?$AAl?$AA?2?$AAc?$AAr?$AAt?$AAs?$AA?2?$AAu?$AAc?$AAr?$AAt?$AA?2?$AAs?$AAr?$AAc?$AA?2?$AAa?$AAp?$AAp?$AAc?$AAr?$AAt?$AA?2?$AAs@ 100e3050     libucrtd:fputwc.obj
 0002:0001a0c4       ??_C@_1O@HJNPHHHB@?$AAf?$AAp?$AAu?$AAt?$AAw?$AAc?$AA?$AA@ 100e30c4     libucrtd:fputwc.obj
 0002:0001a0d4       ??_C@_1BO@MHPFFFJJ@?$AAs?$AAt?$AAr?$AAe?$AAa?$AAm?$AA?4?$AAv?$AAa?$AAl?$AAi?$AAd?$AA?$CI?$AA?$CJ?$AA?$AA@ 100e30d4     libucrtd:fileno.obj
 0002:0001a0f8       ??_C@_1GA@KCAHHNGP@?$AAm?$AAi?$AAn?$AAk?$AAe?$AAr?$AAn?$AAe?$AAl?$AA?2?$AAc?$AAr?$AAt?$AAs?$AA?2?$AAu?$AAc?$AAr?$AAt?$AA?2?$AAs?$AAr?$AAc?$AA?2?$AAa?$AAp?$AAp?$AAc?$AAr?$AAt?$AA?2?$AAs@ 100e30f8     libucrtd:fileno.obj
 0002:0001a16c       ??_C@_1BA@JGHIEKKM@?$AA_?$AAf?$AAi?$AAl?$AAe?$AAn?$AAo?$AA?$AA@ 100e316c     libucrtd:fileno.obj
 0002:0001a180       ??_C@_0CP@GDJHIDC@minkernel?2crts?2ucrt?2src?2appcrt?2s@ 100e3180     libucrtd:_file.obj
 0002:0001a1b8       ??_C@_1FO@IEGKHABE@?$AAm?$AAi?$AAn?$AAk?$AAe?$AAr?$AAn?$AAe?$AAl?$AA?2?$AAc?$AAr?$AAt?$AAs?$AA?2?$AAu?$AAc?$AAr?$AAt?$AA?2?$AAs?$AAr?$AAc?$AA?2?$AAa?$AAp?$AAp?$AAc?$AAr?$AAt?$AA?2?$AAs@ 100e31b8     libucrtd:_file.obj
 0002:0001a228       ??_C@_1DI@PJGMCDLC@?$AA_?$AAg?$AAe?$AAt?$AA_?$AAs?$AAt?$AAr?$AAe?$AAa?$AAm?$AA_?$AAb?$AAu?$AAf?$AAf?$AAe?$AAr?$AA_?$AAp?$AAo?$AAi?$AAn?$AAt?$AAe?$AAr?$AAs?$AA?$AA@ 100e3228     libucrtd:_file.obj
 0002:0001a270       ??_C@_1FO@FNOAOMLP@?$AAm?$AAi?$AAn?$AAk?$AAe?$AAr?$AAn?$AAe?$AAl?$AA?2?$AAc?$AAr?$AAt?$AAs?$AA?2?$AAu?$AAc?$AAr?$AAt?$AA?2?$AAs?$AAr?$AAc?$AA?2?$AAa?$AAp?$AAp?$AAc?$AAr?$AAt?$AA?2?$AAs@ 100e3270     libucrtd:fputc.obj
 0002:0001a2e0       ??_C@_1M@OIJMPNCO@?$AAf?$AAp?$AAu?$AAt?$AAc?$AA?$AA@ 100e32e0     libucrtd:fputc.obj
 0002:0001a2f0       ??_C@_1CE@BLLJFLOH@?$AAs?$AAt?$AAr?$AAi?$AAn?$AAg?$AA?5?$AA?$CB?$AA?$DN?$AA?5?$AAn?$AAu?$AAl?$AAl?$AAp?$AAt?$AAr?$AA?$AA@ 100e32f0     libucrtd:mbsdec.obj
 0002:0001a320       ??_C@_1GO@DDOMFNGF@?$AAm?$AAi?$AAn?$AAk?$AAe?$AAr?$AAn?$AAe?$AAl?$AA?2?$AAc?$AAr?$AAt?$AAs?$AA?2?$AAu?$AAc?$AAr?$AAt?$AA?2?$AAs?$AAr?$AAc?$AA?2?$AAd?$AAe?$AAs?$AAk?$AAt?$AAo?$AAp?$AAc@ 100e3320     libucrtd:mbsdec.obj
 0002:0001a3a4       ??_C@_1BE@KLNCOLCD@?$AA_?$AAm?$AAb?$AAs?$AAd?$AAe?$AAc?$AA_?$AAl?$AA?$AA@ 100e33a4     libucrtd:mbsdec.obj
 0002:0001a3bc       ??_C@_1CG@CMGPGAOD@?$AAc?$AAu?$AAr?$AAr?$AAe?$AAn?$AAt?$AA?5?$AA?$CB?$AA?$DN?$AA?5?$AAn?$AAu?$AAl?$AAl?$AAp?$AAt?$AAr?$AA?$AA@ 100e33bc     libucrtd:mbsdec.obj
 0002:0001a3ec       ??_C@_1CC@CHNFGJIC@?$AAc?$AAo?$AAm?$AAm?$AAo?$AAn?$AA_?$AAt?$AAc?$AAs?$AAn?$AAc?$AAp?$AAy?$AA_?$AAs?$AA?$AA@ 100e33ec     libucrtd:wcsncpy_s.obj
 0002:0001a418       ??_C@_1IC@DCNEKBE@?$AAm?$AAi?$AAn?$AAk?$AAe?$AAr?$AAn?$AAe?$AAl?$AA?2?$AAc?$AAr?$AAt?$AAs?$AA?2?$AAu?$AAc?$AAr?$AAt?$AA?2?$AAs?$AAr?$AAc?$AA?2?$AAa?$AAp?$AAp?$AAc?$AAr?$AAt?$AA?2?$AAi@ 100e3418     libucrtd:report_runtime_error.obj
 0002:0001a4b4       ??_C@_1DI@BLFJHKKP@?$AA_?$AA_?$AAa?$AAc?$AAr?$AAt?$AA_?$AAr?$AAe?$AAp?$AAo?$AAr?$AAt?$AA_?$AAr?$AAu?$AAn?$AAt?$AAi?$AAm?$AAe?$AA_?$AAe?$AAr?$AAr?$AAo?$AAr?$AA?$AA@ 100e34b4     libucrtd:report_runtime_error.obj
 0002:0001a4f8       ??_C@_1LE@MHPGJGKE@?$AAw?$AAc?$AAs?$AAc?$AAp?$AAy?$AA_?$AAs?$AA?$CI?$AAo?$AAu?$AAt?$AAm?$AAs?$AAg?$AA?0?$AA?5?$AA?$CI?$AAs?$AAi?$AAz?$AAe?$AAo?$AAf?$AA?$CI?$AA?$CK?$AA_?$AA_?$AAc?$AAo?$AAu?$AAn@ 100e34f8     libucrtd:report_runtime_error.obj
 0002:0001a5d0       ??_C@_1DE@JNGNBFGO@?$AAR?$AAu?$AAn?$AAt?$AAi?$AAm?$AAe?$AA?5?$AAE?$AAr?$AAr?$AAo?$AAr?$AA?$CB?$AA?6?$AA?6?$AAP?$AAr?$AAo?$AAg?$AAr?$AAa?$AAm?$AA?3?$AA?5?$AA?$AA@ 100e35d0     libucrtd:report_runtime_error.obj
 0002:0001a610       ??_C@_1HK@FJJNAABO@?$AAw?$AAc?$AAs?$AAc?$AAp?$AAy?$AA_?$AAs?$AA?$CI?$AAp?$AAr?$AAo?$AAg?$AAn?$AAa?$AAm?$AAe?$AA?0?$AA?5?$AAp?$AAr?$AAo?$AAg?$AAn?$AAa?$AAm?$AAe?$AA_?$AAs?$AAi?$AAz?$AAe@ 100e3610     libucrtd:report_runtime_error.obj
 0002:0001a6a8       ??_C@_1HI@FLHKGEBE@?$AAw?$AAc?$AAs?$AAn?$AAc?$AAp?$AAy?$AA_?$AAs?$AA?$CI?$AAp?$AAc?$AAh?$AA?0?$AA?5?$AAp?$AAr?$AAo?$AAg?$AAn?$AAa?$AAm?$AAe?$AA_?$AAs?$AAi?$AAz?$AAe?$AA?5?$AA?9?$AA?5?$AA?$CI@ 100e36a8     libucrtd:report_runtime_error.obj
 0002:0001a738       ??_C@_1IG@MNNKBLBI@?$AAw?$AAc?$AAs?$AAc?$AAa?$AAt?$AA_?$AAs?$AA?$CI?$AAo?$AAu?$AAt?$AAm?$AAs?$AAg?$AA?0?$AA?5?$AA?$CI?$AAs?$AAi?$AAz?$AAe?$AAo?$AAf?$AA?$CI?$AA?$CK?$AA_?$AA_?$AAc?$AAo?$AAu?$AAn@ 100e3738     libucrtd:report_runtime_error.obj
 0002:0001a7d8       ??_C@_1IG@DFBBBDAN@?$AAw?$AAc?$AAs?$AAc?$AAa?$AAt?$AA_?$AAs?$AA?$CI?$AAo?$AAu?$AAt?$AAm?$AAs?$AAg?$AA?0?$AA?5?$AA?$CI?$AAs?$AAi?$AAz?$AAe?$AAo?$AAf?$AA?$CI?$AA?$CK?$AA_?$AA_?$AAc?$AAo?$AAu?$AAn@ 100e37d8     libucrtd:report_runtime_error.obj
 0002:0001a878       ??_C@_1CE@MCCHPLBM@?$AAb?$AAu?$AAf?$AAf?$AAe?$AAr?$AA?5?$AA?$CB?$AA?$DN?$AA?5?$AAn?$AAu?$AAl?$AAl?$AAp?$AAt?$AAr?$AA?$AA@ 100e3878     libucrtd:xtoa.obj
 0002:0001a8a8       ??_C@_1GA@HBEFGMHK@?$AAm?$AAi?$AAn?$AAk?$AAe?$AAr?$AAn?$AAe?$AAl?$AA?2?$AAc?$AAr?$AAt?$AAs?$AA?2?$AAu?$AAc?$AAr?$AAt?$AA?2?$AAs?$AAr?$AAc?$AA?2?$AAa?$AAp?$AAp?$AAc?$AAr?$AAt?$AA?2?$AAc@ 100e38a8     libucrtd:xtoa.obj
 0002:0001a91c       ??_C@_1BM@HMPEMLNP@?$AAc?$AAo?$AAm?$AAm?$AAo?$AAn?$AA_?$AAx?$AAt?$AAo?$AAx?$AA_?$AAs?$AA?$AA@ 100e391c     libucrtd:xtoa.obj
 0002:0001a940       ??_C@_1CC@ONIJBMJF@?$AAb?$AAu?$AAf?$AAf?$AAe?$AAr?$AA_?$AAc?$AAo?$AAu?$AAn?$AAt?$AA?5?$AA?$DO?$AA?5?$AA0?$AA?$AA@ 100e3940     libucrtd:xtoa.obj
 0002:0001a968       ??_C@_1HA@JFIOFNKD@?$AAb?$AAu?$AAf?$AAf?$AAe?$AAr?$AA_?$AAc?$AAo?$AAu?$AAn?$AAt?$AA?5?$AA?$DO?$AA?5?$AAs?$AAt?$AAa?$AAt?$AAi?$AAc?$AA_?$AAc?$AAa?$AAs?$AAt?$AA?$DM?$AAs?$AAi?$AAz?$AAe?$AA_@ 100e3968     libucrtd:xtoa.obj
 0002:0001a9f0       ??_C@_1DE@PCJGDBBD@?$AA2?$AA?5?$AA?$DM?$AA?$DN?$AA?5?$AAr?$AAa?$AAd?$AAi?$AAx?$AA?5?$AA?$CG?$AA?$CG?$AA?5?$AAr?$AAa?$AAd?$AAi?$AAx?$AA?5?$AA?$DM?$AA?$DN?$AA?5?$AA3?$AA6?$AA?$AA@ 100e39f0     libucrtd:xtoa.obj
 0002:0001aa30       ??_C@_1CM@LONILNIJ@?$AAl?$AAe?$AAn?$AAg?$AAt?$AAh?$AA?5?$AA?$DM?$AA?5?$AAb?$AAu?$AAf?$AAf?$AAe?$AAr?$AA_?$AAc?$AAo?$AAu?$AAn?$AAt?$AA?$AA@ 100e3a30     libucrtd:xtoa.obj
 0002:0001aa64       ??_C@_1BI@OLPLFKOE@?$AAc?$AAo?$AAm?$AAm?$AAo?$AAn?$AA_?$AAx?$AAt?$AAo?$AAx?$AA?$AA@ 100e3a64     libucrtd:xtoa.obj
 0002:0001aa80       ??_C@_1BK@FPAMLIDG@?$AAs?$AA?5?$AA?$CB?$AA?$DN?$AA?5?$AAn?$AAu?$AAl?$AAl?$AAp?$AAt?$AAr?$AA?$AA@ 100e3a80     libucrtd:mbstowcs.obj
 0002:0001aaa0       ??_C@_1GI@KABMHNPH@?$AAm?$AAi?$AAn?$AAk?$AAe?$AAr?$AAn?$AAe?$AAl?$AA?2?$AAc?$AAr?$AAt?$AAs?$AA?2?$AAu?$AAc?$AAr?$AAt?$AA?2?$AAs?$AAr?$AAc?$AA?2?$AAa?$AAp?$AAp?$AAc?$AAr?$AAt?$AA?2?$AAc@ 100e3aa0     libucrtd:mbstowcs.obj
 0002:0001ab1c       ??_C@_1CG@JEHFHLNG@?$AA_?$AAm?$AAb?$AAs?$AAt?$AAo?$AAw?$AAc?$AAs?$AA_?$AAl?$AA_?$AAh?$AAe?$AAl?$AAp?$AAe?$AAr?$AA?$AA@ 100e3b1c     libucrtd:mbstowcs.obj
 0002:0001ab50       ??_C@_1JM@MEKBACIG@?$AA?$CI?$AAp?$AAw?$AAc?$AAs?$AA?5?$AA?$DN?$AA?$DN?$AA?5?$AAn?$AAu?$AAl?$AAl?$AAp?$AAt?$AAr?$AA?5?$AA?$CG?$AA?$CG?$AA?5?$AAs?$AAi?$AAz?$AAe?$AAI?$AAn?$AAW?$AAo?$AAr?$AAd?$AAs?$AA?5@ 100e3b50     libucrtd:mbstowcs.obj
 0002:0001ac0c       ??_C@_1BM@PHENIGHD@?$AA_?$AAm?$AAb?$AAs?$AAt?$AAo?$AAw?$AAc?$AAs?$AA_?$AAs?$AA_?$AAl?$AA?$AA@ 100e3c0c     libucrtd:mbstowcs.obj
 0002:0001ac30       ??_C@_1CM@LLECFMFH@?$AAb?$AAu?$AAf?$AAf?$AAe?$AAr?$AAS?$AAi?$AAz?$AAe?$AA?5?$AA?$DM?$AA?$DN?$AA?5?$AAI?$AAN?$AAT?$AA_?$AAM?$AAA?$AAX?$AA?$AA@ 100e3c30     libucrtd:mbstowcs.obj
 0002:0001ac64       ??_C@_1CO@JNPEPJAL@?$AAr?$AAe?$AAt?$AAs?$AAi?$AAz?$AAe?$AA?5?$AA?$DM?$AA?$DN?$AA?5?$AAs?$AAi?$AAz?$AAe?$AAI?$AAn?$AAW?$AAo?$AAr?$AAd?$AAs?$AA?$AA@ 100e3c64     libucrtd:mbstowcs.obj
 0002:0001ac9c       ??_C@_1CA@NOKNKDIG@?$AAp?$AAw?$AAc?$AAs?$AA?5?$AA?$CB?$AA?$DN?$AA?5?$AAn?$AAu?$AAl?$AAl?$AAp?$AAt?$AAr?$AA?$AA@ 100e3c9c     libucrtd:wcstombs.obj
 0002:0001acc8       ??_C@_1GI@EEJDEALP@?$AAm?$AAi?$AAn?$AAk?$AAe?$AAr?$AAn?$AAe?$AAl?$AA?2?$AAc?$AAr?$AAt?$AAs?$AA?2?$AAu?$AAc?$AAr?$AAt?$AA?2?$AAs?$AAr?$AAc?$AA?2?$AAa?$AAp?$AAp?$AAc?$AAr?$AAt?$AA?2?$AAc@ 100e3cc8     libucrtd:wcstombs.obj
 0002:0001ad44       ??_C@_1CG@LLJCAOHF@?$AA_?$AAw?$AAc?$AAs?$AAt?$AAo?$AAm?$AAb?$AAs?$AA_?$AAl?$AA_?$AAh?$AAe?$AAl?$AAp?$AAe?$AAr?$AA?$AA@ 100e3d44     libucrtd:wcstombs.obj
 0002:0001ad78       ??_C@_1JI@DFNKFCLG@?$AA?$CI?$AAd?$AAs?$AAt?$AA?5?$AA?$CB?$AA?$DN?$AA?5?$AAn?$AAu?$AAl?$AAl?$AAp?$AAt?$AAr?$AA?5?$AA?$CG?$AA?$CG?$AA?5?$AAs?$AAi?$AAz?$AAe?$AAI?$AAn?$AAB?$AAy?$AAt?$AAe?$AAs?$AA?5?$AA?$DO@ 100e3d78     libucrtd:wcstombs.obj
 0002:0001ae30       ??_C@_1BM@BDMCLLDL@?$AA_?$AAw?$AAc?$AAs?$AAt?$AAo?$AAm?$AAb?$AAs?$AA_?$AAs?$AA_?$AAl?$AA?$AA@ 100e3e30     libucrtd:wcstombs.obj
 0002:0001ae54       ??_C@_1CM@KEOGBFLI@?$AAs?$AAi?$AAz?$AAe?$AAI?$AAn?$AAB?$AAy?$AAt?$AAe?$AAs?$AA?5?$AA?$DO?$AA?5?$AAr?$AAe?$AAt?$AAs?$AAi?$AAz?$AAe?$AA?$AA@ 100e3e54     libucrtd:wcstombs.obj
 0002:0001ae88       ??_C@_1CA@EOJJMFA@?$AAc?$AAo?$AAm?$AAm?$AAo?$AAn?$AA_?$AAt?$AAc?$AAs?$AAc?$AAa?$AAt?$AA_?$AAs?$AA?$AA@ 100e3e88     libucrtd:wcscat_s.obj
 0002:0001aeb0       ??_C@_1DM@FHLMIEG@?$AAS?$AAt?$AAr?$AAi?$AAn?$AAg?$AA?5?$AAi?$AAs?$AA?5?$AAn?$AAo?$AAt?$AA?5?$AAn?$AAu?$AAl?$AAl?$AA?5?$AAt?$AAe?$AAr?$AAm?$AAi?$AAn?$AAa?$AAt?$AAe?$AAd?$AA?$AA@ 100e3eb0     libucrtd:wcscat_s.obj
 0002:0001aef8       ??_C@_1FA@MJKDNFFB@?$AA?$CI?$AAL?$AA?$CC?$AAS?$AAt?$AAr?$AAi?$AAn?$AAg?$AA?5?$AAi?$AAs?$AA?5?$AAn?$AAo?$AAt?$AA?5?$AAn?$AAu?$AAl?$AAl?$AA?5?$AAt?$AAe?$AAr?$AAm?$AAi?$AAn?$AAa?$AAt?$AAe?$AAd@ 100e3ef8     libucrtd:wcscat_s.obj
 0002:0001af58       ??_C@_1FE@KNPCCODH@?$AA?$CI?$AA?$CC?$AAC?$AAo?$AAr?$AAr?$AAu?$AAp?$AAt?$AAe?$AAd?$AA?5?$AAp?$AAo?$AAi?$AAn?$AAt?$AAe?$AAr?$AA?5?$AAp?$AAa?$AAs?$AAs?$AAe?$AAd?$AA?5?$AAt?$AAo?$AA?5?$AA_?$AAf@ 100e3f58     libucrtd:getstringtypea.obj
 0002:0001afc0       ??_C@_1HG@NGPLHMCI@?$AAm?$AAi?$AAn?$AAk?$AAe?$AAr?$AAn?$AAe?$AAl?$AA?2?$AAc?$AAr?$AAt?$AAs?$AA?2?$AAu?$AAc?$AAr?$AAt?$AA?2?$AAd?$AAe?$AAv?$AAd?$AAi?$AAv?$AA?2?$AAv?$AAc?$AAr?$AAu?$AAn@ 100e3fc0     libucrtd:getstringtypea.obj
 0002:0001b050       ??_C@_0DJ@HCPJODDK@minkernel?2crts?2ucrt?2src?2appcrt?2l@ 100e4050     libucrtd:getstringtypea.obj
 0002:0001b098       ??_C@_1BKC@NBNHJIDM@?$AA?$CI?$AAp?$AAt?$AAl?$AAo?$AAc?$AAi?$AA?9?$AA?$DO?$AAl?$AAc?$AA_?$AAc?$AAa?$AAt?$AAe?$AAg?$AAo?$AAr?$AAy?$AA?$FL?$AAc?$AAa?$AAt?$AAe?$AAg?$AAo?$AAr?$AAy?$AA?$FN?$AA?4?$AAl@ 100e4098     libucrtd:locale_refcounting.obj
 0002:0001b290       ??_C@_1HK@HCNMEOLA@?$AAm?$AAi?$AAn?$AAk?$AAe?$AAr?$AAn?$AAe?$AAl?$AA?2?$AAc?$AAr?$AAt?$AAs?$AA?2?$AAu?$AAc?$AAr?$AAt?$AA?2?$AAs?$AAr?$AAc?$AA?2?$AAa?$AAp?$AAp?$AAc?$AAr?$AAt?$AA?2?$AAl@ 100e4290     libucrtd:locale_refcounting.obj
 0002:0001b328       __wctype                   100e4328     libucrtd:ctype.obj
 0002:0001b598       ___newctype                100e4598     libucrtd:ctype.obj
 0002:0001b938       ___newclmap                100e4938     libucrtd:ctype.obj
 0002:0001bb08       ___newcumap                100e4b08     libucrtd:ctype.obj
 0002:0001bcd4       ??_C@_0DE@PKCHMIOF@minkernel?2crts?2ucrt?2src?2appcrt?2l@ 100e4cd4     libucrtd:initctype.obj
 0002:0001bd18       ??_C@_1GI@DPHPBMAL@?$AAm?$AAi?$AAn?$AAk?$AAe?$AAr?$AAn?$AAe?$AAl?$AA?2?$AAc?$AAr?$AAt?$AAs?$AA?2?$AAu?$AAc?$AAr?$AAt?$AA?2?$AAs?$AAr?$AAc?$AA?2?$AAa?$AAp?$AAp?$AAc?$AAr?$AAt?$AA?2?$AAl@ 100e4d18     libucrtd:initctype.obj
 0002:0001bd94       ??_C@_1DG@NMBGBDM@?$AAp?$AAl?$AAo?$AAc?$AAi?$AA?9?$AA?$DO?$AAc?$AAt?$AAy?$AAp?$AAe?$AA1?$AA_?$AAr?$AAe?$AAf?$AAc?$AAo?$AAu?$AAn?$AAt?$AA?5?$AA?$DO?$AA?5?$AA0?$AA?$AA@ 100e4d94     libucrtd:initctype.obj
 0002:0001bdd4       ??_C@_0DC@GMDOHFAP@minkernel?2crts?2ucrt?2src?2appcrt?2l@ 100e4dd4     libucrtd:initmon.obj
 0002:0001be10       ??_C@_1DM@GKAPAMDO@?$AAp?$AAl?$AAo?$AAc?$AAi?$AA?9?$AA?$DO?$AAl?$AAc?$AAo?$AAn?$AAv?$AA_?$AAm?$AAo?$AAn?$AA_?$AAr?$AAe?$AAf?$AAc?$AAo?$AAu?$AAn?$AAt?$AA?5?$AA?$DO?$AA?5?$AA0?$AA?$AA@ 100e4e10     libucrtd:initmon.obj
 0002:0001be58       ??_C@_1GE@IEFGCKMH@?$AAm?$AAi?$AAn?$AAk?$AAe?$AAr?$AAn?$AAe?$AAl?$AA?2?$AAc?$AAr?$AAt?$AAs?$AA?2?$AAu?$AAc?$AAr?$AAt?$AA?2?$AAs?$AAr?$AAc?$AA?2?$AAa?$AAp?$AAp?$AAc?$AAr?$AAt?$AA?2?$AAl@ 100e4e58     libucrtd:initmon.obj
 0002:0001bed0       ??_C@_0DC@KHILMDMC@minkernel?2crts?2ucrt?2src?2appcrt?2l@ 100e4ed0     libucrtd:initnum.obj
 0002:0001bf0c       ??_C@_1DM@IFKAINNE@?$AAp?$AAl?$AAo?$AAc?$AAi?$AA?9?$AA?$DO?$AAl?$AAc?$AAo?$AAn?$AAv?$AA_?$AAn?$AAu?$AAm?$AA_?$AAr?$AAe?$AAf?$AAc?$AAo?$AAu?$AAn?$AAt?$AA?5?$AA?$DO?$AA?5?$AA0?$AA?$AA@ 100e4f0c     libucrtd:initnum.obj
 0002:0001bf58       ??_C@_1GE@GOIFKKDC@?$AAm?$AAi?$AAn?$AAk?$AAe?$AAr?$AAn?$AAe?$AAl?$AA?2?$AAc?$AAr?$AAt?$AAs?$AA?2?$AAu?$AAc?$AAr?$AAt?$AA?2?$AAs?$AAr?$AAc?$AA?2?$AAa?$AAp?$AAp?$AAc?$AAr?$AAt?$AA?2?$AAl@ 100e4f58     libucrtd:initnum.obj
 0002:0001bfd0       ??_C@_0DD@MPFICDAE@minkernel?2crts?2ucrt?2src?2appcrt?2l@ 100e4fd0     libucrtd:inittime.obj
 0002:0001c010       ??_C@_1HK@HACABKKK@?$AA?$CI?$AA?$CC?$AAl?$AAc?$AA_?$AAt?$AAi?$AAm?$AAe?$AA_?$AAc?$AAu?$AAr?$AAr?$AA?5?$AAu?$AAn?$AAe?$AAx?$AAp?$AAe?$AAc?$AAt?$AAe?$AAd?$AAl?$AAy?$AA?5?$AAh?$AAa?$AAs?$AA?5@ 100e5010     libucrtd:inittime.obj
 0002:0001c0a8       ??_C@_1GG@BFOOANHJ@?$AAm?$AAi?$AAn?$AAk?$AAe?$AAr?$AAn?$AAe?$AAl?$AA?2?$AAc?$AAr?$AAt?$AAs?$AA?2?$AAu?$AAc?$AAr?$AAt?$AA?2?$AAs?$AAr?$AAc?$AA?2?$AAa?$AAp?$AAp?$AAc?$AAr?$AAt?$AA?2?$AAl@ 100e50a8     libucrtd:inittime.obj
 0002:0001c124       ??_C@_1BC@LLOKLNP@?$AAa?$AAm?$AAe?$AAr?$AAi?$AAc?$AAa?$AAn?$AA?$AA@ 100e5124     libucrtd:get_qualified_locale.obj
 0002:0001c13c       ??_C@_1CC@HEIGCDGG@?$AAa?$AAm?$AAe?$AAr?$AAi?$AAc?$AAa?$AAn?$AA?5?$AAe?$AAn?$AAg?$AAl?$AAi?$AAs?$AAh?$AA?$AA@ 100e513c     libucrtd:get_qualified_locale.obj
 0002:0001c164       ??_C@_1CC@IHCNOMIN@?$AAa?$AAm?$AAe?$AAr?$AAi?$AAc?$AAa?$AAn?$AA?9?$AAe?$AAn?$AAg?$AAl?$AAi?$AAs?$AAh?$AA?$AA@ 100e5164     libucrtd:get_qualified_locale.obj
 0002:0001c18c       ??_C@_1BG@GKAGPCGG@?$AAa?$AAu?$AAs?$AAt?$AAr?$AAa?$AAl?$AAi?$AAa?$AAn?$AA?$AA@ 100e518c     libucrtd:get_qualified_locale.obj
 0002:0001c1a8       ??_C@_1BA@GMENCENF@?$AAb?$AAe?$AAl?$AAg?$AAi?$AAa?$AAn?$AA?$AA@ 100e51a8     libucrtd:get_qualified_locale.obj
 0002:0001c1bc       ??_C@_1BC@PJMIIAAN@?$AAc?$AAa?$AAn?$AAa?$AAd?$AAi?$AAa?$AAn?$AA?$AA@ 100e51bc     libucrtd:get_qualified_locale.obj
 0002:0001c1d4       ??_C@_17NOIMNFBF@?$AAc?$AAh?$AAh?$AA?$AA@ 100e51d4     libucrtd:get_qualified_locale.obj
 0002:0001c1e0       ??_C@_17GGDALCHA@?$AAc?$AAh?$AAi?$AA?$AA@ 100e51e0     libucrtd:get_qualified_locale.obj
 0002:0001c1ec       ??_C@_1BA@NPNJKIBL@?$AAc?$AAh?$AAi?$AAn?$AAe?$AAs?$AAe?$AA?$AA@ 100e51ec     libucrtd:get_qualified_locale.obj
 0002:0001c200       ??_C@_1CC@DINBAMMJ@?$AAc?$AAh?$AAi?$AAn?$AAe?$AAs?$AAe?$AA?9?$AAh?$AAo?$AAn?$AAg?$AAk?$AAo?$AAn?$AAg?$AA?$AA@ 100e5200     libucrtd:get_qualified_locale.obj
 0002:0001c228       ??_C@_1CG@IOBJPACO@?$AAc?$AAh?$AAi?$AAn?$AAe?$AAs?$AAe?$AA?9?$AAs?$AAi?$AAm?$AAp?$AAl?$AAi?$AAf?$AAi?$AAe?$AAd?$AA?$AA@ 100e5228     libucrtd:get_qualified_locale.obj
 0002:0001c258       ??_C@_1CE@GAJNDCKG@?$AAc?$AAh?$AAi?$AAn?$AAe?$AAs?$AAe?$AA?9?$AAs?$AAi?$AAn?$AAg?$AAa?$AAp?$AAo?$AAr?$AAe?$AA?$AA@ 100e5258     libucrtd:get_qualified_locale.obj
 0002:0001c284       ??_C@_1CI@PAJPIOOD@?$AAc?$AAh?$AAi?$AAn?$AAe?$AAs?$AAe?$AA?9?$AAt?$AAr?$AAa?$AAd?$AAi?$AAt?$AAi?$AAo?$AAn?$AAa?$AAl?$AA?$AA@ 100e5284     libucrtd:get_qualified_locale.obj
 0002:0001c2b4       ??_C@_1BM@NILJBMMD@?$AAd?$AAu?$AAt?$AAc?$AAh?$AA?9?$AAb?$AAe?$AAl?$AAg?$AAi?$AAa?$AAn?$AA?$AA@ 100e52b4     libucrtd:get_qualified_locale.obj
 0002:0001c2d8       ??_C@_1CC@OOJPJNEJ@?$AAe?$AAn?$AAg?$AAl?$AAi?$AAs?$AAh?$AA?9?$AAa?$AAm?$AAe?$AAr?$AAi?$AAc?$AAa?$AAn?$AA?$AA@ 100e52d8     libucrtd:get_qualified_locale.obj
 0002:0001c300       ??_C@_1BI@IOLFEEM@?$AAe?$AAn?$AAg?$AAl?$AAi?$AAs?$AAh?$AA?9?$AAa?$AAu?$AAs?$AA?$AA@ 100e5300     libucrtd:get_qualified_locale.obj
 0002:0001c31c       ??_C@_1BO@HFFNLENJ@?$AAe?$AAn?$AAg?$AAl?$AAi?$AAs?$AAh?$AA?9?$AAb?$AAe?$AAl?$AAi?$AAz?$AAe?$AA?$AA@ 100e531c     libucrtd:get_qualified_locale.obj
 0002:0001c340       ??_C@_1BI@HAPKJMPO@?$AAe?$AAn?$AAg?$AAl?$AAi?$AAs?$AAh?$AA?9?$AAc?$AAa?$AAn?$AA?$AA@ 100e5340     libucrtd:get_qualified_locale.obj
 0002:0001c35c       ??_C@_1CE@HLNDMIOJ@?$AAe?$AAn?$AAg?$AAl?$AAi?$AAs?$AAh?$AA?9?$AAc?$AAa?$AAr?$AAi?$AAb?$AAb?$AAe?$AAa?$AAn?$AA?$AA@ 100e535c     libucrtd:get_qualified_locale.obj
 0002:0001c388       ??_C@_1BI@LDHJHHAC@?$AAe?$AAn?$AAg?$AAl?$AAi?$AAs?$AAh?$AA?9?$AAi?$AAr?$AAe?$AA?$AA@ 100e5388     libucrtd:get_qualified_locale.obj
 0002:0001c3a4       ??_C@_1CA@NJMMCFOC@?$AAe?$AAn?$AAg?$AAl?$AAi?$AAs?$AAh?$AA?9?$AAj?$AAa?$AAm?$AAa?$AAi?$AAc?$AAa?$AA?$AA@ 100e53a4     libucrtd:get_qualified_locale.obj
 0002:0001c3cc       ??_C@_1BG@BHJEBBGG@?$AAe?$AAn?$AAg?$AAl?$AAi?$AAs?$AAh?$AA?9?$AAn?$AAz?$AA?$AA@ 100e53cc     libucrtd:get_qualified_locale.obj
 0002:0001c3e8       ??_C@_1CK@FGOEJJCO@?$AAe?$AAn?$AAg?$AAl?$AAi?$AAs?$AAh?$AA?9?$AAs?$AAo?$AAu?$AAt?$AAh?$AA?5?$AAa?$AAf?$AAr?$AAi?$AAc?$AAa?$AA?$AA@ 100e53e8     libucrtd:get_qualified_locale.obj
 0002:0001c41c       ??_C@_1DE@PDBJPCJ@?$AAe?$AAn?$AAg?$AAl?$AAi?$AAs?$AAh?$AA?9?$AAt?$AAr?$AAi?$AAn?$AAi?$AAd?$AAa?$AAd?$AA?5?$AAy?$AA?5?$AAt?$AAo?$AAb?$AAa?$AAg?$AAo?$AA?$AA@ 100e541c     libucrtd:get_qualified_locale.obj
 0002:0001c45c       ??_C@_1BG@JGCANDME@?$AAe?$AAn?$AAg?$AAl?$AAi?$AAs?$AAh?$AA?9?$AAu?$AAk?$AA?$AA@ 100e545c     libucrtd:get_qualified_locale.obj
 0002:0001c478       ??_C@_1BG@DINKMLE@?$AAe?$AAn?$AAg?$AAl?$AAi?$AAs?$AAh?$AA?9?$AAu?$AAs?$AA?$AA@ 100e5478     libucrtd:get_qualified_locale.obj
 0002:0001c494       ??_C@_1BI@NMFDBHJE@?$AAe?$AAn?$AAg?$AAl?$AAi?$AAs?$AAh?$AA?9?$AAu?$AAs?$AAa?$AA?$AA@ 100e5494     libucrtd:get_qualified_locale.obj
 0002:0001c4b0       ??_C@_1BO@OIHKJKII@?$AAf?$AAr?$AAe?$AAn?$AAc?$AAh?$AA?9?$AAb?$AAe?$AAl?$AAg?$AAi?$AAa?$AAn?$AA?$AA@ 100e54b0     libucrtd:get_qualified_locale.obj
 0002:0001c4d4       ??_C@_1CA@NKAELJKI@?$AAf?$AAr?$AAe?$AAn?$AAc?$AAh?$AA?9?$AAc?$AAa?$AAn?$AAa?$AAd?$AAi?$AAa?$AAn?$AA?$AA@ 100e54d4     libucrtd:get_qualified_locale.obj
 0002:0001c4fc       ??_C@_1CE@MGKCNLGN@?$AAf?$AAr?$AAe?$AAn?$AAc?$AAh?$AA?9?$AAl?$AAu?$AAx?$AAe?$AAm?$AAb?$AAo?$AAu?$AAr?$AAg?$AA?$AA@ 100e54fc     libucrtd:get_qualified_locale.obj
 0002:0001c528       ??_C@_1BK@CEGEAILM@?$AAf?$AAr?$AAe?$AAn?$AAc?$AAh?$AA?9?$AAs?$AAw?$AAi?$AAs?$AAs?$AA?$AA@ 100e5528     libucrtd:get_qualified_locale.obj
 0002:0001c548       ??_C@_1CA@PAFKEOCC@?$AAg?$AAe?$AAr?$AAm?$AAa?$AAn?$AA?9?$AAa?$AAu?$AAs?$AAt?$AAr?$AAi?$AAa?$AAn?$AA?$AA@ 100e5548     libucrtd:get_qualified_locale.obj
 0002:0001c570       ??_C@_1CI@HCFHGOFD@?$AAg?$AAe?$AAr?$AAm?$AAa?$AAn?$AA?9?$AAl?$AAi?$AAc?$AAh?$AAt?$AAe?$AAn?$AAs?$AAt?$AAe?$AAi?$AAn?$AA?$AA@ 100e5570     libucrtd:get_qualified_locale.obj
 0002:0001c5a0       ??_C@_1CE@FEDDNPDG@?$AAg?$AAe?$AAr?$AAm?$AAa?$AAn?$AA?9?$AAl?$AAu?$AAx?$AAe?$AAm?$AAb?$AAo?$AAu?$AAr?$AAg?$AA?$AA@ 100e55a0     libucrtd:get_qualified_locale.obj
 0002:0001c5cc       ??_C@_1BK@LIMINNMN@?$AAg?$AAe?$AAr?$AAm?$AAa?$AAn?$AA?9?$AAs?$AAw?$AAi?$AAs?$AAs?$AA?$AA@ 100e55cc     libucrtd:get_qualified_locale.obj
 0002:0001c5ec       ??_C@_1BM@LGMDBEPD@?$AAi?$AAr?$AAi?$AAs?$AAh?$AA?9?$AAe?$AAn?$AAg?$AAl?$AAi?$AAs?$AAh?$AA?$AA@ 100e55ec     libucrtd:get_qualified_locale.obj
 0002:0001c610       ??_C@_1BM@NNCFBAEE@?$AAi?$AAt?$AAa?$AAl?$AAi?$AAa?$AAn?$AA?9?$AAs?$AAw?$AAi?$AAs?$AAs?$AA?$AA@ 100e5610     libucrtd:get_qualified_locale.obj
 0002:0001c634       ??_C@_1BE@FEDJNPIB@?$AAn?$AAo?$AAr?$AAw?$AAe?$AAg?$AAi?$AAa?$AAn?$AA?$AA@ 100e5634     libucrtd:get_qualified_locale.obj
 0002:0001c64c       ??_C@_1CC@CILKDEIE@?$AAn?$AAo?$AAr?$AAw?$AAe?$AAg?$AAi?$AAa?$AAn?$AA?9?$AAb?$AAo?$AAk?$AAm?$AAa?$AAl?$AA?$AA@ 100e564c     libucrtd:get_qualified_locale.obj
 0002:0001c674       ??_C@_1CE@DHMMHEPL@?$AAn?$AAo?$AAr?$AAw?$AAe?$AAg?$AAi?$AAa?$AAn?$AA?9?$AAn?$AAy?$AAn?$AAo?$AAr?$AAs?$AAk?$AA?$AA@ 100e5674     libucrtd:get_qualified_locale.obj
 0002:0001c6a0       ??_C@_1CK@OPNMHECD@?$AAp?$AAo?$AAr?$AAt?$AAu?$AAg?$AAu?$AAe?$AAs?$AAe?$AA?9?$AAb?$AAr?$AAa?$AAz?$AAi?$AAl?$AAi?$AAa?$AAn?$AA?$AA@ 100e56a0     libucrtd:get_qualified_locale.obj
 0002:0001c6d4       ??_C@_1CE@KEEHCDB@?$AAs?$AAp?$AAa?$AAn?$AAi?$AAs?$AAh?$AA?9?$AAa?$AAr?$AAg?$AAe?$AAn?$AAt?$AAi?$AAn?$AAa?$AA?$AA@ 100e56d4     libucrtd:get_qualified_locale.obj
 0002:0001c700       ??_C@_1CA@GIAOLHJD@?$AAs?$AAp?$AAa?$AAn?$AAi?$AAs?$AAh?$AA?9?$AAb?$AAo?$AAl?$AAi?$AAv?$AAi?$AAa?$AA?$AA@ 100e5700     libucrtd:get_qualified_locale.obj
 0002:0001c728       ??_C@_1BM@OJNDFNPD@?$AAs?$AAp?$AAa?$AAn?$AAi?$AAs?$AAh?$AA?9?$AAc?$AAh?$AAi?$AAl?$AAe?$AA?$AA@ 100e5728     libucrtd:get_qualified_locale.obj
 0002:0001c74c       ??_C@_1CC@OCOLPALL@?$AAs?$AAp?$AAa?$AAn?$AAi?$AAs?$AAh?$AA?9?$AAc?$AAo?$AAl?$AAo?$AAm?$AAb?$AAi?$AAa?$AA?$AA@ 100e574c     libucrtd:get_qualified_locale.obj
 0002:0001c774       ??_C@_1CG@BPOFMKBB@?$AAs?$AAp?$AAa?$AAn?$AAi?$AAs?$AAh?$AA?9?$AAc?$AAo?$AAs?$AAt?$AAa?$AA?5?$AAr?$AAi?$AAc?$AAa?$AA?$AA@ 100e5774     libucrtd:get_qualified_locale.obj
 0002:0001c7a4       ??_C@_1DG@IGOBAPBB@?$AAs?$AAp?$AAa?$AAn?$AAi?$AAs?$AAh?$AA?9?$AAd?$AAo?$AAm?$AAi?$AAn?$AAi?$AAc?$AAa?$AAn?$AA?5?$AAr?$AAe?$AAp?$AAu?$AAb?$AAl?$AAi?$AAc?$AA?$AA@ 100e57a4     libucrtd:get_qualified_locale.obj
 0002:0001c7e4       ??_C@_1CA@JHAPGEGI@?$AAs?$AAp?$AAa?$AAn?$AAi?$AAs?$AAh?$AA?9?$AAe?$AAc?$AAu?$AAa?$AAd?$AAo?$AAr?$AA?$AA@ 100e57e4     libucrtd:get_qualified_locale.obj
 0002:0001c80c       ??_C@_1CI@LAPALJPP@?$AAs?$AAp?$AAa?$AAn?$AAi?$AAs?$AAh?$AA?9?$AAe?$AAl?$AA?5?$AAs?$AAa?$AAl?$AAv?$AAa?$AAd?$AAo?$AAr?$AA?$AA@ 100e580c     libucrtd:get_qualified_locale.obj
 0002:0001c83c       ??_C@_1CE@PDGBOFOM@?$AAs?$AAp?$AAa?$AAn?$AAi?$AAs?$AAh?$AA?9?$AAg?$AAu?$AAa?$AAt?$AAe?$AAm?$AAa?$AAl?$AAa?$AA?$AA@ 100e583c     libucrtd:get_qualified_locale.obj
 0002:0001c868       ??_C@_1CC@NBEBAODI@?$AAs?$AAp?$AAa?$AAn?$AAi?$AAs?$AAh?$AA?9?$AAh?$AAo?$AAn?$AAd?$AAu?$AAr?$AAa?$AAs?$AA?$AA@ 100e5868     libucrtd:get_qualified_locale.obj
 0002:0001c890       ??_C@_1CA@LLKGHBMF@?$AAs?$AAp?$AAa?$AAn?$AAi?$AAs?$AAh?$AA?9?$AAm?$AAe?$AAx?$AAi?$AAc?$AAa?$AAn?$AA?$AA@ 100e5890     libucrtd:get_qualified_locale.obj
 0002:0001c8b8       ??_C@_1BO@LKNDOIGD@?$AAs?$AAp?$AAa?$AAn?$AAi?$AAs?$AAh?$AA?9?$AAm?$AAo?$AAd?$AAe?$AAr?$AAn?$AA?$AA@ 100e58b8     libucrtd:get_qualified_locale.obj
 0002:0001c8dc       ??_C@_1CE@NMDMOEEB@?$AAs?$AAp?$AAa?$AAn?$AAi?$AAs?$AAh?$AA?9?$AAn?$AAi?$AAc?$AAa?$AAr?$AAa?$AAg?$AAu?$AAa?$AA?$AA@ 100e58dc     libucrtd:get_qualified_locale.obj
 0002:0001c908       ??_C@_1BO@LLCBEJGB@?$AAs?$AAp?$AAa?$AAn?$AAi?$AAs?$AAh?$AA?9?$AAp?$AAa?$AAn?$AAa?$AAm?$AAa?$AA?$AA@ 100e5908     libucrtd:get_qualified_locale.obj
 0002:0001c92c       ??_C@_1CC@FKPGGIHO@?$AAs?$AAp?$AAa?$AAn?$AAi?$AAs?$AAh?$AA?9?$AAp?$AAa?$AAr?$AAa?$AAg?$AAu?$AAa?$AAy?$AA?$AA@ 100e592c     libucrtd:get_qualified_locale.obj
 0002:0001c954       ??_C@_1BK@CDEIHOOP@?$AAs?$AAp?$AAa?$AAn?$AAi?$AAs?$AAh?$AA?9?$AAp?$AAe?$AAr?$AAu?$AA?$AA@ 100e5954     libucrtd:get_qualified_locale.obj
 0002:0001c974       ??_C@_1CI@GAHAKKGP@?$AAs?$AAp?$AAa?$AAn?$AAi?$AAs?$AAh?$AA?9?$AAp?$AAu?$AAe?$AAr?$AAt?$AAo?$AA?5?$AAr?$AAi?$AAc?$AAo?$AA?$AA@ 100e5974     libucrtd:get_qualified_locale.obj
 0002:0001c9a4       ??_C@_1CA@NKJBCAGP@?$AAs?$AAp?$AAa?$AAn?$AAi?$AAs?$AAh?$AA?9?$AAu?$AAr?$AAu?$AAg?$AAu?$AAa?$AAy?$AA?$AA@ 100e59a4     libucrtd:get_qualified_locale.obj
 0002:0001c9cc       ??_C@_1CE@ODILCONM@?$AAs?$AAp?$AAa?$AAn?$AAi?$AAs?$AAh?$AA?9?$AAv?$AAe?$AAn?$AAe?$AAz?$AAu?$AAe?$AAl?$AAa?$AA?$AA@ 100e59cc     libucrtd:get_qualified_locale.obj
 0002:0001c9f8       ??_C@_1CA@OBNMCGFO@?$AAs?$AAw?$AAe?$AAd?$AAi?$AAs?$AAh?$AA?9?$AAf?$AAi?$AAn?$AAl?$AAa?$AAn?$AAd?$AA?$AA@ 100e59f8     libucrtd:get_qualified_locale.obj
 0002:0001ca20       ??_C@_1M@PIPDDPPI@?$AAs?$AAw?$AAi?$AAs?$AAs?$AA?$AA@ 100e5a20     libucrtd:get_qualified_locale.obj
 0002:0001ca30       ??_C@_15PJPFLCCM@?$AAu?$AAk?$AA?$AA@ 100e5a30     libucrtd:get_qualified_locale.obj
 0002:0001ca38       ??_C@_15GMFIMNFM@?$AAu?$AAs?$AA?$AA@ 100e5a38     libucrtd:get_qualified_locale.obj
 0002:0001ca40       ??_C@_17HAEBFAGL@?$AAu?$AAs?$AAa?$AA?$AA@ 100e5a40     libucrtd:get_qualified_locale.obj
 0002:0001ca4c       ??_C@_1BA@DPFJEPHB@?$AAa?$AAm?$AAe?$AAr?$AAi?$AAc?$AAa?$AA?$AA@ 100e5a4c     libucrtd:get_qualified_locale.obj
 0002:0001ca60       ??_C@_1BA@ELOGGFK@?$AAb?$AAr?$AAi?$AAt?$AAa?$AAi?$AAn?$AA?$AA@ 100e5a60     libucrtd:get_qualified_locale.obj
 0002:0001ca74       ??_C@_1M@GHBGIGDA@?$AAc?$AAh?$AAi?$AAn?$AAa?$AA?$AA@ 100e5a74     libucrtd:get_qualified_locale.obj
 0002:0001ca84       ??_C@_1M@NCHEJOPO@?$AAc?$AAz?$AAe?$AAc?$AAh?$AA?$AA@ 100e5a84     libucrtd:get_qualified_locale.obj
 0002:0001ca94       ??_C@_1BA@BKPAPBLA@?$AAe?$AAn?$AAg?$AAl?$AAa?$AAn?$AAd?$AA?$AA@ 100e5a94     libucrtd:get_qualified_locale.obj
 0002:0001caa8       ??_C@_1BM@HKBCKIPC@?$AAg?$AAr?$AAe?$AAa?$AAt?$AA?5?$AAb?$AAr?$AAi?$AAt?$AAa?$AAi?$AAn?$AA?$AA@ 100e5aa8     libucrtd:get_qualified_locale.obj
 0002:0001cacc       ??_C@_1BA@PPCHPGJB@?$AAh?$AAo?$AAl?$AAl?$AAa?$AAn?$AAd?$AA?$AA@ 100e5acc     libucrtd:get_qualified_locale.obj
 0002:0001cae0       ??_C@_1BE@JBMPEGDG@?$AAh?$AAo?$AAn?$AAg?$AA?9?$AAk?$AAo?$AAn?$AAg?$AA?$AA@ 100e5ae0     libucrtd:get_qualified_locale.obj
 0002:0001caf8       ??_C@_1BI@KOELBBPJ@?$AAn?$AAe?$AAw?$AA?9?$AAz?$AAe?$AAa?$AAl?$AAa?$AAn?$AAd?$AA?$AA@ 100e5af8     libucrtd:get_qualified_locale.obj
 0002:0001cb14       ??_C@_15HIEBHAIO@?$AAn?$AAz?$AA?$AA@ 100e5b14     libucrtd:get_qualified_locale.obj
 0002:0001cb1c       ??_C@_1BC@CHBCPFPI@?$AAp?$AAr?$AA?5?$AAc?$AAh?$AAi?$AAn?$AAa?$AA?$AA@ 100e5b1c     libucrtd:get_qualified_locale.obj
 0002:0001cb34       ??_C@_1BC@JAOIIFKD@?$AAp?$AAr?$AA?9?$AAc?$AAh?$AAi?$AAn?$AAa?$AA?$AA@ 100e5b34     libucrtd:get_qualified_locale.obj
 0002:0001cb4c       ??_C@_1BI@BEHPPHKC@?$AAp?$AAu?$AAe?$AAr?$AAt?$AAo?$AA?9?$AAr?$AAi?$AAc?$AAo?$AA?$AA@ 100e5b4c     libucrtd:get_qualified_locale.obj
 0002:0001cb68       ??_C@_1O@PAEOFKDI@?$AAs?$AAl?$AAo?$AAv?$AAa?$AAk?$AA?$AA@ 100e5b68     libucrtd:get_qualified_locale.obj
 0002:0001cb78       ??_C@_1BK@FIHMCKAM@?$AAs?$AAo?$AAu?$AAt?$AAh?$AA?5?$AAa?$AAf?$AAr?$AAi?$AAc?$AAa?$AA?$AA@ 100e5b78     libucrtd:get_qualified_locale.obj
 0002:0001cb98       ??_C@_1BI@NAEOODKB@?$AAs?$AAo?$AAu?$AAt?$AAh?$AA?5?$AAk?$AAo?$AAr?$AAe?$AAa?$AA?$AA@ 100e5b98     libucrtd:get_qualified_locale.obj
 0002:0001cbb4       ??_C@_1BK@FBDGGIFF@?$AAs?$AAo?$AAu?$AAt?$AAh?$AA?9?$AAa?$AAf?$AAr?$AAi?$AAc?$AAa?$AA?$AA@ 100e5bb4     libucrtd:get_qualified_locale.obj
 0002:0001cbd4       ??_C@_1BI@GHLEJDPK@?$AAs?$AAo?$AAu?$AAt?$AAh?$AA?9?$AAk?$AAo?$AAr?$AAe?$AAa?$AA?$AA@ 100e5bd4     libucrtd:get_qualified_locale.obj
 0002:0001cbf0       ??_C@_1CE@PLHLOMJF@?$AAt?$AAr?$AAi?$AAn?$AAi?$AAd?$AAa?$AAd?$AA?5?$AA?$CG?$AA?5?$AAt?$AAo?$AAb?$AAa?$AAg?$AAo?$AA?$AA@ 100e5bf0     libucrtd:get_qualified_locale.obj
 0002:0001cc1c       ??_C@_1BO@MODIMHHI@?$AAu?$AAn?$AAi?$AAt?$AAe?$AAd?$AA?9?$AAk?$AAi?$AAn?$AAg?$AAd?$AAo?$AAm?$AA?$AA@ 100e5c1c     libucrtd:get_qualified_locale.obj
 0002:0001cc40       ??_C@_1BM@FFHJONBJ@?$AAu?$AAn?$AAi?$AAt?$AAe?$AAd?$AA?9?$AAs?$AAt?$AAa?$AAt?$AAe?$AAs?$AA?$AA@ 100e5c40     libucrtd:get_qualified_locale.obj
 0002:0001cc68       ___acrt_rg_language        100e5c68     libucrtd:get_qualified_locale.obj
 0002:0001d010       ___acrt_rg_language_count  100e6010     libucrtd:get_qualified_locale.obj
 0002:0001d018       ___acrt_rg_country         100e6018     libucrtd:get_qualified_locale.obj
 0002:0001d164       ___acrt_rg_country_count   100e6164     libucrtd:get_qualified_locale.obj
 0002:0001d168       ??_C@_1HO@CKHMGCFN@?$AAm?$AAi?$AAn?$AAk?$AAe?$AAr?$AAn?$AAe?$AAl?$AA?2?$AAc?$AAr?$AAt?$AAs?$AA?2?$AAu?$AAc?$AAr?$AAt?$AA?2?$AAs?$AAr?$AAc?$AA?2?$AAa?$AAp?$AAp?$AAc?$AAr?$AAt?$AA?2?$AAl@ 100e6168     libucrtd:get_qualified_locale.obj
 0002:0001d200       ??_C@_1DI@HCPCNHHP@?$AA_?$AA_?$AAa?$AAc?$AAr?$AAt?$AA_?$AAg?$AAe?$AAt?$AA_?$AAq?$AAu?$AAa?$AAl?$AAi?$AAf?$AAi?$AAe?$AAd?$AA_?$AAl?$AAo?$AAc?$AAa?$AAl?$AAe?$AA?$AA@ 100e6200     libucrtd:get_qualified_locale.obj
 0002:0001d248       ??_C@_1BFC@DEALMEIM@?$AAw?$AAc?$AAs?$AAn?$AAc?$AAp?$AAy?$AA_?$AAs?$AA?$CI?$AAl?$AAp?$AAO?$AAu?$AAt?$AAS?$AAt?$AAr?$AA?9?$AA?$DO?$AAs?$AAz?$AAL?$AAo?$AAc?$AAa?$AAl?$AAe?$AAN?$AAa?$AAm?$AAe@ 100e6248     libucrtd:get_qualified_locale.obj
 0002:0001d3e0       ??_C@_1CM@OGEMFJNJ@?$AAL?$AAa?$AAn?$AAg?$AAC?$AAo?$AAu?$AAn?$AAt?$AAr?$AAy?$AAE?$AAn?$AAu?$AAm?$AAP?$AAr?$AAo?$AAc?$AAE?$AAx?$AA?$AA@ 100e63e0     libucrtd:get_qualified_locale.obj
 0002:0001d418       ??_C@_1BDC@CGCEDIGP@?$AAw?$AAc?$AAs?$AAn?$AAc?$AAp?$AAy?$AA_?$AAs?$AA?$CI?$AA_?$AAp?$AAs?$AAe?$AAt?$AAl?$AAo?$AAc?$AA_?$AAd?$AAa?$AAt?$AAa?$AA?9?$AA?$DO?$AA_?$AAc?$AAa?$AAc?$AAh?$AAe?$AAL@ 100e6418     libucrtd:get_qualified_locale.obj
 0002:0001d588       ??_C@_1CG@PGLLICHO@?$AAL?$AAa?$AAn?$AAg?$AAu?$AAa?$AAg?$AAe?$AAE?$AAn?$AAu?$AAm?$AAP?$AAr?$AAo?$AAc?$AAE?$AAx?$AA?$AA@ 100e6588     libucrtd:get_qualified_locale.obj
 0002:0001d5b8       ??_C@_1DC@CPKFANGP@?$AAG?$AAe?$AAt?$AAL?$AAo?$AAc?$AAa?$AAl?$AAe?$AAN?$AAa?$AAm?$AAe?$AAF?$AAr?$AAo?$AAm?$AAD?$AAe?$AAf?$AAa?$AAu?$AAl?$AAt?$AA?$AA@ 100e65b8     libucrtd:get_qualified_locale.obj
 0002:0001d5f8       ??_C@_1BCC@GMJIFDHO@?$AAw?$AAc?$AAs?$AAn?$AAc?$AAp?$AAy?$AA_?$AAs?$AA?$CI?$AA_?$AAp?$AAs?$AAe?$AAt?$AAl?$AAo?$AAc?$AA_?$AAd?$AAa?$AAt?$AAa?$AA?9?$AA?$DO?$AA_?$AAc?$AAa?$AAc?$AAh?$AAe?$AAL@ 100e65f8     libucrtd:get_qualified_locale.obj
 0002:0001d754       ??_C@_17DNCLJFIF@?$AAA?$AAC?$AAP?$AA?$AA@ 100e6754     libucrtd:get_qualified_locale.obj
 0002:0001d760       ??_C@_17CIKBIHLH@?$AAO?$AAC?$AAP?$AA?$AA@ 100e6760     libucrtd:get_qualified_locale.obj
 0002:0001d76c       ___rglangidNotDefault      100e676c     libucrtd:getqloc_downlevel.obj
 0002:0001e014       ??_C@_15EMKDOKLE@?$AAa?$AAr?$AA?$AA@ 100e7014     libucrtd:lcidtoname_downlevel.obj
 0002:0001e01c       ??_C@_15KNPADPLH@?$AAb?$AAg?$AA?$AA@ 100e701c     libucrtd:lcidtoname_downlevel.obj
 0002:0001e024       ??_C@_15EDMHLDMO@?$AAc?$AAa?$AA?$AA@ 100e7024     libucrtd:lcidtoname_downlevel.obj
 0002:0001e02c       ??_C@_1O@BPEAJADD@?$AAz?$AAh?$AA?9?$AAC?$AAH?$AAS?$AA?$AA@ 100e702c     libucrtd:lcidtoname_downlevel.obj
 0002:0001e03c       ??_C@_15LJNHCMNK@?$AAc?$AAs?$AA?$AA@ 100e703c     libucrtd:lcidtoname_downlevel.obj
 0002:0001e044       ??_C@_15FOMCIDHG@?$AAd?$AAa?$AA?$AA@ 100e7044     libucrtd:lcidtoname_downlevel.obj
 0002:0001e04c       ??_C@_15NBKABECB@?$AAd?$AAe?$AA?$AA@ 100e704c     libucrtd:lcidtoname_downlevel.obj
 0002:0001e054       ??_C@_15GHPEIIAO@?$AAe?$AAl?$AA?$AA@ 100e7054     libucrtd:lcidtoname_downlevel.obj
 0002:0001e05c       ??_C@_15MNPNEAIF@?$AAe?$AAn?$AA?$AA@ 100e705c     libucrtd:lcidtoname_downlevel.obj
 0002:0001e064       ??_C@_15GPIOMPMH@?$AAe?$AAs?$AA?$AA@ 100e7064     libucrtd:lcidtoname_downlevel.obj
 0002:0001e06c       ??_C@_15NGLOAKJC@?$AAf?$AAi?$AA?$AA@ 100e706c     libucrtd:lcidtoname_downlevel.obj
 0002:0001e074       ??_C@_15FBKGNKAM@?$AAf?$AAr?$AA?$AA@ 100e7074     libucrtd:lcidtoname_downlevel.obj
 0002:0001e07c       ??_C@_15KGGCNEFK@?$AAh?$AAe?$AA?$AA@ 100e707c     libucrtd:lcidtoname_downlevel.obj
 0002:0001e084       ??_C@_15PGHLIDMF@?$AAh?$AAu?$AA?$AA@ 100e7084     libucrtd:lcidtoname_downlevel.obj
 0002:0001e08c       ??_C@_15BIEMAPLM@?$AAi?$AAs?$AA?$AA@ 100e708c     libucrtd:lcidtoname_downlevel.obj
 0002:0001e094       ??_C@_15IFJLDHAF@?$AAi?$AAt?$AA?$AA@ 100e7094     libucrtd:lcidtoname_downlevel.obj
 0002:0001e09c       ??_C@_15GEMIOCAG@?$AAj?$AAa?$AA?$AA@ 100e709c     libucrtd:lcidtoname_downlevel.obj
 0002:0001e0a4       ??_C@_15EPELEGJA@?$AAk?$AAo?$AA?$AA@ 100e70a4     libucrtd:lcidtoname_downlevel.obj
 0002:0001e0ac       ??_C@_15NDDHIMN@?$AAn?$AAl?$AA?$AA@ 100e70ac     libucrtd:lcidtoname_downlevel.obj
 0002:0001e0b4       ??_C@_15BPIGNHCD@?$AAn?$AAo?$AA?$AA@ 100e70b4     libucrtd:lcidtoname_downlevel.obj
 0002:0001e0bc       ??_C@_15DEOPBLCG@?$AAp?$AAl?$AA?$AA@ 100e70bc     libucrtd:lcidtoname_downlevel.obj
 0002:0001e0c4       ??_C@_15KBECGEFG@?$AAp?$AAt?$AA?$AA@ 100e70c4     libucrtd:lcidtoname_downlevel.obj
 0002:0001e0cc       ??_C@_15GLJCBFMD@?$AAr?$AAo?$AA?$AA@ 100e70cc     libucrtd:lcidtoname_downlevel.obj
 0002:0001e0d4       ??_C@_15FEDGKCDI@?$AAr?$AAu?$AA?$AA@ 100e70d4     libucrtd:lcidtoname_downlevel.obj
 0002:0001e0dc       ??_C@_15GLKMLLHM@?$AAh?$AAr?$AA?$AA@ 100e70dc     libucrtd:lcidtoname_downlevel.obj
 0002:0001e0e4       ??_C@_15CPKMFBDB@?$AAs?$AAk?$AA?$AA@ 100e70e4     libucrtd:lcidtoname_downlevel.obj
 0002:0001e0ec       ??_C@_15BAAIOGMK@?$AAs?$AAq?$AA?$AA@ 100e70ec     libucrtd:lcidtoname_downlevel.obj
 0002:0001e0f4       ??_C@_15INNPNOHD@?$AAs?$AAv?$AA?$AA@ 100e70f4     libucrtd:lcidtoname_downlevel.obj
 0002:0001e0fc       ??_C@_15CABMMOGH@?$AAt?$AAh?$AA?$AA@ 100e70fc     libucrtd:lcidtoname_downlevel.obj
 0002:0001e104       ??_C@_15BPLIHJJM@?$AAt?$AAr?$AA?$AA@ 100e7104     libucrtd:lcidtoname_downlevel.obj
 0002:0001e10c       ??_C@_15NEOEKKDJ@?$AAu?$AAr?$AA?$AA@ 100e710c     libucrtd:lcidtoname_downlevel.obj
 0002:0001e114       ??_C@_15NFICGAJK@?$AAi?$AAd?$AA?$AA@ 100e7114     libucrtd:lcidtoname_downlevel.obj
 0002:0001e11c       ??_C@_15HPJPHDM@?$AAb?$AAe?$AA?$AA@ 100e711c     libucrtd:lcidtoname_downlevel.obj
 0002:0001e124       ??_C@_15LCHLGJII@?$AAs?$AAl?$AA?$AA@ 100e7124     libucrtd:lcidtoname_downlevel.obj
 0002:0001e12c       ??_C@_15PCFJPHHO@?$AAe?$AAt?$AA?$AA@ 100e712c     libucrtd:lcidtoname_downlevel.obj
 0002:0001e134       ??_C@_15HPFPGODN@?$AAl?$AAv?$AA?$AA@ 100e7134     libucrtd:lcidtoname_downlevel.obj
 0002:0001e13c       ??_C@_15NFFGKGLG@?$AAl?$AAt?$AA?$AA@ 100e713c     libucrtd:lcidtoname_downlevel.obj
 0002:0001e144       ??_C@_15BDAKCCHN@?$AAf?$AAa?$AA?$AA@ 100e7144     libucrtd:lcidtoname_downlevel.obj
 0002:0001e14c       ??_C@_15NFGIAIAJ@?$AAv?$AAi?$AA?$AA@ 100e714c     libucrtd:lcidtoname_downlevel.obj
 0002:0001e154       ??_C@_15LMKNDMHN@?$AAh?$AAy?$AA?$AA@ 100e7154     libucrtd:lcidtoname_downlevel.obj
 0002:0001e15c       ??_C@_15IJBHMCFL@?$AAa?$AAz?$AA?$AA@ 100e715c     libucrtd:lcidtoname_downlevel.obj
 0002:0001e164       ??_C@_15EKOFJABL@?$AAe?$AAu?$AA?$AA@ 100e7164     libucrtd:lcidtoname_downlevel.obj
 0002:0001e16c       ??_C@_15BGHADCNK@?$AAm?$AAk?$AA?$AA@ 100e716c     libucrtd:lcidtoname_downlevel.obj
 0002:0001e174       ??_C@_15JDNICKHM@?$AAa?$AAf?$AA?$AA@ 100e7174     libucrtd:lcidtoname_downlevel.obj
 0002:0001e17c       ??_C@_15KPJEDBKD@?$AAk?$AAa?$AA?$AA@ 100e717c     libucrtd:lcidtoname_downlevel.obj
 0002:0001e184       ??_C@_15PDNFFFEO@?$AAf?$AAo?$AA?$AA@ 100e7184     libucrtd:lcidtoname_downlevel.obj
 0002:0001e18c       ??_C@_15OMLEGLOC@?$AAh?$AAi?$AA?$AA@ 100e718c     libucrtd:lcidtoname_downlevel.obj
 0002:0001e194       ??_C@_15IDNNENKK@?$AAm?$AAs?$AA?$AA@ 100e7194     libucrtd:lcidtoname_downlevel.obj
 0002:0001e19c       ??_C@_15MACJNBMH@?$AAk?$AAk?$AA?$AA@ 100e719c     libucrtd:lcidtoname_downlevel.obj
 0002:0001e1a4       ??_C@_15DKDJEOND@?$AAk?$AAy?$AA?$AA@ 100e71a4     libucrtd:lcidtoname_downlevel.obj
 0002:0001e1ac       ??_C@_15DFGDLJBG@?$AAs?$AAw?$AA?$AA@ 100e71ac     libucrtd:lcidtoname_downlevel.obj
 0002:0001e1b4       ??_C@_15BBFAICNG@?$AAu?$AAz?$AA?$AA@ 100e71b4     libucrtd:lcidtoname_downlevel.obj
 0002:0001e1bc       ??_C@_15DKNDCGEA@?$AAt?$AAt?$AA?$AA@ 100e71bc     libucrtd:lcidtoname_downlevel.obj
 0002:0001e1c4       ??_C@_15MGIFMDPL@?$AAp?$AAa?$AA?$AA@ 100e71c4     libucrtd:lcidtoname_downlevel.obj
 0002:0001e1cc       ??_C@_15HCNDBBA@?$AAg?$AAu?$AA?$AA@ 100e71cc     libucrtd:lcidtoname_downlevel.obj
 0002:0001e1d4       ??_C@_15FNBEIBON@?$AAt?$AAa?$AA?$AA@ 100e71d4     libucrtd:lcidtoname_downlevel.obj
 0002:0001e1dc       ??_C@_15NCHGBGLK@?$AAt?$AAe?$AA?$AA@ 100e71dc     libucrtd:lcidtoname_downlevel.obj
 0002:0001e1e4       ??_C@_15PHPHCBPF@?$AAk?$AAn?$AA?$AA@ 100e71e4     libucrtd:lcidtoname_downlevel.obj
 0002:0001e1ec       ??_C@_15DLGBCKMP@?$AAm?$AAr?$AA?$AA@ 100e71ec     libucrtd:lcidtoname_downlevel.obj
 0002:0001e1f4       ??_C@_15EABBLBFF@?$AAs?$AAa?$AA?$AA@ 100e71f4     libucrtd:lcidtoname_downlevel.obj
 0002:0001e1fc       ??_C@_15CBKOMCOI@?$AAm?$AAn?$AA?$AA@ 100e71fc     libucrtd:lcidtoname_downlevel.obj
 0002:0001e204       ??_C@_15CKDMCJAF@?$AAg?$AAl?$AA?$AA@ 100e7204     libucrtd:lcidtoname_downlevel.obj
 0002:0001e20c       ??_C@_17CNJFBPG@?$AAk?$AAo?$AAk?$AA?$AA@ 100e720c     libucrtd:lcidtoname_downlevel.obj
 0002:0001e218       ??_C@_17FFBJICPL@?$AAs?$AAy?$AAr?$AA?$AA@ 100e7218     libucrtd:lcidtoname_downlevel.obj
 0002:0001e224       ??_C@_17KPNDCPAF@?$AAd?$AAi?$AAv?$AA?$AA@ 100e7224     libucrtd:lcidtoname_downlevel.obj
 0002:0001e230       ??_C@_1M@OKAHONE@?$AAa?$AAr?$AA?9?$AAS?$AAA?$AA?$AA@ 100e7230     libucrtd:lcidtoname_downlevel.obj
 0002:0001e240       ??_C@_1M@FFFIGIGK@?$AAb?$AAg?$AA?9?$AAB?$AAG?$AA?$AA@ 100e7240     libucrtd:lcidtoname_downlevel.obj
 0002:0001e250       ??_C@_1M@BJNKEDC@?$AAc?$AAa?$AA?9?$AAE?$AAS?$AA?$AA@ 100e7250     libucrtd:lcidtoname_downlevel.obj
 0002:0001e260       ??_C@_1M@IJJHFJHA@?$AAc?$AAs?$AA?9?$AAC?$AAZ?$AA?$AA@ 100e7260     libucrtd:lcidtoname_downlevel.obj
 0002:0001e270       ??_C@_1M@CLPEOBGI@?$AAd?$AAa?$AA?9?$AAD?$AAK?$AA?$AA@ 100e7270     libucrtd:lcidtoname_downlevel.obj
 0002:0001e280       ??_C@_1M@MCMADGCB@?$AAd?$AAe?$AA?9?$AAD?$AAE?$AA?$AA@ 100e7280     libucrtd:lcidtoname_downlevel.obj
 0002:0001e290       ??_C@_1M@OOCKEMAM@?$AAe?$AAl?$AA?9?$AAG?$AAR?$AA?$AA@ 100e7290     libucrtd:lcidtoname_downlevel.obj
 0002:0001e2a0       ??_C@_1M@DDNJFGID@?$AAf?$AAi?$AA?9?$AAF?$AAI?$AA?$AA@ 100e72a0     libucrtd:lcidtoname_downlevel.obj
 0002:0001e2b0       ??_C@_1M@GLIPPMAC@?$AAf?$AAr?$AA?9?$AAF?$AAR?$AA?$AA@ 100e72b0     libucrtd:lcidtoname_downlevel.obj
 0002:0001e2c0       ??_C@_1M@GFMCHPE@?$AAh?$AAe?$AA?9?$AAI?$AAL?$AA?$AA@ 100e72c0     libucrtd:lcidtoname_downlevel.obj
 0002:0001e2d0       ??_C@_1M@MHLPGNKM@?$AAh?$AAu?$AA?9?$AAH?$AAU?$AA?$AA@ 100e72d0     libucrtd:lcidtoname_downlevel.obj
 0002:0001e2e0       ??_C@_1M@LPDDNNPN@?$AAi?$AAs?$AA?9?$AAI?$AAS?$AA?$AA@ 100e72e0     libucrtd:lcidtoname_downlevel.obj
 0002:0001e2f0       ??_C@_1M@MADIPODN@?$AAi?$AAt?$AA?9?$AAI?$AAT?$AA?$AA@ 100e72f0     libucrtd:lcidtoname_downlevel.obj
 0002:0001e300       ??_C@_1M@IHBJJGG@?$AAn?$AAl?$AA?9?$AAN?$AAL?$AA?$AA@ 100e7300     libucrtd:lcidtoname_downlevel.obj
 0002:0001e310       ??_C@_1M@EANAGDL@?$AAn?$AAb?$AA?9?$AAN?$AAO?$AA?$AA@ 100e7310     libucrtd:lcidtoname_downlevel.obj
 0002:0001e320       ??_C@_1M@NEIEMEGP@?$AAp?$AAl?$AA?9?$AAP?$AAL?$AA?$AA@ 100e7320     libucrtd:lcidtoname_downlevel.obj
 0002:0001e330       ??_C@_1M@BOCFIGEP@?$AAp?$AAt?$AA?9?$AAB?$AAR?$AA?$AA@ 100e7330     libucrtd:lcidtoname_downlevel.obj
 0002:0001e340       ??_C@_1M@IMPFOPBG@?$AAr?$AAo?$AA?9?$AAR?$AAO?$AA?$AA@ 100e7340     libucrtd:lcidtoname_downlevel.obj
 0002:0001e350       ??_C@_1M@IDNNEJMM@?$AAr?$AAu?$AA?9?$AAR?$AAU?$AA?$AA@ 100e7350     libucrtd:lcidtoname_downlevel.obj
 0002:0001e360       ??_C@_1M@LILEEOGM@?$AAh?$AAr?$AA?9?$AAH?$AAR?$AA?$AA@ 100e7360     libucrtd:lcidtoname_downlevel.obj
 0002:0001e370       ??_C@_1M@FKIFEHPB@?$AAs?$AAk?$AA?9?$AAS?$AAK?$AA?$AA@ 100e7370     libucrtd:lcidtoname_downlevel.obj
 0002:0001e380       ??_C@_1M@LJMAMNPJ@?$AAs?$AAq?$AA?9?$AAA?$AAL?$AA?$AA@ 100e7380     libucrtd:lcidtoname_downlevel.obj
 0002:0001e390       ??_C@_1M@GIAKDKJK@?$AAs?$AAv?$AA?9?$AAS?$AAE?$AA?$AA@ 100e7390     libucrtd:lcidtoname_downlevel.obj
 0002:0001e3a0       ??_C@_1M@MKJKIKCL@?$AAt?$AAh?$AA?9?$AAT?$AAH?$AA?$AA@ 100e73a0     libucrtd:lcidtoname_downlevel.obj
 0002:0001e3b0       ??_C@_1M@MFLCCMPB@?$AAt?$AAr?$AA?9?$AAT?$AAR?$AA?$AA@ 100e73b0     libucrtd:lcidtoname_downlevel.obj
 0002:0001e3c0       ??_C@_1M@OIJHDKJN@?$AAu?$AAr?$AA?9?$AAP?$AAK?$AA?$AA@ 100e73c0     libucrtd:lcidtoname_downlevel.obj
 0002:0001e3d0       ??_C@_1M@LHIPCIEK@?$AAi?$AAd?$AA?9?$AAI?$AAD?$AA?$AA@ 100e73d0     libucrtd:lcidtoname_downlevel.obj
 0002:0001e3e0       ??_C@_1M@MFMOBGI@?$AAu?$AAk?$AA?9?$AAU?$AAA?$AA?$AA@ 100e73e0     libucrtd:lcidtoname_downlevel.obj
 0002:0001e3f0       ??_C@_1M@OBGLJIPL@?$AAb?$AAe?$AA?9?$AAB?$AAY?$AA?$AA@ 100e73f0     libucrtd:lcidtoname_downlevel.obj
 0002:0001e400       ??_C@_1M@BCFAJEAD@?$AAs?$AAl?$AA?9?$AAS?$AAI?$AA?$AA@ 100e7400     libucrtd:lcidtoname_downlevel.obj
 0002:0001e410       ??_C@_1M@FKFFEDDN@?$AAe?$AAt?$AA?9?$AAE?$AAE?$AA?$AA@ 100e7410     libucrtd:lcidtoname_downlevel.obj
 0002:0001e420       ??_C@_1M@KGKKAACI@?$AAl?$AAv?$AA?9?$AAL?$AAV?$AA?$AA@ 100e7420     libucrtd:lcidtoname_downlevel.obj
 0002:0001e430       ??_C@_1M@IFGBIJO@?$AAl?$AAt?$AA?9?$AAL?$AAT?$AA?$AA@ 100e7430     libucrtd:lcidtoname_downlevel.obj
 0002:0001e440       ??_C@_1M@FGEAHEDM@?$AAf?$AAa?$AA?9?$AAI?$AAR?$AA?$AA@ 100e7440     libucrtd:lcidtoname_downlevel.obj
 0002:0001e450       ??_C@_1M@KBMAIBFN@?$AAv?$AAi?$AA?9?$AAV?$AAN?$AA?$AA@ 100e7450     libucrtd:lcidtoname_downlevel.obj
 0002:0001e460       ??_C@_1M@GPCBKDJK@?$AAh?$AAy?$AA?9?$AAA?$AAM?$AA?$AA@ 100e7460     libucrtd:lcidtoname_downlevel.obj
 0002:0001e470       ??_C@_1BG@BECMDDJB@?$AAa?$AAz?$AA?9?$AAA?$AAZ?$AA?9?$AAL?$AAa?$AAt?$AAn?$AA?$AA@ 100e7470     libucrtd:lcidtoname_downlevel.obj
 0002:0001e48c       ??_C@_1M@MAOFCAEA@?$AAe?$AAu?$AA?9?$AAE?$AAS?$AA?$AA@ 100e748c     libucrtd:lcidtoname_downlevel.obj
 0002:0001e49c       ??_C@_1M@IGHABKPI@?$AAm?$AAk?$AA?9?$AAM?$AAK?$AA?$AA@ 100e749c     libucrtd:lcidtoname_downlevel.obj
 0002:0001e4ac       ??_C@_1M@IAIGNEJG@?$AAt?$AAn?$AA?9?$AAZ?$AAA?$AA?$AA@ 100e74ac     libucrtd:lcidtoname_downlevel.obj
 0002:0001e4bc       ??_C@_1M@IIJCOJFA@?$AAx?$AAh?$AA?9?$AAZ?$AAA?$AA?$AA@ 100e74bc     libucrtd:lcidtoname_downlevel.obj
 0002:0001e4cc       ??_C@_1M@LGPJHNJH@?$AAz?$AAu?$AA?9?$AAZ?$AAA?$AA?$AA@ 100e74cc     libucrtd:lcidtoname_downlevel.obj
 0002:0001e4dc       ??_C@_1M@HOKAOIO@?$AAa?$AAf?$AA?9?$AAZ?$AAA?$AA?$AA@ 100e74dc     libucrtd:lcidtoname_downlevel.obj
 0002:0001e4ec       ??_C@_1M@DPCLHLIE@?$AAk?$AAa?$AA?9?$AAG?$AAE?$AA?$AA@ 100e74ec     libucrtd:lcidtoname_downlevel.obj
 0002:0001e4fc       ??_C@_1M@BLKMHJBI@?$AAf?$AAo?$AA?9?$AAF?$AAO?$AA?$AA@ 100e74fc     libucrtd:lcidtoname_downlevel.obj
 0002:0001e50c       ??_C@_1M@LGGJAPPB@?$AAh?$AAi?$AA?9?$AAI?$AAN?$AA?$AA@ 100e750c     libucrtd:lcidtoname_downlevel.obj
 0002:0001e51c       ??_C@_1M@FIKPIHFE@?$AAm?$AAt?$AA?9?$AAM?$AAT?$AA?$AA@ 100e751c     libucrtd:lcidtoname_downlevel.obj
 0002:0001e52c       ??_C@_1M@HEGGPBFA@?$AAs?$AAe?$AA?9?$AAN?$AAO?$AA?$AA@ 100e752c     libucrtd:lcidtoname_downlevel.obj
 0002:0001e53c       ??_C@_1M@EIBJEEPA@?$AAm?$AAs?$AA?9?$AAM?$AAY?$AA?$AA@ 100e753c     libucrtd:lcidtoname_downlevel.obj
 0002:0001e54c       ??_C@_1M@FHLBGMPP@?$AAk?$AAk?$AA?9?$AAK?$AAZ?$AA?$AA@ 100e754c     libucrtd:lcidtoname_downlevel.obj
 0002:0001e55c       ??_C@_1M@NGJJLCGI@?$AAk?$AAy?$AA?9?$AAK?$AAG?$AA?$AA@ 100e755c     libucrtd:lcidtoname_downlevel.obj
 0002:0001e56c       ??_C@_1M@GIENNBFC@?$AAs?$AAw?$AA?9?$AAK?$AAE?$AA?$AA@ 100e756c     libucrtd:lcidtoname_downlevel.obj
 0002:0001e57c       ??_C@_1BG@NDGMJIMJ@?$AAu?$AAz?$AA?9?$AAU?$AAZ?$AA?9?$AAL?$AAa?$AAt?$AAn?$AA?$AA@ 100e757c     libucrtd:lcidtoname_downlevel.obj
 0002:0001e598       ??_C@_1M@IDCCIHBC@?$AAt?$AAt?$AA?9?$AAR?$AAU?$AA?$AA@ 100e7598     libucrtd:lcidtoname_downlevel.obj
 0002:0001e5a8       ??_C@_1M@LOICPMOJ@?$AAb?$AAn?$AA?9?$AAI?$AAN?$AA?$AA@ 100e75a8     libucrtd:lcidtoname_downlevel.obj
 0002:0001e5b8       ??_C@_1M@KPKKNEAH@?$AAp?$AAa?$AA?9?$AAI?$AAN?$AA?$AA@ 100e75b8     libucrtd:lcidtoname_downlevel.obj
 0002:0001e5c8       ??_C@_1M@PJGPPBOG@?$AAg?$AAu?$AA?9?$AAI?$AAN?$AA?$AA@ 100e75c8     libucrtd:lcidtoname_downlevel.obj
 0002:0001e5d8       ??_C@_1M@KMKMOPHI@?$AAt?$AAa?$AA?9?$AAI?$AAN?$AA?$AA@ 100e75d8     libucrtd:lcidtoname_downlevel.obj
 0002:0001e5e8       ??_C@_1M@KFEHEPAC@?$AAt?$AAe?$AA?9?$AAI?$AAN?$AA?$AA@ 100e75e8     libucrtd:lcidtoname_downlevel.obj
 0002:0001e5f8       ??_C@_1M@CDCLMGHI@?$AAk?$AAn?$AA?9?$AAI?$AAN?$AA?$AA@ 100e75f8     libucrtd:lcidtoname_downlevel.obj
 0002:0001e608       ??_C@_1M@MIODLDKF@?$AAm?$AAl?$AA?9?$AAI?$AAN?$AA?$AA@ 100e7608     libucrtd:lcidtoname_downlevel.obj
 0002:0001e618       ??_C@_1M@PBIEACPO@?$AAm?$AAr?$AA?9?$AAI?$AAN?$AA?$AA@ 100e7618     libucrtd:lcidtoname_downlevel.obj
 0002:0001e628       ??_C@_1M@NIDEAGPH@?$AAs?$AAa?$AA?9?$AAI?$AAN?$AA?$AA@ 100e7628     libucrtd:lcidtoname_downlevel.obj
 0002:0001e638       ??_C@_1M@FHIHCBIO@?$AAm?$AAn?$AA?9?$AAM?$AAN?$AA?$AA@ 100e7638     libucrtd:lcidtoname_downlevel.obj
 0002:0001e648       ??_C@_1M@JAIJPENP@?$AAc?$AAy?$AA?9?$AAG?$AAB?$AA?$AA@ 100e7648     libucrtd:lcidtoname_downlevel.obj
 0002:0001e658       ??_C@_1M@PHGFBEPN@?$AAg?$AAl?$AA?9?$AAE?$AAS?$AA?$AA@ 100e7658     libucrtd:lcidtoname_downlevel.obj
 0002:0001e668       ??_C@_1O@KPIPDNCP@?$AAk?$AAo?$AAk?$AA?9?$AAI?$AAN?$AA?$AA@ 100e7668     libucrtd:lcidtoname_downlevel.obj
 0002:0001e678       ??_C@_1O@KNHJLDJA@?$AAs?$AAy?$AAr?$AA?9?$AAS?$AAY?$AA?$AA@ 100e7678     libucrtd:lcidtoname_downlevel.obj
 0002:0001e688       ??_C@_1O@MKEKBLAH@?$AAd?$AAi?$AAv?$AA?9?$AAM?$AAV?$AA?$AA@ 100e7688     libucrtd:lcidtoname_downlevel.obj
 0002:0001e698       ??_C@_1O@OHDCKDDF@?$AAq?$AAu?$AAz?$AA?9?$AAB?$AAO?$AA?$AA@ 100e7698     libucrtd:lcidtoname_downlevel.obj
 0002:0001e6a8       ??_C@_1M@LEPJNLFD@?$AAn?$AAs?$AA?9?$AAZ?$AAA?$AA?$AA@ 100e76a8     libucrtd:lcidtoname_downlevel.obj
 0002:0001e6b8       ??_C@_1M@OMLEIIJB@?$AAm?$AAi?$AA?9?$AAN?$AAZ?$AA?$AA@ 100e76b8     libucrtd:lcidtoname_downlevel.obj
 0002:0001e6c8       ??_C@_1M@PMPEAILG@?$AAa?$AAr?$AA?9?$AAI?$AAQ?$AA?$AA@ 100e76c8     libucrtd:lcidtoname_downlevel.obj
 0002:0001e6d8       ??_C@_1M@CNKPNOEE@?$AAd?$AAe?$AA?9?$AAC?$AAH?$AA?$AA@ 100e76d8     libucrtd:lcidtoname_downlevel.obj
 0002:0001e6e8       ??_C@_1M@LKMGMLKO@?$AAe?$AAn?$AA?9?$AAG?$AAB?$AA?$AA@ 100e76e8     libucrtd:lcidtoname_downlevel.obj
 0002:0001e6f8       ??_C@_1M@PGKJFFGL@?$AAe?$AAs?$AA?9?$AAM?$AAX?$AA?$AA@ 100e76f8     libucrtd:lcidtoname_downlevel.obj
 0002:0001e708       ??_C@_1M@DNNANBDC@?$AAf?$AAr?$AA?9?$AAB?$AAE?$AA?$AA@ 100e7708     libucrtd:lcidtoname_downlevel.obj
 0002:0001e718       ??_C@_1M@HLGMDFHM@?$AAi?$AAt?$AA?9?$AAC?$AAH?$AA?$AA@ 100e7718     libucrtd:lcidtoname_downlevel.obj
 0002:0001e728       ??_C@_1M@CLLBGJH@?$AAn?$AAl?$AA?9?$AAB?$AAE?$AA?$AA@ 100e7728     libucrtd:lcidtoname_downlevel.obj
 0002:0001e738       ??_C@_1M@BODBOGLF@?$AAn?$AAn?$AA?9?$AAN?$AAO?$AA?$AA@ 100e7738     libucrtd:lcidtoname_downlevel.obj
 0002:0001e748       ??_C@_1M@HFFAHKAD@?$AAp?$AAt?$AA?9?$AAP?$AAT?$AA?$AA@ 100e7748     libucrtd:lcidtoname_downlevel.obj
 0002:0001e758       ??_C@_1BG@LNOAKHIE@?$AAs?$AAr?$AA?9?$AAS?$AAP?$AA?9?$AAL?$AAa?$AAt?$AAn?$AA?$AA@ 100e7758     libucrtd:lcidtoname_downlevel.obj
 0002:0001e774       ??_C@_1M@HBMHBGAK@?$AAs?$AAv?$AA?9?$AAF?$AAI?$AA?$AA@ 100e7774     libucrtd:lcidtoname_downlevel.obj
 0002:0001e784       ??_C@_1BG@DGCJGJBE@?$AAa?$AAz?$AA?9?$AAA?$AAZ?$AA?9?$AAC?$AAy?$AAr?$AAl?$AA?$AA@ 100e7784     libucrtd:lcidtoname_downlevel.obj
 0002:0001e7a0       ??_C@_1M@KEJDAAHB@?$AAs?$AAe?$AA?9?$AAS?$AAE?$AA?$AA@ 100e77a0     libucrtd:lcidtoname_downlevel.obj
 0002:0001e7b0       ??_C@_1M@HEIBJJAD@?$AAm?$AAs?$AA?9?$AAB?$AAN?$AA?$AA@ 100e77b0     libucrtd:lcidtoname_downlevel.obj
 0002:0001e7c0       ??_C@_1BG@PBGJMCEM@?$AAu?$AAz?$AA?9?$AAU?$AAZ?$AA?9?$AAC?$AAy?$AAr?$AAl?$AA?$AA@ 100e77c0     libucrtd:lcidtoname_downlevel.obj
 0002:0001e7dc       ??_C@_1O@LAOBCMDF@?$AAq?$AAu?$AAz?$AA?9?$AAE?$AAC?$AA?$AA@ 100e77dc     libucrtd:lcidtoname_downlevel.obj
 0002:0001e7ec       ??_C@_1M@POEEMAIO@?$AAa?$AAr?$AA?9?$AAE?$AAG?$AA?$AA@ 100e77ec     libucrtd:lcidtoname_downlevel.obj
 0002:0001e7fc       ??_C@_1M@EFAKDEDL@?$AAz?$AAh?$AA?9?$AAH?$AAK?$AA?$AA@ 100e77fc     libucrtd:lcidtoname_downlevel.obj
 0002:0001e80c       ??_C@_1M@HKKIJHGI@?$AAd?$AAe?$AA?9?$AAA?$AAT?$AA?$AA@ 100e780c     libucrtd:lcidtoname_downlevel.obj
 0002:0001e81c       ??_C@_1M@KBFBEHJF@?$AAe?$AAn?$AA?9?$AAA?$AAU?$AA?$AA@ 100e781c     libucrtd:lcidtoname_downlevel.obj
 0002:0001e82c       ??_C@_1M@MNPLFAAH@?$AAe?$AAs?$AA?9?$AAE?$AAS?$AA?$AA@ 100e782c     libucrtd:lcidtoname_downlevel.obj
 0002:0001e83c       ??_C@_1M@HJOOJFMA@?$AAf?$AAr?$AA?9?$AAC?$AAA?$AA?$AA@ 100e783c     libucrtd:lcidtoname_downlevel.obj
 0002:0001e84c       ??_C@_1BG@JPOFPNAB@?$AAs?$AAr?$AA?9?$AAS?$AAP?$AA?9?$AAC?$AAy?$AAr?$AAl?$AA?$AA@ 100e784c     libucrtd:lcidtoname_downlevel.obj
 0002:0001e868       ??_C@_1M@LNFOCMOB@?$AAs?$AAe?$AA?9?$AAF?$AAI?$AA?$AA@ 100e7868     libucrtd:lcidtoname_downlevel.obj
 0002:0001e878       ??_C@_1O@MGJBOAMB@?$AAq?$AAu?$AAz?$AA?9?$AAP?$AAE?$AA?$AA@ 100e7878     libucrtd:lcidtoname_downlevel.obj
 0002:0001e888       ??_C@_1M@GJINLBOK@?$AAa?$AAr?$AA?9?$AAL?$AAY?$AA?$AA@ 100e7888     libucrtd:lcidtoname_downlevel.obj
 0002:0001e898       ??_C@_1M@GGMNHJNL@?$AAz?$AAh?$AA?9?$AAS?$AAG?$AA?$AA@ 100e7898     libucrtd:lcidtoname_downlevel.obj
 0002:0001e8a8       ??_C@_1M@HOIKODND@?$AAd?$AAe?$AA?9?$AAL?$AAU?$AA?$AA@ 100e78a8     libucrtd:lcidtoname_downlevel.obj
 0002:0001e8b8       ??_C@_1M@DDOCCGFG@?$AAe?$AAn?$AA?9?$AAC?$AAA?$AA?$AA@ 100e78b8     libucrtd:lcidtoname_downlevel.obj
 0002:0001e8c8       ??_C@_1M@BNOEMJLF@?$AAe?$AAs?$AA?9?$AAG?$AAT?$AA?$AA@ 100e78c8     libucrtd:lcidtoname_downlevel.obj
 0002:0001e8d8       ??_C@_1M@EOGNKEK@?$AAf?$AAr?$AA?9?$AAC?$AAH?$AA?$AA@ 100e78d8     libucrtd:lcidtoname_downlevel.obj
 0002:0001e8e8       ??_C@_1M@FLIDJFHL@?$AAh?$AAr?$AA?9?$AAB?$AAA?$AA?$AA@ 100e78e8     libucrtd:lcidtoname_downlevel.obj
 0002:0001e8f8       ??_C@_1O@FMCELNAJ@?$AAs?$AAm?$AAj?$AA?9?$AAN?$AAO?$AA?$AA@ 100e78f8     libucrtd:lcidtoname_downlevel.obj
 0002:0001e908       ??_C@_1M@JHGLJMGJ@?$AAa?$AAr?$AA?9?$AAD?$AAZ?$AA?$AA@ 100e7908     libucrtd:lcidtoname_downlevel.obj
 0002:0001e918       ??_C@_1M@JKKFDCNP@?$AAz?$AAh?$AA?9?$AAM?$AAO?$AA?$AA@ 100e7918     libucrtd:lcidtoname_downlevel.obj
 0002:0001e928       ??_C@_1M@GEEFALPE@?$AAd?$AAe?$AA?9?$AAL?$AAI?$AA?$AA@ 100e7928     libucrtd:lcidtoname_downlevel.obj
 0002:0001e938       ??_C@_1M@IGEOFBG@?$AAe?$AAn?$AA?9?$AAN?$AAZ?$AA?$AA@ 100e7938     libucrtd:lcidtoname_downlevel.obj
 0002:0001e948       ??_C@_1M@KDBONEHP@?$AAe?$AAs?$AA?9?$AAC?$AAR?$AA?$AA@ 100e7948     libucrtd:lcidtoname_downlevel.obj
 0002:0001e958       ??_C@_1M@FHMDOHNN@?$AAf?$AAr?$AA?9?$AAL?$AAU?$AA?$AA@ 100e7958     libucrtd:lcidtoname_downlevel.obj
 0002:0001e968       ??_C@_1BG@NFKKMAFG@?$AAb?$AAs?$AA?9?$AAB?$AAA?$AA?9?$AAL?$AAa?$AAt?$AAn?$AA?$AA@ 100e7968     libucrtd:lcidtoname_downlevel.obj
 0002:0001e984       ??_C@_1O@IMNBEMCI@?$AAs?$AAm?$AAj?$AA?9?$AAS?$AAE?$AA?$AA@ 100e7984     libucrtd:lcidtoname_downlevel.obj
 0002:0001e994       ??_C@_1M@DHHMBNDP@?$AAa?$AAr?$AA?9?$AAM?$AAA?$AA?$AA@ 100e7994     libucrtd:lcidtoname_downlevel.obj
 0002:0001e9a4       ??_C@_1M@BNBLJCGH@?$AAe?$AAn?$AA?9?$AAI?$AAE?$AA?$AA@ 100e79a4     libucrtd:lcidtoname_downlevel.obj
 0002:0001e9b4       ??_C@_1M@GEPAFMDL@?$AAe?$AAs?$AA?9?$AAP?$AAA?$AA?$AA@ 100e79b4     libucrtd:lcidtoname_downlevel.obj
 0002:0001e9c4       ??_C@_1M@OJONDMDL@?$AAf?$AAr?$AA?9?$AAM?$AAC?$AA?$AA@ 100e79c4     libucrtd:lcidtoname_downlevel.obj
 0002:0001e9d4       ??_C@_1BG@OBCNFJB@?$AAs?$AAr?$AA?9?$AAB?$AAA?$AA?9?$AAL?$AAa?$AAt?$AAn?$AA?$AA@ 100e79d4     libucrtd:lcidtoname_downlevel.obj
 0002:0001e9f0       ??_C@_1O@KEMEEGPO@?$AAs?$AAm?$AAa?$AA?9?$AAN?$AAO?$AA?$AA@ 100e79f0     libucrtd:lcidtoname_downlevel.obj
 0002:0001ea00       ??_C@_1M@ELMGFODK@?$AAa?$AAr?$AA?9?$AAT?$AAN?$AA?$AA@ 100e7a00     libucrtd:lcidtoname_downlevel.obj
 0002:0001ea10       ??_C@_1M@BHDLHFAF@?$AAe?$AAn?$AA?9?$AAZ?$AAA?$AA?$AA@ 100e7a10     libucrtd:lcidtoname_downlevel.obj
 0002:0001ea20       ??_C@_1M@BMGIGLIF@?$AAe?$AAs?$AA?9?$AAD?$AAO?$AA?$AA@ 100e7a20     libucrtd:lcidtoname_downlevel.obj
 0002:0001ea30       ??_C@_1BG@CMBHIPBE@?$AAs?$AAr?$AA?9?$AAB?$AAA?$AA?9?$AAC?$AAy?$AAr?$AAl?$AA?$AA@ 100e7a30     libucrtd:lcidtoname_downlevel.obj
 0002:0001ea4c       ??_C@_1O@HEDBLHNP@?$AAs?$AAm?$AAa?$AA?9?$AAS?$AAE?$AA?$AA@ 100e7a4c     libucrtd:lcidtoname_downlevel.obj
 0002:0001ea5c       ??_C@_1M@DAGCADIM@?$AAa?$AAr?$AA?9?$AAO?$AAM?$AA?$AA@ 100e7a5c     libucrtd:lcidtoname_downlevel.obj
 0002:0001ea6c       ??_C@_1M@FODLMICG@?$AAe?$AAn?$AA?9?$AAJ?$AAM?$AA?$AA@ 100e7a6c     libucrtd:lcidtoname_downlevel.obj
 0002:0001ea7c       ??_C@_1M@DNMLCIHB@?$AAe?$AAs?$AA?9?$AAV?$AAE?$AA?$AA@ 100e7a7c     libucrtd:lcidtoname_downlevel.obj
 0002:0001ea8c       ??_C@_1O@EOKHMKJK@?$AAs?$AAm?$AAs?$AA?9?$AAF?$AAI?$AA?$AA@ 100e7a8c     libucrtd:lcidtoname_downlevel.obj
 0002:0001ea9c       ??_C@_1M@CAFJMKOF@?$AAa?$AAr?$AA?9?$AAY?$AAE?$AA?$AA@ 100e7a9c     libucrtd:lcidtoname_downlevel.obj
 0002:0001eaac       ??_C@_1M@CBFHIJLI@?$AAe?$AAn?$AA?9?$AAC?$AAB?$AA?$AA@ 100e7aac     libucrtd:lcidtoname_downlevel.obj
 0002:0001eabc       ??_C@_1M@BGNFLDN@?$AAe?$AAs?$AA?9?$AAC?$AAO?$AA?$AA@ 100e7abc     libucrtd:lcidtoname_downlevel.obj
 0002:0001eacc       ??_C@_1O@JMPHMAMC@?$AAs?$AAm?$AAn?$AA?9?$AAF?$AAI?$AA?$AA@ 100e7acc     libucrtd:lcidtoname_downlevel.obj
 0002:0001eadc       ??_C@_1M@JLANABKE@?$AAa?$AAr?$AA?9?$AAS?$AAY?$AA?$AA@ 100e7adc     libucrtd:lcidtoname_downlevel.obj
 0002:0001eaec       ??_C@_1M@HPKGCFGN@?$AAe?$AAn?$AA?9?$AAB?$AAZ?$AA?$AA@ 100e7aec     libucrtd:lcidtoname_downlevel.obj
 0002:0001eafc       ??_C@_1M@OLJCMLGM@?$AAe?$AAs?$AA?9?$AAP?$AAE?$AA?$AA@ 100e7afc     libucrtd:lcidtoname_downlevel.obj
 0002:0001eb0c       ??_C@_1M@MKKGFKLE@?$AAa?$AAr?$AA?9?$AAJ?$AAO?$AA?$AA@ 100e7b0c     libucrtd:lcidtoname_downlevel.obj
 0002:0001eb1c       ??_C@_1M@EKPGLDNI@?$AAe?$AAn?$AA?9?$AAT?$AAT?$AA?$AA@ 100e7b1c     libucrtd:lcidtoname_downlevel.obj
 0002:0001eb2c       ??_C@_1M@OONGHFHE@?$AAe?$AAs?$AA?9?$AAA?$AAR?$AA?$AA@ 100e7b2c     libucrtd:lcidtoname_downlevel.obj
 0002:0001eb3c       ??_C@_1M@OOJFGBHE@?$AAa?$AAr?$AA?9?$AAL?$AAB?$AA?$AA@ 100e7b3c     libucrtd:lcidtoname_downlevel.obj
 0002:0001eb4c       ??_C@_1M@GCEJHNEG@?$AAe?$AAn?$AA?9?$AAZ?$AAW?$AA?$AA@ 100e7b4c     libucrtd:lcidtoname_downlevel.obj
 0002:0001eb5c       ??_C@_1M@JNOCAHJI@?$AAe?$AAs?$AA?9?$AAE?$AAC?$AA?$AA@ 100e7b5c     libucrtd:lcidtoname_downlevel.obj
 0002:0001eb6c       ??_C@_1M@JEFHPGGB@?$AAa?$AAr?$AA?9?$AAK?$AAW?$AA?$AA@ 100e7b6c     libucrtd:lcidtoname_downlevel.obj
 0002:0001eb7c       ??_C@_1M@MLKIBJOJ@?$AAe?$AAn?$AA?9?$AAP?$AAH?$AA?$AA@ 100e7b7c     libucrtd:lcidtoname_downlevel.obj
 0002:0001eb8c       ??_C@_1M@BDNIPEND@?$AAe?$AAs?$AA?9?$AAC?$AAL?$AA?$AA@ 100e7b8c     libucrtd:lcidtoname_downlevel.obj
 0002:0001eb9c       ??_C@_1M@MPNMEKBD@?$AAa?$AAr?$AA?9?$AAA?$AAE?$AA?$AA@ 100e7b9c     libucrtd:lcidtoname_downlevel.obj
 0002:0001ebac       ??_C@_1M@KBJALCPI@?$AAe?$AAs?$AA?9?$AAU?$AAY?$AA?$AA@ 100e7bac     libucrtd:lcidtoname_downlevel.obj
 0002:0001ebbc       ??_C@_1M@LLCCOAGA@?$AAa?$AAr?$AA?9?$AAB?$AAH?$AA?$AA@ 100e7bbc     libucrtd:lcidtoname_downlevel.obj
 0002:0001ebcc       ??_C@_1M@PBFNCDEL@?$AAe?$AAs?$AA?9?$AAP?$AAY?$AA?$AA@ 100e7bcc     libucrtd:lcidtoname_downlevel.obj
 0002:0001ebdc       ??_C@_1M@EDGINPNP@?$AAa?$AAr?$AA?9?$AAQ?$AAA?$AA?$AA@ 100e7bdc     libucrtd:lcidtoname_downlevel.obj
 0002:0001ebec       ??_C@_1M@MKDBIIJI@?$AAe?$AAs?$AA?9?$AAB?$AAO?$AA?$AA@ 100e7bec     libucrtd:lcidtoname_downlevel.obj
 0002:0001ebfc       ??_C@_1M@CPKKEBLD@?$AAe?$AAs?$AA?9?$AAS?$AAV?$AA?$AA@ 100e7bfc     libucrtd:lcidtoname_downlevel.obj
 0002:0001ec0c       ??_C@_1M@NDBGMMJL@?$AAe?$AAs?$AA?9?$AAH?$AAN?$AA?$AA@ 100e7c0c     libucrtd:lcidtoname_downlevel.obj
 0002:0001ec1c       ??_C@_1M@JIJIBHDP@?$AAe?$AAs?$AA?9?$AAN?$AAI?$AA?$AA@ 100e7c1c     libucrtd:lcidtoname_downlevel.obj
 0002:0001ec2c       ??_C@_1M@CGFMKEEK@?$AAe?$AAs?$AA?9?$AAP?$AAR?$AA?$AA@ 100e7c2c     libucrtd:lcidtoname_downlevel.obj
 0002:0001ec3c       ??_C@_1O@ICJHKIIK@?$AAz?$AAh?$AA?9?$AAC?$AAH?$AAT?$AA?$AA@ 100e7c3c     libucrtd:lcidtoname_downlevel.obj
 0002:0001ec4c       ??_C@_15CLNEJCE@?$AAs?$AAr?$AA?$AA@ 100e7c4c     libucrtd:lcidtoname_downlevel.obj
 0002:0001f4e4       ??_C@_1M@KAHEKEIG@?$AAa?$AAf?$AA?9?$AAz?$AAa?$AA?$AA@ 100e84e4     libucrtd:lcidtoname_downlevel.obj
 0002:0001f4f4       ??_C@_1M@GIECOABL@?$AAa?$AAr?$AA?9?$AAa?$AAe?$AA?$AA@ 100e84f4     libucrtd:lcidtoname_downlevel.obj
 0002:0001f504       ??_C@_1M@BMLMEKGI@?$AAa?$AAr?$AA?9?$AAb?$AAh?$AA?$AA@ 100e8504     libucrtd:lcidtoname_downlevel.obj
 0002:0001f514       ??_C@_1M@DAPFDGGB@?$AAa?$AAr?$AA?9?$AAd?$AAz?$AA?$AA@ 100e8514     libucrtd:lcidtoname_downlevel.obj
 0002:0001f524       ??_C@_1M@FJNKGKIG@?$AAa?$AAr?$AA?9?$AAe?$AAg?$AA?$AA@ 100e8524     libucrtd:lcidtoname_downlevel.obj
 0002:0001f534       ??_C@_1M@FLGKKCLO@?$AAa?$AAr?$AA?9?$AAi?$AAq?$AA?$AA@ 100e8534     libucrtd:lcidtoname_downlevel.obj
 0002:0001f544       ??_C@_1M@GNDIPALM@?$AAa?$AAr?$AA?9?$AAj?$AAo?$AA?$AA@ 100e8544     libucrtd:lcidtoname_downlevel.obj
 0002:0001f554       ??_C@_1M@DDMJFMGJ@?$AAa?$AAr?$AA?9?$AAk?$AAw?$AA?$AA@ 100e8554     libucrtd:lcidtoname_downlevel.obj
 0002:0001f564       ??_C@_1M@EJALMLHM@?$AAa?$AAr?$AA?9?$AAl?$AAb?$AA?$AA@ 100e8564     libucrtd:lcidtoname_downlevel.obj
 0002:0001f574       ??_C@_1M@MOBDBLOC@?$AAa?$AAr?$AA?9?$AAl?$AAy?$AA?$AA@ 100e8574     libucrtd:lcidtoname_downlevel.obj
 0002:0001f584       ??_C@_1M@JAOCLHDH@?$AAa?$AAr?$AA?9?$AAm?$AAa?$AA?$AA@ 100e8584     libucrtd:lcidtoname_downlevel.obj
 0002:0001f594       ??_C@_1M@JHPMKJIE@?$AAa?$AAr?$AA?9?$AAo?$AAm?$AA?$AA@ 100e8594     libucrtd:lcidtoname_downlevel.obj
 0002:0001f5a4       ??_C@_1M@OEPGHFNH@?$AAa?$AAr?$AA?9?$AAq?$AAa?$AA?$AA@ 100e85a4     libucrtd:lcidtoname_downlevel.obj
 0002:0001f5b4       ??_C@_1M@KJDONENM@?$AAa?$AAr?$AA?9?$AAs?$AAa?$AA?$AA@ 100e85b4     libucrtd:lcidtoname_downlevel.obj
 0002:0001f5c4       ??_C@_1M@DMJDKLKM@?$AAa?$AAr?$AA?9?$AAs?$AAy?$AA?$AA@ 100e85c4     libucrtd:lcidtoname_downlevel.obj
 0002:0001f5d4       ??_C@_1M@OMFIPEDC@?$AAa?$AAr?$AA?9?$AAt?$AAn?$AA?$AA@ 100e85d4     libucrtd:lcidtoname_downlevel.obj
 0002:0001f5e4       ??_C@_1M@IHMHGAON@?$AAa?$AAr?$AA?9?$AAy?$AAe?$AA?$AA@ 100e85e4     libucrtd:lcidtoname_downlevel.obj
 0002:0001f5f4       ??_C@_1BG@KDCPGJGB@?$AAa?$AAz?$AA?9?$AAa?$AAz?$AA?9?$AAc?$AAy?$AAr?$AAl?$AA?$AA@ 100e85f4     libucrtd:lcidtoname_downlevel.obj
 0002:0001f610       ??_C@_1BG@IBCKDDOE@?$AAa?$AAz?$AA?9?$AAa?$AAz?$AA?9?$AAl?$AAa?$AAt?$AAn?$AA?$AA@ 100e8610     libucrtd:lcidtoname_downlevel.obj
 0002:0001f62c       ??_C@_1M@EGPFDCPD@?$AAb?$AAe?$AA?9?$AAb?$AAy?$AA?$AA@ 100e862c     libucrtd:lcidtoname_downlevel.obj
 0002:0001f63c       ??_C@_1M@PCMGMCGC@?$AAb?$AAg?$AA?9?$AAb?$AAg?$AA?$AA@ 100e863c     libucrtd:lcidtoname_downlevel.obj
 0002:0001f64c       ??_C@_1M@BJBMFGOB@?$AAb?$AAn?$AA?9?$AAi?$AAn?$AA?$AA@ 100e864c     libucrtd:lcidtoname_downlevel.obj
 0002:0001f65c       ??_C@_1BG@EAKMMACD@?$AAb?$AAs?$AA?9?$AAb?$AAa?$AA?9?$AAl?$AAa?$AAt?$AAn?$AA?$AA@ 100e865c     libucrtd:lcidtoname_downlevel.obj
 0002:0001f678       ??_C@_1M@KGADAODK@?$AAc?$AAa?$AA?9?$AAe?$AAs?$AA?$AA@ 100e8678     libucrtd:lcidtoname_downlevel.obj
 0002:0001f688       ??_C@_1M@COAJPDHI@?$AAc?$AAs?$AA?9?$AAc?$AAz?$AA?$AA@ 100e8688     libucrtd:lcidtoname_downlevel.obj
 0002:0001f698       ??_C@_1M@DHBHFONH@?$AAc?$AAy?$AA?9?$AAg?$AAb?$AA?$AA@ 100e8698     libucrtd:lcidtoname_downlevel.obj
 0002:0001f6a8       ??_C@_1M@IMGKELGA@?$AAd?$AAa?$AA?9?$AAd?$AAk?$AA?$AA@ 100e86a8     libucrtd:lcidtoname_downlevel.obj
 0002:0001f6b8       ??_C@_1M@NNDGDNGA@?$AAd?$AAe?$AA?9?$AAa?$AAt?$AA?$AA@ 100e86b8     libucrtd:lcidtoname_downlevel.obj
 0002:0001f6c8       ??_C@_1M@IKDBHEEM@?$AAd?$AAe?$AA?9?$AAc?$AAh?$AA?$AA@ 100e86c8     libucrtd:lcidtoname_downlevel.obj
 0002:0001f6d8       ??_C@_1M@GFFOJMCJ@?$AAd?$AAe?$AA?9?$AAd?$AAe?$AA?$AA@ 100e86d8     libucrtd:lcidtoname_downlevel.obj
 0002:0001f6e8       ??_C@_1M@MDNLKBPM@?$AAd?$AAe?$AA?9?$AAl?$AAi?$AA?$AA@ 100e86e8     libucrtd:lcidtoname_downlevel.obj
 0002:0001f6f8       ??_C@_1M@NJBEEJNL@?$AAd?$AAe?$AA?9?$AAl?$AAu?$AA?$AA@ 100e86f8     libucrtd:lcidtoname_downlevel.obj
 0002:0001f708       ??_C@_1O@GNNELBAP@?$AAd?$AAi?$AAv?$AA?9?$AAm?$AAv?$AA?$AA@ 100e8708     libucrtd:lcidtoname_downlevel.obj
 0002:0001f718       ??_C@_1M@EJLEOGAE@?$AAe?$AAl?$AA?9?$AAg?$AAr?$AA?$AA@ 100e8718     libucrtd:lcidtoname_downlevel.obj
 0002:0001f728       ??_C@_1M@GMPONJN@?$AAe?$AAn?$AA?9?$AAa?$AAu?$AA?$AA@ 100e8728     libucrtd:lcidtoname_downlevel.obj
 0002:0001f738       ??_C@_1M@NIDIIPGF@?$AAe?$AAn?$AA?9?$AAb?$AAz?$AA?$AA@ 100e8738     libucrtd:lcidtoname_downlevel.obj
 0002:0001f748       ??_C@_1M@JEHMIMFO@?$AAe?$AAn?$AA?9?$AAc?$AAa?$AA?$AA@ 100e8748     libucrtd:lcidtoname_downlevel.obj
 0002:0001f758       ??_C@_1M@IGMJCDLA@?$AAe?$AAn?$AA?9?$AAc?$AAb?$AA?$AA@ 100e8758     libucrtd:lcidtoname_downlevel.obj
 0002:0001f768       ??_C@_1M@BNFIGBKG@?$AAe?$AAn?$AA?9?$AAg?$AAb?$AA?$AA@ 100e8768     libucrtd:lcidtoname_downlevel.obj
 0002:0001f778       ??_C@_1M@LKIFDIGP@?$AAe?$AAn?$AA?9?$AAi?$AAe?$AA?$AA@ 100e8778     libucrtd:lcidtoname_downlevel.obj
 0002:0001f788       ??_C@_1M@PJKFGCCO@?$AAe?$AAn?$AA?9?$AAj?$AAm?$AA?$AA@ 100e8788     libucrtd:lcidtoname_downlevel.obj
 0002:0001f798       ??_C@_1M@KPPKEPBO@?$AAe?$AAn?$AA?9?$AAn?$AAz?$AA?$AA@ 100e8798     libucrtd:lcidtoname_downlevel.obj
 0002:0001f7a8       ??_C@_1M@GMDGLDOB@?$AAe?$AAn?$AA?9?$AAp?$AAh?$AA?$AA@ 100e87a8     libucrtd:lcidtoname_downlevel.obj
 0002:0001f7b8       ??_C@_1M@ONGIBJNA@?$AAe?$AAn?$AA?9?$AAt?$AAt?$AA?$AA@ 100e87b8     libucrtd:lcidtoname_downlevel.obj
 0002:0001f7c8       ??_C@_1M@LLODPCMM@?$AAe?$AAn?$AA?9?$AAu?$AAs?$AA?$AA@ 100e87c8     libucrtd:lcidtoname_downlevel.obj
 0002:0001f7d8       ??_C@_1M@LAKFNPAN@?$AAe?$AAn?$AA?9?$AAz?$AAa?$AA?$AA@ 100e87d8     libucrtd:lcidtoname_downlevel.obj
 0002:0001f7e8       ??_C@_1M@MFNHNHEO@?$AAe?$AAn?$AA?9?$AAz?$AAw?$AA?$AA@ 100e87e8     libucrtd:lcidtoname_downlevel.obj
 0002:0001f7f8       ??_C@_1M@EJEINPHM@?$AAe?$AAs?$AA?9?$AAa?$AAr?$AA?$AA@ 100e87f8     libucrtd:lcidtoname_downlevel.obj
 0002:0001f808       ??_C@_1M@GNKPCCJA@?$AAe?$AAs?$AA?9?$AAb?$AAo?$AA?$AA@ 100e8808     libucrtd:lcidtoname_downlevel.obj
 0002:0001f818       ??_C@_1M@LEEGFONL@?$AAe?$AAs?$AA?9?$AAc?$AAl?$AA?$AA@ 100e8818     libucrtd:lcidtoname_downlevel.obj
 0002:0001f828       ??_C@_1M@KGPDPBDF@?$AAe?$AAs?$AA?9?$AAc?$AAo?$AA?$AA@ 100e8828     libucrtd:lcidtoname_downlevel.obj
 0002:0001f838       ??_C@_1M@EIAHOHH@?$AAe?$AAs?$AA?9?$AAc?$AAr?$AA?$AA@ 100e8838     libucrtd:lcidtoname_downlevel.obj
 0002:0001f848       ??_C@_1M@LLPGMBIN@?$AAe?$AAs?$AA?9?$AAd?$AAo?$AA?$AA@ 100e8848     libucrtd:lcidtoname_downlevel.obj
 0002:0001f858       ??_C@_1M@DKHMKNJA@?$AAe?$AAs?$AA?9?$AAe?$AAc?$AA?$AA@ 100e8858     libucrtd:lcidtoname_downlevel.obj
 0002:0001f868       ??_C@_1M@GKGFPKAP@?$AAe?$AAs?$AA?9?$AAe?$AAs?$AA?$AA@ 100e8868     libucrtd:lcidtoname_downlevel.obj
 0002:0001f878       ??_C@_1M@LKHKGDLN@?$AAe?$AAs?$AA?9?$AAg?$AAt?$AA?$AA@ 100e8878     libucrtd:lcidtoname_downlevel.obj
 0002:0001f888       ??_C@_1M@HEIIGGJD@?$AAe?$AAs?$AA?9?$AAh?$AAn?$AA?$AA@ 100e8888     libucrtd:lcidtoname_downlevel.obj
 0002:0001f898       ??_C@_1M@FBDHPPGD@?$AAe?$AAs?$AA?9?$AAm?$AAx?$AA?$AA@ 100e8898     libucrtd:lcidtoname_downlevel.obj
 0002:0001f8a8       ??_C@_1M@DPAGLNDH@?$AAe?$AAs?$AA?9?$AAn?$AAi?$AA?$AA@ 100e88a8     libucrtd:lcidtoname_downlevel.obj
 0002:0001f8b8       ??_C@_1M@MDGOPGDD@?$AAe?$AAs?$AA?9?$AAp?$AAa?$AA?$AA@ 100e88b8     libucrtd:lcidtoname_downlevel.obj
 0002:0001f8c8       ??_C@_1M@EMAMGBGE@?$AAe?$AAs?$AA?9?$AAp?$AAe?$AA?$AA@ 100e88c8     libucrtd:lcidtoname_downlevel.obj
 0002:0001f8d8       ??_C@_1M@IBMCAOEC@?$AAe?$AAs?$AA?9?$AAp?$AAr?$AA?$AA@ 100e88d8     libucrtd:lcidtoname_downlevel.obj
 0002:0001f8e8       ??_C@_1M@FGMDIJED@?$AAe?$AAs?$AA?9?$AAp?$AAy?$AA?$AA@ 100e88e8     libucrtd:lcidtoname_downlevel.obj
 0002:0001f8f8       ??_C@_1M@IIDEOLLL@?$AAe?$AAs?$AA?9?$AAs?$AAv?$AA?$AA@ 100e88f8     libucrtd:lcidtoname_downlevel.obj
 0002:0001f908       ??_C@_1M@GAOBIPA@?$AAe?$AAs?$AA?9?$AAu?$AAy?$AA?$AA@ 100e8908     libucrtd:lcidtoname_downlevel.obj
 0002:0001f918       ??_C@_1M@JKFFICHJ@?$AAe?$AAs?$AA?9?$AAv?$AAe?$AA?$AA@ 100e8918     libucrtd:lcidtoname_downlevel.obj
 0002:0001f928       ??_C@_1M@PNMLOJDF@?$AAe?$AAt?$AA?9?$AAe?$AAe?$AA?$AA@ 100e8928     libucrtd:lcidtoname_downlevel.obj
 0002:0001f938       ??_C@_1M@GHHLIKEI@?$AAe?$AAu?$AA?9?$AAe?$AAs?$AA?$AA@ 100e8938     libucrtd:lcidtoname_downlevel.obj
 0002:0001f948       ??_C@_1M@PBNONODE@?$AAf?$AAa?$AA?9?$AAi?$AAr?$AA?$AA@ 100e8948     libucrtd:lcidtoname_downlevel.obj
 0002:0001f958       ??_C@_1M@JEEHPMIL@?$AAf?$AAi?$AA?9?$AAf?$AAi?$AA?$AA@ 100e8958     libucrtd:lcidtoname_downlevel.obj
 0002:0001f968       ??_C@_1M@LMDCNDBA@?$AAf?$AAo?$AA?9?$AAf?$AAo?$AA?$AA@ 100e8968     libucrtd:lcidtoname_downlevel.obj
 0002:0001f978       ??_C@_1M@JKEOHLDK@?$AAf?$AAr?$AA?9?$AAb?$AAe?$AA?$AA@ 100e8978     libucrtd:lcidtoname_downlevel.obj
 0002:0001f988       ??_C@_1M@NOHADPMI@?$AAf?$AAr?$AA?9?$AAc?$AAa?$AA?$AA@ 100e8988     libucrtd:lcidtoname_downlevel.obj
 0002:0001f998       ??_C@_1M@KDHIHAEC@?$AAf?$AAr?$AA?9?$AAc?$AAh?$AA?$AA@ 100e8998     libucrtd:lcidtoname_downlevel.obj
 0002:0001f9a8       ??_C@_1M@MMBBFGAK@?$AAf?$AAr?$AA?9?$AAf?$AAr?$AA?$AA@ 100e89a8     libucrtd:lcidtoname_downlevel.obj
 0002:0001f9b8       ??_C@_1M@PAFNENNF@?$AAf?$AAr?$AA?9?$AAl?$AAu?$AA?$AA@ 100e89b8     libucrtd:lcidtoname_downlevel.obj
 0002:0001f9c8       ??_C@_1M@EOHDJGDD@?$AAf?$AAr?$AA?9?$AAm?$AAc?$AA?$AA@ 100e89c8     libucrtd:lcidtoname_downlevel.obj
 0002:0001f9d8       ??_C@_1M@FAPLLOPF@?$AAg?$AAl?$AA?9?$AAe?$AAs?$AA?$AA@ 100e89d8     libucrtd:lcidtoname_downlevel.obj
 0002:0001f9e8       ??_C@_1M@FOPBFLOO@?$AAg?$AAu?$AA?9?$AAi?$AAn?$AA?$AA@ 100e89e8     libucrtd:lcidtoname_downlevel.obj
 0002:0001f9f8       ??_C@_1M@KBMCINPM@?$AAh?$AAe?$AA?9?$AAi?$AAl?$AA?$AA@ 100e89f8     libucrtd:lcidtoname_downlevel.obj
 0002:0001fa08       ??_C@_1M@BBPHKFPJ@?$AAh?$AAi?$AA?9?$AAi?$AAn?$AA?$AA@ 100e8a08     libucrtd:lcidtoname_downlevel.obj
 0002:0001fa18       ??_C@_1M@PMBNDPHD@?$AAh?$AAr?$AA?9?$AAb?$AAa?$AA?$AA@ 100e8a18     libucrtd:lcidtoname_downlevel.obj
 0002:0001fa28       ??_C@_1M@BPCKOEGE@?$AAh?$AAr?$AA?9?$AAh?$AAr?$AA?$AA@ 100e8a28     libucrtd:lcidtoname_downlevel.obj
 0002:0001fa38       ??_C@_1M@GACBMHKE@?$AAh?$AAu?$AA?9?$AAh?$AAu?$AA?$AA@ 100e8a38     libucrtd:lcidtoname_downlevel.obj
 0002:0001fa48       ??_C@_1M@MILPAJJC@?$AAh?$AAy?$AA?9?$AAa?$AAm?$AA?$AA@ 100e8a48     libucrtd:lcidtoname_downlevel.obj
 0002:0001fa58       ??_C@_1M@BABBICEC@?$AAi?$AAd?$AA?9?$AAi?$AAd?$AA?$AA@ 100e8a58     libucrtd:lcidtoname_downlevel.obj
 0002:0001fa68       ??_C@_1M@BIKNHHPF@?$AAi?$AAs?$AA?9?$AAi?$AAs?$AA?$AA@ 100e8a68     libucrtd:lcidtoname_downlevel.obj
 0002:0001fa78       ??_C@_1M@NMPCJPHE@?$AAi?$AAt?$AA?9?$AAc?$AAh?$AA?$AA@ 100e8a78     libucrtd:lcidtoname_downlevel.obj
 0002:0001fa88       ??_C@_1M@GHKGFEDF@?$AAi?$AAt?$AA?9?$AAi?$AAt?$AA?$AA@ 100e8a88     libucrtd:lcidtoname_downlevel.obj
 0002:0001fa98       ??_C@_1M@NIEJCJJA@?$AAj?$AAa?$AA?9?$AAj?$AAp?$AA?$AA@ 100e8a98     libucrtd:lcidtoname_downlevel.obj
 0002:0001faa8       ??_C@_1M@JILFNBIM@?$AAk?$AAa?$AA?9?$AAg?$AAe?$AA?$AA@ 100e8aa8     libucrtd:lcidtoname_downlevel.obj
 0002:0001fab8       ??_C@_1M@PACPMGPH@?$AAk?$AAk?$AA?9?$AAk?$AAz?$AA?$AA@ 100e8ab8     libucrtd:lcidtoname_downlevel.obj
 0002:0001fac8       ??_C@_1M@IELFGMHA@?$AAk?$AAn?$AA?9?$AAi?$AAn?$AA?$AA@ 100e8ac8     libucrtd:lcidtoname_downlevel.obj
 0002:0001fad8       ??_C@_1O@IBBJHCH@?$AAk?$AAo?$AAk?$AA?9?$AAi?$AAn?$AA?$AA@ 100e8ad8     libucrtd:lcidtoname_downlevel.obj
 0002:0001fae8       ??_C@_1M@DMHAEOGC@?$AAk?$AAo?$AA?9?$AAk?$AAr?$AA?$AA@ 100e8ae8     libucrtd:lcidtoname_downlevel.obj
 0002:0001faf8       ??_C@_1M@HBAHBIGA@?$AAk?$AAy?$AA?9?$AAk?$AAg?$AA?$AA@ 100e8af8     libucrtd:lcidtoname_downlevel.obj
 0002:0001fb08       ??_C@_1M@KPMILCJG@?$AAl?$AAt?$AA?9?$AAl?$AAt?$AA?$AA@ 100e8b08     libucrtd:lcidtoname_downlevel.obj
 0002:0001fb18       ??_C@_1M@BDEKKCA@?$AAl?$AAv?$AA?9?$AAl?$AAv?$AA?$AA@ 100e8b18     libucrtd:lcidtoname_downlevel.obj
 0002:0001fb28       ??_C@_1M@ELCKCCJJ@?$AAm?$AAi?$AA?9?$AAn?$AAz?$AA?$AA@ 100e8b28     libucrtd:lcidtoname_downlevel.obj
 0002:0001fb38       ??_C@_1M@CBOOLAPA@?$AAm?$AAk?$AA?9?$AAm?$AAk?$AA?$AA@ 100e8b38     libucrtd:lcidtoname_downlevel.obj
 0002:0001fb48       ??_C@_1M@GPHNBJKN@?$AAm?$AAl?$AA?9?$AAi?$AAn?$AA?$AA@ 100e8b48     libucrtd:lcidtoname_downlevel.obj
 0002:0001fb58       ??_C@_1M@PABJILIG@?$AAm?$AAn?$AA?9?$AAm?$AAn?$AA?$AA@ 100e8b58     libucrtd:lcidtoname_downlevel.obj
 0002:0001fb68       ??_C@_1M@FGBKKIPG@?$AAm?$AAr?$AA?9?$AAi?$AAn?$AA?$AA@ 100e8b68     libucrtd:lcidtoname_downlevel.obj
 0002:0001fb78       ??_C@_1M@NDBPDDAL@?$AAm?$AAs?$AA?9?$AAb?$AAn?$AA?$AA@ 100e8b78     libucrtd:lcidtoname_downlevel.obj
 0002:0001fb88       ??_C@_1M@OPIHOOPI@?$AAm?$AAs?$AA?9?$AAm?$AAy?$AA?$AA@ 100e8b88     libucrtd:lcidtoname_downlevel.obj
 0002:0001fb98       ??_C@_1M@PPDBCNFM@?$AAm?$AAt?$AA?9?$AAm?$AAt?$AA?$AA@ 100e8b98     libucrtd:lcidtoname_downlevel.obj
 0002:0001fba8       ??_C@_1M@KDJDKMDD@?$AAn?$AAb?$AA?9?$AAn?$AAo?$AA?$AA@ 100e8ba8     libucrtd:lcidtoname_downlevel.obj
 0002:0001fbb8       ??_C@_1M@KFCFLMJP@?$AAn?$AAl?$AA?9?$AAb?$AAe?$AA?$AA@ 100e8bb8     libucrtd:lcidtoname_downlevel.obj
 0002:0001fbc8       ??_C@_1M@KPOPDDGO@?$AAn?$AAl?$AA?9?$AAn?$AAl?$AA?$AA@ 100e8bc8     libucrtd:lcidtoname_downlevel.obj
 0002:0001fbd8       ??_C@_1M@LJKPEMLN@?$AAn?$AAn?$AA?9?$AAn?$AAo?$AA?$AA@ 100e8bd8     libucrtd:lcidtoname_downlevel.obj
 0002:0001fbe8       ??_C@_1M@BDGHHBFL@?$AAn?$AAs?$AA?9?$AAz?$AAa?$AA?$AA@ 100e8be8     libucrtd:lcidtoname_downlevel.obj
 0002:0001fbf8       ??_C@_1M@IDEHOAP@?$AAp?$AAa?$AA?9?$AAi?$AAn?$AA?$AA@ 100e8bf8     libucrtd:lcidtoname_downlevel.obj
 0002:0001fc08       ??_C@_1M@HDBKGOGH@?$AAp?$AAl?$AA?9?$AAp?$AAl?$AA?$AA@ 100e8c08     libucrtd:lcidtoname_downlevel.obj
 0002:0001fc18       ??_C@_1M@LJLLCMEH@?$AAp?$AAt?$AA?9?$AAb?$AAr?$AA?$AA@ 100e8c18     libucrtd:lcidtoname_downlevel.obj
 0002:0001fc28       ??_C@_1M@NCMONAAL@?$AAp?$AAt?$AA?9?$AAp?$AAt?$AA?$AA@ 100e8c28     libucrtd:lcidtoname_downlevel.obj
 0002:0001fc38       ??_C@_1O@EAKMAJDN@?$AAq?$AAu?$AAz?$AA?9?$AAb?$AAo?$AA?$AA@ 100e8c38     libucrtd:lcidtoname_downlevel.obj
 0002:0001fc48       ??_C@_1O@BHHPIGDN@?$AAq?$AAu?$AAz?$AA?9?$AAe?$AAc?$AA?$AA@ 100e8c48     libucrtd:lcidtoname_downlevel.obj
 0002:0001fc58       ??_C@_1O@GBAPEKMJ@?$AAq?$AAu?$AAz?$AA?9?$AAp?$AAe?$AA?$AA@ 100e8c58     libucrtd:lcidtoname_downlevel.obj
 0002:0001fc68       ??_C@_1M@CLGLEFBO@?$AAr?$AAo?$AA?9?$AAr?$AAo?$AA?$AA@ 100e8c68     libucrtd:lcidtoname_downlevel.obj
 0002:0001fc78       ??_C@_1M@CEEDODME@?$AAr?$AAu?$AA?9?$AAr?$AAu?$AA?$AA@ 100e8c78     libucrtd:lcidtoname_downlevel.obj
 0002:0001fc88       ??_C@_1M@HPKKKMPP@?$AAs?$AAa?$AA?9?$AAi?$AAn?$AA?$AA@ 100e8c88     libucrtd:lcidtoname_downlevel.obj
 0002:0001fc98       ??_C@_1M@BKMAIGOJ@?$AAs?$AAe?$AA?9?$AAf?$AAi?$AA?$AA@ 100e8c98     libucrtd:lcidtoname_downlevel.obj
 0002:0001fca8       ??_C@_1M@NDPIFLFI@?$AAs?$AAe?$AA?9?$AAn?$AAo?$AA?$AA@ 100e8ca8     libucrtd:lcidtoname_downlevel.obj
 0002:0001fcb8       ??_C@_1M@DANKKHJ@?$AAs?$AAe?$AA?9?$AAs?$AAe?$AA?$AA@ 100e8cb8     libucrtd:lcidtoname_downlevel.obj
 0002:0001fcc8       ??_C@_1M@PNBLONPJ@?$AAs?$AAk?$AA?9?$AAs?$AAk?$AA?$AA@ 100e8cc8     libucrtd:lcidtoname_downlevel.obj
 0002:0001fcd8       ??_C@_1M@LFMODOAL@?$AAs?$AAl?$AA?9?$AAs?$AAi?$AA?$AA@ 100e8cd8     libucrtd:lcidtoname_downlevel.obj
 0002:0001fce8       ??_C@_1O@DFKOMPG@?$AAs?$AAm?$AAa?$AA?9?$AAn?$AAo?$AA?$AA@ 100e8ce8     libucrtd:lcidtoname_downlevel.obj
 0002:0001fcf8       ??_C@_1O@NDKPBNNH@?$AAs?$AAm?$AAa?$AA?9?$AAs?$AAe?$AA?$AA@ 100e8cf8     libucrtd:lcidtoname_downlevel.obj
 0002:0001fd08       ??_C@_1O@PLLKBHAB@?$AAs?$AAm?$AAj?$AA?9?$AAn?$AAo?$AA?$AA@ 100e8d08     libucrtd:lcidtoname_downlevel.obj
 0002:0001fd18       ??_C@_1O@CLEPOGCA@?$AAs?$AAm?$AAj?$AA?9?$AAs?$AAe?$AA?$AA@ 100e8d18     libucrtd:lcidtoname_downlevel.obj
 0002:0001fd28       ??_C@_1O@DLGJGKMK@?$AAs?$AAm?$AAn?$AA?9?$AAf?$AAi?$AA?$AA@ 100e8d28     libucrtd:lcidtoname_downlevel.obj
 0002:0001fd38       ??_C@_1O@OJDJGAJC@?$AAs?$AAm?$AAs?$AA?9?$AAf?$AAi?$AA?$AA@ 100e8d38     libucrtd:lcidtoname_downlevel.obj
 0002:0001fd48       ??_C@_1M@BOFOGHPB@?$AAs?$AAq?$AA?9?$AAa?$AAl?$AA?$AA@ 100e8d48     libucrtd:lcidtoname_downlevel.obj
 0002:0001fd58       ??_C@_1BG@LJBBIPGB@?$AAs?$AAr?$AA?9?$AAb?$AAa?$AA?9?$AAc?$AAy?$AAr?$AAl?$AA?$AA@ 100e8d58     libucrtd:lcidtoname_downlevel.obj
 0002:0001fd74       ??_C@_1BG@JLBENFOE@?$AAs?$AAr?$AA?9?$AAb?$AAa?$AA?9?$AAl?$AAa?$AAt?$AAn?$AA?$AA@ 100e8d74     libucrtd:lcidtoname_downlevel.obj
 0002:0001fd90       ??_C@_1BG@KODPNHE@?$AAs?$AAr?$AA?9?$AAs?$AAp?$AA?9?$AAc?$AAy?$AAr?$AAl?$AA?$AA@ 100e8d90     libucrtd:lcidtoname_downlevel.obj
 0002:0001fdac       ??_C@_1BG@CIOGKHPB@?$AAs?$AAr?$AA?9?$AAs?$AAp?$AA?9?$AAl?$AAa?$AAt?$AAn?$AA?$AA@ 100e8dac     libucrtd:lcidtoname_downlevel.obj
 0002:0001fdc8       ??_C@_1M@NGFJLMAC@?$AAs?$AAv?$AA?9?$AAf?$AAi?$AA?$AA@ 100e8dc8     libucrtd:lcidtoname_downlevel.obj
 0002:0001fdd8       ??_C@_1M@MPJEJAJC@?$AAs?$AAv?$AA?9?$AAs?$AAe?$AA?$AA@ 100e8dd8     libucrtd:lcidtoname_downlevel.obj
 0002:0001fde8       ??_C@_1M@MPNDHLFK@?$AAs?$AAw?$AA?9?$AAk?$AAe?$AA?$AA@ 100e8de8     libucrtd:lcidtoname_downlevel.obj
 0002:0001fdf8       ??_C@_1O@KOHBJJI@?$AAs?$AAy?$AAr?$AA?9?$AAs?$AAy?$AA?$AA@ 100e8df8     libucrtd:lcidtoname_downlevel.obj
 0002:0001fe08       ??_C@_1M@LDCEFHA@?$AAt?$AAa?$AA?9?$AAi?$AAn?$AA?$AA@ 100e8e08     libucrtd:lcidtoname_downlevel.obj
 0002:0001fe18       ??_C@_1M@CNJOFAK@?$AAt?$AAe?$AA?9?$AAi?$AAn?$AA?$AA@ 100e8e18     libucrtd:lcidtoname_downlevel.obj
 0002:0001fe28       ??_C@_1M@GNAECACD@?$AAt?$AAh?$AA?9?$AAt?$AAh?$AA?$AA@ 100e8e28     libucrtd:lcidtoname_downlevel.obj
 0002:0001fe38       ??_C@_1M@CHBIHOJO@?$AAt?$AAn?$AA?9?$AAz?$AAa?$AA?$AA@ 100e8e38     libucrtd:lcidtoname_downlevel.obj
 0002:0001fe48       ??_C@_1M@GCCMIGPJ@?$AAt?$AAr?$AA?9?$AAt?$AAr?$AA?$AA@ 100e8e48     libucrtd:lcidtoname_downlevel.obj
 0002:0001fe58       ??_C@_1M@CELMCNBK@?$AAt?$AAt?$AA?9?$AAr?$AAu?$AA?$AA@ 100e8e58     libucrtd:lcidtoname_downlevel.obj
 0002:0001fe68       ??_C@_1M@KLMCELGA@?$AAu?$AAk?$AA?9?$AAu?$AAa?$AA?$AA@ 100e8e68     libucrtd:lcidtoname_downlevel.obj
 0002:0001fe78       ??_C@_1M@EPAJJAJF@?$AAu?$AAr?$AA?9?$AAp?$AAk?$AA?$AA@ 100e8e78     libucrtd:lcidtoname_downlevel.obj
 0002:0001fe88       ??_C@_1BG@GEGPMCDJ@?$AAu?$AAz?$AA?9?$AAu?$AAz?$AA?9?$AAc?$AAy?$AAr?$AAl?$AA?$AA@ 100e8e88     libucrtd:lcidtoname_downlevel.obj
 0002:0001fea4       ??_C@_1BG@EGGKJILM@?$AAu?$AAz?$AA?9?$AAu?$AAz?$AA?9?$AAl?$AAa?$AAt?$AAn?$AA?$AA@ 100e8ea4     libucrtd:lcidtoname_downlevel.obj
 0002:0001fec0       ??_C@_1M@GFOCLFF@?$AAv?$AAi?$AA?9?$AAv?$AAn?$AA?$AA@ 100e8ec0     libucrtd:lcidtoname_downlevel.obj
 0002:0001fed0       ??_C@_1M@CPAMEDFI@?$AAx?$AAh?$AA?9?$AAz?$AAa?$AA?$AA@ 100e8ed0     libucrtd:lcidtoname_downlevel.obj
 0002:0001fee0       ??_C@_1O@EBKIFIGN@?$AAz?$AAh?$AA?9?$AAc?$AAh?$AAs?$AA?$AA@ 100e8ee0     libucrtd:lcidtoname_downlevel.obj
 0002:0001fef0       ??_C@_1O@NMHPGANE@?$AAz?$AAh?$AA?9?$AAc?$AAh?$AAt?$AA?$AA@ 100e8ef0     libucrtd:lcidtoname_downlevel.obj
 0002:0001ff00       ??_C@_1M@LPINJOMC@?$AAz?$AAh?$AA?9?$AAc?$AAn?$AA?$AA@ 100e8f00     libucrtd:lcidtoname_downlevel.obj
 0002:0001ff10       ??_C@_1M@OCJEJODD@?$AAz?$AAh?$AA?9?$AAh?$AAk?$AA?$AA@ 100e8f10     libucrtd:lcidtoname_downlevel.obj
 0002:0001ff20       ??_C@_1M@DNDLJINH@?$AAz?$AAh?$AA?9?$AAm?$AAo?$AA?$AA@ 100e8f20     libucrtd:lcidtoname_downlevel.obj
 0002:0001ff30       ??_C@_1M@MBFDNDND@?$AAz?$AAh?$AA?9?$AAs?$AAg?$AA?$AA@ 100e8f30     libucrtd:lcidtoname_downlevel.obj
 0002:0001ff40       ??_C@_1M@IMEPLEPE@?$AAz?$AAh?$AA?9?$AAt?$AAw?$AA?$AA@ 100e8f40     libucrtd:lcidtoname_downlevel.obj
 0002:0001ff50       ??_C@_1M@BBGHNHJP@?$AAz?$AAu?$AA?9?$AAz?$AAa?$AA?$AA@ 100e8f50     libucrtd:lcidtoname_downlevel.obj
 0002:0001ff60       ??_C@_1HO@KHHMOCBO@?$AAm?$AAi?$AAn?$AAk?$AAe?$AAr?$AAn?$AAe?$AAl?$AA?2?$AAc?$AAr?$AAt?$AAs?$AA?2?$AAu?$AAc?$AAr?$AAt?$AA?2?$AAs?$AAr?$AAc?$AA?2?$AAa?$AAp?$AAp?$AAc?$AAr?$AAt?$AA?2?$AAl@ 100e8f60     libucrtd:lcidtoname_downlevel.obj
 0002:0001fff8       ??_C@_1EC@MDFDCHIL@?$AA_?$AA_?$AAa?$AAc?$AAr?$AAt?$AA_?$AAD?$AAo?$AAw?$AAn?$AAl?$AAe?$AAv?$AAe?$AAl?$AAL?$AAC?$AAI?$AAD?$AAT?$AAo?$AAL?$AAo?$AAc?$AAa?$AAl?$AAe?$AAN?$AAa?$AAm?$AAe@ 100e8ff8     libucrtd:lcidtoname_downlevel.obj
 0002:00020048       ??_C@_1FO@LFACCMJH@?$AAw?$AAc?$AAs?$AAc?$AAp?$AAy?$AA_?$AAs?$AA?$CI?$AAo?$AAu?$AAt?$AAL?$AAo?$AAc?$AAa?$AAl?$AAe?$AAN?$AAa?$AAm?$AAe?$AA?0?$AA?5?$AAc?$AAc?$AAh?$AAL?$AAo?$AAc?$AAa?$AAl@ 100e9048     libucrtd:lcidtoname_downlevel.obj
 0002:000200b8       ??_C@_1DI@OOEEHOBJ@?$AAb?$AAa?$AAs?$AAe?$AA?5?$AA?$CB?$AA?$DN?$AA?5?$AAn?$AAu?$AAl?$AAl?$AAp?$AAt?$AAr?$AA?5?$AA?$HM?$AA?$HM?$AA?5?$AAn?$AAu?$AAm?$AA?5?$AA?$DN?$AA?$DN?$AA?5?$AA0?$AA?$AA@ 100e90b8     libucrtd:qsort.obj
 0002:00020100       ??_C@_1GA@KPPCKKGE@?$AAm?$AAi?$AAn?$AAk?$AAe?$AAr?$AAn?$AAe?$AAl?$AA?2?$AAc?$AAr?$AAt?$AAs?$AA?2?$AAu?$AAc?$AAr?$AAt?$AA?2?$AAs?$AAr?$AAc?$AA?2?$AAa?$AAp?$AAp?$AAc?$AAr?$AAt?$AA?2?$AAs@ 100e9100     libucrtd:qsort.obj
 0002:00020174       ??_C@_1M@INMHODIG@?$AAq?$AAs?$AAo?$AAr?$AAt?$AA?$AA@ 100e9174     libucrtd:qsort.obj
 0002:00020184       ??_C@_1BE@NJBEBBME@?$AAw?$AAi?$AAd?$AAt?$AAh?$AA?5?$AA?$DO?$AA?5?$AA0?$AA?$AA@ 100e9184     libucrtd:qsort.obj
 0002:0002019c       ??_C@_1CA@LIDFOMIN@?$AAc?$AAo?$AAm?$AAp?$AA?5?$AA?$CB?$AA?$DN?$AA?5?$AAn?$AAu?$AAl?$AAl?$AAp?$AAt?$AAr?$AA?$AA@ 100e919c     libucrtd:qsort.obj
 0002:000201c4       ??_C@_0DH@IKPCBLP@minkernel?2crts?2ucrt?2src?2appcrt?2l@ 100e91c4     libucrtd:lcmapstringa.obj
 0002:00020208       ??_C@_1CI@CCKDLILB@?$AA_?$AAs?$AAt?$AAr?$AAi?$AAn?$AAg?$AA1?$AA?5?$AA?$CB?$AA?$DN?$AA?5?$AAn?$AAu?$AAl?$AAl?$AAp?$AAt?$AAr?$AA?$AA@ 100e9208     libucrtd:wcsnicol.obj
 0002:00020238       ??_C@_1GG@MDOKJCAE@?$AAm?$AAi?$AAn?$AAk?$AAe?$AAr?$AAn?$AAe?$AAl?$AA?2?$AAc?$AAr?$AAt?$AAs?$AA?2?$AAu?$AAc?$AAr?$AAt?$AA?2?$AAs?$AAr?$AAc?$AA?2?$AAa?$AAp?$AAp?$AAc?$AAr?$AAt?$AA?2?$AAs@ 100e9238     libucrtd:wcsnicol.obj
 0002:000202b4       ??_C@_1BK@EONLMOKH@?$AA_?$AAw?$AAc?$AAs?$AAn?$AAi?$AAc?$AAo?$AAl?$AAl?$AA_?$AAl?$AA?$AA@ 100e92b4     libucrtd:wcsnicol.obj
 0002:000202d4       ??_C@_1CI@NAPEFFEJ@?$AA_?$AAs?$AAt?$AAr?$AAi?$AAn?$AAg?$AA2?$AA?5?$AA?$CB?$AA?$DN?$AA?5?$AAn?$AAu?$AAl?$AAl?$AAp?$AAt?$AAr?$AA?$AA@ 100e92d4     libucrtd:wcsnicol.obj
 0002:00020304       ??_C@_1CC@JLPHKJPH@?$AAc?$AAo?$AAu?$AAn?$AAt?$AA?5?$AA?$DM?$AA?$DN?$AA?5?$AAI?$AAN?$AAT?$AA_?$AAM?$AAA?$AAX?$AA?$AA@ 100e9304     libucrtd:wcsnicol.obj
 0002:0002032c       ??_C@_1BG@PCPANGGF@?$AA_?$AAw?$AAc?$AAs?$AAn?$AAi?$AAc?$AAo?$AAl?$AAl?$AA?$AA@ 100e932c     libucrtd:wcsnicol.obj
 0002:00020348       ??_C@_1GG@LACFCIFA@?$AAm?$AAi?$AAn?$AAk?$AAe?$AAr?$AAn?$AAe?$AAl?$AA?2?$AAc?$AAr?$AAt?$AAs?$AA?2?$AAu?$AAc?$AAr?$AAt?$AA?2?$AAs?$AAr?$AAc?$AA?2?$AAa?$AAp?$AAp?$AAc?$AAr?$AAt?$AA?2?$AAs@ 100e9348     libucrtd:strnicol.obj
 0002:000203c4       ??_C@_1BK@IOJEBPLP@?$AA_?$AAs?$AAt?$AAr?$AAn?$AAi?$AAc?$AAo?$AAl?$AAl?$AA_?$AAl?$AA?$AA@ 100e93c4     libucrtd:strnicol.obj
 0002:000203e4       ??_C@_0DB@JFFPGLDM@minkernel?2crts?2ucrt?2src?2appcrt?2l@ 100e93e4     libucrtd:osfinfo.obj
 0002:00020420       ??_C@_1EM@BPODPNEJ@?$AAs?$AAt?$AAa?$AAt?$AAi?$AAc?$AA_?$AAc?$AAa?$AAs?$AAt?$AA?$DM?$AAu?$AAn?$AAs?$AAi?$AAg?$AAn?$AAe?$AAd?$AA?$DO?$AA?$CI?$AAf?$AAh?$AA?$CJ?$AA?5?$AA?$DM?$AA?5?$AA_?$AAN?$AAH?$AAA@ 100e9420     libucrtd:osfinfo.obj
 0002:00020480       ??_C@_1GC@LDGKBAFM@?$AAm?$AAi?$AAn?$AAk?$AAe?$AAr?$AAn?$AAe?$AAl?$AA?2?$AAc?$AAr?$AAt?$AAs?$AA?2?$AAu?$AAc?$AAr?$AAt?$AA?2?$AAs?$AAr?$AAc?$AA?2?$AAa?$AAp?$AAp?$AAc?$AAr?$AAt?$AA?2?$AAl@ 100e9480     libucrtd:osfinfo.obj
 0002:000204f8       ??_C@_1DM@JELNOMLN@?$AA_?$AA_?$AAa?$AAc?$AAr?$AAt?$AA_?$AAl?$AAo?$AAw?$AAi?$AAo?$AA_?$AAe?$AAn?$AAs?$AAu?$AAr?$AAe?$AA_?$AAf?$AAh?$AA_?$AAe?$AAx?$AAi?$AAs?$AAt?$AAs?$AA?$AA@ 100e94f8     libucrtd:osfinfo.obj
 0002:00020540       ??_C@_1FK@MGHFJLAL@?$AAf?$AAh?$AA?5?$AA?$DO?$AA?$DN?$AA?5?$AA0?$AA?5?$AA?$CG?$AA?$CG?$AA?5?$AA?$CI?$AAu?$AAn?$AAs?$AAi?$AAg?$AAn?$AAe?$AAd?$AA?$CJ?$AAf?$AAh?$AA?5?$AA?$DM?$AA?5?$AA?$CI?$AAu?$AAn?$AAs?$AAi?$AAg@ 100e9540     libucrtd:osfinfo.obj
 0002:000205ac       ??_C@_1BO@EMBOBGKE@?$AA_?$AAg?$AAe?$AAt?$AA_?$AAo?$AAs?$AAf?$AAh?$AAa?$AAn?$AAd?$AAl?$AAe?$AA?$AA@ 100e95ac     libucrtd:osfinfo.obj
 0002:000205d0       ??_C@_1CI@ILOIOBLM@?$AA_?$AAo?$AAs?$AAf?$AAi?$AAl?$AAe?$AA?$CI?$AAf?$AAh?$AA?$CJ?$AA?5?$AA?$CG?$AA?5?$AAF?$AAO?$AAP?$AAE?$AAN?$AA?$AA@ 100e95d0     libucrtd:osfinfo.obj
 0002:00020600       ??_C@_1FO@LPCLHKGE@?$AA?$CI?$AAf?$AAh?$AA?5?$AA?$DO?$AA?$DN?$AA?5?$AA0?$AA?5?$AA?$CG?$AA?$CG?$AA?5?$AA?$CI?$AAu?$AAn?$AAs?$AAi?$AAg?$AAn?$AAe?$AAd?$AA?$CJ?$AAf?$AAh?$AA?5?$AA?$DM?$AA?5?$AA?$CI?$AAu?$AAn?$AAs?$AAi@ 100e9600     libucrtd:isatty.obj
 0002:00020670       ??_C@_1GA@DEPMKPD@?$AAm?$AAi?$AAn?$AAk?$AAe?$AAr?$AAn?$AAe?$AAl?$AA?2?$AAc?$AAr?$AAt?$AAs?$AA?2?$AAu?$AAc?$AAr?$AAt?$AA?2?$AAs?$AAr?$AAc?$AA?2?$AAa?$AAp?$AAp?$AAc?$AAr?$AAt?$AA?2?$AAl@ 100e9670     libucrtd:isatty.obj
 0002:000206e4       ??_C@_1BA@LEBDGIHM@?$AA_?$AAi?$AAs?$AAa?$AAt?$AAt?$AAy?$AA?$AA@ 100e96e4     libucrtd:isatty.obj
 0002:000206f8       ??_C@_1GI@IMEEHIAK@?$AAm?$AAi?$AAn?$AAk?$AAe?$AAr?$AAn?$AAe?$AAl?$AA?2?$AAc?$AAr?$AAt?$AAs?$AA?2?$AAu?$AAc?$AAr?$AAt?$AA?2?$AAs?$AAr?$AAc?$AA?2?$AAa?$AAp?$AAp?$AAc?$AAr?$AAt?$AA?2?$AAc@ 100e96f8     libucrtd:_fptostr.obj
 0002:00020774       ??_C@_1DG@NMGBKPMI@?$AA_?$AA_?$AAa?$AAc?$AAr?$AAt?$AA_?$AAf?$AAp?$AA_?$AAs?$AAt?$AAr?$AAf?$AAl?$AAt?$AA_?$AAt?$AAo?$AA_?$AAs?$AAt?$AAr?$AAi?$AAn?$AAg?$AA?$AA@ 100e9774     libucrtd:_fptostr.obj
 0002:000207b8       ??_C@_1IE@EAOKIIFP@?$AAb?$AAu?$AAf?$AAf?$AAe?$AAr?$AA_?$AAc?$AAo?$AAu?$AAn?$AAt?$AA?5?$AA?$DO?$AA?5?$AAs?$AAt?$AAa?$AAt?$AAi?$AAc?$AA_?$AAc?$AAa?$AAs?$AAt?$AA?$DM?$AAs?$AAi?$AAz?$AAe?$AA_@ 100e97b8     libucrtd:_fptostr.obj
 0002:00020858       ??_C@_1CA@EDEEBMBB@?$AAp?$AAf?$AAl?$AAt?$AA?5?$AA?$CB?$AA?$DN?$AA?5?$AAn?$AAu?$AAl?$AAl?$AAp?$AAt?$AAr?$AA?$AA@ 100e9858     libucrtd:_fptostr.obj
 0002:00020880       ?large_power_data@?1??multiply_by_power_of_ten@__crt_strtox@@YA_NAAUbig_integer@2@I@Z@4QBIB 100e9880     libucrtd:cfout.obj
 0002:00021358       ?large_power_indices@?1??multiply_by_power_of_ten@__crt_strtox@@YA_NAAUbig_integer@2@I@Z@4QBUunpack_index@?1??12@YA_N0I@Z@B 100ea358     libucrtd:cfout.obj
 0002:00021410       ?small_powers_of_ten@?6??multiply_by_power_of_ten@__crt_strtox@@YA_NAAUbig_integer@2@I@Z@4QBIB 100ea410     libucrtd:cfout.obj
 0002:0002143c       ??_C@_1DI@GICAMMFM@?$AA?$CI?$AA?$CC?$AAD?$AAi?$AAv?$AAi?$AAs?$AAi?$AAo?$AAn?$AA?5?$AAb?$AAy?$AA?5?$AAz?$AAe?$AAr?$AAo?$AA?$CC?$AA?0?$AA?5?$AAf?$AAa?$AAl?$AAs?$AAe?$AA?$CJ?$AA?$AA@ 100ea43c     libucrtd:cfout.obj
 0002:00021480       ??_C@_1GO@BFGDDONN@?$AAm?$AAi?$AAn?$AAk?$AAe?$AAr?$AAn?$AAe?$AAl?$AA?2?$AAc?$AAr?$AAt?$AAs?$AA?2?$AAu?$AAc?$AAr?$AAt?$AA?2?$AAi?$AAn?$AAc?$AA?2?$AAc?$AAo?$AAr?$AAe?$AAc?$AAr?$AAt?$AA_@ 100ea480     libucrtd:cfout.obj
 0002:00021508       ??_C@_1GC@DDAKNBNC@?$AAm?$AAi?$AAn?$AAk?$AAe?$AAr?$AAn?$AAe?$AAl?$AA?2?$AAc?$AAr?$AAt?$AAs?$AA?2?$AAu?$AAc?$AAr?$AAt?$AA?2?$AAs?$AAr?$AAc?$AA?2?$AAa?$AAp?$AAp?$AAc?$AAr?$AAt?$AA?2?$AAc@ 100ea508     libucrtd:cfout.obj
 0002:00021580       ??_C@_1BM@FAAOAKKO@?$AA_?$AA_?$AAa?$AAc?$AAr?$AAt?$AA_?$AAf?$AAl?$AAt?$AAo?$AAu?$AAt?$AA?$AA@ 100ea580     libucrtd:cfout.obj
 0002:000215a8       ??_C@_1EI@OACEJKEP@?$AAs?$AAt?$AAr?$AAc?$AAp?$AAy?$AA_?$AAs?$AA?$CI?$AAr?$AAe?$AAs?$AAu?$AAl?$AAt?$AA?0?$AA?5?$AAr?$AAe?$AAs?$AAu?$AAl?$AAt?$AA_?$AAc?$AAo?$AAu?$AAn?$AAt?$AA?0?$AA?5?$AA?$CC@ 100ea5a8     libucrtd:cfout.obj
 0002:00021600       ??_C@_1FC@KIECGFMP@?$AAs?$AAt?$AAr?$AAc?$AAp?$AAy?$AA_?$AAs?$AA?$CI?$AAr?$AAe?$AAs?$AAu?$AAl?$AAt?$AA?0?$AA?5?$AAr?$AAe?$AAs?$AAu?$AAl?$AAt?$AA_?$AAc?$AAo?$AAu?$AAn?$AAt?$AA?0?$AA?5?$AA?$CC@ 100ea600     libucrtd:cfout.obj
 0002:00021664       ??_C@_05DNEBIAHO@1?$CDINF?$AA@ 100ea664     libucrtd:cfout.obj
 0002:00021670       ??_C@_1FC@NFPJEIBD@?$AAs?$AAt?$AAr?$AAc?$AAp?$AAy?$AA_?$AAs?$AA?$CI?$AAr?$AAe?$AAs?$AAu?$AAl?$AAt?$AA?0?$AA?5?$AAr?$AAe?$AAs?$AAu?$AAl?$AAt?$AA_?$AAc?$AAo?$AAu?$AAn?$AAt?$AA?0?$AA?5?$AA?$CC@ 100ea670     libucrtd:cfout.obj
 0002:000216d4       ??_C@_06IMKFLFPG@1?$CDQNAN?$AA@ 100ea6d4     libucrtd:cfout.obj
 0002:000216e0       ??_C@_1FC@DEJHIMLO@?$AAs?$AAt?$AAr?$AAc?$AAp?$AAy?$AA_?$AAs?$AA?$CI?$AAr?$AAe?$AAs?$AAu?$AAl?$AAt?$AA?0?$AA?5?$AAr?$AAe?$AAs?$AAu?$AAl?$AAt?$AA_?$AAc?$AAo?$AAu?$AAn?$AAt?$AA?0?$AA?5?$AA?$CC@ 100ea6e0     libucrtd:cfout.obj
 0002:00021744       ??_C@_06PGGFOGJG@1?$CDSNAN?$AA@ 100ea744     libucrtd:cfout.obj
 0002:00021750       ??_C@_1FC@KMLHLFPC@?$AAs?$AAt?$AAr?$AAc?$AAp?$AAy?$AA_?$AAs?$AA?$CI?$AAr?$AAe?$AAs?$AAu?$AAl?$AAt?$AA?0?$AA?5?$AAr?$AAe?$AAs?$AAu?$AAl?$AAt?$AA_?$AAc?$AAo?$AAu?$AAn?$AAt?$AA?0?$AA?5?$AA?$CC@ 100ea750     libucrtd:cfout.obj
 0002:000217b4       ??_C@_05PHHOCPM@1?$CDIND?$AA@ 100ea7b4     libucrtd:cfout.obj
 0002:000217bc       ??_C@_1DE@KHKADFOO@?$AAm?$AAa?$AAn?$AAt?$AAi?$AAs?$AAs?$AAa?$AA_?$AAb?$AAu?$AAf?$AAf?$AAe?$AAr?$AA_?$AAc?$AAo?$AAu?$AAn?$AAt?$AA?5?$AA?$DO?$AA?5?$AA0?$AA?$AA@ 100ea7bc     libucrtd:cfout.obj
 0002:00021800       ??_C@_1FI@LFKLOPAC@?$AA?$CI?$AA?$CC?$AAu?$AAn?$AAe?$AAx?$AAp?$AAe?$AAc?$AAt?$AAe?$AAd?$AA?5?$AAi?$AAn?$AAp?$AAu?$AAt?$AA?5?$AAv?$AAa?$AAl?$AAu?$AAe?$AA?$DL?$AA?5?$AAl?$AAo?$AAg?$AA1?$AA0?$AA?5@ 100ea800     libucrtd:cfout.obj
 0002:00021870       ??_C@_1FG@MLHBDPBG@?$AAq?$AAu?$AAo?$AAt?$AAi?$AAe?$AAn?$AAt?$AA?5?$AA?$DM?$AA?5?$AAd?$AAi?$AAg?$AAi?$AAt?$AAs?$AA_?$AAp?$AAe?$AAr?$AA_?$AAi?$AAt?$AAe?$AAr?$AAa?$AAt?$AAi?$AAo?$AAn?$AA_@ 100ea870     libucrtd:cfout.obj
 0002:000218d8       ??_C@_1GC@DFIGBGJI@?$AAm?$AAi?$AAn?$AAk?$AAe?$AAr?$AAn?$AAe?$AAl?$AA?2?$AAc?$AAr?$AAt?$AAs?$AA?2?$AAu?$AAc?$AAr?$AAt?$AA?2?$AAs?$AAr?$AAc?$AA?2?$AAa?$AAp?$AAp?$AAc?$AAr?$AAt?$AA?2?$AAs@ 100ea8d8     libucrtd:_flsbuf.obj
 0002:00021950       ??_C@_1HO@MLMGPAFH@?$AA?$CI?$AA?$CC?$AAi?$AAn?$AAc?$AAo?$AAn?$AAs?$AAi?$AAs?$AAt?$AAe?$AAn?$AAt?$AA?5?$AAI?$AAO?$AAB?$AA?5?$AAf?$AAi?$AAe?$AAl?$AAd?$AAs?$AA?$CC?$AA?0?$AA?5?$AAs?$AAt?$AAr?$AAe@ 100ea950     libucrtd:_flsbuf.obj
 0002:000219e8       ??_C@_1GE@GPOPIOIG@?$AAm?$AAi?$AAn?$AAk?$AAe?$AAr?$AAn?$AAe?$AAl?$AA?2?$AAc?$AAr?$AAt?$AAs?$AA?2?$AAu?$AAc?$AAr?$AAt?$AA?2?$AAs?$AAr?$AAc?$AA?2?$AAa?$AAp?$AAp?$AAc?$AAr?$AAt?$AA?2?$AAs@ 100ea9e8     libucrtd:_freebuf.obj
 0002:00021a60       ??_C@_1DE@BCNCAIK@?$AA?$CI?$AA?$CC?$AAI?$AAn?$AAv?$AAa?$AAl?$AAi?$AAd?$AA?5?$AAe?$AAr?$AAr?$AAo?$AAr?$AA_?$AAm?$AAo?$AAd?$AAe?$AA?$CC?$AA?0?$AA?5?$AA0?$AA?$CJ?$AA?$AA@ 100eaa60     libucrtd:set_error_mode.obj
 0002:00021aa0       ??_C@_1GO@EBFPMMIJ@?$AAm?$AAi?$AAn?$AAk?$AAe?$AAr?$AAn?$AAe?$AAl?$AA?2?$AAc?$AAr?$AAt?$AAs?$AA?2?$AAu?$AAc?$AAr?$AAt?$AA?2?$AAs?$AAr?$AAc?$AA?2?$AAa?$AAp?$AAp?$AAc?$AAr?$AAt?$AA?2?$AAm@ 100eaaa0     libucrtd:set_error_mode.obj
 0002:00021b24       ??_C@_1CA@LFDHAMEM@?$AA_?$AAs?$AAe?$AAt?$AA_?$AAe?$AAr?$AAr?$AAo?$AAr?$AA_?$AAm?$AAo?$AAd?$AAe?$AA?$AA@ 100eab24     libucrtd:set_error_mode.obj
 0002:00021bbc       ??_C@_0DJ@JBBOOIAE@minkernel?2crts?2ucrt?2src?2appcrt?2l@ 100eabbc     libucrtd:getlocaleinfoa.obj
 0002:00021c00       ??_C@_1HC@KAIIOBKJ@?$AAm?$AAi?$AAn?$AAk?$AAe?$AAr?$AAn?$AAe?$AAl?$AA?2?$AAc?$AAr?$AAt?$AAs?$AA?2?$AAu?$AAc?$AAr?$AAt?$AA?2?$AAs?$AAr?$AAc?$AA?2?$AAa?$AAp?$AAp?$AAc?$AAr?$AAt?$AA?2?$AAl@ 100eac00     libucrtd:getlocaleinfoa.obj
 0002:00021c88       ??_C@_1CM@LGLMFNOK@?$AA_?$AA_?$AAa?$AAc?$AAr?$AAt?$AA_?$AAG?$AAe?$AAt?$AAL?$AAo?$AAc?$AAa?$AAl?$AAe?$AAI?$AAn?$AAf?$AAo?$AAA?$AA?$AA@ 100eac88     libucrtd:getlocaleinfoa.obj
 0002:00021cc0       ??_C@_1IM@HJPPDDKJ@?$AAs?$AAt?$AAr?$AAn?$AAc?$AAp?$AAy?$AA_?$AAs?$AA?$CI?$AA?$CK?$AAc?$AAh?$AAa?$AAr?$AA_?$AAr?$AAe?$AAs?$AAu?$AAl?$AAt?$AA?0?$AA?5?$AAl?$AAo?$AAc?$AAa?$AAl?$AA_?$AAl?$AAe@ 100eacc0     libucrtd:getlocaleinfoa.obj
 0002:00021d68       ??_C@_1BO@GCPMHDON@?$AAd?$AAs?$AAt?$AA?5?$AA?$CB?$AA?$DN?$AA?5?$AAn?$AAu?$AAl?$AAl?$AAp?$AAt?$AAr?$AA?$AA@ 100ead68     libucrtd:wcsicmp.obj
 0002:00021d90       ??_C@_1GE@FNNJGCGI@?$AAm?$AAi?$AAn?$AAk?$AAe?$AAr?$AAn?$AAe?$AAl?$AA?2?$AAc?$AAr?$AAt?$AAs?$AA?2?$AAu?$AAc?$AAr?$AAt?$AA?2?$AAs?$AAr?$AAc?$AA?2?$AAa?$AAp?$AAp?$AAc?$AAr?$AAt?$AA?2?$AAs@ 100ead90     libucrtd:wcsicmp.obj
 0002:00021e08       ??_C@_1BG@EELGPCPD@?$AA_?$AAw?$AAc?$AAs?$AAi?$AAc?$AAm?$AAp?$AA_?$AAl?$AA?$AA@ 100eae08     libucrtd:wcsicmp.obj
 0002:00021e24       ??_C@_1BO@NEBGDLJE@?$AAs?$AAr?$AAc?$AA?5?$AA?$CB?$AA?$DN?$AA?5?$AAn?$AAu?$AAl?$AAl?$AAp?$AAt?$AAr?$AA?$AA@ 100eae24     libucrtd:wcsicmp.obj
 0002:00021e48       ??_C@_1BC@NHIBDOMC@?$AA_?$AAw?$AAc?$AAs?$AAi?$AAc?$AAm?$AAp?$AA?$AA@ 100eae48     libucrtd:wcsicmp.obj
 0002:00021e60       ??_C@_1CC@IBIHLDLG@?$AAf?$AAi?$AAr?$AAs?$AAt?$AA?5?$AA?$CB?$AA?$DN?$AA?5?$AAn?$AAu?$AAl?$AAl?$AAp?$AAt?$AAr?$AA?$AA@ 100eae60     libucrtd:wcsnicmp.obj
 0002:00021e88       ??_C@_1GG@CLJGPGNE@?$AAm?$AAi?$AAn?$AAk?$AAe?$AAr?$AAn?$AAe?$AAl?$AA?2?$AAc?$AAr?$AAt?$AAs?$AA?2?$AAu?$AAc?$AAr?$AAt?$AA?2?$AAs?$AAr?$AAc?$AA?2?$AAa?$AAp?$AAp?$AAc?$AAr?$AAt?$AA?2?$AAs@ 100eae88     libucrtd:wcsnicmp.obj
 0002:00021f04       ??_C@_1BI@KLMFNDBC@?$AA_?$AAw?$AAc?$AAs?$AAn?$AAi?$AAc?$AAm?$AAp?$AA_?$AAl?$AA?$AA@ 100eaf04     libucrtd:wcsnicmp.obj
 0002:00021f20       ??_C@_1CA@GLFIDPNF@?$AAl?$AAa?$AAs?$AAt?$AA?5?$AA?$CB?$AA?$DN?$AA?5?$AAn?$AAu?$AAl?$AAl?$AAp?$AAt?$AAr?$AA?$AA@ 100eaf20     libucrtd:wcsnicmp.obj
 0002:00021f48       ??_C@_1BE@JKOKKFEL@?$AA_?$AAw?$AAc?$AAs?$AAn?$AAi?$AAc?$AAm?$AAp?$AA?$AA@ 100eaf48     libucrtd:wcsnicmp.obj
 0002:00021f60       ??_C@_1GG@FIFJEMIA@?$AAm?$AAi?$AAn?$AAk?$AAe?$AAr?$AAn?$AAe?$AAl?$AA?2?$AAc?$AAr?$AAt?$AAs?$AA?2?$AAu?$AAc?$AAr?$AAt?$AA?2?$AAs?$AAr?$AAc?$AA?2?$AAa?$AAp?$AAp?$AAc?$AAr?$AAt?$AA?2?$AAs@ 100eaf60     libucrtd:strnicmp.obj
 0002:00021fdc       ??_C@_1BI@BJLEPLEF@?$AA_?$AAs?$AAt?$AAr?$AAn?$AAi?$AAc?$AAm?$AAp?$AA_?$AAl?$AA?$AA@ 100eafdc     libucrtd:strnicmp.obj
 0002:00021ff8       ??_C@_1BE@BHJDFFNA@?$AA_?$AAs?$AAt?$AAr?$AAn?$AAi?$AAc?$AAm?$AAp?$AA?$AA@ 100eaff8     libucrtd:strnicmp.obj
 0002:00022010       ??_C@_1HK@ELDMAMK@?$AAc?$AAc?$AAh?$AAC?$AAo?$AAu?$AAn?$AAt?$AA1?$AA?$DN?$AA?$DN?$AA0?$AA?5?$AA?$CG?$AA?$CG?$AA?5?$AAc?$AAc?$AAh?$AAC?$AAo?$AAu?$AAn?$AAt?$AA2?$AA?$DN?$AA?$DN?$AA1?$AA?5?$AA?$HM?$AA?$HM?$AA?5@ 100eb010     libucrtd:comparestringa.obj
 0002:000220a8       ??_C@_1HC@NLKDIKED@?$AAm?$AAi?$AAn?$AAk?$AAe?$AAr?$AAn?$AAe?$AAl?$AA?2?$AAc?$AAr?$AAt?$AAs?$AA?2?$AAu?$AAc?$AAr?$AAt?$AA?2?$AAs?$AAr?$AAc?$AA?2?$AAa?$AAp?$AAp?$AAc?$AAr?$AAt?$AA?2?$AAl@ 100eb0a8     libucrtd:comparestringa.obj
 0002:00022130       ??_C@_0DJ@MBLHFEOE@minkernel?2crts?2ucrt?2src?2appcrt?2l@ 100eb130     libucrtd:comparestringa.obj
 0002:00022178       ??_C@_1GA@MPOOLHCO@?$AAm?$AAi?$AAn?$AAk?$AAe?$AAr?$AAn?$AAe?$AAl?$AA?2?$AAc?$AAr?$AAt?$AAs?$AA?2?$AAu?$AAc?$AAr?$AAt?$AA?2?$AAs?$AAr?$AAc?$AA?2?$AAa?$AAp?$AAp?$AAc?$AAr?$AAt?$AA?2?$AAl@ 100eb178     libucrtd:commit.obj
 0002:000221ec       ??_C@_1BA@FLNMBBIM@?$AA_?$AAc?$AAo?$AAm?$AAm?$AAi?$AAt?$AA?$AA@ 100eb1ec     libucrtd:commit.obj
 0002:00022200       ??_C@_1CM@OKGMMMDH@?$AA?$CI?$AA_?$AAo?$AAs?$AAf?$AAi?$AAl?$AAe?$AA?$CI?$AAf?$AAh?$AA?$CJ?$AA?5?$AA?$CG?$AA?5?$AAF?$AAO?$AAP?$AAE?$AAN?$AA?$CJ?$AA?$AA@ 100eb200     libucrtd:commit.obj
 0002:00022238       ??_C@_1JE@ECKHFIFP@?$AA?$CI?$AA?$CC?$AAI?$AAn?$AAv?$AAa?$AAl?$AAi?$AAd?$AA?5?$AAf?$AAi?$AAl?$AAe?$AA?5?$AAd?$AAe?$AAs?$AAc?$AAr?$AAi?$AAp?$AAt?$AAo?$AAr?$AA?4?$AA?5?$AAF?$AAi?$AAl?$AAe?$AA?5@ 100eb238     libucrtd:commit.obj
 0002:000222f0       ??_C@_1FO@CAMPMGCN@?$AAm?$AAi?$AAn?$AAk?$AAe?$AAr?$AAn?$AAe?$AAl?$AA?2?$AAc?$AAr?$AAt?$AAs?$AA?2?$AAu?$AAc?$AAr?$AAt?$AA?2?$AAs?$AAr?$AAc?$AA?2?$AAa?$AAp?$AAp?$AAc?$AAr?$AAt?$AA?2?$AAl@ 100eb2f0     libucrtd:write.obj
 0002:00022360       ??_C@_1O@KOFKDHPL@?$AA_?$AAw?$AAr?$AAi?$AAt?$AAe?$AA?$AA@ 100eb360     libucrtd:write.obj
 0002:00022370       ??_C@_1DI@CNMHHHLG@?$AAi?$AAs?$AAl?$AAe?$AAa?$AAd?$AAb?$AAy?$AAt?$AAe?$AA?$CI?$AA_?$AAd?$AAb?$AAc?$AAs?$AAB?$AAu?$AAf?$AAf?$AAe?$AAr?$AA?$CI?$AAf?$AAh?$AA?$CJ?$AA?$CJ?$AA?$AA@ 100eb370     libucrtd:write.obj
 0002:000223b4       ??_C@_1BM@NCANHCIP@?$AA_?$AAw?$AAr?$AAi?$AAt?$AAe?$AA_?$AAn?$AAo?$AAl?$AAo?$AAc?$AAk?$AA?$AA@ 100eb3b4     libucrtd:write.obj
 0002:000223d8       ??_C@_1CK@CPEAGIIP@?$AAb?$AAu?$AAf?$AAf?$AAe?$AAr?$AA_?$AAs?$AAi?$AAz?$AAe?$AA?5?$AA?$CF?$AA?5?$AA2?$AA?5?$AA?$DN?$AA?$DN?$AA?5?$AA0?$AA?$AA@ 100eb3d8     libucrtd:write.obj
 0002:00022478       ??_C@_1FO@KIIHJNFN@?$AAm?$AAi?$AAn?$AAk?$AAe?$AAr?$AAn?$AAe?$AAl?$AA?2?$AAc?$AAr?$AAt?$AAs?$AA?2?$AAu?$AAc?$AAr?$AAt?$AA?2?$AAs?$AAr?$AAc?$AA?2?$AAa?$AAp?$AAp?$AAc?$AAr?$AAt?$AA?2?$AAl@ 100eb478     libucrtd:lseek.obj
 0002:000224e8       ??_C@_1BK@JOMBNFIM@?$AAc?$AAo?$AAm?$AAm?$AAo?$AAn?$AA_?$AAl?$AAs?$AAe?$AAe?$AAk?$AA?$AA@ 100eb4e8     libucrtd:lseek.obj
 0002:00022508       ??_C@_1DM@LMLOLGJ@?$AA?$CI?$AA?$CC?$AAI?$AAn?$AAv?$AAa?$AAl?$AAi?$AAd?$AA?5?$AAf?$AAi?$AAl?$AAe?$AA?5?$AAd?$AAe?$AAs?$AAc?$AAr?$AAi?$AAp?$AAt?$AAo?$AAr?$AA?$CC?$AA?0?$AA0?$AA?$CJ?$AA?$AA@ 100eb508     libucrtd:lseek.obj
 0002:00022550       ??_C@_1GC@DLDMJFMI@?$AAm?$AAi?$AAn?$AAk?$AAe?$AAr?$AAn?$AAe?$AAl?$AA?2?$AAc?$AAr?$AAt?$AAs?$AA?2?$AAu?$AAc?$AAr?$AAt?$AA?2?$AAs?$AAr?$AAc?$AA?2?$AAa?$AAp?$AAp?$AAc?$AAr?$AAt?$AA?2?$AAs@ 100eb550     libucrtd:_getbuf.obj
 0002:000225c8       ??_C@_0DB@LKJPMJPL@minkernel?2crts?2ucrt?2src?2appcrt?2s@ 100eb5c8     libucrtd:_getbuf.obj
 0002:00022608       ??_C@_1GA@DKNOMDCL@?$AAm?$AAi?$AAn?$AAk?$AAe?$AAr?$AAn?$AAe?$AAl?$AA?2?$AAc?$AAr?$AAt?$AAs?$AA?2?$AAu?$AAc?$AAr?$AAt?$AA?2?$AAs?$AAr?$AAc?$AA?2?$AAa?$AAp?$AAp?$AAc?$AAr?$AAt?$AA?2?$AAs@ 100eb608     libucrtd:fclose.obj
 0002:0002267c       ??_C@_1O@EGMJNCOI@?$AAf?$AAc?$AAl?$AAo?$AAs?$AAe?$AA?$AA@ 100eb67c     libucrtd:fclose.obj
 0002:0002268c       ??_C@_1BO@JINCABEC@?$AA_?$AAf?$AAc?$AAl?$AAo?$AAs?$AAe?$AA_?$AAn?$AAo?$AAl?$AAo?$AAc?$AAk?$AA?$AA@ 100eb68c     libucrtd:fclose.obj
 0002:000227f0       __infinity                 100eb7f0     libucrtd:87tran.obj
 0002:000227fa       __minfinity                100eb7fa     libucrtd:87tran.obj
 0002:00022804       __logemax                  100eb804     libucrtd:87tran.obj
 0002:0002282a       __OP_EXPjmptab             100eb82a     libucrtd:87tran.obj
 0002:000228f8       ??_C@_1GE@KFPKEKCH@?$AAm?$AAi?$AAn?$AAk?$AAe?$AAr?$AAn?$AAe?$AAl?$AA?2?$AAc?$AAr?$AAt?$AAs?$AA?2?$AAu?$AAc?$AAr?$AAt?$AA?2?$AAs?$AAr?$AAc?$AA?2?$AAa?$AAp?$AAp?$AAc?$AAr?$AAt?$AA?2?$AAt@ 100eb8f8     libucrtd:ieee87.obj
 0002:00022970       ??_C@_1BO@OFDNCLL@?$AA_?$AAs?$AAe?$AAt?$AA_?$AAc?$AAo?$AAn?$AAt?$AAr?$AAo?$AAl?$AAf?$AAp?$AA?$AA@ 100eb970     libucrtd:ieee87.obj
 0002:00022998       ??_C@_1GO@OKJGOMCB@?$AA_?$AAc?$AAo?$AAn?$AAt?$AAr?$AAo?$AAl?$AAf?$AAp?$AA_?$AAs?$AA?$CI?$AA?$CI?$AA?$CI?$AAv?$AAo?$AAi?$AAd?$AA?5?$AA?$CK?$AA?$CJ?$AA0?$AA?$CJ?$AA?0?$AA?5?$AAn?$AAe?$AAw?$AAc?$AAt?$AAr@ 100eb998     libucrtd:ieee87.obj
 0002:00022a20       ??_C@_1FO@IPDGALOE@?$AAm?$AAi?$AAn?$AAk?$AAe?$AAr?$AAn?$AAe?$AAl?$AA?2?$AAc?$AAr?$AAt?$AAs?$AA?2?$AAu?$AAc?$AAr?$AAt?$AA?2?$AAs?$AAr?$AAc?$AA?2?$AAa?$AAp?$AAp?$AAc?$AAr?$AAt?$AA?2?$AAl@ 100eba20     libucrtd:close.obj
 0002:00022a90       ??_C@_1O@EDEJGJBM@?$AA_?$AAc?$AAl?$AAo?$AAs?$AAe?$AA?$AA@ 100eba90     libucrtd:close.obj
 0002:00022aa0       ??_C@_0DA@OGKFKCBE@minkernel?2crts?2ucrt?2src?2appcrt?2s@ 100ebaa0     libucrtd:stream.obj
 0002:00022adc       ??_C@_1BA@BALFACEM@?$AAC?$AAO?$AAN?$AAO?$AAU?$AAT?$AA$?$AA?$AA@ 100ebadc     libucrtd:initcon.obj
 0002:00022af0       ___acrt_log10_table_t      100ebaf0     libucrtd:log10_tables.obj
 0002:00022fd0       ___acrt_log10_table_cb     100ebfd0     libucrtd:log10_tables.obj
 0002:000234b0       __real@4000000000000000    100ec4b0     libucrtd:powhlp.obj
 0002:000234bc       ??_C@_1DG@JNDMIEJL@?$AA?$CI?$AA?$CC?$AAI?$AAn?$AAv?$AAa?$AAl?$AAi?$AAd?$AA?5?$AAi?$AAn?$AAp?$AAu?$AAt?$AA?5?$AAv?$AAa?$AAl?$AAu?$AAe?$AA?$CC?$AA?0?$AA?5?$AA0?$AA?$CJ?$AA?$AA@ 100ec4bc     libucrtd:contrlfp.obj
 0002:00023500       ??_C@_1FO@HHLKCIKB@?$AAm?$AAi?$AAn?$AAk?$AAe?$AAr?$AAn?$AAe?$AAl?$AA?2?$AAc?$AAr?$AAt?$AAs?$AA?2?$AAu?$AAc?$AAr?$AAt?$AA?2?$AAs?$AAr?$AAc?$AA?2?$AAa?$AAp?$AAp?$AAc?$AAr?$AAt?$AA?2?$AAt@ 100ec500     libucrtd:contrlfp.obj
 0002:00023570       ??_C@_1BK@CDOALEA@?$AA_?$AAc?$AAo?$AAn?$AAt?$AAr?$AAo?$AAl?$AAf?$AAp?$AA_?$AAs?$AA?$AA@ 100ec570     libucrtd:contrlfp.obj
 0002:00023590       __pDestructExceptionObject 100ec590     libvcruntimed:frame.obj
 0002:00023598       ??_7exception@std@@6B@     100ec598     libvcruntimed:frame.obj
 0002:000235a4       ??_C@_0BC@EOODALEL@Unknown?5exception?$AA@ 100ec5a4     libvcruntimed:frame.obj
 0002:000235c0       ??_7bad_exception@std@@6B@ 100ec5c0     libvcruntimed:frame.obj
 0002:000235cc       ??_C@_0O@DPKOEFFH@bad?5exception?$AA@ 100ec5cc     libvcruntimed:frame.obj
 0002:000235e0       ??_C@_1FK@OACNEHHA@?$AAt?$AAo?$AA?9?$AA?$DO?$AA_?$AAW?$AAh?$AAa?$AAt?$AA?5?$AA?$DN?$AA?$DN?$AA?5?$AAn?$AAu?$AAl?$AAl?$AAp?$AAt?$AAr?$AA?5?$AA?$CG?$AA?$CG?$AA?5?$AAt?$AAo?$AA?9?$AA?$DO?$AA_?$AAD?$AAo?$AAF@ 100ec5e0     libvcruntimed:std_exception.obj
 0002:00023650       ??_C@_1GK@GJEBHBCE@?$AAf?$AA?3?$AA?2?$AAd?$AAd?$AA?2?$AAv?$AAc?$AAt?$AAo?$AAo?$AAl?$AAs?$AA?2?$AAc?$AAr?$AAt?$AA?2?$AAv?$AAc?$AAr?$AAu?$AAn?$AAt?$AAi?$AAm?$AAe?$AA?2?$AAs?$AAr?$AAc?$AA?2@ 100ec650     libvcruntimed:std_exception.obj
 0002:00023738       __load_config_used         100ec738     LIBCMTD:loadcfg.obj
 0002:00023ec4       ??_R4type_info@@6B@        100ecec4     LIBCMTD:std_type_info_static.obj
 0002:00023edc       ??_R3type_info@@8          100ecedc     LIBCMTD:std_type_info_static.obj
 0002:00023ef0       ??_R2type_info@@8          100ecef0     LIBCMTD:std_type_info_static.obj
 0002:00023ef8       ??_R1A@?0A@EA@type_info@@8 100ecef8     LIBCMTD:std_type_info_static.obj
 0002:00023f1c       ??_R4DNameNode@@6B@        100ecf1c     libvcruntimed:undname.obj
 0002:00023f34       ??_R3DNameNode@@8          100ecf34     libvcruntimed:undname.obj
 0002:00023f48       ??_R2DNameNode@@8          100ecf48     libvcruntimed:undname.obj
 0002:00023f50       ??_R1A@?0A@EA@DNameNode@@8 100ecf50     libvcruntimed:undname.obj
 0002:00023f74       ??_R4charNode@@6B@         100ecf74     libvcruntimed:undname.obj
 0002:00023f8c       ??_R3charNode@@8           100ecf8c     libvcruntimed:undname.obj
 0002:00023fa0       ??_R2charNode@@8           100ecfa0     libvcruntimed:undname.obj
 0002:00023fac       ??_R1A@?0A@EA@charNode@@8  100ecfac     libvcruntimed:undname.obj
 0002:00023fd0       ??_R4pcharNode@@6B@        100ecfd0     libvcruntimed:undname.obj
 0002:00023fe8       ??_R3pcharNode@@8          100ecfe8     libvcruntimed:undname.obj
 0002:00023ffc       ??_R2pcharNode@@8          100ecffc     libvcruntimed:undname.obj
 0002:00024008       ??_R1A@?0A@EA@pcharNode@@8 100ed008     libvcruntimed:undname.obj
 0002:0002402c       ??_R4pDNameNode@@6B@       100ed02c     libvcruntimed:undname.obj
 0002:00024044       ??_R3pDNameNode@@8         100ed044     libvcruntimed:undname.obj
 0002:00024058       ??_R2pDNameNode@@8         100ed058     libvcruntimed:undname.obj
 0002:00024064       ??_R1A@?0A@EA@pDNameNode@@8 100ed064     libvcruntimed:undname.obj
 0002:00024088       ??_R4DNameStatusNode@@6B@  100ed088     libvcruntimed:undname.obj
 0002:000240a0       ??_R3DNameStatusNode@@8    100ed0a0     libvcruntimed:undname.obj
 0002:000240b4       ??_R2DNameStatusNode@@8    100ed0b4     libvcruntimed:undname.obj
 0002:000240c0       ??_R1A@?0A@EA@DNameStatusNode@@8 100ed0c0     libvcruntimed:undname.obj
 0002:000240e4       ??_R4pairNode@@6B@         100ed0e4     libvcruntimed:undname.obj
 0002:000240fc       ??_R3pairNode@@8           100ed0fc     libvcruntimed:undname.obj
 0002:00024110       ??_R2pairNode@@8           100ed110     libvcruntimed:undname.obj
 0002:0002411c       ??_R1A@?0A@EA@pairNode@@8  100ed11c     libvcruntimed:undname.obj
 0002:00024140       ??_R4exception@std@@6B@    100ed140     libvcruntimed:frame.obj
 0002:00024158       ??_R3exception@std@@8      100ed158     libvcruntimed:frame.obj
 0002:0002416c       ??_R2exception@std@@8      100ed16c     libvcruntimed:frame.obj
 0002:00024174       ??_R1A@?0A@EA@exception@std@@8 100ed174     libvcruntimed:frame.obj
 0002:00024198       ??_R4bad_exception@std@@6B@ 100ed198     libvcruntimed:frame.obj
 0002:000241b0       ??_R3bad_exception@std@@8  100ed1b0     libvcruntimed:frame.obj
 0002:000241c4       ??_R2bad_exception@std@@8  100ed1c4     libvcruntimed:frame.obj
 0002:000241d0       ??_R1A@?0A@EA@bad_exception@std@@8 100ed1d0     libvcruntimed:frame.obj
 0002:00024310       ___safe_se_handler_table   100ed310     <linker-defined>
 0002:000245e0       ___rtc_iaa                 100ed5e0     LIBCMTD:_initsect_.obj
 0002:00024820       ___rtc_izz                 100ed820     LIBCMTD:_initsect_.obj
 0002:00024924       ___rtc_taa                 100ed924     LIBCMTD:_initsect_.obj
 0002:00024b64       ___rtc_tzz                 100edb64     LIBCMTD:_initsect_.obj
 0002:000257c8       __TI2?AVbad_exception@std@@ 100ee7c8     libvcruntimed:frame.obj
 0002:000257dc       __CTA2?AVbad_exception@std@@ 100ee7dc     libvcruntimed:frame.obj
 0002:000257ec       __CT??_R0?AVbad_exception@std@@@8??0bad_exception@std@@QAE@ABV01@@Z12 100ee7ec     libvcruntimed:frame.obj
 0002:0002580c       __CT??_R0?AVexception@std@@@8??0exception@std@@QAE@ABV01@@Z12 100ee80c     libvcruntimed:frame.obj
 0003:0000003c       __fltused                  100f003c     LIBCMTD:fltused.obj
 0003:00000040       ___scrt_native_dllmain_reason 100f0040     LIBCMTD:utility.obj
 0003:00000044       ___security_cookie_complement 100f0044     LIBCMTD:gs_cookie.obj
 0003:00000048       ___security_cookie         100f0048     LIBCMTD:gs_cookie.obj
 0003:00000050       ?_RTC_ErrorLevels@@3PAHA   100f0050     LIBCMTD:_error_.obj
 0003:00000068       ___isa_enabled             100f0068     LIBCMTD:_cpu_disp_.obj
 0003:00000080       __NLG_Destination          100f0080     libvcruntimed:_exsup_.obj
 0003:000000a4       __crtDbgFlag               100f00a4     libucrtd:debug_heap.obj
 0003:000000a8       __crtBreakAlloc            100f00a8     libucrtd:debug_heap.obj
 0003:000000ac       ___abort_behavior          100f00ac     libucrtd:abort.obj
 0003:000000c0       __CrtDbgMode               100f00c0     libucrtd:dbgrptt.obj
 0003:000000d0       __CrtDbgFile               100f00d0     libucrtd:dbgrptt.obj
 0003:000000e0       __crtAssertBusy            100f00e0     libucrtd:dbgrptt.obj
 0003:000000f4       __pfnAllocHook             100f00f4     libucrtd:debug_heap_hook.obj
 0003:000000fc       ___mb_cur_max              100f00fc     libucrtd:nlsdata.obj
 0003:00000100       ___acrt_initial_locale_data 100f0100     libucrtd:nlsdata.obj
 0003:000001dc       ___acrt_initial_locale_pointers 100f01dc     libucrtd:nlsdata.obj
 0003:000001e8       ___acrt_wide_c_locale_string 100f01e8     libucrtd:nlsdata.obj
 0003:00000310       __mbctype                  100f0310     libucrtd:mbctype.obj
 0003:00000448       __mbcasemap                100f0448     libucrtd:mbctype.obj
 0003:00000580       ___acrt_initial_multibyte_data 100f0580     libucrtd:mbctype.obj
 0003:0000080c       ___acrt_current_multibyte_data 100f080c     libucrtd:mbctype.obj
 0003:00000810       ___badioinfo               100f0810     libucrtd:ioinit.obj
 0003:00000850       __iob                      100f0850     libucrtd:_file.obj
 0003:0000091c       ___globallocalestatus      100f091c     libucrtd:glstatus.obj
 0003:00000920       __pctype                   100f0920     libucrtd:ctype.obj
 0003:00000924       __pwctype                  100f0924     libucrtd:ctype.obj
 0003:00000928       ___acrt_lconv_static_decimal 100f0928     libucrtd:localeconv.obj
 0003:0000092c       ___acrt_lconv_static_W_decimal 100f092c     libucrtd:localeconv.obj
 0003:00000930       ___acrt_lconv_c            100f0930     libucrtd:localeconv.obj
 0003:00000990       ___acrt_lconv              100f0990     libucrtd:localeconv.obj
 0003:000009a0       ___dcrt_lowio_console_output_handle 100f09a0     libucrtd:initcon.obj
 0003:00000ae0       ??_R0?AVMutexImpl@shdfnd@physx@@@8 100f0ae0     CctCharacterControllerManager.obj
 0003:00000b0c       ??_R0?AVCharacterControllerManager@Cct@physx@@@8 100f0b0c     CctCharacterControllerManager.obj
 0003:00000b4c       ??_R0?AVObstacleContext@Cct@physx@@@8 100f0b4c     CctCharacterControllerManager.obj
 0003:00000b7c       ??_R0?AVCapsuleController@Cct@physx@@@8 100f0b7c     CctCharacterControllerManager.obj
 0003:00000bb0       ??_R0?AVBoxController@Cct@physx@@@8 100f0bb0     CctCharacterControllerManager.obj
 0003:00000be0       ??_R0?AVRenderBuffer@Cm@physx@@@8 100f0be0     CctCharacterControllerManager.obj
 0003:00000c0c       ??_R0?AVtype_info@@@8      100f0c0c     LIBCMTD:std_type_info_static.obj
 0003:00000c28       ??_R0?AVDNameNode@@@8      100f0c28     libvcruntimed:undname.obj
 0003:00000c44       ??_R0?AVcharNode@@@8       100f0c44     libvcruntimed:undname.obj
 0003:00000c60       ??_R0?AVpcharNode@@@8      100f0c60     libvcruntimed:undname.obj
 0003:00000c7c       ??_R0?AVpDNameNode@@@8     100f0c7c     libvcruntimed:undname.obj
 0003:00000c9c       ??_R0?AVDNameStatusNode@@@8 100f0c9c     libvcruntimed:undname.obj
 0003:00000cc0       ??_R0?AVpairNode@@@8       100f0cc0     libvcruntimed:undname.obj
 0003:00000cdc       ??_R0?AVbad_exception@std@@@8 100f0cdc     libvcruntimed:frame.obj
 0003:00000d04       ??_R0?AVexception@std@@@8  100f0d04     libvcruntimed:frame.obj
 0003:00000d28       ??_R0?AVbad_alloc@std@@@8  100f0d28     libvcruntimed:frame.obj
 0003:00000e63       ?_ignore@?2???0PxTransform@physx@@QAE@ABVPxVec3@2@ABVPxQuat@2@@Z@4_NA 100f0e63     CctCharacterController.obj
 0003:00000e64       ?_ignore@?2???DPxTransform@physx@@QBE?AV12@ABV12@@Z@4_NA 100f0e64     CctCharacterController.obj
 0003:00000e65       ?_ignore@?2??transform@PxTransform@physx@@QBE?AVPxVec3@3@ABV43@@Z@4_NA 100f0e65     CctCharacterController.obj
 0003:00000e66       ?_ignore@?2??transformInv@PxTransform@physx@@QBE?AVPxVec3@3@ABV43@@Z@4_NA 100f0e66     CctCharacterController.obj
 0003:00000e67       ?_ignore@?2??transform@PxTransform@physx@@QBE?AV23@ABV23@@Z@4_NA 100f0e67     CctCharacterController.obj
 0003:00000e68       ?_ignore@?3??transform@PxTransform@physx@@QBE?AV23@ABV23@@Z@4_NA 100f0e68     CctCharacterController.obj
 0003:00000e69       ?_ignore@?2??getCenter@PxBounds3@physx@@QBE?AVPxVec3@3@XZ@4_NA 100f0e69     CctCharacterController.obj
 0003:00000e6a       ?_ignore@?2??getDimensions@PxBounds3@physx@@QBE?AVPxVec3@3@XZ@4_NA 100f0e6a     CctCharacterController.obj
 0003:00000e6b       ?_ignore@?2??getExtents@PxBounds3@physx@@QBE?AVPxVec3@3@XZ@4_NA 100f0e6b     CctCharacterController.obj
 0003:00000e6c       ?_ignore@?2??encodeUserObject@Cct@physx@@YAIIW4UserObjectType@23@@Z@4_NA 100f0e6c     CctCharacterController.obj
 0003:00000e6d       ?_ignore@?3??encodeUserObject@Cct@physx@@YAIIW4UserObjectType@23@@Z@4_NA 100f0e6d     CctCharacterController.obj
 0003:00000e96       ?_ignore@?4??postFilter@ControllerFilter@@UAE?AW4Enum@PxQueryHitType@physx@@ABUPxFilterData@5@ABUPxQueryHit@5@@Z@4_NA 100f0e96     CctCharacterController.obj
 0003:00000ea3       ?_ignore@?2???A?$Array@UInternalCapsuleObstacle@ObstacleContext@Cct@physx@@VNamedAllocator@shdfnd@4@@shdfnd@physx@@QBEABUInternalCapsuleObstacle@ObstacleContext@Cct@3@I@Z@4_NA 100f0ea3     CctCharacterController.obj
 0003:00000ea4       ?_ignore@?2???A?$Array@UInternalBoxObstacle@ObstacleContext@Cct@physx@@VNamedAllocator@shdfnd@4@@shdfnd@physx@@QBEABUInternalBoxObstacle@ObstacleContext@Cct@3@I@Z@4_NA 100f0ea4     CctCharacterController.obj
 0003:00000ea5       ?_ignore@?2??forceSize_Unsafe@?$Array@VPxTriangle@physx@@VNamedAllocator@shdfnd@2@@shdfnd@physx@@QAEXI@Z@4_NA 100f0ea5     CctCharacterController.obj
 0003:00000ea6       ?_ignore@?2???A?$Array@VPxTriangle@physx@@VNamedAllocator@shdfnd@2@@shdfnd@physx@@QBEABVPxTriangle@3@I@Z@4_NA 100f0ea6     CctCharacterController.obj
 0003:00000ea7       ?_ignore@?2??forceSize_Unsafe@?$Array@IVNamedAllocator@shdfnd@physx@@@shdfnd@physx@@QAEXI@Z@4_NA 100f0ea7     CctCharacterController.obj
 0003:00000ea8       ?_ignore@?2???A?$Array@IVNamedAllocator@shdfnd@physx@@@shdfnd@physx@@QAEAAII@Z@4_NA 100f0ea8     CctCharacterController.obj
 0003:00000ea9       ?_ignore@?2???A?$Array@IVNamedAllocator@shdfnd@physx@@@shdfnd@physx@@QBEABII@Z@4_NA 100f0ea9     CctCharacterController.obj
 0003:00000eaa       ?_ignore@?2??getAnyHit@?$PxHitBuffer@UPxRaycastHit@physx@@@physx@@QBEABUPxRaycastHit@3@I@Z@4_NA 100f0eaa     CctCharacterController.obj
 0003:00000eab       ?_ignore@?2??growAndPushBack@?$Array@PBXVNamedAllocator@shdfnd@physx@@@shdfnd@physx@@IAEAAPBXABQBX@Z@4_NA 100f0eab     CctCharacterController.obj
 0003:00000eac       ?_ignore@?2??growAndPushBack@?$Array@VPxExtendedBox@physx@@VNamedAllocator@shdfnd@2@@shdfnd@physx@@IAEAAVPxExtendedBox@4@ABV54@@Z@4_NA 100f0eac     CctCharacterController.obj
 0003:00000ead       ?_ignore@?2??growAndPushBack@?$Array@UPxExtendedCapsule@physx@@VNamedAllocator@shdfnd@2@@shdfnd@physx@@IAEAAUPxExtendedCapsule@4@ABU54@@Z@4_NA 100f0ead     CctCharacterController.obj
 0003:00000eae       ?_ignore@?2??grow@?$Array@IVNamedAllocator@shdfnd@physx@@@shdfnd@physx@@IAEXI@Z@4_NA 100f0eae     CctCharacterController.obj
 0003:00000eaf       ?_ignore@?2??recreate@?$Array@IVNamedAllocator@shdfnd@physx@@@shdfnd@physx@@IAEXI@Z@4_NA 100f0eaf     CctCharacterController.obj
 0003:00000eb0       ?_ignore@?2???APxVec3@physx@@QBEABMI@Z@4_NA 100f0eb0     CctCharacterControllerCallbacks.obj
 0003:00000eb1       ?_ignore@?2??rotate@PxTransform@physx@@QBE?AVPxVec3@3@ABV43@@Z@4_NA 100f0eb1     CctCharacterControllerCallbacks.obj
 0003:00000f43       ?_ignore@?2??getAnyHit@?$PxHitBuffer@UPxOverlapHit@physx@@@physx@@QBEABUPxOverlapHit@3@I@Z@4_NA 100f0f43     CctCharacterControllerCallbacks.obj
 0003:00000f44       ?_ignore@?2??grow@?$Array@VPxTriangle@physx@@VNamedAllocator@shdfnd@2@@shdfnd@physx@@IAEXI@Z@4_NA 100f0f44     CctCharacterControllerCallbacks.obj
 0003:00000f45       ?_ignore@?2??growAndPushBack@?$Array@IVNamedAllocator@shdfnd@physx@@@shdfnd@physx@@IAEAAIABI@Z@4_NA 100f0f45     CctCharacterControllerCallbacks.obj
 0003:00000f46       ?_ignore@?2??recreate@?$Array@VPxTriangle@physx@@VNamedAllocator@shdfnd@2@@shdfnd@physx@@IAEXI@Z@4_NA 100f0f46     CctCharacterControllerCallbacks.obj
 0003:00000f57       ?_ignore@?2???A?$Array@PAVObstacleContext@Cct@physx@@VNamedAllocator@shdfnd@3@@shdfnd@physx@@QAEAAPAVObstacleContext@Cct@3@I@Z@4_NA 100f0f57     CctCharacterControllerManager.obj
 0003:00000f58       ?_ignore@?2??replaceWithLast@?$Array@PAVController@Cct@physx@@VNamedAllocator@shdfnd@3@@shdfnd@physx@@QAEXI@Z@4_NA 100f0f58     CctCharacterControllerManager.obj
 0003:00000f59       ?_ignore@?2???A?$Array@PAVController@Cct@physx@@VNamedAllocator@shdfnd@3@@shdfnd@physx@@QAEAAPAVController@Cct@3@I@Z@4_NA 100f0f59     CctCharacterControllerManager.obj
 0003:00000f5a       ?_ignore@?2???A?$Array@PAVController@Cct@physx@@VNamedAllocator@shdfnd@3@@shdfnd@physx@@QBEABQAVController@Cct@3@I@Z@4_NA 100f0f5a     CctCharacterControllerManager.obj
 0003:00000f5b       ?_ignore@?2???A?$Array@UPxDebugText@physx@@VNamedAllocator@shdfnd@2@@shdfnd@physx@@QAEAAUPxDebugText@3@I@Z@4_NA 100f0f5b     CctCharacterControllerManager.obj
 0003:00000f5c       ?_ignore@?2???A?$Array@UPxDebugTriangle@physx@@VNamedAllocator@shdfnd@2@@shdfnd@physx@@QAEAAUPxDebugTriangle@3@I@Z@4_NA 100f0f5c     CctCharacterControllerManager.obj
 0003:00000f5d       ?_ignore@?2???A?$Array@UPxDebugLine@physx@@VNamedAllocator@shdfnd@2@@shdfnd@physx@@QAEAAUPxDebugLine@3@I@Z@4_NA 100f0f5d     CctCharacterControllerManager.obj
 0003:00000f5e       ?_ignore@?2???A?$Array@UPxDebugPoint@physx@@VNamedAllocator@shdfnd@2@@shdfnd@physx@@QAEAAUPxDebugPoint@3@I@Z@4_NA 100f0f5e     CctCharacterControllerManager.obj
 0003:00000f5f       ?_ignore@?2??replaceWithLast@?$Array@PAVObstacleContext@Cct@physx@@VNamedAllocator@shdfnd@3@@shdfnd@physx@@QAEXI@Z@4_NA 100f0f5f     CctCharacterControllerManager.obj
 0003:00000f60       ?_ignore@?2??grow@?$HashBase@V?$Pair@QBVPxBase@physx@@UObservedRefCounter@Cct@2@@shdfnd@physx@@PBVPxBase@3@U?$Hash@PBVPxBase@physx@@@23@UGetKey@?$HashMapBase@PBVPxBase@physx@@UObservedRefCounter@Cct@2@U?$Hash@PBVPxBase@physx@@@shdfnd@2@VNonTrackingAllocator@62@@internal@23@VNonTrackingAllocator@23@$00@internal@shdfnd@physx@@AAEXXZ@4_NA 100f0f60     CctCharacterControllerManager.obj
 0003:00000f61       ?_ignore@?2??freeListGetNext@?$HashBase@V?$Pair@QBVPxBase@physx@@UObservedRefCounter@Cct@2@@shdfnd@physx@@PBVPxBase@3@U?$Hash@PBVPxBase@physx@@@23@UGetKey@?$HashMapBase@PBVPxBase@physx@@UObservedRefCounter@Cct@2@U?$Hash@PBVPxBase@physx@@@shdfnd@2@VNonTrackingAllocator@62@@internal@23@VNonTrackingAllocator@23@$00@internal@shdfnd@physx@@AAEIXZ@4_NA 100f0f61     CctCharacterControllerManager.obj
 0003:00000f62       ?_ignore@?6??freeListGetNext@?$HashBase@V?$Pair@QBVPxBase@physx@@UObservedRefCounter@Cct@2@@shdfnd@physx@@PBVPxBase@3@U?$Hash@PBVPxBase@physx@@@23@UGetKey@?$HashMapBase@PBVPxBase@physx@@UObservedRefCounter@Cct@2@U?$Hash@PBVPxBase@physx@@@shdfnd@2@VNonTrackingAllocator@62@@internal@23@VNonTrackingAllocator@23@$00@internal@shdfnd@physx@@AAEIXZ@4_NA 100f0f62     CctCharacterControllerManager.obj
 0003:00000f63       ?_ignore@?2??grow@?$HashBase@PAVPxShape@physx@@PAV12@U?$Hash@PAVPxShape@physx@@@shdfnd@2@UGetKey@?$HashSetBase@PAVPxShape@physx@@U?$Hash@PAVPxShape@physx@@@shdfnd@2@VNonTrackingAllocator@42@$0A@@internal@42@VNonTrackingAllocator@42@$0A@@internal@shdfnd@physx@@AAEXXZ@4_NA 100f0f63     CctCharacterControllerManager.obj
 0003:00000f64       ?_ignore@?2??freeListGetNext@?$HashBase@PAVPxShape@physx@@PAV12@U?$Hash@PAVPxShape@physx@@@shdfnd@2@UGetKey@?$HashSetBase@PAVPxShape@physx@@U?$Hash@PAVPxShape@physx@@@shdfnd@2@VNonTrackingAllocator@42@$0A@@internal@42@VNonTrackingAllocator@42@$0A@@internal@shdfnd@physx@@AAEIXZ@4_NA 100f0f64     CctCharacterControllerManager.obj
 0003:00000f65       ?_ignore@?6??freeListGetNext@?$HashBase@PAVPxShape@physx@@PAV12@U?$Hash@PAVPxShape@physx@@@shdfnd@2@UGetKey@?$HashSetBase@PAVPxShape@physx@@U?$Hash@PAVPxShape@physx@@@shdfnd@2@VNonTrackingAllocator@42@$0A@@internal@42@VNonTrackingAllocator@42@$0A@@internal@shdfnd@physx@@AAEIXZ@4_NA 100f0f65     CctCharacterControllerManager.obj
 0003:00000f66       ?_ignore@?3??replaceWithLast@?$HashBase@V?$Pair@QBVPxBase@physx@@UObservedRefCounter@Cct@2@@shdfnd@physx@@PBVPxBase@3@U?$Hash@PBVPxBase@physx@@@23@UGetKey@?$HashMapBase@PBVPxBase@physx@@UObservedRefCounter@Cct@2@U?$Hash@PBVPxBase@physx@@@shdfnd@2@VNonTrackingAllocator@62@@internal@23@VNonTrackingAllocator@23@$00@internal@shdfnd@physx@@AAEXI@Z@4_NA 100f0f66     CctCharacterControllerManager.obj
 0003:00000f67       ?_ignore@?5??freeListAdd@?$HashBase@V?$Pair@QBVPxBase@physx@@UObservedRefCounter@Cct@2@@shdfnd@physx@@PBVPxBase@3@U?$Hash@PBVPxBase@physx@@@23@UGetKey@?$HashMapBase@PBVPxBase@physx@@UObservedRefCounter@Cct@2@U?$Hash@PBVPxBase@physx@@@shdfnd@2@VNonTrackingAllocator@62@@internal@23@VNonTrackingAllocator@23@$00@internal@shdfnd@physx@@AAEXI@Z@4_NA 100f0f67     CctCharacterControllerManager.obj
 0003:00000f68       ?_ignore@?3??replaceWithLast@?$HashBase@PAVPxShape@physx@@PAV12@U?$Hash@PAVPxShape@physx@@@shdfnd@2@UGetKey@?$HashSetBase@PAVPxShape@physx@@U?$Hash@PAVPxShape@physx@@@shdfnd@2@VNonTrackingAllocator@42@$0A@@internal@42@VNonTrackingAllocator@42@$0A@@internal@shdfnd@physx@@AAEXI@Z@4_NA 100f0f68     CctCharacterControllerManager.obj
 0003:00000f69       ?_ignore@?5??freeListAdd@?$HashBase@PAVPxShape@physx@@PAV12@U?$Hash@PAVPxShape@physx@@@shdfnd@2@UGetKey@?$HashSetBase@PAVPxShape@physx@@U?$Hash@PAVPxShape@physx@@@shdfnd@2@VNonTrackingAllocator@42@$0A@@internal@42@VNonTrackingAllocator@42@$0A@@internal@shdfnd@physx@@AAEXI@Z@4_NA 100f0f69     CctCharacterControllerManager.obj
 0003:00000f6a       ?_ignore@?4??reserveInternal@?$HashBase@V?$Pair@QBVPxBase@physx@@UObservedRefCounter@Cct@2@@shdfnd@physx@@PBVPxBase@3@U?$Hash@PBVPxBase@physx@@@23@UGetKey@?$HashMapBase@PBVPxBase@physx@@UObservedRefCounter@Cct@2@U?$Hash@PBVPxBase@physx@@@shdfnd@2@VNonTrackingAllocator@62@@internal@23@VNonTrackingAllocator@23@$00@internal@shdfnd@physx@@AAEXI@Z@4_NA 100f0f6a     CctCharacterControllerManager.obj
 0003:00000f6b       ?_ignore@?6??reserveInternal@?$HashBase@V?$Pair@QBVPxBase@physx@@UObservedRefCounter@Cct@2@@shdfnd@physx@@PBVPxBase@3@U?$Hash@PBVPxBase@physx@@@23@UGetKey@?$HashMapBase@PBVPxBase@physx@@UObservedRefCounter@Cct@2@U?$Hash@PBVPxBase@physx@@@shdfnd@2@VNonTrackingAllocator@62@@internal@23@VNonTrackingAllocator@23@$00@internal@shdfnd@physx@@AAEXI@Z@4_NA 100f0f6b     CctCharacterControllerManager.obj
 0003:00000f6c       ?_ignore@?BE@??reserveInternal@?$HashBase@V?$Pair@QBVPxBase@physx@@UObservedRefCounter@Cct@2@@shdfnd@physx@@PBVPxBase@3@U?$Hash@PBVPxBase@physx@@@23@UGetKey@?$HashMapBase@PBVPxBase@physx@@UObservedRefCounter@Cct@2@U?$Hash@PBVPxBase@physx@@@shdfnd@2@VNonTrackingAllocator@62@@internal@23@VNonTrackingAllocator@23@$00@internal@shdfnd@physx@@AAEXI@Z@4_NA 100f0f6c     CctCharacterControllerManager.obj
 0003:00000f6d       ?_ignore@?4??reserveInternal@?$HashBase@PAVPxShape@physx@@PAV12@U?$Hash@PAVPxShape@physx@@@shdfnd@2@UGetKey@?$HashSetBase@PAVPxShape@physx@@U?$Hash@PAVPxShape@physx@@@shdfnd@2@VNonTrackingAllocator@42@$0A@@internal@42@VNonTrackingAllocator@42@$0A@@internal@shdfnd@physx@@AAEXI@Z@4_NA 100f0f6d     CctCharacterControllerManager.obj
 0003:00000f6e       ?_ignore@?6??reserveInternal@?$HashBase@PAVPxShape@physx@@PAV12@U?$Hash@PAVPxShape@physx@@@shdfnd@2@UGetKey@?$HashSetBase@PAVPxShape@physx@@U?$Hash@PAVPxShape@physx@@@shdfnd@2@VNonTrackingAllocator@42@$0A@@internal@42@VNonTrackingAllocator@42@$0A@@internal@shdfnd@physx@@AAEXI@Z@4_NA 100f0f6e     CctCharacterControllerManager.obj
 0003:00000f6f       ?_ignore@?L@??reserveInternal@?$HashBase@PAVPxShape@physx@@PAV12@U?$Hash@PAVPxShape@physx@@@shdfnd@2@UGetKey@?$HashSetBase@PAVPxShape@physx@@U?$Hash@PAVPxShape@physx@@@shdfnd@2@VNonTrackingAllocator@42@$0A@@internal@42@VNonTrackingAllocator@42@$0A@@internal@shdfnd@physx@@AAEXI@Z@4_NA 100f0f6f     CctCharacterControllerManager.obj
 0003:00000f70       ?_ignore@?BE@??reserveInternal@?$HashBase@PAVPxShape@physx@@PAV12@U?$Hash@PAVPxShape@physx@@@shdfnd@2@UGetKey@?$HashSetBase@PAVPxShape@physx@@U?$Hash@PAVPxShape@physx@@@shdfnd@2@VNonTrackingAllocator@42@$0A@@internal@42@VNonTrackingAllocator@42@$0A@@internal@shdfnd@physx@@AAEXI@Z@4_NA 100f0f70     CctCharacterControllerManager.obj
 0003:00000f71       ?_ignore@?6??freeListAdd@?$HashBase@V?$Pair@QBVPxBase@physx@@UObservedRefCounter@Cct@2@@shdfnd@physx@@PBVPxBase@3@U?$Hash@PBVPxBase@physx@@@23@UGetKey@?$HashMapBase@PBVPxBase@physx@@UObservedRefCounter@Cct@2@U?$Hash@PBVPxBase@physx@@@shdfnd@2@VNonTrackingAllocator@62@@internal@23@VNonTrackingAllocator@23@$00@internal@shdfnd@physx@@AAEXII@Z@4_NA 100f0f71     CctCharacterControllerManager.obj
 0003:00000f72       ?_ignore@?6??freeListAdd@?$HashBase@PAVPxShape@physx@@PAV12@U?$Hash@PAVPxShape@physx@@@shdfnd@2@UGetKey@?$HashSetBase@PAVPxShape@physx@@U?$Hash@PAVPxShape@physx@@@shdfnd@2@VNonTrackingAllocator@42@$0A@@internal@42@VNonTrackingAllocator@42@$0A@@internal@shdfnd@physx@@AAEXII@Z@4_NA 100f0f72     CctCharacterControllerManager.obj
 0003:00000f73       ?_ignore@?2??growAndPushBack@?$Array@PAVController@Cct@physx@@VNamedAllocator@shdfnd@3@@shdfnd@physx@@IAEAAPAVController@Cct@4@ABQAV564@@Z@4_NA 100f0f73     CctCharacterControllerManager.obj
 0003:00000f74       ?_ignore@?2??growAndPushBack@?$Array@PAVObstacleContext@Cct@physx@@VNamedAllocator@shdfnd@3@@shdfnd@physx@@IAEAAPAVObstacleContext@Cct@4@ABQAV564@@Z@4_NA 100f0f74     CctCharacterControllerManager.obj
 0003:00000f75       ?_ignore@?2??grow@?$Array@UPxDebugText@physx@@VNamedAllocator@shdfnd@2@@shdfnd@physx@@IAEXI@Z@4_NA 100f0f75     CctCharacterControllerManager.obj
 0003:00000f76       ?_ignore@?2??grow@?$Array@UPxDebugTriangle@physx@@VNamedAllocator@shdfnd@2@@shdfnd@physx@@IAEXI@Z@4_NA 100f0f76     CctCharacterControllerManager.obj
 0003:00000f77       ?_ignore@?2??grow@?$Array@UPxDebugLine@physx@@VNamedAllocator@shdfnd@2@@shdfnd@physx@@IAEXI@Z@4_NA 100f0f77     CctCharacterControllerManager.obj
 0003:00000f78       ?_ignore@?2??grow@?$Array@UPxDebugPoint@physx@@VNamedAllocator@shdfnd@2@@shdfnd@physx@@IAEXI@Z@4_NA 100f0f78     CctCharacterControllerManager.obj
 0003:00000f79       ?_ignore@?2??growAndPushBack@?$Array@UPxDebugPoint@physx@@VNamedAllocator@shdfnd@2@@shdfnd@physx@@IAEAAUPxDebugPoint@4@ABU54@@Z@4_NA 100f0f79     CctCharacterControllerManager.obj
 0003:00000f7a       ?_ignore@?2??recreate@?$Array@UPxDebugPoint@physx@@VNamedAllocator@shdfnd@2@@shdfnd@physx@@IAEXI@Z@4_NA 100f0f7a     CctCharacterControllerManager.obj
 0003:00000f7b       ?_ignore@?2??growAndPushBack@?$Array@UPxDebugLine@physx@@VNamedAllocator@shdfnd@2@@shdfnd@physx@@IAEAAUPxDebugLine@4@ABU54@@Z@4_NA 100f0f7b     CctCharacterControllerManager.obj
 0003:00000f7c       ?_ignore@?2??recreate@?$Array@UPxDebugLine@physx@@VNamedAllocator@shdfnd@2@@shdfnd@physx@@IAEXI@Z@4_NA 100f0f7c     CctCharacterControllerManager.obj
 0003:00000f7d       ?_ignore@?2??growAndPushBack@?$Array@UPxDebugTriangle@physx@@VNamedAllocator@shdfnd@2@@shdfnd@physx@@IAEAAUPxDebugTriangle@4@ABU54@@Z@4_NA 100f0f7d     CctCharacterControllerManager.obj
 0003:00000f7e       ?_ignore@?2??recreate@?$Array@UPxDebugTriangle@physx@@VNamedAllocator@shdfnd@2@@shdfnd@physx@@IAEXI@Z@4_NA 100f0f7e     CctCharacterControllerManager.obj
 0003:00000f7f       ?_ignore@?2??growAndPushBack@?$Array@UPxDebugText@physx@@VNamedAllocator@shdfnd@2@@shdfnd@physx@@IAEAAUPxDebugText@4@ABU54@@Z@4_NA 100f0f7f     CctCharacterControllerManager.obj
 0003:00000f80       ?_ignore@?2??recreate@?$Array@UPxDebugText@physx@@VNamedAllocator@shdfnd@2@@shdfnd@physx@@IAEXI@Z@4_NA 100f0f80     CctCharacterControllerManager.obj
 0003:00000f81       ?_ignore@?2??recreate@?$Array@PBXVNamedAllocator@shdfnd@physx@@@shdfnd@physx@@IAEXI@Z@4_NA 100f0f81     CctCharacterControllerManager.obj
 0003:00000f82       ?_ignore@?2??recreate@?$Array@VPxExtendedBox@physx@@VNamedAllocator@shdfnd@2@@shdfnd@physx@@IAEXI@Z@4_NA 100f0f82     CctCharacterControllerManager.obj
 0003:00000f83       ?_ignore@?2??recreate@?$Array@UPxExtendedCapsule@physx@@VNamedAllocator@shdfnd@2@@shdfnd@physx@@IAEXI@Z@4_NA 100f0f83     CctCharacterControllerManager.obj
 0003:00000f84       ?_ignore@?2??grow@?$Array@UPxExtendedCapsule@physx@@VNamedAllocator@shdfnd@2@@shdfnd@physx@@IAEXI@Z@4_NA 100f0f84     CctCharacterControllerManager.obj
 0003:00000f85       ?_ignore@?2??grow@?$Array@VPxExtendedBox@physx@@VNamedAllocator@shdfnd@2@@shdfnd@physx@@IAEXI@Z@4_NA 100f0f85     CctCharacterControllerManager.obj
 0003:00000f86       ?_ignore@?2??grow@?$Array@PBXVNamedAllocator@shdfnd@physx@@@shdfnd@physx@@IAEXI@Z@4_NA 100f0f86     CctCharacterControllerManager.obj
 0003:00000f88       ?_ignore@?2??to16@shdfnd@physx@@YAGI@Z@4_NA 100f0f88     CctObstacleContext.obj
 0003:00000f96       ?_ignore@?2??replaceWithLast@?$Array@UInternalCapsuleObstacle@ObstacleContext@Cct@physx@@VNamedAllocator@shdfnd@4@@shdfnd@physx@@QAEXI@Z@4_NA 100f0f96     CctObstacleContext.obj
 0003:00000f97       ?_ignore@?2???A?$Array@UInternalCapsuleObstacle@ObstacleContext@Cct@physx@@VNamedAllocator@shdfnd@4@@shdfnd@physx@@QAEAAUInternalCapsuleObstacle@ObstacleContext@Cct@3@I@Z@4_NA 100f0f97     CctObstacleContext.obj
 0003:00000f98       ?_ignore@?2??replaceWithLast@?$Array@UInternalBoxObstacle@ObstacleContext@Cct@physx@@VNamedAllocator@shdfnd@4@@shdfnd@physx@@QAEXI@Z@4_NA 100f0f98     CctObstacleContext.obj
 0003:00000f99       ?_ignore@?2???A?$Array@UInternalBoxObstacle@ObstacleContext@Cct@physx@@VNamedAllocator@shdfnd@4@@shdfnd@physx@@QAEAAUInternalBoxObstacle@ObstacleContext@Cct@3@I@Z@4_NA 100f0f99     CctObstacleContext.obj
 0003:00000f9a       ?_ignore@?2??growAndPushBack@?$Array@UInternalBoxObstacle@ObstacleContext@Cct@physx@@VNamedAllocator@shdfnd@4@@shdfnd@physx@@IAEAAUInternalBoxObstacle@ObstacleContext@Cct@4@ABU5674@@Z@4_NA 100f0f9a     CctObstacleContext.obj
 0003:00000f9b       ?_ignore@?2??growAndPushBack@?$Array@UInternalCapsuleObstacle@ObstacleContext@Cct@physx@@VNamedAllocator@shdfnd@4@@shdfnd@physx@@IAEAAUInternalCapsuleObstacle@ObstacleContext@Cct@4@ABU5674@@Z@4_NA 100f0f9b     CctObstacleContext.obj
 0003:00000fa0       ?_ignore@?2???APxVec3@physx@@QAEAAMI@Z@4_NA 100f0fa0     PhysX3ExtensionsDEBUG:ExtRigidBodyExt.obj
 0003:00000fa1       ?_ignore@?2??getInverse@PxTransform@physx@@QBE?AV23@XZ@4_NA 100f0fa1     PhysX3ExtensionsDEBUG:ExtRigidBodyExt.obj
 0003:00000fa2       ?_ignore@?2??transformFast@PxBounds3@physx@@SA?AV23@ABVPxTransform@3@ABV23@@Z@4_NA 100f0fa2     PhysX3ExtensionsDEBUG:ExtRigidBodyExt.obj
 0003:00000fa3       ?_ignore@?9???0PxMassProperties@physx@@QAE@ABVPxGeometry@2@@Z@4_NA 100f0fa3     PhysX3ExtensionsDEBUG:ExtRigidBodyExt.obj
 0003:00000fa4       ?_ignore@?L@???0PxMassProperties@physx@@QAE@ABVPxGeometry@2@@Z@4_NA 100f0fa4     PhysX3ExtensionsDEBUG:ExtRigidBodyExt.obj
 0003:00000fa5       ?_ignore@?M@???0PxMassProperties@physx@@QAE@ABVPxGeometry@2@@Z@4_NA 100f0fa5     PhysX3ExtensionsDEBUG:ExtRigidBodyExt.obj
 0003:00000fa6       ?_ignore@?2??translateInertia@PxMassProperties@physx@@SA?AVPxMat33@3@ABV43@MABVPxVec3@3@@Z@4_NA 100f0fa6     PhysX3ExtensionsDEBUG:ExtRigidBodyExt.obj
 0003:00000fa7       ?_ignore@?3??translateInertia@PxMassProperties@physx@@SA?AVPxMat33@3@ABV43@MABVPxVec3@3@@Z@4_NA 100f0fa7     PhysX3ExtensionsDEBUG:ExtRigidBodyExt.obj
 0003:00000fa8       ?_ignore@?4??translateInertia@PxMassProperties@physx@@SA?AVPxMat33@3@ABV43@MABVPxVec3@3@@Z@4_NA 100f0fa8     PhysX3ExtensionsDEBUG:ExtRigidBodyExt.obj
 0003:00000fa9       ?_ignore@?5??translateInertia@PxMassProperties@physx@@SA?AVPxMat33@3@ABV43@MABVPxVec3@3@@Z@4_NA 100f0fa9     PhysX3ExtensionsDEBUG:ExtRigidBodyExt.obj
 0003:00000faa       ?_ignore@?2??rotateInertia@PxMassProperties@physx@@SA?AVPxMat33@3@ABV43@ABVPxQuat@3@@Z@4_NA 100f0faa     PhysX3ExtensionsDEBUG:ExtRigidBodyExt.obj
 0003:00000fab       ?_ignore@?3??rotateInertia@PxMassProperties@physx@@SA?AVPxMat33@3@ABV43@ABVPxQuat@3@@Z@4_NA 100f0fab     PhysX3ExtensionsDEBUG:ExtRigidBodyExt.obj
 0003:00000fac       ?_ignore@?4??rotateInertia@PxMassProperties@physx@@SA?AVPxMat33@3@ABV43@ABVPxQuat@3@@Z@4_NA 100f0fac     PhysX3ExtensionsDEBUG:ExtRigidBodyExt.obj
 0003:00000fad       ?_ignore@?2??scaleInertia@PxMassProperties@physx@@SA?AVPxMat33@3@ABV43@ABVPxQuat@3@ABVPxVec3@3@@Z@4_NA 100f0fad     PhysX3ExtensionsDEBUG:ExtRigidBodyExt.obj
 0003:00000fae       ?_ignore@?3??scaleInertia@PxMassProperties@physx@@SA?AVPxMat33@3@ABV43@ABVPxQuat@3@ABVPxVec3@3@@Z@4_NA 100f0fae     PhysX3ExtensionsDEBUG:ExtRigidBodyExt.obj
 0003:00000faf       ?_ignore@?4??scaleInertia@PxMassProperties@physx@@SA?AVPxMat33@3@ABV43@ABVPxQuat@3@ABVPxVec3@3@@Z@4_NA 100f0faf     PhysX3ExtensionsDEBUG:ExtRigidBodyExt.obj
 0003:00000fb0       ?_ignore@?5??scaleInertia@PxMassProperties@physx@@SA?AVPxMat33@3@ABV43@ABVPxQuat@3@ABVPxVec3@3@@Z@4_NA 100f0fb0     PhysX3ExtensionsDEBUG:ExtRigidBodyExt.obj
 0003:00000fb1       ?_ignore@?4??sum@PxMassProperties@physx@@SA?AV23@PBV23@PBVPxTransform@3@I@Z@4_NA 100f0fb1     PhysX3ExtensionsDEBUG:ExtRigidBodyExt.obj
 0003:00000fb2       ?_ignore@?5??sum@PxMassProperties@physx@@SA?AV23@PBV23@PBVPxTransform@3@I@Z@4_NA 100f0fb2     PhysX3ExtensionsDEBUG:ExtRigidBodyExt.obj
 0003:00000fb3       ?_ignore@?6??sum@PxMassProperties@physx@@SA?AV23@PBV23@PBVPxTransform@3@I@Z@4_NA 100f0fb3     PhysX3ExtensionsDEBUG:ExtRigidBodyExt.obj
 0003:00000fb4       ?_ignore@?9??sum@PxMassProperties@physx@@SA?AV23@PBV23@PBVPxTransform@3@I@Z@4_NA 100f0fb4     PhysX3ExtensionsDEBUG:ExtRigidBodyExt.obj
 0003:00000fb5       ?_ignore@?L@??sum@PxMassProperties@physx@@SA?AV23@PBV23@PBVPxTransform@3@I@Z@4_NA 100f0fb5     PhysX3ExtensionsDEBUG:ExtRigidBodyExt.obj
 0003:00000fb6       ?_ignore@?M@??sum@PxMassProperties@physx@@SA?AV23@PBV23@PBVPxTransform@3@I@Z@4_NA 100f0fb6     PhysX3ExtensionsDEBUG:ExtRigidBodyExt.obj
 0003:00000fbc       ?_ignore@?2??setDiagonal@InertiaTensorComputer@Ext@physx@@QAEXMABVPxVec3@4@@Z@4_NA 100f0fbc     PhysX3ExtensionsDEBUG:ExtRigidBodyExt.obj
 0003:00000fbd       ?_ignore@?3??setDiagonal@InertiaTensorComputer@Ext@physx@@QAEXMABVPxVec3@4@@Z@4_NA 100f0fbd     PhysX3ExtensionsDEBUG:ExtRigidBodyExt.obj
 0003:00000fbe       ?_ignore@?2??rotate@InertiaTensorComputer@Ext@physx@@QAEXABVPxMat33@4@@Z@4_NA 100f0fbe     PhysX3ExtensionsDEBUG:ExtRigidBodyExt.obj
 0003:00000fbf       ?_ignore@?3??rotate@InertiaTensorComputer@Ext@physx@@QAEXABVPxMat33@4@@Z@4_NA 100f0fbf     PhysX3ExtensionsDEBUG:ExtRigidBodyExt.obj
 0003:00000fc2       ?_ignore@?2??scaleDensity@InertiaTensorComputer@Ext@physx@@QAEXM@Z@4_NA 100f0fc2     PhysX3ExtensionsDEBUG:ExtRigidBodyExt.obj
 0003:00000fc3       ?_ignore@?3??scaleDensity@InertiaTensorComputer@Ext@physx@@QAEXM@Z@4_NA 100f0fc3     PhysX3ExtensionsDEBUG:ExtRigidBodyExt.obj
 0003:00000fc4       ?_ignore@?2??add@InertiaTensorComputer@Ext@physx@@QAEXABV234@@Z@4_NA 100f0fc4     PhysX3ExtensionsDEBUG:ExtRigidBodyExt.obj
 0003:00000fc5       ?_ignore@?3??add@InertiaTensorComputer@Ext@physx@@QAEXABV234@@Z@4_NA 100f0fc5     PhysX3ExtensionsDEBUG:ExtRigidBodyExt.obj
 0003:00000fc6       ?_ignore@?4??add@InertiaTensorComputer@Ext@physx@@QAEXABV234@@Z@4_NA 100f0fc6     PhysX3ExtensionsDEBUG:ExtRigidBodyExt.obj
 0003:00000fd6       ?_ignore@?2???A?$Array@PAVPxShape@physx@@V?$InlineAllocator@$0EA@VNamedAllocator@shdfnd@physx@@@shdfnd@2@@shdfnd@physx@@QAEAAPAVPxShape@3@I@Z@4_NA 100f0fd6     PhysX3ExtensionsDEBUG:ExtRigidBodyExt.obj
 0003:00000fd7       ?_ignore@?2??grow@?$Array@VPxTransform@physx@@V?$InlineAllocator@$0BMA@VNamedAllocator@shdfnd@physx@@@shdfnd@2@@shdfnd@physx@@IAEXI@Z@4_NA 100f0fd7     PhysX3ExtensionsDEBUG:ExtRigidBodyExt.obj
 0003:00000fd8       ?_ignore@?2??grow@?$Array@VPxMassProperties@physx@@V?$InlineAllocator@$0DEA@VNamedAllocator@shdfnd@physx@@@shdfnd@2@@shdfnd@physx@@IAEXI@Z@4_NA 100f0fd8     PhysX3ExtensionsDEBUG:ExtRigidBodyExt.obj
 0003:00000fd9       ?_ignore@?2??growAndPushBack@?$Array@VPxMassProperties@physx@@V?$InlineAllocator@$0DEA@VNamedAllocator@shdfnd@physx@@@shdfnd@2@@shdfnd@physx@@IAEAAVPxMassProperties@4@ABV54@@Z@4_NA 100f0fd9     PhysX3ExtensionsDEBUG:ExtRigidBodyExt.obj
 0003:00000fda       ?_ignore@?2??recreate@?$Array@VPxMassProperties@physx@@V?$InlineAllocator@$0DEA@VNamedAllocator@shdfnd@physx@@@shdfnd@2@@shdfnd@physx@@IAEXI@Z@4_NA 100f0fda     PhysX3ExtensionsDEBUG:ExtRigidBodyExt.obj
 0003:00000fdb       ?_ignore@?2??growAndPushBack@?$Array@VPxTransform@physx@@V?$InlineAllocator@$0BMA@VNamedAllocator@shdfnd@physx@@@shdfnd@2@@shdfnd@physx@@IAEAAVPxTransform@4@ABV54@@Z@4_NA 100f0fdb     PhysX3ExtensionsDEBUG:ExtRigidBodyExt.obj
 0003:00000fdc       ?_ignore@?2??recreate@?$Array@VPxTransform@physx@@V?$InlineAllocator@$0BMA@VNamedAllocator@shdfnd@physx@@@shdfnd@2@@shdfnd@physx@@IAEXI@Z@4_NA 100f0fdc     PhysX3ExtensionsDEBUG:ExtRigidBodyExt.obj
 0003:00000fdd       ?_ignore@?2??grow@?$Array@PAVPxShape@physx@@V?$InlineAllocator@$0EA@VNamedAllocator@shdfnd@physx@@@shdfnd@2@@shdfnd@physx@@IAEXI@Z@4_NA 100f0fdd     PhysX3ExtensionsDEBUG:ExtRigidBodyExt.obj
 0003:00000fde       ?_ignore@?2??recreate@?$Array@PAVPxShape@physx@@V?$InlineAllocator@$0EA@VNamedAllocator@shdfnd@physx@@@shdfnd@2@@shdfnd@physx@@IAEXI@Z@4_NA 100f0fde     PhysX3ExtensionsDEBUG:ExtRigidBodyExt.obj
 0003:00000fe0       ?__type_info_root_node@@3U__type_info_node@@A 100f0fe0     LIBCMTD:tncleanup.obj
 0003:00000ffc       ___scrt_current_native_startup_state 100f0ffc     LIBCMTD:utility.obj
 0003:00001000       ___scrt_native_startup_lock 100f1000     LIBCMTD:utility.obj
 0003:00001028       ?_OptionsStorage@?1??__local_stdio_printf_options@@9@4_KA 100f1028     LIBCMTD:default_local_stdio_options.obj
 0003:00001038       ?_OptionsStorage@?1??__local_stdio_scanf_options@@9@4_KA 100f1038     LIBCMTD:default_local_stdio_options.obj
 0003:00001044       ___scrt_debugger_hook_flag 100f1044     LIBCMTD:utility_desktop.obj
 0003:00001048       ___isa_available           100f1048     LIBCMTD:_cpu_disp_.obj
 0003:0000104c       ___favor                   100f104c     LIBCMTD:_cpu_disp_.obj
 0003:0000141c       ___pPurecall               100f141c     libvcruntimed:purevirt_data.obj
 0003:00001420       ?pArgList@UnDecorator@@0PAVReplicator@@A 100f1420     libvcruntimed:undname.obj
 0003:00001424       ?pZNameList@UnDecorator@@0PAVReplicator@@A 100f1424     libvcruntimed:undname.obj
 0003:00001428       ?pTemplateArgList@UnDecorator@@0PAVReplicator@@A 100f1428     libvcruntimed:undname.obj
 0003:0000142c       ?gName@UnDecorator@@0PBDB  100f142c     libvcruntimed:undname.obj
 0003:00001430       ?name@UnDecorator@@0PBDB   100f1430     libvcruntimed:undname.obj
 0003:00001434       ?outputString@UnDecorator@@0PADA 100f1434     libvcruntimed:undname.obj
 0003:00001438       ?maxStringLength@UnDecorator@@0HA 100f1438     libvcruntimed:undname.obj
 0003:0000143c       ?disableFlags@UnDecorator@@0KA 100f143c     libvcruntimed:undname.obj
 0003:00001440       ?fExplicitTemplateParams@UnDecorator@@0_NA 100f1440     libvcruntimed:undname.obj
 0003:00001441       ?fGetTemplateArgumentList@UnDecorator@@0_NA 100f1441     libvcruntimed:undname.obj
 0003:00001444       ?m_pGetParameter@UnDecorator@@0P6APADJ@ZA 100f1444     libvcruntimed:undname.obj
 0003:000014c8       ?nodes@?1??make@DNameStatusNode@@SAPAV2@W4DNameStatus@@@Z@4PAV2@A 100f14c8     libvcruntimed:undname.obj
 0003:00001504       ??_B?1??make@DNameStatusNode@@SAPAV1@W4DNameStatus@@@Z@51 100f1504     libvcruntimed:undname.obj
 0003:000015b8       __pfnDumpClient            100f15b8     libucrtd:debug_heap.obj
 0003:00001984       __environ_table            100f1984     libucrtd:environment_initialization.obj
 0003:00001988       __wenviron_table           100f1988     libucrtd:environment_initialization.obj
 0003:00001990       ___dcrt_initial_wide_environment 100f1990     libucrtd:environment_initialization.obj
 0003:00001994       ___dcrt_initial_narrow_environment 100f1994     libucrtd:environment_initialization.obj
 0003:00001998       ___acrt_atexit_table       100f1998     libucrtd:onexit.obj
 0003:000019a8       ___acrt_at_quick_exit_table 100f19a8     libucrtd:onexit.obj
 0003:000019b8       ___fastflag                100f19b8     libucrtd:fp_flags.obj
 0003:000019c0       __pReportHookListW         100f19c0     libucrtd:dbgrptt.obj
 0003:000019c4       __pfnReportHook            100f19c4     libucrtd:dbgrptt.obj
 0003:000019c8       __pReportHookList          100f19c8     libucrtd:dbgrptt.obj
 0003:00001b6c       ___acrt_locale_changed_data 100f1b6c     libucrtd:wsetlocale.obj
 0003:00001b70       ___acrt_current_locale_data 100f1b70     libucrtd:nlsdata.obj
 0003:00001b74       ___acrt_heap               100f1b74     libucrtd:heap_handle.obj
 0003:00001c7c       ___mbcodepage              100f1c7c     libucrtd:mbctype.obj
 0003:00001c80       ___ismbcodepage            100f1c80     libucrtd:mbctype.obj
 0003:00001c84       ___mbulinfo                100f1c84     libucrtd:mbctype.obj
 0003:00001c98       ___mblocalename            100f1c98     libucrtd:mbctype.obj
 0003:00001ca0       ___argc                    100f1ca0     libucrtd:argv_data.obj
 0003:00001ca4       ___argv                    100f1ca4     libucrtd:argv_data.obj
 0003:00001ca8       ___wargv                   100f1ca8     libucrtd:argv_data.obj
 0003:00001cac       __acmdln                   100f1cac     libucrtd:argv_data.obj
 0003:00001cb0       __wcmdln                   100f1cb0     libucrtd:argv_data.obj
 0003:00001cb4       __pgmptr                   100f1cb4     libucrtd:argv_data.obj
 0003:00001cb8       __wpgmptr                  100f1cb8     libucrtd:argv_data.obj
 0003:00001cc0       ___pioinfo                 100f1cc0     libucrtd:ioinit.obj
 0003:00001f28       __nhandle                  100f1f28     libucrtd:ioinit.obj
 0003:00001f2c       ___acrt_stdout_buffer      100f1f2c     libucrtd:_sftbuf.obj
 0003:00001f30       ___acrt_stderr_buffer      100f1f30     libucrtd:_sftbuf.obj
 0003:00001f34       __nstream                  100f1f34     libucrtd:_file.obj
 0003:00001f38       ___piob                    100f1f38     libucrtd:_file.obj
 0003:00001f40       __cflush                   100f1f40     libucrtd:_file.obj
 0003:000026b3       ___acrt_lconv_static_null  100f26b3     libucrtd:localeconv.obj
 0003:000026b4       ___acrt_lconv_static_W_null 100f26b4     libucrtd:localeconv.obj
 0003:000026c0       ?g_OutOfMemoryExceptionCallback@@3P6GPAXXZA 100f26c0     libvcruntimed:frame.obj
 0003:000026c4       ___scrt_ucrt_dll_is_in_use 100f26c4     <common>
 0003:000026d0       ___dyn_tls_init_callback   100f26d0     <common>
 0003:000026dc       __pmatherr                 100f26dc     <common>
 0003:000026e8       ___use_sse2_mathfcns       100f26e8     <common>
 0004:00000000       __imp__TerminateProcess@8  100f3000     kernel32:KERNEL32.dll
 0004:00000004       __imp__CreateFileW@28      100f3004     kernel32:KERNEL32.dll
 0004:00000008       __imp__DecodePointer@4     100f3008     kernel32:KERNEL32.dll
 0004:0000000c       __imp__EncodePointer@4     100f300c     kernel32:KERNEL32.dll
 0004:00000010       __imp__SetFilePointerEx@20 100f3010     kernel32:KERNEL32.dll
 0004:00000014       __imp__GetConsoleMode@8    100f3014     kernel32:KERNEL32.dll
 0004:00000018       __imp__GetConsoleCP@0      100f3018     kernel32:KERNEL32.dll
 0004:0000001c       __imp__FlushFileBuffers@4  100f301c     kernel32:KERNEL32.dll
 0004:00000020       __imp__SetStdHandle@8      100f3020     kernel32:KERNEL32.dll
 0004:00000024       __imp__GetStringTypeW@16   100f3024     kernel32:KERNEL32.dll
 0004:00000028       __imp__SetEnvironmentVariableW@8 100f3028     kernel32:KERNEL32.dll
 0004:0000002c       __imp__SetEnvironmentVariableA@8 100f302c     kernel32:KERNEL32.dll
 0004:00000030       __imp__FreeEnvironmentStringsW@4 100f3030     kernel32:KERNEL32.dll
 0004:00000034       __imp__GetEnvironmentStringsW@0 100f3034     kernel32:KERNEL32.dll
 0004:00000038       __imp__GetCommandLineW@0   100f3038     kernel32:KERNEL32.dll
 0004:0000003c       __imp__GetCommandLineA@0   100f303c     kernel32:KERNEL32.dll
 0004:00000040       __imp__GetCPInfo@8         100f3040     kernel32:KERNEL32.dll
 0004:00000044       __imp__GetOEMCP@0          100f3044     kernel32:KERNEL32.dll
 0004:00000048       __imp__IsValidCodePage@4   100f3048     kernel32:KERNEL32.dll
 0004:0000004c       __imp__FindNextFileW@8     100f304c     kernel32:KERNEL32.dll
 0004:00000050       __imp__FindNextFileA@8     100f3050     kernel32:KERNEL32.dll
 0004:00000054       __imp__FindFirstFileExW@24 100f3054     kernel32:KERNEL32.dll
 0004:00000058       __imp__FindFirstFileExA@24 100f3058     kernel32:KERNEL32.dll
 0004:0000005c       __imp__FindClose@4         100f305c     kernel32:KERNEL32.dll
 0004:00000060       __imp__EnumSystemLocalesW@8 100f3060     kernel32:KERNEL32.dll
 0004:00000064       __imp__GetUserDefaultLCID@0 100f3064     kernel32:KERNEL32.dll
 0004:00000068       __imp__IsValidLocale@8     100f3068     kernel32:KERNEL32.dll
 0004:0000006c       __imp__GetLocaleInfoW@16   100f306c     kernel32:KERNEL32.dll
 0004:00000070       __imp__LCMapStringW@24     100f3070     kernel32:KERNEL32.dll
 0004:00000074       __imp__CompareStringW@24   100f3074     kernel32:KERNEL32.dll
 0004:00000078       __imp__GetTimeFormatW@24   100f3078     kernel32:KERNEL32.dll
 0004:0000007c       __imp__GetDateFormatW@24   100f307c     kernel32:KERNEL32.dll
 0004:00000080       __imp__GetACP@0            100f3080     kernel32:KERNEL32.dll
 0004:00000084       __imp__HeapQueryInformation@20 100f3084     kernel32:KERNEL32.dll
 0004:00000088       __imp__HeapSize@12         100f3088     kernel32:KERNEL32.dll
 0004:0000008c       __imp__GetCurrentThread@0  100f308c     kernel32:KERNEL32.dll
 0004:00000090       __imp__HeapReAlloc@16      100f3090     kernel32:KERNEL32.dll
 0004:00000094       __imp__SetConsoleCtrlHandler@8 100f3094     kernel32:KERNEL32.dll
 0004:00000098       __imp__CreateThread@24     100f3098     kernel32:KERNEL32.dll
 0004:0000009c       __imp__WaitForSingleObjectEx@12 100f309c     kernel32:KERNEL32.dll
 0004:000000a0       __imp__CloseHandle@4       100f30a0     kernel32:KERNEL32.dll
 0004:000000a4       __imp__WriteConsoleW@20    100f30a4     kernel32:KERNEL32.dll
 0004:000000a8       __imp__OutputDebugStringW@4 100f30a8     kernel32:KERNEL32.dll
 0004:000000ac       __imp__OutputDebugStringA@4 100f30ac     kernel32:KERNEL32.dll
 0004:000000b0       __imp__WriteFile@20        100f30b0     kernel32:KERNEL32.dll
 0004:000000b4       __imp__InitializeSListHead@4 100f30b4     kernel32:KERNEL32.dll
 0004:000000b8       __imp__QueryPerformanceCounter@4 100f30b8     kernel32:KERNEL32.dll
 0004:000000bc       __imp__GetCurrentProcessId@0 100f30bc     kernel32:KERNEL32.dll
 0004:000000c0       __imp__GetCurrentThreadId@0 100f30c0     kernel32:KERNEL32.dll
 0004:000000c4       __imp__GetSystemTimeAsFileTime@4 100f30c4     kernel32:KERNEL32.dll
 0004:000000c8       __imp__IsDebuggerPresent@0 100f30c8     kernel32:KERNEL32.dll
 0004:000000cc       __imp__UnhandledExceptionFilter@4 100f30cc     kernel32:KERNEL32.dll
 0004:000000d0       __imp__SetUnhandledExceptionFilter@4 100f30d0     kernel32:KERNEL32.dll
 0004:000000d4       __imp__GetStartupInfoW@4   100f30d4     kernel32:KERNEL32.dll
 0004:000000d8       __imp__IsProcessorFeaturePresent@4 100f30d8     kernel32:KERNEL32.dll
 0004:000000dc       __imp__GetModuleHandleW@4  100f30dc     kernel32:KERNEL32.dll
 0004:000000e0       __imp__RaiseException@16   100f30e0     kernel32:KERNEL32.dll
 0004:000000e4       __imp__MultiByteToWideChar@24 100f30e4     kernel32:KERNEL32.dll
 0004:000000e8       __imp__WideCharToMultiByte@32 100f30e8     kernel32:KERNEL32.dll
 0004:000000ec       __imp__GetLastError@0      100f30ec     kernel32:KERNEL32.dll
 0004:000000f0       __imp__HeapAlloc@12        100f30f0     kernel32:KERNEL32.dll
 0004:000000f4       __imp__HeapFree@12         100f30f4     kernel32:KERNEL32.dll
 0004:000000f8       __imp__GetProcessHeap@0    100f30f8     kernel32:KERNEL32.dll
 0004:000000fc       __imp__VirtualQuery@12     100f30fc     kernel32:KERNEL32.dll
 0004:00000100       __imp__FreeLibrary@4       100f3100     kernel32:KERNEL32.dll
 0004:00000104       __imp__GetProcAddress@8    100f3104     kernel32:KERNEL32.dll
 0004:00000108       __imp__GetCurrentProcess@0 100f3108     kernel32:KERNEL32.dll
 0004:0000010c       __imp__InterlockedPushEntrySList@8 100f310c     kernel32:KERNEL32.dll
 0004:00000110       __imp__InterlockedFlushSList@4 100f3110     kernel32:KERNEL32.dll
 0004:00000114       __imp__GetModuleFileNameW@12 100f3114     kernel32:KERNEL32.dll
 0004:00000118       __imp__LoadLibraryExW@12   100f3118     kernel32:KERNEL32.dll
 0004:0000011c       __imp__RtlUnwind@16        100f311c     kernel32:KERNEL32.dll
 0004:00000120       __imp__SetLastError@4      100f3120     kernel32:KERNEL32.dll
 0004:00000124       __imp__EnterCriticalSection@4 100f3124     kernel32:KERNEL32.dll
 0004:00000128       __imp__LeaveCriticalSection@4 100f3128     kernel32:KERNEL32.dll
 0004:0000012c       __imp__DeleteCriticalSection@4 100f312c     kernel32:KERNEL32.dll
 0004:00000130       __imp__InitializeCriticalSectionAndSpinCount@8 100f3130     kernel32:KERNEL32.dll
 0004:00000134       __imp__TlsAlloc@0          100f3134     kernel32:KERNEL32.dll
 0004:00000138       __imp__TlsGetValue@4       100f3138     kernel32:KERNEL32.dll
 0004:0000013c       __imp__TlsSetValue@8       100f313c     kernel32:KERNEL32.dll
 0004:00000140       __imp__TlsFree@4           100f3140     kernel32:KERNEL32.dll
 0004:00000144       __imp__GetModuleFileNameA@12 100f3144     kernel32:KERNEL32.dll
 0004:00000148       __imp__GetModuleHandleExW@12 100f3148     kernel32:KERNEL32.dll
 0004:0000014c       __imp__HeapValidate@12     100f314c     kernel32:KERNEL32.dll
 0004:00000150       __imp__GetSystemInfo@4     100f3150     kernel32:KERNEL32.dll
 0004:00000154       __imp__ExitProcess@4       100f3154     kernel32:KERNEL32.dll
 0004:00000158       __imp__GetStdHandle@4      100f3158     kernel32:KERNEL32.dll
 0004:0000015c       __imp__GetFileType@4       100f315c     kernel32:KERNEL32.dll
 0004:00000160       \177KERNEL32_NULL_THUNK_DATA 100f3160     kernel32:KERNEL32.dll
 0004:000001d0       __imp_?findOverlapHeightField@PxMeshQuery@physx@@SAIABVPxGeometry@2@ABVPxTransform@2@ABVPxHeightFieldGeometry@2@1PAIIIAA_N@Z 100f31d0     PhysX3CommonDEBUG_x86:PhysX3CommonDEBUG_x86.dll
 0004:000001d4       __imp_?findOverlapTriangleMesh@PxMeshQuery@physx@@SAIABVPxGeometry@2@ABVPxTransform@2@ABVPxTriangleMeshGeometry@2@1PAIIIAA_N@Z 100f31d4     PhysX3CommonDEBUG_x86:PhysX3CommonDEBUG_x86.dll
 0004:000001d8       __imp_?getRaycastFuncTable@Gu@physx@@YAAAY06Q6AIABVPxGeometry@2@ABVPxTransform@2@ABVPxVec3@2@2MV?$PxFlags@W4Enum@PxHitFlag@physx@@G@2@IPIAUPxRaycastHit@2@@ZXZ 100f31d8     PhysX3CommonDEBUG_x86:PhysX3CommonDEBUG_x86.dll
 0004:000001dc       __imp_?distanceSegmentSegmentSquared@Gu@physx@@YAMABVPxVec3@2@000PAM1@Z 100f31dc     PhysX3CommonDEBUG_x86:PhysX3CommonDEBUG_x86.dll
 0004:000001e0       __imp_?CompleteBoxPruning@Cm@physx@@YA_NPBVPxBounds3@2@IAAV?$Array@IVNamedAllocator@shdfnd@physx@@@shdfnd@2@ABVAxes@Gu@2@@Z 100f31e0     PhysX3CommonDEBUG_x86:PhysX3CommonDEBUG_x86.dll
 0004:000001e4       __imp_?intersectTriangleBox_Unsafe@Gu@physx@@YAHABVPxVec3@2@0000@Z 100f31e4     PhysX3CommonDEBUG_x86:PhysX3CommonDEBUG_x86.dll
 0004:000001e8       __imp_??6RenderOutput@Cm@physx@@QAEAAV012@VPxVec3@2@@Z 100f31e8     PhysX3CommonDEBUG_x86:PhysX3CommonDEBUG_x86.dll
 0004:000001ec       __imp_??6RenderOutput@Cm@physx@@QAEAAV012@W4Primitive@012@@Z 100f31ec     PhysX3CommonDEBUG_x86:PhysX3CommonDEBUG_x86.dll
 0004:000001f0       __imp_?getTriangle@PxMeshQuery@physx@@SAXABVPxHeightFieldGeometry@2@ABVPxTransform@2@IAAVPxTriangle@2@PAI3@Z 100f31f0     PhysX3CommonDEBUG_x86:PhysX3CommonDEBUG_x86.dll
 0004:000001f4       __imp_?getTriangle@PxMeshQuery@physx@@SAXABVPxTriangleMeshGeometry@2@ABVPxTransform@2@IAAVPxTriangle@2@PAI3@Z 100f31f4     PhysX3CommonDEBUG_x86:PhysX3CommonDEBUG_x86.dll
 0004:000001f8       __imp_?distanceSegmentBoxSquared@Gu@physx@@YAMABVPxVec3@2@000ABVPxMat33@2@PAMPAV32@@Z 100f31f8     PhysX3CommonDEBUG_x86:PhysX3CommonDEBUG_x86.dll
 0004:000001fc       __imp_?intersectOBBOBB@Gu@physx@@YA_NABVPxVec3@2@0ABVPxMat33@2@001_N@Z 100f31fc     PhysX3CommonDEBUG_x86:PhysX3CommonDEBUG_x86.dll
 0004:00000200       __imp_??1Box@Gu@physx@@QAE@XZ 100f3200     PhysX3CommonDEBUG_x86:PhysX3CommonDEBUG_x86.dll
 0004:00000204       __imp_??0Box@Gu@physx@@QAE@ABVPxVec3@2@0ABVPxMat33@2@@Z 100f3204     PhysX3CommonDEBUG_x86:PhysX3CommonDEBUG_x86.dll
 0004:00000208       __imp_?computePenetration@PxGeometryQuery@physx@@SA_NAAVPxVec3@2@AAMABVPxGeometry@2@ABVPxTransform@2@23@Z 100f3208     PhysX3CommonDEBUG_x86:PhysX3CommonDEBUG_x86.dll
 0004:0000020c       __imp_?sweep@PxGeometryQuery@physx@@SA_NABVPxVec3@2@MABVPxGeometry@2@ABVPxTransform@2@12AAUPxSweepHit@2@V?$PxFlags@W4Enum@PxHitFlag@physx@@G@2@M@Z 100f320c     PhysX3CommonDEBUG_x86:PhysX3CommonDEBUG_x86.dll
 0004:00000210       __imp_?PxTransformFromSegment@physx@@YA?AVPxTransform@1@ABVPxVec3@1@0PAM@Z 100f3210     PhysX3CommonDEBUG_x86:PhysX3CommonDEBUG_x86.dll
 0004:00000214       __imp_??6Cm@physx@@YAAAVRenderOutput@01@AAV201@ABUDebugBox@01@@Z 100f3214     PhysX3CommonDEBUG_x86:PhysX3CommonDEBUG_x86.dll
 0004:00000218       __imp_?outputCapsule@RenderOutput@Cm@physx@@QAEAAV123@MMABVPxMat44@3@@Z 100f3218     PhysX3CommonDEBUG_x86:PhysX3CommonDEBUG_x86.dll
 0004:0000021c       __imp_??6RenderOutput@Cm@physx@@QAEAAV012@ABVPxTransform@2@@Z 100f321c     PhysX3CommonDEBUG_x86:PhysX3CommonDEBUG_x86.dll
 0004:00000220       __imp_??6RenderOutput@Cm@physx@@QAEAAV012@I@Z 100f3220     PhysX3CommonDEBUG_x86:PhysX3CommonDEBUG_x86.dll
 0004:00000224       __imp_??0RenderOutput@Cm@physx@@QAE@AAVRenderBuffer@12@@Z 100f3224     PhysX3CommonDEBUG_x86:PhysX3CommonDEBUG_x86.dll
 0004:00000228       __imp_?sweep@PxMeshQuery@physx@@SA_NABVPxVec3@2@MABVPxGeometry@2@ABVPxTransform@2@IPBVPxTriangle@2@AAUPxSweepHit@2@V?$PxFlags@W4Enum@PxHitFlag@physx@@G@2@PBIM_N@Z 100f3228     PhysX3CommonDEBUG_x86:PhysX3CommonDEBUG_x86.dll
 0004:0000022c       \177PhysX3CommonDEBUG_x86_NULL_THUNK_DATA 100f322c     PhysX3CommonDEBUG_x86:PhysX3CommonDEBUG_x86.dll
 0004:00000268       __imp_?PxDiagonalize@physx@@YA?AVPxVec3@1@ABVPxMat33@1@AAVPxQuat@1@@Z 100f3268     PxFoundationDEBUG_x86:PxFoundationDEBUG_x86.dll
 0004:0000026c       __imp_?PxShortestRotation@physx@@YA?AVPxQuat@1@ABVPxVec3@1@0@Z 100f326c     PxFoundationDEBUG_x86:PxFoundationDEBUG_x86.dll
 0004:00000270       __imp_?error@Foundation@shdfnd@physx@@QAAXW4Enum@PxErrorCode@3@PBDH1ZZ 100f3270     PxFoundationDEBUG_x86:PxFoundationDEBUG_x86.dll
 0004:00000274       __imp_?decRefCount@Foundation@shdfnd@physx@@SAXXZ 100f3274     PxFoundationDEBUG_x86:PxFoundationDEBUG_x86.dll
 0004:00000278       __imp_?incRefCount@Foundation@shdfnd@physx@@SAXXZ 100f3278     PxFoundationDEBUG_x86:PxFoundationDEBUG_x86.dll
 0004:0000027c       __imp_?getInstance@Foundation@shdfnd@physx@@SAAAV123@XZ 100f327c     PxFoundationDEBUG_x86:PxFoundationDEBUG_x86.dll
 0004:00000280       __imp_?getSize@MutexImpl@shdfnd@physx@@SAABIXZ 100f3280     PxFoundationDEBUG_x86:PxFoundationDEBUG_x86.dll
 0004:00000284       __imp_??1MutexImpl@shdfnd@physx@@QAE@XZ 100f3284     PxFoundationDEBUG_x86:PxFoundationDEBUG_x86.dll
 0004:00000288       __imp_??0MutexImpl@shdfnd@physx@@QAE@XZ 100f3288     PxFoundationDEBUG_x86:PxFoundationDEBUG_x86.dll
 0004:0000028c       __imp__PxGetFoundation     100f328c     PxFoundationDEBUG_x86:PxFoundationDEBUG_x86.dll
 0004:00000290       __imp_?deallocate@NamedAllocator@shdfnd@physx@@QAEXPAX@Z 100f3290     PxFoundationDEBUG_x86:PxFoundationDEBUG_x86.dll
 0004:00000294       __imp_?allocate@NamedAllocator@shdfnd@physx@@QAEPAXIPBDH@Z 100f3294     PxFoundationDEBUG_x86:PxFoundationDEBUG_x86.dll
 0004:00000298       __imp_??1NamedAllocator@shdfnd@physx@@QAE@XZ 100f3298     PxFoundationDEBUG_x86:PxFoundationDEBUG_x86.dll
 0004:0000029c       __imp_??0NamedAllocator@shdfnd@physx@@QAE@ABV012@@Z 100f329c     PxFoundationDEBUG_x86:PxFoundationDEBUG_x86.dll
 0004:000002a0       __imp__PxGetProfilerCallback 100f32a0     PxFoundationDEBUG_x86:PxFoundationDEBUG_x86.dll
 0004:000002a4       __imp_?unlock@MutexImpl@shdfnd@physx@@QAEXXZ 100f32a4     PxFoundationDEBUG_x86:PxFoundationDEBUG_x86.dll
 0004:000002a8       __imp_?lock@MutexImpl@shdfnd@physx@@QAEXXZ 100f32a8     PxFoundationDEBUG_x86:PxFoundationDEBUG_x86.dll
 0004:000002ac       __imp_??0NamedAllocator@shdfnd@physx@@QAE@PBD@Z 100f32ac     PxFoundationDEBUG_x86:PxFoundationDEBUG_x86.dll
 0004:000002b0       __imp_?getAllocator@shdfnd@physx@@YAAAVPxAllocatorCallback@2@XZ 100f32b0     PxFoundationDEBUG_x86:PxFoundationDEBUG_x86.dll
 0004:000002b4       __imp_?PxGetAssertHandler@physx@@YAAAVPxAssertHandler@1@XZ 100f32b4     PxFoundationDEBUG_x86:PxFoundationDEBUG_x86.dll
 0004:000002b8       \177PxFoundationDEBUG_x86_NULL_THUNK_DATA 100f32b8     PxFoundationDEBUG_x86:PxFoundationDEBUG_x86.dll
 0004:000002f4       __IMPORT_DESCRIPTOR_PxFoundationDEBUG_x86 100f32f4     PxFoundationDEBUG_x86:PxFoundationDEBUG_x86.dll
 0004:00000308       __IMPORT_DESCRIPTOR_PhysX3CommonDEBUG_x86 100f3308     PhysX3CommonDEBUG_x86:PhysX3CommonDEBUG_x86.dll
 0004:0000031c       __IMPORT_DESCRIPTOR_KERNEL32 100f331c     kernel32:KERNEL32.dll
 0004:00000330       __NULL_IMPORT_DESCRIPTOR   100f3330     PxFoundationDEBUG_x86:PxFoundationDEBUG_x86.dll
 0006:00000000       ___guard_check_icall_fptr  100f6000     LIBCMTD:guard_support.obj
