 PhysX3CookingDEBUG_x86

 Timestamp is 58ca8083 (Thu Mar 16 12:09:39 2017)

 Preferred load address is 10000000

 Start         Length     Name                   Class
 0001:00000000 0000a390H .text$di                CODE
 0001:0000a390 000dc460H .text$mn                CODE
 0001:000e67f0 000010e8H .text$x                 CODE
 0002:00000000 00000104H .CRT$XCA                DATA
 0002:00000104 000001f4H .CRT$XCU                DATA
 0002:000002f8 00000104H .CRT$XCZ                DATA
 0002:000003fc 00000104H .CRT$XIA                DATA
 0002:00000500 00000110H .CRT$XIC                DATA
 0002:00000610 00000104H .CRT$XIZ                DATA
 0002:00000714 00000104H .CRT$XPA                DATA
 0002:00000818 0000010cH .CRT$XPX                DATA
 0002:00000924 00000104H .CRT$XPXA               DATA
 0002:00000a28 00000104H .CRT$XPZ                DATA
 0002:00000b2c 00000104H .CRT$XTA                DATA
 0002:00000c30 00000110H .CRT$XTZ                DATA
 0002:00000d40 00029c94H .rdata                  DATA
 0002:0002a9d4 0000050cH .rdata$r                DATA
 0002:0002aee0 0000012cH .rdata$sxdata           DATA
 0002:0002b00c 00000194H .rdata$zzzdbg           DATA
 0002:0002b1a0 00000104H .rtc$IAA                DATA
 0002:0002b2a4 0000015cH .rtc$IMZ                DATA
 0002:0002b400 00000104H .rtc$IZZ                DATA
 0002:0002b504 00000104H .rtc$TAA                DATA
 0002:0002b608 0000015cH .rtc$TMZ                DATA
 0002:0002b764 00000104H .rtc$TZZ                DATA
 0002:0002b868 00000ed8H .xdata$x                DATA
 0002:0002c740 000001a0H .edata                  DATA
 0003:00000000 00000ab0H .data                   DATA
 0003:00000ab0 000005e0H .data$r                 DATA
 0003:00001090 00001ca8H .bss                    DATA
 0004:00000000 000001e0H .idata$5                DATA
 0004:000001e0 00000014H .idata$2                DATA
 0004:000001f4 00000014H .idata$3                DATA
 0004:00000208 000001e0H .idata$4                DATA
 0004:000003e8 00000875H .idata$6                DATA
 0005:00000000 00000040H .didat$2                DATA
 0005:00000040 00000020H .didat$3                DATA
 0005:00000060 00000150H .didat$4                DATA
 0005:000001b0 00000150H .didat$5                DATA
 0005:00000300 00000be8H .didat$6                DATA
 0005:00000ee8 000001edH .didat$7                DATA
 0006:00000000 00000208H .gfids$x                DATA
 0006:00000208 00000202H .gfids$y                DATA
 0007:00000000 00000104H .00cfg                  DATA
 0008:00000000 000001c0H .rsrc$01                DATA
 0008:000001c0 000006a9H .rsrc$02                DATA

  Address         Publics by Value              Rva+Base       Lib:Object

 0000:00000000       ___dynamic_value_reloc_table 00000000     <absolute>
 0000:00000000       ___guard_iat_table         00000000     <absolute>
 0000:00000000       ___guard_fids_table        00000000     <absolute>
 0000:00000000       ___guard_iat_count         00000000     <absolute>
 0000:00000000       ___guard_longjmp_count     00000000     <absolute>
 0000:00000000       ___guard_fids_count        00000000     <absolute>
 0000:00000000       __except_list              00000000     <absolute>
 0000:00000000       ___guard_longjmp_table     00000000     <absolute>
 0000:00000009       ___safe_se_handler_count   00000009     <absolute>
 0000:00000100       ___guard_flags             00000100     <absolute>
 0000:00000000       ___ImageBase               10000000     <linker-defined>
 0001:0000a390       _PxSetPhysXCookingDelayLoadHook 1000b390 f   WindowsCookingDelayLoadHook.obj
 0001:0000a3a0       ?delayHook@@YGP6GHXZIPAUDelayLoadInfo@@@Z 1000b3a0 f   WindowsCookingDelayLoadHook.obj
 0001:0000a420       ?foundationDliNotePreLoadLibrary@shdfnd@physx@@YGP6GHXZPBDPBVPxFoundationDelayLoadHook@2@@Z 1000b420 f i WindowsCookingDelayLoadHook.obj
 0001:0000a530       ?loadLibrary@Cm@physx@@YGPAUHINSTANCE__@@PBD@Z 1000b530 f i WindowsCookingDelayLoadHook.obj
 0001:0000a550       ?physXCommonDliNotePreLoadLibrary@Cm@physx@@YGP6GHXZPBDPBVPxDelayLoadHook@2@@Z 1000b550 f i WindowsCookingDelayLoadHook.obj
 0001:0000a770       ?saveHeightField@physx@@YA_NABVHeightField@Gu@1@AAVPxOutputStream@1@_N@Z 1000b770 f   HeightFieldCooking.obj
 0001:0000ab20       ??APxVec3@physx@@QBEABMI@Z 1000bb20 f i HeightFieldCooking.obj
 0001:0000ab90       ??B?$PxFlags@W4Enum@PxHeightFieldFlag@physx@@G@physx@@QBEGXZ 1000bb90 f i HeightFieldCooking.obj
 0001:0000abb0       ?__empty_global_delete@@YAXPAX@Z 1000bbb0 f i HeightFieldCooking.obj
 0001:0000abc0       ?__empty_global_delete@@YAXPAXI@Z 1000bbc0 f i HeightFieldCooking.obj
 0001:0000abc0       ?__global_delete@@YAXPAXI@Z 1000bbc0 f i HeightFieldCooking.obj
 0001:0000abc0       ?__global_array_delete@@YAXPAXI@Z 1000bbc0 f i HeightFieldCooking.obj
 0001:0000abd0       ?getData@HeightField@Gu@physx@@QBEABUHeightFieldData@23@XZ 1000bbd0 f i HeightFieldCooking.obj
 0001:0000abf0       ?getMax@CenterExtents@Gu@physx@@QBEMI@Z 1000bbf0 f i HeightFieldCooking.obj
 0001:0000ac40       ?getMin@CenterExtents@Gu@physx@@QBEMI@Z 1000bc40 f i HeightFieldCooking.obj
 0001:0000ac90       ?buildFromTriangles@RTreeCooker@physx@@SAXAAURTree@Gu@2@PBVPxVec3@2@IPBGPBIIAAV?$Array@IVNamedAllocator@shdfnd@physx@@@shdfnd@2@PAURemapCallback@12@MW4Enum@PxMeshCookingHint@2@@Z 1000bc90 f   RTreeCooking.obj
 0001:0000c010       ??$PX_UNUSED@I@@YAXABI@Z   1000d010 f i RTreeCooking.obj
 0001:0000c020       ??$PX_UNUSED@M@@YAXABM@Z   1000d020 f i RTreeCooking.obj
 0001:0000c030       ??$PX_UNUSED@PAURTreeNodeNQ@physx@@@@YAXABQAURTreeNodeNQ@physx@@@Z 1000d030 f i RTreeCooking.obj
 0001:0000c040       ??$PX_UNUSED@URTreeNodeNQ@physx@@@@YAXABURTreeNodeNQ@physx@@@Z 1000d040 f i RTreeCooking.obj
 0001:0000c050       ??$PxMax@H@physx@@YAHHH@Z  1000d050 f i RTreeCooking.obj
 0001:0000c080       ??$PxMax@I@physx@@YAIII@Z  1000d080 f i RTreeCooking.obj
 0001:0000c0b0       ??$PxMax@M@physx@@YAMMM@Z  1000d0b0 f i RTreeCooking.obj
 0001:0000c0e0       ??$PxMin@I@physx@@YAIII@Z  1000d0e0 f i RTreeCooking.obj
 0001:0000c110       ??$PxMin@M@physx@@YAMMM@Z  1000d110 f i RTreeCooking.obj
 0001:0000c140       ??$median3@I$$CBU?$Less@I@shdfnd@physx@@@internal@shdfnd@physx@@YAXPAIHHABU?$Less@I@12@@Z 1000d140 f i RTreeCooking.obj
 0001:0000c270       ??$median3@I$$CBUSortBoundsPredicate@physx@@@internal@shdfnd@physx@@YAXPAIHHABUSortBoundsPredicate@2@@Z 1000d270 f i RTreeCooking.obj
 0001:0000c3a0       ??$partition@I$$CBU?$Less@I@shdfnd@physx@@@internal@shdfnd@physx@@YAHPAIHHABU?$Less@I@12@@Z 1000d3a0 f i RTreeCooking.obj
 0001:0000c560       ??$partition@I$$CBUSortBoundsPredicate@physx@@@internal@shdfnd@physx@@YAHPAIHHABUSortBoundsPredicate@2@@Z 1000d560 f i RTreeCooking.obj
 0001:0000c720       ??$partition@UBoundsLTE@physx@@@quickSelect@physx@@YAIPIAIIIIABUBoundsLTE@1@@Z 1000d720 f i RTreeCooking.obj
 0001:0000c9b0       ??$quickSelectFirstK@UBoundsLTE@physx@@@quickSelect@physx@@YAXPIAIIIIABUBoundsLTE@1@@Z 1000d9b0 f i RTreeCooking.obj
 0001:0000cae0       ??$smallSort@I$$CBU?$Less@I@shdfnd@physx@@@internal@shdfnd@physx@@YAXPAIHHABU?$Less@I@12@@Z 1000dae0 f i RTreeCooking.obj
 0001:0000cba0       ??$smallSort@I$$CBUSortBoundsPredicate@physx@@@internal@shdfnd@physx@@YAXPAIHHABUSortBoundsPredicate@2@@Z 1000dba0 f i RTreeCooking.obj
 0001:0000cc60       ??$sort@I@shdfnd@physx@@YAXPAII@Z 1000dc60 f i RTreeCooking.obj
 0001:0000cca0       ??$sort@IU?$Less@I@shdfnd@physx@@VNamedAllocator@23@@shdfnd@physx@@YAXPAIIABU?$Less@I@01@ABVNamedAllocator@01@I@Z 1000dca0 f i RTreeCooking.obj
 0001:0000cf60       ??$sort@IUSortBoundsPredicate@physx@@@shdfnd@physx@@YAXPAIIABUSortBoundsPredicate@1@@Z 1000df60 f i RTreeCooking.obj
 0001:0000cfa0       ??$sort@IUSortBoundsPredicate@physx@@VNamedAllocator@shdfnd@2@@shdfnd@physx@@YAXPAIIABUSortBoundsPredicate@1@ABVNamedAllocator@01@I@Z 1000dfa0 f i RTreeCooking.obj
 0001:0000d260       ??$swap@I@shdfnd@physx@@YAXAAI0@Z 1000e260 f i RTreeCooking.obj
 0001:0000d290       ??0?$AlignedAllocator@$0IA@VNonTrackingAllocator@shdfnd@physx@@@shdfnd@physx@@QAE@ABVNonTrackingAllocator@12@@Z 1000e290 f i RTreeCooking.obj
 0001:0000d2b0       ??0?$Array@IVNamedAllocator@shdfnd@physx@@@shdfnd@physx@@QAE@IABIABVNamedAllocator@12@@Z 1000e2b0 f i RTreeCooking.obj
 0001:0000d310       ??0?$Array@UInterval@physx@@V?$InlineAllocator@$0CA@VNamedAllocator@shdfnd@physx@@@shdfnd@2@@shdfnd@physx@@QAE@ABV?$InlineAllocator@$0CA@VNamedAllocator@shdfnd@physx@@@12@@Z 1000e310 f i RTreeCooking.obj
 0001:0000d360       ??0?$Array@UPxBounds3V@physx@@VNamedAllocator@shdfnd@2@@shdfnd@physx@@QAE@ABVNamedAllocator@12@@Z 1000e360 f i RTreeCooking.obj
 0001:0000d3b0       ??0?$Array@URTreeNodeNQ@physx@@VNamedAllocator@shdfnd@2@@shdfnd@physx@@QAE@ABVNamedAllocator@12@@Z 1000e3b0 f i RTreeCooking.obj
 0001:0000d400       ??0?$Array@URTreeNodeQ@Gu@physx@@VNamedAllocator@shdfnd@3@@shdfnd@physx@@QAE@ABVNamedAllocator@12@@Z 1000e400 f i RTreeCooking.obj
 0001:0000d450       ??0?$Array@VPxVec3@physx@@VNamedAllocator@shdfnd@2@@shdfnd@physx@@QAE@ABVNamedAllocator@12@@Z 1000e450 f i RTreeCooking.obj
 0001:0000d4a0       ??0?$InlineAllocator@$0CA@VNamedAllocator@shdfnd@physx@@@shdfnd@physx@@QAE@ABV012@@Z 1000e4a0 f i RTreeCooking.obj
 0001:0000d4d0       ??0?$InlineAllocator@$0CA@VNamedAllocator@shdfnd@physx@@@shdfnd@physx@@QAE@ABVNamedAllocator@12@@Z 1000e4d0 f i RTreeCooking.obj
 0001:0000d500       ??0?$InlineArray@UInterval@physx@@$03VNamedAllocator@shdfnd@2@@shdfnd@physx@@QAE@ABVNamedAllocator@12@@Z 1000e500 f i RTreeCooking.obj
 0001:0000d560       ??0?$ScopedPointer@HVTempAllocator@shdfnd@physx@@@shdfnd@physx@@QAE@XZ 1000e560 f i RTreeCooking.obj
 0001:0000d580       ??0?$Stack@VNamedAllocator@shdfnd@physx@@@internal@shdfnd@physx@@QAE@PAHIABVNamedAllocator@23@@Z 1000e580 f i RTreeCooking.obj
 0001:0000d5d0       ??0BoundsLTE@physx@@QAE@IPBVPxVec3@1@@Z 1000e5d0 f i RTreeCooking.obj
 0001:0000d600       ??0Interval@physx@@QAE@II@Z 1000e600 f i RTreeCooking.obj
 0001:0000d630       ??0NonTrackingAllocator@shdfnd@physx@@QAE@PBD@Z 1000e630 f i RTreeCooking.obj
 0001:0000d650       ??0PxBounds3@physx@@QAE@ABV01@@Z 1000e650 f i RTreeCooking.obj
 0001:0000d690       ??0PxBounds3@physx@@QAE@ABVPxVec3@1@0@Z 1000e690 f i RTreeCooking.obj
 0001:0000d6d0       ??0PxBounds3V@physx@@QAE@AAT__m128@@0@Z 1000e6d0 f i RTreeCooking.obj
 0001:0000d710       ??0PxBounds3V@physx@@QAE@UU@01@@Z 1000e710 f i RTreeCooking.obj
 0001:0000d730       ??0PxVec3@physx@@QAE@ABV01@@Z 1000e730 f i RTreeCooking.obj
 0001:0000d770       ??0PxVec3@physx@@QAE@M@Z   1000e770 f i RTreeCooking.obj
 0001:0000d7c0       ??0PxVec3@physx@@QAE@MMM@Z 1000e7c0 f i RTreeCooking.obj
 0001:0000d810       ??0PxVec3@physx@@QAE@XZ    1000e810 f i RTreeCooking.obj
 0001:0000d830       ??0PxVec4@physx@@QAE@ABVPxVec3@1@M@Z 1000e830 f i RTreeCooking.obj
 0001:0000d880       ??0PxVec4@physx@@QAE@M@Z   1000e880 f i RTreeCooking.obj
 0001:0000d8e0       ??0PxVec4@physx@@QAE@MMMM@Z 1000e8e0 f i RTreeCooking.obj
 0001:0000d940       ??0RTreeNodeNQ@physx@@QAE@ABU01@@Z 1000e940 f i RTreeCooking.obj
 0001:0000d990       ??0RTreeNodeNQ@physx@@QAE@XZ 1000e990 f i RTreeCooking.obj
 0001:0000d9d0       ??0SortBoundsPredicate@physx@@QAE@IPBUPxBounds3V@1@@Z 1000e9d0 f i RTreeCooking.obj
 0001:0000da00       ??0SubSortQuick@physx@@QAE@PAIPBUPxBounds3V@1@IM@Z 1000ea00 f i RTreeCooking.obj
 0001:0000db60       ??0SubSortSAH@physx@@QAE@PAIPBUPxBounds3V@1@IPBI22222M@Z 1000eb60 f i RTreeCooking.obj
 0001:0000dd00       ??0TempAllocator@shdfnd@physx@@QAE@PBD@Z 1000ed00 f i RTreeCooking.obj
 0001:0000dd20       ??1?$Array@IVNamedAllocator@shdfnd@physx@@@shdfnd@physx@@QAE@XZ 1000ed20 f i RTreeCooking.obj
 0001:0000dd90       ??1?$Array@UInterval@physx@@V?$InlineAllocator@$0CA@VNamedAllocator@shdfnd@physx@@@shdfnd@2@@shdfnd@physx@@QAE@XZ 1000ed90 f i RTreeCooking.obj
 0001:0000de00       ??1?$Array@UPxBounds3V@physx@@VNamedAllocator@shdfnd@2@@shdfnd@physx@@QAE@XZ 1000ee00 f i RTreeCooking.obj
 0001:0000de70       ??1?$Array@URTreeNodeNQ@physx@@VNamedAllocator@shdfnd@2@@shdfnd@physx@@QAE@XZ 1000ee70 f i RTreeCooking.obj
 0001:0000dee0       ??1?$Array@URTreeNodeQ@Gu@physx@@VNamedAllocator@shdfnd@3@@shdfnd@physx@@QAE@XZ 1000eee0 f i RTreeCooking.obj
 0001:0000df50       ??1?$Array@VPxVec3@physx@@VNamedAllocator@shdfnd@2@@shdfnd@physx@@QAE@XZ 1000ef50 f i RTreeCooking.obj
 0001:0000dfc0       ??1?$InlineAllocator@$0CA@VNamedAllocator@shdfnd@physx@@@shdfnd@physx@@QAE@XZ 1000efc0 f i RTreeCooking.obj
 0001:0000dfe0       ??1?$InlineArray@UInterval@physx@@$03VNamedAllocator@shdfnd@2@@shdfnd@physx@@QAE@XZ 1000efe0 f i RTreeCooking.obj
 0001:0000e000       ??1?$ScopedPointer@HVTempAllocator@shdfnd@physx@@@shdfnd@physx@@QAE@XZ 1000f000 f i RTreeCooking.obj
 0001:0000e030       ??1?$Stack@VNamedAllocator@shdfnd@physx@@@internal@shdfnd@physx@@QAE@XZ 1000f030 f i RTreeCooking.obj
 0001:0000e070       ??1SubSortQuick@physx@@QAE@XZ 1000f070 f i RTreeCooking.obj
 0001:0000e090       ??1SubSortSAH@physx@@QAE@XZ 1000f090 f i RTreeCooking.obj
 0001:0000e140       ??2@YAPAXIPAX@Z            1000f140 f i RTreeCooking.obj
 0001:0000e150       ??4PxVec3@physx@@QAEAAV01@ABV01@@Z 1000f150 f i RTreeCooking.obj
 0001:0000e190       ??4PxVec4@physx@@QAEAAV01@ABV01@@Z 1000f190 f i RTreeCooking.obj
 0001:0000e1e0       ??A?$Array@IVNamedAllocator@shdfnd@physx@@@shdfnd@physx@@QAEAAII@Z 1000f1e0 f i RTreeCooking.obj
 0001:0000e250       ??A?$Array@UInterval@physx@@V?$InlineAllocator@$0CA@VNamedAllocator@shdfnd@physx@@@shdfnd@2@@shdfnd@physx@@QAEAAUInterval@2@I@Z 1000f250 f i RTreeCooking.obj
 0001:0000e2d0       ??A?$Array@URTreeNodeNQ@physx@@VNamedAllocator@shdfnd@2@@shdfnd@physx@@QAEAAURTreeNodeNQ@2@I@Z 1000f2d0 f i RTreeCooking.obj
 0001:0000e340       ??A?$Array@URTreeNodeQ@Gu@physx@@VNamedAllocator@shdfnd@3@@shdfnd@physx@@QAEAAURTreeNodeQ@Gu@2@I@Z 1000f340 f i RTreeCooking.obj
 0001:0000e3b0       ??B?$ScopedPointer@HVTempAllocator@shdfnd@physx@@@shdfnd@physx@@QBEPAHXZ 1000f3b0 f i RTreeCooking.obj
 0001:0000e3d0       ??GPxVec4@physx@@QBE?AV01@ABV01@@Z 1000f3d0 f i RTreeCooking.obj
 0001:0000e460       ??HPxVec3@physx@@QBE?AV01@ABV01@@Z 1000f460 f i RTreeCooking.obj
 0001:0000e4d0       ??KPxVec4@physx@@QBE?AV01@M@Z 1000f4d0 f i RTreeCooking.obj
 0001:0000e570       ??R?$Less@I@shdfnd@physx@@QBE_NABI0@Z 1000f570 f i RTreeCooking.obj
 0001:0000e5b0       ??RBoundsLTE@physx@@QBE_NABI0@Z 1000f5b0 f i RTreeCooking.obj
 0001:0000e640       ??RSortBoundsPredicate@physx@@QBE_NABI0@Z 1000f640 f i RTreeCooking.obj
 0001:0000e770       ??_H@YGXPAXIIP6EPAX0@Z@Z   1000f770 f i RTreeCooking.obj
 0001:0000e7d0       ?FLoad@aos@shdfnd@physx@@YA?AT__m128@@M@Z 1000f7d0 f i RTreeCooking.obj
 0001:0000e810       ?FMax@aos@shdfnd@physx@@YA?AT__m128@@XZ 1000f810 f i RTreeCooking.obj
 0001:0000e860       ?FNegMax@aos@shdfnd@physx@@YA?AT__m128@@XZ 1000f860 f i RTreeCooking.obj
 0001:0000e8b0       ?FStore@aos@shdfnd@physx@@YAXT__m128@@PIAM@Z 1000f8b0 f i RTreeCooking.obj
 0001:0000e950       ?PxAbs@physx@@YAHH@Z       1000f950 f i RTreeCooking.obj
 0001:0000e970       ?PxAbs@physx@@YAMM@Z       1000f970 f i RTreeCooking.obj
 0001:0000e990       ?PxIsFinite@physx@@YA_NM@Z 1000f990 f i RTreeCooking.obj
 0001:0000e9b0       ?PxMemCopy@physx@@YAPAXPIAXPIBXI@Z 1000f9b0 f i RTreeCooking.obj
 0001:0000e9d0       ?V3Add@aos@shdfnd@physx@@YA?AT__m128@@T4@0@Z 1000f9d0 f i RTreeCooking.obj
 0001:0000ead0       ?V3Dot@aos@shdfnd@physx@@YA?AT__m128@@T4@0@Z 1000fad0 f i RTreeCooking.obj
 0001:0000ec50       ?V3Load@aos@shdfnd@physx@@YA?AT__m128@@M@Z 1000fc50 f i RTreeCooking.obj
 0001:0000ecb0       ?V3LoadU@aos@shdfnd@physx@@YA?AT__m128@@ABVPxVec3@3@@Z 1000fcb0 f i RTreeCooking.obj
 0001:0000ed10       ?V3Max@aos@shdfnd@physx@@YA?AT__m128@@T4@0@Z 1000fd10 f i RTreeCooking.obj
 0001:0000ee10       ?V3Min@aos@shdfnd@physx@@YA?AT__m128@@T4@0@Z 1000fe10 f i RTreeCooking.obj
 0001:0000ef10       ?V3PermZXY@aos@shdfnd@physx@@YA?AT__m128@@T4@@Z 1000ff10 f i RTreeCooking.obj
 0001:0000efb0       ?V3ReadXYZ@aos@shdfnd@physx@@YAABVPxVec3@3@ABT__m128@@@Z 1000ffb0 f i RTreeCooking.obj
 0001:0000efc0       ?V3Splat@aos@shdfnd@physx@@YA?AT__m128@@T4@@Z 1000ffc0 f i RTreeCooking.obj
 0001:0000f090       ?V3StoreA@aos@shdfnd@physx@@YAXT__m128@@AAVPxVec3@3@@Z 10010090 f i RTreeCooking.obj
 0001:0000f180       ?V3StoreU@aos@shdfnd@physx@@YAXT__m128@@AAVPxVec3@3@@Z 10010180 f i RTreeCooking.obj
 0001:0000f220       ?V3Sub@aos@shdfnd@physx@@YA?AT__m128@@T4@0@Z 10010220 f i RTreeCooking.obj
 0001:0000f320       ?V3Zero@aos@shdfnd@physx@@YA?AT__m128@@XZ 10010320 f i RTreeCooking.obj
 0001:0000f360       ?V4ClearW@aos@shdfnd@physx@@YA?AT__m128@@T4@@Z 10010360 f i RTreeCooking.obj
 0001:0000f3b0       ?V4Load@aos@shdfnd@physx@@YA?AT__m128@@M@Z 100103b0 f i RTreeCooking.obj
 0001:0000f3f0       ?V4ReadW@aos@shdfnd@physx@@YAMABT__m128@@@Z 100103f0 f i RTreeCooking.obj
 0001:0000f400       ?V4ReadX@aos@shdfnd@physx@@YAMABT__m128@@@Z 10010400 f i RTreeCooking.obj
 0001:0000f410       ?V4ReadY@aos@shdfnd@physx@@YAMABT__m128@@@Z 10010410 f i RTreeCooking.obj
 0001:0000f420       ?V4ReadZ@aos@shdfnd@physx@@YAMABT__m128@@@Z 10010420 f i RTreeCooking.obj
 0001:0000f430       ?V4StoreA@aos@shdfnd@physx@@YAXT__m128@@PAM@Z 10010430 f i RTreeCooking.obj
 0001:0000f4d0       ?Vec3V_From_FloatV@aos@shdfnd@physx@@YA?AT__m128@@T4@@Z 100104d0 f i RTreeCooking.obj
 0001:0000f530       ?Vec3V_From_Vec4V@aos@shdfnd@physx@@YA?AT__m128@@T4@@Z 10010530 f i RTreeCooking.obj
 0001:0000f580       ?Vec4V_From_FloatV@aos@shdfnd@physx@@YA?AT__m128@@T4@@Z 10010580 f i RTreeCooking.obj
 0001:0000f5c0       ?abs@intrinsics@physx@@YAMM@Z 100105c0 f i RTreeCooking.obj
 0001:0000f5e0       ?allocate@?$AlignedAllocator@$0IA@VNonTrackingAllocator@shdfnd@physx@@@shdfnd@physx@@QAEPAXIPBDH@Z 100105e0 f i RTreeCooking.obj
 0001:0000f660       ?allocate@?$Array@IVNamedAllocator@shdfnd@physx@@@shdfnd@physx@@IAEPAII@Z 10010660 f i RTreeCooking.obj
 0001:0000f6e0       ?allocate@?$Array@UInterval@physx@@V?$InlineAllocator@$0CA@VNamedAllocator@shdfnd@physx@@@shdfnd@2@@shdfnd@physx@@IAEPAUInterval@3@I@Z 100106e0 f i RTreeCooking.obj
 0001:0000f760       ?allocate@?$Array@UPxBounds3V@physx@@VNamedAllocator@shdfnd@2@@shdfnd@physx@@IAEPAUPxBounds3V@3@I@Z 10010760 f i RTreeCooking.obj
 0001:0000f7e0       ?allocate@?$Array@URTreeNodeNQ@physx@@VNamedAllocator@shdfnd@2@@shdfnd@physx@@IAEPAURTreeNodeNQ@3@I@Z 100107e0 f i RTreeCooking.obj
 0001:0000f860       ?allocate@?$Array@URTreeNodeQ@Gu@physx@@VNamedAllocator@shdfnd@3@@shdfnd@physx@@IAEPAURTreeNodeQ@Gu@3@I@Z 10010860 f i RTreeCooking.obj
 0001:0000f8e0       ?allocate@?$Array@VPxVec3@physx@@VNamedAllocator@shdfnd@2@@shdfnd@physx@@IAEPAVPxVec3@3@I@Z 100108e0 f i RTreeCooking.obj
 0001:0000f960       ?allocate@?$InlineAllocator@$0CA@VNamedAllocator@shdfnd@physx@@@shdfnd@physx@@QAEPAXIPBDH@Z 10010960 f i RTreeCooking.obj
 0001:0000f9b0       ?allocate@NonTrackingAllocator@shdfnd@physx@@QAEPAXIPBDH@Z 100109b0 f i RTreeCooking.obj
 0001:0000fa10       ?begin@?$Array@IVNamedAllocator@shdfnd@physx@@@shdfnd@physx@@QAEPAIXZ 10010a10 f i RTreeCooking.obj
 0001:0000fa30       ?begin@?$Array@UPxBounds3V@physx@@VNamedAllocator@shdfnd@2@@shdfnd@physx@@QAEPAUPxBounds3V@3@XZ 10010a30 f i RTreeCooking.obj
 0001:0000fa50       ?begin@?$Array@VPxVec3@physx@@VNamedAllocator@shdfnd@2@@shdfnd@physx@@QAEPAVPxVec3@3@XZ 10010a50 f i RTreeCooking.obj
 0001:0000fa70       ?capacity@?$Array@IVNamedAllocator@shdfnd@physx@@@shdfnd@physx@@QBEIXZ 10010a70 f i RTreeCooking.obj
 0001:0000fa90       ?capacity@?$Array@UInterval@physx@@V?$InlineAllocator@$0CA@VNamedAllocator@shdfnd@physx@@@shdfnd@2@@shdfnd@physx@@QBEIXZ 10010a90 f i RTreeCooking.obj
 0001:0000fab0       ?capacity@?$Array@UPxBounds3V@physx@@VNamedAllocator@shdfnd@2@@shdfnd@physx@@QBEIXZ 10010ab0 f i RTreeCooking.obj
 0001:0000fad0       ?capacity@?$Array@URTreeNodeNQ@physx@@VNamedAllocator@shdfnd@2@@shdfnd@physx@@QBEIXZ 10010ad0 f i RTreeCooking.obj
 0001:0000faf0       ?capacity@?$Array@URTreeNodeQ@Gu@physx@@VNamedAllocator@shdfnd@3@@shdfnd@physx@@QBEIXZ 10010af0 f i RTreeCooking.obj
 0001:0000fb10       ?capacity@?$Array@VPxVec3@physx@@VNamedAllocator@shdfnd@2@@shdfnd@physx@@QBEIXZ 10010b10 f i RTreeCooking.obj
 0001:0000fb30       ?capacityIncrement@?$Array@IVNamedAllocator@shdfnd@physx@@@shdfnd@physx@@IBEIXZ 10010b30 f i RTreeCooking.obj
 0001:0000fb70       ?capacityIncrement@?$Array@UInterval@physx@@V?$InlineAllocator@$0CA@VNamedAllocator@shdfnd@physx@@@shdfnd@2@@shdfnd@physx@@IBEIXZ 10010b70 f i RTreeCooking.obj
 0001:0000fbb0       ?capacityIncrement@?$Array@UPxBounds3V@physx@@VNamedAllocator@shdfnd@2@@shdfnd@physx@@IBEIXZ 10010bb0 f i RTreeCooking.obj
 0001:0000fbf0       ?capacityIncrement@?$Array@URTreeNodeNQ@physx@@VNamedAllocator@shdfnd@2@@shdfnd@physx@@IBEIXZ 10010bf0 f i RTreeCooking.obj
 0001:0000fc30       ?capacityIncrement@?$Array@URTreeNodeQ@Gu@physx@@VNamedAllocator@shdfnd@3@@shdfnd@physx@@IBEIXZ 10010c30 f i RTreeCooking.obj
 0001:0000fc70       ?capacityIncrement@?$Array@VPxVec3@physx@@VNamedAllocator@shdfnd@2@@shdfnd@physx@@IBEIXZ 10010c70 f i RTreeCooking.obj
 0001:0000fcb0       ?computeSA@SubSortSAH@physx@@QAEMPBIABUInterval@2@@Z 10010cb0 f i RTreeCooking.obj
 0001:0000fe30       ?copy@?$Array@IVNamedAllocator@shdfnd@physx@@@shdfnd@physx@@KAXPAI0PBI@Z 10010e30 f i RTreeCooking.obj
 0001:0000fee0       ?copy@?$Array@UInterval@physx@@V?$InlineAllocator@$0CA@VNamedAllocator@shdfnd@physx@@@shdfnd@2@@shdfnd@physx@@KAXPAUInterval@3@0PBU43@@Z 10010ee0 f i RTreeCooking.obj
 0001:0000ffa0       ?copy@?$Array@UPxBounds3V@physx@@VNamedAllocator@shdfnd@2@@shdfnd@physx@@KAXPAUPxBounds3V@3@0PBU43@@Z 10010fa0 f i RTreeCooking.obj
 0001:00010060       ?copy@?$Array@URTreeNodeNQ@physx@@VNamedAllocator@shdfnd@2@@shdfnd@physx@@KAXPAURTreeNodeNQ@3@0PBU43@@Z 10011060 f i RTreeCooking.obj
 0001:00010110       ?copy@?$Array@URTreeNodeQ@Gu@physx@@VNamedAllocator@shdfnd@3@@shdfnd@physx@@KAXPAURTreeNodeQ@Gu@3@0PBU453@@Z 10011110 f i RTreeCooking.obj
 0001:000101e0       ?copy@?$Array@VPxVec3@physx@@VNamedAllocator@shdfnd@2@@shdfnd@physx@@KAXPAVPxVec3@3@0PBV43@@Z 100111e0 f i RTreeCooking.obj
 0001:000102a0       ?create@?$Array@IVNamedAllocator@shdfnd@physx@@@shdfnd@physx@@KAXPAI0ABI@Z 100112a0 f i RTreeCooking.obj
 0001:00010350       ?deallocate@?$Array@IVNamedAllocator@shdfnd@physx@@@shdfnd@physx@@IAEXPAX@Z 10011350 f i RTreeCooking.obj
 0001:00010370       ?deallocate@?$Array@UInterval@physx@@V?$InlineAllocator@$0CA@VNamedAllocator@shdfnd@physx@@@shdfnd@2@@shdfnd@physx@@IAEXPAX@Z 10011370 f i RTreeCooking.obj
 0001:00010390       ?deallocate@?$Array@UPxBounds3V@physx@@VNamedAllocator@shdfnd@2@@shdfnd@physx@@IAEXPAX@Z 10011390 f i RTreeCooking.obj
 0001:000103b0       ?deallocate@?$Array@URTreeNodeNQ@physx@@VNamedAllocator@shdfnd@2@@shdfnd@physx@@IAEXPAX@Z 100113b0 f i RTreeCooking.obj
 0001:000103d0       ?deallocate@?$Array@URTreeNodeQ@Gu@physx@@VNamedAllocator@shdfnd@3@@shdfnd@physx@@IAEXPAX@Z 100113d0 f i RTreeCooking.obj
 0001:000103f0       ?deallocate@?$Array@VPxVec3@physx@@VNamedAllocator@shdfnd@2@@shdfnd@physx@@IAEXPAX@Z 100113f0 f i RTreeCooking.obj
 0001:00010410       ?deallocate@?$InlineAllocator@$0CA@VNamedAllocator@shdfnd@physx@@@shdfnd@physx@@QAEXPAX@Z 10011410 f i RTreeCooking.obj
 0001:00010450       ?destroy@?$Array@IVNamedAllocator@shdfnd@physx@@@shdfnd@physx@@KAXPAI0@Z 10011450 f i RTreeCooking.obj
 0001:00010480       ?destroy@?$Array@UInterval@physx@@V?$InlineAllocator@$0CA@VNamedAllocator@shdfnd@physx@@@shdfnd@2@@shdfnd@physx@@KAXPAUInterval@3@0@Z 10011480 f i RTreeCooking.obj
 0001:000104b0       ?destroy@?$Array@UPxBounds3V@physx@@VNamedAllocator@shdfnd@2@@shdfnd@physx@@KAXPAUPxBounds3V@3@0@Z 100114b0 f i RTreeCooking.obj
 0001:000104e0       ?destroy@?$Array@URTreeNodeNQ@physx@@VNamedAllocator@shdfnd@2@@shdfnd@physx@@KAXPAURTreeNodeNQ@3@0@Z 100114e0 f i RTreeCooking.obj
 0001:00010510       ?destroy@?$Array@URTreeNodeQ@Gu@physx@@VNamedAllocator@shdfnd@3@@shdfnd@physx@@KAXPAURTreeNodeQ@Gu@3@0@Z 10011510 f i RTreeCooking.obj
 0001:00010540       ?destroy@?$Array@VPxVec3@physx@@VNamedAllocator@shdfnd@2@@shdfnd@physx@@KAXPAVPxVec3@3@0@Z 10011540 f i RTreeCooking.obj
 0001:00010570       ?empty@?$Stack@VNamedAllocator@shdfnd@physx@@@internal@shdfnd@physx@@QAE_NXZ 10011570 f i RTreeCooking.obj
 0001:000105b0       ?empty@PxBounds3@physx@@SA?AV12@XZ 100115b0 f i RTreeCooking.obj
 0001:00010610       ?getExtents@PxBounds3V@physx@@QBE?AT__m128@@XZ 10011610 f i RTreeCooking.obj
 0001:00010670       ?getMaxVec3@PxBounds3V@physx@@QBE?BVPxVec3@2@XZ 10011670 f i RTreeCooking.obj
 0001:000106c0       ?getMinVec3@PxBounds3V@physx@@QBE?BVPxVec3@2@XZ 100116c0 f i RTreeCooking.obj
 0001:00010710       ?grow@?$Array@IVNamedAllocator@shdfnd@physx@@@shdfnd@physx@@IAEXI@Z 10011710 f i RTreeCooking.obj
 0001:00010790       ?grow@?$Array@UPxBounds3V@physx@@VNamedAllocator@shdfnd@2@@shdfnd@physx@@IAEXI@Z 10011790 f i RTreeCooking.obj
 0001:00010810       ?grow@?$Array@URTreeNodeNQ@physx@@VNamedAllocator@shdfnd@2@@shdfnd@physx@@IAEXI@Z 10011810 f i RTreeCooking.obj
 0001:00010890       ?grow@?$Array@URTreeNodeQ@Gu@physx@@VNamedAllocator@shdfnd@3@@shdfnd@physx@@IAEXI@Z 10011890 f i RTreeCooking.obj
 0001:00010910       ?grow@?$Array@VPxVec3@physx@@VNamedAllocator@shdfnd@2@@shdfnd@physx@@IAEXI@Z 10011910 f i RTreeCooking.obj
 0001:00010990       ?grow@?$Stack@VNamedAllocator@shdfnd@physx@@@internal@shdfnd@physx@@QAEXXZ 10011990 f i RTreeCooking.obj
 0001:00010a40       ?growAndPushBack@?$Array@IVNamedAllocator@shdfnd@physx@@@shdfnd@physx@@IAEAAIABI@Z 10011a40 f i RTreeCooking.obj
 0001:00010bd0       ?growAndPushBack@?$Array@UInterval@physx@@V?$InlineAllocator@$0CA@VNamedAllocator@shdfnd@physx@@@shdfnd@2@@shdfnd@physx@@IAEAAUInterval@3@ABU43@@Z 10011bd0 f i RTreeCooking.obj
 0001:00010d70       ?growAndPushBack@?$Array@UPxBounds3V@physx@@VNamedAllocator@shdfnd@2@@shdfnd@physx@@IAEAAUPxBounds3V@3@ABU43@@Z 10011d70 f i RTreeCooking.obj
 0001:00010f00       ?growAndPushBack@?$Array@URTreeNodeNQ@physx@@VNamedAllocator@shdfnd@2@@shdfnd@physx@@IAEAAURTreeNodeNQ@3@ABU43@@Z 10011f00 f i RTreeCooking.obj
 0001:00011090       ?growAndPushBack@?$Array@URTreeNodeQ@Gu@physx@@VNamedAllocator@shdfnd@3@@shdfnd@physx@@IAEAAURTreeNodeQ@Gu@3@ABU453@@Z 10012090 f i RTreeCooking.obj
 0001:00011220       ?growAndPushBack@?$Array@VPxVec3@physx@@VNamedAllocator@shdfnd@2@@shdfnd@physx@@IAEAAVPxVec3@3@ABV43@@Z 10012220 f i RTreeCooking.obj
 0001:000113a0       ?include@PxBounds3V@physx@@QAEXABU12@@Z 100123a0 f i RTreeCooking.obj
 0001:00011420       ?isAligned16@aos@shdfnd@physx@@YA_NPAX@Z 10012420 f i RTreeCooking.obj
 0001:00011450       ?isArrayOfPOD@?$Array@IVNamedAllocator@shdfnd@physx@@@shdfnd@physx@@SA_NXZ 10012450 f i RTreeCooking.obj
 0001:00011460       ?isArrayOfPOD@?$Array@UInterval@physx@@V?$InlineAllocator@$0CA@VNamedAllocator@shdfnd@physx@@@shdfnd@2@@shdfnd@physx@@SA_NXZ 10012460 f i RTreeCooking.obj
 0001:00011470       ?isArrayOfPOD@?$Array@UPxBounds3V@physx@@VNamedAllocator@shdfnd@2@@shdfnd@physx@@SA_NXZ 10012470 f i RTreeCooking.obj
 0001:00011480       ?isArrayOfPOD@?$Array@URTreeNodeNQ@physx@@VNamedAllocator@shdfnd@2@@shdfnd@physx@@SA_NXZ 10012480 f i RTreeCooking.obj
 0001:00011490       ?isArrayOfPOD@?$Array@URTreeNodeQ@Gu@physx@@VNamedAllocator@shdfnd@3@@shdfnd@physx@@SA_NXZ 10012490 f i RTreeCooking.obj
 0001:000114a0       ?isArrayOfPOD@?$Array@VPxVec3@physx@@VNamedAllocator@shdfnd@2@@shdfnd@physx@@SA_NXZ 100124a0 f i RTreeCooking.obj
 0001:000114b0       ?isFinite@PxBounds3@physx@@QBE_NXZ 100124b0 f i RTreeCooking.obj
 0001:00011510       ?isFinite@PxVec3@physx@@QBE_NXZ 10012510 f i RTreeCooking.obj
 0001:000115b0       ?isFinite@intrinsics@physx@@YA_NM@Z 100125b0 f i RTreeCooking.obj
 0001:00011600       ?isInUserMemory@?$Array@IVNamedAllocator@shdfnd@physx@@@shdfnd@physx@@QBEIXZ 10012600 f i RTreeCooking.obj
 0001:00011620       ?isInUserMemory@?$Array@UInterval@physx@@V?$InlineAllocator@$0CA@VNamedAllocator@shdfnd@physx@@@shdfnd@2@@shdfnd@physx@@QBEIXZ 10012620 f i RTreeCooking.obj
 0001:00011640       ?isInUserMemory@?$Array@UPxBounds3V@physx@@VNamedAllocator@shdfnd@2@@shdfnd@physx@@QBEIXZ 10012640 f i RTreeCooking.obj
 0001:00011660       ?isInUserMemory@?$Array@URTreeNodeNQ@physx@@VNamedAllocator@shdfnd@2@@shdfnd@physx@@QBEIXZ 10012660 f i RTreeCooking.obj
 0001:00011680       ?isInUserMemory@?$Array@URTreeNodeQ@Gu@physx@@VNamedAllocator@shdfnd@3@@shdfnd@physx@@QBEIXZ 10012680 f i RTreeCooking.obj
 0001:000116a0       ?isInUserMemory@?$Array@VPxVec3@physx@@VNamedAllocator@shdfnd@2@@shdfnd@physx@@QBEIXZ 100126a0 f i RTreeCooking.obj
 0001:000116c0       ?isInside@PxBounds3@physx@@QBE_NABV12@@Z 100126c0 f i RTreeCooking.obj
 0001:000117e0       ?isLeaf@RTreeNodeQ@Gu@physx@@QBEIXZ 100127e0 f i RTreeCooking.obj
 0001:00011800       ?isValid@PxBounds3@physx@@QBE_NXZ 10012800 f i RTreeCooking.obj
 0001:00011920       ?isValidFloatV@aos@shdfnd@physx@@YA_NT__m128@@@Z 10012920 f i RTreeCooking.obj
 0001:00011af0       ?isValidVec3V@aos@shdfnd@physx@@YA_NT__m128@@@Z 10012af0 f i RTreeCooking.obj
 0001:00011b70       ?isZeroInit@?$Array@IVNamedAllocator@shdfnd@physx@@@shdfnd@physx@@KA_NABI@Z 10012b70 f i RTreeCooking.obj
 0001:00011bd0       ?memCopy@intrinsics@physx@@YAPAXPIAXPIBXI@Z 10012bd0 f i RTreeCooking.obj
 0001:00011bf0       ?memZero@intrinsics@physx@@YAPAXPAXI@Z 10012bf0 f i RTreeCooking.obj
 0001:00011c10       ?pop@?$Stack@VNamedAllocator@shdfnd@physx@@@internal@shdfnd@physx@@QAEXAAH0@Z 10012c10 f i RTreeCooking.obj
 0001:00011ce0       ?popBack@?$Array@IVNamedAllocator@shdfnd@physx@@@shdfnd@physx@@QAEIXZ 10012ce0 f i RTreeCooking.obj
 0001:00011da0       ?push@?$Stack@VNamedAllocator@shdfnd@physx@@@internal@shdfnd@physx@@QAEXHH@Z 10012da0 f i RTreeCooking.obj
 0001:00011e30       ?pushBack@?$Array@IVNamedAllocator@shdfnd@physx@@@shdfnd@physx@@QAEAAIABI@Z 10012e30 f i RTreeCooking.obj
 0001:00011ee0       ?pushBack@?$Array@UInterval@physx@@V?$InlineAllocator@$0CA@VNamedAllocator@shdfnd@physx@@@shdfnd@2@@shdfnd@physx@@QAEAAUInterval@3@ABU43@@Z 10012ee0 f i RTreeCooking.obj
 0001:00011fa0       ?pushBack@?$Array@UPxBounds3V@physx@@VNamedAllocator@shdfnd@2@@shdfnd@physx@@QAEAAUPxBounds3V@3@ABU43@@Z 10012fa0 f i RTreeCooking.obj
 0001:00012060       ?pushBack@?$Array@URTreeNodeNQ@physx@@VNamedAllocator@shdfnd@2@@shdfnd@physx@@QAEAAURTreeNodeNQ@3@ABU43@@Z 10013060 f i RTreeCooking.obj
 0001:00012110       ?pushBack@?$Array@URTreeNodeQ@Gu@physx@@VNamedAllocator@shdfnd@3@@shdfnd@physx@@QAEAAURTreeNodeQ@Gu@3@ABU453@@Z 10013110 f i RTreeCooking.obj
 0001:000121d0       ?pushBack@?$Array@VPxVec3@physx@@VNamedAllocator@shdfnd@2@@shdfnd@physx@@QAEAAVPxVec3@3@ABV43@@Z 100131d0 f i RTreeCooking.obj
 0001:00012280       ?recreate@?$Array@IVNamedAllocator@shdfnd@physx@@@shdfnd@physx@@IAEXI@Z 10013280 f i RTreeCooking.obj
 0001:00012390       ?recreate@?$Array@UPxBounds3V@physx@@VNamedAllocator@shdfnd@2@@shdfnd@physx@@IAEXI@Z 10013390 f i RTreeCooking.obj
 0001:000124a0       ?recreate@?$Array@URTreeNodeNQ@physx@@VNamedAllocator@shdfnd@2@@shdfnd@physx@@IAEXI@Z 100134a0 f i RTreeCooking.obj
 0001:000125b0       ?recreate@?$Array@URTreeNodeQ@Gu@physx@@VNamedAllocator@shdfnd@3@@shdfnd@physx@@IAEXI@Z 100135b0 f i RTreeCooking.obj
 0001:000126b0       ?recreate@?$Array@VPxVec3@physx@@VNamedAllocator@shdfnd@2@@shdfnd@physx@@IAEXI@Z 100136b0 f i RTreeCooking.obj
 0001:000127b0       ?replaceWithLast@?$Array@UInterval@physx@@V?$InlineAllocator@$0CA@VNamedAllocator@shdfnd@physx@@@shdfnd@2@@shdfnd@physx@@QAEXI@Z 100137b0 f i RTreeCooking.obj
 0001:00012860       ?reserve@?$Array@IVNamedAllocator@shdfnd@physx@@@shdfnd@physx@@QAEXI@Z 10013860 f i RTreeCooking.obj
 0001:00012890       ?reserve@?$Array@UPxBounds3V@physx@@VNamedAllocator@shdfnd@2@@shdfnd@physx@@QAEXI@Z 10013890 f i RTreeCooking.obj
 0001:000128c0       ?reserve@?$Array@URTreeNodeNQ@physx@@VNamedAllocator@shdfnd@2@@shdfnd@physx@@QAEXI@Z 100138c0 f i RTreeCooking.obj
 0001:000128f0       ?reserve@?$Array@URTreeNodeQ@Gu@physx@@VNamedAllocator@shdfnd@3@@shdfnd@physx@@QAEXI@Z 100138f0 f i RTreeCooking.obj
 0001:00012920       ?reserve@?$Array@VPxVec3@physx@@VNamedAllocator@shdfnd@2@@shdfnd@physx@@QAEXI@Z 10013920 f i RTreeCooking.obj
 0001:00012950       ?resize@?$Array@IVNamedAllocator@shdfnd@physx@@@shdfnd@physx@@QAEXIABI@Z 10013950 f i RTreeCooking.obj
 0001:000129e0       ?resizeUninitialized@?$Array@URTreeNodeNQ@physx@@VNamedAllocator@shdfnd@2@@shdfnd@physx@@QAEXI@Z 100139e0 f i RTreeCooking.obj
 0001:00012a10       ?selectMax@intrinsics@physx@@YAMMM@Z 10013a10 f i RTreeCooking.obj
 0001:00012a50       ?selectMin@intrinsics@physx@@YAMMM@Z 10013a50 f i RTreeCooking.obj
 0001:00012a90       ?setEmpty@PxBounds3@physx@@QAEXXZ 10013a90 f i RTreeCooking.obj
 0001:00012b00       ?setLeaf@RTreeNodeQ@Gu@physx@@QAEX_N@Z 10013b00 f i RTreeCooking.obj
 0001:00012b50       ?size@?$Array@IVNamedAllocator@shdfnd@physx@@@shdfnd@physx@@QBEIXZ 10013b50 f i RTreeCooking.obj
 0001:00012b70       ?size@?$Array@UInterval@physx@@V?$InlineAllocator@$0CA@VNamedAllocator@shdfnd@physx@@@shdfnd@2@@shdfnd@physx@@QBEIXZ 10013b70 f i RTreeCooking.obj
 0001:00012b90       ?size@?$Array@URTreeNodeNQ@physx@@VNamedAllocator@shdfnd@2@@shdfnd@physx@@QBEIXZ 10013b90 f i RTreeCooking.obj
 0001:00012bb0       ?size@?$Array@URTreeNodeQ@Gu@physx@@VNamedAllocator@shdfnd@3@@shdfnd@physx@@QBEIXZ 10013bb0 f i RTreeCooking.obj
 0001:00012bd0       ?size@?$Array@VPxVec3@physx@@VNamedAllocator@shdfnd@2@@shdfnd@physx@@QBEIXZ 10013bd0 f i RTreeCooking.obj
 0001:00012bf0       ?sort4@SubSortQuick@physx@@QAEXPIAIIAAV?$Array@URTreeNodeNQ@physx@@VNamedAllocator@shdfnd@2@@shdfnd@2@AAIAAUPxBounds3V@2@I@Z 10013bf0 f i RTreeCooking.obj
 0001:00013460       ?sort4@SubSortSAH@physx@@QAEXPAIIAAV?$Array@URTreeNodeNQ@physx@@VNamedAllocator@shdfnd@2@@shdfnd@2@AAIIPAURTreeNodeNQ@2@@Z 10014460 f i RTreeCooking.obj
 0001:00014210       ?split@SubSortSAH@physx@@QAEIPAII@Z 10015210 f i RTreeCooking.obj
 0001:00014e90       _fabsf                     10015e90 f i RTreeCooking.obj
 0001:00014ec0       ??0TriangleMeshBuilder@physx@@QAE@AAVTriangleMeshData@Gu@1@ABUPxCookingParams@1@@Z 10015ec0 f   TriangleMeshBuilder.obj
 0001:00014f00       ??1TriangleMeshBuilder@physx@@UAE@XZ 10015f00 f   TriangleMeshBuilder.obj
 0001:00014f20       ?cleanMesh@TriangleMeshBuilder@physx@@QAE_N_NPAW4Enum@PxTriangleMeshCookingResult@2@@Z 10015f20 f   TriangleMeshBuilder.obj
 0001:000154c0       ?remapTopology@TriangleMeshBuilder@physx@@QAEXPBI@Z 100164c0 f   TriangleMeshBuilder.obj
 0001:00015760       ?createSharedEdgeData@TriangleMeshBuilder@physx@@QAEX_N0@Z 10016760 f   TriangleMeshBuilder.obj
 0001:00015d50       ?recordTriangleIndices@TriangleMeshBuilder@physx@@QAEXXZ 10016d50 f   TriangleMeshBuilder.obj
 0001:00015ea0       ?createGRBMidPhaseAndData@TriangleMeshBuilder@physx@@QAEXI@Z 10016ea0 f   TriangleMeshBuilder.obj
 0001:000160f0       ?createGRBData@TriangleMeshBuilder@physx@@QAEXXZ 100170f0 f   TriangleMeshBuilder.obj
 0001:000163a0       ?loadFromDesc@TriangleMeshBuilder@physx@@QAE_NABVPxTriangleMeshDesc@2@PAW4Enum@PxTriangleMeshCookingResult@2@_N@Z 100173a0 f   TriangleMeshBuilder.obj
 0001:000165a0       ?save@TriangleMeshBuilder@physx@@QBE_NAAVPxOutputStream@2@_NABUPxCookingParams@2@@Z 100175a0 f   TriangleMeshBuilder.obj
 0001:00016cb0       ?checkMeshIndicesSize@TriangleMeshBuilder@physx@@QAEXXZ 10017cb0 f   TriangleMeshBuilder.obj
 0001:00016e40       ?computeLocalBounds@TriangleMeshBuilder@physx@@IAEXXZ 10017e40 f   TriangleMeshBuilder.obj
 0001:00016f50       ?importMesh@TriangleMeshBuilder@physx@@IAE_NABVPxTriangleMeshDesc@2@ABUPxCookingParams@2@PAW4Enum@PxTriangleMeshCookingResult@2@_N@Z 10017f50 f   TriangleMeshBuilder.obj
 0001:000173c0       ?releaseEdgeList@TriangleMeshBuilder@physx@@IAEXXZ 100183c0 f   TriangleMeshBuilder.obj
 0001:00017410       ?createEdgeList@TriangleMeshBuilder@physx@@IAEXXZ 10018410 f   TriangleMeshBuilder.obj
 0001:00017520       ??0RTreeTriangleMeshBuilder@physx@@QAE@ABUPxCookingParams@1@@Z 10018520 f   TriangleMeshBuilder.obj
 0001:00017560       ??1RTreeTriangleMeshBuilder@physx@@UAE@XZ 10018560 f   TriangleMeshBuilder.obj
 0001:00017590       ?createMidPhaseStructure@RTreeTriangleMeshBuilder@physx@@UAEXXZ 10018590 f   TriangleMeshBuilder.obj
 0001:00017740       ?saveMidPhaseStructure@RTreeTriangleMeshBuilder@physx@@UBEXAAVPxOutputStream@2@@Z 10018740 f   TriangleMeshBuilder.obj
 0001:00017770       ??0BV4TriangleMeshBuilder@physx@@QAE@ABUPxCookingParams@1@@Z 10018770 f   TriangleMeshBuilder.obj
 0001:000177b0       ??1BV4TriangleMeshBuilder@physx@@UAE@XZ 100187b0 f   TriangleMeshBuilder.obj
 0001:000177e0       ?createMidPhaseStructure@BV4TriangleMeshBuilder@physx@@UAEXXZ 100187e0 f   TriangleMeshBuilder.obj
 0001:00017af0       ?saveMidPhaseStructure@BV4TriangleMeshBuilder@physx@@UBEXAAVPxOutputStream@2@@Z 10018af0 f   TriangleMeshBuilder.obj
 0001:00017d50       ?onMeshIndexFormatChange@BV4TriangleMeshBuilder@physx@@UAEXXZ 10018d50 f   TriangleMeshBuilder.obj
 0001:00017dc0       ?createMidPhaseStructure@BV32TriangleMeshBuilder@physx@@SAXABUPxCookingParams@2@AAVTriangleMeshData@Gu@2@AAVBV32Tree@52@@Z 10018dc0 f   TriangleMeshBuilder.obj
 0001:00017fc0       ?saveMidPhaseStructure@BV32TriangleMeshBuilder@physx@@SAXPAVBV32Tree@Gu@2@AAVPxOutputStream@2@@Z 10018fc0 f   TriangleMeshBuilder.obj
 0001:00018740       ?findSharpVertices@GrbTrimeshCookerHelper@physx@@YAXAAV?$Array@USortedNeighbor@GrbTrimeshCookerHelper@physx@@VNamedAllocator@shdfnd@3@@shdfnd@2@AAV?$Array@USharpEdgeRange@GrbTrimeshCookerHelper@physx@@VNamedAllocator@shdfnd@3@@42@PBUuint3@2@PBUuint4@2@II@Z 10019740 f   TriangleMeshBuilder.obj
 0001:00018ad0       ?buildVertexConnectionNew_p1@GrbTrimeshCookerHelper@physx@@YAIAAV?$Array@USortedNeighbor@GrbTrimeshCookerHelper@physx@@VNamedAllocator@shdfnd@3@@shdfnd@2@AAV?$Array@USharpEdgeRange@GrbTrimeshCookerHelper@physx@@VNamedAllocator@shdfnd@3@@42@PBUuint3@2@PBUuint4@2@II@Z 10019ad0 f   TriangleMeshBuilder.obj
 0001:00018b40       ?buildVertexConnectionNew_p2@GrbTrimeshCookerHelper@physx@@YAXPAI00AAV?$Array@USortedNeighbor@GrbTrimeshCookerHelper@physx@@VNamedAllocator@shdfnd@3@@shdfnd@2@AAV?$Array@USharpEdgeRange@GrbTrimeshCookerHelper@physx@@VNamedAllocator@shdfnd@3@@42@I@Z 10019b40 f   TriangleMeshBuilder.obj
 0001:00019e30       ??$?2V?$ReflectionAllocator@VBV32Tree@Gu@physx@@@shdfnd@physx@@@UserAllocated@shdfnd@physx@@SAPAXIV?$ReflectionAllocator@VBV32Tree@Gu@physx@@@12@PBDH@Z 1001ae30 f i TriangleMeshBuilder.obj
 0001:00019e50       ??$?2V?$ReflectionAllocator@VEdgeListBuilder@Gu@physx@@@shdfnd@physx@@@UserAllocated@shdfnd@physx@@SAPAXIV?$ReflectionAllocator@VEdgeListBuilder@Gu@physx@@@12@PBDH@Z 1001ae50 f i TriangleMeshBuilder.obj
 0001:00019e70       ??$?_UE@@YAPAXIV?$ReflectionAllocator@E@shdfnd@physx@@PBDH@Z 1001ae70 f i TriangleMeshBuilder.obj
 0001:00019e90       ??$?_UG@@YAPAXIV?$ReflectionAllocator@G@shdfnd@physx@@PBDH@Z 1001ae90 f i TriangleMeshBuilder.obj
 0001:00019eb0       ??$?_UI@@YAPAXIV?$ReflectionAllocator@I@shdfnd@physx@@PBDH@Z 1001aeb0 f i TriangleMeshBuilder.obj
 0001:00019ed0       ??$PX_UNUSED@U?$TriangleT@I@Gu@physx@@@@YAXABU?$TriangleT@I@Gu@physx@@@Z 1001aed0 f i TriangleMeshBuilder.obj
 0001:00019ee0       ??$median3@UEdgeTriLookup@physx@@$$CBU?$Less@UEdgeTriLookup@physx@@@shdfnd@2@@internal@shdfnd@physx@@YAXPAUEdgeTriLookup@2@HHABU?$Less@UEdgeTriLookup@physx@@@12@@Z 1001aee0 f i TriangleMeshBuilder.obj
 0001:00019ff0       ??$median3@USortedNeighbor@GrbTrimeshCookerHelper@physx@@$$CBU?$Less@USortedNeighbor@GrbTrimeshCookerHelper@physx@@@shdfnd@3@@internal@shdfnd@physx@@YAXPAUSortedNeighbor@GrbTrimeshCookerHelper@2@HHABU?$Less@USortedNeighbor@GrbTrimeshCookerHelper@physx@@@12@@Z 1001aff0 f i TriangleMeshBuilder.obj
 0001:0001a100       ??$partition@UEdgeTriLookup@physx@@$$CBU?$Less@UEdgeTriLookup@physx@@@shdfnd@2@@internal@shdfnd@physx@@YAHPAUEdgeTriLookup@2@HHABU?$Less@UEdgeTriLookup@physx@@@12@@Z 1001b100 f i TriangleMeshBuilder.obj
 0001:0001a2c0       ??$partition@USortedNeighbor@GrbTrimeshCookerHelper@physx@@$$CBU?$Less@USortedNeighbor@GrbTrimeshCookerHelper@physx@@@shdfnd@3@@internal@shdfnd@physx@@YAHPAUSortedNeighbor@GrbTrimeshCookerHelper@2@HHABU?$Less@USortedNeighbor@GrbTrimeshCookerHelper@physx@@@12@@Z 1001b2c0 f i TriangleMeshBuilder.obj
 0001:0001a480       ??$smallSort@UEdgeTriLookup@physx@@$$CBU?$Less@UEdgeTriLookup@physx@@@shdfnd@2@@internal@shdfnd@physx@@YAXPAUEdgeTriLookup@2@HHABU?$Less@UEdgeTriLookup@physx@@@12@@Z 1001b480 f i TriangleMeshBuilder.obj
 0001:0001a540       ??$smallSort@USortedNeighbor@GrbTrimeshCookerHelper@physx@@$$CBU?$Less@USortedNeighbor@GrbTrimeshCookerHelper@physx@@@shdfnd@3@@internal@shdfnd@physx@@YAXPAUSortedNeighbor@GrbTrimeshCookerHelper@2@HHABU?$Less@USortedNeighbor@GrbTrimeshCookerHelper@physx@@@12@@Z 1001b540 f i TriangleMeshBuilder.obj
 0001:0001a600       ??$sort@UEdgeTriLookup@physx@@@shdfnd@physx@@YAXPAUEdgeTriLookup@1@I@Z 1001b600 f i TriangleMeshBuilder.obj
 0001:0001a640       ??$sort@UEdgeTriLookup@physx@@U?$Less@UEdgeTriLookup@physx@@@shdfnd@2@VNamedAllocator@42@@shdfnd@physx@@YAXPAUEdgeTriLookup@1@IABU?$Less@UEdgeTriLookup@physx@@@01@ABVNamedAllocator@01@I@Z 1001b640 f i TriangleMeshBuilder.obj
 0001:0001a900       ??$sort@USortedNeighbor@GrbTrimeshCookerHelper@physx@@@shdfnd@physx@@YAXPAUSortedNeighbor@GrbTrimeshCookerHelper@1@I@Z 1001b900 f i TriangleMeshBuilder.obj
 0001:0001a940       ??$sort@USortedNeighbor@GrbTrimeshCookerHelper@physx@@U?$Less@USortedNeighbor@GrbTrimeshCookerHelper@physx@@@shdfnd@3@VNamedAllocator@53@@shdfnd@physx@@YAXPAUSortedNeighbor@GrbTrimeshCookerHelper@1@IABU?$Less@USortedNeighbor@GrbTrimeshCookerHelper@physx@@@01@ABVNamedAllocator@01@I@Z 1001b940 f i TriangleMeshBuilder.obj
 0001:0001ac00       ??$swap@UEdgeTriLookup@physx@@@shdfnd@physx@@YAXAAUEdgeTriLookup@1@0@Z 1001bc00 f i TriangleMeshBuilder.obj
 0001:0001ac60       ??$swap@USortedNeighbor@GrbTrimeshCookerHelper@physx@@@shdfnd@physx@@YAXAAUSortedNeighbor@GrbTrimeshCookerHelper@1@0@Z 1001bc60 f i TriangleMeshBuilder.obj
 0001:0001acc0       ??0?$Array@IVNamedAllocator@shdfnd@physx@@@shdfnd@physx@@QAE@ABVNamedAllocator@12@@Z 1001bcc0 f i TriangleMeshBuilder.obj
 0001:0001ad10       ??0?$Array@USharpEdgeRange@GrbTrimeshCookerHelper@physx@@VNamedAllocator@shdfnd@3@@shdfnd@physx@@QAE@ABVNamedAllocator@12@@Z 1001bd10 f i TriangleMeshBuilder.obj
 0001:0001ad60       ??0?$Array@USortedNeighbor@GrbTrimeshCookerHelper@physx@@VNamedAllocator@shdfnd@3@@shdfnd@physx@@QAE@ABVNamedAllocator@12@@Z 1001bd60 f i TriangleMeshBuilder.obj
 0001:0001adb0       ??0?$PxFlags@W4Enum@PxMeshFlag@physx@@G@physx@@QAE@ABV01@@Z 1001bdb0 f i TriangleMeshBuilder.obj
 0001:0001ade0       ??0?$PxFlags@W4Enum@PxMeshFlag@physx@@G@physx@@QAE@W4Enum@PxMeshFlag@1@@Z 1001bde0 f i TriangleMeshBuilder.obj
 0001:0001ae00       ??0?$PxFlags@W4Enum@PxMeshFlag@physx@@G@physx@@QAE@XZ 1001be00 f i TriangleMeshBuilder.obj
 0001:0001ae20       ??0?$PxFlags@W4Enum@PxMeshPreprocessingFlag@physx@@I@physx@@QAE@ABV01@@Z 1001be20 f i TriangleMeshBuilder.obj
 0001:0001ae40       ??0?$ReflectionAllocator@E@shdfnd@physx@@QAE@PBD@Z 1001be40 f i TriangleMeshBuilder.obj
 0001:0001ae60       ??0?$ReflectionAllocator@G@shdfnd@physx@@QAE@PBD@Z 1001be60 f i TriangleMeshBuilder.obj
 0001:0001ae80       ??0?$ReflectionAllocator@I@shdfnd@physx@@QAE@PBD@Z 1001be80 f i TriangleMeshBuilder.obj
 0001:0001aea0       ??0?$ReflectionAllocator@VBV32Tree@Gu@physx@@@shdfnd@physx@@QAE@PBD@Z 1001bea0 f i TriangleMeshBuilder.obj
 0001:0001aec0       ??0?$ReflectionAllocator@VEdgeListBuilder@Gu@physx@@@shdfnd@physx@@QAE@PBD@Z 1001bec0 f i TriangleMeshBuilder.obj
 0001:0001aee0       ??0BV4TriangleData@Gu@physx@@QAE@XZ 1001bee0 f i TriangleMeshBuilder.obj
 0001:0001af40       ??0EDGELISTCREATE@Gu@physx@@QAE@XZ 1001bf40 f i TriangleMeshBuilder.obj
 0001:0001afb0       ??0PxPlane@physx@@QAE@ABVPxVec3@1@0@Z 1001bfb0 f i TriangleMeshBuilder.obj
 0001:0001b010       ??0PxSimpleTriangleMesh@physx@@QAE@ABV01@@Z 1001c010 f i TriangleMeshBuilder.obj
 0001:0001b080       ??0PxTriangleMeshDesc@physx@@QAE@ABV01@@Z 1001c080 f i TriangleMeshBuilder.obj
 0001:0001b0c0       ??0PxVec4@physx@@QAE@XZ    1001c0c0 f i TriangleMeshBuilder.obj
 0001:0001b0e0       ??0RTree@Gu@physx@@QAE@XZ  1001c0e0 f i TriangleMeshBuilder.obj
 0001:0001b170       ??0RTreeCookerRemap@physx@@QAE@I@Z 1001c170 f i TriangleMeshBuilder.obj
 0001:0001b1b0       ??0RTreeTriangleData@Gu@physx@@QAE@XZ 1001c1b0 f i TriangleMeshBuilder.obj
 0001:0001b200       ??0RemapCallback@RTreeCooker@physx@@QAE@XZ 1001c200 f i TriangleMeshBuilder.obj
 0001:0001b220       ??0SharpEdgeRange@GrbTrimeshCookerHelper@physx@@QAE@II@Z 1001c220 f i TriangleMeshBuilder.obj
 0001:0001b250       ??0SharpEdgeRange@GrbTrimeshCookerHelper@physx@@QAE@XZ 1001c250 f i TriangleMeshBuilder.obj
 0001:0001b280       ??0SortedNeighbor@GrbTrimeshCookerHelper@physx@@QAE@II_N@Z 1001c280 f i TriangleMeshBuilder.obj
 0001:0001b2c0       ??0TriangleMeshData@Gu@physx@@QAE@XZ 1001c2c0 f i TriangleMeshBuilder.obj
 0001:0001b3d0       ??1?$Array@USharpEdgeRange@GrbTrimeshCookerHelper@physx@@VNamedAllocator@shdfnd@3@@shdfnd@physx@@QAE@XZ 1001c3d0 f i TriangleMeshBuilder.obj
 0001:0001b440       ??1?$Array@USortedNeighbor@GrbTrimeshCookerHelper@physx@@VNamedAllocator@shdfnd@3@@shdfnd@physx@@QAE@XZ 1001c440 f i TriangleMeshBuilder.obj
 0001:0001b4b0       ??1BV4TriangleData@Gu@physx@@UAE@XZ 1001c4b0 f i TriangleMeshBuilder.obj
 0001:0001b500       ??1RTree@Gu@physx@@QAE@XZ  1001c500 f i TriangleMeshBuilder.obj
 0001:0001b520       ??1RTreeCookerRemap@physx@@UAE@XZ 1001c520 f i TriangleMeshBuilder.obj
 0001:0001b540       ??1RTreeTriangleData@Gu@physx@@UAE@XZ 1001c540 f i TriangleMeshBuilder.obj
 0001:0001b570       ??1RemapCallback@RTreeCooker@physx@@UAE@XZ 1001c570 f i TriangleMeshBuilder.obj
 0001:0001b590       ??1TriangleMeshData@Gu@physx@@UAE@XZ 1001c590 f i TriangleMeshBuilder.obj
 0001:0001b860       ??3UserAllocated@shdfnd@physx@@SAXPAX@Z 1001c860 f i TriangleMeshBuilder.obj
 0001:0001b890       ??A?$Array@USharpEdgeRange@GrbTrimeshCookerHelper@physx@@VNamedAllocator@shdfnd@3@@shdfnd@physx@@QAEAAUSharpEdgeRange@GrbTrimeshCookerHelper@2@I@Z 1001c890 f i TriangleMeshBuilder.obj
 0001:0001b900       ??A?$Array@USortedNeighbor@GrbTrimeshCookerHelper@physx@@VNamedAllocator@shdfnd@3@@shdfnd@physx@@QAEAAUSortedNeighbor@GrbTrimeshCookerHelper@2@I@Z 1001c900 f i TriangleMeshBuilder.obj
 0001:0001b970       ??APxVec3@physx@@QAEAAMI@Z 1001c970 f i TriangleMeshBuilder.obj
 0001:0001b9e0       ??B?$PxFlags@W4Enum@PxMeshFlag@physx@@G@physx@@QBE_NXZ 1001c9e0 f i TriangleMeshBuilder.obj
 0001:0001ba10       ??B?$PxFlags@W4Enum@PxMeshPreprocessingFlag@physx@@I@physx@@QBE_NXZ 1001ca10 f i TriangleMeshBuilder.obj
 0001:0001ba40       ??DPxVec3@physx@@QBE?AV01@M@Z 1001ca40 f i TriangleMeshBuilder.obj
 0001:0001bab0       ??GPxVec3@physx@@QBE?AV01@ABV01@@Z 1001cab0 f i TriangleMeshBuilder.obj
 0001:0001bb20       ??I?$PxFlags@W4Enum@PxMeshFlag@physx@@G@physx@@QBE?AV01@W4Enum@PxMeshFlag@1@@Z 1001cb20 f i TriangleMeshBuilder.obj
 0001:0001bb70       ??I?$PxFlags@W4Enum@PxMeshPreprocessingFlag@physx@@I@physx@@QBE?AV01@W4Enum@PxMeshPreprocessingFlag@1@@Z 1001cb70 f i TriangleMeshBuilder.obj
 0001:0001bbb0       ??MEdgeTriLookup@physx@@QBE_NABU01@@Z 1001cbb0 f i TriangleMeshBuilder.obj
 0001:0001bc10       ??MSortedNeighbor@GrbTrimeshCookerHelper@physx@@QBE_NABU012@@Z 1001cc10 f i TriangleMeshBuilder.obj
 0001:0001bcb0       ??NEdgeTriLookup@physx@@QBE_NABU01@@Z 1001ccb0 f i TriangleMeshBuilder.obj
 0001:0001bd10       ??R?$Less@UEdgeTriLookup@physx@@@shdfnd@physx@@QBE_NABUEdgeTriLookup@2@0@Z 1001cd10 f i TriangleMeshBuilder.obj
 0001:0001bd30       ??R?$Less@USortedNeighbor@GrbTrimeshCookerHelper@physx@@@shdfnd@physx@@QBE_NABUSortedNeighbor@GrbTrimeshCookerHelper@2@0@Z 1001cd30 f i TriangleMeshBuilder.obj
 0001:0001bd50       ??S?$PxFlags@W4Enum@PxMeshFlag@physx@@G@physx@@QBE?AV01@XZ 1001cd50 f i TriangleMeshBuilder.obj
 0001:0001bd90       ??Sphysx@@YA?AV?$PxFlags@W4Enum@PxMeshFlag@physx@@G@0@W4Enum@PxMeshFlag@0@@Z 1001cd90 f i TriangleMeshBuilder.obj
 0001:0001bdc0       ??_4?$PxFlags@W4Enum@PxMeshFlag@physx@@G@physx@@QAEAAV01@ABV01@@Z 1001cdc0 f i TriangleMeshBuilder.obj
 0001:0001bdf0       ??_GBV32Tree@Gu@physx@@QAEPAXI@Z 1001cdf0 f i TriangleMeshBuilder.obj
 0001:0001be50       ??_EBV4TriangleData@Gu@physx@@UAEPAXI@Z 1001ce50 f i TriangleMeshBuilder.obj
 0001:0001be50       ??_GBV4TriangleData@Gu@physx@@UAEPAXI@Z 1001ce50 f i TriangleMeshBuilder.obj
 0001:0001beb0       ??_GBV4TriangleMeshBuilder@physx@@UAEPAXI@Z 1001ceb0 f i TriangleMeshBuilder.obj
 0001:0001beb0       ??_EBV4TriangleMeshBuilder@physx@@UAEPAXI@Z 1001ceb0 f i TriangleMeshBuilder.obj
 0001:0001bef0       ??_GEdgeListBuilder@Gu@physx@@QAEPAXI@Z 1001cef0 f i TriangleMeshBuilder.obj
 0001:0001bf50       ??_GRTreeCookerRemap@physx@@UAEPAXI@Z 1001cf50 f i TriangleMeshBuilder.obj
 0001:0001bf50       ??_ERTreeCookerRemap@physx@@UAEPAXI@Z 1001cf50 f i TriangleMeshBuilder.obj
 0001:0001bf90       ??_ERTreeTriangleData@Gu@physx@@UAEPAXI@Z 1001cf90 f i TriangleMeshBuilder.obj
 0001:0001bf90       ??_GRTreeTriangleData@Gu@physx@@UAEPAXI@Z 1001cf90 f i TriangleMeshBuilder.obj
 0001:0001bff0       ??_GRTreeTriangleMeshBuilder@physx@@UAEPAXI@Z 1001cff0 f i TriangleMeshBuilder.obj
 0001:0001bff0       ??_ERTreeTriangleMeshBuilder@physx@@UAEPAXI@Z 1001cff0 f i TriangleMeshBuilder.obj
 0001:0001c030       ??_ERemapCallback@RTreeCooker@physx@@UAEPAXI@Z 1001d030 f i TriangleMeshBuilder.obj
 0001:0001c030       ??_GRemapCallback@RTreeCooker@physx@@UAEPAXI@Z 1001d030 f i TriangleMeshBuilder.obj
 0001:0001c070       ??_GTriangleMeshBuilder@physx@@UAEPAXI@Z 1001d070 f i TriangleMeshBuilder.obj
 0001:0001c070       ??_ETriangleMeshBuilder@physx@@UAEPAXI@Z 1001d070 f i TriangleMeshBuilder.obj
 0001:0001c0b0       ??_GTriangleMeshData@Gu@physx@@UAEPAXI@Z 1001d0b0 f i TriangleMeshBuilder.obj
 0001:0001c0b0       ??_ETriangleMeshData@Gu@physx@@UAEPAXI@Z 1001d0b0 f i TriangleMeshBuilder.obj
 0001:0001c110       ?HasActiveEdge01@EdgeTriangleAC@Gu@physx@@SAHABUEdgeTriangleData@23@@Z 1001d110 f i TriangleMeshBuilder.obj
 0001:0001c130       ?HasActiveEdge12@EdgeTriangleAC@Gu@physx@@SAHABUEdgeTriangleData@23@@Z 1001d130 f i TriangleMeshBuilder.obj
 0001:0001c150       ?HasActiveEdge20@EdgeTriangleAC@Gu@physx@@SAHABUEdgeTriangleData@23@@Z 1001d150 f i TriangleMeshBuilder.obj
 0001:0001c170       ?LeafSetData@Gu@physx@@YAIII@Z 1001d170 f i TriangleMeshBuilder.obj
 0001:0001c240       ?PxRecipSqrt@physx@@YAMM@Z 1001d240 f i TriangleMeshBuilder.obj
 0001:0001c260       ?SetData@LeafTriangles@Gu@physx@@QAEXII@Z 1001d260 f i TriangleMeshBuilder.obj
 0001:0001c290       ?WriteDwordBuffer@physx@@YAXPBII_NAAVPxOutputStream@1@@Z 1001d290 f i TriangleMeshBuilder.obj
 0001:0001c2c0       ?allocate@?$Array@USharpEdgeRange@GrbTrimeshCookerHelper@physx@@VNamedAllocator@shdfnd@3@@shdfnd@physx@@IAEPAUSharpEdgeRange@GrbTrimeshCookerHelper@3@I@Z 1001d2c0 f i TriangleMeshBuilder.obj
 0001:0001c340       ?allocate@?$Array@USortedNeighbor@GrbTrimeshCookerHelper@physx@@VNamedAllocator@shdfnd@3@@shdfnd@physx@@IAEPAUSortedNeighbor@GrbTrimeshCookerHelper@3@I@Z 1001d340 f i TriangleMeshBuilder.obj
 0001:0001c3c0       ?allocate@?$ReflectionAllocator@E@shdfnd@physx@@QAEPAXIPBDH@Z 1001d3c0 f i TriangleMeshBuilder.obj
 0001:0001c420       ?allocate@?$ReflectionAllocator@G@shdfnd@physx@@QAEPAXIPBDH@Z 1001d420 f i TriangleMeshBuilder.obj
 0001:0001c480       ?allocate@?$ReflectionAllocator@I@shdfnd@physx@@QAEPAXIPBDH@Z 1001d480 f i TriangleMeshBuilder.obj
 0001:0001c4e0       ?allocate@?$ReflectionAllocator@VBV32Tree@Gu@physx@@@shdfnd@physx@@QAEPAXIPBDH@Z 1001d4e0 f i TriangleMeshBuilder.obj
 0001:0001c540       ?allocate@?$ReflectionAllocator@VEdgeListBuilder@Gu@physx@@@shdfnd@physx@@QAEPAXIPBDH@Z 1001d540 f i TriangleMeshBuilder.obj
 0001:0001c5a0       ?allocateMaterials@TriangleMeshData@Gu@physx@@QAEPAGXZ 1001d5a0 f i TriangleMeshBuilder.obj
 0001:0001c6b0       ?allocateTriangles@TriangleMeshData@Gu@physx@@QAEPAXI_NI@Z 1001d6b0 f i TriangleMeshBuilder.obj
 0001:0001c8a0       ?allocateVertices@TriangleMeshData@Gu@physx@@QAEPAVPxVec3@3@I@Z 1001d8a0 f i TriangleMeshBuilder.obj
 0001:0001c960       ?begin@?$Array@USortedNeighbor@GrbTrimeshCookerHelper@physx@@VNamedAllocator@shdfnd@3@@shdfnd@physx@@QAEPAUSortedNeighbor@GrbTrimeshCookerHelper@3@XZ 1001d960 f i TriangleMeshBuilder.obj
 0001:0001c980       ?capacity@?$Array@USharpEdgeRange@GrbTrimeshCookerHelper@physx@@VNamedAllocator@shdfnd@3@@shdfnd@physx@@QBEIXZ 1001d980 f i TriangleMeshBuilder.obj
 0001:0001c9a0       ?capacity@?$Array@USortedNeighbor@GrbTrimeshCookerHelper@physx@@VNamedAllocator@shdfnd@3@@shdfnd@physx@@QBEIXZ 1001d9a0 f i TriangleMeshBuilder.obj
 0001:0001c9c0       ?capacityIncrement@?$Array@USortedNeighbor@GrbTrimeshCookerHelper@physx@@VNamedAllocator@shdfnd@3@@shdfnd@physx@@IBEIXZ 1001d9c0 f i TriangleMeshBuilder.obj
 0001:0001ca00       ?copy@?$Array@USharpEdgeRange@GrbTrimeshCookerHelper@physx@@VNamedAllocator@shdfnd@3@@shdfnd@physx@@KAXPAUSharpEdgeRange@GrbTrimeshCookerHelper@3@0PBU453@@Z 1001da00 f i TriangleMeshBuilder.obj
 0001:0001cac0       ?copy@?$Array@USortedNeighbor@GrbTrimeshCookerHelper@physx@@VNamedAllocator@shdfnd@3@@shdfnd@physx@@KAXPAUSortedNeighbor@GrbTrimeshCookerHelper@3@0PBU453@@Z 1001dac0 f i TriangleMeshBuilder.obj
 0001:0001cb90       ?create@?$Array@USharpEdgeRange@GrbTrimeshCookerHelper@physx@@VNamedAllocator@shdfnd@3@@shdfnd@physx@@KAXPAUSharpEdgeRange@GrbTrimeshCookerHelper@3@0ABU453@@Z 1001db90 f i TriangleMeshBuilder.obj
 0001:0001cc40       ?cross@PxVec3@physx@@QBE?AV12@ABV12@@Z 1001dc40 f i TriangleMeshBuilder.obj
 0001:0001cd00       ?deallocate@?$AlignedAllocator@$0IA@VNonTrackingAllocator@shdfnd@physx@@@shdfnd@physx@@QAEXPAX@Z 1001dd00 f i TriangleMeshBuilder.obj
 0001:0001cd50       ?deallocate@?$Array@USharpEdgeRange@GrbTrimeshCookerHelper@physx@@VNamedAllocator@shdfnd@3@@shdfnd@physx@@IAEXPAX@Z 1001dd50 f i TriangleMeshBuilder.obj
 0001:0001cd70       ?deallocate@?$Array@USortedNeighbor@GrbTrimeshCookerHelper@physx@@VNamedAllocator@shdfnd@3@@shdfnd@physx@@IAEXPAX@Z 1001dd70 f i TriangleMeshBuilder.obj
 0001:0001cd90       ?deallocate@NonTrackingAllocator@shdfnd@physx@@QAEXPAX@Z 1001dd90 f i TriangleMeshBuilder.obj
 0001:0001cdd0       ?destroy@?$Array@USharpEdgeRange@GrbTrimeshCookerHelper@physx@@VNamedAllocator@shdfnd@3@@shdfnd@physx@@KAXPAUSharpEdgeRange@GrbTrimeshCookerHelper@3@0@Z 1001ddd0 f i TriangleMeshBuilder.obj
 0001:0001ce00       ?destroy@?$Array@USortedNeighbor@GrbTrimeshCookerHelper@physx@@VNamedAllocator@shdfnd@3@@shdfnd@physx@@KAXPAUSortedNeighbor@GrbTrimeshCookerHelper@3@0@Z 1001de00 f i TriangleMeshBuilder.obj
 0001:0001ce30       ?distance@PxPlane@physx@@QBEMABVPxVec3@2@@Z 1001de30 f i TriangleMeshBuilder.obj
 0001:0001ce70       ?dot@PxVec3@physx@@QBEMABV12@@Z 1001de70 f i TriangleMeshBuilder.obj
 0001:0001ced0       ?findEdgeCCW@?$TriangleT@I@Gu@physx@@QBEEII@Z 1001ded0 f i TriangleMeshBuilder.obj
 0001:0001d040       ?gatherStrided@Cooking@physx@@SAXPBXPAXIII@Z 1001e040 f i TriangleMeshBuilder.obj
 0001:0001d0b0       ?getEdgeToTriangles@EdgeList@Gu@physx@@QBEPBUEdgeDescData@23@XZ 1001e0b0 f i TriangleMeshBuilder.obj
 0001:0001d0d0       ?getEdgeTriangle@EdgeList@Gu@physx@@QBEABUEdgeTriangleData@23@I@Z 1001e0d0 f i TriangleMeshBuilder.obj
 0001:0001d0f0       ?getEdges@EdgeList@Gu@physx@@QBEPBUEdgeData@23@XZ 1001e0f0 f i TriangleMeshBuilder.obj
 0001:0001d110       ?getFacesByEdges@EdgeList@Gu@physx@@QBEPBIXZ 1001e110 f i TriangleMeshBuilder.obj
 0001:0001d130       ?getFoundation@shdfnd@physx@@YAAAVFoundation@12@XZ 1001e130 f i TriangleMeshBuilder.obj
 0001:0001d140       ?getMidphaseID@BV4TriangleMeshBuilder@physx@@UBE?AW4Enum@PxMeshMidPhase@2@XZ 1001e140 f i TriangleMeshBuilder.obj
 0001:0001d160       ?getMidphaseID@RTreeTriangleMeshBuilder@physx@@UBE?AW4Enum@PxMeshMidPhase@2@XZ 1001e160 f i TriangleMeshBuilder.obj
 0001:0001d170       ?getName@?$ReflectionAllocator@E@shdfnd@physx@@CAPBDXZ 1001e170 f i TriangleMeshBuilder.obj
 0001:0001d1c0       ?getName@?$ReflectionAllocator@G@shdfnd@physx@@CAPBDXZ 1001e1c0 f i TriangleMeshBuilder.obj
 0001:0001d210       ?getName@?$ReflectionAllocator@I@shdfnd@physx@@CAPBDXZ 1001e210 f i TriangleMeshBuilder.obj
 0001:0001d260       ?getName@?$ReflectionAllocator@VBV32Tree@Gu@physx@@@shdfnd@physx@@CAPBDXZ 1001e260 f i TriangleMeshBuilder.obj
 0001:0001d2b0       ?getName@?$ReflectionAllocator@VEdgeListBuilder@Gu@physx@@@shdfnd@physx@@CAPBDXZ 1001e2b0 f i TriangleMeshBuilder.obj
 0001:0001d300       ?getNbEdges@EdgeList@Gu@physx@@QBEIXZ 1001e300 f i TriangleMeshBuilder.obj
 0001:0001d320       ?getNbFaces@EdgeList@Gu@physx@@QBEIXZ 1001e320 f i TriangleMeshBuilder.obj
 0001:0001d340       ?getNormalized@PxVec3@physx@@QBE?AV12@XZ 1001e340 f i TriangleMeshBuilder.obj
 0001:0001d3f0       ?getRemap@SourceMesh@Gu@physx@@QBEPBIXZ 1001e3f0 f i TriangleMeshBuilder.obj
 0001:0001d410       ?getType@PxMidphaseDesc@physx@@QBE?AW4Enum@PxMeshMidPhase@2@XZ 1001e410 f i TriangleMeshBuilder.obj
 0001:0001d430       ?grow@?$Array@USharpEdgeRange@GrbTrimeshCookerHelper@physx@@VNamedAllocator@shdfnd@3@@shdfnd@physx@@IAEXI@Z 1001e430 f i TriangleMeshBuilder.obj
 0001:0001d4b0       ?grow@?$Array@USortedNeighbor@GrbTrimeshCookerHelper@physx@@VNamedAllocator@shdfnd@3@@shdfnd@physx@@IAEXI@Z 1001e4b0 f i TriangleMeshBuilder.obj
 0001:0001d530       ?growAndPushBack@?$Array@USortedNeighbor@GrbTrimeshCookerHelper@physx@@VNamedAllocator@shdfnd@3@@shdfnd@physx@@IAEAAUSortedNeighbor@GrbTrimeshCookerHelper@3@ABU453@@Z 1001e530 f i TriangleMeshBuilder.obj
 0001:0001d6c0       ?has16BitIndices@TriangleMeshData@Gu@physx@@QBE_NXZ 1001e6c0 f i TriangleMeshBuilder.obj
 0001:0001d6f0       ?initRemap@SourceMesh@Gu@physx@@QAEXXZ 1001e6f0 f i TriangleMeshBuilder.obj
 0001:0001d710       ?isArrayOfPOD@?$Array@USharpEdgeRange@GrbTrimeshCookerHelper@physx@@VNamedAllocator@shdfnd@3@@shdfnd@physx@@SA_NXZ 1001e710 f i TriangleMeshBuilder.obj
 0001:0001d720       ?isArrayOfPOD@?$Array@USortedNeighbor@GrbTrimeshCookerHelper@physx@@VNamedAllocator@shdfnd@3@@shdfnd@physx@@SA_NXZ 1001e720 f i TriangleMeshBuilder.obj
 0001:0001d730       ?isInUserMemory@?$Array@USharpEdgeRange@GrbTrimeshCookerHelper@physx@@VNamedAllocator@shdfnd@3@@shdfnd@physx@@QBEIXZ 1001e730 f i TriangleMeshBuilder.obj
 0001:0001d750       ?isInUserMemory@?$Array@USortedNeighbor@GrbTrimeshCookerHelper@physx@@VNamedAllocator@shdfnd@3@@shdfnd@physx@@QBEIXZ 1001e750 f i TriangleMeshBuilder.obj
 0001:0001d770       ?isValid@PxBVH33MidphaseDesc@physx@@QBE_NXZ 1001e770 f i TriangleMeshBuilder.obj
 0001:0001d7b0       ?isValid@PxBVH34MidphaseDesc@physx@@QBE_NXZ 1001e7b0 f i TriangleMeshBuilder.obj
 0001:0001d7e0       ?isValid@PxMidphaseDesc@physx@@QBE_NXZ 1001e7e0 f i TriangleMeshBuilder.obj
 0001:0001d830       ?isValid@PxSimpleTriangleMesh@physx@@QBE_NXZ 1001e830 f i TriangleMeshBuilder.obj
 0001:0001d900       ?isValid@PxTriangleMeshDesc@physx@@QBE_NXZ 1001e900 f i TriangleMeshBuilder.obj
 0001:0001d970       ?isZeroInit@?$Array@USharpEdgeRange@GrbTrimeshCookerHelper@physx@@VNamedAllocator@shdfnd@3@@shdfnd@physx@@KA_NABUSharpEdgeRange@GrbTrimeshCookerHelper@3@@Z 1001e970 f i TriangleMeshBuilder.obj
 0001:0001d9e0       ?littleEndian@shdfnd@physx@@YADXZ 1001e9e0 f i TriangleMeshBuilder.obj
 0001:0001da00       ?magnitudeSquared@PxVec3@physx@@QBEMXZ 1001ea00 f i TriangleMeshBuilder.obj
 0001:0001da60       ?name@type_info@@QBEPBDXZ  1001ea60 f i TriangleMeshBuilder.obj
 0001:0001da90       ?onMeshIndexFormatChange@TriangleMeshBuilder@physx@@UAEXXZ 1001ea90 f i TriangleMeshBuilder.obj
 0001:0001daa0       ?pushBack@?$Array@USortedNeighbor@GrbTrimeshCookerHelper@physx@@VNamedAllocator@shdfnd@3@@shdfnd@physx@@QAEAAUSortedNeighbor@GrbTrimeshCookerHelper@3@ABU453@@Z 1001eaa0 f i TriangleMeshBuilder.obj
 0001:0001db60       ?recipSqrt@intrinsics@physx@@YAMM@Z 1001eb60 f i TriangleMeshBuilder.obj
 0001:0001dbb0       ?recreate@?$Array@USharpEdgeRange@GrbTrimeshCookerHelper@physx@@VNamedAllocator@shdfnd@3@@shdfnd@physx@@IAEXI@Z 1001ebb0 f i TriangleMeshBuilder.obj
 0001:0001dcc0       ?recreate@?$Array@USortedNeighbor@GrbTrimeshCookerHelper@physx@@VNamedAllocator@shdfnd@3@@shdfnd@physx@@IAEXI@Z 1001ecc0 f i TriangleMeshBuilder.obj
 0001:0001ddc0       ?release@RTree@Gu@physx@@QAEXXZ 1001edc0 f i TriangleMeshBuilder.obj
 0001:0001de20       ?releaseRemap@SourceMesh@Gu@physx@@QAEXXZ 1001ee20 f i TriangleMeshBuilder.obj
 0001:0001de60       ?remap@RTreeCookerRemap@physx@@UAEXPAIII@Z 1001ee60 f i TriangleMeshBuilder.obj
 0001:0001e020       ?reserve@?$Array@USharpEdgeRange@GrbTrimeshCookerHelper@physx@@VNamedAllocator@shdfnd@3@@shdfnd@physx@@QAEXI@Z 1001f020 f i TriangleMeshBuilder.obj
 0001:0001e050       ?reserve@?$Array@USortedNeighbor@GrbTrimeshCookerHelper@physx@@VNamedAllocator@shdfnd@3@@shdfnd@physx@@QAEXI@Z 1001f050 f i TriangleMeshBuilder.obj
 0001:0001e080       ?resize@?$Array@USharpEdgeRange@GrbTrimeshCookerHelper@physx@@VNamedAllocator@shdfnd@3@@shdfnd@physx@@QAEXIABUSharpEdgeRange@GrbTrimeshCookerHelper@3@@Z 1001f080 f i TriangleMeshBuilder.obj
 0001:0001e110       ?resizeUninitialized@?$Array@USortedNeighbor@GrbTrimeshCookerHelper@physx@@VNamedAllocator@shdfnd@3@@shdfnd@physx@@QAEXI@Z 1001f110 f i TriangleMeshBuilder.obj
 0001:0001e140       ?setNbTriangles@SourceMesh@Gu@physx@@QAEXI@Z 1001f140 f i TriangleMeshBuilder.obj
 0001:0001e160       ?setNbVertices@SourceMesh@Gu@physx@@QAEXI@Z 1001f160 f i TriangleMeshBuilder.obj
 0001:0001e180       ?setPointers@SourceMesh@Gu@physx@@QAEXPAVIndTri32@23@PAVIndTri16@23@PBVPxVec3@3@@Z 1001f180 f i TriangleMeshBuilder.obj
 0001:0001e1c0       ?setTriangleAdjacency@TriangleMeshData@Gu@physx@@QAEXIII@Z 1001f1c0 f i TriangleMeshBuilder.obj
 0001:0001e240       ?size@?$Array@USortedNeighbor@GrbTrimeshCookerHelper@physx@@VNamedAllocator@shdfnd@3@@shdfnd@physx@@QBEIXZ 1001f240 f i TriangleMeshBuilder.obj
 0001:0001e260       ?to16@shdfnd@physx@@YAGI@Z 1001f260 f i TriangleMeshBuilder.obj
 0001:0001e2c0       ?writeChunk@physx@@YAXCCCCAAVPxOutputStream@1@@Z 1001f2c0 f i TriangleMeshBuilder.obj
 0001:0001e320       ?writeIntBuffer@physx@@YAXPBII_NAAVPxOutputStream@1@@Z 1001f320 f i TriangleMeshBuilder.obj
 0001:0001e350       _powf                      1001f350 f i TriangleMeshBuilder.obj
 0001:0001e390       _sqrtf                     1001f390 f i TriangleMeshBuilder.obj
 0001:0001e3c0       ??0BigConvexDataBuilder@physx@@QAE@PBUConvexHullData@Gu@1@PAVBigConvexData@1@PBVPxVec3@1@@Z 1001f3c0 f   BigConvexDataBuilder.obj
 0001:0001e3f0       ??1BigConvexDataBuilder@physx@@QAE@XZ 1001f3f0 f   BigConvexDataBuilder.obj
 0001:0001e400       ?precompute@BigConvexDataBuilder@physx@@QAE_NI@Z 1001f400 f   BigConvexDataBuilder.obj
 0001:0001e9d0       ?initialize@BigConvexDataBuilder@physx@@QAE_NXZ 1001f9d0 f   BigConvexDataBuilder.obj
 0001:0001ea20       ?save@BigConvexDataBuilder@physx@@QBE_NAAVPxOutputStream@2@_N@Z 1001fa20 f   BigConvexDataBuilder.obj
 0001:0001eb00       ?computeValencies@BigConvexDataBuilder@physx@@QAE_NABVConvexHullBuilder@2@@Z 1001fb00 f   BigConvexDataBuilder.obj
 0001:0001f0d0       ?saveValencies@BigConvexDataBuilder@physx@@QBE_NAAVPxOutputStream@2@_N@Z 100200d0 f   BigConvexDataBuilder.obj
 0001:0001f610       ??$?_UUValency@Gu@physx@@@@YAPAXIV?$ReflectionAllocator@UValency@Gu@physx@@@shdfnd@physx@@PBDH@Z 10020610 f i BigConvexDataBuilder.obj
 0001:0001f630       ??0?$ReflectionAllocator@UValency@Gu@physx@@@shdfnd@physx@@QAE@PBD@Z 10020630 f i BigConvexDataBuilder.obj
 0001:0001f650       ??B?$PxBitAndDataT@G$0IAAA@@physx@@QBEGXZ 10020650 f i BigConvexDataBuilder.obj
 0001:0001f670       ??_0PxVec3@physx@@QAEAAV01@M@Z 10020670 f i BigConvexDataBuilder.obj
 0001:0001f6f0       ?PxMemZero@physx@@YAPAXPAXI@Z 100206f0 f i BigConvexDataBuilder.obj
 0001:0001f710       ?PxSqrt@physx@@YAMM@Z      10020710 f i BigConvexDataBuilder.obj
 0001:0001f730       ?allocate@?$ReflectionAllocator@UValency@Gu@physx@@@shdfnd@physx@@QAEPAXIPBDH@Z 10020730 f i BigConvexDataBuilder.obj
 0001:0001f790       ?getName@?$ReflectionAllocator@UValency@Gu@physx@@@shdfnd@physx@@CAPBDXZ 10020790 f i BigConvexDataBuilder.obj
 0001:0001f7e0       ?magnitude@PxVec3@physx@@QBEMXZ 100207e0 f i BigConvexDataBuilder.obj
 0001:0001f810       ?normalize@PxVec3@physx@@QAEMXZ 10020810 f i BigConvexDataBuilder.obj
 0001:0001f860       ?precomputeSample@BigConvexDataBuilder@physx@@IAEXABVPxVec3@2@AAEM@Z 10020860 f i BigConvexDataBuilder.obj
 0001:0001fa40       ?sqrt@intrinsics@physx@@YAMM@Z 10020a40 f i BigConvexDataBuilder.obj
 0001:0001fab0       ??0ConvexHullBuilder@physx@@QAE@PAUConvexHullData@Gu@1@_N@Z 10020ab0 f   ConvexHullBuilder.obj
 0001:0001fb30       ??1ConvexHullBuilder@physx@@QAE@XZ 10020b30 f   ConvexHullBuilder.obj
 0001:0001fc50       ?init@ConvexHullBuilder@physx@@QAE_NIPBVPxVec3@2@PBIIIPBUPxHullPolygon@2@I_N3@Z 10020c50 f   ConvexHullBuilder.obj
 0001:000201c0       ?save@ConvexHullBuilder@physx@@QBE_NAAVPxOutputStream@2@_N@Z 100211c0 f   ConvexHullBuilder.obj
 0001:00020480       ?copy@ConvexHullBuilder@physx@@QAE_NAAUConvexHullData@Gu@2@AAI@Z 10021480 f   ConvexHullBuilder.obj
 0001:00020970       ?createEdgeList@ConvexHullBuilder@physx@@QAE_N_NI0@Z 10021970 f   ConvexHullBuilder.obj
 0001:00021460       ?checkHullPolygons@ConvexHullBuilder@physx@@QBE_NXZ 10022460 f   ConvexHullBuilder.obj
 0001:00021c10       ?calculateVertexMapTable@ConvexHullBuilder@physx@@QAE_NI_N@Z 10022c10 f   ConvexHullBuilder.obj
 0001:00021e20       ?computeGeomCenter@ConvexHullBuilder@physx@@IBE_NAAVPxVec3@2@IPAUHullTriangleData@2@@Z 10022e20 f   ConvexHullBuilder.obj
 0001:00022880       ??$?_UUEdgeDescData@Gu@physx@@@@YAPAXIV?$ReflectionAllocator@UEdgeDescData@Gu@physx@@@shdfnd@physx@@PBDH@Z 10023880 f i ConvexHullBuilder.obj
 0001:000228a0       ??$?_U_N@@YAPAXIV?$ReflectionAllocator@_N@shdfnd@physx@@PBDH@Z 100238a0 f i ConvexHullBuilder.obj
 0001:000228c0       ??0?$PxBitAndDataT@G$0IAAA@@physx@@QAE@G_N@Z 100238c0 f i ConvexHullBuilder.obj
 0001:00022910       ??0?$ReflectionAllocator@UEdgeDescData@Gu@physx@@@shdfnd@physx@@QAE@PBD@Z 10023910 f i ConvexHullBuilder.obj
 0001:00022930       ??0?$ReflectionAllocator@_N@shdfnd@physx@@QAE@PBD@Z 10023930 f i ConvexHullBuilder.obj
 0001:00022950       ??0?$TriangleT@I@Gu@physx@@QAE@III@Z 10023950 f i ConvexHullBuilder.obj
 0001:000229b0       ??0HullPolygonData@Gu@physx@@QAE@ABU012@@Z 100239b0 f i ConvexHullBuilder.obj
 0001:00022a10       ??0PxPlane@physx@@QAE@ABV01@@Z 10023a10 f i ConvexHullBuilder.obj
 0001:00022a50       ??0PxPlane@physx@@QAE@MMMM@Z 10023a50 f i ConvexHullBuilder.obj
 0001:00022ab0       ??4PxPlane@physx@@QAEAAV01@$$QAV01@@Z 10023ab0 f i ConvexHullBuilder.obj
 0001:00022af0       ??YPxVec3@physx@@QAEAAV01@ABV01@@Z 10023af0 f i ConvexHullBuilder.obj
 0001:00022b60       ?PxMemSet@physx@@YAPAXPAXHI@Z 10023b60 f i ConvexHullBuilder.obj
 0001:00022b80       ?allocate@?$ReflectionAllocator@UEdgeDescData@Gu@physx@@@shdfnd@physx@@QAEPAXIPBDH@Z 10023b80 f i ConvexHullBuilder.obj
 0001:00022be0       ?allocate@?$ReflectionAllocator@_N@shdfnd@physx@@QAEPAXIPBDH@Z 10023be0 f i ConvexHullBuilder.obj
 0001:00022c40       ?area@?$TriangleT@I@Gu@physx@@QBEMPBVPxVec3@3@@Z 10023c40 f i ConvexHullBuilder.obj
 0001:00022d00       ?center@?$TriangleT@I@Gu@physx@@QBEXPBVPxVec3@3@AAV43@@Z 10023d00 f i ConvexHullBuilder.obj
 0001:00022dc0       ?computeBufferSize@Gu@physx@@YAIABUConvexHullData@12@I@Z 10023dc0 f i ConvexHullBuilder.obj
 0001:00022eb0       ?computeNbPolygons@ConvexHullBuilder@physx@@QBEIXZ 10023eb0 f i ConvexHullBuilder.obj
 0001:00022f20       ?flip@physx@@YAXAAG@Z      10023f20 f i ConvexHullBuilder.obj
 0001:00022f90       ?flip@physx@@YAXAAM@Z      10023f90 f i ConvexHullBuilder.obj
 0001:00023040       ?flipData@Gu@physx@@YAXAAUHullPolygonData@12@@Z 10024040 f i ConvexHullBuilder.obj
 0001:000230a0       ?getName@?$ReflectionAllocator@UEdgeDescData@Gu@physx@@@shdfnd@physx@@CAPBDXZ 100240a0 f i ConvexHullBuilder.obj
 0001:000230f0       ?getName@?$ReflectionAllocator@_N@shdfnd@physx@@CAPBDXZ 100240f0 f i ConvexHullBuilder.obj
 0001:00023140       ?isBitSet@?$PxBitAndDataT@G$0IAAA@@physx@@QBEGXZ 10024140 f i ConvexHullBuilder.obj
 0001:00023160       ?memSet@intrinsics@physx@@YAPAXPAXHI@Z 10024160 f i ConvexHullBuilder.obj
 0001:00023180       ?to8@shdfnd@physx@@YAEI@Z  10024180 f i ConvexHullBuilder.obj
 0001:000231e0       ??1ConvexHullLib@physx@@UAE@XZ 100241e0 f   ConvexHullLib.obj
 0001:00023240       ?cleanupVertices@ConvexHullLib@physx@@IAE_NIPBVPxVec3@2@IAAIPAV32@AAV32@3@Z 10024240 f   ConvexHullLib.obj
 0001:00023690       ?shiftAndcleanupVertices@ConvexHullLib@physx@@IAE_NIPBVPxVec3@2@IAAIPAV32@AAV32@3@Z 10024690 f   ConvexHullLib.obj
 0001:000237c0       ?swapLargestFace@ConvexHullLib@physx@@IAEXAAVPxConvexMeshDesc@2@@Z 100247c0 f   ConvexHullLib.obj
 0001:00023a90       ?shiftConvexMeshDesc@ConvexHullLib@physx@@IAEXAAVPxConvexMeshDesc@2@@Z 10024a90 f   ConvexHullLib.obj
 0001:000243f0       ??0?$PxFlags@W4Enum@PxConvexFlag@physx@@G@physx@@QAE@ABV01@@Z 100253f0 f i ConvexHullLib.obj
 0001:00024420       ??0PxBounds3@physx@@QAE@XZ 10025420 f i ConvexHullLib.obj
 0001:00024450       ??B?$PxFlags@W4Enum@PxConvexFlag@physx@@G@physx@@QBE_NXZ 10025450 f i ConvexHullLib.obj
 0001:00024480       ??I?$PxFlags@W4Enum@PxConvexFlag@physx@@G@physx@@QBE?AV01@W4Enum@PxConvexFlag@1@@Z 10025480 f i ConvexHullLib.obj
 0001:000244d0       ??_GConvexHullLib@physx@@UAEPAXI@Z 100254d0 f i ConvexHullLib.obj
 0001:000244d0       ??_EConvexHullLib@physx@@UAEPAXI@Z 100254d0 f i ConvexHullLib.obj
 0001:00024510       ?getCenter@PxBounds3@physx@@QBE?AVPxVec3@2@XZ 10025510 f i ConvexHullLib.obj
 0001:000245c0       ?getDimensions@PxBounds3@physx@@QBE?AVPxVec3@2@XZ 100255c0 f i ConvexHullLib.obj
 0001:00024650       ?include@PxBounds3@physx@@QAEXABVPxVec3@2@@Z 10025650 f i ConvexHullLib.obj
 0001:00024700       ?maximum@PxVec3@physx@@QBE?AV12@ABV12@@Z 10025700 f i ConvexHullLib.obj
 0001:000247b0       ?minimum@PxVec3@physx@@QBE?AV12@ABV12@@Z 100257b0 f i ConvexHullLib.obj
 0001:00024860       ?multiply@PxVec3@physx@@QBE?AV12@ABV12@@Z 10025860 f i ConvexHullLib.obj
 0001:000248d0       ??0ConvexHull@physx@@QAE@ABVPxVec3@1@0ABV?$Array@VPxPlane@physx@@VNamedAllocator@shdfnd@2@@shdfnd@1@@Z 100258d0 f   ConvexHullUtils.obj
 0001:00024fa0       ??0ConvexHull@physx@@QAE@ABVPxVec3@1@ABVPxTransform@1@ABV?$Array@VPxPlane@physx@@VNamedAllocator@shdfnd@2@@shdfnd@1@@Z 10025fa0 f   ConvexHullUtils.obj
 0001:000257c0       ?findCandidatePlane@ConvexHull@physx@@QBEHMM@Z 100267c0 f   ConvexHullUtils.obj
 0001:00025ae0       ?assertIntact@ConvexHull@physx@@QBE_NM@Z 10026ae0 f   ConvexHullUtils.obj
 0001:00026060       ?maxNumVertsPerFace@ConvexHull@physx@@QBEIXZ 10027060 f   ConvexHullUtils.obj
 0001:00026100       ?convexHullCrop@physx@@YAPAVConvexHull@1@ABV21@ABVPxPlane@1@M@Z 10027100 f   ConvexHullUtils.obj
 0001:000271e0       ?computeOBBFromConvex@physx@@YA_NABVPxConvexMeshDesc@1@AAVPxVec3@1@AAVPxTransform@1@@Z 100281e0 f   ConvexHullUtils.obj
 0001:000278e0       ?computeOBBSIMD@local@@YAXIPBT__m128@@AAT2@ABT2@1@Z 100288e0 f   ConvexHullUtils.obj
 0001:00028940       ??$?2V?$ReflectionAllocator@VConvexHull@physx@@@shdfnd@physx@@@UserAllocated@shdfnd@physx@@SAPAXIV?$ReflectionAllocator@VConvexHull@physx@@@12@PBDH@Z 10029940 f i ConvexHullUtils.obj
 0001:00028960       ??$PX_UNUSED@W4PxIDENTITY@physx@@@@YAXABW4PxIDENTITY@physx@@@Z 10029960 f i ConvexHullUtils.obj
 0001:00028970       ??0?$Array@VHalfEdge@ConvexHull@physx@@VNamedAllocator@shdfnd@3@@shdfnd@physx@@QAE@ABVNamedAllocator@12@@Z 10029970 f i ConvexHullUtils.obj
 0001:000289c0       ??0?$Array@VPxPlane@physx@@VNamedAllocator@shdfnd@2@@shdfnd@physx@@QAE@ABVNamedAllocator@12@@Z 100299c0 f i ConvexHullUtils.obj
 0001:00028a10       ??0?$PxFlags@W4Enum@PxConvexFlag@physx@@G@physx@@QAE@XZ 10029a10 f i ConvexHullUtils.obj
 0001:00028a30       ??0?$ReflectionAllocator@VConvexHull@physx@@@shdfnd@physx@@QAE@PBD@Z 10029a30 f i ConvexHullUtils.obj
 0001:00028a50       ??0ConvexHull@physx@@QAE@ABV01@@Z 10029a50 f i ConvexHullUtils.obj
 0001:00028b00       ??0ConvexHull@physx@@QAE@ABV?$Array@VPxPlane@physx@@VNamedAllocator@shdfnd@2@@shdfnd@1@@Z 10029b00 f i ConvexHullUtils.obj
 0001:00028ba0       ??0HalfEdge@ConvexHull@physx@@QAE@FEE@Z 10029ba0 f i ConvexHullUtils.obj
 0001:00028be0       ??0HalfEdge@ConvexHull@physx@@QAE@XZ 10029be0 f i ConvexHullUtils.obj
 0001:00028c00       ??0Mat33V@aos@shdfnd@physx@@QAE@XZ 10029c00 f i ConvexHullUtils.obj
 0001:00028c20       ??0PxBoundedData@physx@@QAE@XZ 10029c20 f i ConvexHullUtils.obj
 0001:00028c50       ??0PxConvexMeshDesc@physx@@QAE@XZ 10029c50 f i ConvexHullUtils.obj
 0001:00028cc0       ??0PxIntegrals@physx@@QAE@XZ 10029cc0 f i ConvexHullUtils.obj
 0001:00028ce0       ??0PxMat33@physx@@QAE@ABV01@@Z 10029ce0 f i ConvexHullUtils.obj
 0001:00028d30       ??0PxMat33@physx@@QAE@ABVPxQuat@1@@Z 10029d30 f i ConvexHullUtils.obj
 0001:00028fb0       ??0PxMat33@physx@@QAE@ABVPxVec3@1@00@Z 10029fb0 f i ConvexHullUtils.obj
 0001:00029000       ??0PxMat33@physx@@QAE@W4PxIDENTITY@1@@Z 1002a000 f i ConvexHullUtils.obj
 0001:000290c0       ??0PxMat33@physx@@QAE@XZ   1002a0c0 f i ConvexHullUtils.obj
 0001:00029100       ??0PxPlane@physx@@QAE@ABVPxVec3@1@00@Z 1002a100 f i ConvexHullUtils.obj
 0001:000291a0       ??0PxPlane@physx@@QAE@ABVPxVec3@1@M@Z 1002a1a0 f i ConvexHullUtils.obj
 0001:000291e0       ??0PxPlane@physx@@QAE@XZ   1002a1e0 f i ConvexHullUtils.obj
 0001:00029200       ??0PxQuat@physx@@QAE@MABVPxVec3@1@@Z 1002a200 f i ConvexHullUtils.obj
 0001:00029340       ??0PxQuat@physx@@QAE@XZ    1002a340 f i ConvexHullUtils.obj
 0001:00029360       ??0PxStridedData@physx@@QAE@XZ 1002a360 f i ConvexHullUtils.obj
 0001:00029390       ??4PxPlane@physx@@QAEAAV01@ABV01@@Z 1002a390 f i ConvexHullUtils.obj
 0001:000293d0       ??8PxPlane@physx@@QBE_NABV01@@Z 1002a3d0 f i ConvexHullUtils.obj
 0001:00029430       ??8PxVec3@physx@@QBE_NABV01@@Z 1002a430 f i ConvexHullUtils.obj
 0001:000294b0       ??A?$Array@VHalfEdge@ConvexHull@physx@@VNamedAllocator@shdfnd@3@@shdfnd@physx@@QAEAAVHalfEdge@ConvexHull@2@I@Z 1002a4b0 f i ConvexHullUtils.obj
 0001:00029520       ??A?$Array@VHalfEdge@ConvexHull@physx@@VNamedAllocator@shdfnd@3@@shdfnd@physx@@QBEABVHalfEdge@ConvexHull@2@I@Z 1002a520 f i ConvexHullUtils.obj
 0001:00029590       ??A?$Array@VPxPlane@physx@@VNamedAllocator@shdfnd@2@@shdfnd@physx@@QBEABVPxPlane@2@I@Z 1002a590 f i ConvexHullUtils.obj
 0001:00029600       ??A?$Array@VPxVec3@physx@@VNamedAllocator@shdfnd@2@@shdfnd@physx@@QAEAAVPxVec3@2@I@Z 1002a600 f i ConvexHullUtils.obj
 0001:00029670       ??A?$Array@VPxVec3@physx@@VNamedAllocator@shdfnd@2@@shdfnd@physx@@QBEABVPxVec3@2@I@Z 1002a670 f i ConvexHullUtils.obj
 0001:000296e0       ??APxMat33@physx@@QAEAAVPxVec3@1@I@Z 1002a6e0 f i ConvexHullUtils.obj
 0001:00029700       ??GPxVec3@physx@@QBE?AV01@XZ 1002a700 f i ConvexHullUtils.obj
 0001:00029770       ??RPxMat33@physx@@QAEAAMII@Z 1002a770 f i ConvexHullUtils.obj
 0001:000297a0       ??XPxVec3@physx@@QAEAAV01@M@Z 1002a7a0 f i ConvexHullUtils.obj
 0001:00029800       ?FAdd@aos@shdfnd@physx@@YA?AT__m128@@T4@0@Z 1002a800 f i ConvexHullUtils.obj
 0001:00029900       ?FMul@aos@shdfnd@physx@@YA?AT__m128@@T4@0@Z 1002a900 f i ConvexHullUtils.obj
 0001:00029a00       ?FScaleAdd@aos@shdfnd@physx@@YA?AT__m128@@T4@00@Z 1002aa00 f i ConvexHullUtils.obj
 0001:00029b70       ?PxCos@physx@@YAMM@Z       1002ab70 f i ConvexHullUtils.obj
 0001:00029b90       ?PxSin@physx@@YAMM@Z       1002ab90 f i ConvexHullUtils.obj
 0001:00029bb0       ?QuatGetMat33V@aos@shdfnd@physx@@YAXABT__m128@@AAT4@11@Z 1002abb0 f i ConvexHullUtils.obj
 0001:00029e20       ?QuatRotateInv@aos@shdfnd@physx@@YA?AT__m128@@T4@0@Z 1002ae20 f i ConvexHullUtils.obj
 0001:0002a000       ?QuatVLoadU@aos@shdfnd@physx@@YA?AT__m128@@PBM@Z 1002b000 f i ConvexHullUtils.obj
 0001:0002a050       ?V3Cross@aos@shdfnd@physx@@YA?AT__m128@@T4@0@Z 1002b050 f i ConvexHullUtils.obj
 0001:0002a200       ?V3NegScaleSub@aos@shdfnd@physx@@YA?AT__m128@@T4@00@Z 1002b200 f i ConvexHullUtils.obj
 0001:0002a370       ?V3Scale@aos@shdfnd@physx@@YA?AT__m128@@T4@0@Z 1002b370 f i ConvexHullUtils.obj
 0001:0002a470       ?V3ScaleAdd@aos@shdfnd@physx@@YA?AT__m128@@T4@00@Z 1002b470 f i ConvexHullUtils.obj
 0001:0002a5e0       ?V4Add@aos@shdfnd@physx@@YA?AT__m128@@T4@0@Z 1002b5e0 f i ConvexHullUtils.obj
 0001:0002a630       ?V4GetW@aos@shdfnd@physx@@YA?AT__m128@@T4@@Z 1002b630 f i ConvexHullUtils.obj
 0001:0002a680       ?V4GetX@aos@shdfnd@physx@@YA?AT__m128@@T4@@Z 1002b680 f i ConvexHullUtils.obj
 0001:0002a6d0       ?V4GetY@aos@shdfnd@physx@@YA?AT__m128@@T4@@Z 1002b6d0 f i ConvexHullUtils.obj
 0001:0002a720       ?V4GetZ@aos@shdfnd@physx@@YA?AT__m128@@T4@@Z 1002b720 f i ConvexHullUtils.obj
 0001:0002a770       ?V4LoadU@aos@shdfnd@physx@@YA?AT__m128@@QBM@Z 1002b770 f i ConvexHullUtils.obj
 0001:0002a7b0       ?V4Max@aos@shdfnd@physx@@YA?AT__m128@@T4@0@Z 1002b7b0 f i ConvexHullUtils.obj
 0001:0002a800       ?V4Min@aos@shdfnd@physx@@YA?AT__m128@@T4@0@Z 1002b800 f i ConvexHullUtils.obj
 0001:0002a850       ?V4Mul@aos@shdfnd@physx@@YA?AT__m128@@T4@0@Z 1002b850 f i ConvexHullUtils.obj
 0001:0002a8a0       ?V4MulAdd@aos@shdfnd@physx@@YA?AT__m128@@T4@00@Z 1002b8a0 f i ConvexHullUtils.obj
 0001:0002a910       ?V4Neg@aos@shdfnd@physx@@YA?AT__m128@@T4@@Z 1002b910 f i ConvexHullUtils.obj
 0001:0002a960       ?V4Scale@aos@shdfnd@physx@@YA?AT__m128@@T4@0@Z 1002b960 f i ConvexHullUtils.obj
 0001:0002a9b0       ?V4StoreU@aos@shdfnd@physx@@YAXT__m128@@PAM@Z 1002b9b0 f i ConvexHullUtils.obj
 0001:0002a9f0       ?V4Sub@aos@shdfnd@physx@@YA?AT__m128@@T4@0@Z 1002b9f0 f i ConvexHullUtils.obj
 0001:0002aa40       ?Vec4V_From_Vec3V@aos@shdfnd@physx@@YA?AT__m128@@T4@@Z 1002ba40 f i ConvexHullUtils.obj
 0001:0002aa80       ?allocate@?$Array@VHalfEdge@ConvexHull@physx@@VNamedAllocator@shdfnd@3@@shdfnd@physx@@IAEPAVHalfEdge@ConvexHull@3@I@Z 1002ba80 f i ConvexHullUtils.obj
 0001:0002ab00       ?allocate@?$Array@VPxPlane@physx@@VNamedAllocator@shdfnd@2@@shdfnd@physx@@IAEPAVPxPlane@3@I@Z 1002bb00 f i ConvexHullUtils.obj
 0001:0002ab80       ?allocate@?$ReflectionAllocator@VConvexHull@physx@@@shdfnd@physx@@QAEPAXIPBDH@Z 1002bb80 f i ConvexHullUtils.obj
 0001:0002abe0       ?begin@?$Array@VHalfEdge@ConvexHull@physx@@VNamedAllocator@shdfnd@3@@shdfnd@physx@@QAEPAVHalfEdge@ConvexHull@3@XZ 1002bbe0 f i ConvexHullUtils.obj
 0001:0002ac00       ?begin@?$Array@VHalfEdge@ConvexHull@physx@@VNamedAllocator@shdfnd@3@@shdfnd@physx@@QBEPBVHalfEdge@ConvexHull@3@XZ 1002bc00 f i ConvexHullUtils.obj
 0001:0002ac20       ?begin@?$Array@VPxPlane@physx@@VNamedAllocator@shdfnd@2@@shdfnd@physx@@QAEPAVPxPlane@3@XZ 1002bc20 f i ConvexHullUtils.obj
 0001:0002ac40       ?begin@?$Array@VPxPlane@physx@@VNamedAllocator@shdfnd@2@@shdfnd@physx@@QBEPBVPxPlane@3@XZ 1002bc40 f i ConvexHullUtils.obj
 0001:0002ac60       ?begin@?$Array@VPxVec3@physx@@VNamedAllocator@shdfnd@2@@shdfnd@physx@@QBEPBVPxVec3@3@XZ 1002bc60 f i ConvexHullUtils.obj
 0001:0002ac80       ?capacity@?$Array@VHalfEdge@ConvexHull@physx@@VNamedAllocator@shdfnd@3@@shdfnd@physx@@QBEIXZ 1002bc80 f i ConvexHullUtils.obj
 0001:0002aca0       ?capacity@?$Array@VPxPlane@physx@@VNamedAllocator@shdfnd@2@@shdfnd@physx@@QBEIXZ 1002bca0 f i ConvexHullUtils.obj
 0001:0002acc0       ?capacityIncrement@?$Array@VHalfEdge@ConvexHull@physx@@VNamedAllocator@shdfnd@3@@shdfnd@physx@@IBEIXZ 1002bcc0 f i ConvexHullUtils.obj
 0001:0002ad00       ?capacityIncrement@?$Array@VPxPlane@physx@@VNamedAllocator@shdfnd@2@@shdfnd@physx@@IBEIXZ 1002bd00 f i ConvexHullUtils.obj
 0001:0002ad40       ?copy@?$Array@VHalfEdge@ConvexHull@physx@@VNamedAllocator@shdfnd@3@@shdfnd@physx@@KAXPAVHalfEdge@ConvexHull@3@0PBV453@@Z 1002bd40 f i ConvexHullUtils.obj
 0001:0002adf0       ?copy@?$Array@VPxPlane@physx@@VNamedAllocator@shdfnd@2@@shdfnd@physx@@KAXPAVPxPlane@3@0PBV43@@Z 1002bdf0 f i ConvexHullUtils.obj
 0001:0002aea0       ?copyHull@ConvexHull@physx@@QAEXABV12@@Z 1002bea0 f i ConvexHullUtils.obj
 0001:0002b000       ?cos@intrinsics@physx@@YAMM@Z 1002c000 f i ConvexHullUtils.obj
 0001:0002b020       ?create@?$Array@VHalfEdge@ConvexHull@physx@@VNamedAllocator@shdfnd@3@@shdfnd@physx@@KAXPAVHalfEdge@ConvexHull@3@0ABV453@@Z 1002c020 f i ConvexHullUtils.obj
 0001:0002b0d0       ?create@?$Array@VPxPlane@physx@@VNamedAllocator@shdfnd@2@@shdfnd@physx@@KAXPAVPxPlane@3@0ABV43@@Z 1002c0d0 f i ConvexHullUtils.obj
 0001:0002b180       ?create@?$Array@VPxVec3@physx@@VNamedAllocator@shdfnd@2@@shdfnd@physx@@KAXPAVPxVec3@3@0ABV43@@Z 1002c180 f i ConvexHullUtils.obj
 0001:0002b230       ?deallocate@?$Array@VHalfEdge@ConvexHull@physx@@VNamedAllocator@shdfnd@3@@shdfnd@physx@@IAEXPAX@Z 1002c230 f i ConvexHullUtils.obj
 0001:0002b250       ?deallocate@?$Array@VPxPlane@physx@@VNamedAllocator@shdfnd@2@@shdfnd@physx@@IAEXPAX@Z 1002c250 f i ConvexHullUtils.obj
 0001:0002b270       ?degToRad@shdfnd@physx@@YAMM@Z 1002c270 f i ConvexHullUtils.obj
 0001:0002b2a0       ?destroy@?$Array@VHalfEdge@ConvexHull@physx@@VNamedAllocator@shdfnd@3@@shdfnd@physx@@KAXPAVHalfEdge@ConvexHull@3@0@Z 1002c2a0 f i ConvexHullUtils.obj
 0001:0002b2d0       ?destroy@?$Array@VPxPlane@physx@@VNamedAllocator@shdfnd@2@@shdfnd@physx@@KAXPAVPxPlane@3@0@Z 1002c2d0 f i ConvexHullUtils.obj
 0001:0002b300       ?getDeterminant@PxMat33@physx@@QBEMXZ 1002c300 f i ConvexHullUtils.obj
 0001:0002b340       ?getEdges@ConvexHull@physx@@QAEAAV?$Array@VHalfEdge@ConvexHull@physx@@VNamedAllocator@shdfnd@3@@shdfnd@2@XZ 1002c340 f i ConvexHullUtils.obj
 0001:0002b360       ?getEdges@ConvexHull@physx@@QBEABV?$Array@VHalfEdge@ConvexHull@physx@@VNamedAllocator@shdfnd@3@@shdfnd@2@XZ 1002c360 f i ConvexHullUtils.obj
 0001:0002b380       ?getFacets@ConvexHull@physx@@QAEAAV?$Array@VPxPlane@physx@@VNamedAllocator@shdfnd@2@@shdfnd@2@XZ 1002c380 f i ConvexHullUtils.obj
 0001:0002b3a0       ?getFacets@ConvexHull@physx@@QBEABV?$Array@VPxPlane@physx@@VNamedAllocator@shdfnd@2@@shdfnd@2@XZ 1002c3a0 f i ConvexHullUtils.obj
 0001:0002b3c0       ?getInputPlanes@ConvexHull@physx@@QBEABV?$Array@VPxPlane@physx@@VNamedAllocator@shdfnd@2@@shdfnd@2@XZ 1002c3c0 f i ConvexHullUtils.obj
 0001:0002b3e0       ?getInverse@PxMat33@physx@@QBE?BV12@XZ 1002c3e0 f i ConvexHullUtils.obj
 0001:0002b690       ?getName@?$ReflectionAllocator@VConvexHull@physx@@@shdfnd@physx@@CAPBDXZ 1002c690 f i ConvexHullUtils.obj
 0001:0002b6e0       ?getOriginInertia@PxIntegrals@physx@@QAEXAAVPxMat33@2@@Z 1002c6e0 f i ConvexHullUtils.obj
 0001:0002b780       ?getTranspose@PxMat33@physx@@QBE?BV12@XZ 1002c780 f i ConvexHullUtils.obj
 0001:0002b870       ?getVertices@ConvexHull@physx@@QAEAAV?$Array@VPxVec3@physx@@VNamedAllocator@shdfnd@2@@shdfnd@2@XZ 1002c870 f i ConvexHullUtils.obj
 0001:0002b890       ?getVertices@ConvexHull@physx@@QBEABV?$Array@VPxVec3@physx@@VNamedAllocator@shdfnd@2@@shdfnd@2@XZ 1002c890 f i ConvexHullUtils.obj
 0001:0002b8b0       ?grow@?$Array@VHalfEdge@ConvexHull@physx@@VNamedAllocator@shdfnd@3@@shdfnd@physx@@IAEXI@Z 1002c8b0 f i ConvexHullUtils.obj
 0001:0002b930       ?grow@?$Array@VPxPlane@physx@@VNamedAllocator@shdfnd@2@@shdfnd@physx@@IAEXI@Z 1002c930 f i ConvexHullUtils.obj
 0001:0002b9b0       ?growAndPushBack@?$Array@VHalfEdge@ConvexHull@physx@@VNamedAllocator@shdfnd@3@@shdfnd@physx@@IAEAAVHalfEdge@ConvexHull@3@ABV453@@Z 1002c9b0 f i ConvexHullUtils.obj
 0001:0002bb40       ?growAndPushBack@?$Array@VPxPlane@physx@@VNamedAllocator@shdfnd@2@@shdfnd@physx@@IAEAAVPxPlane@3@ABV43@@Z 1002cb40 f i ConvexHullUtils.obj
 0001:0002bcd0       ?isArrayOfPOD@?$Array@VHalfEdge@ConvexHull@physx@@VNamedAllocator@shdfnd@3@@shdfnd@physx@@SA_NXZ 1002ccd0 f i ConvexHullUtils.obj
 0001:0002bce0       ?isArrayOfPOD@?$Array@VPxPlane@physx@@VNamedAllocator@shdfnd@2@@shdfnd@physx@@SA_NXZ 1002cce0 f i ConvexHullUtils.obj
 0001:0002bcf0       ?isInUserMemory@?$Array@VHalfEdge@ConvexHull@physx@@VNamedAllocator@shdfnd@3@@shdfnd@physx@@QBEIXZ 1002ccf0 f i ConvexHullUtils.obj
 0001:0002bd10       ?isInUserMemory@?$Array@VPxPlane@physx@@VNamedAllocator@shdfnd@2@@shdfnd@physx@@QBEIXZ 1002cd10 f i ConvexHullUtils.obj
 0001:0002bd30       ?isZeroInit@?$Array@VHalfEdge@ConvexHull@physx@@VNamedAllocator@shdfnd@3@@shdfnd@physx@@KA_NABVHalfEdge@ConvexHull@3@@Z 1002cd30 f i ConvexHullUtils.obj
 0001:0002bd90       ?isZeroInit@?$Array@VPxPlane@physx@@VNamedAllocator@shdfnd@2@@shdfnd@physx@@KA_NABVPxPlane@3@@Z 1002cd90 f i ConvexHullUtils.obj
 0001:0002be00       ?isZeroInit@?$Array@VPxVec3@physx@@VNamedAllocator@shdfnd@2@@shdfnd@physx@@KA_NABVPxVec3@3@@Z 1002ce00 f i ConvexHullUtils.obj
 0001:0002be70       ?pushBack@?$Array@VHalfEdge@ConvexHull@physx@@VNamedAllocator@shdfnd@3@@shdfnd@physx@@QAEAAVHalfEdge@ConvexHull@3@ABV453@@Z 1002ce70 f i ConvexHullUtils.obj
 0001:0002bf20       ?pushBack@?$Array@VPxPlane@physx@@VNamedAllocator@shdfnd@2@@shdfnd@physx@@QAEAAVPxPlane@3@ABV43@@Z 1002cf20 f i ConvexHullUtils.obj
 0001:0002bfd0       ?recreate@?$Array@VHalfEdge@ConvexHull@physx@@VNamedAllocator@shdfnd@3@@shdfnd@physx@@IAEXI@Z 1002cfd0 f i ConvexHullUtils.obj
 0001:0002c0e0       ?recreate@?$Array@VPxPlane@physx@@VNamedAllocator@shdfnd@2@@shdfnd@physx@@IAEXI@Z 1002d0e0 f i ConvexHullUtils.obj
 0001:0002c1f0       ?reserve@?$Array@VHalfEdge@ConvexHull@physx@@VNamedAllocator@shdfnd@3@@shdfnd@physx@@QAEXI@Z 1002d1f0 f i ConvexHullUtils.obj
 0001:0002c220       ?reserve@?$Array@VPxPlane@physx@@VNamedAllocator@shdfnd@2@@shdfnd@physx@@QAEXI@Z 1002d220 f i ConvexHullUtils.obj
 0001:0002c250       ?resize@?$Array@VHalfEdge@ConvexHull@physx@@VNamedAllocator@shdfnd@3@@shdfnd@physx@@QAEXIABVHalfEdge@ConvexHull@3@@Z 1002d250 f i ConvexHullUtils.obj
 0001:0002c2e0       ?resize@?$Array@VPxPlane@physx@@VNamedAllocator@shdfnd@2@@shdfnd@physx@@QAEXIABVPxPlane@3@@Z 1002d2e0 f i ConvexHullUtils.obj
 0001:0002c370       ?resize@?$Array@VPxVec3@physx@@VNamedAllocator@shdfnd@2@@shdfnd@physx@@QAEXIABVPxVec3@3@@Z 1002d370 f i ConvexHullUtils.obj
 0001:0002c3f0       ?sin@intrinsics@physx@@YAMM@Z 1002d3f0 f i ConvexHullUtils.obj
 0001:0002c410       ?size@?$Array@VHalfEdge@ConvexHull@physx@@VNamedAllocator@shdfnd@3@@shdfnd@physx@@QBEIXZ 1002d410 f i ConvexHullUtils.obj
 0001:0002c430       ?size@?$Array@VPxPlane@physx@@VNamedAllocator@shdfnd@2@@shdfnd@physx@@QBEIXZ 1002d430 f i ConvexHullUtils.obj
 0001:0002c450       ?threePlaneIntersection@physx@@YA?AVPxVec3@1@ABVPxPlane@1@00@Z 1002d450 f i ConvexHullUtils.obj
 0001:0002c500       ?to8@shdfnd@physx@@YAEG@Z  1002d500 f i ConvexHullUtils.obj
 0001:0002c560       ?transform@PxMat33@physx@@QBE?BVPxVec3@2@ABV32@@Z 1002d560 f i ConvexHullUtils.obj
 0001:0002c600       _cosf                      1002d600 f i ConvexHullUtils.obj
 0001:0002c630       _sinf                      1002d630 f i ConvexHullUtils.obj
 0001:0002c660       ??0ConvexMeshBuilder@physx@@QAE@_N@Z 1002d660 f   ConvexMeshBuilder.obj
 0001:0002c6c0       ??1ConvexMeshBuilder@physx@@QAE@XZ 1002d6c0 f   ConvexMeshBuilder.obj
 0001:0002c720       ?build@ConvexMeshBuilder@physx@@QAE_NABVPxConvexMeshDesc@2@I_N1@Z 1002d720 f   ConvexMeshBuilder.obj
 0001:0002c800       ?save@ConvexMeshBuilder@physx@@QBE_NAAVPxOutputStream@2@_N@Z 1002d800 f   ConvexMeshBuilder.obj
 0001:0002cae0       ?copy@ConvexMeshBuilder@physx@@QAE_NAAUConvexHullData@Gu@2@AAI@Z 1002dae0 f   ConvexMeshBuilder.obj
 0001:0002cbb0       ?loadConvexHull@ConvexMeshBuilder@physx@@QAE_NABVPxConvexMeshDesc@2@I_N@Z 1002dbb0 f   ConvexMeshBuilder.obj
 0001:0002cee0       ?computeHullPolygons@ConvexMeshBuilder@physx@@QAE_NABIPBVPxVec3@2@0PBIAAVPxAllocatorCallback@2@AAIAAPAV32@4AAPAI4AAPAUPxHullPolygon@2@@Z 1002dee0 f   ConvexMeshBuilder.obj
 0001:0002d190       ?computeGaussMaps@ConvexMeshBuilder@physx@@QAE_NXZ 1002e190 f   ConvexMeshBuilder.obj
 0001:0002d280       ?computeMassInfo@ConvexMeshBuilder@physx@@QAEX_N@Z 1002e280 f   ConvexMeshBuilder.obj
 0001:0002d500       ?computeInternalObjects@ConvexMeshBuilder@physx@@QAEXXZ 1002e500 f   ConvexMeshBuilder.obj
 0001:0002e170       ??0?$PxBitAndDataT@G$0IAAA@@physx@@QAE@XZ 1002f170 f i ConvexMeshBuilder.obj
 0001:0002e190       ??0?$ReflectionAllocator@VBigConvexData@physx@@@shdfnd@physx@@QAE@PBD@Z 1002f190 f i ConvexMeshBuilder.obj
 0001:0002e1b0       ??0CenterExtents@Gu@physx@@QAE@ABVPxBounds3@2@@Z 1002f1b0 f i ConvexMeshBuilder.obj
 0001:0002e220       ??0CenterExtents@Gu@physx@@QAE@XZ 1002f220 f i ConvexMeshBuilder.obj
 0001:0002e250       ??0ConvexHullData@Gu@physx@@QAE@XZ 1002f250 f i ConvexMeshBuilder.obj
 0001:0002e290       ??1CenterExtents@Gu@physx@@QAE@XZ 1002f290 f i ConvexMeshBuilder.obj
 0001:0002e2a0       ??1ConvexHullData@Gu@physx@@QAE@XZ 1002f2a0 f i ConvexMeshBuilder.obj
 0001:0002e2c0       ??2UserAllocated@shdfnd@physx@@SAPAXIPAX@Z 1002f2c0 f i ConvexMeshBuilder.obj
 0001:0002e2d0       ??4CenterExtents@Gu@physx@@QAEAAV012@ABV012@@Z 1002f2d0 f i ConvexMeshBuilder.obj
 0001:0002e310       ??4PxMat33@physx@@QAEAAV01@ABV01@@Z 1002f310 f i ConvexMeshBuilder.obj
 0001:0002e360       ??GPxMat33@physx@@QBE?BV01@XZ 1002f360 f i ConvexMeshBuilder.obj
 0001:0002e3c0       ??_GBigConvexData@physx@@QAEPAXI@Z 1002f3c0 f i ConvexMeshBuilder.obj
 0001:0002e420       ?allocate@?$ReflectionAllocator@VBigConvexData@physx@@@shdfnd@physx@@QAEPAXIPBDH@Z 1002f420 f i ConvexMeshBuilder.obj
 0001:0002e480       ?getExtents@PxBounds3@physx@@QBE?AVPxVec3@2@XZ 1002f480 f i ConvexMeshBuilder.obj
 0001:0002e520       ?getMax@CenterExtents@Gu@physx@@QBE?AVPxVec3@3@XZ 1002f520 f i ConvexMeshBuilder.obj
 0001:0002e550       ?getMin@CenterExtents@Gu@physx@@QBE?AVPxVec3@3@XZ 1002f550 f i ConvexMeshBuilder.obj
 0001:0002e580       ?getName@?$ReflectionAllocator@VBigConvexData@physx@@@shdfnd@physx@@CAPBDXZ 1002f580 f i ConvexMeshBuilder.obj
 0001:0002e5d0       ?getNextIndex3@shdfnd@physx@@YAII@Z 1002f5d0 f i ConvexMeshBuilder.obj
 0001:0002e5f0       ?isValid@PxConvexMeshDesc@physx@@QBE_NXZ 1002f5f0 f i ConvexMeshBuilder.obj
 0001:0002e800       ?largestAxis@shdfnd@physx@@YAIABVPxVec3@2@@Z 1002f800 f i ConvexMeshBuilder.obj
 0001:0002e880       ?markSerializedMem@Cm@physx@@YAXPAXI@Z 1002f880 f i ConvexMeshBuilder.obj
 0001:0002e8c0       ??0ConvexPolygonsBuilder@physx@@QAE@PAUConvexHullData@Gu@1@_N@Z 1002f8c0 f   ConvexPolygonsBuilder.obj
 0001:0002e900       ??1ConvexPolygonsBuilder@physx@@QAE@XZ 1002f900 f   ConvexPolygonsBuilder.obj
 0001:0002e940       ?computeHullPolygons@ConvexPolygonsBuilder@physx@@QAE_NABIPBVPxVec3@2@0PBI@Z 1002f940 f   ConvexPolygonsBuilder.obj
 0001:0002ecf0       ?createPolygonData@ConvexPolygonsBuilder@physx@@AAE_NXZ 1002fcf0 f   ConvexPolygonsBuilder.obj
 0001:0002f7c0       ?createTrianglesFromPolygons@ConvexPolygonsBuilder@physx@@AAE_NXZ 100307c0 f   ConvexPolygonsBuilder.obj
 0001:00031fe0       ??$?4VNamedAllocator@shdfnd@physx@@@?$Array@IVNamedAllocator@shdfnd@physx@@@shdfnd@physx@@QAEAAV012@ABV012@@Z 10032fe0 f i ConvexPolygonsBuilder.obj
 0001:00032060       ??$?_UUHullTriangleData@physx@@@@YAPAXIV?$ReflectionAllocator@UHullTriangleData@physx@@@shdfnd@physx@@PBDH@Z 10033060 f i ConvexPolygonsBuilder.obj
 0001:00032080       ??$PlaneEquation@U?$TriangleT@I@Gu@physx@@@@YA?AVPxPlane@physx@@ABU?$TriangleT@I@Gu@1@PBVPxVec3@1@@Z 10033080 f i ConvexPolygonsBuilder.obj
 0001:00032100       ??$copy@VNamedAllocator@shdfnd@physx@@@?$Array@VPair@@VNamedAllocator@shdfnd@physx@@@shdfnd@physx@@IAEXABV012@@Z 10033100 f i ConvexPolygonsBuilder.obj
 0001:000321c0       ??$swap@E@shdfnd@physx@@YAXAAE0@Z 100331c0 f i ConvexPolygonsBuilder.obj
 0001:000321f0       ??0?$Array@VPair@@VNamedAllocator@shdfnd@physx@@@shdfnd@physx@@QAE@ABV012@ABVNamedAllocator@12@@Z 100331f0 f i ConvexPolygonsBuilder.obj
 0001:00032230       ??0?$Array@VPair@@VNamedAllocator@shdfnd@physx@@@shdfnd@physx@@QAE@ABVNamedAllocator@12@@Z 10033230 f i ConvexPolygonsBuilder.obj
 0001:00032280       ??0?$ReflectionAllocator@UHullTriangleData@physx@@@shdfnd@physx@@QAE@PBD@Z 10033280 f i ConvexPolygonsBuilder.obj
 0001:000322a0       ??0ADJACENCIESCREATE@physx@@QAE@XZ 100332a0 f i ConvexPolygonsBuilder.obj
 0001:00032300       ??0Pair@@QAE@II@Z          10033300 f i ConvexPolygonsBuilder.obj
 0001:00032330       ??1?$Array@VPair@@VNamedAllocator@shdfnd@physx@@@shdfnd@physx@@QAE@XZ 10033330 f i ConvexPolygonsBuilder.obj
 0001:000323a0       ??1Pair@@QAE@XZ            100333a0 f i ConvexPolygonsBuilder.obj
 0001:000323b0       ??4?$Array@IVNamedAllocator@shdfnd@physx@@@shdfnd@physx@@QAEAAV012@ABV012@@Z 100333b0 f i ConvexPolygonsBuilder.obj
 0001:000323d0       ??A?$Array@VPair@@VNamedAllocator@shdfnd@physx@@@shdfnd@physx@@QAEAAVPair@@I@Z 100333d0 f i ConvexPolygonsBuilder.obj
 0001:00032440       ??_GPair@@QAEPAXI@Z        10033440 f i ConvexPolygonsBuilder.obj
 0001:00032a70       ?GetAdjTri@AdjTriangle@physx@@QBEIW4SharedEdgeIndex@2@@Z 10033a70 f i ConvexPolygonsBuilder.obj
 0001:00032dd0       ?HasActiveEdge01@AdjTriangle@physx@@QBEHXZ 10033dd0 f i ConvexPolygonsBuilder.obj
 0001:00032e00       ?HasActiveEdge12@AdjTriangle@physx@@QBEHXZ 10033e00 f i ConvexPolygonsBuilder.obj
 0001:00032e30       ?HasActiveEdge20@AdjTriangle@physx@@QBEHXZ 10033e30 f i ConvexPolygonsBuilder.obj
 0001:00032e60       ?HasActiveEdge@AdjTriangle@physx@@QBEHI@Z 10033e60 f i ConvexPolygonsBuilder.obj
 0001:00032e90       ?allocate@?$Array@VPair@@VNamedAllocator@shdfnd@physx@@@shdfnd@physx@@IAEPAVPair@@I@Z 10033e90 f i ConvexPolygonsBuilder.obj
 0001:00032f10       ?allocate@?$ReflectionAllocator@UHullTriangleData@physx@@@shdfnd@physx@@QAEPAXIPBDH@Z 10033f10 f i ConvexPolygonsBuilder.obj
 0001:00032f70       ?begin@?$Array@VPair@@VNamedAllocator@shdfnd@physx@@@shdfnd@physx@@QAEPAVPair@@XZ 10033f70 f i ConvexPolygonsBuilder.obj
 0001:00032f90       ?begin@?$Array@VPair@@VNamedAllocator@shdfnd@physx@@@shdfnd@physx@@QBEPBVPair@@XZ 10033f90 f i ConvexPolygonsBuilder.obj
 0001:00032fb0       ?capacity@?$Array@VPair@@VNamedAllocator@shdfnd@physx@@@shdfnd@physx@@QBEIXZ 10033fb0 f i ConvexPolygonsBuilder.obj
 0001:00032fd0       ?capacityIncrement@?$Array@VPair@@VNamedAllocator@shdfnd@physx@@@shdfnd@physx@@IBEIXZ 10033fd0 f i ConvexPolygonsBuilder.obj
 0001:00033010       ?clear@?$Array@IVNamedAllocator@shdfnd@physx@@@shdfnd@physx@@QAEXXZ 10034010 f i ConvexPolygonsBuilder.obj
 0001:00033050       ?copy@?$Array@VPair@@VNamedAllocator@shdfnd@physx@@@shdfnd@physx@@KAXPAVPair@@0PBV4@@Z 10034050 f i ConvexPolygonsBuilder.obj
 0001:00033110       ?deallocate@?$Array@VPair@@VNamedAllocator@shdfnd@physx@@@shdfnd@physx@@IAEXPAX@Z 10034110 f i ConvexPolygonsBuilder.obj
 0001:00033130       ?destroy@?$Array@VPair@@VNamedAllocator@shdfnd@physx@@@shdfnd@physx@@KAXPAVPair@@0@Z 10034130 f i ConvexPolygonsBuilder.obj
 0001:00033170       ?empty@?$Array@VPair@@VNamedAllocator@shdfnd@physx@@@shdfnd@physx@@QBE_NXZ 10034170 f i ConvexPolygonsBuilder.obj
 0001:000331b0       ?end@?$Array@IVNamedAllocator@shdfnd@physx@@@shdfnd@physx@@QAEPAIXZ 100341b0 f i ConvexPolygonsBuilder.obj
 0001:000331d0       ?find@?$Array@IVNamedAllocator@shdfnd@physx@@@shdfnd@physx@@QAEPAIABI@Z 100341d0 f i ConvexPolygonsBuilder.obj
 0001:00033230       ?flip@?$TriangleT@I@Gu@physx@@QAEXXZ 10034230 f i ConvexPolygonsBuilder.obj
 0001:00033270       ?forceSize_Unsafe@?$Array@IVNamedAllocator@shdfnd@physx@@@shdfnd@physx@@QAEXI@Z 10034270 f i ConvexPolygonsBuilder.obj
 0001:000332e0       ?getFaces@ConvexPolygonsBuilder@physx@@QBEPBUHullTriangleData@2@XZ 100342e0 f i ConvexPolygonsBuilder.obj
 0001:00033300       ?getName@?$ReflectionAllocator@UHullTriangleData@physx@@@shdfnd@physx@@CAPBDXZ 10034300 f i ConvexPolygonsBuilder.obj
 0001:00033350       ?getNbFaces@ConvexPolygonsBuilder@physx@@QBEIXZ 10034350 f i ConvexPolygonsBuilder.obj
 0001:00033370       ?growAndPushBack@?$Array@VPair@@VNamedAllocator@shdfnd@physx@@@shdfnd@physx@@IAEAAVPair@@ABV4@@Z 10034370 f i ConvexPolygonsBuilder.obj
 0001:00033500       ?isArrayOfPOD@?$Array@VPair@@VNamedAllocator@shdfnd@physx@@@shdfnd@physx@@SA_NXZ 10034500 f i ConvexPolygonsBuilder.obj
 0001:00033510       ?isInUserMemory@?$Array@VPair@@VNamedAllocator@shdfnd@physx@@@shdfnd@physx@@QBEIXZ 10034510 f i ConvexPolygonsBuilder.obj
 0001:00033530       ?memMove@intrinsics@physx@@YAPAXPAXPBXI@Z 10034530 f i ConvexPolygonsBuilder.obj
 0001:00033550       ?pushBack@?$Array@VPair@@VNamedAllocator@shdfnd@physx@@@shdfnd@physx@@QAEAAVPair@@ABV4@@Z 10034550 f i ConvexPolygonsBuilder.obj
 0001:00033610       ?remove@?$Array@IVNamedAllocator@shdfnd@physx@@@shdfnd@physx@@QAEXI@Z 10034610 f i ConvexPolygonsBuilder.obj
 0001:00033770       ?remove@?$Array@VPair@@VNamedAllocator@shdfnd@physx@@@shdfnd@physx@@QAEXI@Z 10034770 f i ConvexPolygonsBuilder.obj
 0001:000338f0       ?size@?$Array@VPair@@VNamedAllocator@shdfnd@physx@@@shdfnd@physx@@QBEIXZ 100348f0 f i ConvexPolygonsBuilder.obj
 0001:00033910       ??0InflationConvexHullLib@physx@@QAE@ABVPxConvexMeshDesc@1@ABUPxCookingParams@1@@Z 10034910 f   InflationConvexHullLib.obj
 0001:00033950       ??1InflationConvexHullLib@physx@@UAE@XZ 10034950 f   InflationConvexHullLib.obj
 0001:000339e0       ?createConvexHull@InflationConvexHullLib@physx@@UAE?AW4Enum@PxConvexMeshCookingResult@2@XZ 100349e0 f   InflationConvexHullLib.obj
 0001:00033bd0       ?fillConvexMeshDesc@InflationConvexHullLib@physx@@UAEXAAVPxConvexMeshDesc@2@@Z 10034bd0 f   InflationConvexHullLib.obj
 0001:00033cd0       ?computeHull@InflationConvexHullLib@physx@@IAE?AW4ErrorCode@ConvexHullLibResult@2@IPBVPxVec3@2@@Z 10034cd0 f   InflationConvexHullLib.obj
 0001:00034120       ?calchull@InflationConvexHullLib@physx@@IAE?AW4ErrorCode@ConvexHullLibResult@2@PBVPxVec3@2@IAAPAVConvexHull@2@@Z 10035120 f   InflationConvexHullLib.obj
 0001:000343c0       ?calchullgen@InflationConvexHullLib@physx@@IAE?AW4ErrorCode@ConvexHullLibResult@2@PBVPxVec3@2@IAAVHullTriangles@local@@@Z 100353c0 f   InflationConvexHullLib.obj
 0001:00034fe0       ?calchullplanes@InflationConvexHullLib@physx@@IAE_NPBVPxVec3@2@AAVHullTriangles@local@@AAV?$Array@VPxPlane@physx@@VNamedAllocator@shdfnd@2@@shdfnd@2@@Z 10035fe0 f   InflationConvexHullLib.obj
 0001:00035270       ?overhull@InflationConvexHullLib@physx@@IAE_NPBVPxVec3@2@IABV?$Array@VPxPlane@physx@@VNamedAllocator@shdfnd@2@@shdfnd@2@AAPAVConvexHull@2@@Z 10036270 f   InflationConvexHullLib.obj
 0001:000357b0       ?expandHull@InflationConvexHullLib@physx@@IAE?AW4ErrorCode@ConvexHullLibResult@2@PBVPxVec3@2@IABVHullTriangles@local@@AAPAVConvexHull@2@@Z 100367b0 f   InflationConvexHullLib.obj
 0001:00036590       ?expandHullOBB@InflationConvexHullLib@physx@@IAE?AW4ErrorCode@ConvexHullLibResult@2@PBVPxVec3@2@IABVHullTriangles@local@@AAPAVConvexHull@2@@Z 10037590 f   InflationConvexHullLib.obj
 0001:00036ba0       ?maxIndexInDirFiltered@local@@YAHPBVPxVec3@physx@@IABV23@PA_N@Z 10037ba0 f   InflationConvexHullLib.obj
 0001:00036d80       ?maxIndexInDirSterid@local@@YAHPBVPxVec3@physx@@IABV23@AAV?$Array@EVNamedAllocator@shdfnd@physx@@@shdfnd@3@@Z 10037d80 f   InflationConvexHullLib.obj
 0001:00038890       ??$?2V?$ReflectionAllocator@VTri@local@@@shdfnd@physx@@@UserAllocated@shdfnd@physx@@SAPAXIV?$ReflectionAllocator@VTri@local@@@12@PBDH@Z 10039890 f i InflationConvexHullLib.obj
 0001:000388b0       ??$?_UUPxHullPolygon@physx@@@@YAPAXIV?$ReflectionAllocator@UPxHullPolygon@physx@@@shdfnd@physx@@PBDH@Z 100398b0 f i InflationConvexHullLib.obj
 0001:000388d0       ??$PX_UNUSED@H@@YAXABH@Z   100398d0 f i InflationConvexHullLib.obj
 0001:000388e0       ??$swap@H@shdfnd@physx@@YAXAAH0@Z 100398e0 f i InflationConvexHullLib.obj
 0001:00038910       ??0?$Array@EVNamedAllocator@shdfnd@physx@@@shdfnd@physx@@QAE@ABVNamedAllocator@12@@Z 10039910 f i InflationConvexHullLib.obj
 0001:00038960       ??0?$Array@HVNamedAllocator@shdfnd@physx@@@shdfnd@physx@@QAE@ABVNamedAllocator@12@@Z 10039960 f i InflationConvexHullLib.obj
 0001:000389b0       ??0?$Array@PAVTri@local@@VNamedAllocator@shdfnd@physx@@@shdfnd@physx@@QAE@ABVNamedAllocator@12@@Z 100399b0 f i InflationConvexHullLib.obj
 0001:00038a00       ??0?$Array@UExpandPlane@local@@VNamedAllocator@shdfnd@physx@@@shdfnd@physx@@QAE@ABVNamedAllocator@12@@Z 10039a00 f i InflationConvexHullLib.obj
 0001:00038a50       ??0?$ReflectionAllocator@UPxHullPolygon@physx@@@shdfnd@physx@@QAE@PBD@Z 10039a50 f i InflationConvexHullLib.obj
 0001:00038a70       ??0?$ReflectionAllocator@VTri@local@@@shdfnd@physx@@QAE@PBD@Z 10039a70 f i InflationConvexHullLib.obj
 0001:00038a90       ??0?$ScopedPointer@_NVTempAllocator@shdfnd@physx@@@shdfnd@physx@@QAE@XZ 10039a90 f i InflationConvexHullLib.obj
 0001:00038ab0       ??0ConvexHullLib@physx@@QAE@ABVPxConvexMeshDesc@1@ABUPxCookingParams@1@@Z 10039ab0 f i InflationConvexHullLib.obj
 0001:00038b10       ??0ConvexHullLibResult@physx@@QAE@XZ 10039b10 f i InflationConvexHullLib.obj
 0001:00038b70       ??0ExpandPlane@local@@QAE@ABU01@@Z 10039b70 f i InflationConvexHullLib.obj
 0001:00038c10       ??0ExpandPlane@local@@QAE@XZ 10039c10 f i InflationConvexHullLib.obj
 0001:00038ca0       ??0HullSimplex@local@@QAE@HHHH@Z 10039ca0 f i InflationConvexHullLib.obj
 0001:00038ce0       ??0HullTriangles@local@@QAE@XZ 10039ce0 f i InflationConvexHullLib.obj
 0001:00038d30       ??0PxTransform@physx@@QAE@XZ 10039d30 f i InflationConvexHullLib.obj
 0001:00038d60       ??0Tri@local@@IAE@HHH@Z    10039d60 f i InflationConvexHullLib.obj
 0001:00038dc0       ??0int3@local@@QAE@HHH@Z   10039dc0 f i InflationConvexHullLib.obj
 0001:00038e00       ??1?$Array@EVNamedAllocator@shdfnd@physx@@@shdfnd@physx@@QAE@XZ 10039e00 f i InflationConvexHullLib.obj
 0001:00038e70       ??1?$Array@HVNamedAllocator@shdfnd@physx@@@shdfnd@physx@@QAE@XZ 10039e70 f i InflationConvexHullLib.obj
 0001:00038ee0       ??1?$Array@PAVTri@local@@VNamedAllocator@shdfnd@physx@@@shdfnd@physx@@QAE@XZ 10039ee0 f i InflationConvexHullLib.obj
 0001:00038f50       ??1?$Array@UExpandPlane@local@@VNamedAllocator@shdfnd@physx@@@shdfnd@physx@@QAE@XZ 10039f50 f i InflationConvexHullLib.obj
 0001:00038fc0       ??1?$Array@VHalfEdge@ConvexHull@physx@@VNamedAllocator@shdfnd@3@@shdfnd@physx@@QAE@XZ 10039fc0 f i InflationConvexHullLib.obj
 0001:00039030       ??1?$Array@VPxPlane@physx@@VNamedAllocator@shdfnd@2@@shdfnd@physx@@QAE@XZ 1003a030 f i InflationConvexHullLib.obj
 0001:000390a0       ??1?$ScopedPointer@_NVTempAllocator@shdfnd@physx@@@shdfnd@physx@@QAE@XZ 1003a0a0 f i InflationConvexHullLib.obj
 0001:000390d0       ??1ConvexHull@physx@@QAE@XZ 1003a0d0 f i InflationConvexHullLib.obj
 0001:00039110       ??1HullTriangles@local@@QAE@XZ 1003a110 f i InflationConvexHullLib.obj
 0001:000391c0       ??1Tri@local@@IAE@XZ       1003a1c0 f i InflationConvexHullLib.obj
 0001:000391d0       ??4?$PxFlags@W4Enum@PxConvexFlag@physx@@G@physx@@QAEAAV01@ABV01@@Z 1003a1d0 f i InflationConvexHullLib.obj
 0001:00039200       ??A?$Array@EVNamedAllocator@shdfnd@physx@@@shdfnd@physx@@QAEAAEI@Z 1003a200 f i InflationConvexHullLib.obj
 0001:00039270       ??A?$Array@HVNamedAllocator@shdfnd@physx@@@shdfnd@physx@@QAEAAHI@Z 1003a270 f i InflationConvexHullLib.obj
 0001:000392e0       ??A?$Array@PAVTri@local@@VNamedAllocator@shdfnd@physx@@@shdfnd@physx@@QAEAAPAVTri@local@@I@Z 1003a2e0 f i InflationConvexHullLib.obj
 0001:00039350       ??A?$Array@PAVTri@local@@VNamedAllocator@shdfnd@physx@@@shdfnd@physx@@QBEABQAVTri@local@@I@Z 1003a350 f i InflationConvexHullLib.obj
 0001:000393c0       ??A?$Array@UExpandPlane@local@@VNamedAllocator@shdfnd@physx@@@shdfnd@physx@@QAEAAUExpandPlane@local@@I@Z 1003a3c0 f i InflationConvexHullLib.obj
 0001:00039430       ??A?$Array@VPxPlane@physx@@VNamedAllocator@shdfnd@2@@shdfnd@physx@@QAEAAVPxPlane@2@I@Z 1003a430 f i InflationConvexHullLib.obj
 0001:000394a0       ??AHullSimplex@local@@QAEAAHH@Z 1003a4a0 f i InflationConvexHullLib.obj
 0001:000394c0       ??AHullTriangles@local@@QAEPAVTri@1@I@Z 1003a4c0 f i InflationConvexHullLib.obj
 0001:000394f0       ??AHullTriangles@local@@QBEPBVTri@1@I@Z 1003a4f0 f i InflationConvexHullLib.obj
 0001:00039520       ??Aint3@local@@QAEAAHH@Z   1003a520 f i InflationConvexHullLib.obj
 0001:00039540       ??Aint3@local@@QBEABHH@Z   1003a540 f i InflationConvexHullLib.obj
 0001:00039560       ??B?$ScopedPointer@_NVTempAllocator@shdfnd@physx@@@shdfnd@physx@@QBEPA_NXZ 1003a560 f i InflationConvexHullLib.obj
 0001:00039580       ??KPxVec3@physx@@QBE?AV01@M@Z 1003a580 f i InflationConvexHullLib.obj
 0001:00039600       ??_GConvexHull@physx@@QAEPAXI@Z 1003a600 f i InflationConvexHullLib.obj
 0001:00039660       ??_EInflationConvexHullLib@physx@@UAEPAXI@Z 1003a660 f i InflationConvexHullLib.obj
 0001:00039660       ??_GInflationConvexHullLib@physx@@UAEPAXI@Z 1003a660 f i InflationConvexHullLib.obj
 0001:000396c0       ??_GTri@local@@IAEPAXI@Z   1003a6c0 f i InflationConvexHullLib.obj
 0001:00039850       ?allocate@?$Array@EVNamedAllocator@shdfnd@physx@@@shdfnd@physx@@IAEPAEI@Z 1003a850 f i InflationConvexHullLib.obj
 0001:000398d0       ?allocate@?$Array@HVNamedAllocator@shdfnd@physx@@@shdfnd@physx@@IAEPAHI@Z 1003a8d0 f i InflationConvexHullLib.obj
 0001:00039950       ?allocate@?$Array@PAVTri@local@@VNamedAllocator@shdfnd@physx@@@shdfnd@physx@@IAEPAPAVTri@local@@I@Z 1003a950 f i InflationConvexHullLib.obj
 0001:000399d0       ?allocate@?$Array@UExpandPlane@local@@VNamedAllocator@shdfnd@physx@@@shdfnd@physx@@IAEPAUExpandPlane@local@@I@Z 1003a9d0 f i InflationConvexHullLib.obj
 0001:00039a50       ?allocate@?$ReflectionAllocator@UPxHullPolygon@physx@@@shdfnd@physx@@QAEPAXIPBDH@Z 1003aa50 f i InflationConvexHullLib.obj
 0001:00039ab0       ?allocate@?$ReflectionAllocator@VTri@local@@@shdfnd@physx@@QAEPAXIPBDH@Z 1003aab0 f i InflationConvexHullLib.obj
 0001:00039b10       ?b2bfix@HullTriangles@local@@IAEXPAVTri@2@0@Z 1003ab10 f i InflationConvexHullLib.obj
 0001:00039d50       ?capacity@?$Array@EVNamedAllocator@shdfnd@physx@@@shdfnd@physx@@QBEIXZ 1003ad50 f i InflationConvexHullLib.obj
 0001:00039d70       ?capacity@?$Array@HVNamedAllocator@shdfnd@physx@@@shdfnd@physx@@QBEIXZ 1003ad70 f i InflationConvexHullLib.obj
 0001:00039d90       ?capacity@?$Array@PAVTri@local@@VNamedAllocator@shdfnd@physx@@@shdfnd@physx@@QBEIXZ 1003ad90 f i InflationConvexHullLib.obj
 0001:00039db0       ?capacity@?$Array@UExpandPlane@local@@VNamedAllocator@shdfnd@physx@@@shdfnd@physx@@QBEIXZ 1003adb0 f i InflationConvexHullLib.obj
 0001:00039dd0       ?capacityIncrement@?$Array@EVNamedAllocator@shdfnd@physx@@@shdfnd@physx@@IBEIXZ 1003add0 f i InflationConvexHullLib.obj
 0001:00039e10       ?capacityIncrement@?$Array@HVNamedAllocator@shdfnd@physx@@@shdfnd@physx@@IBEIXZ 1003ae10 f i InflationConvexHullLib.obj
 0001:00039e50       ?capacityIncrement@?$Array@PAVTri@local@@VNamedAllocator@shdfnd@physx@@@shdfnd@physx@@IBEIXZ 1003ae50 f i InflationConvexHullLib.obj
 0001:00039e90       ?capacityIncrement@?$Array@UExpandPlane@local@@VNamedAllocator@shdfnd@physx@@@shdfnd@physx@@IBEIXZ 1003ae90 f i InflationConvexHullLib.obj
 0001:00039ed0       ?checkit@HullTriangles@local@@QBEXPAVTri@2@@Z 1003aed0 f i InflationConvexHullLib.obj
 0001:0003a0b0       ?clear@?$Array@HVNamedAllocator@shdfnd@physx@@@shdfnd@physx@@QAEXXZ 1003b0b0 f i InflationConvexHullLib.obj
 0001:0003a0f0       ?clear@?$Array@PAVTri@local@@VNamedAllocator@shdfnd@physx@@@shdfnd@physx@@QAEXXZ 1003b0f0 f i InflationConvexHullLib.obj
 0001:0003a130       ?copy@?$Array@EVNamedAllocator@shdfnd@physx@@@shdfnd@physx@@KAXPAE0PBE@Z 1003b130 f i InflationConvexHullLib.obj
 0001:0003a1e0       ?copy@?$Array@HVNamedAllocator@shdfnd@physx@@@shdfnd@physx@@KAXPAH0PBH@Z 1003b1e0 f i InflationConvexHullLib.obj
 0001:0003a290       ?copy@?$Array@PAVTri@local@@VNamedAllocator@shdfnd@physx@@@shdfnd@physx@@KAXPAPAVTri@local@@0PBQAV45@@Z 1003b290 f i InflationConvexHullLib.obj
 0001:0003a340       ?copy@?$Array@UExpandPlane@local@@VNamedAllocator@shdfnd@physx@@@shdfnd@physx@@KAXPAUExpandPlane@local@@0PBU45@@Z 1003b340 f i InflationConvexHullLib.obj
 0001:0003a400       ?create@?$Array@HVNamedAllocator@shdfnd@physx@@@shdfnd@physx@@KAXPAH0ABH@Z 1003b400 f i InflationConvexHullLib.obj
 0001:0003a4b0       ?createTri@HullTriangles@local@@QAEPAVTri@2@HHH@Z 1003b4b0 f i InflationConvexHullLib.obj
 0001:0003a550       ?deallocate@?$Array@EVNamedAllocator@shdfnd@physx@@@shdfnd@physx@@IAEXPAX@Z 1003b550 f i InflationConvexHullLib.obj
 0001:0003a570       ?deallocate@?$Array@HVNamedAllocator@shdfnd@physx@@@shdfnd@physx@@IAEXPAX@Z 1003b570 f i InflationConvexHullLib.obj
 0001:0003a590       ?deallocate@?$Array@PAVTri@local@@VNamedAllocator@shdfnd@physx@@@shdfnd@physx@@IAEXPAX@Z 1003b590 f i InflationConvexHullLib.obj
 0001:0003a5b0       ?deallocate@?$Array@UExpandPlane@local@@VNamedAllocator@shdfnd@physx@@@shdfnd@physx@@IAEXPAX@Z 1003b5b0 f i InflationConvexHullLib.obj
 0001:0003a5d0       ?deleteTri@HullTriangles@local@@QAEXPAVTri@2@@Z 1003b5d0 f i InflationConvexHullLib.obj
 0001:0003a690       ?destroy@?$Array@EVNamedAllocator@shdfnd@physx@@@shdfnd@physx@@KAXPAE0@Z 1003b690 f i InflationConvexHullLib.obj
 0001:0003a6c0       ?destroy@?$Array@HVNamedAllocator@shdfnd@physx@@@shdfnd@physx@@KAXPAH0@Z 1003b6c0 f i InflationConvexHullLib.obj
 0001:0003a6f0       ?destroy@?$Array@PAVTri@local@@VNamedAllocator@shdfnd@physx@@@shdfnd@physx@@KAXPAPAVTri@local@@0@Z 1003b6f0 f i InflationConvexHullLib.obj
 0001:0003a720       ?destroy@?$Array@UExpandPlane@local@@VNamedAllocator@shdfnd@physx@@@shdfnd@physx@@KAXPAUExpandPlane@local@@0@Z 1003b720 f i InflationConvexHullLib.obj
 0001:0003a750       ?extrude@HullTriangles@local@@QAEXPAVTri@2@H@Z 1003b750 f i InflationConvexHullLib.obj
 0001:0003ab60       ?findExtrudable@HullTriangles@local@@QBEPAVTri@2@M@Z 1003bb60 f i InflationConvexHullLib.obj
 0001:0003ac30       ?getArea2@Tri@local@@QBEMPBVPxVec3@physx@@@Z 1003bc30 f i InflationConvexHullLib.obj
 0001:0003acd0       ?getName@?$ReflectionAllocator@UPxHullPolygon@physx@@@shdfnd@physx@@CAPBDXZ 1003bcd0 f i InflationConvexHullLib.obj
 0001:0003ad20       ?getName@?$ReflectionAllocator@VTri@local@@@shdfnd@physx@@CAPBDXZ 1003bd20 f i InflationConvexHullLib.obj
 0001:0003ad70       ?getNormal@Tri@local@@QBE?AVPxVec3@physx@@PBV34@@Z 1003bd70 f i InflationConvexHullLib.obj
 0001:0003ae90       ?getTriangles@HullTriangles@local@@QAEAAV?$Array@PAVTri@local@@VNamedAllocator@shdfnd@physx@@@shdfnd@physx@@XZ 1003be90 f i InflationConvexHullLib.obj
 0001:0003aeb0       ?grow@?$Array@EVNamedAllocator@shdfnd@physx@@@shdfnd@physx@@IAEXI@Z 1003beb0 f i InflationConvexHullLib.obj
 0001:0003af30       ?grow@?$Array@HVNamedAllocator@shdfnd@physx@@@shdfnd@physx@@IAEXI@Z 1003bf30 f i InflationConvexHullLib.obj
 0001:0003afb0       ?grow@?$Array@PAVTri@local@@VNamedAllocator@shdfnd@physx@@@shdfnd@physx@@IAEXI@Z 1003bfb0 f i InflationConvexHullLib.obj
 0001:0003b030       ?growAndPushBack@?$Array@EVNamedAllocator@shdfnd@physx@@@shdfnd@physx@@IAEAAEABE@Z 1003c030 f i InflationConvexHullLib.obj
 0001:0003b1b0       ?growAndPushBack@?$Array@HVNamedAllocator@shdfnd@physx@@@shdfnd@physx@@IAEAAHABH@Z 1003c1b0 f i InflationConvexHullLib.obj
 0001:0003b340       ?growAndPushBack@?$Array@PAVTri@local@@VNamedAllocator@shdfnd@physx@@@shdfnd@physx@@IAEAAPAVTri@local@@ABQAV45@@Z 1003c340 f i InflationConvexHullLib.obj
 0001:0003b4d0       ?growAndPushBack@?$Array@UExpandPlane@local@@VNamedAllocator@shdfnd@physx@@@shdfnd@physx@@IAEAAUExpandPlane@local@@ABU45@@Z 1003c4d0 f i InflationConvexHullLib.obj
 0001:0003b650       ?hasVolume@HullSimplex@local@@SA_NPBVPxVec3@physx@@IIII@Z 1003c650 f i InflationConvexHullLib.obj
 0001:0003b760       ?isArrayOfPOD@?$Array@EVNamedAllocator@shdfnd@physx@@@shdfnd@physx@@SA_NXZ 1003c760 f i InflationConvexHullLib.obj
 0001:0003b770       ?isArrayOfPOD@?$Array@HVNamedAllocator@shdfnd@physx@@@shdfnd@physx@@SA_NXZ 1003c770 f i InflationConvexHullLib.obj
 0001:0003b780       ?isArrayOfPOD@?$Array@PAVTri@local@@VNamedAllocator@shdfnd@physx@@@shdfnd@physx@@SA_NXZ 1003c780 f i InflationConvexHullLib.obj
 0001:0003b790       ?isArrayOfPOD@?$Array@UExpandPlane@local@@VNamedAllocator@shdfnd@physx@@@shdfnd@physx@@SA_NXZ 1003c790 f i InflationConvexHullLib.obj
 0001:0003b7a0       ?isInUserMemory@?$Array@EVNamedAllocator@shdfnd@physx@@@shdfnd@physx@@QBEIXZ 1003c7a0 f i InflationConvexHullLib.obj
 0001:0003b7c0       ?isInUserMemory@?$Array@HVNamedAllocator@shdfnd@physx@@@shdfnd@physx@@QBEIXZ 1003c7c0 f i InflationConvexHullLib.obj
 0001:0003b7e0       ?isInUserMemory@?$Array@PAVTri@local@@VNamedAllocator@shdfnd@physx@@@shdfnd@physx@@QBEIXZ 1003c7e0 f i InflationConvexHullLib.obj
 0001:0003b800       ?isInUserMemory@?$Array@UExpandPlane@local@@VNamedAllocator@shdfnd@physx@@@shdfnd@physx@@QBEIXZ 1003c800 f i InflationConvexHullLib.obj
 0001:0003b820       ?isZeroInit@?$Array@HVNamedAllocator@shdfnd@physx@@@shdfnd@physx@@KA_NABH@Z 1003c820 f i InflationConvexHullLib.obj
 0001:0003b880       ?neib@Tri@local@@QAEAAHHH@Z 1003c880 f i InflationConvexHullLib.obj
 0001:0003b9c0       ?pushBack@?$Array@EVNamedAllocator@shdfnd@physx@@@shdfnd@physx@@QAEAAEABE@Z 1003c9c0 f i InflationConvexHullLib.obj
 0001:0003ba70       ?pushBack@?$Array@HVNamedAllocator@shdfnd@physx@@@shdfnd@physx@@QAEAAHABH@Z 1003ca70 f i InflationConvexHullLib.obj
 0001:0003bb20       ?pushBack@?$Array@PAVTri@local@@VNamedAllocator@shdfnd@physx@@@shdfnd@physx@@QAEAAPAVTri@local@@ABQAV45@@Z 1003cb20 f i InflationConvexHullLib.obj
 0001:0003bbd0       ?pushBack@?$Array@UExpandPlane@local@@VNamedAllocator@shdfnd@physx@@@shdfnd@physx@@QAEAAUExpandPlane@local@@ABU45@@Z 1003cbd0 f i InflationConvexHullLib.obj
 0001:0003bc80       ?recreate@?$Array@EVNamedAllocator@shdfnd@physx@@@shdfnd@physx@@IAEXI@Z 1003cc80 f i InflationConvexHullLib.obj
 0001:0003bd80       ?recreate@?$Array@HVNamedAllocator@shdfnd@physx@@@shdfnd@physx@@IAEXI@Z 1003cd80 f i InflationConvexHullLib.obj
 0001:0003be90       ?recreate@?$Array@PAVTri@local@@VNamedAllocator@shdfnd@physx@@@shdfnd@physx@@IAEXI@Z 1003ce90 f i InflationConvexHullLib.obj
 0001:0003bfa0       ?removeb2b@HullTriangles@local@@IAEXPAVTri@2@0@Z 1003cfa0 f i InflationConvexHullLib.obj
 0001:0003bff0       ?reserve@?$Array@EVNamedAllocator@shdfnd@physx@@@shdfnd@physx@@QAEXI@Z 1003cff0 f i InflationConvexHullLib.obj
 0001:0003c020       ?reserve@?$Array@HVNamedAllocator@shdfnd@physx@@@shdfnd@physx@@QAEXI@Z 1003d020 f i InflationConvexHullLib.obj
 0001:0003c050       ?reserve@?$Array@PAVTri@local@@VNamedAllocator@shdfnd@physx@@@shdfnd@physx@@QAEXI@Z 1003d050 f i InflationConvexHullLib.obj
 0001:0003c080       ?resize@?$Array@HVNamedAllocator@shdfnd@physx@@@shdfnd@physx@@QAEXIABH@Z 1003d080 f i InflationConvexHullLib.obj
 0001:0003c110       ?size@?$Array@HVNamedAllocator@shdfnd@physx@@@shdfnd@physx@@QBEIXZ 1003d110 f i InflationConvexHullLib.obj
 0001:0003c130       ?size@?$Array@PAVTri@local@@VNamedAllocator@shdfnd@physx@@@shdfnd@physx@@QBEIXZ 1003d130 f i InflationConvexHullLib.obj
 0001:0003c150       ?size@?$Array@UExpandPlane@local@@VNamedAllocator@shdfnd@physx@@@shdfnd@physx@@QBEIXZ 1003d150 f i InflationConvexHullLib.obj
 0001:0003c170       ?size@HullTriangles@local@@QBEIXZ 1003d170 f i InflationConvexHullLib.obj
 0001:0003c190       ?to8@shdfnd@physx@@YAEH@Z  1003d190 f i InflationConvexHullLib.obj
 0001:0003c280       ??0QuickHullConvexHullLib@physx@@QAE@ABVPxConvexMeshDesc@1@ABUPxCookingParams@1@@Z 1003d280 f   QuickHullConvexHullLib.obj
 0001:0003c350       ??1QuickHullConvexHullLib@physx@@UAE@XZ 1003d350 f   QuickHullConvexHullLib.obj
 0001:0003c420       ?createConvexHull@QuickHullConvexHullLib@physx@@UAE?AW4Enum@PxConvexMeshCookingResult@2@XZ 1003d420 f   QuickHullConvexHullLib.obj
 0001:0003c7f0       ?fillConvexMeshDesc@QuickHullConvexHullLib@physx@@UAEXAAVPxConvexMeshDesc@2@@Z 1003d7f0 f   QuickHullConvexHullLib.obj
 0001:0003c860       ?expandHullOBB@QuickHullConvexHullLib@physx@@IAE?AW4Enum@PxConvexMeshCookingResult@2@XZ 1003d860 f   QuickHullConvexHullLib.obj
 0001:0003cd10       ?expandHull@QuickHullConvexHullLib@physx@@IAE?AW4Enum@PxConvexMeshCookingResult@2@XZ 1003dd10 f   QuickHullConvexHullLib.obj
 0001:0003d310       ?cleanupForSimplex@QuickHullConvexHullLib@physx@@IAE_NPAVPxVec3@2@IPAUQuickHullVertex@local@@1AAM2@Z 1003e310 f   QuickHullConvexHullLib.obj
 0001:0003dc60       ?fillConvexMeshDescFromQuickHull@QuickHullConvexHullLib@physx@@IAEXAAVPxConvexMeshDesc@2@@Z 1003ec60 f   QuickHullConvexHullLib.obj
 0001:0003e160       ?fillConvexMeshDescFromCroppedHull@QuickHullConvexHullLib@physx@@IAEXAAVPxConvexMeshDesc@2@@Z 1003f160 f   QuickHullConvexHullLib.obj
 0001:0003e560       ?getOppositeFaceDistance@QuickHullHalfEdge@local@@QBEMXZ 1003f560 f   QuickHullConvexHullLib.obj
 0001:0003e610       ?mergeAdjacentFace@QuickHullFace@local@@QAEXPAUQuickHullHalfEdge@2@AAV?$Array@PAUQuickHullFace@local@@VNamedAllocator@shdfnd@physx@@@shdfnd@physx@@@Z 1003f610 f   QuickHullConvexHullLib.obj
 0001:0003e780       ?checkFaceConsistency@QuickHullFace@local@@QAE_NXZ 1003f780 f   QuickHullConvexHullLib.obj
 0001:0003e970       ?connectHalfEdges@QuickHullFace@local@@AAEPAU12@PAUQuickHullHalfEdge@2@0@Z 1003f970 f   QuickHullConvexHullLib.obj
 0001:0003ea80       ??0QuickHull@local@@QAE@ABUPxCookingParams@physx@@ABVPxConvexMeshDesc@3@@Z 1003fa80 f   QuickHullConvexHullLib.obj
 0001:0003ec10       ??1QuickHull@local@@QAE@XZ 1003fc10 f   QuickHullConvexHullLib.obj
 0001:0003ec90       ?preallocate@QuickHull@local@@QAEXI@Z 1003fc90 f   QuickHullConvexHullLib.obj
 0001:0003ede0       ?parseInputVertices@QuickHull@local@@QAEXPBVPxVec3@physx@@I@Z 1003fde0 f   QuickHullConvexHullLib.obj
 0001:0003eec0       ?releaseHull@QuickHull@local@@QAEXXZ 1003fec0 f   QuickHullConvexHullLib.obj
 0001:0003ef10       ?setPrecomputedMinMax@QuickHull@local@@QAEXPBUQuickHullVertex@2@0MM@Z 1003ff10 f   QuickHullConvexHullLib.obj
 0001:0003efa0       ?buildHull@QuickHull@local@@QAE?AW4Enum@QuickHullResult@2@XZ 1003ffa0 f   QuickHullConvexHullLib.obj
 0001:0003f160       ?maxNumVertsPerFace@QuickHull@local@@QBEIXZ 10040160 f   QuickHullConvexHullLib.obj
 0001:0003f1e0       ?computeMinMaxVerts@QuickHull@local@@IAEXXZ 100401e0 f   QuickHullConvexHullLib.obj
 0001:0003f5c0       ?findSimplex@QuickHull@local@@IAE_NXZ 100405c0 f   QuickHullConvexHullLib.obj
 0001:0003fa00       ?addSimplex@QuickHull@local@@IAEXPAUQuickHullVertex@2@_N@Z 10040a00 f   QuickHullConvexHullLib.obj
 0001:0003fef0       ?nextPointToAdd@QuickHull@local@@IAEPAUQuickHullVertex@2@AAPAUQuickHullFace@2@@Z 10040ef0 f   QuickHullConvexHullLib.obj
 0001:0003ffe0       ?addPointToHull@QuickHull@local@@IAE_NPBUQuickHullVertex@2@AAUQuickHullFace@2@@Z 10040fe0 f   QuickHullConvexHullLib.obj
 0001:00040210       ?createTriangle@QuickHull@local@@IAEPAUQuickHullFace@2@ABUQuickHullVertex@2@00@Z 10041210 f   QuickHullConvexHullLib.obj
 0001:000402e0       ?addPointToFace@QuickHull@local@@IAEXAAUQuickHullFace@2@PAUQuickHullVertex@2@M@Z 100412e0 f   QuickHullConvexHullLib.obj
 0001:000403b0       ?removeEyePointFromFace@QuickHull@local@@IAEXAAUQuickHullFace@2@PBUQuickHullVertex@2@@Z 100413b0 f   QuickHullConvexHullLib.obj
 0001:00040420       ?calculateHorizon@QuickHull@local@@IAEXABVPxVec3@physx@@PAUQuickHullHalfEdge@2@AAUQuickHullFace@2@AAV?$Array@PAUQuickHullHalfEdge@local@@VNamedAllocator@shdfnd@physx@@@shdfnd@4@AAV?$Array@PAUQuickHullFace@local@@VNamedAllocator@shdfnd@physx@@@84@@Z 10041420 f   QuickHullConvexHullLib.obj
 0001:00040510       ?addNewFacesFromHorizon@QuickHull@local@@IAEXPBUQuickHullVertex@2@ABV?$Array@PAUQuickHullHalfEdge@local@@VNamedAllocator@shdfnd@physx@@@shdfnd@physx@@AAV?$Array@PAUQuickHullFace@local@@VNamedAllocator@shdfnd@physx@@@56@@Z 10041510 f   QuickHullConvexHullLib.obj
 0001:00040610       ?doAdjacentMerge@QuickHull@local@@IAE_NAAUQuickHullFace@2@_N@Z 10041610 f   QuickHullConvexHullLib.obj
 0001:00040870       ?doPostAdjacentMerge@QuickHull@local@@IAE_NAAUQuickHullFace@2@M@Z 10041870 f   QuickHullConvexHullLib.obj
 0001:000409e0       ?deleteFacePoints@QuickHull@local@@IAEXAAUQuickHullFace@2@PAU32@@Z 100419e0 f   QuickHullConvexHullLib.obj
 0001:00040ac0       ?resolveUnclaimedPoints@QuickHull@local@@IAEXABV?$Array@PAUQuickHullFace@local@@VNamedAllocator@shdfnd@physx@@@shdfnd@physx@@@Z 10041ac0 f   QuickHullConvexHullLib.obj
 0001:00040be0       ?postMergeHull@QuickHull@local@@IAEXXZ 10041be0 f   QuickHullConvexHullLib.obj
 0001:00040ca0       ?canMergeFaces@QuickHull@local@@IAE_NABUQuickHullHalfEdge@2@@Z 10041ca0 f   QuickHullConvexHullLib.obj
 0001:00041110       ?getExpandPoint@local@@YAXABUQuickHullHalfEdge@1@AAUExpandPoint@1@PBV?$Array@IVNamedAllocator@shdfnd@physx@@@shdfnd@physx@@@Z 10042110 f   QuickHullConvexHullLib.obj
 0001:000412e0       ?addExpandPoint@local@@YAXABUExpandPoint@1@AAV?$Array@UExpandPoint@local@@VNamedAllocator@shdfnd@physx@@@shdfnd@physx@@@Z 100422e0 f   QuickHullConvexHullLib.obj
 0001:00042840       ??$?2V?$ReflectionAllocator@VQuickHull@local@@@shdfnd@physx@@@UserAllocated@shdfnd@physx@@SAPAXIV?$ReflectionAllocator@VQuickHull@local@@@12@PBDH@Z 10043840 f i QuickHullConvexHullLib.obj
 0001:00042860       ??$PX_UNUSED@PAUQuickHullFace@local@@@@YAXABQAUQuickHullFace@local@@@Z 10043860 f i QuickHullConvexHullLib.obj
 0001:00042870       ??$PX_UNUSED@PBUQuickHullVertex@local@@@@YAXABQBUQuickHullVertex@local@@@Z 10043870 f i QuickHullConvexHullLib.obj
 0001:00042880       ??$PX_UNUSED@W4PxZERO@physx@@@@YAXABW4PxZERO@physx@@@Z 10043880 f i QuickHullConvexHullLib.obj
 0001:00042890       ??0?$Array@PAUQuickHullFace@local@@VNamedAllocator@shdfnd@physx@@@shdfnd@physx@@QAE@ABVNamedAllocator@12@@Z 10043890 f i QuickHullConvexHullLib.obj
 0001:000428e0       ??0?$Array@PAUQuickHullHalfEdge@local@@VNamedAllocator@shdfnd@physx@@@shdfnd@physx@@QAE@ABVNamedAllocator@12@@Z 100438e0 f i QuickHullConvexHullLib.obj
 0001:00042930       ??0?$Array@PAUQuickHullVertex@local@@VNamedAllocator@shdfnd@physx@@@shdfnd@physx@@QAE@ABVNamedAllocator@12@@Z 10043930 f i QuickHullConvexHullLib.obj
 0001:00042980       ??0?$Array@UExpandPoint@local@@VNamedAllocator@shdfnd@physx@@@shdfnd@physx@@QAE@ABVNamedAllocator@12@@Z 10043980 f i QuickHullConvexHullLib.obj
 0001:000429d0       ??0?$MemBlock@UQuickHullFace@local@@$00@local@@QAE@XZ 100439d0 f i QuickHullConvexHullLib.obj
 0001:00042a30       ??0?$MemBlock@UQuickHullHalfEdge@local@@$0A@@local@@QAE@XZ 10043a30 f i QuickHullConvexHullLib.obj
 0001:00042a90       ??0?$ReflectionAllocator@VQuickHull@local@@@shdfnd@physx@@QAE@PBD@Z 10043a90 f i QuickHullConvexHullLib.obj
 0001:00042ab0       ??0?$ScopedPointer@UQuickHullHalfEdge@local@@VTempAllocator@shdfnd@physx@@@shdfnd@physx@@QAE@XZ 10043ab0 f i QuickHullConvexHullLib.obj
 0001:00042ad0       ??0?$ScopedPointer@VPxVec3@physx@@VTempAllocator@shdfnd@2@@shdfnd@physx@@QAE@XZ 10043ad0 f i QuickHullConvexHullLib.obj
 0001:00042af0       ??0ExpandPoint@local@@QAE@ABU01@@Z 10043af0 f i QuickHullConvexHullLib.obj
 0001:00042b50       ??0ExpandPoint@local@@QAE@XZ 10043b50 f i QuickHullConvexHullLib.obj
 0001:00042b80       ??0PxVec3@physx@@QAE@W4PxZERO@1@@Z 10043b80 f i QuickHullConvexHullLib.obj
 0001:00042bd0       ??0QuickHullFace@local@@QAE@I@Z 10043bd0 f i QuickHullConvexHullLib.obj
 0001:00042c80       ??0QuickHullFace@local@@QAE@XZ 10043c80 f i QuickHullConvexHullLib.obj
 0001:00042d20       ??0QuickHullHalfEdge@local@@QAE@I@Z 10043d20 f i QuickHullConvexHullLib.obj
 0001:00042d70       ??0QuickHullVertex@local@@QAE@XZ 10043d70 f i QuickHullConvexHullLib.obj
 0001:00042d90       ??1?$Array@PAUQuickHullFace@local@@VNamedAllocator@shdfnd@physx@@@shdfnd@physx@@QAE@XZ 10043d90 f i QuickHullConvexHullLib.obj
 0001:00042e00       ??1?$Array@PAUQuickHullHalfEdge@local@@VNamedAllocator@shdfnd@physx@@@shdfnd@physx@@QAE@XZ 10043e00 f i QuickHullConvexHullLib.obj
 0001:00042e70       ??1?$Array@PAUQuickHullVertex@local@@VNamedAllocator@shdfnd@physx@@@shdfnd@physx@@QAE@XZ 10043e70 f i QuickHullConvexHullLib.obj
 0001:00042ee0       ??1?$Array@UExpandPoint@local@@VNamedAllocator@shdfnd@physx@@@shdfnd@physx@@QAE@XZ 10043ee0 f i QuickHullConvexHullLib.obj
 0001:00042f50       ??1?$MemBlock@UQuickHullFace@local@@$00@local@@QAE@XZ 10043f50 f i QuickHullConvexHullLib.obj
 0001:00042fe0       ??1?$MemBlock@UQuickHullHalfEdge@local@@$0A@@local@@QAE@XZ 10043fe0 f i QuickHullConvexHullLib.obj
 0001:00043070       ??1?$ScopedPointer@UQuickHullHalfEdge@local@@VTempAllocator@shdfnd@physx@@@shdfnd@physx@@QAE@XZ 10044070 f i QuickHullConvexHullLib.obj
 0001:000430a0       ??1?$ScopedPointer@VPxVec3@physx@@VTempAllocator@shdfnd@2@@shdfnd@physx@@QAE@XZ 100440a0 f i QuickHullConvexHullLib.obj
 0001:000430d0       ??1QuickHullFace@local@@QAE@XZ 100440d0 f i QuickHullConvexHullLib.obj
 0001:000430e0       ??4QuickHullVertex@local@@QAEAAU01@ABU01@@Z 100440e0 f i QuickHullConvexHullLib.obj
 0001:00043130       ??8ExpandPoint@local@@QBE_NABU01@@Z 10044130 f i QuickHullConvexHullLib.obj
 0001:000431d0       ??8QuickHullVertex@local@@QBE_NABU01@@Z 100441d0 f i QuickHullConvexHullLib.obj
 0001:00043210       ??A?$Array@IVNamedAllocator@shdfnd@physx@@@shdfnd@physx@@QBEABII@Z 10044210 f i QuickHullConvexHullLib.obj
 0001:00043280       ??A?$Array@PAUQuickHullFace@local@@VNamedAllocator@shdfnd@physx@@@shdfnd@physx@@QAEAAPAUQuickHullFace@local@@I@Z 10044280 f i QuickHullConvexHullLib.obj
 0001:000432f0       ??A?$Array@PAUQuickHullFace@local@@VNamedAllocator@shdfnd@physx@@@shdfnd@physx@@QBEABQAUQuickHullFace@local@@I@Z 100442f0 f i QuickHullConvexHullLib.obj
 0001:00043360       ??A?$Array@PAUQuickHullHalfEdge@local@@VNamedAllocator@shdfnd@physx@@@shdfnd@physx@@QAEAAPAUQuickHullHalfEdge@local@@I@Z 10044360 f i QuickHullConvexHullLib.obj
 0001:000433d0       ??A?$Array@PAUQuickHullHalfEdge@local@@VNamedAllocator@shdfnd@physx@@@shdfnd@physx@@QBEABQAUQuickHullHalfEdge@local@@I@Z 100443d0 f i QuickHullConvexHullLib.obj
 0001:00043440       ??A?$Array@PAUQuickHullVertex@local@@VNamedAllocator@shdfnd@physx@@@shdfnd@physx@@QAEAAPAUQuickHullVertex@local@@I@Z 10044440 f i QuickHullConvexHullLib.obj
 0001:000434b0       ??A?$Array@UExpandPoint@local@@VNamedAllocator@shdfnd@physx@@@shdfnd@physx@@QAEAAUExpandPoint@local@@I@Z 100444b0 f i QuickHullConvexHullLib.obj
 0001:00043520       ??B?$ScopedPointer@UQuickHullHalfEdge@local@@VTempAllocator@shdfnd@physx@@@shdfnd@physx@@QBEPAUQuickHullHalfEdge@local@@XZ 10044520 f i QuickHullConvexHullLib.obj
 0001:00043540       ??B?$ScopedPointer@VPxVec3@physx@@VTempAllocator@shdfnd@2@@shdfnd@physx@@QBEPAVPxVec3@2@XZ 10044540 f i QuickHullConvexHullLib.obj
 0001:00043560       ??_GQuickHull@local@@QAEPAXI@Z 10044560 f i QuickHullConvexHullLib.obj
 0001:000435c0       ??_EQuickHullConvexHullLib@physx@@UAEPAXI@Z 100445c0 f i QuickHullConvexHullLib.obj
 0001:000435c0       ??_GQuickHullConvexHullLib@physx@@UAEPAXI@Z 100445c0 f i QuickHullConvexHullLib.obj
 0001:00043620       ??__G@YGXPAX0IIP6EPAX00@Z@Z 10044620 f i QuickHullConvexHullLib.obj
 0001:00043690       ?allocate@?$Array@PAUQuickHullFace@local@@VNamedAllocator@shdfnd@physx@@@shdfnd@physx@@IAEPAPAUQuickHullFace@local@@I@Z 10044690 f i QuickHullConvexHullLib.obj
 0001:00043710       ?allocate@?$Array@PAUQuickHullHalfEdge@local@@VNamedAllocator@shdfnd@physx@@@shdfnd@physx@@IAEPAPAUQuickHullHalfEdge@local@@I@Z 10044710 f i QuickHullConvexHullLib.obj
 0001:00043790       ?allocate@?$Array@PAUQuickHullVertex@local@@VNamedAllocator@shdfnd@physx@@@shdfnd@physx@@IAEPAPAUQuickHullVertex@local@@I@Z 10044790 f i QuickHullConvexHullLib.obj
 0001:00043810       ?allocate@?$Array@UExpandPoint@local@@VNamedAllocator@shdfnd@physx@@@shdfnd@physx@@IAEPAUExpandPoint@local@@I@Z 10044810 f i QuickHullConvexHullLib.obj
 0001:00043890       ?allocate@?$ReflectionAllocator@VQuickHull@local@@@shdfnd@physx@@QAEPAXIPBDH@Z 10044890 f i QuickHullConvexHullLib.obj
 0001:000438f0       ?capacity@?$Array@PAUQuickHullFace@local@@VNamedAllocator@shdfnd@physx@@@shdfnd@physx@@QBEIXZ 100448f0 f i QuickHullConvexHullLib.obj
 0001:00043910       ?capacity@?$Array@PAUQuickHullHalfEdge@local@@VNamedAllocator@shdfnd@physx@@@shdfnd@physx@@QBEIXZ 10044910 f i QuickHullConvexHullLib.obj
 0001:00043930       ?capacity@?$Array@PAUQuickHullVertex@local@@VNamedAllocator@shdfnd@physx@@@shdfnd@physx@@QBEIXZ 10044930 f i QuickHullConvexHullLib.obj
 0001:00043950       ?capacity@?$Array@UExpandPoint@local@@VNamedAllocator@shdfnd@physx@@@shdfnd@physx@@QBEIXZ 10044950 f i QuickHullConvexHullLib.obj
 0001:00043970       ?capacityIncrement@?$Array@PAUQuickHullFace@local@@VNamedAllocator@shdfnd@physx@@@shdfnd@physx@@IBEIXZ 10044970 f i QuickHullConvexHullLib.obj
 0001:000439b0       ?capacityIncrement@?$Array@PAUQuickHullHalfEdge@local@@VNamedAllocator@shdfnd@physx@@@shdfnd@physx@@IBEIXZ 100449b0 f i QuickHullConvexHullLib.obj
 0001:000439f0       ?capacityIncrement@?$Array@PAUQuickHullVertex@local@@VNamedAllocator@shdfnd@physx@@@shdfnd@physx@@IBEIXZ 100449f0 f i QuickHullConvexHullLib.obj
 0001:00043a30       ?capacityIncrement@?$Array@UExpandPoint@local@@VNamedAllocator@shdfnd@physx@@@shdfnd@physx@@IBEIXZ 10044a30 f i QuickHullConvexHullLib.obj
 0001:00043a70       ?clear@?$Array@PAUQuickHullFace@local@@VNamedAllocator@shdfnd@physx@@@shdfnd@physx@@QAEXXZ 10044a70 f i QuickHullConvexHullLib.obj
 0001:00043ab0       ?clear@?$Array@PAUQuickHullHalfEdge@local@@VNamedAllocator@shdfnd@physx@@@shdfnd@physx@@QAEXXZ 10044ab0 f i QuickHullConvexHullLib.obj
 0001:00043af0       ?clear@?$Array@PAUQuickHullVertex@local@@VNamedAllocator@shdfnd@physx@@@shdfnd@physx@@QAEXXZ 10044af0 f i QuickHullConvexHullLib.obj
 0001:00043b30       ?computeNormalAndCentroid@QuickHullFace@local@@QAEXXZ 10044b30 f i QuickHullConvexHullLib.obj
 0001:00043db0       ?copy@?$Array@PAUQuickHullFace@local@@VNamedAllocator@shdfnd@physx@@@shdfnd@physx@@KAXPAPAUQuickHullFace@local@@0PBQAU45@@Z 10044db0 f i QuickHullConvexHullLib.obj
 0001:00043e60       ?copy@?$Array@PAUQuickHullHalfEdge@local@@VNamedAllocator@shdfnd@physx@@@shdfnd@physx@@KAXPAPAUQuickHullHalfEdge@local@@0PBQAU45@@Z 10044e60 f i QuickHullConvexHullLib.obj
 0001:00043f10       ?copy@?$Array@PAUQuickHullVertex@local@@VNamedAllocator@shdfnd@physx@@@shdfnd@physx@@KAXPAPAUQuickHullVertex@local@@0PBQAU45@@Z 10044f10 f i QuickHullConvexHullLib.obj
 0001:00043fc0       ?copy@?$Array@UExpandPoint@local@@VNamedAllocator@shdfnd@physx@@@shdfnd@physx@@KAXPAUExpandPoint@local@@0PBU45@@Z 10044fc0 f i QuickHullConvexHullLib.obj
 0001:00044080       ?deallocate@?$Array@PAUQuickHullFace@local@@VNamedAllocator@shdfnd@physx@@@shdfnd@physx@@IAEXPAX@Z 10045080 f i QuickHullConvexHullLib.obj
 0001:000440a0       ?deallocate@?$Array@PAUQuickHullHalfEdge@local@@VNamedAllocator@shdfnd@physx@@@shdfnd@physx@@IAEXPAX@Z 100450a0 f i QuickHullConvexHullLib.obj
 0001:000440c0       ?deallocate@?$Array@PAUQuickHullVertex@local@@VNamedAllocator@shdfnd@physx@@@shdfnd@physx@@IAEXPAX@Z 100450c0 f i QuickHullConvexHullLib.obj
 0001:000440e0       ?deallocate@?$Array@UExpandPoint@local@@VNamedAllocator@shdfnd@physx@@@shdfnd@physx@@IAEXPAX@Z 100450e0 f i QuickHullConvexHullLib.obj
 0001:00044100       ?destroy@?$Array@PAUQuickHullFace@local@@VNamedAllocator@shdfnd@physx@@@shdfnd@physx@@KAXPAPAUQuickHullFace@local@@0@Z 10045100 f i QuickHullConvexHullLib.obj
 0001:00044130       ?destroy@?$Array@PAUQuickHullHalfEdge@local@@VNamedAllocator@shdfnd@physx@@@shdfnd@physx@@KAXPAPAUQuickHullHalfEdge@local@@0@Z 10045130 f i QuickHullConvexHullLib.obj
 0001:00044160       ?destroy@?$Array@PAUQuickHullVertex@local@@VNamedAllocator@shdfnd@physx@@@shdfnd@physx@@KAXPAPAUQuickHullVertex@local@@0@Z 10045160 f i QuickHullConvexHullLib.obj
 0001:00044190       ?destroy@?$Array@UExpandPoint@local@@VNamedAllocator@shdfnd@physx@@@shdfnd@physx@@KAXPAUExpandPoint@local@@0@Z 10045190 f i QuickHullConvexHullLib.obj
 0001:000441c0       ?distanceToPlane@QuickHullFace@local@@QBEMVPxVec3@physx@@@Z 100451c0 f i QuickHullConvexHullLib.obj
 0001:00044210       ?getEdge@QuickHullFace@local@@QBEPAUQuickHullHalfEdge@2@I@Z 10045210 f i QuickHullConvexHullLib.obj
 0001:00044260       ?getFreeHullFace@QuickHull@local@@IAEPAUQuickHullFace@2@XZ 10045260 f i QuickHullConvexHullLib.obj
 0001:00044280       ?getFreeHullHalfEdge@QuickHull@local@@IAEPAUQuickHullHalfEdge@2@XZ 10045280 f i QuickHullConvexHullLib.obj
 0001:000442a0       ?getFreeItem@?$MemBlock@UQuickHullFace@local@@$00@local@@QAEPAUQuickHullFace@2@XZ 100452a0 f i QuickHullConvexHullLib.obj
 0001:00044480       ?getFreeItem@?$MemBlock@UQuickHullHalfEdge@local@@$0A@@local@@QAEPAUQuickHullHalfEdge@2@XZ 10045480 f i QuickHullConvexHullLib.obj
 0001:00044660       ?getHead@QuickHullHalfEdge@local@@QBEABUQuickHullVertex@2@XZ 10045660 f i QuickHullConvexHullLib.obj
 0001:000446d0       ?getItem@?$MemBlock@UQuickHullFace@local@@$00@local@@QAEPAUQuickHullFace@2@I@Z 100456d0 f i QuickHullConvexHullLib.obj
 0001:000447c0       ?getName@?$ReflectionAllocator@VQuickHull@local@@@shdfnd@physx@@CAPBDXZ 100457c0 f i QuickHullConvexHullLib.obj
 0001:00044810       ?getNbHullVerts@QuickHull@local@@IAEIXZ 10045810 f i QuickHullConvexHullLib.obj
 0001:00044830       ?getOppositeFace@QuickHullHalfEdge@local@@QBEPAUQuickHullFace@2@XZ 10045830 f i QuickHullConvexHullLib.obj
 0001:00044850       ?getTail@QuickHullHalfEdge@local@@QBEABUQuickHullVertex@2@XZ 10045850 f i QuickHullConvexHullLib.obj
 0001:00044870       ?grow@?$Array@PAUQuickHullFace@local@@VNamedAllocator@shdfnd@physx@@@shdfnd@physx@@IAEXI@Z 10045870 f i QuickHullConvexHullLib.obj
 0001:000448f0       ?grow@?$Array@PAUQuickHullHalfEdge@local@@VNamedAllocator@shdfnd@physx@@@shdfnd@physx@@IAEXI@Z 100458f0 f i QuickHullConvexHullLib.obj
 0001:00044970       ?grow@?$Array@PAUQuickHullVertex@local@@VNamedAllocator@shdfnd@physx@@@shdfnd@physx@@IAEXI@Z 10045970 f i QuickHullConvexHullLib.obj
 0001:000449f0       ?grow@?$Array@UExpandPoint@local@@VNamedAllocator@shdfnd@physx@@@shdfnd@physx@@IAEXI@Z 100459f0 f i QuickHullConvexHullLib.obj
 0001:00044a70       ?growAndPushBack@?$Array@PAUQuickHullFace@local@@VNamedAllocator@shdfnd@physx@@@shdfnd@physx@@IAEAAPAUQuickHullFace@local@@ABQAU45@@Z 10045a70 f i QuickHullConvexHullLib.obj
 0001:00044c00       ?growAndPushBack@?$Array@PAUQuickHullHalfEdge@local@@VNamedAllocator@shdfnd@physx@@@shdfnd@physx@@IAEAAPAUQuickHullHalfEdge@local@@ABQAU45@@Z 10045c00 f i QuickHullConvexHullLib.obj
 0001:00044d90       ?growAndPushBack@?$Array@PAUQuickHullVertex@local@@VNamedAllocator@shdfnd@physx@@@shdfnd@physx@@IAEAAPAUQuickHullVertex@local@@ABQAU45@@Z 10045d90 f i QuickHullConvexHullLib.obj
 0001:00044f20       ?growAndPushBack@?$Array@UExpandPoint@local@@VNamedAllocator@shdfnd@physx@@@shdfnd@physx@@IAEAAUExpandPoint@local@@ABU45@@Z 10045f20 f i QuickHullConvexHullLib.obj
 0001:000450a0       ?init@?$MemBlock@UQuickHullFace@local@@$00@local@@QAEXI@Z 100460a0 f i QuickHullConvexHullLib.obj
 0001:00045210       ?init@?$MemBlock@UQuickHullHalfEdge@local@@$0A@@local@@QAEXI@Z 10046210 f i QuickHullConvexHullLib.obj
 0001:00045380       ?isArrayOfPOD@?$Array@PAUQuickHullFace@local@@VNamedAllocator@shdfnd@physx@@@shdfnd@physx@@SA_NXZ 10046380 f i QuickHullConvexHullLib.obj
 0001:00045390       ?isArrayOfPOD@?$Array@PAUQuickHullHalfEdge@local@@VNamedAllocator@shdfnd@physx@@@shdfnd@physx@@SA_NXZ 10046390 f i QuickHullConvexHullLib.obj
 0001:000453a0       ?isArrayOfPOD@?$Array@PAUQuickHullVertex@local@@VNamedAllocator@shdfnd@physx@@@shdfnd@physx@@SA_NXZ 100463a0 f i QuickHullConvexHullLib.obj
 0001:000453b0       ?isArrayOfPOD@?$Array@UExpandPoint@local@@VNamedAllocator@shdfnd@physx@@@shdfnd@physx@@SA_NXZ 100463b0 f i QuickHullConvexHullLib.obj
 0001:000453c0       ?isInUserMemory@?$Array@PAUQuickHullFace@local@@VNamedAllocator@shdfnd@physx@@@shdfnd@physx@@QBEIXZ 100463c0 f i QuickHullConvexHullLib.obj
 0001:000453e0       ?isInUserMemory@?$Array@PAUQuickHullHalfEdge@local@@VNamedAllocator@shdfnd@physx@@@shdfnd@physx@@QBEIXZ 100463e0 f i QuickHullConvexHullLib.obj
 0001:00045400       ?isInUserMemory@?$Array@PAUQuickHullVertex@local@@VNamedAllocator@shdfnd@physx@@@shdfnd@physx@@QBEIXZ 10046400 f i QuickHullConvexHullLib.obj
 0001:00045420       ?isInUserMemory@?$Array@UExpandPoint@local@@VNamedAllocator@shdfnd@physx@@@shdfnd@physx@@QBEIXZ 10046420 f i QuickHullConvexHullLib.obj
 0001:00045440       ?isTriangle@QuickHullFace@local@@ABE_NXZ 10046440 f i QuickHullConvexHullLib.obj
 0001:00045470       ?pushBack@?$Array@PAUQuickHullFace@local@@VNamedAllocator@shdfnd@physx@@@shdfnd@physx@@QAEAAPAUQuickHullFace@local@@ABQAU45@@Z 10046470 f i QuickHullConvexHullLib.obj
 0001:00045520       ?pushBack@?$Array@PAUQuickHullHalfEdge@local@@VNamedAllocator@shdfnd@physx@@@shdfnd@physx@@QAEAAPAUQuickHullHalfEdge@local@@ABQAU45@@Z 10046520 f i QuickHullConvexHullLib.obj
 0001:000455d0       ?pushBack@?$Array@PAUQuickHullVertex@local@@VNamedAllocator@shdfnd@physx@@@shdfnd@physx@@QAEAAPAUQuickHullVertex@local@@ABQAU45@@Z 100465d0 f i QuickHullConvexHullLib.obj
 0001:00045680       ?pushBack@?$Array@UExpandPoint@local@@VNamedAllocator@shdfnd@physx@@@shdfnd@physx@@QAEAAUExpandPoint@local@@ABU45@@Z 10046680 f i QuickHullConvexHullLib.obj
 0001:00045730       ?recreate@?$Array@PAUQuickHullFace@local@@VNamedAllocator@shdfnd@physx@@@shdfnd@physx@@IAEXI@Z 10046730 f i QuickHullConvexHullLib.obj
 0001:00045840       ?recreate@?$Array@PAUQuickHullHalfEdge@local@@VNamedAllocator@shdfnd@physx@@@shdfnd@physx@@IAEXI@Z 10046840 f i QuickHullConvexHullLib.obj
 0001:00045950       ?recreate@?$Array@PAUQuickHullVertex@local@@VNamedAllocator@shdfnd@physx@@@shdfnd@physx@@IAEXI@Z 10046950 f i QuickHullConvexHullLib.obj
 0001:00045a60       ?recreate@?$Array@UExpandPoint@local@@VNamedAllocator@shdfnd@physx@@@shdfnd@physx@@IAEXI@Z 10046a60 f i QuickHullConvexHullLib.obj
 0001:00045b60       ?reserve@?$Array@PAUQuickHullFace@local@@VNamedAllocator@shdfnd@physx@@@shdfnd@physx@@QAEXI@Z 10046b60 f i QuickHullConvexHullLib.obj
 0001:00045b90       ?reserve@?$Array@PAUQuickHullHalfEdge@local@@VNamedAllocator@shdfnd@physx@@@shdfnd@physx@@QAEXI@Z 10046b90 f i QuickHullConvexHullLib.obj
 0001:00045bc0       ?reserve@?$Array@PAUQuickHullVertex@local@@VNamedAllocator@shdfnd@physx@@@shdfnd@physx@@QAEXI@Z 10046bc0 f i QuickHullConvexHullLib.obj
 0001:00045bf0       ?reserve@?$Array@UExpandPoint@local@@VNamedAllocator@shdfnd@physx@@@shdfnd@physx@@QAEXI@Z 10046bf0 f i QuickHullConvexHullLib.obj
 0001:00045c20       ?setTwin@QuickHullHalfEdge@local@@QAEXPAU12@@Z 10046c20 f i QuickHullConvexHullLib.obj
 0001:00045c50       ?size@?$Array@PAUQuickHullFace@local@@VNamedAllocator@shdfnd@physx@@@shdfnd@physx@@QBEIXZ 10046c50 f i QuickHullConvexHullLib.obj
 0001:00045c70       ?size@?$Array@PAUQuickHullHalfEdge@local@@VNamedAllocator@shdfnd@physx@@@shdfnd@physx@@QBEIXZ 10046c70 f i QuickHullConvexHullLib.obj
 0001:00045c90       ?size@?$Array@PAUQuickHullVertex@local@@VNamedAllocator@shdfnd@physx@@@shdfnd@physx@@QBEIXZ 10046c90 f i QuickHullConvexHullLib.obj
 0001:00045cb0       ?size@?$Array@UExpandPoint@local@@VNamedAllocator@shdfnd@physx@@@shdfnd@physx@@QBEIXZ 10046cb0 f i QuickHullConvexHullLib.obj
 0001:00045d20       ?computeVolumeIntegrals@physx@@YA_NABVPxSimpleTriangleMesh@1@MAAUPxIntegrals@1@@Z 10046d20 f   VolumeIntegration.obj
 0001:00045d80       ?computeVolumeIntegralsEberly@physx@@YA_NABVPxConvexMeshDesc@1@MAAUPxIntegrals@1@ABVPxVec3@1@@Z 10046d80 f   VolumeIntegration.obj
 0001:00045dd0       ?computeVolumeIntegralsEberlySIMD@physx@@YA_NABVPxConvexMeshDesc@1@MAAUPxIntegrals@1@ABVPxVec3@1@@Z 10046dd0 f   VolumeIntegration.obj
 0001:0004a860       ??$swap@VPxVec3@physx@@@shdfnd@physx@@YAXAAVPxVec3@1@0@Z 1004b860 f i VolumeIntegration.obj
 0001:0004a8a0       ??0PxSimpleTriangleMesh@physx@@QAE@XZ 1004b8a0 f i VolumeIntegration.obj
 0001:0004a8e0       ??4?$PxFlags@W4Enum@PxMeshFlag@physx@@G@physx@@QAEAAV01@ABV01@@Z 1004b8e0 f i VolumeIntegration.obj
 0001:0004a910       ??4PxSimpleTriangleMesh@physx@@QAEAAV01@ABV01@@Z 1004b910 f i VolumeIntegration.obj
 0001:0004a980       ?FAllGrtr@aos@shdfnd@physx@@YAIT__m128@@0@Z 1004b980 f i VolumeIntegration.obj
 0001:0004aa70       ?V4Cross@aos@shdfnd@physx@@YA?AT__m128@@T4@0@Z 1004ba70 f i VolumeIntegration.obj
 0001:0004ab70       ?V4Dot3@aos@shdfnd@physx@@YA?AT__m128@@T4@0@Z 1004bb70 f i VolumeIntegration.obj
 0001:0004ac50       ?V4PermYZXW@aos@shdfnd@physx@@YA?AT__m128@@T4@@Z 1004bc50 f i VolumeIntegration.obj
 0001:0004aca0       ?V4ScaleInv@aos@shdfnd@physx@@YA?AT__m128@@T4@0@Z 1004bca0 f i VolumeIntegration.obj
 0001:0004ad40       ?Vec4V_From_PxVec3_WUndefined@aos@shdfnd@physx@@YA?AT__m128@@ABVPxVec3@3@@Z 1004bd40 f i VolumeIntegration.obj
 0001:0004ada0       ?isZero@PxVec3@physx@@QBE_NXZ 1004bda0 f i VolumeIntegration.obj
 0001:0004b1e0       ?ComputeNbBoundaryEdges@AdjTriangle@physx@@QBEIXZ 1004c1e0 f   Adjacencies.obj
 0001:0004b270       ?ComputeNbNeighbors@AdjTriangle@physx@@QBEIXZ 1004c270 f   Adjacencies.obj
 0001:0004b300       ?HasNeighbor@AdjTriangle@physx@@QBE_NIPAI@Z 1004c300 f   Adjacencies.obj
 0001:0004b3f0       ?Flip@AdjTriangle@physx@@QAEXXZ 1004c3f0 f   Adjacencies.obj
 0001:0004b420       ??0Adjacencies@physx@@QAE@XZ 1004c420 f   Adjacencies.obj
 0001:0004b450       ??1Adjacencies@physx@@QAE@XZ 1004c450 f   Adjacencies.obj
 0001:0004b4a0       ?Load@Adjacencies@physx@@QAE_NAAVPxInputStream@2@@Z 1004c4a0 f   Adjacencies.obj
 0001:0004b5a0       ?ComputeNbBoundaryEdges@Adjacencies@physx@@QBEIXZ 1004c5a0 f   Adjacencies.obj
 0001:0004b600       ?GetBoundaryVertices@Adjacencies@physx@@QBE_NIPA_NPBU?$TriangleT@I@Gu@2@@Z 1004c600 f   Adjacencies.obj
 0001:0004b810       ?MakeLastRef@Adjacencies@physx@@QAE_NAAVAdjTriangle@2@IPAU?$TriangleT@I@Gu@2@@Z 1004c810 f   Adjacencies.obj
 0001:0004ba90       ?AssignNewEdgeCode@Adjacencies@physx@@AAEXIE@Z 1004ca90 f   Adjacencies.obj
 0001:0004bb10       ??0AdjacenciesBuilder@physx@@QAE@XZ 1004cb10 f   Adjacencies.obj
 0001:0004bb30       ??1AdjacenciesBuilder@physx@@QAE@XZ 1004cb30 f   Adjacencies.obj
 0001:0004bb50       ?Init@AdjacenciesBuilder@physx@@QAE_NABUADJACENCIESCREATE@2@@Z 1004cb50 f   Adjacencies.obj
 0001:0004cdb0       ??$?_UV?$ReflectionAllocator@VAdjEdge@@@shdfnd@physx@@@UserAllocated@shdfnd@physx@@SAPAXIV?$ReflectionAllocator@VAdjEdge@@@12@PBDH@Z 1004ddb0 f i Adjacencies.obj
 0001:0004cdd0       ??$?_UV?$ReflectionAllocator@VAdjTriangle@physx@@@shdfnd@physx@@@UserAllocated@shdfnd@physx@@SAPAXIV?$ReflectionAllocator@VAdjTriangle@physx@@@12@PBDH@Z 1004ddd0 f i Adjacencies.obj
 0001:0004cdf0       ??0?$ReflectionAllocator@VAdjEdge@@@shdfnd@physx@@QAE@PBD@Z 1004ddf0 f i Adjacencies.obj
 0001:0004ce10       ??0?$ReflectionAllocator@VAdjTriangle@physx@@@shdfnd@physx@@QAE@PBD@Z 1004de10 f i Adjacencies.obj
 0001:0004ce30       ??0?$TriangleT@I@Gu@physx@@QAE@XZ 1004de30 f i Adjacencies.obj
 0001:0004ce50       ??0AdjEdge@@QAE@XZ         1004de50 f i Adjacencies.obj
 0001:0004ce70       ??0AdjTriangle@physx@@QAE@XZ 1004de70 f i Adjacencies.obj
 0001:0004ce90       ??1AdjEdge@@QAE@XZ         1004de90 f i Adjacencies.obj
 0001:0004cea0       ??1AdjTriangle@physx@@QAE@XZ 1004dea0 f i Adjacencies.obj
 0001:0004ceb0       ??_EAdjEdge@@QAEPAXI@Z     1004deb0 f i Adjacencies.obj
 0001:0004cf90       ??_EAdjTriangle@physx@@QAEPAXI@Z 1004df90 f i Adjacencies.obj
 0001:0004d070       ??_I@YGXPAXIIP6EX0@Z@Z     1004e070 f i Adjacencies.obj
 0001:0004d0e0       ??_VUserAllocated@shdfnd@physx@@SAXPAX@Z 1004e0e0 f i Adjacencies.obj
 0001:0004d110       ?allocate@?$ReflectionAllocator@VAdjEdge@@@shdfnd@physx@@QAEPAXIPBDH@Z 1004e110 f i Adjacencies.obj
 0001:0004d170       ?allocate@?$ReflectionAllocator@VAdjTriangle@physx@@@shdfnd@physx@@QAEPAXIPBDH@Z 1004e170 f i Adjacencies.obj
 0001:0004d1d0       ?findEdge@?$TriangleT@I@Gu@physx@@QBEEII@Z 1004e1d0 f i Adjacencies.obj
 0001:0004d340       ?getName@?$ReflectionAllocator@VAdjEdge@@@shdfnd@physx@@CAPBDXZ 1004e340 f i Adjacencies.obj
 0001:0004d390       ?getName@?$ReflectionAllocator@VAdjTriangle@physx@@@shdfnd@physx@@CAPBDXZ 1004e390 f i Adjacencies.obj
 0001:0004d3e0       _PxCreateCooking           1004e3e0 f   Cooking.obj
 0001:0004d490       ?release@Cooking@physx@@UAEXXZ 1004e490 f   Cooking.obj
 0001:0004d4d0       ?setParams@Cooking@physx@@UAEXABUPxCookingParams@2@@Z 1004e4d0 f   Cooking.obj
 0001:0004d4f0       ?getParams@Cooking@physx@@UAEABUPxCookingParams@2@XZ 1004e4f0 f   Cooking.obj
 0001:0004d510       ?platformMismatch@Cooking@physx@@UAE_NXZ 1004e510 f   Cooking.obj
 0001:0004d590       ?cookTriangleMesh@Cooking@physx@@UAE_NABVPxTriangleMeshDesc@2@AAVPxOutputStream@2@PAW4Enum@PxTriangleMeshCookingResult@2@@Z 1004e590 f   Cooking.obj
 0001:0004d660       ?createTriangleMesh@Cooking@physx@@UAEPAVPxTriangleMesh@2@ABVPxTriangleMeshDesc@2@AAVPxPhysicsInsertionCallback@2@@Z 1004e660 f   Cooking.obj
 0001:0004d720       ?validateTriangleMesh@Cooking@physx@@UAE_NABVPxTriangleMeshDesc@2@@Z 1004e720 f   Cooking.obj
 0001:0004d7c0       ?cookConvexMesh@Cooking@physx@@UAE_NABVPxConvexMeshDesc@2@AAVPxOutputStream@2@PAW4Enum@PxConvexMeshCookingResult@2@@Z 1004e7c0 f   Cooking.obj
 0001:0004da80       ?createConvexMesh@Cooking@physx@@UAEPAVPxConvexMesh@2@ABVPxConvexMeshDesc@2@AAVPxPhysicsInsertionCallback@2@@Z 1004ea80 f   Cooking.obj
 0001:0004ddd0       ?validateConvexMesh@Cooking@physx@@UAE_NABVPxConvexMeshDesc@2@@Z 1004edd0 f   Cooking.obj
 0001:0004de20       ?computeHullPolygons@Cooking@physx@@UAE_NABVPxSimpleTriangleMesh@2@AAVPxAllocatorCallback@2@AAIAAPAVPxVec3@2@2AAPAI2AAPAUPxHullPolygon@2@@Z 1004ee20 f   Cooking.obj
 0001:0004dfe0       ?cookHeightField@Cooking@physx@@UAE_NABVPxHeightFieldDesc@2@AAVPxOutputStream@2@@Z 1004efe0 f   Cooking.obj
 0001:0004e110       ?createHeightField@Cooking@physx@@UAEPAVPxHeightField@2@ABVPxHeightFieldDesc@2@AAVPxPhysicsInsertionCallback@2@@Z 1004f110 f   Cooking.obj
 0001:0004e310       ?cookConvexMeshInternal@Cooking@physx@@AAE_NABVPxConvexMeshDesc@2@AAVConvexMeshBuilder@2@PAVConvexHullLib@2@PAW4Enum@PxConvexMeshCookingResult@2@@Z 1004f310 f   Cooking.obj
 0001:0004e520       ?cookTriangleMesh@Cooking@physx@@AAE_NAAVTriangleMeshBuilder@2@ABVPxTriangleMeshDesc@2@AAVPxOutputStream@2@PAW4Enum@PxTriangleMeshCookingResult@2@@Z 1004f520 f   Cooking.obj
 0001:0004e5c0       ?createTriangleMesh@Cooking@physx@@AAEPAVPxTriangleMesh@2@AAVTriangleMeshBuilder@2@ABVPxTriangleMeshDesc@2@AAVPxPhysicsInsertionCallback@2@@Z 1004f5c0 f   Cooking.obj
 0001:0004eb20       ??$?2V?$ReflectionAllocator@VCooking@physx@@@shdfnd@physx@@@UserAllocated@shdfnd@physx@@SAPAXIV?$ReflectionAllocator@VCooking@physx@@@12@PBDH@Z 1004fb20 f i Cooking.obj
 0001:0004eb40       ??$?2V?$ReflectionAllocator@VInflationConvexHullLib@physx@@@shdfnd@physx@@@UserAllocated@shdfnd@physx@@SAPAXIV?$ReflectionAllocator@VInflationConvexHullLib@physx@@@12@PBDH@Z 1004fb40 f i Cooking.obj
 0001:0004eb60       ??$?2V?$ReflectionAllocator@VQuickHullConvexHullLib@physx@@@shdfnd@physx@@@UserAllocated@shdfnd@physx@@SAPAXIV?$ReflectionAllocator@VQuickHullConvexHullLib@physx@@@12@PBDH@Z 1004fb60 f i Cooking.obj
 0001:0004eb80       ??$PX_UNUSED@VPxFoundation@physx@@@@YAXABVPxFoundation@physx@@@Z 1004fb80 f i Cooking.obj
 0001:0004eb90       ??$PxMin@G@physx@@YAGGG@Z  1004fb90 f i Cooking.obj
 0001:0004ebd0       ??0?$PxBitAndDataT@I$0IAAAAAAA@@physx@@QAE@I_N@Z 1004fbd0 f i Cooking.obj
 0001:0004ec20       ??0?$PxFlags@W4Enum@PxHeightFieldFlag@physx@@G@physx@@QAE@ABV01@@Z 1004fc20 f i Cooking.obj
 0001:0004ec50       ??0?$ReflectionAllocator@VCooking@physx@@@shdfnd@physx@@QAE@PBD@Z 1004fc50 f i Cooking.obj
 0001:0004ec70       ??0?$ReflectionAllocator@VHeightField@Gu@physx@@@shdfnd@physx@@QAE@PBD@Z 1004fc70 f i Cooking.obj
 0001:0004ec90       ??0?$ReflectionAllocator@VInflationConvexHullLib@physx@@@shdfnd@physx@@QAE@PBD@Z 1004fc90 f i Cooking.obj
 0001:0004ecb0       ??0?$ReflectionAllocator@VQuickHullConvexHullLib@physx@@@shdfnd@physx@@QAE@PBD@Z 1004fcb0 f i Cooking.obj
 0001:0004ecd0       ??0Cooking@physx@@QAE@ABUPxCookingParams@1@@Z 1004fcd0 f i Cooking.obj
 0001:0004ed10       ??0PxConvexMeshDesc@physx@@QAE@ABV01@@Z 1004fd10 f i Cooking.obj
 0001:0004edc0       ??0PxCooking@physx@@QAE@XZ 1004fdc0 f i Cooking.obj
 0001:0004ede0       ??0PxCookingParams@physx@@QAE@ABU01@@Z 1004fde0 f i Cooking.obj
 0001:0004ef10       ??1Cooking@physx@@UAE@XZ   1004ff10 f i Cooking.obj
 0001:0004ef30       ??1PxCooking@physx@@MAE@XZ 1004ff30 f i Cooking.obj
 0001:0004ef50       ??4?$PxFlags@W4Enum@PxMeshPreprocessingFlag@physx@@I@physx@@QAEAAV01@ABV01@@Z 1004ff50 f i Cooking.obj
 0001:0004ef70       ??4PxCookingParams@physx@@QAEAAU01@ABU01@@Z 1004ff70 f i Cooking.obj
 0001:0004f0a0       ??9?$PxFlags@W4Enum@PxHeightFieldFlag@physx@@G@physx@@QBE_NABV01@@Z 100500a0 f i Cooking.obj
 0001:0004f0e0       ??I?$PxFlags@W4Enum@PxHeightFieldFlag@physx@@G@physx@@QBE?AV01@W4Enum@PxHeightFieldFlag@1@@Z 100500e0 f i Cooking.obj
 0001:0004f130       ??_GCooking@physx@@UAEPAXI@Z 10050130 f i Cooking.obj
 0001:0004f130       ??_ECooking@physx@@UAEPAXI@Z 10050130 f i Cooking.obj
 0001:0004f190       ??_GPxCooking@physx@@MAEPAXI@Z 10050190 f i Cooking.obj
 0001:0004f190       ??_EPxCooking@physx@@MAEPAXI@Z 10050190 f i Cooking.obj
 0001:0004f1d0       ?allocate@?$ReflectionAllocator@VCooking@physx@@@shdfnd@physx@@QAEPAXIPBDH@Z 100501d0 f i Cooking.obj
 0001:0004f230       ?allocate@?$ReflectionAllocator@VHeightField@Gu@physx@@@shdfnd@physx@@QAEPAXIPBDH@Z 10050230 f i Cooking.obj
 0001:0004f290       ?allocate@?$ReflectionAllocator@VInflationConvexHullLib@physx@@@shdfnd@physx@@QAEPAXIPBDH@Z 10050290 f i Cooking.obj
 0001:0004f2f0       ?allocate@?$ReflectionAllocator@VQuickHullConvexHullLib@physx@@@shdfnd@physx@@QAEPAXIPBDH@Z 100502f0 f i Cooking.obj
 0001:0004f350       ?getBigConvexData@ConvexMeshBuilder@physx@@QBEPAVBigConvexData@2@XZ 10050350 f i Cooking.obj
 0001:0004f370       ?getInertia@ConvexMeshBuilder@physx@@QBEABVPxMat33@2@XZ 10050370 f i Cooking.obj
 0001:0004f390       ?getMass@ConvexMeshBuilder@physx@@QBEMXZ 10050390 f i Cooking.obj
 0001:0004f3b0       ?getMeshData@TriangleMeshBuilder@physx@@QAEAAVTriangleMeshData@Gu@2@XZ 100503b0 f i Cooking.obj
 0001:0004f3d0       ?getName@?$ReflectionAllocator@VCooking@physx@@@shdfnd@physx@@CAPBDXZ 100503d0 f i Cooking.obj
 0001:0004f420       ?getName@?$ReflectionAllocator@VHeightField@Gu@physx@@@shdfnd@physx@@CAPBDXZ 10050420 f i Cooking.obj
 0001:0004f470       ?getName@?$ReflectionAllocator@VInflationConvexHullLib@physx@@@shdfnd@physx@@CAPBDXZ 10050470 f i Cooking.obj
 0001:0004f4c0       ?getName@?$ReflectionAllocator@VQuickHullConvexHullLib@physx@@@shdfnd@physx@@CAPBDXZ 100504c0 f i Cooking.obj
 0001:0004f510       ?isValid@PxHeightFieldDesc@physx@@QBE_NXZ 10050510 f i Cooking.obj
 0001:0004f5e0       ?setBigConvexData@ConvexMesh@Gu@physx@@QAEXPAVBigConvexData@3@@Z 100505e0 f i Cooking.obj
 0001:0004f600       ?setBigConvexData@ConvexMeshBuilder@physx@@QAEXPAVBigConvexData@2@@Z 10050600 f i Cooking.obj
 0001:0004f620       ?setInertia@ConvexMesh@Gu@physx@@QAEXABVPxMat33@3@@Z 10050620 f i Cooking.obj
 0001:0004f650       ?setMass@ConvexMesh@Gu@physx@@QAEXM@Z 10050650 f i Cooking.obj
 0001:0004f670       ?setNb@ConvexMesh@Gu@physx@@QAEXI@Z 10050670 f i Cooking.obj
 0001:0004f6a0       ??0ReducedVertexCloud@physx@@QAE@PBVPxVec3@1@I@Z 100506a0 f   CookingUtils.obj
 0001:0004f6e0       ??1ReducedVertexCloud@physx@@QAE@XZ 100506e0 f   CookingUtils.obj
 0001:0004f700       ?Clean@ReducedVertexCloud@physx@@QAEAAV12@XZ 10050700 f   CookingUtils.obj
 0001:0004f760       ?Reduce@ReducedVertexCloud@physx@@QAE_NPAUREDUCEDCLOUD@2@@Z 10050760 f   CookingUtils.obj
 0001:0004fb80       ??$?_UM@@YAPAXIV?$ReflectionAllocator@M@shdfnd@physx@@PBDH@Z 10050b80 f i CookingUtils.obj
 0001:0004fba0       ??0?$ReflectionAllocator@M@shdfnd@physx@@QAE@PBD@Z 10050ba0 f i CookingUtils.obj
 0001:0004fbc0       ?allocate@?$ReflectionAllocator@M@shdfnd@physx@@QAEPAXIPBDH@Z 10050bc0 f i CookingUtils.obj
 0001:0004fc20       ?getName@?$ReflectionAllocator@M@shdfnd@physx@@CAPBDXZ 10050c20 f i CookingUtils.obj
 0001:0004fc70       ??0EdgeList@Gu@physx@@QAE@XZ 10050c70 f   EdgeList.obj
 0001:0004fcb0       ??1EdgeList@Gu@physx@@QAE@XZ 10050cb0 f   EdgeList.obj
 0001:0004fd50       ?load@EdgeList@Gu@physx@@QAE_NAAVPxInputStream@3@@Z 10050d50 f   EdgeList.obj
 0001:0004ff20       ??0EdgeListBuilder@Gu@physx@@QAE@XZ 10050f20 f   EdgeList.obj
 0001:0004ff40       ??1EdgeListBuilder@Gu@physx@@QAE@XZ 10050f40 f   EdgeList.obj
 0001:0004ff60       ?init@EdgeListBuilder@Gu@physx@@QAE_NABUEDGELISTCREATE@23@@Z 10050f60 f   EdgeList.obj
 0001:000500e0       ?createFacesToEdges@EdgeListBuilder@Gu@physx@@AAE_NIPBIPBG@Z 100510e0 f   EdgeList.obj
 0001:000505d0       ?createEdgesToFaces@EdgeListBuilder@Gu@physx@@AAE_NIPBIPBG@Z 100515d0 f   EdgeList.obj
 0001:000509e0       ?computeActiveEdges@EdgeListBuilder@Gu@physx@@AAE_NIPBIPBGPBVPxVec3@3@M@Z 100519e0 f   EdgeList.obj
 0001:00052480       ??$?_UUEdgeData@Gu@physx@@@@YAPAXIV?$ReflectionAllocator@UEdgeData@Gu@physx@@@shdfnd@physx@@PBDH@Z 10053480 f i EdgeList.obj
 0001:000524a0       ??$?_UUEdgeTriangleData@Gu@physx@@@@YAPAXIV?$ReflectionAllocator@UEdgeTriangleData@Gu@physx@@@shdfnd@physx@@PBDH@Z 100534a0 f i EdgeList.obj
 0001:000524c0       ??0?$ReflectionAllocator@UEdgeData@Gu@physx@@@shdfnd@physx@@QAE@PBD@Z 100534c0 f i EdgeList.obj
 0001:000524e0       ??0?$ReflectionAllocator@UEdgeTriangleData@Gu@physx@@@shdfnd@physx@@QAE@PBD@Z 100534e0 f i EdgeList.obj
 0001:00052500       ??0PxTriangle@physx@@QAE@ABVPxVec3@1@00@Z 10053500 f i EdgeList.obj
 0001:00052580       ??1PxTriangle@physx@@QAE@XZ 10053580 f i EdgeList.obj
 0001:00052590       ?PxAtan2@physx@@YAMMM@Z    10053590 f i EdgeList.obj
 0001:000525c0       ?allocate@?$ReflectionAllocator@UEdgeData@Gu@physx@@@shdfnd@physx@@QAEPAXIPBDH@Z 100535c0 f i EdgeList.obj
 0001:00052620       ?allocate@?$ReflectionAllocator@UEdgeTriangleData@Gu@physx@@@shdfnd@physx@@QAEPAXIPBDH@Z 10053620 f i EdgeList.obj
 0001:00052680       ?angle@shdfnd@physx@@YAMABVPxVec3@2@0@Z 10053680 f i EdgeList.obj
 0001:000526f0       ?getName@?$ReflectionAllocator@UEdgeData@Gu@physx@@@shdfnd@physx@@CAPBDXZ 100536f0 f i EdgeList.obj
 0001:00052740       ?getName@?$ReflectionAllocator@UEdgeTriangleData@Gu@physx@@@shdfnd@physx@@CAPBDXZ 10053740 f i EdgeList.obj
 0001:00052790       ?normal@PxTriangle@physx@@QBEXAAVPxVec3@2@@Z 10053790 f i EdgeList.obj
 0001:00052820       _atan2f                    10053820 f i EdgeList.obj
 0001:00052860       ??0MeshCleaner@physx@@QAE@IPBVPxVec3@1@IPBIM@Z 10053860 f   MeshCleaner.obj
 0001:000530a0       ??1MeshCleaner@physx@@QAE@XZ 100540a0 f   MeshCleaner.obj
 0001:00053570       ??9Indices@@QBE_NABU0@@Z   10054570 f i MeshCleaner.obj
 0001:00053610       ??9PxVec3@physx@@QBE_NABV01@@Z 10054610 f i MeshCleaner.obj
 0001:00053690       ?PxFloor@physx@@YAMM@Z     10054690 f i MeshCleaner.obj
 0001:000536b0       ?nextPowerOfTwo@shdfnd@physx@@YAII@Z 100546b0 f i MeshCleaner.obj
 0001:00053710       _floorf                    10054710 f i MeshCleaner.obj
 0001:00053740       ?createQuantizer@physx@@YAPAVQuantizer@1@XZ 10054740 f   Quantizer.obj
 0001:000537a0       ?kmeans_cluster3d@@YAIPBVPxVec3@physx@@IIPAV12@PAIMM@Z 100547a0 f   Quantizer.obj
 0001:00053800       ??$?2V?$ReflectionAllocator@VQuantizerImpl@@@shdfnd@physx@@@UserAllocated@shdfnd@physx@@SAPAXIV?$ReflectionAllocator@VQuantizerImpl@@@12@PBDH@Z 10054800 f i Quantizer.obj
 0001:00053820       ??$kmeans_cluster@VPxVec3@physx@@M@@YAIPBVPxVec3@physx@@IIPAV01@PAIMM@Z 10054820 f i Quantizer.obj
 0001:00053e10       ??0?$ReflectionAllocator@VQuantizerImpl@@@shdfnd@physx@@QAE@PBD@Z 10054e10 f i Quantizer.obj
 0001:00053e30       ??0Quantizer@physx@@QAE@XZ 10054e30 f i Quantizer.obj
 0001:00053e50       ??0QuantizerImpl@@QAE@XZ   10054e50 f i Quantizer.obj
 0001:00053f70       ??1Quantizer@physx@@MAE@XZ 10054f70 f i Quantizer.obj
 0001:00053f90       ??1QuantizerImpl@@EAE@XZ   10054f90 f i Quantizer.obj
 0001:00053fd0       ??_EQuantizer@physx@@MAEPAXI@Z 10054fd0 f i Quantizer.obj
 0001:00053fd0       ??_GQuantizer@physx@@MAEPAXI@Z 10054fd0 f i Quantizer.obj
 0001:00054010       ??_GQuantizerImpl@@EAEPAXI@Z 10055010 f i Quantizer.obj
 0001:00054010       ??_EQuantizerImpl@@EAEPAXI@Z 10055010 f i Quantizer.obj
 0001:00054070       ?allocate@?$ReflectionAllocator@VQuantizerImpl@@@shdfnd@physx@@QAEPAXIPBDH@Z 10055070 f i Quantizer.obj
 0001:000540d0       ?clear@?$Array@VPxVec3@physx@@VNamedAllocator@shdfnd@2@@shdfnd@physx@@QAEXXZ 100550d0 f i Quantizer.obj
 0001:00054110       ?getDenormalizeCenter@QuantizerImpl@@UBEABVPxVec3@physx@@XZ 10055110 f i Quantizer.obj
 0001:00054130       ?getDenormalizeScale@QuantizerImpl@@UBEABVPxVec3@physx@@XZ 10055130 f i Quantizer.obj
 0001:00054150       ?getName@?$ReflectionAllocator@VQuantizerImpl@@@shdfnd@physx@@CAPBDXZ 10055150 f i Quantizer.obj
 0001:000541a0       ?kmeansQuantize3D@QuantizerImpl@@UAEPBVPxVec3@physx@@IPBV23@I_NIAAI@Z 100551a0 f i Quantizer.obj
 0001:00054410       ?normalizeInput@QuantizerImpl@@AAEXIPBVPxVec3@physx@@I@Z 10055410 f i Quantizer.obj
 0001:00054670       ?release@QuantizerImpl@@UAEXXZ 10055670 f i Quantizer.obj
 0001:000546b8       _LoadLibraryA@4            100556b8 f   kernel32:KERNEL32.dll
 0001:000546be       __imp_load_?PxGetAssertHandler@physx@@YAAAVPxAssertHandler@1@XZ 100556be f   PxFoundationDEBUG_x86:PxFoundationDEBUG_x86.dll
 0001:000546c8       __tailMerge_PxFoundationDEBUG_x86_dll 100556c8 f i PxFoundationDEBUG_x86:PxFoundationDEBUG_x86.dll
 0001:000546d9       ?PxGetAssertHandler@physx@@YAAAVPxAssertHandler@1@XZ 100556d9 f   PxFoundationDEBUG_x86:PxFoundationDEBUG_x86.dll
 0001:000546df       __imp_load_?getAllocator@shdfnd@physx@@YAAAVPxAllocatorCallback@2@XZ 100556df f   PxFoundationDEBUG_x86:PxFoundationDEBUG_x86.dll
 0001:000546e9       ?getAllocator@shdfnd@physx@@YAAAVPxAllocatorCallback@2@XZ 100556e9 f   PxFoundationDEBUG_x86:PxFoundationDEBUG_x86.dll
 0001:000546ef       __imp_load_??0NamedAllocator@shdfnd@physx@@QAE@PBD@Z 100556ef f   PxFoundationDEBUG_x86:PxFoundationDEBUG_x86.dll
 0001:000546f9       ??0NamedAllocator@shdfnd@physx@@QAE@PBD@Z 100556f9 f   PxFoundationDEBUG_x86:PxFoundationDEBUG_x86.dll
 0001:000546ff       __imp_load_??0NamedAllocator@shdfnd@physx@@QAE@ABV012@@Z 100556ff f   PxFoundationDEBUG_x86:PxFoundationDEBUG_x86.dll
 0001:00054709       ??0NamedAllocator@shdfnd@physx@@QAE@ABV012@@Z 10055709 f   PxFoundationDEBUG_x86:PxFoundationDEBUG_x86.dll
 0001:0005470f       __imp_load_??1NamedAllocator@shdfnd@physx@@QAE@XZ 1005570f f   PxFoundationDEBUG_x86:PxFoundationDEBUG_x86.dll
 0001:00054719       ??1NamedAllocator@shdfnd@physx@@QAE@XZ 10055719 f   PxFoundationDEBUG_x86:PxFoundationDEBUG_x86.dll
 0001:0005471f       __imp_load_?allocate@NamedAllocator@shdfnd@physx@@QAEPAXIPBDH@Z 1005571f f   PxFoundationDEBUG_x86:PxFoundationDEBUG_x86.dll
 0001:00054729       ?allocate@NamedAllocator@shdfnd@physx@@QAEPAXIPBDH@Z 10055729 f   PxFoundationDEBUG_x86:PxFoundationDEBUG_x86.dll
 0001:0005472f       __imp_load_?deallocate@NamedAllocator@shdfnd@physx@@QAEXPAX@Z 1005572f f   PxFoundationDEBUG_x86:PxFoundationDEBUG_x86.dll
 0001:00054739       ?deallocate@NamedAllocator@shdfnd@physx@@QAEXPAX@Z 10055739 f   PxFoundationDEBUG_x86:PxFoundationDEBUG_x86.dll
 0001:0005473f       __imp_load_?allocate@TempAllocator@shdfnd@physx@@QAEPAXIPBDH@Z 1005573f f   PxFoundationDEBUG_x86:PxFoundationDEBUG_x86.dll
 0001:00054749       ?allocate@TempAllocator@shdfnd@physx@@QAEPAXIPBDH@Z 10055749 f   PxFoundationDEBUG_x86:PxFoundationDEBUG_x86.dll
 0001:0005474f       __imp_load_?deallocate@TempAllocator@shdfnd@physx@@QAEXPAX@Z 1005574f f   PxFoundationDEBUG_x86:PxFoundationDEBUG_x86.dll
 0001:00054759       ?deallocate@TempAllocator@shdfnd@physx@@QAEXPAX@Z 10055759 f   PxFoundationDEBUG_x86:PxFoundationDEBUG_x86.dll
 0001:0005475f       __imp_load__PxGetFoundation 1005575f f   PxFoundationDEBUG_x86:PxFoundationDEBUG_x86.dll
 0001:00054769       _PxGetFoundation           10055769 f   PxFoundationDEBUG_x86:PxFoundationDEBUG_x86.dll
 0001:0005476f       __imp_load_?getInstance@Foundation@shdfnd@physx@@SAAAV123@XZ 1005576f f   PxFoundationDEBUG_x86:PxFoundationDEBUG_x86.dll
 0001:00054779       ?getInstance@Foundation@shdfnd@physx@@SAAAV123@XZ 10055779 f   PxFoundationDEBUG_x86:PxFoundationDEBUG_x86.dll
 0001:0005477f       __imp_load_?error@Foundation@shdfnd@physx@@QAAXW4Enum@PxErrorCode@3@PBDH1ZZ 1005577f f   PxFoundationDEBUG_x86:PxFoundationDEBUG_x86.dll
 0001:00054789       ?error@Foundation@shdfnd@physx@@QAAXW4Enum@PxErrorCode@3@PBDH1ZZ 10055789 f   PxFoundationDEBUG_x86:PxFoundationDEBUG_x86.dll
 0001:0005478f       __imp_load_?PxDiagonalize@physx@@YA?AVPxVec3@1@ABVPxMat33@1@AAVPxQuat@1@@Z 1005578f f   PxFoundationDEBUG_x86:PxFoundationDEBUG_x86.dll
 0001:00054799       ?PxDiagonalize@physx@@YA?AVPxVec3@1@ABVPxMat33@1@AAVPxQuat@1@@Z 10055799 f   PxFoundationDEBUG_x86:PxFoundationDEBUG_x86.dll
 0001:0005479f       __imp_load_?incRefCount@Foundation@shdfnd@physx@@SAXXZ 1005579f f   PxFoundationDEBUG_x86:PxFoundationDEBUG_x86.dll
 0001:000547a9       ?incRefCount@Foundation@shdfnd@physx@@SAXXZ 100557a9 f   PxFoundationDEBUG_x86:PxFoundationDEBUG_x86.dll
 0001:000547af       __imp_load_?decRefCount@Foundation@shdfnd@physx@@SAXXZ 100557af f   PxFoundationDEBUG_x86:PxFoundationDEBUG_x86.dll
 0001:000547b9       ?decRefCount@Foundation@shdfnd@physx@@SAXXZ 100557b9 f   PxFoundationDEBUG_x86:PxFoundationDEBUG_x86.dll
 0001:000547bf       __imp_load_??0FPUGuard@shdfnd@physx@@QAE@XZ 100557bf f   PxFoundationDEBUG_x86:PxFoundationDEBUG_x86.dll
 0001:000547c9       ??0FPUGuard@shdfnd@physx@@QAE@XZ 100557c9 f   PxFoundationDEBUG_x86:PxFoundationDEBUG_x86.dll
 0001:000547cf       __imp_load_??1FPUGuard@shdfnd@physx@@QAE@XZ 100557cf f   PxFoundationDEBUG_x86:PxFoundationDEBUG_x86.dll
 0001:000547d9       ??1FPUGuard@shdfnd@physx@@QAE@XZ 100557d9 f   PxFoundationDEBUG_x86:PxFoundationDEBUG_x86.dll
 0001:000547df       __imp_load_?writeWord@physx@@YAXG_NAAVPxOutputStream@1@@Z 100557df f   PhysX3CommonDEBUG_x86:PhysX3CommonDEBUG_x86.dll
 0001:000547e9       __tailMerge_PhysX3CommonDEBUG_x86_dll 100557e9 f i PhysX3CommonDEBUG_x86:PhysX3CommonDEBUG_x86.dll
 0001:000547fa       ?writeWord@physx@@YAXG_NAAVPxOutputStream@1@@Z 100557fa f   PhysX3CommonDEBUG_x86:PhysX3CommonDEBUG_x86.dll
 0001:00054800       __imp_load_?writeDword@physx@@YAXI_NAAVPxOutputStream@1@@Z 10055800 f   PhysX3CommonDEBUG_x86:PhysX3CommonDEBUG_x86.dll
 0001:0005480a       ?writeDword@physx@@YAXI_NAAVPxOutputStream@1@@Z 1005580a f   PhysX3CommonDEBUG_x86:PhysX3CommonDEBUG_x86.dll
 0001:00054810       __imp_load_?writeFloat@physx@@YAXM_NAAVPxOutputStream@1@@Z 10055810 f   PhysX3CommonDEBUG_x86:PhysX3CommonDEBUG_x86.dll
 0001:0005481a       ?writeFloat@physx@@YAXM_NAAVPxOutputStream@1@@Z 1005581a f   PhysX3CommonDEBUG_x86:PhysX3CommonDEBUG_x86.dll
 0001:00054820       __imp_load_?writeHeader@physx@@YA_NCCCCI_NAAVPxOutputStream@1@@Z 10055820 f   PhysX3CommonDEBUG_x86:PhysX3CommonDEBUG_x86.dll
 0001:0005482a       ?writeHeader@physx@@YA_NCCCCI_NAAVPxOutputStream@1@@Z 1005582a f   PhysX3CommonDEBUG_x86:PhysX3CommonDEBUG_x86.dll
 0001:00054830       __imp_load_?validate@RTree@Gu@physx@@QAEXPAUCallbackRefit@123@@Z 10055830 f   PhysX3CommonDEBUG_x86:PhysX3CommonDEBUG_x86.dll
 0001:0005483a       ?validate@RTree@Gu@physx@@QAEXPAUCallbackRefit@123@@Z 1005583a f   PhysX3CommonDEBUG_x86:PhysX3CommonDEBUG_x86.dll
 0001:00054840       __imp_load_??0SourceMesh@Gu@physx@@QAE@XZ 10055840 f   PhysX3CommonDEBUG_x86:PhysX3CommonDEBUG_x86.dll
 0001:0005484a       ??0SourceMesh@Gu@physx@@QAE@XZ 1005584a f   PhysX3CommonDEBUG_x86:PhysX3CommonDEBUG_x86.dll
 0001:00054850       __imp_load_??1SourceMesh@Gu@physx@@QAE@XZ 10055850 f   PhysX3CommonDEBUG_x86:PhysX3CommonDEBUG_x86.dll
 0001:0005485a       ??1SourceMesh@Gu@physx@@QAE@XZ 1005585a f   PhysX3CommonDEBUG_x86:PhysX3CommonDEBUG_x86.dll
 0001:00054860       __imp_load_??0BV4Tree@Gu@physx@@QAE@XZ 10055860 f   PhysX3CommonDEBUG_x86:PhysX3CommonDEBUG_x86.dll
 0001:0005486a       ??0BV4Tree@Gu@physx@@QAE@XZ 1005586a f   PhysX3CommonDEBUG_x86:PhysX3CommonDEBUG_x86.dll
 0001:00054870       __imp_load_??1BV4Tree@Gu@physx@@QAE@XZ 10055870 f   PhysX3CommonDEBUG_x86:PhysX3CommonDEBUG_x86.dll
 0001:0005487a       ??1BV4Tree@Gu@physx@@QAE@XZ 1005587a f   PhysX3CommonDEBUG_x86:PhysX3CommonDEBUG_x86.dll
 0001:00054880       __imp_load_??0BV32Tree@Gu@physx@@QAE@XZ 10055880 f   PhysX3CommonDEBUG_x86:PhysX3CommonDEBUG_x86.dll
 0001:0005488a       ??0BV32Tree@Gu@physx@@QAE@XZ 1005588a f   PhysX3CommonDEBUG_x86:PhysX3CommonDEBUG_x86.dll
 0001:00054890       __imp_load_??1BV32Tree@Gu@physx@@QAE@XZ 10055890 f   PhysX3CommonDEBUG_x86:PhysX3CommonDEBUG_x86.dll
 0001:0005489a       ??1BV32Tree@Gu@physx@@QAE@XZ 1005589a f   PhysX3CommonDEBUG_x86:PhysX3CommonDEBUG_x86.dll
 0001:000548a0       __imp_load_?writeFloatBuffer@physx@@YAXPBMI_NAAVPxOutputStream@1@@Z 100558a0 f   PhysX3CommonDEBUG_x86:PhysX3CommonDEBUG_x86.dll
 0001:000548aa       ?writeFloatBuffer@physx@@YAXPBMI_NAAVPxOutputStream@1@@Z 100558aa f   PhysX3CommonDEBUG_x86:PhysX3CommonDEBUG_x86.dll
 0001:000548b0       __imp_load_?writeWordBuffer@physx@@YAXPBGI_NAAVPxOutputStream@1@@Z 100558b0 f   PhysX3CommonDEBUG_x86:PhysX3CommonDEBUG_x86.dll
 0001:000548ba       ?writeWordBuffer@physx@@YAXPBGI_NAAVPxOutputStream@1@@Z 100558ba f   PhysX3CommonDEBUG_x86:PhysX3CommonDEBUG_x86.dll
 0001:000548c0       __imp_load_?computeMaxIndex@physx@@YAIPBII@Z 100558c0 f   PhysX3CommonDEBUG_x86:PhysX3CommonDEBUG_x86.dll
 0001:000548ca       ?computeMaxIndex@physx@@YAIPBII@Z 100558ca f   PhysX3CommonDEBUG_x86:PhysX3CommonDEBUG_x86.dll
 0001:000548d0       __imp_load_?storeIndices@physx@@YAXIIPBIAAVPxOutputStream@1@_N@Z 100558d0 f   PhysX3CommonDEBUG_x86:PhysX3CommonDEBUG_x86.dll
 0001:000548da       ?storeIndices@physx@@YAXIIPBIAAVPxOutputStream@1@_N@Z 100558da f   PhysX3CommonDEBUG_x86:PhysX3CommonDEBUG_x86.dll
 0001:000548e0       __imp_load_?computeBoundsAroundVertices@Gu@physx@@YAXAAVPxBounds3@2@IPIBVPxVec3@2@@Z 100558e0 f   PhysX3CommonDEBUG_x86:PhysX3CommonDEBUG_x86.dll
 0001:000548ea       ?computeBoundsAroundVertices@Gu@physx@@YAXAAVPxBounds3@2@IPIBVPxVec3@2@@Z 100558ea f   PhysX3CommonDEBUG_x86:PhysX3CommonDEBUG_x86.dll
 0001:000548f0       __imp_load_?BuildBV4Ex@Gu@physx@@YA_NAAVBV4Tree@12@AAVSourceMesh@12@MI@Z 100558f0 f   PhysX3CommonDEBUG_x86:PhysX3CommonDEBUG_x86.dll
 0001:000548fa       ?BuildBV4Ex@Gu@physx@@YA_NAAVBV4Tree@12@AAVSourceMesh@12@MI@Z 100558fa f   PhysX3CommonDEBUG_x86:PhysX3CommonDEBUG_x86.dll
 0001:00054900       __imp_load_?BuildBV32Ex@Gu@physx@@YA_NAAVBV32Tree@12@AAVSourceMesh@12@MI@Z 10055900 f   PhysX3CommonDEBUG_x86:PhysX3CommonDEBUG_x86.dll
 0001:0005490a       ?BuildBV32Ex@Gu@physx@@YA_NAAVBV32Tree@12@AAVSourceMesh@12@MI@Z 1005590a f   PhysX3CommonDEBUG_x86:PhysX3CommonDEBUG_x86.dll
 0001:00054910       __imp_load_?computeMaxIndex@physx@@YAGPBGI@Z 10055910 f   PhysX3CommonDEBUG_x86:PhysX3CommonDEBUG_x86.dll
 0001:0005491a       ?computeMaxIndex@physx@@YAGPBGI@Z 1005591a f   PhysX3CommonDEBUG_x86:PhysX3CommonDEBUG_x86.dll
 0001:00054920       __imp_load_?WriteHeader@Gu@physx@@YA_NEEEEI_NAAVPxOutputStream@2@@Z 10055920 f   PhysX3CommonDEBUG_x86:PhysX3CommonDEBUG_x86.dll
 0001:0005492a       ?WriteHeader@Gu@physx@@YA_NEEEEI_NAAVPxOutputStream@2@@Z 1005592a f   PhysX3CommonDEBUG_x86:PhysX3CommonDEBUG_x86.dll
 0001:00054930       __imp_load_?StoreIndices@Gu@physx@@YAXGIPBGAAVPxOutputStream@2@_N@Z 10055930 f   PhysX3CommonDEBUG_x86:PhysX3CommonDEBUG_x86.dll
 0001:0005493a       ?StoreIndices@Gu@physx@@YAXGIPBGAAVPxOutputStream@2@_N@Z 1005593a f   PhysX3CommonDEBUG_x86:PhysX3CommonDEBUG_x86.dll
 0001:00054940       __imp_load_?CreateOffsets@BigConvexData@physx@@IAEXXZ 10055940 f   PhysX3CommonDEBUG_x86:PhysX3CommonDEBUG_x86.dll
 0001:0005494a       ?CreateOffsets@BigConvexData@physx@@IAEXXZ 1005594a f   PhysX3CommonDEBUG_x86:PhysX3CommonDEBUG_x86.dll
 0001:00054950       __imp_load_?GetRanks@RadixSort@Cm@physx@@QBEPBIXZ 10055950 f   PhysX3CommonDEBUG_x86:PhysX3CommonDEBUG_x86.dll
 0001:0005495a       ?GetRanks@RadixSort@Cm@physx@@QBEPBIXZ 1005595a f   PhysX3CommonDEBUG_x86:PhysX3CommonDEBUG_x86.dll
 0001:00054960       __imp_load_??0RadixSortBuffered@Cm@physx@@QAE@XZ 10055960 f   PhysX3CommonDEBUG_x86:PhysX3CommonDEBUG_x86.dll
 0001:0005496a       ??0RadixSortBuffered@Cm@physx@@QAE@XZ 1005596a f   PhysX3CommonDEBUG_x86:PhysX3CommonDEBUG_x86.dll
 0001:00054970       __imp_load_??1RadixSortBuffered@Cm@physx@@UAE@XZ 10055970 f   PhysX3CommonDEBUG_x86:PhysX3CommonDEBUG_x86.dll
 0001:0005497a       ??1RadixSortBuffered@Cm@physx@@UAE@XZ 1005597a f   PhysX3CommonDEBUG_x86:PhysX3CommonDEBUG_x86.dll
 0001:00054980       __imp_load_?Sort@RadixSortBuffered@Cm@physx@@QAEAAV123@PBIIW4RadixHint@23@@Z 10055980 f   PhysX3CommonDEBUG_x86:PhysX3CommonDEBUG_x86.dll
 0001:0005498a       ?Sort@RadixSortBuffered@Cm@physx@@QAEAAV123@PBIIW4RadixHint@23@@Z 1005598a f   PhysX3CommonDEBUG_x86:PhysX3CommonDEBUG_x86.dll
 0001:00054990       __imp_load_?computeOBBPoints@Gu@physx@@YAXPIAVPxVec3@2@ABV32@1111@Z 10055990 f   PhysX3CommonDEBUG_x86:PhysX3CommonDEBUG_x86.dll
 0001:0005499a       ?computeOBBPoints@Gu@physx@@YAXPIAVPxVec3@2@ABV32@1111@Z 1005599a f   PhysX3CommonDEBUG_x86:PhysX3CommonDEBUG_x86.dll
 0001:000549a0       __imp_load_??0BigConvexData@physx@@QAE@XZ 100559a0 f   PhysX3CommonDEBUG_x86:PhysX3CommonDEBUG_x86.dll
 0001:000549aa       ??0BigConvexData@physx@@QAE@XZ 100559aa f   PhysX3CommonDEBUG_x86:PhysX3CommonDEBUG_x86.dll
 0001:000549b0       __imp_load_??1BigConvexData@physx@@QAE@XZ 100559b0 f   PhysX3CommonDEBUG_x86:PhysX3CommonDEBUG_x86.dll
 0001:000549ba       ??1BigConvexData@physx@@QAE@XZ 100559ba f   PhysX3CommonDEBUG_x86:PhysX3CommonDEBUG_x86.dll
 0001:000549c0       __imp_load_?readDword@physx@@YAI_NAAVPxInputStream@1@@Z 100559c0 f   PhysX3CommonDEBUG_x86:PhysX3CommonDEBUG_x86.dll
 0001:000549ca       ?readDword@physx@@YAI_NAAVPxInputStream@1@@Z 100559ca f   PhysX3CommonDEBUG_x86:PhysX3CommonDEBUG_x86.dll
 0001:000549d0       __imp_load_?ReadHeader@Gu@physx@@YA_NEEEEAAIAA_NAAVPxInputStream@2@@Z 100559d0 f   PhysX3CommonDEBUG_x86:PhysX3CommonDEBUG_x86.dll
 0001:000549da       ?ReadHeader@Gu@physx@@YA_NEEEEAAIAA_NAAVPxInputStream@2@@Z 100559da f   PhysX3CommonDEBUG_x86:PhysX3CommonDEBUG_x86.dll
 0001:000549e0       __imp_load_??0HeightField@Gu@physx@@QAE@PAVGuMeshFactory@2@@Z 100559e0 f   PhysX3CommonDEBUG_x86:PhysX3CommonDEBUG_x86.dll
 0001:000549ea       ??0HeightField@Gu@physx@@QAE@PAVGuMeshFactory@2@@Z 100559ea f   PhysX3CommonDEBUG_x86:PhysX3CommonDEBUG_x86.dll
 0001:000549f0       __imp_load_?loadFromDesc@HeightField@Gu@physx@@QAE_NABVPxHeightFieldDesc@3@@Z 100559f0 f   PhysX3CommonDEBUG_x86:PhysX3CommonDEBUG_x86.dll
 0001:000549fa       ?loadFromDesc@HeightField@Gu@physx@@QAE_NABVPxHeightFieldDesc@3@@Z 100559fa f   PhysX3CommonDEBUG_x86:PhysX3CommonDEBUG_x86.dll
 0001:00054a00       __imp_load_?releaseMemory@HeightField@Gu@physx@@QAEXXZ 10055a00 f   PhysX3CommonDEBUG_x86:PhysX3CommonDEBUG_x86.dll
 0001:00054a0a       ?releaseMemory@HeightField@Gu@physx@@QAEXXZ 10055a0a f   PhysX3CommonDEBUG_x86:PhysX3CommonDEBUG_x86.dll
 0001:00054a10       __imp_load_??1HeightField@Gu@physx@@UAE@XZ 10055a10 f   PhysX3CommonDEBUG_x86:PhysX3CommonDEBUG_x86.dll
 0001:00054a1a       ??1HeightField@Gu@physx@@UAE@XZ 10055a1a f   PhysX3CommonDEBUG_x86:PhysX3CommonDEBUG_x86.dll
 0001:00054a20       ??$PFromRva@PAP6GHXZ@@YGPAP6GHXZK@Z 10055a20 f i delayimp:delayhlp.obj
 0001:00054a36       ??$PFromRva@PAPAUHINSTANCE__@@@@YGPAPAUHINSTANCE__@@K@Z 10055a36 f i delayimp:delayhlp.obj
 0001:00054a4c       ??$PFromRva@PAU_IMAGE_IMPORT_BY_NAME@@@@YGPAU_IMAGE_IMPORT_BY_NAME@@K@Z 10055a4c f i delayimp:delayhlp.obj
 0001:00054a62       ??$PFromRva@PAU_IMAGE_THUNK_DATA32@@@@YGPAU_IMAGE_THUNK_DATA32@@K@Z 10055a62 f i delayimp:delayhlp.obj
 0001:00054a78       ??$PFromRva@PBD@@YGPBDK@Z  10055a78 f i delayimp:delayhlp.obj
 0001:00054a8e       ??$PFromRva@PBUImgDelayDescr@@@@YGPBUImgDelayDescr@@K@Z 10055a8e f i delayimp:delayhlp.obj
 0001:00054aa4       ??$PFromRva@PBU_IMAGE_THUNK_DATA32@@@@YGPBU_IMAGE_THUNK_DATA32@@K@Z 10055aa4 f i delayimp:delayhlp.obj
 0001:00054aba       ?CountOfImports@@YGIPBU_IMAGE_THUNK_DATA32@@@Z 10055aba f i delayimp:delayhlp.obj
 0001:00054adb       ?DloadAcquireSectionWriteAccess@@YGXXZ 10055adb f i delayimp:delayhlp.obj
 0001:00054b1a       ?DloadGetSRWLockFunctionPointers@@YGEXZ 10055b1a f i delayimp:delayhlp.obj
 0001:00054bb3       ?DloadLock@@YGXXZ          10055bb3 f i delayimp:delayhlp.obj
 0001:00054c27       ?DloadMakePermanentImageCommit@@YGXPAXK@Z 10055c27 f i delayimp:delayhlp.obj
 0001:00054cb5       ?DloadObtainSection@@YGPAXPAK0@Z 10055cb5 f i delayimp:delayhlp.obj
 0001:00054d58       ?DloadProtectSection@@YGXKPAK@Z 10055d58 f i delayimp:delayhlp.obj
 0001:00054de4       ?DloadReleaseSectionWriteAccess@@YGXXZ 10055de4 f i delayimp:delayhlp.obj
 0001:00054e2a       ?DloadUnlock@@YGXXZ        10055e2a f i delayimp:delayhlp.obj
 0001:00054ea0       ?IndexFromPImgThunkData@@YGIPBU_IMAGE_THUNK_DATA32@@0@Z 10055ea0 f i delayimp:delayhlp.obj
 0001:00055056       _HRESULT_FROM_WIN32@4      10056056 f i delayimp:delayhlp.obj
 0001:00055074       _ReadAcquire@4             10056074 f i delayimp:delayhlp.obj
 0001:00055085       _ReadPointerAcquire@4      10056085 f i delayimp:delayhlp.obj
 0001:00055096       _WritePointerRelease@8     10056096 f i delayimp:delayhlp.obj
 0001:000550ab       _WriteRelease@8            100560ab f i delayimp:delayhlp.obj
 0001:000550c0       __InlineInterlockedCompareExchangePointer@12 100560c0 f i delayimp:delayhlp.obj
 0001:000550db       ___FUnloadDelayLoadedDLL2@4 100560db f   delayimp:delayhlp.obj
 0001:00055182       ___HrLoadAllImportsForDll@4 10056182 f   delayimp:delayhlp.obj
 0001:000551fd       ___delayLoadHelper2@8      100561fd f   delayimp:delayhlp.obj
 0001:00055530       __CRT_RTC_INIT             10056530 f   LIBCMTD:_init_.obj
 0001:00055540       __CRT_RTC_INITW            10056540 f   LIBCMTD:_init_.obj
 0001:00055550       __RTC_InitBase             10056550 f   LIBCMTD:_init_.obj
 0001:00055590       __RTC_Shutdown             10056590 f   LIBCMTD:_init_.obj
 0001:000555b0       ??_U@YAPAXI@Z              100565b0 f   LIBCMTD:new_array.obj
 0001:000555d0       ??_V@YAXPAX@Z              100565d0 f   LIBCMTD:delete_array.obj
 0001:000555f0       __alloca_probe_16          100565f0 f   LIBCMTD:alloca16.obj
 0001:00055606       __alloca_probe_8           10056606     LIBCMTD:alloca16.obj
 0001:00055630       __ftoui3                   10056630 f   LIBCMTD:_ftol3_.obj
 0001:0005563f       __ftoul3                   1005663f f   LIBCMTD:_ftol3_.obj
 0001:0005564e       __ftol3                    1005664e f   LIBCMTD:_ftol3_.obj
 0001:0005565b       __ftol3_NaN                1005665b f   LIBCMTD:_ftol3_.obj
 0001:00055673       __ftol3_work               10056673 f   LIBCMTD:_ftol3_.obj
 0001:000556f9       __ftol3_common             100566f9 f   LIBCMTD:_ftol3_.obj
 0001:000557bb       __ftol3_arg_error          100567bb f   LIBCMTD:_ftol3_.obj
 0001:000557cd       __ftol3_except             100567cd f   LIBCMTD:_ftol3_.obj
 0001:00055811       __dtoui3                   10056811 f   LIBCMTD:_ftol3_.obj
 0001:00055820       __dtoul3                   10056820 f   LIBCMTD:_ftol3_.obj
 0001:0005582f       __dtol3                    1005682f f   LIBCMTD:_ftol3_.obj
 0001:0005583c       __dtol3_NaN                1005683c f   LIBCMTD:_ftol3_.obj
 0001:00055859       __dtol3_work               10056859 f   LIBCMTD:_ftol3_.obj
 0001:00055940       __ultod3                   10056940 f   LIBCMTD:_ftol3_.obj
 0001:00055980       __ltod3                    10056980 f   LIBCMTD:_ftol3_.obj
 0001:00055a90       ??3@YAXPAXI@Z              10056a90 f   LIBCMTD:delete_scalar_size.obj
 0001:00055ab0       ?__scrt_initialize_type_info@@YAXXZ 10056ab0 f   LIBCMTD:tncleanup.obj
 0001:00055ad0       ?__scrt_uninitialize_type_info@@YAXXZ 10056ad0 f   LIBCMTD:tncleanup.obj
 0001:00055af0       ??1type_info@@UAE@XZ       10056af0 f   LIBCMTD:std_type_info_static.obj
 0001:00055b10       ??_Etype_info@@UAEPAXI@Z   10056b10 f i LIBCMTD:std_type_info_static.obj
 0001:00055b10       ??_Gtype_info@@UAEPAXI@Z   10056b10 f i LIBCMTD:std_type_info_static.obj
 0001:00055b50       __alloca_probe             10056b50 f   LIBCMTD:chkstk.obj
 0001:00055b50       __chkstk                   10056b50 f   LIBCMTD:chkstk.obj
 0001:00056150       __CRT_INIT@12              10057150 f   LIBCMTD:dll_dllmain.obj
 0001:00056170       __DllMainCRTStartup@12     10057170 f   LIBCMTD:dll_dllmain.obj
 0001:000561a0       @__security_check_cookie@4 100571a0 f   LIBCMTD:_secchk_.obj
 0001:000561c0       @_guard_check_icall_nop@4  100571c0 f i LIBCMTD:guard_support.obj
 0001:000561d0       __guard_icall_checks_enforced 100571d0 f i LIBCMTD:guard_support.obj
 0001:00056200       ?_RTC_GetErrorFunc@@YAP6AHHPBDH00ZZPBX@Z 10057200 f   LIBCMTD:_userapi_.obj
 0001:00056210       ?_RTC_GetErrorFuncW@@YAP6AHHPB_WH00ZZPBX@Z 10057210 f   LIBCMTD:_userapi_.obj
 0001:00056220       __RTC_GetErrDesc           10057220 f   LIBCMTD:_userapi_.obj
 0001:00056240       __RTC_NumErrors            10057240 f   LIBCMTD:_userapi_.obj
 0001:00056250       __RTC_SetErrorFunc         10057250 f   LIBCMTD:_userapi_.obj
 0001:00056280       __RTC_SetErrorFuncW        10057280 f   LIBCMTD:_userapi_.obj
 0001:000562b0       __RTC_SetErrorType         100572b0 f   LIBCMTD:_userapi_.obj
 0001:000562e0       ??2@YAPAXI@Z               100572e0 f   LIBCMTD:new_scalar.obj
 0001:00056340       ??3@YAXPAX@Z               10057340 f   LIBCMTD:delete_scalar.obj
 0001:00056360       ??$__crt_fast_decode_pointer@PAP6AXXZ@@YAPAP6AXXZQAP6AXXZ@Z 10057360 f i LIBCMTD:utility.obj
 0001:00056390       ??$__crt_fast_encode_pointer@PAP6AXXZ@@YAPAP6AXXZQAP6AXXZ@Z 10057390 f i LIBCMTD:utility.obj
 0001:000563d0       ?__crt_rotate_pointer_value@@YAIIH@Z 100573d0 f i LIBCMTD:utility.obj
 0001:000563e0       ?configure_argv@__scrt_narrow_argv_policy@@SAHXZ 100573e0 f i LIBCMTD:utility.obj
 0001:00056540       _NtCurrentTeb              10057540 f i LIBCMTD:utility.obj
 0001:00056550       ___scrt_acquire_startup_lock 10057550 f   LIBCMTD:utility.obj
 0001:000565b0       ___scrt_dllmain_after_initialize_c 100575b0 f   LIBCMTD:utility.obj
 0001:000565f0       ___scrt_dllmain_before_initialize_c 100575f0 f   LIBCMTD:utility.obj
 0001:00056620       ___scrt_dllmain_crt_thread_attach 10057620 f   LIBCMTD:utility.obj
 0001:00056660       ___scrt_dllmain_crt_thread_detach 10057660 f   LIBCMTD:utility.obj
 0001:00056680       ___scrt_dllmain_exception_filter 10057680 f   LIBCMTD:utility.obj
 0001:000566e0       ___scrt_dllmain_uninitialize_c 100576e0 f   LIBCMTD:utility.obj
 0001:00056720       ___scrt_dllmain_uninitialize_critical 10057720 f   LIBCMTD:utility.obj
 0001:00056740       ___scrt_initialize_crt     10057740 f   LIBCMTD:utility.obj
 0001:000567a0       ___scrt_initialize_onexit_tables 100577a0 f   LIBCMTD:utility.obj
 0001:000568a0       ___scrt_is_nonwritable_in_current_image 100578a0 f   LIBCMTD:utility.obj
 0001:00056a20       ___scrt_release_startup_lock 10057a20 f   LIBCMTD:utility.obj
 0001:00056a50       ___scrt_uninitialize_crt   10057a50 f   LIBCMTD:utility.obj
 0001:00056aa0       __onexit                   10057aa0 f   LIBCMTD:utility.obj
 0001:00056b30       _at_quick_exit             10057b30 f   LIBCMTD:utility.obj
 0001:00056b90       _atexit                    10057b90 f   LIBCMTD:utility.obj
 0001:00056bd0       ___security_init_cookie    10057bd0 f   LIBCMTD:gs_support.obj
 0001:00056cf0       _DllMain@12                10057cf0 f   LIBCMTD:dll_dllmain_stub.obj
 0001:00056d00       ___local_stdio_printf_options 10057d00 f i LIBCMTD:default_local_stdio_options.obj
 0001:00056d10       ___local_stdio_scanf_options 10057d10 f i LIBCMTD:default_local_stdio_options.obj
 0001:00056d20       ___scrt_initialize_default_local_stdio_options 10057d20 f   LIBCMTD:default_local_stdio_options.obj
 0001:00056d70       ___scrt_get_dyn_tls_init_callback 10057d70 f   LIBCMTD:dyn_tls_init.obj
 0001:00056d80       ___scrt_fastfail           10057d80 f   LIBCMTD:utility_desktop.obj
 0001:00056f10       ___scrt_get_show_window_mode 10057f10 f   LIBCMTD:utility_desktop.obj
 0001:00056f60       ___scrt_initialize_winrt   10057f60 f   LIBCMTD:utility_desktop.obj
 0001:00056f70       ___scrt_is_managed_app     10057f70 f   LIBCMTD:utility_desktop.obj
 0001:00057020       ___scrt_set_unhandled_exception_filter 10058020 f   LIBCMTD:utility_desktop.obj
 0001:00057040       ___scrt_unhandled_exception_filter@4 10058040 f   LIBCMTD:utility_desktop.obj
 0001:000570c0       __crt_debugger_hook        100580c0 f   LIBCMTD:utility_desktop.obj
 0001:000570e0       __RTC_Initialize           100580e0 f   LIBCMTD:_initsect_.obj
 0001:00057120       __RTC_Terminate            10058120 f   LIBCMTD:_initsect_.obj
 0001:00057160       @_guard_check_icall@4      10058160 f i LIBCMTD:checkcfg.obj
 0001:00057180       ___raise_securityfailure   10058180 f   LIBCMTD:gs_report.obj
 0001:000571c0       ___report_gsfailure        100581c0 f   LIBCMTD:gs_report.obj
 0001:00057310       ___report_rangecheckfailure 10058310 f   LIBCMTD:gs_report.obj
 0001:00057320       ___report_securityfailure  10058320 f   LIBCMTD:gs_report.obj
 0001:00057430       ___report_securityfailureEx 10058430 f   LIBCMTD:gs_report.obj
 0001:000575a0       ??$__vcrt_va_start_verify_argument_type@QBD@@YAXXZ 100585a0 f i LIBCMTD:_error_.obj
 0001:00057750       ?_RTC_AllocaFailure@@YAXPAXPAU_RTC_ALLOCA_NODE@@H@Z 10058750 f   LIBCMTD:_error_.obj
 0001:000578c0       ?_RTC_Failure@@YAXPAXH@Z   100588c0 f   LIBCMTD:_error_.obj
 0001:00057930       ?_RTC_StackFailure@@YAXPAXPBD@Z 10058930 f   LIBCMTD:_error_.obj
 0001:00057db0       __RTC_UninitUse            10058db0 f   LIBCMTD:_error_.obj
 0001:00057ee0       __vsprintf_s_l             10058ee0 f i LIBCMTD:_error_.obj
 0001:00057f20       _sprintf_s                 10058f20 f i LIBCMTD:_error_.obj
 0001:00057f50       ??0bad_alloc@std@@AAE@QBD@Z 10058f50 f i LIBCMTD:throw_bad_alloc.obj
 0001:00057f80       ??0bad_alloc@std@@QAE@ABV01@@Z 10058f80 f i LIBCMTD:throw_bad_alloc.obj
 0001:00057fb0       ??0bad_alloc@std@@QAE@XZ   10058fb0 f i LIBCMTD:throw_bad_alloc.obj
 0001:00057fe0       ??0bad_array_new_length@std@@QAE@ABV01@@Z 10058fe0 f i LIBCMTD:throw_bad_alloc.obj
 0001:00058010       ??0bad_array_new_length@std@@QAE@XZ 10059010 f i LIBCMTD:throw_bad_alloc.obj
 0001:00058040       ??0exception@std@@QAE@ABV01@@Z 10059040 f i LIBCMTD:throw_bad_alloc.obj
 0001:00058090       ??0exception@std@@QAE@QBDH@Z 10059090 f i LIBCMTD:throw_bad_alloc.obj
 0001:000580d0       ??1bad_alloc@std@@UAE@XZ   100590d0 f i LIBCMTD:throw_bad_alloc.obj
 0001:000580f0       ??1bad_array_new_length@std@@UAE@XZ 100590f0 f i LIBCMTD:throw_bad_alloc.obj
 0001:00058110       ??1exception@std@@UAE@XZ   10059110 f i LIBCMTD:throw_bad_alloc.obj
 0001:00058140       ??_Ebad_alloc@std@@UAEPAXI@Z 10059140 f i LIBCMTD:throw_bad_alloc.obj
 0001:00058140       ??_Gbad_alloc@std@@UAEPAXI@Z 10059140 f i LIBCMTD:throw_bad_alloc.obj
 0001:00058180       ??_Ebad_array_new_length@std@@UAEPAXI@Z 10059180 f i LIBCMTD:throw_bad_alloc.obj
 0001:00058180       ??_Gbad_array_new_length@std@@UAEPAXI@Z 10059180 f i LIBCMTD:throw_bad_alloc.obj
 0001:000581c0       ??_Gexception@std@@UAEPAXI@Z 100591c0 f i LIBCMTD:throw_bad_alloc.obj
 0001:000581c0       ??_Eexception@std@@UAEPAXI@Z 100591c0 f i LIBCMTD:throw_bad_alloc.obj
 0001:00058200       ?__scrt_throw_std_bad_alloc@@YAXXZ 10059200 f   LIBCMTD:throw_bad_alloc.obj
 0001:00058230       ?__scrt_throw_std_bad_array_new_length@@YAXXZ 10059230 f   LIBCMTD:throw_bad_alloc.obj
 0001:00058260       ?what@exception@std@@UBEPBDXZ 10059260 f i LIBCMTD:throw_bad_alloc.obj
 0001:000582a0       ___isa_available_init      100592a0 f   LIBCMTD:_cpu_disp_.obj
 0001:00058630       __get_startup_argv_mode    10059630 f   LIBCMTD:argv_mode.obj
 0001:00058640       ___scrt_is_ucrt_dll_in_use 10059640 f   LIBCMTD:ucrt_detection.obj
 0001:00058c30       ?_RTC_GetSrcLine@@YAHPAEPA_WKPAH1K@Z 10059c30 f   LIBCMTD:_pdblkup_.obj
 0001:00059060       _strstr                    1005a060 f   libvcruntimed:strstr.obj
 0001:00059360       _memcpy                    1005a360 f   libvcruntimed:memcpy.obj
 0001:00059a40       _memset                    1005aa40 f   libvcruntimed:memset.obj
 0001:00059e00       _memcmp                    1005ae00 f   libvcruntimed:_memcmp_.obj
 0001:0005a900       ??$__crt_fast_decode_pointer@P6AXXZ@@YAP6AXXZQ6AXXZ@Z 1005b900 f i libvcruntimed:purevirt.obj
 0001:0005a930       ??$__crt_fast_encode_pointer@P6AXXZ@@YAP6AXXZQ6AXXZ@Z 1005b930 f i libvcruntimed:purevirt.obj
 0001:0005a970       ??$__crt_interlocked_compare_exchange_pointer@$$A6AXXZ$$T$$T@@YAP6AXXZPDS6AXXZ$$T1@Z 1005b970 f i libvcruntimed:purevirt.obj
 0001:0005a990       ??$__crt_interlocked_exchange_pointer@$$A6AXXZP6AXXZ@@YAP6AXXZPDS6AXXZQ6AXXZ@Z 1005b990 f i libvcruntimed:purevirt.obj
 0001:0005a9a0       ??$__crt_interlocked_read_pointer@$$A6AXXZ@@YAP6AXXZPDS6AXXZ@Z 1005b9a0 f i libvcruntimed:purevirt.obj
 0001:0005a9c0       __get_purecall_handler     1005b9c0 f   libvcruntimed:purevirt.obj
 0001:0005a9f0       __purecall                 1005b9f0 f   libvcruntimed:purevirt.obj
 0001:0005aa30       __set_purecall_handler     1005ba30 f   libvcruntimed:purevirt.obj
 0001:0005aab0       ??$?RD@__crt_internal_free_policy@@QBEXQBD@Z 1005bab0 f i libvcruntimed:std_type_info.obj
 0001:0005aae0       ??$?RX@__crt_internal_free_policy@@QBEXQBX@Z 1005bae0 f i libvcruntimed:std_type_info.obj
 0001:0005ab10       ??$__crt_interlocked_compare_exchange_pointer@$$CBD$$T$$T@@YAPBDPDSBD$$T1@Z 1005bb10 f i libvcruntimed:std_type_info.obj
 0001:0005ab30       ??$__crt_interlocked_compare_exchange_pointer@$$CBDPAD$$T@@YAPBDPDSBDQAD$$T@Z 1005bb30 f i libvcruntimed:std_type_info.obj
 0001:0005ab50       ??$__crt_interlocked_read_pointer@$$CBD@@YAPBDPDSBD@Z 1005bb50 f i libvcruntimed:std_type_info.obj
 0001:0005ab70       ??0?$__crt_unique_heap_ptr@DU__crt_internal_free_policy@@@@QAE@QAD@Z 1005bb70 f i libvcruntimed:std_type_info.obj
 0001:0005ab90       ??0?$__crt_unique_heap_ptr@XU__crt_internal_free_policy@@@@QAE@QAX@Z 1005bb90 f i libvcruntimed:std_type_info.obj
 0001:0005abb0       ??1?$__crt_unique_heap_ptr@DU__crt_internal_free_policy@@@@QAE@XZ 1005bbb0 f i libvcruntimed:std_type_info.obj
 0001:0005abd0       ??1?$__crt_unique_heap_ptr@XU__crt_internal_free_policy@@@@QAE@XZ 1005bbd0 f i libvcruntimed:std_type_info.obj
 0001:0005ac30       ??B?$__crt_unique_heap_ptr@DU__crt_internal_free_policy@@@@QBE_NXZ 1005bc30 f i libvcruntimed:std_type_info.obj
 0001:0005ac50       ??B?$__crt_unique_heap_ptr@XU__crt_internal_free_policy@@@@QBE_NXZ 1005bc50 f i libvcruntimed:std_type_info.obj
 0001:0005acd0       ?detach@?$__crt_unique_heap_ptr@XU__crt_internal_free_policy@@@@QAEPAXXZ 1005bcd0 f i libvcruntimed:std_type_info.obj
 0001:0005ad00       ?get@?$__crt_unique_heap_ptr@DU__crt_internal_free_policy@@@@QBEPADXZ 1005bd00 f i libvcruntimed:std_type_info.obj
 0001:0005ad20       ?get@?$__crt_unique_heap_ptr@XU__crt_internal_free_policy@@@@QBEPAXXZ 1005bd20 f i libvcruntimed:std_type_info.obj
 0001:0005ad40       ?is_valid@?$__crt_unique_heap_ptr@DU__crt_internal_free_policy@@@@QBE_NXZ 1005bd40 f i libvcruntimed:std_type_info.obj
 0001:0005ad80       ?is_valid@?$__crt_unique_heap_ptr@XU__crt_internal_free_policy@@@@QBE_NXZ 1005bd80 f i libvcruntimed:std_type_info.obj
 0001:0005adc0       ?release@?$__crt_unique_heap_ptr@DU__crt_internal_free_policy@@@@QAEXXZ 1005bdc0 f i libvcruntimed:std_type_info.obj
 0001:0005adf0       ?release@?$__crt_unique_heap_ptr@XU__crt_internal_free_policy@@@@QAEXXZ 1005bdf0 f i libvcruntimed:std_type_info.obj
 0001:0005ae20       ___std_type_info_compare   1005be20 f   libvcruntimed:std_type_info.obj
 0001:0005ae50       ___std_type_info_destroy_list 1005be50 f   libvcruntimed:std_type_info.obj
 0001:0005aea0       ___std_type_info_hash      1005bea0 f   libvcruntimed:std_type_info.obj
 0001:0005af10       ___std_type_info_name      1005bf10 f   libvcruntimed:std_type_info.obj
 0001:0005b160       _memmove                   1005c160 f   libvcruntimed:memmove.obj
 0001:0005b8c0       __except_handler4          1005c8c0 f   libvcruntimed:_chandler4_.obj
 0001:0005bb10       ___vcrt_initialize         1005cb10 f   libvcruntimed:initialization.obj
 0001:0005bb60       ___vcrt_thread_attach      1005cb60 f   libvcruntimed:initialization.obj
 0001:0005bb80       ___vcrt_thread_detach      1005cb80 f   libvcruntimed:initialization.obj
 0001:0005bba0       ___vcrt_uninitialize       1005cba0 f   libvcruntimed:initialization.obj
 0001:0005bbd0       ___vcrt_uninitialize_critical 1005cbd0 f   libvcruntimed:initialization.obj
 0001:0005bbf0       ??$?RD@__crt_public_free_policy@@QBEXQBD@Z 1005cbf0 f i libvcruntimed:std_exception.obj
 0001:0005bc10       ??0?$__crt_unique_heap_ptr@DU__crt_public_free_policy@@@@QAE@QAD@Z 1005cc10 f i libvcruntimed:std_exception.obj
 0001:0005bc30       ??1?$__crt_unique_heap_ptr@DU__crt_public_free_policy@@@@QAE@XZ 1005cc30 f i libvcruntimed:std_exception.obj
 0001:0005bc50       ??B?$__crt_unique_heap_ptr@DU__crt_public_free_policy@@@@QBE_NXZ 1005cc50 f i libvcruntimed:std_exception.obj
 0001:0005bc70       ?detach@?$__crt_unique_heap_ptr@DU__crt_public_free_policy@@@@QAEPADXZ 1005cc70 f i libvcruntimed:std_exception.obj
 0001:0005bca0       ?get@?$__crt_unique_heap_ptr@DU__crt_public_free_policy@@@@QBEPADXZ 1005cca0 f i libvcruntimed:std_exception.obj
 0001:0005bcc0       ?is_valid@?$__crt_unique_heap_ptr@DU__crt_public_free_policy@@@@QBE_NXZ 1005ccc0 f i libvcruntimed:std_exception.obj
 0001:0005bd00       ?release@?$__crt_unique_heap_ptr@DU__crt_public_free_policy@@@@QAEXXZ 1005cd00 f i libvcruntimed:std_exception.obj
 0001:0005bd30       ___std_exception_copy      1005cd30 f   libvcruntimed:std_exception.obj
 0001:0005be50       ___std_exception_destroy   1005ce50 f   libvcruntimed:std_exception.obj
 0001:0005be90       __CxxThrowException@8      1005ce90 f   libvcruntimed:throw.obj
 0001:0005bf70       ___vcrt_GetModuleFileNameW 1005cf70 f   libvcruntimed:winapi_thunks.obj
 0001:0005bf90       ___vcrt_GetModuleHandleW   1005cf90 f   libvcruntimed:winapi_thunks.obj
 0001:0005bfb0       ___vcrt_LoadLibraryExW     1005cfb0 f   libvcruntimed:winapi_thunks.obj
 0001:0005bfd0       _strchr                    1005cfd0 f   libvcruntimed:strchr.obj
 0001:0005c03e       ___from_strstr_to_strchr   1005d03e     libvcruntimed:strchr.obj
 0001:0005c150       ??$?B$$A6AXXZ@__crt_fast_encoded_nullptr_t@@QBEP6AXXZXZ 1005d150 f i libvcruntimed:purevirt_data.obj
 0001:0005c170       ?__crt_fast_encode_pointer@@YA?AU__crt_fast_encoded_nullptr_t@@$$T@Z 1005d170 f i libvcruntimed:purevirt_data.obj
 0001:0005c180       ___vcrt_initialize_pure_virtual_call_handler 1005d180 f   libvcruntimed:purevirt_data.obj
 0001:0005c1b0       ??0Block@_HeapManager@@QAE@XZ 1005d1b0 f i libvcruntimed:undname.obj
 0001:0005c1d0       ??0DName@@QAE@AAPBDD@Z     1005d1d0 f   libvcruntimed:undname.obj
 0001:0005c540       ??0DName@@QAE@ABV0@@Z      1005d540 f i libvcruntimed:undname.obj
 0001:0005c570       ??0DName@@QAE@D@Z          1005d570 f   libvcruntimed:undname.obj
 0001:0005c680       ??0DName@@QAE@PAV0@@Z      1005d680 f   libvcruntimed:undname.obj
 0001:0005c800       ??0DName@@QAE@PBD@Z        1005d800 f   libvcruntimed:undname.obj
 0001:0005c930       ??0DName@@QAE@W4DNameStatus@@@Z 1005d930 f   libvcruntimed:undname.obj
 0001:0005ca90       ??0DName@@QAE@XZ           1005da90 f i libvcruntimed:undname.obj
 0001:0005cb80       ??0DName@@QAE@_J@Z         1005db80 f   libvcruntimed:undname.obj
 0001:0005cd60       ??0DName@@QAE@_K@Z         1005dd60 f   libvcruntimed:undname.obj
 0001:0005cef0       ??0DNameNode@@IAE@XZ       1005def0 f   libvcruntimed:undname.obj
 0001:0005cf10       ??0DNameStatusNode@@AAE@W4DNameStatus@@@Z 1005df10 f   libvcruntimed:undname.obj
 0001:0005cf80       ??0Replicator@@QAE@XZ      1005df80 f i libvcruntimed:undname.obj
 0001:0005cfa0       ??0UnDecorator@@QAE@PADPBDHP6APADJ@ZK@Z 1005dfa0 f i libvcruntimed:undname.obj
 0001:0005d060       ??0charNode@@QAE@D@Z       1005e060 f   libvcruntimed:undname.obj
 0001:0005d0a0       ??0pDNameNode@@QAE@PAVDName@@@Z 1005e0a0 f   libvcruntimed:undname.obj
 0001:0005d120       ??0pairNode@@QAE@PAVDNameNode@@0@Z 1005e120 f   libvcruntimed:undname.obj
 0001:0005d170       ??0pcharNode@@QAE@PBDH@Z   1005e170 f   libvcruntimed:undname.obj
 0001:0005d230       ??2@YAPAXIAAV_HeapManager@@H@Z 1005e230 f i libvcruntimed:undname.obj
 0001:0005d250       ??4DName@@QAEAAV0@ABV0@@Z  1005e250 f   libvcruntimed:undname.obj
 0001:0005d280       ??4DName@@QAEAAV0@D@Z      1005e280 f i libvcruntimed:undname.obj
 0001:0005d390       ??4DName@@QAEAAV0@PAV0@@Z  1005e390 f   libvcruntimed:undname.obj
 0001:0005d510       ??4DName@@QAEAAV0@PBD@Z    1005e510 f   libvcruntimed:undname.obj
 0001:0005d620       ??4DName@@QAEAAV0@W4DNameStatus@@@Z 1005e620 f   libvcruntimed:undname.obj
 0001:0005d760       ??AReplicator@@QBE?AVDName@@H@Z 1005e760 f   libvcruntimed:undname.obj
 0001:0005d7e0       ??BUnDecorator@@QAEPADXZ   1005e7e0 f i libvcruntimed:undname.obj
 0001:0005db30       ??H@YA?AVDName@@DABV0@@Z   1005eb30 f i libvcruntimed:undname.obj
 0001:0005db70       ??H@YA?AVDName@@PBDABV0@@Z 1005eb70 f i libvcruntimed:undname.obj
 0001:0005dbb0       ??H@YA?AVDName@@W4DNameStatus@@ABV0@@Z 1005ebb0 f i libvcruntimed:undname.obj
 0001:0005dbf0       ??HDName@@QBE?AV0@ABV0@@Z  1005ebf0 f   libvcruntimed:undname.obj
 0001:0005dc40       ??HDName@@QBE?AV0@D@Z      1005ec40 f   libvcruntimed:undname.obj
 0001:0005dc90       ??HDName@@QBE?AV0@PAV0@@Z  1005ec90 f   libvcruntimed:undname.obj
 0001:0005dce0       ??HDName@@QBE?AV0@PBD@Z    1005ece0 f   libvcruntimed:undname.obj
 0001:0005dd30       ??HDName@@QBE?AV0@W4DNameStatus@@@Z 1005ed30 f   libvcruntimed:undname.obj
 0001:0005dd80       ??YDName@@QAEAAV0@ABV0@@Z  1005ed80 f   libvcruntimed:undname.obj
 0001:0005de00       ??YDName@@QAEAAV0@D@Z      1005ee00 f   libvcruntimed:undname.obj
 0001:0005dea0       ??YDName@@QAEAAV0@PAV0@@Z  1005eea0 f   libvcruntimed:undname.obj
 0001:0005df80       ??YDName@@QAEAAV0@PBD@Z    1005ef80 f   libvcruntimed:undname.obj
 0001:0005e040       ??YDName@@QAEAAV0@W4DNameStatus@@@Z 1005f040 f   libvcruntimed:undname.obj
 0001:0005e0c0       ??YReplicator@@QAEAAV0@ABVDName@@@Z 1005f0c0 f   libvcruntimed:undname.obj
 0001:0005e170       ??_5DName@@QAEAAV0@ABV0@@Z 1005f170 f   libvcruntimed:undname.obj
 0001:0005e1e0       ?Constructor@_HeapManager@@QAEXP6APAXI@ZP6AXPAX@Z@Z 1005f1e0 f i libvcruntimed:undname.obj
 0001:0005e230       ?Destructor@_HeapManager@@QAEXXZ 1005f230 f i libvcruntimed:undname.obj
 0001:0005e2a0       ?UScore@UnDecorator@@SAPBDW4Tokens@@@Z 1005f2a0 f   libvcruntimed:undname.obj
 0001:0005e2e0       ?append@DName@@AAEXPAVDNameNode@@@Z 1005f2e0 f   libvcruntimed:undname.obj
 0001:0005e390       ?composeDeclaration@UnDecorator@@CA?AVDName@@ABV2@@Z 1005f390 f i libvcruntimed:undname.obj
 0001:00060740       ?dbGetString@DName@@QBEPADXZ 10061740 f   libvcruntimed:undname.obj
 0001:00060770       ?doAccessSpecifiers@UnDecorator@@SAHXZ 10061770 f i libvcruntimed:undname.obj
 0001:000607a0       ?doAllocationLanguage@UnDecorator@@SAHXZ 100617a0 f i libvcruntimed:undname.obj
 0001:000607d0       ?doAllocationModel@UnDecorator@@SAHXZ 100617d0 f i libvcruntimed:undname.obj
 0001:00060800       ?doEcsu@UnDecorator@@SAHXZ 10061800 f i libvcruntimed:undname.obj
 0001:00060830       ?doEllipsis@UnDecorator@@SAHXZ 10061830 f i libvcruntimed:undname.obj
 0001:00060860       ?doFunctionReturns@UnDecorator@@SAHXZ 10061860 f i libvcruntimed:undname.obj
 0001:00060890       ?doMSKeywords@UnDecorator@@SAHXZ 10061890 f i libvcruntimed:undname.obj
 0001:000608c0       ?doMemberTypes@UnDecorator@@SAHXZ 100618c0 f i libvcruntimed:undname.obj
 0001:000608f0       ?doNameOnly@UnDecorator@@SAHXZ 100618f0 f i libvcruntimed:undname.obj
 0001:00060910       ?doNoIdentCharCheck@UnDecorator@@SAHXZ 10061910 f i libvcruntimed:undname.obj
 0001:00060930       ?doPchar@DName@@AAEXPBDH@Z 10061930 f   libvcruntimed:undname.obj
 0001:00060ac0       ?doPtr64@UnDecorator@@SAHXZ 10061ac0 f i libvcruntimed:undname.obj
 0001:00060af0       ?doRestrictionSpec@UnDecorator@@SAHXZ 10061af0 f i libvcruntimed:undname.obj
 0001:00060b20       ?doThisTypes@UnDecorator@@SAHXZ 10061b20 f i libvcruntimed:undname.obj
 0001:00060b60       ?doThrowTypes@UnDecorator@@SAHXZ 10061b60 f i libvcruntimed:undname.obj
 0001:00060b90       ?doTypeOnly@UnDecorator@@SAHXZ 10061b90 f i libvcruntimed:undname.obj
 0001:00060bb0       ?doUnderScore@UnDecorator@@SAHXZ 10061bb0 f i libvcruntimed:undname.obj
 0001:00060be0       ?getArgumentList@UnDecorator@@CA?AVDName@@XZ 10061be0 f   libvcruntimed:undname.obj
 0001:00060d80       ?getArgumentTypes@UnDecorator@@CA?AVDName@@XZ 10061d80 f   libvcruntimed:undname.obj
 0001:00060f30       ?getArrayType@UnDecorator@@CA?AVDName@@ABV2@@Z 10061f30 f i libvcruntimed:undname.obj
 0001:000611f0       ?getBasedType@UnDecorator@@CA?AVDName@@XZ 100621f0 f   libvcruntimed:undname.obj
 0001:000612e0       ?getBasicDataType@UnDecorator@@CA?AVDName@@ABV2@@Z 100622e0 f   libvcruntimed:undname.obj
 0001:00061a40       ?getCallIndex@UnDecorator@@CA?AVDName@@XZ 10062a40 f i libvcruntimed:undname.obj
 0001:00061a60       ?getCallingConvention@UnDecorator@@CA?AVDName@@XZ 10062a60 f   libvcruntimed:undname.obj
 0001:00061c50       ?getDataIndirectType@UnDecorator@@CA?AVDName@@ABV2@PBD0H@Z 10062c50 f   libvcruntimed:undname.obj
 0001:00062600       ?getDataIndirectType@UnDecorator@@CA?AVDName@@XZ 10063600 f i libvcruntimed:undname.obj
 0001:00062650       ?getDataType@UnDecorator@@CA?AVDName@@PAV2@@Z 10063650 f   libvcruntimed:undname.obj
 0001:000627b0       ?getDecoratedName@UnDecorator@@CA?AVDName@@XZ 100637b0 f   libvcruntimed:undname.obj
 0001:00062ba0       ?getDimension@UnDecorator@@CA?AVDName@@_N@Z 10063ba0 f   libvcruntimed:undname.obj
 0001:00062f00       ?getDispatchTarget@UnDecorator@@CA?AVDName@@XZ 10063f00 f   libvcruntimed:undname.obj
 0001:00062fc0       ?getDisplacement@UnDecorator@@CA?AVDName@@XZ 10063fc0 f i libvcruntimed:undname.obj
 0001:00062fe0       ?getECSUDataType@UnDecorator@@CA?AVDName@@XZ 10063fe0 f   libvcruntimed:undname.obj
 0001:00063220       ?getECSUName@UnDecorator@@CA?AVDName@@XZ 10064220 f i libvcruntimed:undname.obj
 0001:00063240       ?getEnumType@UnDecorator@@CA?AVDName@@XZ 10064240 f i libvcruntimed:undname.obj
 0001:000633e0       ?getExtendedDataIndirectType@UnDecorator@@CA?AVDName@@AAPBDAA_NH@Z 100643e0 f   libvcruntimed:undname.obj
 0001:000636c0       ?getExternalDataType@UnDecorator@@CA?AVDName@@ABV2@@Z 100646c0 f i libvcruntimed:undname.obj
 0001:00063780       ?getFunctionIndirectType@UnDecorator@@CA?AVDName@@ABV2@@Z 10064780 f   libvcruntimed:undname.obj
 0001:00063d30       ?getGuardNumber@UnDecorator@@CA?AVDName@@XZ 10064d30 f i libvcruntimed:undname.obj
 0001:00063d50       ?getLastChar@DName@@QBEDXZ 10064d50 f i libvcruntimed:undname.obj
 0001:00063da0       ?getLastChar@DNameStatusNode@@UBEDXZ 10064da0 f i libvcruntimed:undname.obj
 0001:00063de0       ?getLastChar@charNode@@UBEDXZ 10064de0 f i libvcruntimed:undname.obj
 0001:00063e00       ?getLastChar@pDNameNode@@UBEDXZ 10064e00 f i libvcruntimed:undname.obj
 0001:00063e40       ?getLastChar@pairNode@@UBEDXZ 10064e40 f i libvcruntimed:undname.obj
 0001:00063ec0       ?getLastChar@pcharNode@@UBEDXZ 10064ec0 f i libvcruntimed:undname.obj
 0001:00063f00       ?getLexicalFrame@UnDecorator@@CA?AVDName@@XZ 10064f00 f i libvcruntimed:undname.obj
 0001:00063f50       ?getMemory@_HeapManager@@QAEPAXIH@Z 10064f50 f   libvcruntimed:undname.obj
 0001:000640b0       ?getNumberOfDimensions@UnDecorator@@CAHXZ 100650b0 f   libvcruntimed:undname.obj
 0001:000641f0       ?getOperatorName@UnDecorator@@CA?AVDName@@_NPA_N@Z 100651f0 f i libvcruntimed:undname.obj
 0001:00064eb0       ?getPointerType@UnDecorator@@CA?AVDName@@ABV2@0@Z 10065eb0 f i libvcruntimed:undname.obj
 0001:00064ef0       ?getPointerTypeArray@UnDecorator@@CA?AVDName@@ABV2@0@Z 10065ef0 f i libvcruntimed:undname.obj
 0001:00064f30       ?getPrimaryDataType@UnDecorator@@CA?AVDName@@ABV2@@Z 10065f30 f   libvcruntimed:undname.obj
 0001:00065420       ?getPtrRefDataType@UnDecorator@@CA?AVDName@@ABV2@H@Z 10066420 f   libvcruntimed:undname.obj
 0001:00065620       ?getPtrRefType@UnDecorator@@CA?AVDName@@ABV2@0PBD@Z 10066620 f   libvcruntimed:undname.obj
 0001:000657f0       ?getReferenceType@UnDecorator@@CA?AVDName@@ABV2@0PBD@Z 100667f0 f i libvcruntimed:undname.obj
 0001:00065820       ?getRestrictionSpec@UnDecorator@@CA?AVDName@@XZ 10066820 f   libvcruntimed:undname.obj
 0001:000659c0       ?getReturnType@UnDecorator@@CA?AVDName@@PAV2@@Z 100669c0 f   libvcruntimed:undname.obj
 0001:00065a20       ?getScope@UnDecorator@@CA?AVDName@@XZ 10066a20 f   libvcruntimed:undname.obj
 0001:00066050       ?getScopedName@UnDecorator@@CA?AVDName@@XZ 10067050 f   libvcruntimed:undname.obj
 0001:000661b0       ?getSignedDimension@UnDecorator@@CA?AVDName@@XZ 100671b0 f   libvcruntimed:undname.obj
 0001:00066250       ?getStorageConvention@UnDecorator@@CA?AVDName@@XZ 10067250 f i libvcruntimed:undname.obj
 0001:00066270       ?getString@DName@@QBEPADPAD0@Z 10067270 f i libvcruntimed:undname.obj
 0001:000662d0       ?getString@DName@@QBEPADPADH@Z 100672d0 f i libvcruntimed:undname.obj
 0001:00066380       ?getString@DNameStatusNode@@UBEPADPAD0@Z 10067380 f i libvcruntimed:undname.obj
 0001:000663c0       ?getString@charNode@@UBEPADPAD0@Z 100673c0 f i libvcruntimed:undname.obj
 0001:00066400       ?getString@pDNameNode@@UBEPADPAD0@Z 10067400 f i libvcruntimed:undname.obj
 0001:00066450       ?getString@pairNode@@UBEPADPAD0@Z 10067450 f i libvcruntimed:undname.obj
 0001:000664f0       ?getString@pcharNode@@UBEPADPAD0@Z 100674f0 f i libvcruntimed:undname.obj
 0001:00066530       ?getStringEncoding@UnDecorator@@CA?AVDName@@PADH@Z 10067530 f   libvcruntimed:undname.obj
 0001:00066680       ?getStringHelper@@YAPADPAD00H@Z 10067680 f i libvcruntimed:undname.obj
 0001:000666d0       ?getSymbolName@UnDecorator@@CA?AVDName@@XZ 100676d0 f i libvcruntimed:undname.obj
 0001:00066780       ?getTemplateArgumentList@UnDecorator@@CA?AVDName@@XZ 10067780 f   libvcruntimed:undname.obj
 0001:00066c60       ?getTemplateConstant@UnDecorator@@CA?AVDName@@XZ 10067c60 f   libvcruntimed:undname.obj
 0001:00067370       ?getTemplateName@UnDecorator@@CA?AVDName@@_N@Z 10068370 f   libvcruntimed:undname.obj
 0001:000675b0       ?getThisType@UnDecorator@@CA?AVDName@@XZ 100685b0 f i libvcruntimed:undname.obj
 0001:00067600       ?getThrowTypes@UnDecorator@@CA?AVDName@@XZ 10068600 f   libvcruntimed:undname.obj
 0001:000676d0       ?getTypeEncoding@UnDecorator@@CAHXZ 100686d0 f i libvcruntimed:undname.obj
 0001:000683a0       ?getVCallThunkType@UnDecorator@@CA?AVDName@@XZ 100693a0 f i libvcruntimed:undname.obj
 0001:00068420       ?getVbTableType@UnDecorator@@CA?AVDName@@ABV2@@Z 10069420 f i libvcruntimed:undname.obj
 0001:00068440       ?getVdispMapType@UnDecorator@@CA?AVDName@@ABV2@@Z 10069440 f i libvcruntimed:undname.obj
 0001:000684d0       ?getVfTableType@UnDecorator@@CA?AVDName@@ABV2@@Z 100694d0 f i libvcruntimed:undname.obj
 0001:00068700       ?getZName@UnDecorator@@CA?AVDName@@_N0@Z 10069700 f   libvcruntimed:undname.obj
 0001:00068a80       ?haveTemplateParameters@UnDecorator@@SAHXZ 10069a80 f i libvcruntimed:undname.obj
 0001:00068aa0       ?isArray@DName@@QBEHXZ     10069aa0 f i libvcruntimed:undname.obj
 0001:00068ac0       ?isComArray@DName@@QBEHXZ  10069ac0 f i libvcruntimed:undname.obj
 0001:00068ae0       ?isEmpty@DName@@QBEHXZ     10069ae0 f i libvcruntimed:undname.obj
 0001:00068b20       ?isFull@Replicator@@QBEHXZ 10069b20 f i libvcruntimed:undname.obj
 0001:00068b60       ?isNoTE@DName@@QBEHXZ      10069b60 f i libvcruntimed:undname.obj
 0001:00068b80       ?isPinPtr@DName@@QBEHXZ    10069b80 f i libvcruntimed:undname.obj
 0001:00068ba0       ?isPtrRef@DName@@QBEHXZ    10069ba0 f i libvcruntimed:undname.obj
 0001:00068bc0       ?isUDC@DName@@QBEHXZ       10069bc0 f i libvcruntimed:undname.obj
 0001:00068c10       ?isUDTThunk@DName@@QBEHXZ  10069c10 f i libvcruntimed:undname.obj
 0001:00068c60       ?isVCallThunk@DName@@QBEHXZ 10069c60 f i libvcruntimed:undname.obj
 0001:00068c80       ?isValid@DName@@QBEHXZ     10069c80 f i libvcruntimed:undname.obj
 0001:00068cc0       ?length@DName@@QBEHXZ      10069cc0 f i libvcruntimed:undname.obj
 0001:00068d10       ?length@DNameStatusNode@@UBEHXZ 10069d10 f i libvcruntimed:undname.obj
 0001:00068d30       ?length@charNode@@UBEHXZ   10069d30 f i libvcruntimed:undname.obj
 0001:00068d50       ?length@pDNameNode@@UBEHXZ 10069d50 f i libvcruntimed:undname.obj
 0001:00068d90       ?length@pairNode@@UBEHXZ   10069d90 f i libvcruntimed:undname.obj
 0001:00068e20       ?length@pcharNode@@UBEHXZ  10069e20 f i libvcruntimed:undname.obj
 0001:00068e40       ?make@DNameStatusNode@@SAPAV1@W4DNameStatus@@@Z 10069e40 f i libvcruntimed:undname.obj
 0001:00068ed0       ?setIsArray@DName@@QAEXXZ  10069ed0 f i libvcruntimed:undname.obj
 0001:00068f00       ?setIsComArray@DName@@QAEXXZ 10069f00 f i libvcruntimed:undname.obj
 0001:00068f30       ?setIsNoTE@DName@@QAEXXZ   10069f30 f i libvcruntimed:undname.obj
 0001:00068f60       ?setIsPinPtr@DName@@QAEXXZ 10069f60 f i libvcruntimed:undname.obj
 0001:00068f90       ?setIsUDC@DName@@QAEXXZ    10069f90 f i libvcruntimed:undname.obj
 0001:00068fd0       ?setIsVCallThunk@DName@@QAEXXZ 10069fd0 f i libvcruntimed:undname.obj
 0001:00069000       ?setPtrRef@DName@@QAEAAV1@XZ 1006a000 f i libvcruntimed:undname.obj
 0001:00069030       ?status@DName@@QBE?AW4DNameStatus@@XZ 1006a030 f i libvcruntimed:undname.obj
 0001:00069150       ___unDName                 1006a150 f   libvcruntimed:undname.obj
 0001:00069250       ___unDNameEx               1006a250 f   libvcruntimed:undname.obj
 0001:00069350       __local_unwind4            1006a350 f   libvcruntimed:_exsup4_.obj
 0001:00069426       __seh_longjmp_unwind4@4    1006a426 f   libvcruntimed:_exsup4_.obj
 0001:0006944e       @_EH4_CallFilterFunc@8     1006a44e f   libvcruntimed:_exsup4_.obj
 0001:00069465       @_EH4_TransferToHandler@8  1006a465 f   libvcruntimed:_exsup4_.obj
 0001:0006947e       @_EH4_GlobalUnwind2@8      1006a47e f   libvcruntimed:_exsup4_.obj
 0001:00069497       @_EH4_LocalUnwind@16       1006a497 f   libvcruntimed:_exsup4_.obj
 0001:00069510       ___except_validate_context_record 1006a510 f   libvcruntimed:jbcxrval.obj
 0001:00069570       ___except_validate_jump_buffer 1006a570 f   libvcruntimed:jbcxrval.obj
 0001:000695d0       ??$?RU__vcrt_ptd@@@__crt_internal_free_policy@@QBEXQBU__vcrt_ptd@@@Z 1006a5d0 f i libvcruntimed:per_thread_data.obj
 0001:00069600       ??0?$__crt_unique_heap_ptr@U__vcrt_ptd@@U__crt_internal_free_policy@@@@QAE@QAU__vcrt_ptd@@@Z 1006a600 f i libvcruntimed:per_thread_data.obj
 0001:00069640       ??1?$__crt_unique_heap_ptr@U__vcrt_ptd@@U__crt_internal_free_policy@@@@QAE@XZ 1006a640 f i libvcruntimed:per_thread_data.obj
 0001:00069680       ??B?$__crt_unique_heap_ptr@U__vcrt_ptd@@U__crt_internal_free_policy@@@@QBE_NXZ 1006a680 f i libvcruntimed:per_thread_data.obj
 0001:000696a0       ?detach@?$__crt_unique_heap_ptr@U__vcrt_ptd@@U__crt_internal_free_policy@@@@QAEPAU__vcrt_ptd@@XZ 1006a6a0 f i libvcruntimed:per_thread_data.obj
 0001:000696d0       ?get@?$__crt_unique_heap_ptr@U__vcrt_ptd@@U__crt_internal_free_policy@@@@QBEPAU__vcrt_ptd@@XZ 1006a6d0 f i libvcruntimed:per_thread_data.obj
 0001:000696f0       ?is_valid@?$__crt_unique_heap_ptr@U__vcrt_ptd@@U__crt_internal_free_policy@@@@QBE_NXZ 1006a6f0 f i libvcruntimed:per_thread_data.obj
 0001:00069730       ?release@?$__crt_unique_heap_ptr@U__vcrt_ptd@@U__crt_internal_free_policy@@@@QAEXXZ 1006a730 f i libvcruntimed:per_thread_data.obj
 0001:00069790       ___vcrt_freefls@4          1006a790 f   libvcruntimed:per_thread_data.obj
 0001:000697c0       ___vcrt_freeptd            1006a7c0 f   libvcruntimed:per_thread_data.obj
 0001:00069830       ___vcrt_getptd             1006a830 f   libvcruntimed:per_thread_data.obj
 0001:00069860       ___vcrt_getptd_noexit      1006a860 f   libvcruntimed:per_thread_data.obj
 0001:00069a20       ___vcrt_initialize_ptd     1006aa20 f   libvcruntimed:per_thread_data.obj
 0001:00069a80       ___vcrt_uninitialize_ptd   1006aa80 f   libvcruntimed:per_thread_data.obj
 0001:00069ac0       ___vcrt_initialize_locks   1006aac0 f   libvcruntimed:locks.obj
 0001:00069b30       ___vcrt_lock               1006ab30 f   libvcruntimed:locks.obj
 0001:00069b50       ___vcrt_uninitialize_locks 1006ab50 f   libvcruntimed:locks.obj
 0001:00069bb0       ___vcrt_unlock             1006abb0 f   libvcruntimed:locks.obj
 0001:00069bd0       ??$?BX@__crt_fast_encoded_nullptr_t@@QBEPAXXZ 1006abd0 f i libvcruntimed:winapi_downlevel.obj
 0001:00069bf0       ??$__crt_fast_decode_pointer@PAX@@YAPAXQAX@Z 1006abf0 f i libvcruntimed:winapi_downlevel.obj
 0001:00069c20       ??$__crt_fast_encode_pointer@PAX@@YAPAXQAX@Z 1006ac20 f i libvcruntimed:winapi_downlevel.obj
 0001:00069c60       ??$__crt_interlocked_compare_exchange_pointer@UHINSTANCE__@@$$T$$T@@YAPAUHINSTANCE__@@PDSAU0@$$T1@Z 1006ac60 f i libvcruntimed:winapi_downlevel.obj
 0001:00069c80       ??$__crt_interlocked_compare_exchange_pointer@X$$T$$T@@YAPAXPDSAX$$T1@Z 1006ac80 f i libvcruntimed:winapi_downlevel.obj
 0001:00069ca0       ??$__crt_interlocked_exchange_pointer@UHINSTANCE__@@PAU1@@@YAPAUHINSTANCE__@@PDSAU0@QAU0@@Z 1006aca0 f i libvcruntimed:winapi_downlevel.obj
 0001:00069cb0       ??$__crt_interlocked_exchange_pointer@UHINSTANCE__@@PAX@@YAPAUHINSTANCE__@@PDSAU0@QAX@Z 1006acb0 f i libvcruntimed:winapi_downlevel.obj
 0001:00069cc0       ??$__crt_interlocked_exchange_pointer@XPAX@@YAPAXPDSAXQAX@Z 1006acc0 f i libvcruntimed:winapi_downlevel.obj
 0001:00069cd0       ??$__crt_interlocked_read_pointer@UHINSTANCE__@@@@YAPAUHINSTANCE__@@PDSAU0@@Z 1006acd0 f i libvcruntimed:winapi_downlevel.obj
 0001:00069cf0       ??$__crt_interlocked_read_pointer@X@@YAPAXPDSAX@Z 1006acf0 f i libvcruntimed:winapi_downlevel.obj
 0001:0006a290       ___vcrt_EventRegister      1006b290 f   libvcruntimed:winapi_downlevel.obj
 0001:0006a2e0       ___vcrt_EventSetInformation 1006b2e0 f   libvcruntimed:winapi_downlevel.obj
 0001:0006a340       ___vcrt_EventUnregister    1006b340 f   libvcruntimed:winapi_downlevel.obj
 0001:0006a390       ___vcrt_EventWriteTransfer 1006b390 f   libvcruntimed:winapi_downlevel.obj
 0001:0006a3f0       ___vcrt_FlsAlloc           1006b3f0 f   libvcruntimed:winapi_downlevel.obj
 0001:0006a440       ___vcrt_FlsFree            1006b440 f   libvcruntimed:winapi_downlevel.obj
 0001:0006a490       ___vcrt_FlsGetValue        1006b490 f   libvcruntimed:winapi_downlevel.obj
 0001:0006a4e0       ___vcrt_FlsSetValue        1006b4e0 f   libvcruntimed:winapi_downlevel.obj
 0001:0006a540       ___vcrt_InitializeCriticalSectionEx 1006b540 f   libvcruntimed:winapi_downlevel.obj
 0001:0006a5a0       ___vcrt_initialize_winapi_thunks 1006b5a0 f   libvcruntimed:winapi_downlevel.obj
 0001:0006a620       ___vcrt_uninitialize_winapi_thunks 1006b620 f   libvcruntimed:winapi_downlevel.obj
 0001:0006a6b0       __global_unwind2           1006b6b0 f   libvcruntimed:_exsup_.obj
 0001:0006a715       __local_unwind2            1006b715 f   libvcruntimed:_exsup_.obj
 0001:0006a799       __abnormal_termination     1006b799 f   libvcruntimed:_exsup_.obj
 0001:0006a7bc       __NLG_Notify1              1006b7bc f   libvcruntimed:_exsup_.obj
 0001:0006a7c5       __NLG_Notify               1006b7c5 f   libvcruntimed:_exsup_.obj
 0001:0006a7dc       __NLG_Dispatch             1006b7dc     libvcruntimed:_exsup_.obj
 0001:0006a7dc       __NLG_Dispatch2            1006b7dc     libvcruntimed:_exsup_.obj
 0001:0006a7e4       __NLG_Call                 1006b7e4 f   libvcruntimed:_exsup_.obj
 0001:0006a7e6       __NLG_Return2              1006b7e6     libvcruntimed:_exsup_.obj
 0001:0006a840       __abs64                    1006b840 f   libucrtd:abs.obj
 0001:0006a8a0       _abs                       1006b8a0 f   libucrtd:abs.obj
 0001:0006a8d0       _fabs                      1006b8d0 f   libucrtd:fabs.obj
 0001:0006a9f0       __chgsign                  1006b9f0 f   libucrtd:ieeemisc.obj
 0001:0006aa30       __chgsignf                 1006ba30 f   libucrtd:ieeemisc.obj
 0001:0006aa80       __copysign                 1006ba80 f   libucrtd:ieeemisc.obj
 0001:0006aac0       __copysignf                1006bac0 f   libucrtd:ieeemisc.obj
 0001:0006ab20       __finite                   1006bb20 f   libucrtd:ieeemisc.obj
 0001:0006ab50       __fpclass                  1006bb50 f   libucrtd:ieeemisc.obj
 0001:0006ac80       __isnan                    1006bc80 f   libucrtd:ieeemisc.obj
 0001:0006ace0       __logb                     1006bce0 f   libucrtd:ieeemisc.obj
 0001:0006ae40       __nextafter                1006be40 f   libucrtd:ieeemisc.obj
 0001:0006ae70       __scalb                    1006be70 f   libucrtd:ieeemisc.obj
 0001:0006aea0       _pow                       1006bea0 f   libucrtd:pow.obj
 0001:0006aee0       __CIpow                    1006bee0 f   libucrtd:pow.obj
 0001:0006af1b       __CIpow_default            1006bf1b f   libucrtd:pow.obj
 0001:0006af34       __pow_default              1006bf34     libucrtd:pow.obj
 0001:0006b1d0       __CIsqrt                   1006c1d0 f   libucrtd:sqrt.obj
 0001:0006b1e4       _sqrt                      1006c1e4     libucrtd:sqrt.obj
 0001:0006b2c0       _cos                       1006c2c0 f   libucrtd:cos.obj
 0001:0006b300       __CIcos                    1006c300 f   libucrtd:cos.obj
 0001:0006b33b       __CIcos_default            1006c33b f   libucrtd:cos.obj
 0001:0006b34f       __cos_default              1006c34f     libucrtd:cos.obj
 0001:0006b430       _sin                       1006c430 f   libucrtd:sin.obj
 0001:0006b470       __CIsin                    1006c470 f   libucrtd:sin.obj
 0001:0006b4ab       __CIsin_default            1006c4ab f   libucrtd:sin.obj
 0001:0006b4bf       __sin_default              1006c4bf     libucrtd:sin.obj
 0001:0006b5a0       _atan2                     1006c5a0 f   libucrtd:87ctriga.obj
 0001:0006b5aa       __CIatan2                  1006c5aa f   libucrtd:87ctriga.obj
 0001:0006b5c0       _floor                     1006c5c0 f   libucrtd:floor_pentium4.obj
 0001:0006b600       __floor_pentium4           1006c600 f   libucrtd:floor_pentium4.obj
 0001:0006b700       ??$?RU?$__crt_report_hook_node@D@@@__crt_internal_free_policy@@QBEXQBU?$__crt_report_hook_node@D@@@Z 1006c700 f i libucrtd:dbgrpt.obj
 0001:0006b730       ??$?RU?$__crt_report_hook_node@_W@@@__crt_internal_free_policy@@QBEXQBU?$__crt_report_hook_node@_W@@@Z 1006c730 f i libucrtd:dbgrpt.obj
 0001:0006b760       ??$?RV<lambda_4385efabcfedf7d3ecea3114bb4d80a3>@@AAV<lambda_0e04737ef8baea6dabca2b8414b05b67>@@V<lambda_d865d276f220a9fa71140df531e906d8>@@@?$__crt_seh_guarded_call@H@@QAEH$$QAV<lambda_4385efabcfedf7d3ecea3114bb4d80a3>@@AAV<lambda_0e04737ef8baea6dabca2b8414b05b67>@@$$QAV<lambda_d865d276f220a9fa71140df531e906d8>@@@Z 1006c760 f i libucrtd:dbgrpt.obj
 0001:0006b810       ??$?RV<lambda_cc3a1c0f52e01ba2b29fe175588291fc>@@AAV<lambda_fe667bea668416e0f0232b481cd5c955>@@V<lambda_bb8fdd70844b93de4445abd0f0332611>@@@?$__crt_seh_guarded_call@H@@QAEH$$QAV<lambda_cc3a1c0f52e01ba2b29fe175588291fc>@@AAV<lambda_fe667bea668416e0f0232b481cd5c955>@@$$QAV<lambda_bb8fdd70844b93de4445abd0f0332611>@@@Z 1006c810 f i libucrtd:dbgrpt.obj
 0001:0006b8c0       ??$__acrt_lock_and_call@V<lambda_0e04737ef8baea6dabca2b8414b05b67>@@@@YAHW4__acrt_lock_id@@$$QAV<lambda_0e04737ef8baea6dabca2b8414b05b67>@@@Z 1006c8c0 f i libucrtd:dbgrpt.obj
 0001:0006b910       ??$__acrt_lock_and_call@V<lambda_fe667bea668416e0f0232b481cd5c955>@@@@YAHW4__acrt_lock_id@@$$QAV<lambda_fe667bea668416e0f0232b481cd5c955>@@@Z 1006c910 f i libucrtd:dbgrpt.obj
 0001:0006b960       ??$__vcrt_va_start_verify_argument_type@QB_W@@YAXXZ 1006c960 f i libucrtd:dbgrpt.obj
 0001:0006c860       ??$get_module_file_name@AAPAUHINSTANCE__@@AAY0BAF@DK@?$__crt_char_traits@D@@SAKAAPAUHINSTANCE__@@AAY0BAF@D$$QAK@Z 1006d860 f i libucrtd:dbgrpt.obj
 0001:0006c890       ??$get_module_file_name@AAPAUHINSTANCE__@@AAY0BAF@_WK@?$__crt_char_traits@_W@@SAKAAPAUHINSTANCE__@@AAY0BAF@_W$$QAK@Z 1006d890 f i libucrtd:dbgrpt.obj
 0001:0006c8c0       ??$tcscpy_s@AAY0BAF@DIPBD@?$__crt_char_traits@D@@SAHAAY0BAF@D$$QAI$$QAPBD@Z 1006d8c0 f i libucrtd:dbgrpt.obj
 0001:0006c8f0       ??$tcscpy_s@AAY0BAF@_WIPB_W@?$__crt_char_traits@_W@@SAHAAY0BAF@_W$$QAI$$QAPB_W@Z 1006d8f0 f i libucrtd:dbgrpt.obj
 0001:0006c920       ??$tcslen@AAY0BAF@D@?$__crt_char_traits@D@@SAIAAY0BAF@D@Z 1006d920 f i libucrtd:dbgrpt.obj
 0001:0006c940       ??$tcslen@AAY0BAF@_W@?$__crt_char_traits@_W@@SAIAAY0BAF@_W@Z 1006d940 f i libucrtd:dbgrpt.obj
 0001:0006c960       ??$tcslen@ABQBD@?$__crt_char_traits@D@@SAIABQBD@Z 1006d960 f i libucrtd:dbgrpt.obj
 0001:0006c980       ??$tcslen@ABQB_W@?$__crt_char_traits@_W@@SAIABQB_W@Z 1006d980 f i libucrtd:dbgrpt.obj
 0001:0006cac0       ??0?$__crt_unique_heap_ptr@U?$__crt_report_hook_node@D@@U__crt_internal_free_policy@@@@QAE@QAU?$__crt_report_hook_node@D@@@Z 1006dac0 f i libucrtd:dbgrpt.obj
 0001:0006cae0       ??0?$__crt_unique_heap_ptr@U?$__crt_report_hook_node@_W@@U__crt_internal_free_policy@@@@QAE@QAU?$__crt_report_hook_node@_W@@@Z 1006dae0 f i libucrtd:dbgrpt.obj
 0001:0006cb00       ??1?$__crt_unique_heap_ptr@U?$__crt_report_hook_node@D@@U__crt_internal_free_policy@@@@QAE@XZ 1006db00 f i libucrtd:dbgrpt.obj
 0001:0006cb20       ??1?$__crt_unique_heap_ptr@U?$__crt_report_hook_node@_W@@U__crt_internal_free_policy@@@@QAE@XZ 1006db20 f i libucrtd:dbgrpt.obj
 0001:0006cb40       ??B?$__crt_unique_heap_ptr@U?$__crt_report_hook_node@D@@U__crt_internal_free_policy@@@@QBE_NXZ 1006db40 f i libucrtd:dbgrpt.obj
 0001:0006cb60       ??B?$__crt_unique_heap_ptr@U?$__crt_report_hook_node@_W@@U__crt_internal_free_policy@@@@QBE_NXZ 1006db60 f i libucrtd:dbgrpt.obj
 0001:0006d200       ?detach@?$__crt_unique_heap_ptr@U?$__crt_report_hook_node@D@@U__crt_internal_free_policy@@@@QAEPAU?$__crt_report_hook_node@D@@XZ 1006e200 f i libucrtd:dbgrpt.obj
 0001:0006d230       ?detach@?$__crt_unique_heap_ptr@U?$__crt_report_hook_node@_W@@U__crt_internal_free_policy@@@@QAEPAU?$__crt_report_hook_node@_W@@XZ 1006e230 f i libucrtd:dbgrpt.obj
 0001:0006d260       ?get@?$__crt_unique_heap_ptr@U?$__crt_report_hook_node@D@@U__crt_internal_free_policy@@@@QBEPAU?$__crt_report_hook_node@D@@XZ 1006e260 f i libucrtd:dbgrpt.obj
 0001:0006d280       ?get@?$__crt_unique_heap_ptr@U?$__crt_report_hook_node@_W@@U__crt_internal_free_policy@@@@QBEPAU?$__crt_report_hook_node@_W@@XZ 1006e280 f i libucrtd:dbgrpt.obj
 0001:0006d300       ?is_valid@?$__crt_unique_heap_ptr@U?$__crt_report_hook_node@D@@U__crt_internal_free_policy@@@@QBE_NXZ 1006e300 f i libucrtd:dbgrpt.obj
 0001:0006d340       ?is_valid@?$__crt_unique_heap_ptr@U?$__crt_report_hook_node@_W@@U__crt_internal_free_policy@@@@QBE_NXZ 1006e340 f i libucrtd:dbgrpt.obj
 0001:0006d380       ?release@?$__crt_unique_heap_ptr@U?$__crt_report_hook_node@D@@U__crt_internal_free_policy@@@@QAEXXZ 1006e380 f i libucrtd:dbgrpt.obj
 0001:0006d3c0       ?release@?$__crt_unique_heap_ptr@U?$__crt_report_hook_node@_W@@U__crt_internal_free_policy@@@@QAEXXZ 1006e3c0 f i libucrtd:dbgrpt.obj
 0001:0006d400       __CrtDbgReport             1006e400 f   libucrtd:dbgrpt.obj
 0001:0006d460       __CrtDbgReportW            1006e460 f   libucrtd:dbgrpt.obj
 0001:0006d4c0       __CrtSetReportHook2        1006e4c0 f   libucrtd:dbgrpt.obj
 0001:0006d4e0       __CrtSetReportHookW2       1006e4e0 f   libucrtd:dbgrpt.obj
 0001:0006d500       ___acrt_MessageWindowA     1006e500 f   libucrtd:dbgrpt.obj
 0001:0006d530       ___acrt_MessageWindowW     1006e530 f   libucrtd:dbgrpt.obj
 0001:0006d560       __invoke_watson_if_error   1006e560 f i libucrtd:dbgrpt.obj
 0001:0006d5a0       __invoke_watson_if_oneof   1006e5a0 f i libucrtd:dbgrpt.obj
 0001:0006d5f0       __snwprintf_s              1006e5f0 f i libucrtd:dbgrpt.obj
 0001:0006d650       __vsnwprintf_s_l           1006e650 f i libucrtd:dbgrpt.obj
 0001:0006d6c0       __errcode                  1006e6c0 f   libucrtd:fpexcept.obj
 0001:0006d750       __except1                  1006e750 f   libucrtd:fpexcept.obj
 0001:0006d890       __except2                  1006e890 f   libucrtd:fpexcept.obj
 0001:0006da40       __handle_exc               1006ea40 f   libucrtd:fpexcept.obj
 0001:0006de20       __handle_qnan2             1006ee20 f   libucrtd:fpexcept.obj
 0001:0006de40       __raise_exc                1006ee40 f   libucrtd:fpexcept.obj
 0001:0006de80       __raise_exc_ex             1006ee80 f   libucrtd:fpexcept.obj
 0001:0006e560       __raise_excf               1006f560 f   libucrtd:fpexcept.obj
 0001:0006e5a0       __set_errno_from_matherr   1006f5a0 f   libucrtd:fpexcept.obj
 0001:0006e5f0       __umatherr                 1006f5f0 f   libucrtd:fpexcept.obj
 0001:0006e6c0       __initterm                 1006f6c0 f   libucrtd:initterm.obj
 0001:0006e730       __initterm_e               1006f730 f   libucrtd:initterm.obj
 0001:0006e7c0       ??$?B$$A6AHI@Z@__crt_fast_encoded_nullptr_t@@QBEP6AHI@ZXZ 1006f7c0 f i libucrtd:new_handler.obj
 0001:0006e7e0       ??$__crt_fast_decode_pointer@P6AHI@Z@@YAP6AHI@ZQ6AHI@Z@Z 1006f7e0 f i libucrtd:new_handler.obj
 0001:0006e820       ??$__crt_fast_encode_pointer@P6AHI@Z@@YAP6AHI@ZQ6AHI@Z@Z 1006f820 f i libucrtd:new_handler.obj
 0001:0006e860       ?_set_new_handler@@YAP6AHI@ZH@Z 1006f860 f   libucrtd:new_handler.obj
 0001:0006e8d0       ?get_current_state_index@__crt_state_management@@YAIXZ 1006f8d0 f i libucrtd:new_handler.obj
 0001:0006e8e0       ?initialize@?$dual_state_global@P6AHI@Z@__crt_state_management@@QAEXQ6AHI@Z@Z 1006f8e0 f i libucrtd:new_handler.obj
 0001:0006e930       ?value@?$dual_state_global@P6AHI@Z@__crt_state_management@@QAEAAP6AHI@ZXZ 1006f930 f i libucrtd:new_handler.obj
 0001:0006e950       ___acrt_initialize_new_handler 1006f950 f   libucrtd:new_handler.obj
 0001:0006e970       __callnewh                 1006f970 f   libucrtd:new_handler.obj
 0001:0006e9e0       __query_new_handler        1006f9e0 f   libucrtd:new_handler.obj
 0001:0006eaa0       __set_new_handler          1006faa0 f   libucrtd:new_handler.obj
 0001:0006eb80       _malloc                    1006fb80 f   libucrtd:malloc.obj
 0001:0006eba0       ??$__crt_interlocked_read@J@@YAJPDJ@Z 1006fba0 f i libucrtd:debug_heap.obj
 0001:0006ebc0       ??0_LocaleUpdate@@QAE@QAU__crt_locale_pointers@@@Z 1006fbc0 f i libucrtd:debug_heap.obj
 0001:0006ece0       ??1_LocaleUpdate@@QAE@XZ   1006fce0 f i libucrtd:debug_heap.obj
 0001:0006ed20       ?GetLocaleT@_LocaleUpdate@@QAEPAU__crt_locale_pointers@@XZ 1006fd20 f i libucrtd:debug_heap.obj
 0001:0006ed40       ?__crt_interlocked_read_32@@YAHPDH@Z 1006fd40 f i libucrtd:debug_heap.obj
 0001:00070c00       __CrtCheckMemory           10071c00 f   libucrtd:debug_heap.obj
 0001:00070df0       __CrtDoForAllClientObjects 10071df0 f   libucrtd:debug_heap.obj
 0001:00070fa0       __CrtDumpMemoryLeaks       10071fa0 f   libucrtd:debug_heap.obj
 0001:00071060       __CrtGetAllocHook          10072060 f   libucrtd:debug_heap.obj
 0001:00071070       __CrtGetDumpClient         10072070 f   libucrtd:debug_heap.obj
 0001:00071080       __CrtIsMemoryBlock         10072080 f   libucrtd:debug_heap.obj
 0001:00071220       __CrtIsValidHeapPointer    10072220 f   libucrtd:debug_heap.obj
 0001:00071260       __CrtIsValidPointer        10072260 f   libucrtd:debug_heap.obj
 0001:00071290       __CrtMemCheckpoint         10072290 f   libucrtd:debug_heap.obj
 0001:00071550       __CrtMemDifference         10072550 f   libucrtd:debug_heap.obj
 0001:00071860       __CrtMemDumpAllObjectsSince 10072860 f   libucrtd:debug_heap.obj
 0001:00071920       __CrtMemDumpStatistics     10072920 f   libucrtd:debug_heap.obj
 0001:00071a90       __CrtReportBlockType       10072a90 f   libucrtd:debug_heap.obj
 0001:00071ad0       __CrtSetAllocHook          10072ad0 f   libucrtd:debug_heap.obj
 0001:00071b00       __CrtSetBreakAlloc         10072b00 f   libucrtd:debug_heap.obj
 0001:00071b30       __CrtSetDbgBlockType       10072b30 f   libucrtd:debug_heap.obj
 0001:00071c40       __CrtSetDbgFlag            10072c40 f   libucrtd:debug_heap.obj
 0001:00071e10       __CrtSetDumpClient         10072e10 f   libucrtd:debug_heap.obj
 0001:00071e40       ___acrt_get_locale_data_prefix 10072e40 f i libucrtd:debug_heap.obj
 0001:00071e60       ___acrt_locale_changed     10072e60 f i libucrtd:debug_heap.obj
 0001:00071ea0       ___p__crtBreakAlloc        10072ea0 f   libucrtd:debug_heap.obj
 0001:00071eb0       ___p__crtDbgFlag           10072eb0 f   libucrtd:debug_heap.obj
 0001:00071ec0       __aligned_free_dbg         10072ec0 f   libucrtd:debug_heap.obj
 0001:00071fa0       __aligned_malloc_dbg       10072fa0 f   libucrtd:debug_heap.obj
 0001:00071fd0       __aligned_msize_dbg        10072fd0 f   libucrtd:debug_heap.obj
 0001:00072140       __aligned_offset_malloc_dbg 10073140 f   libucrtd:debug_heap.obj
 0001:00072390       __aligned_offset_realloc_dbg 10073390 f   libucrtd:debug_heap.obj
 0001:00072760       __aligned_offset_recalloc_dbg 10073760 f   libucrtd:debug_heap.obj
 0001:00072850       __aligned_realloc_dbg      10073850 f   libucrtd:debug_heap.obj
 0001:00072880       __aligned_recalloc_dbg     10073880 f   libucrtd:debug_heap.obj
 0001:000728c0       __calloc_dbg               100738c0 f   libucrtd:debug_heap.obj
 0001:00072950       __chvalidchk_l             10073950 f i libucrtd:debug_heap.obj
 0001:00072980       __expand_dbg               10073980 f   libucrtd:debug_heap.obj
 0001:00072b00       __free_dbg                 10073b00 f   libucrtd:debug_heap.obj
 0001:00072be0       __ischartype_l             10073be0 f i libucrtd:debug_heap.obj
 0001:00072c40       __malloc_dbg               10073c40 f   libucrtd:debug_heap.obj
 0001:00072c70       __msize_dbg                10073c70 f   libucrtd:debug_heap.obj
 0001:00072e60       __realloc_dbg              10073e60 f   libucrtd:debug_heap.obj
 0001:00072f30       __recalloc_dbg             10073f30 f   libucrtd:debug_heap.obj
 0001:00073070       __seh_filter_dll           10074070 f   libucrtd:exception_filter.obj
 0001:000730a0       __seh_filter_exe           100740a0 f   libucrtd:exception_filter.obj
 0001:00073350       ??$?B$$A6GXPAXK0@Z@__crt_fast_encoded_nullptr_t@@QBEP6GXPAXK0@ZXZ 10074350 f i libucrtd:exit.obj
 0001:00073370       ??$__crt_fast_decode_pointer@P6GXPAXK0@Z@@YAP6GXPAXK0@ZQ6GX0K0@Z@Z 10074370 f i libucrtd:exit.obj
 0001:000733b0       ??$__crt_fast_encode_pointer@P6GXPAXK0@Z@@YAP6GXPAXK0@ZQ6GX0K0@Z@Z 100743b0 f i libucrtd:exit.obj
 0001:000733f0       ??$__crt_get_proc_address@P6GXI@Z@@YAP6GXI@ZQAUHINSTANCE__@@QBD@Z 100743f0 f i libucrtd:exit.obj
 0001:00073410       ??0?$__crt_unique_handle_t@U__crt_hmodule_traits@@@@QAE@QAUHINSTANCE__@@@Z 10074410 f i libucrtd:exit.obj
 0001:00073430       ??1?$__crt_unique_handle_t@U__crt_hmodule_traits@@@@QAE@XZ 10074430 f i libucrtd:exit.obj
 0001:00073470       ?close@?$__crt_unique_handle_t@U__crt_hmodule_traits@@@@QAEXXZ 10074470 f i libucrtd:exit.obj
 0001:000734b0       ?close@__crt_hmodule_traits@@SA_NPAUHINSTANCE__@@@Z 100744b0 f i libucrtd:exit.obj
 0001:00073770       ?get@?$__crt_unique_handle_t@U__crt_hmodule_traits@@@@QBEPAUHINSTANCE__@@XZ 10074770 f i libucrtd:exit.obj
 0001:00073790       ?get_address_of@?$__crt_unique_handle_t@U__crt_hmodule_traits@@@@QAEPAPAUHINSTANCE__@@XZ 10074790 f i libucrtd:exit.obj
 0001:000737b0       ?get_invalid_value@__crt_hmodule_traits@@SAPAUHINSTANCE__@@XZ 100747b0 f i libucrtd:exit.obj
 0001:00073990       __Exit                     10074990 f   libucrtd:exit.obj
 0001:000739b0       ___acrt_initialize_thread_local_exit_callback 100749b0 f   libucrtd:exit.obj
 0001:000739d0       __c_exit                   100749d0 f   libucrtd:exit.obj
 0001:000739f0       __cexit                    100749f0 f   libucrtd:exit.obj
 0001:00073a10       __exit                     10074a10 f   libucrtd:exit.obj
 0001:00073a30       __is_c_termination_complete 10074a30 f   libucrtd:exit.obj
 0001:00073a50       __register_thread_local_exe_atexit_callback 10074a50 f   libucrtd:exit.obj
 0001:00073aa0       _exit                      10074aa0 f   libucrtd:exit.obj
 0001:00073ac0       _quick_exit                10074ac0 f   libucrtd:exit.obj
 0001:00073ae0       ??$?RE@__crt_internal_free_policy@@QBEXQBE@Z 10074ae0 f i libucrtd:argv_parsing.obj
 0001:00073b10       ??$?RPAD@__crt_internal_free_policy@@QBEXQBQAD@Z 10074b10 f i libucrtd:argv_parsing.obj
 0001:00073b40       ??$?RPA_W@__crt_internal_free_policy@@QBEXQBQA_W@Z 10074b40 f i libucrtd:argv_parsing.obj
 0001:000741f0       ??$get_module_file_name@$$TAAY0BAF@DH@?$__crt_char_traits@D@@SAK$$QA$$TAAY0BAF@D$$QAH@Z 100751f0 f i libucrtd:argv_parsing.obj
 0001:00074220       ??$get_module_file_name@$$TAAY0BAF@_WH@?$__crt_char_traits@_W@@SAK$$QA$$TAAY0BAF@_W$$QAH@Z 10075220 f i libucrtd:argv_parsing.obj
 0001:00074b10       ??$set_program_name@PAD@?$__crt_char_traits@D@@SAX$$QAPAD@Z 10075b10 f i libucrtd:argv_parsing.obj
 0001:00074b30       ??$set_program_name@PA_W@?$__crt_char_traits@_W@@SAX$$QAPA_W@Z 10075b30 f i libucrtd:argv_parsing.obj
 0001:00074b90       ??0?$__crt_unique_heap_ptr@EU__crt_internal_free_policy@@@@QAE@QAE@Z 10075b90 f i libucrtd:argv_parsing.obj
 0001:00074bb0       ??0?$__crt_unique_heap_ptr@PADU__crt_internal_free_policy@@@@QAE@QAPAD@Z 10075bb0 f i libucrtd:argv_parsing.obj
 0001:00074bd0       ??0?$__crt_unique_heap_ptr@PA_WU__crt_internal_free_policy@@@@QAE@QAPA_W@Z 10075bd0 f i libucrtd:argv_parsing.obj
 0001:00074bf0       ??1?$__crt_unique_heap_ptr@EU__crt_internal_free_policy@@@@QAE@XZ 10075bf0 f i libucrtd:argv_parsing.obj
 0001:00074c10       ??1?$__crt_unique_heap_ptr@PADU__crt_internal_free_policy@@@@QAE@XZ 10075c10 f i libucrtd:argv_parsing.obj
 0001:00074c30       ??1?$__crt_unique_heap_ptr@PA_WU__crt_internal_free_policy@@@@QAE@XZ 10075c30 f i libucrtd:argv_parsing.obj
 0001:00074c50       ??B?$__crt_unique_heap_ptr@EU__crt_internal_free_policy@@@@QBE_NXZ 10075c50 f i libucrtd:argv_parsing.obj
 0001:00074d30       ?detach@?$__crt_unique_heap_ptr@EU__crt_internal_free_policy@@@@QAEPAEXZ 10075d30 f i libucrtd:argv_parsing.obj
 0001:00074d60       ?detach@?$__crt_unique_heap_ptr@PADU__crt_internal_free_policy@@@@QAEPAPADXZ 10075d60 f i libucrtd:argv_parsing.obj
 0001:00074d90       ?detach@?$__crt_unique_heap_ptr@PA_WU__crt_internal_free_policy@@@@QAEPAPA_WXZ 10075d90 f i libucrtd:argv_parsing.obj
 0001:00074e20       ?get@?$__crt_unique_heap_ptr@EU__crt_internal_free_policy@@@@QBEPAEXZ 10075e20 f i libucrtd:argv_parsing.obj
 0001:00074e40       ?get@?$__crt_unique_heap_ptr@PADU__crt_internal_free_policy@@@@QBEPAPADXZ 10075e40 f i libucrtd:argv_parsing.obj
 0001:00074e60       ?get@?$__crt_unique_heap_ptr@PA_WU__crt_internal_free_policy@@@@QBEPAPA_WXZ 10075e60 f i libucrtd:argv_parsing.obj
 0001:00074e80       ?get_address_of@?$__crt_unique_heap_ptr@PADU__crt_internal_free_policy@@@@QAEPAPAPADXZ 10075e80 f i libucrtd:argv_parsing.obj
 0001:00074ea0       ?get_address_of@?$__crt_unique_heap_ptr@PA_WU__crt_internal_free_policy@@@@QAEPAPAPA_WXZ 10075ea0 f i libucrtd:argv_parsing.obj
 0001:00074f00       ?is_valid@?$__crt_unique_heap_ptr@EU__crt_internal_free_policy@@@@QBE_NXZ 10075f00 f i libucrtd:argv_parsing.obj
 0001:00074f40       ?release@?$__crt_unique_heap_ptr@EU__crt_internal_free_policy@@@@QAEXXZ 10075f40 f i libucrtd:argv_parsing.obj
 0001:00074f80       ?release@?$__crt_unique_heap_ptr@PADU__crt_internal_free_policy@@@@QAEXXZ 10075f80 f i libucrtd:argv_parsing.obj
 0001:00074fc0       ?release@?$__crt_unique_heap_ptr@PA_WU__crt_internal_free_policy@@@@QAEXXZ 10075fc0 f i libucrtd:argv_parsing.obj
 0001:00075050       ___acrt_allocate_buffer_for_argv 10076050 f   libucrtd:argv_parsing.obj
 0001:00075140       __configure_narrow_argv    10076140 f   libucrtd:argv_parsing.obj
 0001:00075160       __configure_wide_argv      10076160 f   libucrtd:argv_parsing.obj
 0001:00075180       __set_pgmptr               10076180 f i libucrtd:argv_parsing.obj
 0001:000751a0       __set_wpgmptr              100761a0 f i libucrtd:argv_parsing.obj
 0001:000751b2       ??$?R_W@__crt_internal_free_policy@@QBEXQB_W@Z 100761b2 f i libucrtd:environment_initialization.obj
 0001:0007572d       ??$get_environment_from_os@$$$V@?$__crt_char_traits@D@@SAPADXZ 1007672d f i libucrtd:environment_initialization.obj
 0001:00075732       ??$get_environment_from_os@$$$V@?$__crt_char_traits@_W@@SAPA_WXZ 10076732 f i libucrtd:environment_initialization.obj
 0001:00075899       ??$set_variable_in_environment_nolock@PADH@?$__crt_char_traits@D@@SAH$$QAPAD$$QAH@Z 10076899 f i libucrtd:environment_initialization.obj
 0001:000758b7       ??$set_variable_in_environment_nolock@PA_WH@?$__crt_char_traits@_W@@SAH$$QAPA_W$$QAH@Z 100768b7 f i libucrtd:environment_initialization.obj
 0001:000758d5       ??$tcscpy_s@PADABIAAPAD@?$__crt_char_traits@D@@SAH$$QAPADABIAAPAD@Z 100768d5 f i libucrtd:environment_initialization.obj
 0001:000758fa       ??$tcscpy_s@PA_WABIAAPA_W@?$__crt_char_traits@_W@@SAH$$QAPA_WABIAAPA_W@Z 100768fa f i libucrtd:environment_initialization.obj
 0001:0007591f       ??$tcslen@AAPAD@?$__crt_char_traits@D@@SAIAAPAD@Z 1007691f f i libucrtd:environment_initialization.obj
 0001:0007593d       ??$tcslen@AAPA_W@?$__crt_char_traits@_W@@SAIAAPA_W@Z 1007693d f i libucrtd:environment_initialization.obj
 0001:00075962       ??$uninitialize@A6AXAAPAPAD@Z@?$dual_state_global@PAPAD@__crt_state_management@@QAEXA6AXAAPAPAD@Z@Z 10076962 f i libucrtd:environment_initialization.obj
 0001:000759b2       ??$uninitialize@A6AXAAPAPA_W@Z@?$dual_state_global@PAPA_W@__crt_state_management@@QAEXA6AXAAPAPA_W@Z@Z 100769b2 f i libucrtd:environment_initialization.obj
 0001:00075a44       ??0?$__crt_unique_heap_ptr@_WU__crt_internal_free_policy@@@@QAE@QA_W@Z 10076a44 f i libucrtd:environment_initialization.obj
 0001:00075a58       ??1?$__crt_unique_heap_ptr@_WU__crt_internal_free_policy@@@@QAE@XZ 10076a58 f i libucrtd:environment_initialization.obj
 0001:00075a72       ??B?$__crt_unique_heap_ptr@PADU__crt_internal_free_policy@@@@QBE_NXZ 10076a72 f i libucrtd:environment_initialization.obj
 0001:00075a7c       ??B?$__crt_unique_heap_ptr@PA_WU__crt_internal_free_policy@@@@QBE_NXZ 10076a7c f i libucrtd:environment_initialization.obj
 0001:00075a86       ??B?$__crt_unique_heap_ptr@_WU__crt_internal_free_policy@@@@QBE_NXZ 10076a86 f i libucrtd:environment_initialization.obj
 0001:00075a90       ?__crt_compute_required_transform_buffer_count@@YAIIQBD@Z 10076a90 f i libucrtd:environment_initialization.obj
 0001:00075ab0       ?__crt_compute_required_transform_buffer_count@@YAIIQB_W@Z 10076ab0 f i libucrtd:environment_initialization.obj
 0001:00075ad3       ?__crt_transform_string@@YAIIQBDQA_WI@Z 10076ad3 f i libucrtd:environment_initialization.obj
 0001:00075af7       ?__crt_transform_string@@YAIIQB_WQADI@Z 10076af7 f i libucrtd:environment_initialization.obj
 0001:00075b1f       ?detach@?$__crt_unique_heap_ptr@DU__crt_internal_free_policy@@@@QAEPADXZ 10076b1f f i libucrtd:environment_initialization.obj
 0001:00075b25       ?detach@?$__crt_unique_heap_ptr@_WU__crt_internal_free_policy@@@@QAEPA_WXZ 10076b25 f i libucrtd:environment_initialization.obj
 0001:00075b2b       ?get@?$__crt_unique_heap_ptr@_WU__crt_internal_free_policy@@@@QBEPA_WXZ 10076b2b f i libucrtd:environment_initialization.obj
 0001:00075b52       ?initialize@?$dual_state_global@PAPAD@__crt_state_management@@QAEXQAPAD@Z 10076b52 f i libucrtd:environment_initialization.obj
 0001:00075b8f       ?initialize@?$dual_state_global@PAPA_W@__crt_state_management@@QAEXQAPA_W@Z 10076b8f f i libucrtd:environment_initialization.obj
 0001:00075bcc       ?is_valid@?$__crt_unique_heap_ptr@PADU__crt_internal_free_policy@@@@QBE_NXZ 10076bcc f i libucrtd:environment_initialization.obj
 0001:00075bd6       ?is_valid@?$__crt_unique_heap_ptr@PA_WU__crt_internal_free_policy@@@@QBE_NXZ 10076bd6 f i libucrtd:environment_initialization.obj
 0001:00075be0       ?is_valid@?$__crt_unique_heap_ptr@_WU__crt_internal_free_policy@@@@QBE_NXZ 10076be0 f i libucrtd:environment_initialization.obj
 0001:00075bf0       ?release@?$__crt_unique_heap_ptr@_WU__crt_internal_free_policy@@@@QAEXXZ 10076bf0 f i libucrtd:environment_initialization.obj
 0001:00075c0a       ?value@?$dual_state_global@PAPAD@__crt_state_management@@QAEAAPAPADXZ 10076c0a f i libucrtd:environment_initialization.obj
 0001:00075c0d       ?value@?$dual_state_global@PAPA_W@__crt_state_management@@QAEAAPAPA_WXZ 10076c0d f i libucrtd:environment_initialization.obj
 0001:00075c10       ___dcrt_get_or_create_narrow_environment_nolock 10076c10 f   libucrtd:environment_initialization.obj
 0001:00075c15       ___dcrt_get_or_create_wide_environment_nolock 10076c15 f   libucrtd:environment_initialization.obj
 0001:00075c1a       ___dcrt_uninitialize_environments_nolock 10076c1a f   libucrtd:environment_initialization.obj
 0001:00075c5e       ___p__environ              10076c5e f   libucrtd:environment_initialization.obj
 0001:00075c64       ___p__wenviron             10076c64 f   libucrtd:environment_initialization.obj
 0001:00075c6a       __get_initial_narrow_environment 10076c6a f   libucrtd:environment_initialization.obj
 0001:00075c83       __get_initial_wide_environment 10076c83 f   libucrtd:environment_initialization.obj
 0001:00075c9c       __initialize_narrow_environment 10076c9c f   libucrtd:environment_initialization.obj
 0001:00075ca1       __initialize_wide_environment 10076ca1 f   libucrtd:environment_initialization.obj
 0001:00075cb0       ??$?BP6AXXZ@__crt_fast_encoded_nullptr_t@@QBEPAP6AXXZXZ 10076cb0 f i libucrtd:onexit.obj
 0001:00075cd0       ??$?RP6AXXZ@__crt_internal_free_policy@@QBEXQBQ6AXXZ@Z 10076cd0 f i libucrtd:onexit.obj
 0001:00075d00       ??$?RV<lambda_821a00fc0e15a7fd532972332124005d>@@AAV<lambda_942beefa13ab35ff55f86422493ffd6a>@@V<lambda_3ab53bf64df1f1ff33dbc5b1929ce7a7>@@@?$__crt_seh_guarded_call@H@@QAEH$$QAV<lambda_821a00fc0e15a7fd532972332124005d>@@AAV<lambda_942beefa13ab35ff55f86422493ffd6a>@@$$QAV<lambda_3ab53bf64df1f1ff33dbc5b1929ce7a7>@@@Z 10076d00 f i libucrtd:onexit.obj
 0001:00075db0       ??$?RV<lambda_a12890e7f9ac9927a62bd0bbd5044c78>@@AAV<lambda_e971338317bfa523bb8920b43d823727>@@V<lambda_e618b16d59e79e236350cab8485990d2>@@@?$__crt_seh_guarded_call@H@@QAEH$$QAV<lambda_a12890e7f9ac9927a62bd0bbd5044c78>@@AAV<lambda_e971338317bfa523bb8920b43d823727>@@$$QAV<lambda_e618b16d59e79e236350cab8485990d2>@@@Z 10076db0 f i libucrtd:onexit.obj
 0001:00075e60       ??$__acrt_lock_and_call@V<lambda_942beefa13ab35ff55f86422493ffd6a>@@@@YAHW4__acrt_lock_id@@$$QAV<lambda_942beefa13ab35ff55f86422493ffd6a>@@@Z 10076e60 f i libucrtd:onexit.obj
 0001:00075eb0       ??$__acrt_lock_and_call@V<lambda_e971338317bfa523bb8920b43d823727>@@@@YAHW4__acrt_lock_id@@$$QAV<lambda_e971338317bfa523bb8920b43d823727>@@@Z 10076eb0 f i libucrtd:onexit.obj
 0001:00075f00       ??$__crt_fast_encode_pointer@P6AHXZ@@YAP6AHXZQ6AHXZ@Z 10076f00 f i libucrtd:onexit.obj
 0001:00076050       ??0?$__crt_unique_heap_ptr@P6AXXZU__crt_internal_free_policy@@@@QAE@QAP6AXXZ@Z 10077050 f i libucrtd:onexit.obj
 0001:00076070       ??1?$__crt_unique_heap_ptr@P6AXXZU__crt_internal_free_policy@@@@QAE@XZ 10077070 f i libucrtd:onexit.obj
 0001:000765e0       ?detach@?$__crt_unique_heap_ptr@P6AXXZU__crt_internal_free_policy@@@@QAEPAP6AXXZXZ 100775e0 f i libucrtd:onexit.obj
 0001:00076610       ?release@?$__crt_unique_heap_ptr@P6AXXZU__crt_internal_free_policy@@@@QAEXXZ 10077610 f i libucrtd:onexit.obj
 0001:00076650       __crt_at_quick_exit        10077650 f   libucrtd:onexit.obj
 0001:00076670       __crt_atexit               10077670 f   libucrtd:onexit.obj
 0001:00076690       __execute_onexit_table     10077690 f   libucrtd:onexit.obj
 0001:000766c0       __initialize_onexit_table  100776c0 f   libucrtd:onexit.obj
 0001:00076740       __register_onexit_function 10077740 f   libucrtd:onexit.obj
 0001:000769d0       ?initialize@?$dual_state_global@PAU__crt_locale_data@@@__crt_state_management@@QAEXQAU__crt_locale_data@@@Z 100779d0 f i libucrtd:initialization.obj
 0001:00076a20       ___acrt_initialize         10077a20 f   libucrtd:initialization.obj
 0001:00076a40       ___acrt_thread_attach      10077a40 f   libucrtd:initialization.obj
 0001:00076a60       ___acrt_thread_detach      10077a60 f   libucrtd:initialization.obj
 0001:00076a80       ___acrt_uninitialize       10077a80 f   libucrtd:initialization.obj
 0001:00076aa0       ___acrt_uninitialize_critical 10077aa0 f   libucrtd:initialization.obj
 0001:00076b00       __get_terminate            10077b00 f   libucrtd:terminate.obj
 0001:00076b20       _set_terminate             10077b20 f   libucrtd:terminate.obj
 0001:00076b60       _terminate                 10077b60 f   libucrtd:terminate.obj
 0001:00076c30       ??$?0ABV?$stream_output_adapter@D@__crt_stdio_output@@AB_KABQBDABQAU__crt_locale_pointers@@ABQAD@?$format_validation_base@DV?$stream_output_adapter@D@__crt_stdio_output@@@__crt_stdio_output@@IAE@ABV?$stream_output_adapter@D@1@AB_KABQBDABQAU__crt_locale_pointers@@ABQAD@Z 10077c30 f i libucrtd:output.obj
 0001:00076c70       ??$?0ABV?$stream_output_adapter@D@__crt_stdio_output@@AB_KABQBDABQAU__crt_locale_pointers@@ABQAD@?$positional_parameter_base@DV?$stream_output_adapter@D@__crt_stdio_output@@@__crt_stdio_output@@IAE@ABV?$stream_output_adapter@D@1@AB_KABQBDABQAU__crt_locale_pointers@@ABQAD@Z 10077c70 f i libucrtd:output.obj
 0001:00076d00       ??$?0ABV?$stream_output_adapter@D@__crt_stdio_output@@AB_KABQBDABQAU__crt_locale_pointers@@ABQAD@?$standard_base@DV?$stream_output_adapter@D@__crt_stdio_output@@@__crt_stdio_output@@IAE@ABV?$stream_output_adapter@D@1@AB_KABQBDABQAU__crt_locale_pointers@@ABQAD@Z 10077d00 f i libucrtd:output.obj
 0001:00076d60       ??$?0ABV?$stream_output_adapter@_W@__crt_stdio_output@@AB_KABQB_WABQAU__crt_locale_pointers@@ABQAD@?$format_validation_base@_WV?$stream_output_adapter@_W@__crt_stdio_output@@@__crt_stdio_output@@IAE@ABV?$stream_output_adapter@_W@1@AB_KABQB_WABQAU__crt_locale_pointers@@ABQAD@Z 10077d60 f i libucrtd:output.obj
 0001:00076da0       ??$?0ABV?$stream_output_adapter@_W@__crt_stdio_output@@AB_KABQB_WABQAU__crt_locale_pointers@@ABQAD@?$positional_parameter_base@_WV?$stream_output_adapter@_W@__crt_stdio_output@@@__crt_stdio_output@@IAE@ABV?$stream_output_adapter@_W@1@AB_KABQB_WABQAU__crt_locale_pointers@@ABQAD@Z 10077da0 f i libucrtd:output.obj
 0001:00076e30       ??$?0ABV?$stream_output_adapter@_W@__crt_stdio_output@@AB_KABQB_WABQAU__crt_locale_pointers@@ABQAD@?$standard_base@_WV?$stream_output_adapter@_W@__crt_stdio_output@@@__crt_stdio_output@@IAE@ABV?$stream_output_adapter@_W@1@AB_KABQB_WABQAU__crt_locale_pointers@@ABQAD@Z 10077e30 f i libucrtd:output.obj
 0001:00076e90       ??$?0ABV?$string_output_adapter@D@__crt_stdio_output@@AB_KABQBDABQAU__crt_locale_pointers@@ABQAD@?$format_validation_base@DV?$string_output_adapter@D@__crt_stdio_output@@@__crt_stdio_output@@IAE@ABV?$string_output_adapter@D@1@AB_KABQBDABQAU__crt_locale_pointers@@ABQAD@Z 10077e90 f i libucrtd:output.obj
 0001:00076ed0       ??$?0ABV?$string_output_adapter@D@__crt_stdio_output@@AB_KABQBDABQAU__crt_locale_pointers@@ABQAD@?$positional_parameter_base@DV?$string_output_adapter@D@__crt_stdio_output@@@__crt_stdio_output@@IAE@ABV?$string_output_adapter@D@1@AB_KABQBDABQAU__crt_locale_pointers@@ABQAD@Z 10077ed0 f i libucrtd:output.obj
 0001:00076f60       ??$?0ABV?$string_output_adapter@D@__crt_stdio_output@@AB_KABQBDABQAU__crt_locale_pointers@@ABQAD@?$standard_base@DV?$string_output_adapter@D@__crt_stdio_output@@@__crt_stdio_output@@IAE@ABV?$string_output_adapter@D@1@AB_KABQBDABQAU__crt_locale_pointers@@ABQAD@Z 10077f60 f i libucrtd:output.obj
 0001:00076fc0       ??$?0ABV?$string_output_adapter@_W@__crt_stdio_output@@AB_KABQB_WABQAU__crt_locale_pointers@@ABQAD@?$format_validation_base@_WV?$string_output_adapter@_W@__crt_stdio_output@@@__crt_stdio_output@@IAE@ABV?$string_output_adapter@_W@1@AB_KABQB_WABQAU__crt_locale_pointers@@ABQAD@Z 10077fc0 f i libucrtd:output.obj
 0001:00077000       ??$?0ABV?$string_output_adapter@_W@__crt_stdio_output@@AB_KABQB_WABQAU__crt_locale_pointers@@ABQAD@?$positional_parameter_base@_WV?$string_output_adapter@_W@__crt_stdio_output@@@__crt_stdio_output@@IAE@ABV?$string_output_adapter@_W@1@AB_KABQB_WABQAU__crt_locale_pointers@@ABQAD@Z 10078000 f i libucrtd:output.obj
 0001:00077090       ??$?0ABV?$string_output_adapter@_W@__crt_stdio_output@@AB_KABQB_WABQAU__crt_locale_pointers@@ABQAD@?$standard_base@_WV?$string_output_adapter@_W@__crt_stdio_output@@@__crt_stdio_output@@IAE@ABV?$string_output_adapter@_W@1@AB_KABQB_WABQAU__crt_locale_pointers@@ABQAD@Z 10078090 f i libucrtd:output.obj
 0001:000770f0       ??$?RV<lambda_2293f24e3ce1ad6fe22ccfb9dec07671>@@AAV<lambda_2565fc715a641e539f44ad02d6823606>@@V<lambda_d3217f279b832965d9ca670dc2993570>@@@?$__crt_seh_guarded_call@H@@QAEH$$QAV<lambda_2293f24e3ce1ad6fe22ccfb9dec07671>@@AAV<lambda_2565fc715a641e539f44ad02d6823606>@@$$QAV<lambda_d3217f279b832965d9ca670dc2993570>@@@Z 100780f0 f i libucrtd:output.obj
 0001:000771a0       ??$?RV<lambda_4d4ac866be0fa3c441830420fabdd2cb>@@AAV<lambda_63a10c2dc8dbb9e4dd1890be52af7c93>@@V<lambda_002af9fa0f8fe472b648c51882d4fc32>@@@?$__crt_seh_guarded_call@H@@QAEH$$QAV<lambda_4d4ac866be0fa3c441830420fabdd2cb>@@AAV<lambda_63a10c2dc8dbb9e4dd1890be52af7c93>@@$$QAV<lambda_002af9fa0f8fe472b648c51882d4fc32>@@@Z 100781a0 f i libucrtd:output.obj
 0001:00077250       ??$?RV<lambda_5be909dfbae0a631386585770cd7b676>@@AAV<lambda_e516058a9c289d98c8ca9fea99247804>@@V<lambda_afe2e0cdc5e0ecf6f0d6f5e2f8985e38>@@@?$__crt_seh_guarded_call@H@@QAEH$$QAV<lambda_5be909dfbae0a631386585770cd7b676>@@AAV<lambda_e516058a9c289d98c8ca9fea99247804>@@$$QAV<lambda_afe2e0cdc5e0ecf6f0d6f5e2f8985e38>@@@Z 10078250 f i libucrtd:output.obj
 0001:00077300       ??$?RV<lambda_823d65812123d985753d53e2a8c25d20>@@AAV<lambda_0a97c9e57da7be065955385c79108ff2>@@V<lambda_4d2973f3ad2d226f00468307185dca1b>@@@?$__crt_seh_guarded_call@H@@QAEH$$QAV<lambda_823d65812123d985753d53e2a8c25d20>@@AAV<lambda_0a97c9e57da7be065955385c79108ff2>@@$$QAV<lambda_4d2973f3ad2d226f00468307185dca1b>@@@Z 10078300 f i libucrtd:output.obj
 0001:000773b0       ??$?RV<lambda_ab9923ffb5d694ec0d78876dd103e44f>@@AAV<lambda_481dd5778c961fbcd3b60b650e9b9dc4>@@V<lambda_7923d86c9e3f319b415918ec4b39749c>@@@?$__crt_seh_guarded_call@H@@QAEH$$QAV<lambda_ab9923ffb5d694ec0d78876dd103e44f>@@AAV<lambda_481dd5778c961fbcd3b60b650e9b9dc4>@@$$QAV<lambda_7923d86c9e3f319b415918ec4b39749c>@@@Z 100783b0 f i libucrtd:output.obj
 0001:00077460       ??$?RV<lambda_db08b09ef7aa9d4f8620ce68402612bc>@@AAV<lambda_4f2c1eaeead2a5fc776db5b62ea0fb9b>@@V<lambda_3ae262bc35d4ba6a3825c4f6bcaaf95c>@@@?$__crt_seh_guarded_call@H@@QAEH$$QAV<lambda_db08b09ef7aa9d4f8620ce68402612bc>@@AAV<lambda_4f2c1eaeead2a5fc776db5b62ea0fb9b>@@$$QAV<lambda_3ae262bc35d4ba6a3825c4f6bcaaf95c>@@@Z 10078460 f i libucrtd:output.obj
 0001:00077510       ??$__acrt_lock_stream_and_call@V<lambda_0a97c9e57da7be065955385c79108ff2>@@@@YAHQAU_iobuf@@$$QAV<lambda_0a97c9e57da7be065955385c79108ff2>@@@Z 10078510 f i libucrtd:output.obj
 0001:00077560       ??$__acrt_lock_stream_and_call@V<lambda_2565fc715a641e539f44ad02d6823606>@@@@YAHQAU_iobuf@@$$QAV<lambda_2565fc715a641e539f44ad02d6823606>@@@Z 10078560 f i libucrtd:output.obj
 0001:000775b0       ??$__acrt_lock_stream_and_call@V<lambda_481dd5778c961fbcd3b60b650e9b9dc4>@@@@YAHQAU_iobuf@@$$QAV<lambda_481dd5778c961fbcd3b60b650e9b9dc4>@@@Z 100785b0 f i libucrtd:output.obj
 0001:00077600       ??$__acrt_lock_stream_and_call@V<lambda_4f2c1eaeead2a5fc776db5b62ea0fb9b>@@@@YAHQAU_iobuf@@$$QAV<lambda_4f2c1eaeead2a5fc776db5b62ea0fb9b>@@@Z 10078600 f i libucrtd:output.obj
 0001:00077650       ??$__acrt_lock_stream_and_call@V<lambda_63a10c2dc8dbb9e4dd1890be52af7c93>@@@@YAHQAU_iobuf@@$$QAV<lambda_63a10c2dc8dbb9e4dd1890be52af7c93>@@@Z 10078650 f i libucrtd:output.obj
 0001:000776a0       ??$__acrt_lock_stream_and_call@V<lambda_e516058a9c289d98c8ca9fea99247804>@@@@YAHQAU_iobuf@@$$QAV<lambda_e516058a9c289d98c8ca9fea99247804>@@@Z 100786a0 f i libucrtd:output.obj
 0001:0007af70       ??$count@D@formatting_buffer@__crt_stdio_output@@QBEIXZ 1007bf70 f i libucrtd:output.obj
 0001:0007afc0       ??$data@D@formatting_buffer@__crt_stdio_output@@QAEPADXZ 1007bfc0 f i libucrtd:output.obj
 0001:0007b010       ??$data@_W@formatting_buffer@__crt_stdio_output@@QAEPA_WXZ 1007c010 f i libucrtd:output.obj
 0001:0007b060       ??$ensure_buffer_is_big_enough@D@formatting_buffer@__crt_stdio_output@@QAE_NI@Z 1007c060 f i libucrtd:output.obj
 0001:0007b180       ??$extract_argument_from_va_list@C_J@?$positional_parameter_base@DV?$stream_output_adapter@D@__crt_stdio_output@@@__crt_stdio_output@@IAE_NAA_J@Z 1007c180 f i libucrtd:output.obj
 0001:0007b300       ??$extract_argument_from_va_list@C_J@?$positional_parameter_base@DV?$string_output_adapter@D@__crt_stdio_output@@@__crt_stdio_output@@IAE_NAA_J@Z 1007c300 f i libucrtd:output.obj
 0001:0007b480       ??$extract_argument_from_va_list@C_J@?$positional_parameter_base@_WV?$stream_output_adapter@_W@__crt_stdio_output@@@__crt_stdio_output@@IAE_NAA_J@Z 1007c480 f i libucrtd:output.obj
 0001:0007b600       ??$extract_argument_from_va_list@C_J@?$positional_parameter_base@_WV?$string_output_adapter@_W@__crt_stdio_output@@@__crt_stdio_output@@IAE_NAA_J@Z 1007c600 f i libucrtd:output.obj
 0001:0007b780       ??$extract_argument_from_va_list@C_J@?$standard_base@DV?$stream_output_adapter@D@__crt_stdio_output@@@__crt_stdio_output@@IAE_NAA_J@Z 1007c780 f i libucrtd:output.obj
 0001:0007b7c0       ??$extract_argument_from_va_list@C_J@?$standard_base@DV?$string_output_adapter@D@__crt_stdio_output@@@__crt_stdio_output@@IAE_NAA_J@Z 1007c7c0 f i libucrtd:output.obj
 0001:0007b800       ??$extract_argument_from_va_list@C_J@?$standard_base@_WV?$stream_output_adapter@_W@__crt_stdio_output@@@__crt_stdio_output@@IAE_NAA_J@Z 1007c800 f i libucrtd:output.obj
 0001:0007b840       ??$extract_argument_from_va_list@C_J@?$standard_base@_WV?$string_output_adapter@_W@__crt_stdio_output@@@__crt_stdio_output@@IAE_NAA_J@Z 1007c840 f i libucrtd:output.obj
 0001:0007b880       ??$extract_argument_from_va_list@E_J@?$positional_parameter_base@DV?$stream_output_adapter@D@__crt_stdio_output@@@__crt_stdio_output@@IAE_NAA_J@Z 1007c880 f i libucrtd:output.obj
 0001:0007ba00       ??$extract_argument_from_va_list@E_J@?$positional_parameter_base@DV?$string_output_adapter@D@__crt_stdio_output@@@__crt_stdio_output@@IAE_NAA_J@Z 1007ca00 f i libucrtd:output.obj
 0001:0007bb80       ??$extract_argument_from_va_list@E_J@?$positional_parameter_base@_WV?$stream_output_adapter@_W@__crt_stdio_output@@@__crt_stdio_output@@IAE_NAA_J@Z 1007cb80 f i libucrtd:output.obj
 0001:0007bd00       ??$extract_argument_from_va_list@E_J@?$positional_parameter_base@_WV?$string_output_adapter@_W@__crt_stdio_output@@@__crt_stdio_output@@IAE_NAA_J@Z 1007cd00 f i libucrtd:output.obj
 0001:0007be80       ??$extract_argument_from_va_list@E_J@?$standard_base@DV?$stream_output_adapter@D@__crt_stdio_output@@@__crt_stdio_output@@IAE_NAA_J@Z 1007ce80 f i libucrtd:output.obj
 0001:0007bec0       ??$extract_argument_from_va_list@E_J@?$standard_base@DV?$string_output_adapter@D@__crt_stdio_output@@@__crt_stdio_output@@IAE_NAA_J@Z 1007cec0 f i libucrtd:output.obj
 0001:0007bf00       ??$extract_argument_from_va_list@E_J@?$standard_base@_WV?$stream_output_adapter@_W@__crt_stdio_output@@@__crt_stdio_output@@IAE_NAA_J@Z 1007cf00 f i libucrtd:output.obj
 0001:0007bf40       ??$extract_argument_from_va_list@E_J@?$standard_base@_WV?$string_output_adapter@_W@__crt_stdio_output@@@__crt_stdio_output@@IAE_NAA_J@Z 1007cf40 f i libucrtd:output.obj
 0001:0007bf80       ??$extract_argument_from_va_list@F_J@?$positional_parameter_base@DV?$stream_output_adapter@D@__crt_stdio_output@@@__crt_stdio_output@@IAE_NAA_J@Z 1007cf80 f i libucrtd:output.obj
 0001:0007c100       ??$extract_argument_from_va_list@F_J@?$positional_parameter_base@DV?$string_output_adapter@D@__crt_stdio_output@@@__crt_stdio_output@@IAE_NAA_J@Z 1007d100 f i libucrtd:output.obj
 0001:0007c280       ??$extract_argument_from_va_list@F_J@?$positional_parameter_base@_WV?$stream_output_adapter@_W@__crt_stdio_output@@@__crt_stdio_output@@IAE_NAA_J@Z 1007d280 f i libucrtd:output.obj
 0001:0007c400       ??$extract_argument_from_va_list@F_J@?$positional_parameter_base@_WV?$string_output_adapter@_W@__crt_stdio_output@@@__crt_stdio_output@@IAE_NAA_J@Z 1007d400 f i libucrtd:output.obj
 0001:0007c580       ??$extract_argument_from_va_list@F_J@?$standard_base@DV?$stream_output_adapter@D@__crt_stdio_output@@@__crt_stdio_output@@IAE_NAA_J@Z 1007d580 f i libucrtd:output.obj
 0001:0007c5c0       ??$extract_argument_from_va_list@F_J@?$standard_base@DV?$string_output_adapter@D@__crt_stdio_output@@@__crt_stdio_output@@IAE_NAA_J@Z 1007d5c0 f i libucrtd:output.obj
 0001:0007c600       ??$extract_argument_from_va_list@F_J@?$standard_base@_WV?$stream_output_adapter@_W@__crt_stdio_output@@@__crt_stdio_output@@IAE_NAA_J@Z 1007d600 f i libucrtd:output.obj
 0001:0007c640       ??$extract_argument_from_va_list@F_J@?$standard_base@_WV?$string_output_adapter@_W@__crt_stdio_output@@@__crt_stdio_output@@IAE_NAA_J@Z 1007d640 f i libucrtd:output.obj
 0001:0007c680       ??$extract_argument_from_va_list@GD@?$positional_parameter_base@DV?$stream_output_adapter@D@__crt_stdio_output@@@__crt_stdio_output@@IAE_NAAD@Z 1007d680 f i libucrtd:output.obj
 0001:0007c800       ??$extract_argument_from_va_list@GD@?$positional_parameter_base@DV?$string_output_adapter@D@__crt_stdio_output@@@__crt_stdio_output@@IAE_NAAD@Z 1007d800 f i libucrtd:output.obj
 0001:0007c980       ??$extract_argument_from_va_list@GD@?$standard_base@DV?$stream_output_adapter@D@__crt_stdio_output@@@__crt_stdio_output@@IAE_NAAD@Z 1007d980 f i libucrtd:output.obj
 0001:0007c9b0       ??$extract_argument_from_va_list@GD@?$standard_base@DV?$string_output_adapter@D@__crt_stdio_output@@@__crt_stdio_output@@IAE_NAAD@Z 1007d9b0 f i libucrtd:output.obj
 0001:0007c9e0       ??$extract_argument_from_va_list@G_J@?$positional_parameter_base@DV?$stream_output_adapter@D@__crt_stdio_output@@@__crt_stdio_output@@IAE_NAA_J@Z 1007d9e0 f i libucrtd:output.obj
 0001:0007cb60       ??$extract_argument_from_va_list@G_J@?$positional_parameter_base@DV?$string_output_adapter@D@__crt_stdio_output@@@__crt_stdio_output@@IAE_NAA_J@Z 1007db60 f i libucrtd:output.obj
 0001:0007cce0       ??$extract_argument_from_va_list@G_J@?$positional_parameter_base@_WV?$stream_output_adapter@_W@__crt_stdio_output@@@__crt_stdio_output@@IAE_NAA_J@Z 1007dce0 f i libucrtd:output.obj
 0001:0007ce60       ??$extract_argument_from_va_list@G_J@?$positional_parameter_base@_WV?$string_output_adapter@_W@__crt_stdio_output@@@__crt_stdio_output@@IAE_NAA_J@Z 1007de60 f i libucrtd:output.obj
 0001:0007cfe0       ??$extract_argument_from_va_list@G_J@?$standard_base@DV?$stream_output_adapter@D@__crt_stdio_output@@@__crt_stdio_output@@IAE_NAA_J@Z 1007dfe0 f i libucrtd:output.obj
 0001:0007d020       ??$extract_argument_from_va_list@G_J@?$standard_base@DV?$string_output_adapter@D@__crt_stdio_output@@@__crt_stdio_output@@IAE_NAA_J@Z 1007e020 f i libucrtd:output.obj
 0001:0007d060       ??$extract_argument_from_va_list@G_J@?$standard_base@_WV?$stream_output_adapter@_W@__crt_stdio_output@@@__crt_stdio_output@@IAE_NAA_J@Z 1007e060 f i libucrtd:output.obj
 0001:0007d0a0       ??$extract_argument_from_va_list@G_J@?$standard_base@_WV?$string_output_adapter@_W@__crt_stdio_output@@@__crt_stdio_output@@IAE_NAA_J@Z 1007e0a0 f i libucrtd:output.obj
 0001:0007d0e0       ??$extract_argument_from_va_list@H_J@?$positional_parameter_base@DV?$stream_output_adapter@D@__crt_stdio_output@@@__crt_stdio_output@@IAE_NAA_J@Z 1007e0e0 f i libucrtd:output.obj
 0001:0007d260       ??$extract_argument_from_va_list@H_J@?$positional_parameter_base@DV?$string_output_adapter@D@__crt_stdio_output@@@__crt_stdio_output@@IAE_NAA_J@Z 1007e260 f i libucrtd:output.obj
 0001:0007d3e0       ??$extract_argument_from_va_list@H_J@?$positional_parameter_base@_WV?$stream_output_adapter@_W@__crt_stdio_output@@@__crt_stdio_output@@IAE_NAA_J@Z 1007e3e0 f i libucrtd:output.obj
 0001:0007d560       ??$extract_argument_from_va_list@H_J@?$positional_parameter_base@_WV?$string_output_adapter@_W@__crt_stdio_output@@@__crt_stdio_output@@IAE_NAA_J@Z 1007e560 f i libucrtd:output.obj
 0001:0007d6e0       ??$extract_argument_from_va_list@H_J@?$standard_base@DV?$stream_output_adapter@D@__crt_stdio_output@@@__crt_stdio_output@@IAE_NAA_J@Z 1007e6e0 f i libucrtd:output.obj
 0001:0007d720       ??$extract_argument_from_va_list@H_J@?$standard_base@DV?$string_output_adapter@D@__crt_stdio_output@@@__crt_stdio_output@@IAE_NAA_J@Z 1007e720 f i libucrtd:output.obj
 0001:0007d760       ??$extract_argument_from_va_list@H_J@?$standard_base@_WV?$stream_output_adapter@_W@__crt_stdio_output@@@__crt_stdio_output@@IAE_NAA_J@Z 1007e760 f i libucrtd:output.obj
 0001:0007d7a0       ??$extract_argument_from_va_list@H_J@?$standard_base@_WV?$string_output_adapter@_W@__crt_stdio_output@@@__crt_stdio_output@@IAE_NAA_J@Z 1007e7a0 f i libucrtd:output.obj
 0001:0007d7e0       ??$extract_argument_from_va_list@I_J@?$positional_parameter_base@DV?$stream_output_adapter@D@__crt_stdio_output@@@__crt_stdio_output@@IAE_NAA_J@Z 1007e7e0 f i libucrtd:output.obj
 0001:0007d960       ??$extract_argument_from_va_list@I_J@?$positional_parameter_base@DV?$string_output_adapter@D@__crt_stdio_output@@@__crt_stdio_output@@IAE_NAA_J@Z 1007e960 f i libucrtd:output.obj
 0001:0007dae0       ??$extract_argument_from_va_list@I_J@?$positional_parameter_base@_WV?$stream_output_adapter@_W@__crt_stdio_output@@@__crt_stdio_output@@IAE_NAA_J@Z 1007eae0 f i libucrtd:output.obj
 0001:0007dc60       ??$extract_argument_from_va_list@I_J@?$positional_parameter_base@_WV?$string_output_adapter@_W@__crt_stdio_output@@@__crt_stdio_output@@IAE_NAA_J@Z 1007ec60 f i libucrtd:output.obj
 0001:0007dde0       ??$extract_argument_from_va_list@I_J@?$standard_base@DV?$stream_output_adapter@D@__crt_stdio_output@@@__crt_stdio_output@@IAE_NAA_J@Z 1007ede0 f i libucrtd:output.obj
 0001:0007de20       ??$extract_argument_from_va_list@I_J@?$standard_base@DV?$string_output_adapter@D@__crt_stdio_output@@@__crt_stdio_output@@IAE_NAA_J@Z 1007ee20 f i libucrtd:output.obj
 0001:0007de60       ??$extract_argument_from_va_list@I_J@?$standard_base@_WV?$stream_output_adapter@_W@__crt_stdio_output@@@__crt_stdio_output@@IAE_NAA_J@Z 1007ee60 f i libucrtd:output.obj
 0001:0007dea0       ??$extract_argument_from_va_list@I_J@?$standard_base@_WV?$string_output_adapter@_W@__crt_stdio_output@@@__crt_stdio_output@@IAE_NAA_J@Z 1007eea0 f i libucrtd:output.obj
 0001:0007dee0       ??$extract_argument_from_va_list@PADPAD@?$positional_parameter_base@DV?$stream_output_adapter@D@__crt_stdio_output@@@__crt_stdio_output@@IAE_NAAPAD@Z 1007eee0 f i libucrtd:output.obj
 0001:0007e060       ??$extract_argument_from_va_list@PADPAD@?$positional_parameter_base@DV?$string_output_adapter@D@__crt_stdio_output@@@__crt_stdio_output@@IAE_NAAPAD@Z 1007f060 f i libucrtd:output.obj
 0001:0007e1e0       ??$extract_argument_from_va_list@PADPAD@?$positional_parameter_base@_WV?$stream_output_adapter@_W@__crt_stdio_output@@@__crt_stdio_output@@IAE_NAAPAD@Z 1007f1e0 f i libucrtd:output.obj
 0001:0007e360       ??$extract_argument_from_va_list@PADPAD@?$positional_parameter_base@_WV?$string_output_adapter@_W@__crt_stdio_output@@@__crt_stdio_output@@IAE_NAAPAD@Z 1007f360 f i libucrtd:output.obj
 0001:0007e4e0       ??$extract_argument_from_va_list@PADPAD@?$standard_base@DV?$stream_output_adapter@D@__crt_stdio_output@@@__crt_stdio_output@@IAE_NAAPAD@Z 1007f4e0 f i libucrtd:output.obj
 0001:0007e510       ??$extract_argument_from_va_list@PADPAD@?$standard_base@DV?$string_output_adapter@D@__crt_stdio_output@@@__crt_stdio_output@@IAE_NAAPAD@Z 1007f510 f i libucrtd:output.obj
 0001:0007e540       ??$extract_argument_from_va_list@PADPAD@?$standard_base@_WV?$stream_output_adapter@_W@__crt_stdio_output@@@__crt_stdio_output@@IAE_NAAPAD@Z 1007f540 f i libucrtd:output.obj
 0001:0007e570       ??$extract_argument_from_va_list@PADPAD@?$standard_base@_WV?$string_output_adapter@_W@__crt_stdio_output@@@__crt_stdio_output@@IAE_NAAPAD@Z 1007f570 f i libucrtd:output.obj
 0001:0007e5a0       ??$extract_argument_from_va_list@PAUansi_string@?1??type_case_Z@?$output_processor@DV?$stream_output_adapter@D@__crt_stdio_output@@V?$format_validation_base@DV?$stream_output_adapter@D@__crt_stdio_output@@@2@@__crt_stdio_output@@AAE_NXZ@PAU1?1??234@AAE_NXZ@@?$standard_base@DV?$stream_output_adapter@D@__crt_stdio_output@@@__crt_stdio_output@@IAE_NAAPAUansi_string@?1??type_case_Z@?$output_processor@DV?$stream_output_adapter@D@__crt_stdio_output@@V?$format_validation_base@DV?$stream_output_adapter@D@__crt_stdio_output@@@2@@1@AAE_NXZ@@Z 1007f5a0 f i libucrtd:output.obj
 0001:0007e5d0       ??$extract_argument_from_va_list@PAUansi_string@?1??type_case_Z@?$output_processor@DV?$stream_output_adapter@D@__crt_stdio_output@@V?$positional_parameter_base@DV?$stream_output_adapter@D@__crt_stdio_output@@@2@@__crt_stdio_output@@AAE_NXZ@PAU1?1??234@AAE_NXZ@@?$positional_parameter_base@DV?$stream_output_adapter@D@__crt_stdio_output@@@__crt_stdio_output@@IAE_NAAPAUansi_string@?1??type_case_Z@?$output_processor@DV?$stream_output_adapter@D@__crt_stdio_output@@V?$positional_parameter_base@DV?$stream_output_adapter@D@__crt_stdio_output@@@2@@1@AAE_NXZ@@Z 1007f5d0 f i libucrtd:output.obj
 0001:0007e750       ??$extract_argument_from_va_list@PAUansi_string@?1??type_case_Z@?$output_processor@DV?$stream_output_adapter@D@__crt_stdio_output@@V?$positional_parameter_base@DV?$stream_output_adapter@D@__crt_stdio_output@@@2@@__crt_stdio_output@@AAE_NXZ@PAU1?1??234@AAE_NXZ@@?$standard_base@DV?$stream_output_adapter@D@__crt_stdio_output@@@__crt_stdio_output@@IAE_NAAPAUansi_string@?1??type_case_Z@?$output_processor@DV?$stream_output_adapter@D@__crt_stdio_output@@V?$positional_parameter_base@DV?$stream_output_adapter@D@__crt_stdio_output@@@2@@1@AAE_NXZ@@Z 1007f750 f i libucrtd:output.obj
 0001:0007e780       ??$extract_argument_from_va_list@PAUansi_string@?1??type_case_Z@?$output_processor@DV?$stream_output_adapter@D@__crt_stdio_output@@V?$standard_base@DV?$stream_output_adapter@D@__crt_stdio_output@@@2@@__crt_stdio_output@@AAE_NXZ@PAU1?1??234@AAE_NXZ@@?$standard_base@DV?$stream_output_adapter@D@__crt_stdio_output@@@__crt_stdio_output@@IAE_NAAPAUansi_string@?1??type_case_Z@?$output_processor@DV?$stream_output_adapter@D@__crt_stdio_output@@V?$standard_base@DV?$stream_output_adapter@D@__crt_stdio_output@@@2@@1@AAE_NXZ@@Z 1007f780 f i libucrtd:output.obj
 0001:0007e7b0       ??$extract_argument_from_va_list@PAUansi_string@?1??type_case_Z@?$output_processor@DV?$string_output_adapter@D@__crt_stdio_output@@V?$format_validation_base@DV?$string_output_adapter@D@__crt_stdio_output@@@2@@__crt_stdio_output@@AAE_NXZ@PAU1?1??234@AAE_NXZ@@?$standard_base@DV?$string_output_adapter@D@__crt_stdio_output@@@__crt_stdio_output@@IAE_NAAPAUansi_string@?1??type_case_Z@?$output_processor@DV?$string_output_adapter@D@__crt_stdio_output@@V?$format_validation_base@DV?$string_output_adapter@D@__crt_stdio_output@@@2@@1@AAE_NXZ@@Z 1007f7b0 f i libucrtd:output.obj
 0001:0007e7e0       ??$extract_argument_from_va_list@PAUansi_string@?1??type_case_Z@?$output_processor@DV?$string_output_adapter@D@__crt_stdio_output@@V?$positional_parameter_base@DV?$string_output_adapter@D@__crt_stdio_output@@@2@@__crt_stdio_output@@AAE_NXZ@PAU1?1??234@AAE_NXZ@@?$positional_parameter_base@DV?$string_output_adapter@D@__crt_stdio_output@@@__crt_stdio_output@@IAE_NAAPAUansi_string@?1??type_case_Z@?$output_processor@DV?$string_output_adapter@D@__crt_stdio_output@@V?$positional_parameter_base@DV?$string_output_adapter@D@__crt_stdio_output@@@2@@1@AAE_NXZ@@Z 1007f7e0 f i libucrtd:output.obj
 0001:0007e960       ??$extract_argument_from_va_list@PAUansi_string@?1??type_case_Z@?$output_processor@DV?$string_output_adapter@D@__crt_stdio_output@@V?$positional_parameter_base@DV?$string_output_adapter@D@__crt_stdio_output@@@2@@__crt_stdio_output@@AAE_NXZ@PAU1?1??234@AAE_NXZ@@?$standard_base@DV?$string_output_adapter@D@__crt_stdio_output@@@__crt_stdio_output@@IAE_NAAPAUansi_string@?1??type_case_Z@?$output_processor@DV?$string_output_adapter@D@__crt_stdio_output@@V?$positional_parameter_base@DV?$string_output_adapter@D@__crt_stdio_output@@@2@@1@AAE_NXZ@@Z 1007f960 f i libucrtd:output.obj
 0001:0007e990       ??$extract_argument_from_va_list@PAUansi_string@?1??type_case_Z@?$output_processor@DV?$string_output_adapter@D@__crt_stdio_output@@V?$standard_base@DV?$string_output_adapter@D@__crt_stdio_output@@@2@@__crt_stdio_output@@AAE_NXZ@PAU1?1??234@AAE_NXZ@@?$standard_base@DV?$string_output_adapter@D@__crt_stdio_output@@@__crt_stdio_output@@IAE_NAAPAUansi_string@?1??type_case_Z@?$output_processor@DV?$string_output_adapter@D@__crt_stdio_output@@V?$standard_base@DV?$string_output_adapter@D@__crt_stdio_output@@@2@@1@AAE_NXZ@@Z 1007f990 f i libucrtd:output.obj
 0001:0007e9c0       ??$extract_argument_from_va_list@PAUansi_string@?1??type_case_Z@?$output_processor@_WV?$stream_output_adapter@_W@__crt_stdio_output@@V?$format_validation_base@_WV?$stream_output_adapter@_W@__crt_stdio_output@@@2@@__crt_stdio_output@@AAE_NXZ@PAU1?1??234@AAE_NXZ@@?$standard_base@_WV?$stream_output_adapter@_W@__crt_stdio_output@@@__crt_stdio_output@@IAE_NAAPAUansi_string@?1??type_case_Z@?$output_processor@_WV?$stream_output_adapter@_W@__crt_stdio_output@@V?$format_validation_base@_WV?$stream_output_adapter@_W@__crt_stdio_output@@@2@@1@AAE_NXZ@@Z 1007f9c0 f i libucrtd:output.obj
 0001:0007e9f0       ??$extract_argument_from_va_list@PAUansi_string@?1??type_case_Z@?$output_processor@_WV?$stream_output_adapter@_W@__crt_stdio_output@@V?$positional_parameter_base@_WV?$stream_output_adapter@_W@__crt_stdio_output@@@2@@__crt_stdio_output@@AAE_NXZ@PAU1?1??234@AAE_NXZ@@?$positional_parameter_base@_WV?$stream_output_adapter@_W@__crt_stdio_output@@@__crt_stdio_output@@IAE_NAAPAUansi_string@?1??type_case_Z@?$output_processor@_WV?$stream_output_adapter@_W@__crt_stdio_output@@V?$positional_parameter_base@_WV?$stream_output_adapter@_W@__crt_stdio_output@@@2@@1@AAE_NXZ@@Z 1007f9f0 f i libucrtd:output.obj
 0001:0007eb70       ??$extract_argument_from_va_list@PAUansi_string@?1??type_case_Z@?$output_processor@_WV?$stream_output_adapter@_W@__crt_stdio_output@@V?$positional_parameter_base@_WV?$stream_output_adapter@_W@__crt_stdio_output@@@2@@__crt_stdio_output@@AAE_NXZ@PAU1?1??234@AAE_NXZ@@?$standard_base@_WV?$stream_output_adapter@_W@__crt_stdio_output@@@__crt_stdio_output@@IAE_NAAPAUansi_string@?1??type_case_Z@?$output_processor@_WV?$stream_output_adapter@_W@__crt_stdio_output@@V?$positional_parameter_base@_WV?$stream_output_adapter@_W@__crt_stdio_output@@@2@@1@AAE_NXZ@@Z 1007fb70 f i libucrtd:output.obj
 0001:0007eba0       ??$extract_argument_from_va_list@PAUansi_string@?1??type_case_Z@?$output_processor@_WV?$stream_output_adapter@_W@__crt_stdio_output@@V?$standard_base@_WV?$stream_output_adapter@_W@__crt_stdio_output@@@2@@__crt_stdio_output@@AAE_NXZ@PAU1?1??234@AAE_NXZ@@?$standard_base@_WV?$stream_output_adapter@_W@__crt_stdio_output@@@__crt_stdio_output@@IAE_NAAPAUansi_string@?1??type_case_Z@?$output_processor@_WV?$stream_output_adapter@_W@__crt_stdio_output@@V?$standard_base@_WV?$stream_output_adapter@_W@__crt_stdio_output@@@2@@1@AAE_NXZ@@Z 1007fba0 f i libucrtd:output.obj
 0001:0007ebd0       ??$extract_argument_from_va_list@PAUansi_string@?1??type_case_Z@?$output_processor@_WV?$string_output_adapter@_W@__crt_stdio_output@@V?$format_validation_base@_WV?$string_output_adapter@_W@__crt_stdio_output@@@2@@__crt_stdio_output@@AAE_NXZ@PAU1?1??234@AAE_NXZ@@?$standard_base@_WV?$string_output_adapter@_W@__crt_stdio_output@@@__crt_stdio_output@@IAE_NAAPAUansi_string@?1??type_case_Z@?$output_processor@_WV?$string_output_adapter@_W@__crt_stdio_output@@V?$format_validation_base@_WV?$string_output_adapter@_W@__crt_stdio_output@@@2@@1@AAE_NXZ@@Z 1007fbd0 f i libucrtd:output.obj
 0001:0007ec00       ??$extract_argument_from_va_list@PAUansi_string@?1??type_case_Z@?$output_processor@_WV?$string_output_adapter@_W@__crt_stdio_output@@V?$positional_parameter_base@_WV?$string_output_adapter@_W@__crt_stdio_output@@@2@@__crt_stdio_output@@AAE_NXZ@PAU1?1??234@AAE_NXZ@@?$positional_parameter_base@_WV?$string_output_adapter@_W@__crt_stdio_output@@@__crt_stdio_output@@IAE_NAAPAUansi_string@?1??type_case_Z@?$output_processor@_WV?$string_output_adapter@_W@__crt_stdio_output@@V?$positional_parameter_base@_WV?$string_output_adapter@_W@__crt_stdio_output@@@2@@1@AAE_NXZ@@Z 1007fc00 f i libucrtd:output.obj
 0001:0007ed80       ??$extract_argument_from_va_list@PAUansi_string@?1??type_case_Z@?$output_processor@_WV?$string_output_adapter@_W@__crt_stdio_output@@V?$positional_parameter_base@_WV?$string_output_adapter@_W@__crt_stdio_output@@@2@@__crt_stdio_output@@AAE_NXZ@PAU1?1??234@AAE_NXZ@@?$standard_base@_WV?$string_output_adapter@_W@__crt_stdio_output@@@__crt_stdio_output@@IAE_NAAPAUansi_string@?1??type_case_Z@?$output_processor@_WV?$string_output_adapter@_W@__crt_stdio_output@@V?$positional_parameter_base@_WV?$string_output_adapter@_W@__crt_stdio_output@@@2@@1@AAE_NXZ@@Z 1007fd80 f i libucrtd:output.obj
 0001:0007edb0       ??$extract_argument_from_va_list@PAUansi_string@?1??type_case_Z@?$output_processor@_WV?$string_output_adapter@_W@__crt_stdio_output@@V?$standard_base@_WV?$string_output_adapter@_W@__crt_stdio_output@@@2@@__crt_stdio_output@@AAE_NXZ@PAU1?1??234@AAE_NXZ@@?$standard_base@_WV?$string_output_adapter@_W@__crt_stdio_output@@@__crt_stdio_output@@IAE_NAAPAUansi_string@?1??type_case_Z@?$output_processor@_WV?$string_output_adapter@_W@__crt_stdio_output@@V?$standard_base@_WV?$string_output_adapter@_W@__crt_stdio_output@@@2@@1@AAE_NXZ@@Z 1007fdb0 f i libucrtd:output.obj
 0001:0007ede0       ??$extract_argument_from_va_list@PAXPAX@?$positional_parameter_base@DV?$stream_output_adapter@D@__crt_stdio_output@@@__crt_stdio_output@@IAE_NAAPAX@Z 1007fde0 f i libucrtd:output.obj
 0001:0007ef60       ??$extract_argument_from_va_list@PAXPAX@?$positional_parameter_base@DV?$string_output_adapter@D@__crt_stdio_output@@@__crt_stdio_output@@IAE_NAAPAX@Z 1007ff60 f i libucrtd:output.obj
 0001:0007f0e0       ??$extract_argument_from_va_list@PAXPAX@?$positional_parameter_base@_WV?$stream_output_adapter@_W@__crt_stdio_output@@@__crt_stdio_output@@IAE_NAAPAX@Z 100800e0 f i libucrtd:output.obj
 0001:0007f260       ??$extract_argument_from_va_list@PAXPAX@?$positional_parameter_base@_WV?$string_output_adapter@_W@__crt_stdio_output@@@__crt_stdio_output@@IAE_NAAPAX@Z 10080260 f i libucrtd:output.obj
 0001:0007f3e0       ??$extract_argument_from_va_list@PAXPAX@?$standard_base@DV?$stream_output_adapter@D@__crt_stdio_output@@@__crt_stdio_output@@IAE_NAAPAX@Z 100803e0 f i libucrtd:output.obj
 0001:0007f410       ??$extract_argument_from_va_list@PAXPAX@?$standard_base@DV?$string_output_adapter@D@__crt_stdio_output@@@__crt_stdio_output@@IAE_NAAPAX@Z 10080410 f i libucrtd:output.obj
 0001:0007f440       ??$extract_argument_from_va_list@PAXPAX@?$standard_base@_WV?$stream_output_adapter@_W@__crt_stdio_output@@@__crt_stdio_output@@IAE_NAAPAX@Z 10080440 f i libucrtd:output.obj
 0001:0007f470       ??$extract_argument_from_va_list@PAXPAX@?$standard_base@_WV?$string_output_adapter@_W@__crt_stdio_output@@@__crt_stdio_output@@IAE_NAAPAX@Z 10080470 f i libucrtd:output.obj
 0001:0007f4a0       ??$extract_argument_from_va_list@U_CRT_DOUBLE@@U1@@?$positional_parameter_base@DV?$stream_output_adapter@D@__crt_stdio_output@@@__crt_stdio_output@@IAE_NAAU_CRT_DOUBLE@@@Z 100804a0 f i libucrtd:output.obj
 0001:0007f650       ??$extract_argument_from_va_list@U_CRT_DOUBLE@@U1@@?$positional_parameter_base@DV?$string_output_adapter@D@__crt_stdio_output@@@__crt_stdio_output@@IAE_NAAU_CRT_DOUBLE@@@Z 10080650 f i libucrtd:output.obj
 0001:0007f800       ??$extract_argument_from_va_list@U_CRT_DOUBLE@@U1@@?$positional_parameter_base@_WV?$stream_output_adapter@_W@__crt_stdio_output@@@__crt_stdio_output@@IAE_NAAU_CRT_DOUBLE@@@Z 10080800 f i libucrtd:output.obj
 0001:0007f9b0       ??$extract_argument_from_va_list@U_CRT_DOUBLE@@U1@@?$positional_parameter_base@_WV?$string_output_adapter@_W@__crt_stdio_output@@@__crt_stdio_output@@IAE_NAAU_CRT_DOUBLE@@@Z 100809b0 f i libucrtd:output.obj
 0001:0007fb60       ??$extract_argument_from_va_list@U_CRT_DOUBLE@@U1@@?$standard_base@DV?$stream_output_adapter@D@__crt_stdio_output@@@__crt_stdio_output@@IAE_NAAU_CRT_DOUBLE@@@Z 10080b60 f i libucrtd:output.obj
 0001:0007fbc0       ??$extract_argument_from_va_list@U_CRT_DOUBLE@@U1@@?$standard_base@DV?$string_output_adapter@D@__crt_stdio_output@@@__crt_stdio_output@@IAE_NAAU_CRT_DOUBLE@@@Z 10080bc0 f i libucrtd:output.obj
 0001:0007fc20       ??$extract_argument_from_va_list@U_CRT_DOUBLE@@U1@@?$standard_base@_WV?$stream_output_adapter@_W@__crt_stdio_output@@@__crt_stdio_output@@IAE_NAAU_CRT_DOUBLE@@@Z 10080c20 f i libucrtd:output.obj
 0001:0007fc80       ??$extract_argument_from_va_list@U_CRT_DOUBLE@@U1@@?$standard_base@_WV?$string_output_adapter@_W@__crt_stdio_output@@@__crt_stdio_output@@IAE_NAAU_CRT_DOUBLE@@@Z 10080c80 f i libucrtd:output.obj
 0001:0007fce0       ??$extract_argument_from_va_list@_J_J@?$positional_parameter_base@DV?$stream_output_adapter@D@__crt_stdio_output@@@__crt_stdio_output@@IAE_NAA_J@Z 10080ce0 f i libucrtd:output.obj
 0001:0007fe60       ??$extract_argument_from_va_list@_J_J@?$positional_parameter_base@DV?$string_output_adapter@D@__crt_stdio_output@@@__crt_stdio_output@@IAE_NAA_J@Z 10080e60 f i libucrtd:output.obj
 0001:0007ffe0       ??$extract_argument_from_va_list@_J_J@?$positional_parameter_base@_WV?$stream_output_adapter@_W@__crt_stdio_output@@@__crt_stdio_output@@IAE_NAA_J@Z 10080fe0 f i libucrtd:output.obj
 0001:00080160       ??$extract_argument_from_va_list@_J_J@?$positional_parameter_base@_WV?$string_output_adapter@_W@__crt_stdio_output@@@__crt_stdio_output@@IAE_NAA_J@Z 10081160 f i libucrtd:output.obj
 0001:000802e0       ??$extract_argument_from_va_list@_J_J@?$standard_base@DV?$stream_output_adapter@D@__crt_stdio_output@@@__crt_stdio_output@@IAE_NAA_J@Z 100812e0 f i libucrtd:output.obj
 0001:00080320       ??$extract_argument_from_va_list@_J_J@?$standard_base@DV?$string_output_adapter@D@__crt_stdio_output@@@__crt_stdio_output@@IAE_NAA_J@Z 10081320 f i libucrtd:output.obj
 0001:00080360       ??$extract_argument_from_va_list@_J_J@?$standard_base@_WV?$stream_output_adapter@_W@__crt_stdio_output@@@__crt_stdio_output@@IAE_NAA_J@Z 10081360 f i libucrtd:output.obj
 0001:000803a0       ??$extract_argument_from_va_list@_J_J@?$standard_base@_WV?$string_output_adapter@_W@__crt_stdio_output@@@__crt_stdio_output@@IAE_NAA_J@Z 100813a0 f i libucrtd:output.obj
 0001:000803e0       ??$extract_argument_from_va_list@_K_J@?$positional_parameter_base@DV?$stream_output_adapter@D@__crt_stdio_output@@@__crt_stdio_output@@IAE_NAA_J@Z 100813e0 f i libucrtd:output.obj
 0001:00080560       ??$extract_argument_from_va_list@_K_J@?$positional_parameter_base@DV?$string_output_adapter@D@__crt_stdio_output@@@__crt_stdio_output@@IAE_NAA_J@Z 10081560 f i libucrtd:output.obj
 0001:000806e0       ??$extract_argument_from_va_list@_K_J@?$positional_parameter_base@_WV?$stream_output_adapter@_W@__crt_stdio_output@@@__crt_stdio_output@@IAE_NAA_J@Z 100816e0 f i libucrtd:output.obj
 0001:00080860       ??$extract_argument_from_va_list@_K_J@?$positional_parameter_base@_WV?$string_output_adapter@_W@__crt_stdio_output@@@__crt_stdio_output@@IAE_NAA_J@Z 10081860 f i libucrtd:output.obj
 0001:000809e0       ??$extract_argument_from_va_list@_K_J@?$standard_base@DV?$stream_output_adapter@D@__crt_stdio_output@@@__crt_stdio_output@@IAE_NAA_J@Z 100819e0 f i libucrtd:output.obj
 0001:00080a20       ??$extract_argument_from_va_list@_K_J@?$standard_base@DV?$string_output_adapter@D@__crt_stdio_output@@@__crt_stdio_output@@IAE_NAA_J@Z 10081a20 f i libucrtd:output.obj
 0001:00080a60       ??$extract_argument_from_va_list@_K_J@?$standard_base@_WV?$stream_output_adapter@_W@__crt_stdio_output@@@__crt_stdio_output@@IAE_NAA_J@Z 10081a60 f i libucrtd:output.obj
 0001:00080aa0       ??$extract_argument_from_va_list@_K_J@?$standard_base@_WV?$string_output_adapter@_W@__crt_stdio_output@@@__crt_stdio_output@@IAE_NAA_J@Z 10081aa0 f i libucrtd:output.obj
 0001:00080ae0       ??$extract_argument_from_va_list@_W_W@?$positional_parameter_base@DV?$stream_output_adapter@D@__crt_stdio_output@@@__crt_stdio_output@@IAE_NAA_W@Z 10081ae0 f i libucrtd:output.obj
 0001:00080c60       ??$extract_argument_from_va_list@_W_W@?$positional_parameter_base@DV?$string_output_adapter@D@__crt_stdio_output@@@__crt_stdio_output@@IAE_NAA_W@Z 10081c60 f i libucrtd:output.obj
 0001:00080de0       ??$extract_argument_from_va_list@_W_W@?$positional_parameter_base@_WV?$stream_output_adapter@_W@__crt_stdio_output@@@__crt_stdio_output@@IAE_NAA_W@Z 10081de0 f i libucrtd:output.obj
 0001:00080f60       ??$extract_argument_from_va_list@_W_W@?$positional_parameter_base@_WV?$string_output_adapter@_W@__crt_stdio_output@@@__crt_stdio_output@@IAE_NAA_W@Z 10081f60 f i libucrtd:output.obj
 0001:000810e0       ??$extract_argument_from_va_list@_W_W@?$standard_base@DV?$stream_output_adapter@D@__crt_stdio_output@@@__crt_stdio_output@@IAE_NAA_W@Z 100820e0 f i libucrtd:output.obj
 0001:00081110       ??$extract_argument_from_va_list@_W_W@?$standard_base@DV?$string_output_adapter@D@__crt_stdio_output@@@__crt_stdio_output@@IAE_NAA_W@Z 10082110 f i libucrtd:output.obj
 0001:00081140       ??$extract_argument_from_va_list@_W_W@?$standard_base@_WV?$stream_output_adapter@_W@__crt_stdio_output@@@__crt_stdio_output@@IAE_NAA_W@Z 10082140 f i libucrtd:output.obj
 0001:00081170       ??$extract_argument_from_va_list@_W_W@?$standard_base@_WV?$string_output_adapter@_W@__crt_stdio_output@@@__crt_stdio_output@@IAE_NAA_W@Z 10082170 f i libucrtd:output.obj
 0001:000811a0       ??$get_parameter_type@D@?$positional_parameter_base@DV?$stream_output_adapter@D@__crt_stdio_output@@@__crt_stdio_output@@CA?AW4parameter_type@01@PAD@Z 100821a0 f i libucrtd:output.obj
 0001:000811b0       ??$get_parameter_type@D@?$positional_parameter_base@DV?$string_output_adapter@D@__crt_stdio_output@@@__crt_stdio_output@@CA?AW4parameter_type@01@PAD@Z 100821b0 f i libucrtd:output.obj
 0001:000811c0       ??$get_parameter_type@D@?$positional_parameter_base@_WV?$stream_output_adapter@_W@__crt_stdio_output@@@__crt_stdio_output@@CA?AW4parameter_type@01@PAD@Z 100821c0 f i libucrtd:output.obj
 0001:000811d0       ??$get_parameter_type@D@?$positional_parameter_base@_WV?$string_output_adapter@_W@__crt_stdio_output@@@__crt_stdio_output@@CA?AW4parameter_type@01@PAD@Z 100821d0 f i libucrtd:output.obj
 0001:000811e0       ??$get_parameter_type@Uansi_string@?1??type_case_Z@?$output_processor@DV?$stream_output_adapter@D@__crt_stdio_output@@V?$positional_parameter_base@DV?$stream_output_adapter@D@__crt_stdio_output@@@2@@__crt_stdio_output@@AAE_NXZ@@?$positional_parameter_base@DV?$stream_output_adapter@D@__crt_stdio_output@@@__crt_stdio_output@@CA?AW4parameter_type@01@PAUansi_string@?1??type_case_Z@?$output_processor@DV?$stream_output_adapter@D@__crt_stdio_output@@V?$positional_parameter_base@DV?$stream_output_adapter@D@__crt_stdio_output@@@2@@1@AAE_NXZ@@Z 100821e0 f i libucrtd:output.obj
 0001:000811f0       ??$get_parameter_type@Uansi_string@?1??type_case_Z@?$output_processor@DV?$string_output_adapter@D@__crt_stdio_output@@V?$positional_parameter_base@DV?$string_output_adapter@D@__crt_stdio_output@@@2@@__crt_stdio_output@@AAE_NXZ@@?$positional_parameter_base@DV?$string_output_adapter@D@__crt_stdio_output@@@__crt_stdio_output@@CA?AW4parameter_type@01@PAUansi_string@?1??type_case_Z@?$output_processor@DV?$string_output_adapter@D@__crt_stdio_output@@V?$positional_parameter_base@DV?$string_output_adapter@D@__crt_stdio_output@@@2@@1@AAE_NXZ@@Z 100821f0 f i libucrtd:output.obj
 0001:00081200       ??$get_parameter_type@Uansi_string@?1??type_case_Z@?$output_processor@_WV?$stream_output_adapter@_W@__crt_stdio_output@@V?$positional_parameter_base@_WV?$stream_output_adapter@_W@__crt_stdio_output@@@2@@__crt_stdio_output@@AAE_NXZ@@?$positional_parameter_base@_WV?$stream_output_adapter@_W@__crt_stdio_output@@@__crt_stdio_output@@CA?AW4parameter_type@01@PAUansi_string@?1??type_case_Z@?$output_processor@_WV?$stream_output_adapter@_W@__crt_stdio_output@@V?$positional_parameter_base@_WV?$stream_output_adapter@_W@__crt_stdio_output@@@2@@1@AAE_NXZ@@Z 10082200 f i libucrtd:output.obj
 0001:00081210       ??$get_parameter_type@Uansi_string@?1??type_case_Z@?$output_processor@_WV?$string_output_adapter@_W@__crt_stdio_output@@V?$positional_parameter_base@_WV?$string_output_adapter@_W@__crt_stdio_output@@@2@@__crt_stdio_output@@AAE_NXZ@@?$positional_parameter_base@_WV?$string_output_adapter@_W@__crt_stdio_output@@@__crt_stdio_output@@CA?AW4parameter_type@01@PAUansi_string@?1??type_case_Z@?$output_processor@_WV?$string_output_adapter@_W@__crt_stdio_output@@V?$positional_parameter_base@_WV?$string_output_adapter@_W@__crt_stdio_output@@@2@@1@AAE_NXZ@@Z 10082210 f i libucrtd:output.obj
 0001:00081220       ??$get_parameter_type@X@?$positional_parameter_base@DV?$stream_output_adapter@D@__crt_stdio_output@@@__crt_stdio_output@@CA?AW4parameter_type@01@PAX@Z 10082220 f i libucrtd:output.obj
 0001:00081230       ??$get_parameter_type@X@?$positional_parameter_base@DV?$string_output_adapter@D@__crt_stdio_output@@@__crt_stdio_output@@CA?AW4parameter_type@01@PAX@Z 10082230 f i libucrtd:output.obj
 0001:00081240       ??$get_parameter_type@X@?$positional_parameter_base@_WV?$stream_output_adapter@_W@__crt_stdio_output@@@__crt_stdio_output@@CA?AW4parameter_type@01@PAX@Z 10082240 f i libucrtd:output.obj
 0001:00081250       ??$get_parameter_type@X@?$positional_parameter_base@_WV?$string_output_adapter@_W@__crt_stdio_output@@@__crt_stdio_output@@CA?AW4parameter_type@01@PAX@Z 10082250 f i libucrtd:output.obj
 0001:00081260       ??$is_character_specifier@D@?$positional_parameter_base@DV?$stream_output_adapter@D@__crt_stdio_output@@@__crt_stdio_output@@CA_ND@Z 10082260 f i libucrtd:output.obj
 0001:000812a0       ??$is_character_specifier@D@?$positional_parameter_base@DV?$string_output_adapter@D@__crt_stdio_output@@@__crt_stdio_output@@CA_ND@Z 100822a0 f i libucrtd:output.obj
 0001:000812e0       ??$is_character_specifier@_W@?$positional_parameter_base@_WV?$stream_output_adapter@_W@__crt_stdio_output@@@__crt_stdio_output@@CA_N_W@Z 100822e0 f i libucrtd:output.obj
 0001:00081320       ??$is_character_specifier@_W@?$positional_parameter_base@_WV?$string_output_adapter@_W@__crt_stdio_output@@@__crt_stdio_output@@CA_N_W@Z 10082320 f i libucrtd:output.obj
 0001:00081360       ??$is_integral_specifier@D@?$positional_parameter_base@DV?$stream_output_adapter@D@__crt_stdio_output@@@__crt_stdio_output@@CA_ND@Z 10082360 f i libucrtd:output.obj
 0001:000813e0       ??$is_integral_specifier@D@?$positional_parameter_base@DV?$string_output_adapter@D@__crt_stdio_output@@@__crt_stdio_output@@CA_ND@Z 100823e0 f i libucrtd:output.obj
 0001:00081460       ??$is_integral_specifier@_W@?$positional_parameter_base@_WV?$stream_output_adapter@_W@__crt_stdio_output@@@__crt_stdio_output@@CA_N_W@Z 10082460 f i libucrtd:output.obj
 0001:000814e0       ??$is_integral_specifier@_W@?$positional_parameter_base@_WV?$string_output_adapter@_W@__crt_stdio_output@@@__crt_stdio_output@@CA_N_W@Z 100824e0 f i libucrtd:output.obj
 0001:00081560       ??$is_pointer_specifier@D@?$positional_parameter_base@DV?$stream_output_adapter@D@__crt_stdio_output@@@__crt_stdio_output@@CA_ND@Z 10082560 f i libucrtd:output.obj
 0001:00081590       ??$is_pointer_specifier@D@?$positional_parameter_base@DV?$string_output_adapter@D@__crt_stdio_output@@@__crt_stdio_output@@CA_ND@Z 10082590 f i libucrtd:output.obj
 0001:000815c0       ??$is_pointer_specifier@_W@?$positional_parameter_base@_WV?$stream_output_adapter@_W@__crt_stdio_output@@@__crt_stdio_output@@CA_N_W@Z 100825c0 f i libucrtd:output.obj
 0001:000815f0       ??$is_pointer_specifier@_W@?$positional_parameter_base@_WV?$string_output_adapter@_W@__crt_stdio_output@@@__crt_stdio_output@@CA_N_W@Z 100825f0 f i libucrtd:output.obj
 0001:00081620       ??$is_string_specifier@D@?$positional_parameter_base@DV?$stream_output_adapter@D@__crt_stdio_output@@@__crt_stdio_output@@CA_ND@Z 10082620 f i libucrtd:output.obj
 0001:00081660       ??$is_string_specifier@D@?$positional_parameter_base@DV?$string_output_adapter@D@__crt_stdio_output@@@__crt_stdio_output@@CA_ND@Z 10082660 f i libucrtd:output.obj
 0001:000816a0       ??$is_string_specifier@_W@?$positional_parameter_base@_WV?$stream_output_adapter@_W@__crt_stdio_output@@@__crt_stdio_output@@CA_N_W@Z 100826a0 f i libucrtd:output.obj
 0001:000816e0       ??$is_string_specifier@_W@?$positional_parameter_base@_WV?$string_output_adapter@_W@__crt_stdio_output@@@__crt_stdio_output@@CA_N_W@Z 100826e0 f i libucrtd:output.obj
 0001:00081720       ??$is_wide_character_specifier@D@__crt_stdio_output@@YA_N_KDW4length_modifier@0@@Z 10082720 f i libucrtd:output.obj
 0001:000817c0       ??$is_wide_character_specifier@_W@__crt_stdio_output@@YA_N_K_WW4length_modifier@0@@Z 100827c0 f i libucrtd:output.obj
 0001:000818b0       ??$peek_va_arg@C@__crt_stdio_output@@YACPAD@Z 100828b0 f i libucrtd:output.obj
 0001:000818d0       ??$peek_va_arg@E@__crt_stdio_output@@YAEPAD@Z 100828d0 f i libucrtd:output.obj
 0001:000818f0       ??$peek_va_arg@F@__crt_stdio_output@@YAFPAD@Z 100828f0 f i libucrtd:output.obj
 0001:00081910       ??$peek_va_arg@G@__crt_stdio_output@@YAGPAD@Z 10082910 f i libucrtd:output.obj
 0001:00081930       ??$peek_va_arg@H@__crt_stdio_output@@YAHPAD@Z 10082930 f i libucrtd:output.obj
 0001:00081950       ??$peek_va_arg@I@__crt_stdio_output@@YAIPAD@Z 10082950 f i libucrtd:output.obj
 0001:00081970       ??$peek_va_arg@PAD@__crt_stdio_output@@YAPADPAD@Z 10082970 f i libucrtd:output.obj
 0001:00081990       ??$peek_va_arg@PAUansi_string@?1??type_case_Z@?$output_processor@DV?$stream_output_adapter@D@__crt_stdio_output@@V?$positional_parameter_base@DV?$stream_output_adapter@D@__crt_stdio_output@@@2@@__crt_stdio_output@@AAE_NXZ@@__crt_stdio_output@@YAPAUansi_string@?1??type_case_Z@?$output_processor@DV?$stream_output_adapter@D@__crt_stdio_output@@V?$positional_parameter_base@DV?$stream_output_adapter@D@__crt_stdio_output@@@2@@0@AAE_NXZ@PAD@Z 10082990 f i libucrtd:output.obj
 0001:000819b0       ??$peek_va_arg@PAUansi_string@?1??type_case_Z@?$output_processor@DV?$string_output_adapter@D@__crt_stdio_output@@V?$positional_parameter_base@DV?$string_output_adapter@D@__crt_stdio_output@@@2@@__crt_stdio_output@@AAE_NXZ@@__crt_stdio_output@@YAPAUansi_string@?1??type_case_Z@?$output_processor@DV?$string_output_adapter@D@__crt_stdio_output@@V?$positional_parameter_base@DV?$string_output_adapter@D@__crt_stdio_output@@@2@@0@AAE_NXZ@PAD@Z 100829b0 f i libucrtd:output.obj
 0001:000819d0       ??$peek_va_arg@PAUansi_string@?1??type_case_Z@?$output_processor@_WV?$stream_output_adapter@_W@__crt_stdio_output@@V?$positional_parameter_base@_WV?$stream_output_adapter@_W@__crt_stdio_output@@@2@@__crt_stdio_output@@AAE_NXZ@@__crt_stdio_output@@YAPAUansi_string@?1??type_case_Z@?$output_processor@_WV?$stream_output_adapter@_W@__crt_stdio_output@@V?$positional_parameter_base@_WV?$stream_output_adapter@_W@__crt_stdio_output@@@2@@0@AAE_NXZ@PAD@Z 100829d0 f i libucrtd:output.obj
 0001:000819f0       ??$peek_va_arg@PAUansi_string@?1??type_case_Z@?$output_processor@_WV?$string_output_adapter@_W@__crt_stdio_output@@V?$positional_parameter_base@_WV?$string_output_adapter@_W@__crt_stdio_output@@@2@@__crt_stdio_output@@AAE_NXZ@@__crt_stdio_output@@YAPAUansi_string@?1??type_case_Z@?$output_processor@_WV?$string_output_adapter@_W@__crt_stdio_output@@V?$positional_parameter_base@_WV?$string_output_adapter@_W@__crt_stdio_output@@@2@@0@AAE_NXZ@PAD@Z 100829f0 f i libucrtd:output.obj
 0001:00081a10       ??$peek_va_arg@PAX@__crt_stdio_output@@YAPAXPAD@Z 10082a10 f i libucrtd:output.obj
 0001:00081a30       ??$peek_va_arg@U_CRT_DOUBLE@@@__crt_stdio_output@@YA?AU_CRT_DOUBLE@@PAD@Z 10082a30 f i libucrtd:output.obj
 0001:00081a50       ??$peek_va_arg@_J@__crt_stdio_output@@YA_JPAD@Z 10082a50 f i libucrtd:output.obj
 0001:00081a70       ??$peek_va_arg@_K@__crt_stdio_output@@YA_KPAD@Z 10082a70 f i libucrtd:output.obj
 0001:00081a90       ??$peek_va_arg@_W@__crt_stdio_output@@YA_WPAD@Z 10082a90 f i libucrtd:output.obj
 0001:00081ab0       ??$puttc_nolock@ABDPAU_iobuf@@@?$__crt_char_traits@D@@SAHABD$$QAPAU_iobuf@@@Z 10082ab0 f i libucrtd:output.obj
 0001:00081ae0       ??$puttc_nolock@AB_WPAU_iobuf@@@?$__crt_char_traits@_W@@SAGAB_W$$QAPAU_iobuf@@@Z 10082ae0 f i libucrtd:output.obj
 0001:00081b10       ??$read_va_arg@C@__crt_stdio_output@@YACAAPAD@Z 10082b10 f i libucrtd:output.obj
 0001:00081b40       ??$read_va_arg@E@__crt_stdio_output@@YAEAAPAD@Z 10082b40 f i libucrtd:output.obj
 0001:00081b70       ??$read_va_arg@F@__crt_stdio_output@@YAFAAPAD@Z 10082b70 f i libucrtd:output.obj
 0001:00081ba0       ??$read_va_arg@G@__crt_stdio_output@@YAGAAPAD@Z 10082ba0 f i libucrtd:output.obj
 0001:00081bd0       ??$read_va_arg@H@__crt_stdio_output@@YAHAAPAD@Z 10082bd0 f i libucrtd:output.obj
 0001:00081c00       ??$read_va_arg@I@__crt_stdio_output@@YAIAAPAD@Z 10082c00 f i libucrtd:output.obj
 0001:00081c30       ??$read_va_arg@PAD@__crt_stdio_output@@YAPADAAPAD@Z 10082c30 f i libucrtd:output.obj
 0001:00081c60       ??$read_va_arg@PAUansi_string@?1??type_case_Z@?$output_processor@DV?$stream_output_adapter@D@__crt_stdio_output@@V?$format_validation_base@DV?$stream_output_adapter@D@__crt_stdio_output@@@2@@__crt_stdio_output@@AAE_NXZ@@__crt_stdio_output@@YAPAUansi_string@?1??type_case_Z@?$output_processor@DV?$stream_output_adapter@D@__crt_stdio_output@@V?$format_validation_base@DV?$stream_output_adapter@D@__crt_stdio_output@@@2@@0@AAE_NXZ@AAPAD@Z 10082c60 f i libucrtd:output.obj
 0001:00081c90       ??$read_va_arg@PAUansi_string@?1??type_case_Z@?$output_processor@DV?$stream_output_adapter@D@__crt_stdio_output@@V?$positional_parameter_base@DV?$stream_output_adapter@D@__crt_stdio_output@@@2@@__crt_stdio_output@@AAE_NXZ@@__crt_stdio_output@@YAPAUansi_string@?1??type_case_Z@?$output_processor@DV?$stream_output_adapter@D@__crt_stdio_output@@V?$positional_parameter_base@DV?$stream_output_adapter@D@__crt_stdio_output@@@2@@0@AAE_NXZ@AAPAD@Z 10082c90 f i libucrtd:output.obj
 0001:00081cc0       ??$read_va_arg@PAUansi_string@?1??type_case_Z@?$output_processor@DV?$stream_output_adapter@D@__crt_stdio_output@@V?$standard_base@DV?$stream_output_adapter@D@__crt_stdio_output@@@2@@__crt_stdio_output@@AAE_NXZ@@__crt_stdio_output@@YAPAUansi_string@?1??type_case_Z@?$output_processor@DV?$stream_output_adapter@D@__crt_stdio_output@@V?$standard_base@DV?$stream_output_adapter@D@__crt_stdio_output@@@2@@0@AAE_NXZ@AAPAD@Z 10082cc0 f i libucrtd:output.obj
 0001:00081cf0       ??$read_va_arg@PAUansi_string@?1??type_case_Z@?$output_processor@DV?$string_output_adapter@D@__crt_stdio_output@@V?$format_validation_base@DV?$string_output_adapter@D@__crt_stdio_output@@@2@@__crt_stdio_output@@AAE_NXZ@@__crt_stdio_output@@YAPAUansi_string@?1??type_case_Z@?$output_processor@DV?$string_output_adapter@D@__crt_stdio_output@@V?$format_validation_base@DV?$string_output_adapter@D@__crt_stdio_output@@@2@@0@AAE_NXZ@AAPAD@Z 10082cf0 f i libucrtd:output.obj
 0001:00081d20       ??$read_va_arg@PAUansi_string@?1??type_case_Z@?$output_processor@DV?$string_output_adapter@D@__crt_stdio_output@@V?$positional_parameter_base@DV?$string_output_adapter@D@__crt_stdio_output@@@2@@__crt_stdio_output@@AAE_NXZ@@__crt_stdio_output@@YAPAUansi_string@?1??type_case_Z@?$output_processor@DV?$string_output_adapter@D@__crt_stdio_output@@V?$positional_parameter_base@DV?$string_output_adapter@D@__crt_stdio_output@@@2@@0@AAE_NXZ@AAPAD@Z 10082d20 f i libucrtd:output.obj
 0001:00081d50       ??$read_va_arg@PAUansi_string@?1??type_case_Z@?$output_processor@DV?$string_output_adapter@D@__crt_stdio_output@@V?$standard_base@DV?$string_output_adapter@D@__crt_stdio_output@@@2@@__crt_stdio_output@@AAE_NXZ@@__crt_stdio_output@@YAPAUansi_string@?1??type_case_Z@?$output_processor@DV?$string_output_adapter@D@__crt_stdio_output@@V?$standard_base@DV?$string_output_adapter@D@__crt_stdio_output@@@2@@0@AAE_NXZ@AAPAD@Z 10082d50 f i libucrtd:output.obj
 0001:00081d80       ??$read_va_arg@PAUansi_string@?1??type_case_Z@?$output_processor@_WV?$stream_output_adapter@_W@__crt_stdio_output@@V?$format_validation_base@_WV?$stream_output_adapter@_W@__crt_stdio_output@@@2@@__crt_stdio_output@@AAE_NXZ@@__crt_stdio_output@@YAPAUansi_string@?1??type_case_Z@?$output_processor@_WV?$stream_output_adapter@_W@__crt_stdio_output@@V?$format_validation_base@_WV?$stream_output_adapter@_W@__crt_stdio_output@@@2@@0@AAE_NXZ@AAPAD@Z 10082d80 f i libucrtd:output.obj
 0001:00081db0       ??$read_va_arg@PAUansi_string@?1??type_case_Z@?$output_processor@_WV?$stream_output_adapter@_W@__crt_stdio_output@@V?$positional_parameter_base@_WV?$stream_output_adapter@_W@__crt_stdio_output@@@2@@__crt_stdio_output@@AAE_NXZ@@__crt_stdio_output@@YAPAUansi_string@?1??type_case_Z@?$output_processor@_WV?$stream_output_adapter@_W@__crt_stdio_output@@V?$positional_parameter_base@_WV?$stream_output_adapter@_W@__crt_stdio_output@@@2@@0@AAE_NXZ@AAPAD@Z 10082db0 f i libucrtd:output.obj
 0001:00081de0       ??$read_va_arg@PAUansi_string@?1??type_case_Z@?$output_processor@_WV?$stream_output_adapter@_W@__crt_stdio_output@@V?$standard_base@_WV?$stream_output_adapter@_W@__crt_stdio_output@@@2@@__crt_stdio_output@@AAE_NXZ@@__crt_stdio_output@@YAPAUansi_string@?1??type_case_Z@?$output_processor@_WV?$stream_output_adapter@_W@__crt_stdio_output@@V?$standard_base@_WV?$stream_output_adapter@_W@__crt_stdio_output@@@2@@0@AAE_NXZ@AAPAD@Z 10082de0 f i libucrtd:output.obj
 0001:00081e10       ??$read_va_arg@PAUansi_string@?1??type_case_Z@?$output_processor@_WV?$string_output_adapter@_W@__crt_stdio_output@@V?$format_validation_base@_WV?$string_output_adapter@_W@__crt_stdio_output@@@2@@__crt_stdio_output@@AAE_NXZ@@__crt_stdio_output@@YAPAUansi_string@?1??type_case_Z@?$output_processor@_WV?$string_output_adapter@_W@__crt_stdio_output@@V?$format_validation_base@_WV?$string_output_adapter@_W@__crt_stdio_output@@@2@@0@AAE_NXZ@AAPAD@Z 10082e10 f i libucrtd:output.obj
 0001:00081e40       ??$read_va_arg@PAUansi_string@?1??type_case_Z@?$output_processor@_WV?$string_output_adapter@_W@__crt_stdio_output@@V?$positional_parameter_base@_WV?$string_output_adapter@_W@__crt_stdio_output@@@2@@__crt_stdio_output@@AAE_NXZ@@__crt_stdio_output@@YAPAUansi_string@?1??type_case_Z@?$output_processor@_WV?$string_output_adapter@_W@__crt_stdio_output@@V?$positional_parameter_base@_WV?$string_output_adapter@_W@__crt_stdio_output@@@2@@0@AAE_NXZ@AAPAD@Z 10082e40 f i libucrtd:output.obj
 0001:00081e70       ??$read_va_arg@PAUansi_string@?1??type_case_Z@?$output_processor@_WV?$string_output_adapter@_W@__crt_stdio_output@@V?$standard_base@_WV?$string_output_adapter@_W@__crt_stdio_output@@@2@@__crt_stdio_output@@AAE_NXZ@@__crt_stdio_output@@YAPAUansi_string@?1??type_case_Z@?$output_processor@_WV?$string_output_adapter@_W@__crt_stdio_output@@V?$standard_base@_WV?$string_output_adapter@_W@__crt_stdio_output@@@2@@0@AAE_NXZ@AAPAD@Z 10082e70 f i libucrtd:output.obj
 0001:00081ea0       ??$read_va_arg@PAX@__crt_stdio_output@@YAPAXAAPAD@Z 10082ea0 f i libucrtd:output.obj
 0001:00081ed0       ??$read_va_arg@U_CRT_DOUBLE@@@__crt_stdio_output@@YA?AU_CRT_DOUBLE@@AAPAD@Z 10082ed0 f i libucrtd:output.obj
 0001:00081f00       ??$read_va_arg@_J@__crt_stdio_output@@YA_JAAPAD@Z 10082f00 f i libucrtd:output.obj
 0001:00081f30       ??$read_va_arg@_K@__crt_stdio_output@@YA_KAAPAD@Z 10082f30 f i libucrtd:output.obj
 0001:00081f60       ??$read_va_arg@_W@__crt_stdio_output@@YA_WAAPAD@Z 10082f60 f i libucrtd:output.obj
 0001:00081f90       ??$scratch_count@D@formatting_buffer@__crt_stdio_output@@QBEIXZ 10082f90 f i libucrtd:output.obj
 0001:00081fb0       ??$scratch_data@D@formatting_buffer@__crt_stdio_output@@QAEPADXZ 10082fb0 f i libucrtd:output.obj
 0001:00082010       ??$tcstol@AAPBDPAPADH@?$__crt_char_traits@D@@SAJAAPBD$$QAPAPAD$$QAH@Z 10083010 f i libucrtd:output.obj
 0001:00082040       ??$tcstol@AAPB_WPAPA_WH@?$__crt_char_traits@_W@@SAJAAPB_W$$QAPAPA_W$$QAH@Z 10083040 f i libucrtd:output.obj
 0001:00082070       ??$tcstol@PBDPAPADH@?$__crt_char_traits@D@@SAJ$$QAPBD$$QAPAPAD$$QAH@Z 10083070 f i libucrtd:output.obj
 0001:000820a0       ??$tcstol@PB_WPAPA_WH@?$__crt_char_traits@_W@@SAJ$$QAPB_W$$QAPAPA_W$$QAH@Z 100830a0 f i libucrtd:output.obj
 0001:000820d0       ??$type_case_integer_parse_into_buffer@I@?$output_processor@DV?$stream_output_adapter@D@__crt_stdio_output@@V?$format_validation_base@DV?$stream_output_adapter@D@__crt_stdio_output@@@2@@__crt_stdio_output@@AAEXII_N@Z 100830d0 f i libucrtd:output.obj
 0001:000821d0       ??$type_case_integer_parse_into_buffer@I@?$output_processor@DV?$stream_output_adapter@D@__crt_stdio_output@@V?$positional_parameter_base@DV?$stream_output_adapter@D@__crt_stdio_output@@@2@@__crt_stdio_output@@AAEXII_N@Z 100831d0 f i libucrtd:output.obj
 0001:000822d0       ??$type_case_integer_parse_into_buffer@I@?$output_processor@DV?$stream_output_adapter@D@__crt_stdio_output@@V?$standard_base@DV?$stream_output_adapter@D@__crt_stdio_output@@@2@@__crt_stdio_output@@AAEXII_N@Z 100832d0 f i libucrtd:output.obj
 0001:000823d0       ??$type_case_integer_parse_into_buffer@I@?$output_processor@DV?$string_output_adapter@D@__crt_stdio_output@@V?$format_validation_base@DV?$string_output_adapter@D@__crt_stdio_output@@@2@@__crt_stdio_output@@AAEXII_N@Z 100833d0 f i libucrtd:output.obj
 0001:000824d0       ??$type_case_integer_parse_into_buffer@I@?$output_processor@DV?$string_output_adapter@D@__crt_stdio_output@@V?$positional_parameter_base@DV?$string_output_adapter@D@__crt_stdio_output@@@2@@__crt_stdio_output@@AAEXII_N@Z 100834d0 f i libucrtd:output.obj
 0001:000825d0       ??$type_case_integer_parse_into_buffer@I@?$output_processor@DV?$string_output_adapter@D@__crt_stdio_output@@V?$standard_base@DV?$string_output_adapter@D@__crt_stdio_output@@@2@@__crt_stdio_output@@AAEXII_N@Z 100835d0 f i libucrtd:output.obj
 0001:000826d0       ??$type_case_integer_parse_into_buffer@I@?$output_processor@_WV?$stream_output_adapter@_W@__crt_stdio_output@@V?$format_validation_base@_WV?$stream_output_adapter@_W@__crt_stdio_output@@@2@@__crt_stdio_output@@AAEXII_N@Z 100836d0 f i libucrtd:output.obj
 0001:000827e0       ??$type_case_integer_parse_into_buffer@I@?$output_processor@_WV?$stream_output_adapter@_W@__crt_stdio_output@@V?$positional_parameter_base@_WV?$stream_output_adapter@_W@__crt_stdio_output@@@2@@__crt_stdio_output@@AAEXII_N@Z 100837e0 f i libucrtd:output.obj
 0001:000828f0       ??$type_case_integer_parse_into_buffer@I@?$output_processor@_WV?$stream_output_adapter@_W@__crt_stdio_output@@V?$standard_base@_WV?$stream_output_adapter@_W@__crt_stdio_output@@@2@@__crt_stdio_output@@AAEXII_N@Z 100838f0 f i libucrtd:output.obj
 0001:00082a00       ??$type_case_integer_parse_into_buffer@I@?$output_processor@_WV?$string_output_adapter@_W@__crt_stdio_output@@V?$format_validation_base@_WV?$string_output_adapter@_W@__crt_stdio_output@@@2@@__crt_stdio_output@@AAEXII_N@Z 10083a00 f i libucrtd:output.obj
 0001:00082b10       ??$type_case_integer_parse_into_buffer@I@?$output_processor@_WV?$string_output_adapter@_W@__crt_stdio_output@@V?$positional_parameter_base@_WV?$string_output_adapter@_W@__crt_stdio_output@@@2@@__crt_stdio_output@@AAEXII_N@Z 10083b10 f i libucrtd:output.obj
 0001:00082c20       ??$type_case_integer_parse_into_buffer@I@?$output_processor@_WV?$string_output_adapter@_W@__crt_stdio_output@@V?$standard_base@_WV?$string_output_adapter@_W@__crt_stdio_output@@@2@@__crt_stdio_output@@AAEXII_N@Z 10083c20 f i libucrtd:output.obj
 0001:00082d30       ??$type_case_integer_parse_into_buffer@_K@?$output_processor@DV?$stream_output_adapter@D@__crt_stdio_output@@V?$format_validation_base@DV?$stream_output_adapter@D@__crt_stdio_output@@@2@@__crt_stdio_output@@AAEX_KI_N@Z 10083d30 f i libucrtd:output.obj
 0001:00082e60       ??$type_case_integer_parse_into_buffer@_K@?$output_processor@DV?$stream_output_adapter@D@__crt_stdio_output@@V?$positional_parameter_base@DV?$stream_output_adapter@D@__crt_stdio_output@@@2@@__crt_stdio_output@@AAEX_KI_N@Z 10083e60 f i libucrtd:output.obj
 0001:00082f90       ??$type_case_integer_parse_into_buffer@_K@?$output_processor@DV?$stream_output_adapter@D@__crt_stdio_output@@V?$standard_base@DV?$stream_output_adapter@D@__crt_stdio_output@@@2@@__crt_stdio_output@@AAEX_KI_N@Z 10083f90 f i libucrtd:output.obj
 0001:000830c0       ??$type_case_integer_parse_into_buffer@_K@?$output_processor@DV?$string_output_adapter@D@__crt_stdio_output@@V?$format_validation_base@DV?$string_output_adapter@D@__crt_stdio_output@@@2@@__crt_stdio_output@@AAEX_KI_N@Z 100840c0 f i libucrtd:output.obj
 0001:000831f0       ??$type_case_integer_parse_into_buffer@_K@?$output_processor@DV?$string_output_adapter@D@__crt_stdio_output@@V?$positional_parameter_base@DV?$string_output_adapter@D@__crt_stdio_output@@@2@@__crt_stdio_output@@AAEX_KI_N@Z 100841f0 f i libucrtd:output.obj
 0001:00083320       ??$type_case_integer_parse_into_buffer@_K@?$output_processor@DV?$string_output_adapter@D@__crt_stdio_output@@V?$standard_base@DV?$string_output_adapter@D@__crt_stdio_output@@@2@@__crt_stdio_output@@AAEX_KI_N@Z 10084320 f i libucrtd:output.obj
 0001:00083450       ??$type_case_integer_parse_into_buffer@_K@?$output_processor@_WV?$stream_output_adapter@_W@__crt_stdio_output@@V?$format_validation_base@_WV?$stream_output_adapter@_W@__crt_stdio_output@@@2@@__crt_stdio_output@@AAEX_KI_N@Z 10084450 f i libucrtd:output.obj
 0001:00083590       ??$type_case_integer_parse_into_buffer@_K@?$output_processor@_WV?$stream_output_adapter@_W@__crt_stdio_output@@V?$positional_parameter_base@_WV?$stream_output_adapter@_W@__crt_stdio_output@@@2@@__crt_stdio_output@@AAEX_KI_N@Z 10084590 f i libucrtd:output.obj
 0001:000836d0       ??$type_case_integer_parse_into_buffer@_K@?$output_processor@_WV?$stream_output_adapter@_W@__crt_stdio_output@@V?$standard_base@_WV?$stream_output_adapter@_W@__crt_stdio_output@@@2@@__crt_stdio_output@@AAEX_KI_N@Z 100846d0 f i libucrtd:output.obj
 0001:00083810       ??$type_case_integer_parse_into_buffer@_K@?$output_processor@_WV?$string_output_adapter@_W@__crt_stdio_output@@V?$format_validation_base@_WV?$string_output_adapter@_W@__crt_stdio_output@@@2@@__crt_stdio_output@@AAEX_KI_N@Z 10084810 f i libucrtd:output.obj
 0001:00083950       ??$type_case_integer_parse_into_buffer@_K@?$output_processor@_WV?$string_output_adapter@_W@__crt_stdio_output@@V?$positional_parameter_base@_WV?$string_output_adapter@_W@__crt_stdio_output@@@2@@__crt_stdio_output@@AAEX_KI_N@Z 10084950 f i libucrtd:output.obj
 0001:00083a90       ??$type_case_integer_parse_into_buffer@_K@?$output_processor@_WV?$string_output_adapter@_W@__crt_stdio_output@@V?$standard_base@_WV?$string_output_adapter@_W@__crt_stdio_output@@@2@@__crt_stdio_output@@AAEX_KI_N@Z 10084a90 f i libucrtd:output.obj
 0001:00083bd0       ??$write_multiple_characters@V?$stream_output_adapter@D@__crt_stdio_output@@D@__crt_stdio_output@@YAXABV?$stream_output_adapter@D@0@DHQAH@Z 10084bd0 f i libucrtd:output.obj
 0001:00083c30       ??$write_multiple_characters@V?$stream_output_adapter@_W@__crt_stdio_output@@D@__crt_stdio_output@@YAXABV?$stream_output_adapter@_W@0@DHQAH@Z 10084c30 f i libucrtd:output.obj
 0001:00083c90       ??$write_multiple_characters@V?$string_output_adapter@D@__crt_stdio_output@@D@__crt_stdio_output@@YAXABV?$string_output_adapter@D@0@DHQAH@Z 10084c90 f i libucrtd:output.obj
 0001:00083cf0       ??$write_multiple_characters@V?$string_output_adapter@_W@__crt_stdio_output@@D@__crt_stdio_output@@YAXABV?$string_output_adapter@_W@0@DHQAH@Z 10084cf0 f i libucrtd:output.obj
 0001:00084170       ??0?$common_data@D@__crt_stdio_output@@IAE@XZ 10085170 f i libucrtd:output.obj
 0001:00084240       ??0?$common_data@_W@__crt_stdio_output@@IAE@XZ 10085240 f i libucrtd:output.obj
 0001:00084310       ??0?$output_adapter_data@DV?$stream_output_adapter@D@__crt_stdio_output@@@__crt_stdio_output@@IAE@ABV?$stream_output_adapter@D@1@_KQBDQAU__crt_locale_pointers@@QAD@Z 10085310 f i libucrtd:output.obj
 0001:00084380       ??0?$output_adapter_data@DV?$string_output_adapter@D@__crt_stdio_output@@@__crt_stdio_output@@IAE@ABV?$string_output_adapter@D@1@_KQBDQAU__crt_locale_pointers@@QAD@Z 10085380 f i libucrtd:output.obj
 0001:000843f0       ??0?$output_adapter_data@_WV?$stream_output_adapter@_W@__crt_stdio_output@@@__crt_stdio_output@@IAE@ABV?$stream_output_adapter@_W@1@_KQB_WQAU__crt_locale_pointers@@QAD@Z 100853f0 f i libucrtd:output.obj
 0001:00084460       ??0?$output_adapter_data@_WV?$string_output_adapter@_W@__crt_stdio_output@@@__crt_stdio_output@@IAE@ABV?$string_output_adapter@_W@1@_KQB_WQAU__crt_locale_pointers@@QAD@Z 10085460 f i libucrtd:output.obj
 0001:000844d0       ??0?$output_processor@DV?$stream_output_adapter@D@__crt_stdio_output@@V?$format_validation_base@DV?$stream_output_adapter@D@__crt_stdio_output@@@2@@__crt_stdio_output@@QAE@ABV?$stream_output_adapter@D@1@_KQBDQAU__crt_locale_pointers@@QAD@Z 100854d0 f i libucrtd:output.obj
 0001:00084520       ??0?$output_processor@DV?$stream_output_adapter@D@__crt_stdio_output@@V?$positional_parameter_base@DV?$stream_output_adapter@D@__crt_stdio_output@@@2@@__crt_stdio_output@@QAE@ABV?$stream_output_adapter@D@1@_KQBDQAU__crt_locale_pointers@@QAD@Z 10085520 f i libucrtd:output.obj
 0001:00084570       ??0?$output_processor@DV?$stream_output_adapter@D@__crt_stdio_output@@V?$standard_base@DV?$stream_output_adapter@D@__crt_stdio_output@@@2@@__crt_stdio_output@@QAE@ABV?$stream_output_adapter@D@1@_KQBDQAU__crt_locale_pointers@@QAD@Z 10085570 f i libucrtd:output.obj
 0001:000845c0       ??0?$output_processor@DV?$string_output_adapter@D@__crt_stdio_output@@V?$format_validation_base@DV?$string_output_adapter@D@__crt_stdio_output@@@2@@__crt_stdio_output@@QAE@ABV?$string_output_adapter@D@1@_KQBDQAU__crt_locale_pointers@@QAD@Z 100855c0 f i libucrtd:output.obj
 0001:00084610       ??0?$output_processor@DV?$string_output_adapter@D@__crt_stdio_output@@V?$positional_parameter_base@DV?$string_output_adapter@D@__crt_stdio_output@@@2@@__crt_stdio_output@@QAE@ABV?$string_output_adapter@D@1@_KQBDQAU__crt_locale_pointers@@QAD@Z 10085610 f i libucrtd:output.obj
 0001:00084660       ??0?$output_processor@DV?$string_output_adapter@D@__crt_stdio_output@@V?$standard_base@DV?$string_output_adapter@D@__crt_stdio_output@@@2@@__crt_stdio_output@@QAE@ABV?$string_output_adapter@D@1@_KQBDQAU__crt_locale_pointers@@QAD@Z 10085660 f i libucrtd:output.obj
 0001:000846b0       ??0?$output_processor@_WV?$stream_output_adapter@_W@__crt_stdio_output@@V?$format_validation_base@_WV?$stream_output_adapter@_W@__crt_stdio_output@@@2@@__crt_stdio_output@@QAE@ABV?$stream_output_adapter@_W@1@_KQB_WQAU__crt_locale_pointers@@QAD@Z 100856b0 f i libucrtd:output.obj
 0001:00084700       ??0?$output_processor@_WV?$stream_output_adapter@_W@__crt_stdio_output@@V?$positional_parameter_base@_WV?$stream_output_adapter@_W@__crt_stdio_output@@@2@@__crt_stdio_output@@QAE@ABV?$stream_output_adapter@_W@1@_KQB_WQAU__crt_locale_pointers@@QAD@Z 10085700 f i libucrtd:output.obj
 0001:00084750       ??0?$output_processor@_WV?$stream_output_adapter@_W@__crt_stdio_output@@V?$standard_base@_WV?$stream_output_adapter@_W@__crt_stdio_output@@@2@@__crt_stdio_output@@QAE@ABV?$stream_output_adapter@_W@1@_KQB_WQAU__crt_locale_pointers@@QAD@Z 10085750 f i libucrtd:output.obj
 0001:000847a0       ??0?$output_processor@_WV?$string_output_adapter@_W@__crt_stdio_output@@V?$format_validation_base@_WV?$string_output_adapter@_W@__crt_stdio_output@@@2@@__crt_stdio_output@@QAE@ABV?$string_output_adapter@_W@1@_KQB_WQAU__crt_locale_pointers@@QAD@Z 100857a0 f i libucrtd:output.obj
 0001:000847f0       ??0?$output_processor@_WV?$string_output_adapter@_W@__crt_stdio_output@@V?$positional_parameter_base@_WV?$string_output_adapter@_W@__crt_stdio_output@@@2@@__crt_stdio_output@@QAE@ABV?$string_output_adapter@_W@1@_KQB_WQAU__crt_locale_pointers@@QAD@Z 100857f0 f i libucrtd:output.obj
 0001:00084840       ??0?$output_processor@_WV?$string_output_adapter@_W@__crt_stdio_output@@V?$standard_base@_WV?$string_output_adapter@_W@__crt_stdio_output@@@2@@__crt_stdio_output@@QAE@ABV?$string_output_adapter@_W@1@_KQB_WQAU__crt_locale_pointers@@QAD@Z 10085840 f i libucrtd:output.obj
 0001:00084890       ??0?$stream_output_adapter@D@__crt_stdio_output@@QAE@QAU_iobuf@@@Z 10085890 f i libucrtd:output.obj
 0001:000848c0       ??0?$stream_output_adapter@_W@__crt_stdio_output@@QAE@QAU_iobuf@@@Z 100858c0 f i libucrtd:output.obj
 0001:000848f0       ??0?$string_output_adapter@D@__crt_stdio_output@@QAE@QAU?$string_output_adapter_context@D@1@@Z 100858f0 f i libucrtd:output.obj
 0001:00084910       ??0?$string_output_adapter@_W@__crt_stdio_output@@QAE@QAU?$string_output_adapter_context@_W@1@@Z 10085910 f i libucrtd:output.obj
 0001:00084930       ??0__acrt_stdio_temporary_buffering_guard@@QAE@QAU_iobuf@@@Z 10085930 f i libucrtd:output.obj
 0001:00084970       ??0__crt_errno_guard@@QAE@QAH@Z 10085970 f i libucrtd:output.obj
 0001:000849b0       ??0__crt_stdio_stream@@QAE@QAU_iobuf@@@Z 100859b0 f i libucrtd:output.obj
 0001:000849d0       ??0formatting_buffer@__crt_stdio_output@@QAE@XZ 100859d0 f i libucrtd:output.obj
 0001:00084a10       ??1?$common_data@D@__crt_stdio_output@@QAE@XZ 10085a10 f i libucrtd:output.obj
 0001:00084a30       ??1?$common_data@_W@__crt_stdio_output@@QAE@XZ 10085a30 f i libucrtd:output.obj
 0001:00084a50       ??1?$format_validation_base@DV?$stream_output_adapter@D@__crt_stdio_output@@@__crt_stdio_output@@QAE@XZ 10085a50 f i libucrtd:output.obj
 0001:00084a70       ??1?$format_validation_base@DV?$string_output_adapter@D@__crt_stdio_output@@@__crt_stdio_output@@QAE@XZ 10085a70 f i libucrtd:output.obj
 0001:00084a90       ??1?$format_validation_base@_WV?$stream_output_adapter@_W@__crt_stdio_output@@@__crt_stdio_output@@QAE@XZ 10085a90 f i libucrtd:output.obj
 0001:00084ab0       ??1?$format_validation_base@_WV?$string_output_adapter@_W@__crt_stdio_output@@@__crt_stdio_output@@QAE@XZ 10085ab0 f i libucrtd:output.obj
 0001:00084ad0       ??1?$output_adapter_data@DV?$stream_output_adapter@D@__crt_stdio_output@@@__crt_stdio_output@@QAE@XZ 10085ad0 f i libucrtd:output.obj
 0001:00084af0       ??1?$output_adapter_data@DV?$string_output_adapter@D@__crt_stdio_output@@@__crt_stdio_output@@QAE@XZ 10085af0 f i libucrtd:output.obj
 0001:00084b10       ??1?$output_adapter_data@_WV?$stream_output_adapter@_W@__crt_stdio_output@@@__crt_stdio_output@@QAE@XZ 10085b10 f i libucrtd:output.obj
 0001:00084b30       ??1?$output_adapter_data@_WV?$string_output_adapter@_W@__crt_stdio_output@@@__crt_stdio_output@@QAE@XZ 10085b30 f i libucrtd:output.obj
 0001:00084b50       ??1?$output_processor@DV?$stream_output_adapter@D@__crt_stdio_output@@V?$format_validation_base@DV?$stream_output_adapter@D@__crt_stdio_output@@@2@@__crt_stdio_output@@QAE@XZ 10085b50 f i libucrtd:output.obj
 0001:00084b70       ??1?$output_processor@DV?$stream_output_adapter@D@__crt_stdio_output@@V?$positional_parameter_base@DV?$stream_output_adapter@D@__crt_stdio_output@@@2@@__crt_stdio_output@@QAE@XZ 10085b70 f i libucrtd:output.obj
 0001:00084b90       ??1?$output_processor@DV?$stream_output_adapter@D@__crt_stdio_output@@V?$standard_base@DV?$stream_output_adapter@D@__crt_stdio_output@@@2@@__crt_stdio_output@@QAE@XZ 10085b90 f i libucrtd:output.obj
 0001:00084bb0       ??1?$output_processor@DV?$string_output_adapter@D@__crt_stdio_output@@V?$format_validation_base@DV?$string_output_adapter@D@__crt_stdio_output@@@2@@__crt_stdio_output@@QAE@XZ 10085bb0 f i libucrtd:output.obj
 0001:00084bd0       ??1?$output_processor@DV?$string_output_adapter@D@__crt_stdio_output@@V?$positional_parameter_base@DV?$string_output_adapter@D@__crt_stdio_output@@@2@@__crt_stdio_output@@QAE@XZ 10085bd0 f i libucrtd:output.obj
 0001:00084bf0       ??1?$output_processor@DV?$string_output_adapter@D@__crt_stdio_output@@V?$standard_base@DV?$string_output_adapter@D@__crt_stdio_output@@@2@@__crt_stdio_output@@QAE@XZ 10085bf0 f i libucrtd:output.obj
 0001:00084c10       ??1?$output_processor@_WV?$stream_output_adapter@_W@__crt_stdio_output@@V?$format_validation_base@_WV?$stream_output_adapter@_W@__crt_stdio_output@@@2@@__crt_stdio_output@@QAE@XZ 10085c10 f i libucrtd:output.obj
 0001:00084c30       ??1?$output_processor@_WV?$stream_output_adapter@_W@__crt_stdio_output@@V?$positional_parameter_base@_WV?$stream_output_adapter@_W@__crt_stdio_output@@@2@@__crt_stdio_output@@QAE@XZ 10085c30 f i libucrtd:output.obj
 0001:00084c50       ??1?$output_processor@_WV?$stream_output_adapter@_W@__crt_stdio_output@@V?$standard_base@_WV?$stream_output_adapter@_W@__crt_stdio_output@@@2@@__crt_stdio_output@@QAE@XZ 10085c50 f i libucrtd:output.obj
 0001:00084c70       ??1?$output_processor@_WV?$string_output_adapter@_W@__crt_stdio_output@@V?$format_validation_base@_WV?$string_output_adapter@_W@__crt_stdio_output@@@2@@__crt_stdio_output@@QAE@XZ 10085c70 f i libucrtd:output.obj
 0001:00084c90       ??1?$output_processor@_WV?$string_output_adapter@_W@__crt_stdio_output@@V?$positional_parameter_base@_WV?$string_output_adapter@_W@__crt_stdio_output@@@2@@__crt_stdio_output@@QAE@XZ 10085c90 f i libucrtd:output.obj
 0001:00084cb0       ??1?$output_processor@_WV?$string_output_adapter@_W@__crt_stdio_output@@V?$standard_base@_WV?$string_output_adapter@_W@__crt_stdio_output@@@2@@__crt_stdio_output@@QAE@XZ 10085cb0 f i libucrtd:output.obj
 0001:00084cd0       ??1?$positional_parameter_base@DV?$stream_output_adapter@D@__crt_stdio_output@@@__crt_stdio_output@@QAE@XZ 10085cd0 f i libucrtd:output.obj
 0001:00084cf0       ??1?$positional_parameter_base@DV?$string_output_adapter@D@__crt_stdio_output@@@__crt_stdio_output@@QAE@XZ 10085cf0 f i libucrtd:output.obj
 0001:00084d10       ??1?$positional_parameter_base@_WV?$stream_output_adapter@_W@__crt_stdio_output@@@__crt_stdio_output@@QAE@XZ 10085d10 f i libucrtd:output.obj
 0001:00084d30       ??1?$positional_parameter_base@_WV?$string_output_adapter@_W@__crt_stdio_output@@@__crt_stdio_output@@QAE@XZ 10085d30 f i libucrtd:output.obj
 0001:00084d50       ??1?$standard_base@DV?$stream_output_adapter@D@__crt_stdio_output@@@__crt_stdio_output@@QAE@XZ 10085d50 f i libucrtd:output.obj
 0001:00084d70       ??1?$standard_base@DV?$string_output_adapter@D@__crt_stdio_output@@@__crt_stdio_output@@QAE@XZ 10085d70 f i libucrtd:output.obj
 0001:00084d90       ??1?$standard_base@_WV?$stream_output_adapter@_W@__crt_stdio_output@@@__crt_stdio_output@@QAE@XZ 10085d90 f i libucrtd:output.obj
 0001:00084db0       ??1?$standard_base@_WV?$string_output_adapter@_W@__crt_stdio_output@@@__crt_stdio_output@@QAE@XZ 10085db0 f i libucrtd:output.obj
 0001:00084dd0       ??1__acrt_stdio_temporary_buffering_guard@@QAE@XZ 10085dd0 f i libucrtd:output.obj
 0001:00084e00       ??1__crt_errno_guard@@QAE@XZ 10085e00 f i libucrtd:output.obj
 0001:00084e40       ??1formatting_buffer@__crt_stdio_output@@QAE@XZ 10085e40 f i libucrtd:output.obj
 0001:00084e70       ??4?$__crt_unique_heap_ptr@DU__crt_internal_free_policy@@@@QAEAAV0@$$QAV0@@Z 10085e70 f i libucrtd:output.obj
 0001:00084eb0       ??C__crt_stdio_stream@@QBEPAU__crt_stdio_stream_data@@XZ 10085eb0 f i libucrtd:output.obj
 0001:000857d0       ?adjust_hexit@?$output_processor@DV?$stream_output_adapter@D@__crt_stdio_output@@V?$format_validation_base@DV?$stream_output_adapter@D@__crt_stdio_output@@@2@@__crt_stdio_output@@CADH_N@Z 100867d0 f i libucrtd:output.obj
 0001:00085820       ?adjust_hexit@?$output_processor@DV?$stream_output_adapter@D@__crt_stdio_output@@V?$positional_parameter_base@DV?$stream_output_adapter@D@__crt_stdio_output@@@2@@__crt_stdio_output@@CADH_N@Z 10086820 f i libucrtd:output.obj
 0001:00085870       ?adjust_hexit@?$output_processor@DV?$stream_output_adapter@D@__crt_stdio_output@@V?$standard_base@DV?$stream_output_adapter@D@__crt_stdio_output@@@2@@__crt_stdio_output@@CADH_N@Z 10086870 f i libucrtd:output.obj
 0001:000858c0       ?adjust_hexit@?$output_processor@DV?$string_output_adapter@D@__crt_stdio_output@@V?$format_validation_base@DV?$string_output_adapter@D@__crt_stdio_output@@@2@@__crt_stdio_output@@CADH_N@Z 100868c0 f i libucrtd:output.obj
 0001:00085910       ?adjust_hexit@?$output_processor@DV?$string_output_adapter@D@__crt_stdio_output@@V?$positional_parameter_base@DV?$string_output_adapter@D@__crt_stdio_output@@@2@@__crt_stdio_output@@CADH_N@Z 10086910 f i libucrtd:output.obj
 0001:00085960       ?adjust_hexit@?$output_processor@DV?$string_output_adapter@D@__crt_stdio_output@@V?$standard_base@DV?$string_output_adapter@D@__crt_stdio_output@@@2@@__crt_stdio_output@@CADH_N@Z 10086960 f i libucrtd:output.obj
 0001:000859b0       ?adjust_hexit@?$output_processor@_WV?$stream_output_adapter@_W@__crt_stdio_output@@V?$format_validation_base@_WV?$stream_output_adapter@_W@__crt_stdio_output@@@2@@__crt_stdio_output@@CADH_N@Z 100869b0 f i libucrtd:output.obj
 0001:00085a00       ?adjust_hexit@?$output_processor@_WV?$stream_output_adapter@_W@__crt_stdio_output@@V?$positional_parameter_base@_WV?$stream_output_adapter@_W@__crt_stdio_output@@@2@@__crt_stdio_output@@CADH_N@Z 10086a00 f i libucrtd:output.obj
 0001:00085a50       ?adjust_hexit@?$output_processor@_WV?$stream_output_adapter@_W@__crt_stdio_output@@V?$standard_base@_WV?$stream_output_adapter@_W@__crt_stdio_output@@@2@@__crt_stdio_output@@CADH_N@Z 10086a50 f i libucrtd:output.obj
 0001:00085aa0       ?adjust_hexit@?$output_processor@_WV?$string_output_adapter@_W@__crt_stdio_output@@V?$format_validation_base@_WV?$string_output_adapter@_W@__crt_stdio_output@@@2@@__crt_stdio_output@@CADH_N@Z 10086aa0 f i libucrtd:output.obj
 0001:00085af0       ?adjust_hexit@?$output_processor@_WV?$string_output_adapter@_W@__crt_stdio_output@@V?$positional_parameter_base@_WV?$string_output_adapter@_W@__crt_stdio_output@@@2@@__crt_stdio_output@@CADH_N@Z 10086af0 f i libucrtd:output.obj
 0001:00085b40       ?adjust_hexit@?$output_processor@_WV?$string_output_adapter@_W@__crt_stdio_output@@V?$standard_base@_WV?$string_output_adapter@_W@__crt_stdio_output@@@2@@__crt_stdio_output@@CADH_N@Z 10086b40 f i libucrtd:output.obj
 0001:00085b90       ?advance_to_next_pass@?$positional_parameter_base@DV?$stream_output_adapter@D@__crt_stdio_output@@@__crt_stdio_output@@IAE_NXZ 10086b90 f i libucrtd:output.obj
 0001:00085c50       ?advance_to_next_pass@?$positional_parameter_base@DV?$string_output_adapter@D@__crt_stdio_output@@@__crt_stdio_output@@IAE_NXZ 10086c50 f i libucrtd:output.obj
 0001:00085d10       ?advance_to_next_pass@?$positional_parameter_base@_WV?$stream_output_adapter@_W@__crt_stdio_output@@@__crt_stdio_output@@IAE_NXZ 10086d10 f i libucrtd:output.obj
 0001:00085dd0       ?advance_to_next_pass@?$positional_parameter_base@_WV?$string_output_adapter@_W@__crt_stdio_output@@@__crt_stdio_output@@IAE_NXZ 10086dd0 f i libucrtd:output.obj
 0001:00085e90       ?advance_to_next_pass@?$standard_base@DV?$stream_output_adapter@D@__crt_stdio_output@@@__crt_stdio_output@@IAE_NXZ 10086e90 f i libucrtd:output.obj
 0001:00085ef0       ?advance_to_next_pass@?$standard_base@DV?$string_output_adapter@D@__crt_stdio_output@@@__crt_stdio_output@@IAE_NXZ 10086ef0 f i libucrtd:output.obj
 0001:00085f50       ?advance_to_next_pass@?$standard_base@_WV?$stream_output_adapter@_W@__crt_stdio_output@@@__crt_stdio_output@@IAE_NXZ 10086f50 f i libucrtd:output.obj
 0001:00085fb0       ?advance_to_next_pass@?$standard_base@_WV?$string_output_adapter@_W@__crt_stdio_output@@@__crt_stdio_output@@IAE_NXZ 10086fb0 f i libucrtd:output.obj
 0001:00086010       ?crop_zeroes@__crt_stdio_output@@YAXPADQAU__crt_locale_pointers@@@Z 10087010 f i libucrtd:output.obj
 0001:00086140       ?find_next_state@?$output_processor@DV?$stream_output_adapter@D@__crt_stdio_output@@V?$format_validation_base@DV?$stream_output_adapter@D@__crt_stdio_output@@@2@@__crt_stdio_output@@ABE?AW4state@2@DW432@@Z 10087140 f i libucrtd:output.obj
 0001:000861d0       ?find_next_state@?$output_processor@DV?$stream_output_adapter@D@__crt_stdio_output@@V?$positional_parameter_base@DV?$stream_output_adapter@D@__crt_stdio_output@@@2@@__crt_stdio_output@@ABE?AW4state@2@DW432@@Z 100871d0 f i libucrtd:output.obj
 0001:00086260       ?find_next_state@?$output_processor@DV?$stream_output_adapter@D@__crt_stdio_output@@V?$standard_base@DV?$stream_output_adapter@D@__crt_stdio_output@@@2@@__crt_stdio_output@@ABE?AW4state@2@DW432@@Z 10087260 f i libucrtd:output.obj
 0001:000862f0       ?find_next_state@?$output_processor@DV?$string_output_adapter@D@__crt_stdio_output@@V?$format_validation_base@DV?$string_output_adapter@D@__crt_stdio_output@@@2@@__crt_stdio_output@@ABE?AW4state@2@DW432@@Z 100872f0 f i libucrtd:output.obj
 0001:00086380       ?find_next_state@?$output_processor@DV?$string_output_adapter@D@__crt_stdio_output@@V?$positional_parameter_base@DV?$string_output_adapter@D@__crt_stdio_output@@@2@@__crt_stdio_output@@ABE?AW4state@2@DW432@@Z 10087380 f i libucrtd:output.obj
 0001:00086410       ?find_next_state@?$output_processor@DV?$string_output_adapter@D@__crt_stdio_output@@V?$standard_base@DV?$string_output_adapter@D@__crt_stdio_output@@@2@@__crt_stdio_output@@ABE?AW4state@2@DW432@@Z 10087410 f i libucrtd:output.obj
 0001:000864a0       ?find_next_state@?$output_processor@_WV?$stream_output_adapter@_W@__crt_stdio_output@@V?$format_validation_base@_WV?$stream_output_adapter@_W@__crt_stdio_output@@@2@@__crt_stdio_output@@ABE?AW4state@2@_WW432@@Z 100874a0 f i libucrtd:output.obj
 0001:00086530       ?find_next_state@?$output_processor@_WV?$stream_output_adapter@_W@__crt_stdio_output@@V?$positional_parameter_base@_WV?$stream_output_adapter@_W@__crt_stdio_output@@@2@@__crt_stdio_output@@ABE?AW4state@2@_WW432@@Z 10087530 f i libucrtd:output.obj
 0001:000865c0       ?find_next_state@?$output_processor@_WV?$stream_output_adapter@_W@__crt_stdio_output@@V?$standard_base@_WV?$stream_output_adapter@_W@__crt_stdio_output@@@2@@__crt_stdio_output@@ABE?AW4state@2@_WW432@@Z 100875c0 f i libucrtd:output.obj
 0001:00086650       ?find_next_state@?$output_processor@_WV?$string_output_adapter@_W@__crt_stdio_output@@V?$format_validation_base@_WV?$string_output_adapter@_W@__crt_stdio_output@@@2@@__crt_stdio_output@@ABE?AW4state@2@_WW432@@Z 10087650 f i libucrtd:output.obj
 0001:000866e0       ?find_next_state@?$output_processor@_WV?$string_output_adapter@_W@__crt_stdio_output@@V?$positional_parameter_base@_WV?$string_output_adapter@_W@__crt_stdio_output@@@2@@__crt_stdio_output@@ABE?AW4state@2@_WW432@@Z 100876e0 f i libucrtd:output.obj
 0001:00086770       ?find_next_state@?$output_processor@_WV?$string_output_adapter@_W@__crt_stdio_output@@V?$standard_base@_WV?$string_output_adapter@_W@__crt_stdio_output@@@2@@__crt_stdio_output@@ABE?AW4state@2@_WW432@@Z 10087770 f i libucrtd:output.obj
 0001:00086800       ?force_decimal_point@__crt_stdio_output@@YAXPADQAU__crt_locale_pointers@@@Z 10087800 f i libucrtd:output.obj
 0001:000868e0       ?get_flags@__crt_stdio_stream@@QBEJXZ 100878e0 f i libucrtd:output.obj
 0001:00086910       ?get_parameter_type@?$positional_parameter_base@DV?$stream_output_adapter@D@__crt_stdio_output@@@__crt_stdio_output@@CA?AW4parameter_type@12@F@Z 10087910 f i libucrtd:output.obj
 0001:00086920       ?get_parameter_type@?$positional_parameter_base@DV?$stream_output_adapter@D@__crt_stdio_output@@@__crt_stdio_output@@CA?AW4parameter_type@12@G@Z 10087920 f i libucrtd:output.obj
 0001:00086930       ?get_parameter_type@?$positional_parameter_base@DV?$stream_output_adapter@D@__crt_stdio_output@@@__crt_stdio_output@@CA?AW4parameter_type@12@H@Z 10087930 f i libucrtd:output.obj
 0001:00086940       ?get_parameter_type@?$positional_parameter_base@DV?$stream_output_adapter@D@__crt_stdio_output@@@__crt_stdio_output@@CA?AW4parameter_type@12@I@Z 10087940 f i libucrtd:output.obj
 0001:00086950       ?get_parameter_type@?$positional_parameter_base@DV?$stream_output_adapter@D@__crt_stdio_output@@@__crt_stdio_output@@CA?AW4parameter_type@12@U_CRT_DOUBLE@@@Z 10087950 f i libucrtd:output.obj
 0001:00086960       ?get_parameter_type@?$positional_parameter_base@DV?$stream_output_adapter@D@__crt_stdio_output@@@__crt_stdio_output@@CA?AW4parameter_type@12@_J@Z 10087960 f i libucrtd:output.obj
 0001:00086970       ?get_parameter_type@?$positional_parameter_base@DV?$stream_output_adapter@D@__crt_stdio_output@@@__crt_stdio_output@@CA?AW4parameter_type@12@_K@Z 10087970 f i libucrtd:output.obj
 0001:00086980       ?get_parameter_type@?$positional_parameter_base@DV?$stream_output_adapter@D@__crt_stdio_output@@@__crt_stdio_output@@CA?AW4parameter_type@12@_W@Z 10087980 f i libucrtd:output.obj
 0001:00086990       ?get_parameter_type@?$positional_parameter_base@DV?$string_output_adapter@D@__crt_stdio_output@@@__crt_stdio_output@@CA?AW4parameter_type@12@F@Z 10087990 f i libucrtd:output.obj
 0001:000869a0       ?get_parameter_type@?$positional_parameter_base@DV?$string_output_adapter@D@__crt_stdio_output@@@__crt_stdio_output@@CA?AW4parameter_type@12@G@Z 100879a0 f i libucrtd:output.obj
 0001:000869b0       ?get_parameter_type@?$positional_parameter_base@DV?$string_output_adapter@D@__crt_stdio_output@@@__crt_stdio_output@@CA?AW4parameter_type@12@H@Z 100879b0 f i libucrtd:output.obj
 0001:000869c0       ?get_parameter_type@?$positional_parameter_base@DV?$string_output_adapter@D@__crt_stdio_output@@@__crt_stdio_output@@CA?AW4parameter_type@12@I@Z 100879c0 f i libucrtd:output.obj
 0001:000869d0       ?get_parameter_type@?$positional_parameter_base@DV?$string_output_adapter@D@__crt_stdio_output@@@__crt_stdio_output@@CA?AW4parameter_type@12@U_CRT_DOUBLE@@@Z 100879d0 f i libucrtd:output.obj
 0001:000869e0       ?get_parameter_type@?$positional_parameter_base@DV?$string_output_adapter@D@__crt_stdio_output@@@__crt_stdio_output@@CA?AW4parameter_type@12@_J@Z 100879e0 f i libucrtd:output.obj
 0001:000869f0       ?get_parameter_type@?$positional_parameter_base@DV?$string_output_adapter@D@__crt_stdio_output@@@__crt_stdio_output@@CA?AW4parameter_type@12@_K@Z 100879f0 f i libucrtd:output.obj
 0001:00086a00       ?get_parameter_type@?$positional_parameter_base@DV?$string_output_adapter@D@__crt_stdio_output@@@__crt_stdio_output@@CA?AW4parameter_type@12@_W@Z 10087a00 f i libucrtd:output.obj
 0001:00086a10       ?get_parameter_type@?$positional_parameter_base@_WV?$stream_output_adapter@_W@__crt_stdio_output@@@__crt_stdio_output@@CA?AW4parameter_type@12@F@Z 10087a10 f i libucrtd:output.obj
 0001:00086a20       ?get_parameter_type@?$positional_parameter_base@_WV?$stream_output_adapter@_W@__crt_stdio_output@@@__crt_stdio_output@@CA?AW4parameter_type@12@G@Z 10087a20 f i libucrtd:output.obj
 0001:00086a30       ?get_parameter_type@?$positional_parameter_base@_WV?$stream_output_adapter@_W@__crt_stdio_output@@@__crt_stdio_output@@CA?AW4parameter_type@12@H@Z 10087a30 f i libucrtd:output.obj
 0001:00086a40       ?get_parameter_type@?$positional_parameter_base@_WV?$stream_output_adapter@_W@__crt_stdio_output@@@__crt_stdio_output@@CA?AW4parameter_type@12@I@Z 10087a40 f i libucrtd:output.obj
 0001:00086a50       ?get_parameter_type@?$positional_parameter_base@_WV?$stream_output_adapter@_W@__crt_stdio_output@@@__crt_stdio_output@@CA?AW4parameter_type@12@U_CRT_DOUBLE@@@Z 10087a50 f i libucrtd:output.obj
 0001:00086a60       ?get_parameter_type@?$positional_parameter_base@_WV?$stream_output_adapter@_W@__crt_stdio_output@@@__crt_stdio_output@@CA?AW4parameter_type@12@_J@Z 10087a60 f i libucrtd:output.obj
 0001:00086a70       ?get_parameter_type@?$positional_parameter_base@_WV?$stream_output_adapter@_W@__crt_stdio_output@@@__crt_stdio_output@@CA?AW4parameter_type@12@_K@Z 10087a70 f i libucrtd:output.obj
 0001:00086a80       ?get_parameter_type@?$positional_parameter_base@_WV?$stream_output_adapter@_W@__crt_stdio_output@@@__crt_stdio_output@@CA?AW4parameter_type@12@_W@Z 10087a80 f i libucrtd:output.obj
 0001:00086a90       ?get_parameter_type@?$positional_parameter_base@_WV?$string_output_adapter@_W@__crt_stdio_output@@@__crt_stdio_output@@CA?AW4parameter_type@12@F@Z 10087a90 f i libucrtd:output.obj
 0001:00086aa0       ?get_parameter_type@?$positional_parameter_base@_WV?$string_output_adapter@_W@__crt_stdio_output@@@__crt_stdio_output@@CA?AW4parameter_type@12@G@Z 10087aa0 f i libucrtd:output.obj
 0001:00086ab0       ?get_parameter_type@?$positional_parameter_base@_WV?$string_output_adapter@_W@__crt_stdio_output@@@__crt_stdio_output@@CA?AW4parameter_type@12@H@Z 10087ab0 f i libucrtd:output.obj
 0001:00086ac0       ?get_parameter_type@?$positional_parameter_base@_WV?$string_output_adapter@_W@__crt_stdio_output@@@__crt_stdio_output@@CA?AW4parameter_type@12@I@Z 10087ac0 f i libucrtd:output.obj
 0001:00086ad0       ?get_parameter_type@?$positional_parameter_base@_WV?$string_output_adapter@_W@__crt_stdio_output@@@__crt_stdio_output@@CA?AW4parameter_type@12@U_CRT_DOUBLE@@@Z 10087ad0 f i libucrtd:output.obj
 0001:00086ae0       ?get_parameter_type@?$positional_parameter_base@_WV?$string_output_adapter@_W@__crt_stdio_output@@@__crt_stdio_output@@CA?AW4parameter_type@12@_J@Z 10087ae0 f i libucrtd:output.obj
 0001:00086af0       ?get_parameter_type@?$positional_parameter_base@_WV?$string_output_adapter@_W@__crt_stdio_output@@@__crt_stdio_output@@CA?AW4parameter_type@12@_K@Z 10087af0 f i libucrtd:output.obj
 0001:00086b00       ?get_parameter_type@?$positional_parameter_base@_WV?$string_output_adapter@_W@__crt_stdio_output@@@__crt_stdio_output@@CA?AW4parameter_type@12@_W@Z 10087b00 f i libucrtd:output.obj
 0001:00086b10       ?has_flag@?$output_processor@DV?$stream_output_adapter@D@__crt_stdio_output@@V?$format_validation_base@DV?$stream_output_adapter@D@__crt_stdio_output@@@2@@__crt_stdio_output@@ABE_NI@Z 10087b10 f i libucrtd:output.obj
 0001:00086b50       ?has_flag@?$output_processor@DV?$stream_output_adapter@D@__crt_stdio_output@@V?$positional_parameter_base@DV?$stream_output_adapter@D@__crt_stdio_output@@@2@@__crt_stdio_output@@ABE_NI@Z 10087b50 f i libucrtd:output.obj
 0001:00086b90       ?has_flag@?$output_processor@DV?$stream_output_adapter@D@__crt_stdio_output@@V?$standard_base@DV?$stream_output_adapter@D@__crt_stdio_output@@@2@@__crt_stdio_output@@ABE_NI@Z 10087b90 f i libucrtd:output.obj
 0001:00086bd0       ?has_flag@?$output_processor@DV?$string_output_adapter@D@__crt_stdio_output@@V?$format_validation_base@DV?$string_output_adapter@D@__crt_stdio_output@@@2@@__crt_stdio_output@@ABE_NI@Z 10087bd0 f i libucrtd:output.obj
 0001:00086c10       ?has_flag@?$output_processor@DV?$string_output_adapter@D@__crt_stdio_output@@V?$positional_parameter_base@DV?$string_output_adapter@D@__crt_stdio_output@@@2@@__crt_stdio_output@@ABE_NI@Z 10087c10 f i libucrtd:output.obj
 0001:00086c50       ?has_flag@?$output_processor@DV?$string_output_adapter@D@__crt_stdio_output@@V?$standard_base@DV?$string_output_adapter@D@__crt_stdio_output@@@2@@__crt_stdio_output@@ABE_NI@Z 10087c50 f i libucrtd:output.obj
 0001:00086c90       ?has_flag@?$output_processor@_WV?$stream_output_adapter@_W@__crt_stdio_output@@V?$format_validation_base@_WV?$stream_output_adapter@_W@__crt_stdio_output@@@2@@__crt_stdio_output@@ABE_NI@Z 10087c90 f i libucrtd:output.obj
 0001:00086cd0       ?has_flag@?$output_processor@_WV?$stream_output_adapter@_W@__crt_stdio_output@@V?$positional_parameter_base@_WV?$stream_output_adapter@_W@__crt_stdio_output@@@2@@__crt_stdio_output@@ABE_NI@Z 10087cd0 f i libucrtd:output.obj
 0001:00086d10       ?has_flag@?$output_processor@_WV?$stream_output_adapter@_W@__crt_stdio_output@@V?$standard_base@_WV?$stream_output_adapter@_W@__crt_stdio_output@@@2@@__crt_stdio_output@@ABE_NI@Z 10087d10 f i libucrtd:output.obj
 0001:00086d50       ?has_flag@?$output_processor@_WV?$string_output_adapter@_W@__crt_stdio_output@@V?$format_validation_base@_WV?$string_output_adapter@_W@__crt_stdio_output@@@2@@__crt_stdio_output@@ABE_NI@Z 10087d50 f i libucrtd:output.obj
 0001:00086d90       ?has_flag@?$output_processor@_WV?$string_output_adapter@_W@__crt_stdio_output@@V?$positional_parameter_base@_WV?$string_output_adapter@_W@__crt_stdio_output@@@2@@__crt_stdio_output@@ABE_NI@Z 10087d90 f i libucrtd:output.obj
 0001:00086dd0       ?has_flag@?$output_processor@_WV?$string_output_adapter@_W@__crt_stdio_output@@V?$standard_base@_WV?$string_output_adapter@_W@__crt_stdio_output@@@2@@__crt_stdio_output@@ABE_NI@Z 10087dd0 f i libucrtd:output.obj
 0001:00086e10       ?is_positional_parameter_reappearance_consistent@?$positional_parameter_base@DV?$stream_output_adapter@D@__crt_stdio_output@@@__crt_stdio_output@@AAE_NABUparameter_data@12@W4parameter_type@12@DW4length_modifier@2@@Z 10087e10 f i libucrtd:output.obj
 0001:000870c0       ?is_positional_parameter_reappearance_consistent@?$positional_parameter_base@DV?$string_output_adapter@D@__crt_stdio_output@@@__crt_stdio_output@@AAE_NABUparameter_data@12@W4parameter_type@12@DW4length_modifier@2@@Z 100880c0 f i libucrtd:output.obj
 0001:00087370       ?is_positional_parameter_reappearance_consistent@?$positional_parameter_base@_WV?$stream_output_adapter@_W@__crt_stdio_output@@@__crt_stdio_output@@AAE_NABUparameter_data@12@W4parameter_type@12@_WW4length_modifier@2@@Z 10088370 f i libucrtd:output.obj
 0001:00087620       ?is_positional_parameter_reappearance_consistent@?$positional_parameter_base@_WV?$string_output_adapter@_W@__crt_stdio_output@@@__crt_stdio_output@@AAE_NABUparameter_data@12@W4parameter_type@12@_WW4length_modifier@2@@Z 10088620 f i libucrtd:output.obj
 0001:000878d0       ?is_string_backed@__crt_stdio_stream@@QBE_NXZ 100888d0 f i libucrtd:output.obj
 0001:00087910       ?narrow_null_string@?$output_processor@DV?$stream_output_adapter@D@__crt_stdio_output@@V?$format_validation_base@DV?$stream_output_adapter@D@__crt_stdio_output@@@2@@__crt_stdio_output@@CAPADXZ 10088910 f i libucrtd:output.obj
 0001:00087920       ?narrow_null_string@?$output_processor@DV?$stream_output_adapter@D@__crt_stdio_output@@V?$positional_parameter_base@DV?$stream_output_adapter@D@__crt_stdio_output@@@2@@__crt_stdio_output@@CAPADXZ 10088920 f i libucrtd:output.obj
 0001:00087930       ?narrow_null_string@?$output_processor@DV?$stream_output_adapter@D@__crt_stdio_output@@V?$standard_base@DV?$stream_output_adapter@D@__crt_stdio_output@@@2@@__crt_stdio_output@@CAPADXZ 10088930 f i libucrtd:output.obj
 0001:00087940       ?narrow_null_string@?$output_processor@DV?$string_output_adapter@D@__crt_stdio_output@@V?$format_validation_base@DV?$string_output_adapter@D@__crt_stdio_output@@@2@@__crt_stdio_output@@CAPADXZ 10088940 f i libucrtd:output.obj
 0001:00087950       ?narrow_null_string@?$output_processor@DV?$string_output_adapter@D@__crt_stdio_output@@V?$positional_parameter_base@DV?$string_output_adapter@D@__crt_stdio_output@@@2@@__crt_stdio_output@@CAPADXZ 10088950 f i libucrtd:output.obj
 0001:00087960       ?narrow_null_string@?$output_processor@DV?$string_output_adapter@D@__crt_stdio_output@@V?$standard_base@DV?$string_output_adapter@D@__crt_stdio_output@@@2@@__crt_stdio_output@@CAPADXZ 10088960 f i libucrtd:output.obj
 0001:00087970       ?narrow_null_string@?$output_processor@_WV?$stream_output_adapter@_W@__crt_stdio_output@@V?$format_validation_base@_WV?$stream_output_adapter@_W@__crt_stdio_output@@@2@@__crt_stdio_output@@CAPADXZ 10088970 f i libucrtd:output.obj
 0001:00087980       ?narrow_null_string@?$output_processor@_WV?$stream_output_adapter@_W@__crt_stdio_output@@V?$positional_parameter_base@_WV?$stream_output_adapter@_W@__crt_stdio_output@@@2@@__crt_stdio_output@@CAPADXZ 10088980 f i libucrtd:output.obj
 0001:00087990       ?narrow_null_string@?$output_processor@_WV?$stream_output_adapter@_W@__crt_stdio_output@@V?$standard_base@_WV?$stream_output_adapter@_W@__crt_stdio_output@@@2@@__crt_stdio_output@@CAPADXZ 10088990 f i libucrtd:output.obj
 0001:000879a0       ?narrow_null_string@?$output_processor@_WV?$string_output_adapter@_W@__crt_stdio_output@@V?$format_validation_base@_WV?$string_output_adapter@_W@__crt_stdio_output@@@2@@__crt_stdio_output@@CAPADXZ 100889a0 f i libucrtd:output.obj
 0001:000879b0       ?narrow_null_string@?$output_processor@_WV?$string_output_adapter@_W@__crt_stdio_output@@V?$positional_parameter_base@_WV?$string_output_adapter@_W@__crt_stdio_output@@@2@@__crt_stdio_output@@CAPADXZ 100889b0 f i libucrtd:output.obj
 0001:000879c0       ?narrow_null_string@?$output_processor@_WV?$string_output_adapter@_W@__crt_stdio_output@@V?$standard_base@_WV?$string_output_adapter@_W@__crt_stdio_output@@@2@@__crt_stdio_output@@CAPADXZ 100889c0 f i libucrtd:output.obj
 0001:000879d0       ?parse_int_from_format_string@?$output_processor@DV?$stream_output_adapter@D@__crt_stdio_output@@V?$format_validation_base@DV?$stream_output_adapter@D@__crt_stdio_output@@@2@@__crt_stdio_output@@AAE_NQAH@Z 100889d0 f i libucrtd:output.obj
 0001:00087ab0       ?parse_int_from_format_string@?$output_processor@DV?$stream_output_adapter@D@__crt_stdio_output@@V?$positional_parameter_base@DV?$stream_output_adapter@D@__crt_stdio_output@@@2@@__crt_stdio_output@@AAE_NQAH@Z 10088ab0 f i libucrtd:output.obj
 0001:00087b90       ?parse_int_from_format_string@?$output_processor@DV?$stream_output_adapter@D@__crt_stdio_output@@V?$standard_base@DV?$stream_output_adapter@D@__crt_stdio_output@@@2@@__crt_stdio_output@@AAE_NQAH@Z 10088b90 f i libucrtd:output.obj
 0001:00087c70       ?parse_int_from_format_string@?$output_processor@DV?$string_output_adapter@D@__crt_stdio_output@@V?$format_validation_base@DV?$string_output_adapter@D@__crt_stdio_output@@@2@@__crt_stdio_output@@AAE_NQAH@Z 10088c70 f i libucrtd:output.obj
 0001:00087d50       ?parse_int_from_format_string@?$output_processor@DV?$string_output_adapter@D@__crt_stdio_output@@V?$positional_parameter_base@DV?$string_output_adapter@D@__crt_stdio_output@@@2@@__crt_stdio_output@@AAE_NQAH@Z 10088d50 f i libucrtd:output.obj
 0001:00087e30       ?parse_int_from_format_string@?$output_processor@DV?$string_output_adapter@D@__crt_stdio_output@@V?$standard_base@DV?$string_output_adapter@D@__crt_stdio_output@@@2@@__crt_stdio_output@@AAE_NQAH@Z 10088e30 f i libucrtd:output.obj
 0001:00087f10       ?parse_int_from_format_string@?$output_processor@_WV?$stream_output_adapter@_W@__crt_stdio_output@@V?$format_validation_base@_WV?$stream_output_adapter@_W@__crt_stdio_output@@@2@@__crt_stdio_output@@AAE_NQAH@Z 10088f10 f i libucrtd:output.obj
 0001:00087ff0       ?parse_int_from_format_string@?$output_processor@_WV?$stream_output_adapter@_W@__crt_stdio_output@@V?$positional_parameter_base@_WV?$stream_output_adapter@_W@__crt_stdio_output@@@2@@__crt_stdio_output@@AAE_NQAH@Z 10088ff0 f i libucrtd:output.obj
 0001:000880d0       ?parse_int_from_format_string@?$output_processor@_WV?$stream_output_adapter@_W@__crt_stdio_output@@V?$standard_base@_WV?$stream_output_adapter@_W@__crt_stdio_output@@@2@@__crt_stdio_output@@AAE_NQAH@Z 100890d0 f i libucrtd:output.obj
 0001:000881b0       ?parse_int_from_format_string@?$output_processor@_WV?$string_output_adapter@_W@__crt_stdio_output@@V?$format_validation_base@_WV?$string_output_adapter@_W@__crt_stdio_output@@@2@@__crt_stdio_output@@AAE_NQAH@Z 100891b0 f i libucrtd:output.obj
 0001:00088290       ?parse_int_from_format_string@?$output_processor@_WV?$string_output_adapter@_W@__crt_stdio_output@@V?$positional_parameter_base@_WV?$string_output_adapter@_W@__crt_stdio_output@@@2@@__crt_stdio_output@@AAE_NQAH@Z 10089290 f i libucrtd:output.obj
 0001:00088370       ?parse_int_from_format_string@?$output_processor@_WV?$string_output_adapter@_W@__crt_stdio_output@@V?$standard_base@_WV?$string_output_adapter@_W@__crt_stdio_output@@@2@@__crt_stdio_output@@AAE_NQAH@Z 10089370 f i libucrtd:output.obj
 0001:00088450       ?process@?$output_processor@DV?$stream_output_adapter@D@__crt_stdio_output@@V?$format_validation_base@DV?$stream_output_adapter@D@__crt_stdio_output@@@2@@__crt_stdio_output@@QAEHXZ 10089450 f i libucrtd:output.obj
 0001:000887a0       ?process@?$output_processor@DV?$stream_output_adapter@D@__crt_stdio_output@@V?$positional_parameter_base@DV?$stream_output_adapter@D@__crt_stdio_output@@@2@@__crt_stdio_output@@QAEHXZ 100897a0 f i libucrtd:output.obj
 0001:00088af0       ?process@?$output_processor@DV?$stream_output_adapter@D@__crt_stdio_output@@V?$standard_base@DV?$stream_output_adapter@D@__crt_stdio_output@@@2@@__crt_stdio_output@@QAEHXZ 10089af0 f i libucrtd:output.obj
 0001:00088e40       ?process@?$output_processor@DV?$string_output_adapter@D@__crt_stdio_output@@V?$format_validation_base@DV?$string_output_adapter@D@__crt_stdio_output@@@2@@__crt_stdio_output@@QAEHXZ 10089e40 f i libucrtd:output.obj
 0001:00089190       ?process@?$output_processor@DV?$string_output_adapter@D@__crt_stdio_output@@V?$positional_parameter_base@DV?$string_output_adapter@D@__crt_stdio_output@@@2@@__crt_stdio_output@@QAEHXZ 1008a190 f i libucrtd:output.obj
 0001:000894e0       ?process@?$output_processor@DV?$string_output_adapter@D@__crt_stdio_output@@V?$standard_base@DV?$string_output_adapter@D@__crt_stdio_output@@@2@@__crt_stdio_output@@QAEHXZ 1008a4e0 f i libucrtd:output.obj
 0001:00089830       ?process@?$output_processor@_WV?$stream_output_adapter@_W@__crt_stdio_output@@V?$format_validation_base@_WV?$stream_output_adapter@_W@__crt_stdio_output@@@2@@__crt_stdio_output@@QAEHXZ 1008a830 f i libucrtd:output.obj
 0001:00089b80       ?process@?$output_processor@_WV?$stream_output_adapter@_W@__crt_stdio_output@@V?$positional_parameter_base@_WV?$stream_output_adapter@_W@__crt_stdio_output@@@2@@__crt_stdio_output@@QAEHXZ 1008ab80 f i libucrtd:output.obj
 0001:00089ed0       ?process@?$output_processor@_WV?$stream_output_adapter@_W@__crt_stdio_output@@V?$standard_base@_WV?$stream_output_adapter@_W@__crt_stdio_output@@@2@@__crt_stdio_output@@QAEHXZ 1008aed0 f i libucrtd:output.obj
 0001:0008a220       ?process@?$output_processor@_WV?$string_output_adapter@_W@__crt_stdio_output@@V?$format_validation_base@_WV?$string_output_adapter@_W@__crt_stdio_output@@@2@@__crt_stdio_output@@QAEHXZ 1008b220 f i libucrtd:output.obj
 0001:0008a570       ?process@?$output_processor@_WV?$string_output_adapter@_W@__crt_stdio_output@@V?$positional_parameter_base@_WV?$string_output_adapter@_W@__crt_stdio_output@@@2@@__crt_stdio_output@@QAEHXZ 1008b570 f i libucrtd:output.obj
 0001:0008a8c0       ?process@?$output_processor@_WV?$string_output_adapter@_W@__crt_stdio_output@@V?$standard_base@_WV?$string_output_adapter@_W@__crt_stdio_output@@@2@@__crt_stdio_output@@QAEHXZ 1008b8c0 f i libucrtd:output.obj
 0001:0008ac10       ?public_stream@__crt_stdio_stream@@QBEPAU_iobuf@@XZ 1008bc10 f i libucrtd:output.obj
 0001:0008ac30       ?set_flag@?$output_processor@DV?$stream_output_adapter@D@__crt_stdio_output@@V?$format_validation_base@DV?$stream_output_adapter@D@__crt_stdio_output@@@2@@__crt_stdio_output@@AAEXI@Z 1008bc30 f i libucrtd:output.obj
 0001:0008ac60       ?set_flag@?$output_processor@DV?$stream_output_adapter@D@__crt_stdio_output@@V?$positional_parameter_base@DV?$stream_output_adapter@D@__crt_stdio_output@@@2@@__crt_stdio_output@@AAEXI@Z 1008bc60 f i libucrtd:output.obj
 0001:0008ac90       ?set_flag@?$output_processor@DV?$stream_output_adapter@D@__crt_stdio_output@@V?$standard_base@DV?$stream_output_adapter@D@__crt_stdio_output@@@2@@__crt_stdio_output@@AAEXI@Z 1008bc90 f i libucrtd:output.obj
 0001:0008acc0       ?set_flag@?$output_processor@DV?$string_output_adapter@D@__crt_stdio_output@@V?$format_validation_base@DV?$string_output_adapter@D@__crt_stdio_output@@@2@@__crt_stdio_output@@AAEXI@Z 1008bcc0 f i libucrtd:output.obj
 0001:0008acf0       ?set_flag@?$output_processor@DV?$string_output_adapter@D@__crt_stdio_output@@V?$positional_parameter_base@DV?$string_output_adapter@D@__crt_stdio_output@@@2@@__crt_stdio_output@@AAEXI@Z 1008bcf0 f i libucrtd:output.obj
 0001:0008ad20       ?set_flag@?$output_processor@DV?$string_output_adapter@D@__crt_stdio_output@@V?$standard_base@DV?$string_output_adapter@D@__crt_stdio_output@@@2@@__crt_stdio_output@@AAEXI@Z 1008bd20 f i libucrtd:output.obj
 0001:0008ad50       ?set_flag@?$output_processor@_WV?$stream_output_adapter@_W@__crt_stdio_output@@V?$format_validation_base@_WV?$stream_output_adapter@_W@__crt_stdio_output@@@2@@__crt_stdio_output@@AAEXI@Z 1008bd50 f i libucrtd:output.obj
 0001:0008ad80       ?set_flag@?$output_processor@_WV?$stream_output_adapter@_W@__crt_stdio_output@@V?$positional_parameter_base@_WV?$stream_output_adapter@_W@__crt_stdio_output@@@2@@__crt_stdio_output@@AAEXI@Z 1008bd80 f i libucrtd:output.obj
 0001:0008adb0       ?set_flag@?$output_processor@_WV?$stream_output_adapter@_W@__crt_stdio_output@@V?$standard_base@_WV?$stream_output_adapter@_W@__crt_stdio_output@@@2@@__crt_stdio_output@@AAEXI@Z 1008bdb0 f i libucrtd:output.obj
 0001:0008ade0       ?set_flag@?$output_processor@_WV?$string_output_adapter@_W@__crt_stdio_output@@V?$format_validation_base@_WV?$string_output_adapter@_W@__crt_stdio_output@@@2@@__crt_stdio_output@@AAEXI@Z 1008bde0 f i libucrtd:output.obj
 0001:0008ae10       ?set_flag@?$output_processor@_WV?$string_output_adapter@_W@__crt_stdio_output@@V?$positional_parameter_base@_WV?$string_output_adapter@_W@__crt_stdio_output@@@2@@__crt_stdio_output@@AAEXI@Z 1008be10 f i libucrtd:output.obj
 0001:0008ae40       ?set_flag@?$output_processor@_WV?$string_output_adapter@_W@__crt_stdio_output@@V?$standard_base@_WV?$string_output_adapter@_W@__crt_stdio_output@@@2@@__crt_stdio_output@@AAEXI@Z 1008be40 f i libucrtd:output.obj
 0001:0008ae70       ?should_format@?$positional_parameter_base@DV?$stream_output_adapter@D@__crt_stdio_output@@@__crt_stdio_output@@IAE_NXZ 1008be70 f i libucrtd:output.obj
 0001:0008aec0       ?should_format@?$positional_parameter_base@DV?$string_output_adapter@D@__crt_stdio_output@@@__crt_stdio_output@@IAE_NXZ 1008bec0 f i libucrtd:output.obj
 0001:0008af10       ?should_format@?$positional_parameter_base@_WV?$stream_output_adapter@_W@__crt_stdio_output@@@__crt_stdio_output@@IAE_NXZ 1008bf10 f i libucrtd:output.obj
 0001:0008af60       ?should_format@?$positional_parameter_base@_WV?$string_output_adapter@_W@__crt_stdio_output@@@__crt_stdio_output@@IAE_NXZ 1008bf60 f i libucrtd:output.obj
 0001:0008afb0       ?should_format@?$standard_base@DV?$stream_output_adapter@D@__crt_stdio_output@@@__crt_stdio_output@@IAE_NXZ 1008bfb0 f i libucrtd:output.obj
 0001:0008afd0       ?should_format@?$standard_base@DV?$string_output_adapter@D@__crt_stdio_output@@@__crt_stdio_output@@IAE_NXZ 1008bfd0 f i libucrtd:output.obj
 0001:0008aff0       ?should_format@?$standard_base@_WV?$stream_output_adapter@_W@__crt_stdio_output@@@__crt_stdio_output@@IAE_NXZ 1008bff0 f i libucrtd:output.obj
 0001:0008b010       ?should_format@?$standard_base@_WV?$string_output_adapter@_W@__crt_stdio_output@@@__crt_stdio_output@@IAE_NXZ 1008c010 f i libucrtd:output.obj
 0001:0008b030       ?should_skip_normal_state_processing@?$positional_parameter_base@DV?$stream_output_adapter@D@__crt_stdio_output@@@__crt_stdio_output@@IAE_NXZ 1008c030 f i libucrtd:output.obj
 0001:0008b090       ?should_skip_normal_state_processing@?$positional_parameter_base@DV?$string_output_adapter@D@__crt_stdio_output@@@__crt_stdio_output@@IAE_NXZ 1008c090 f i libucrtd:output.obj
 0001:0008b0f0       ?should_skip_normal_state_processing@?$positional_parameter_base@_WV?$stream_output_adapter@_W@__crt_stdio_output@@@__crt_stdio_output@@IAE_NXZ 1008c0f0 f i libucrtd:output.obj
 0001:0008b150       ?should_skip_normal_state_processing@?$positional_parameter_base@_WV?$string_output_adapter@_W@__crt_stdio_output@@@__crt_stdio_output@@IAE_NXZ 1008c150 f i libucrtd:output.obj
 0001:0008b1b0       ?should_skip_normal_state_processing@?$standard_base@DV?$stream_output_adapter@D@__crt_stdio_output@@@__crt_stdio_output@@IAE_NXZ 1008c1b0 f i libucrtd:output.obj
 0001:0008b1d0       ?should_skip_normal_state_processing@?$standard_base@DV?$string_output_adapter@D@__crt_stdio_output@@@__crt_stdio_output@@IAE_NXZ 1008c1d0 f i libucrtd:output.obj
 0001:0008b1f0       ?should_skip_normal_state_processing@?$standard_base@_WV?$stream_output_adapter@_W@__crt_stdio_output@@@__crt_stdio_output@@IAE_NXZ 1008c1f0 f i libucrtd:output.obj
 0001:0008b210       ?should_skip_normal_state_processing@?$standard_base@_WV?$string_output_adapter@_W@__crt_stdio_output@@@__crt_stdio_output@@IAE_NXZ 1008c210 f i libucrtd:output.obj
 0001:0008b230       ?should_skip_type_state_output@?$positional_parameter_base@DV?$stream_output_adapter@D@__crt_stdio_output@@@__crt_stdio_output@@IBE_NXZ 1008c230 f i libucrtd:output.obj
 0001:0008b280       ?should_skip_type_state_output@?$positional_parameter_base@DV?$string_output_adapter@D@__crt_stdio_output@@@__crt_stdio_output@@IBE_NXZ 1008c280 f i libucrtd:output.obj
 0001:0008b2d0       ?should_skip_type_state_output@?$positional_parameter_base@_WV?$stream_output_adapter@_W@__crt_stdio_output@@@__crt_stdio_output@@IBE_NXZ 1008c2d0 f i libucrtd:output.obj
 0001:0008b320       ?should_skip_type_state_output@?$positional_parameter_base@_WV?$string_output_adapter@_W@__crt_stdio_output@@@__crt_stdio_output@@IBE_NXZ 1008c320 f i libucrtd:output.obj
 0001:0008b370       ?should_skip_type_state_output@?$standard_base@DV?$stream_output_adapter@D@__crt_stdio_output@@@__crt_stdio_output@@IBE_NXZ 1008c370 f i libucrtd:output.obj
 0001:0008b390       ?should_skip_type_state_output@?$standard_base@DV?$string_output_adapter@D@__crt_stdio_output@@@__crt_stdio_output@@IBE_NXZ 1008c390 f i libucrtd:output.obj
 0001:0008b3b0       ?should_skip_type_state_output@?$standard_base@_WV?$stream_output_adapter@_W@__crt_stdio_output@@@__crt_stdio_output@@IBE_NXZ 1008c3b0 f i libucrtd:output.obj
 0001:0008b3d0       ?should_skip_type_state_output@?$standard_base@_WV?$string_output_adapter@_W@__crt_stdio_output@@@__crt_stdio_output@@IBE_NXZ 1008c3d0 f i libucrtd:output.obj
 0001:0008b3f0       ?state_case_dot@?$output_processor@DV?$stream_output_adapter@D@__crt_stdio_output@@V?$format_validation_base@DV?$stream_output_adapter@D@__crt_stdio_output@@@2@@__crt_stdio_output@@AAE_NXZ 1008c3f0 f i libucrtd:output.obj
 0001:0008b410       ?state_case_dot@?$output_processor@DV?$stream_output_adapter@D@__crt_stdio_output@@V?$positional_parameter_base@DV?$stream_output_adapter@D@__crt_stdio_output@@@2@@__crt_stdio_output@@AAE_NXZ 1008c410 f i libucrtd:output.obj
 0001:0008b430       ?state_case_dot@?$output_processor@DV?$stream_output_adapter@D@__crt_stdio_output@@V?$standard_base@DV?$stream_output_adapter@D@__crt_stdio_output@@@2@@__crt_stdio_output@@AAE_NXZ 1008c430 f i libucrtd:output.obj
 0001:0008b450       ?state_case_dot@?$output_processor@DV?$string_output_adapter@D@__crt_stdio_output@@V?$format_validation_base@DV?$string_output_adapter@D@__crt_stdio_output@@@2@@__crt_stdio_output@@AAE_NXZ 1008c450 f i libucrtd:output.obj
 0001:0008b470       ?state_case_dot@?$output_processor@DV?$string_output_adapter@D@__crt_stdio_output@@V?$positional_parameter_base@DV?$string_output_adapter@D@__crt_stdio_output@@@2@@__crt_stdio_output@@AAE_NXZ 1008c470 f i libucrtd:output.obj
 0001:0008b490       ?state_case_dot@?$output_processor@DV?$string_output_adapter@D@__crt_stdio_output@@V?$standard_base@DV?$string_output_adapter@D@__crt_stdio_output@@@2@@__crt_stdio_output@@AAE_NXZ 1008c490 f i libucrtd:output.obj
 0001:0008b4b0       ?state_case_dot@?$output_processor@_WV?$stream_output_adapter@_W@__crt_stdio_output@@V?$format_validation_base@_WV?$stream_output_adapter@_W@__crt_stdio_output@@@2@@__crt_stdio_output@@AAE_NXZ 1008c4b0 f i libucrtd:output.obj
 0001:0008b4d0       ?state_case_dot@?$output_processor@_WV?$stream_output_adapter@_W@__crt_stdio_output@@V?$positional_parameter_base@_WV?$stream_output_adapter@_W@__crt_stdio_output@@@2@@__crt_stdio_output@@AAE_NXZ 1008c4d0 f i libucrtd:output.obj
 0001:0008b4f0       ?state_case_dot@?$output_processor@_WV?$stream_output_adapter@_W@__crt_stdio_output@@V?$standard_base@_WV?$stream_output_adapter@_W@__crt_stdio_output@@@2@@__crt_stdio_output@@AAE_NXZ 1008c4f0 f i libucrtd:output.obj
 0001:0008b510       ?state_case_dot@?$output_processor@_WV?$string_output_adapter@_W@__crt_stdio_output@@V?$format_validation_base@_WV?$string_output_adapter@_W@__crt_stdio_output@@@2@@__crt_stdio_output@@AAE_NXZ 1008c510 f i libucrtd:output.obj
 0001:0008b530       ?state_case_dot@?$output_processor@_WV?$string_output_adapter@_W@__crt_stdio_output@@V?$positional_parameter_base@_WV?$string_output_adapter@_W@__crt_stdio_output@@@2@@__crt_stdio_output@@AAE_NXZ 1008c530 f i libucrtd:output.obj
 0001:0008b550       ?state_case_dot@?$output_processor@_WV?$string_output_adapter@_W@__crt_stdio_output@@V?$standard_base@_WV?$string_output_adapter@_W@__crt_stdio_output@@@2@@__crt_stdio_output@@AAE_NXZ 1008c550 f i libucrtd:output.obj
 0001:0008b570       ?state_case_flag@?$output_processor@DV?$stream_output_adapter@D@__crt_stdio_output@@V?$format_validation_base@DV?$stream_output_adapter@D@__crt_stdio_output@@@2@@__crt_stdio_output@@AAE_NXZ 1008c570 f i libucrtd:output.obj
 0001:0008b640       ?state_case_flag@?$output_processor@DV?$stream_output_adapter@D@__crt_stdio_output@@V?$positional_parameter_base@DV?$stream_output_adapter@D@__crt_stdio_output@@@2@@__crt_stdio_output@@AAE_NXZ 1008c640 f i libucrtd:output.obj
 0001:0008b710       ?state_case_flag@?$output_processor@DV?$stream_output_adapter@D@__crt_stdio_output@@V?$standard_base@DV?$stream_output_adapter@D@__crt_stdio_output@@@2@@__crt_stdio_output@@AAE_NXZ 1008c710 f i libucrtd:output.obj
 0001:0008b7e0       ?state_case_flag@?$output_processor@DV?$string_output_adapter@D@__crt_stdio_output@@V?$format_validation_base@DV?$string_output_adapter@D@__crt_stdio_output@@@2@@__crt_stdio_output@@AAE_NXZ 1008c7e0 f i libucrtd:output.obj
 0001:0008b8b0       ?state_case_flag@?$output_processor@DV?$string_output_adapter@D@__crt_stdio_output@@V?$positional_parameter_base@DV?$string_output_adapter@D@__crt_stdio_output@@@2@@__crt_stdio_output@@AAE_NXZ 1008c8b0 f i libucrtd:output.obj
 0001:0008b980       ?state_case_flag@?$output_processor@DV?$string_output_adapter@D@__crt_stdio_output@@V?$standard_base@DV?$string_output_adapter@D@__crt_stdio_output@@@2@@__crt_stdio_output@@AAE_NXZ 1008c980 f i libucrtd:output.obj
 0001:0008ba50       ?state_case_flag@?$output_processor@_WV?$stream_output_adapter@_W@__crt_stdio_output@@V?$format_validation_base@_WV?$stream_output_adapter@_W@__crt_stdio_output@@@2@@__crt_stdio_output@@AAE_NXZ 1008ca50 f i libucrtd:output.obj
 0001:0008bb20       ?state_case_flag@?$output_processor@_WV?$stream_output_adapter@_W@__crt_stdio_output@@V?$positional_parameter_base@_WV?$stream_output_adapter@_W@__crt_stdio_output@@@2@@__crt_stdio_output@@AAE_NXZ 1008cb20 f i libucrtd:output.obj
 0001:0008bbf0       ?state_case_flag@?$output_processor@_WV?$stream_output_adapter@_W@__crt_stdio_output@@V?$standard_base@_WV?$stream_output_adapter@_W@__crt_stdio_output@@@2@@__crt_stdio_output@@AAE_NXZ 1008cbf0 f i libucrtd:output.obj
 0001:0008bcc0       ?state_case_flag@?$output_processor@_WV?$string_output_adapter@_W@__crt_stdio_output@@V?$format_validation_base@_WV?$string_output_adapter@_W@__crt_stdio_output@@@2@@__crt_stdio_output@@AAE_NXZ 1008ccc0 f i libucrtd:output.obj
 0001:0008bd90       ?state_case_flag@?$output_processor@_WV?$string_output_adapter@_W@__crt_stdio_output@@V?$positional_parameter_base@_WV?$string_output_adapter@_W@__crt_stdio_output@@@2@@__crt_stdio_output@@AAE_NXZ 1008cd90 f i libucrtd:output.obj
 0001:0008be60       ?state_case_flag@?$output_processor@_WV?$string_output_adapter@_W@__crt_stdio_output@@V?$standard_base@_WV?$string_output_adapter@_W@__crt_stdio_output@@@2@@__crt_stdio_output@@AAE_NXZ 1008ce60 f i libucrtd:output.obj
 0001:0008bf30       ?state_case_normal@?$output_processor@DV?$stream_output_adapter@D@__crt_stdio_output@@V?$format_validation_base@DV?$stream_output_adapter@D@__crt_stdio_output@@@2@@__crt_stdio_output@@AAE_NXZ 1008cf30 f i libucrtd:output.obj
 0001:0008c010       ?state_case_normal@?$output_processor@DV?$stream_output_adapter@D@__crt_stdio_output@@V?$positional_parameter_base@DV?$stream_output_adapter@D@__crt_stdio_output@@@2@@__crt_stdio_output@@AAE_NXZ 1008d010 f i libucrtd:output.obj
 0001:0008c0f0       ?state_case_normal@?$output_processor@DV?$stream_output_adapter@D@__crt_stdio_output@@V?$standard_base@DV?$stream_output_adapter@D@__crt_stdio_output@@@2@@__crt_stdio_output@@AAE_NXZ 1008d0f0 f i libucrtd:output.obj
 0001:0008c1d0       ?state_case_normal@?$output_processor@DV?$string_output_adapter@D@__crt_stdio_output@@V?$format_validation_base@DV?$string_output_adapter@D@__crt_stdio_output@@@2@@__crt_stdio_output@@AAE_NXZ 1008d1d0 f i libucrtd:output.obj
 0001:0008c2b0       ?state_case_normal@?$output_processor@DV?$string_output_adapter@D@__crt_stdio_output@@V?$positional_parameter_base@DV?$string_output_adapter@D@__crt_stdio_output@@@2@@__crt_stdio_output@@AAE_NXZ 1008d2b0 f i libucrtd:output.obj
 0001:0008c390       ?state_case_normal@?$output_processor@DV?$string_output_adapter@D@__crt_stdio_output@@V?$standard_base@DV?$string_output_adapter@D@__crt_stdio_output@@@2@@__crt_stdio_output@@AAE_NXZ 1008d390 f i libucrtd:output.obj
 0001:0008c470       ?state_case_normal@?$output_processor@_WV?$stream_output_adapter@_W@__crt_stdio_output@@V?$format_validation_base@_WV?$stream_output_adapter@_W@__crt_stdio_output@@@2@@__crt_stdio_output@@AAE_NXZ 1008d470 f i libucrtd:output.obj
 0001:0008c550       ?state_case_normal@?$output_processor@_WV?$stream_output_adapter@_W@__crt_stdio_output@@V?$positional_parameter_base@_WV?$stream_output_adapter@_W@__crt_stdio_output@@@2@@__crt_stdio_output@@AAE_NXZ 1008d550 f i libucrtd:output.obj
 0001:0008c630       ?state_case_normal@?$output_processor@_WV?$stream_output_adapter@_W@__crt_stdio_output@@V?$standard_base@_WV?$stream_output_adapter@_W@__crt_stdio_output@@@2@@__crt_stdio_output@@AAE_NXZ 1008d630 f i libucrtd:output.obj
 0001:0008c710       ?state_case_normal@?$output_processor@_WV?$string_output_adapter@_W@__crt_stdio_output@@V?$format_validation_base@_WV?$string_output_adapter@_W@__crt_stdio_output@@@2@@__crt_stdio_output@@AAE_NXZ 1008d710 f i libucrtd:output.obj
 0001:0008c7f0       ?state_case_normal@?$output_processor@_WV?$string_output_adapter@_W@__crt_stdio_output@@V?$positional_parameter_base@_WV?$string_output_adapter@_W@__crt_stdio_output@@@2@@__crt_stdio_output@@AAE_NXZ 1008d7f0 f i libucrtd:output.obj
 0001:0008c8d0       ?state_case_normal@?$output_processor@_WV?$string_output_adapter@_W@__crt_stdio_output@@V?$standard_base@_WV?$string_output_adapter@_W@__crt_stdio_output@@@2@@__crt_stdio_output@@AAE_NXZ 1008d8d0 f i libucrtd:output.obj
 0001:0008c9b0       ?state_case_normal_common@?$output_processor@DV?$stream_output_adapter@D@__crt_stdio_output@@V?$format_validation_base@DV?$stream_output_adapter@D@__crt_stdio_output@@@2@@__crt_stdio_output@@AAE_NXZ 1008d9b0 f i libucrtd:output.obj
 0001:0008ca10       ?state_case_normal_common@?$output_processor@DV?$stream_output_adapter@D@__crt_stdio_output@@V?$positional_parameter_base@DV?$stream_output_adapter@D@__crt_stdio_output@@@2@@__crt_stdio_output@@AAE_NXZ 1008da10 f i libucrtd:output.obj
 0001:0008ca70       ?state_case_normal_common@?$output_processor@DV?$stream_output_adapter@D@__crt_stdio_output@@V?$standard_base@DV?$stream_output_adapter@D@__crt_stdio_output@@@2@@__crt_stdio_output@@AAE_NXZ 1008da70 f i libucrtd:output.obj
 0001:0008cad0       ?state_case_normal_common@?$output_processor@DV?$string_output_adapter@D@__crt_stdio_output@@V?$format_validation_base@DV?$string_output_adapter@D@__crt_stdio_output@@@2@@__crt_stdio_output@@AAE_NXZ 1008dad0 f i libucrtd:output.obj
 0001:0008cb30       ?state_case_normal_common@?$output_processor@DV?$string_output_adapter@D@__crt_stdio_output@@V?$positional_parameter_base@DV?$string_output_adapter@D@__crt_stdio_output@@@2@@__crt_stdio_output@@AAE_NXZ 1008db30 f i libucrtd:output.obj
 0001:0008cb90       ?state_case_normal_common@?$output_processor@DV?$string_output_adapter@D@__crt_stdio_output@@V?$standard_base@DV?$string_output_adapter@D@__crt_stdio_output@@@2@@__crt_stdio_output@@AAE_NXZ 1008db90 f i libucrtd:output.obj
 0001:0008cbf0       ?state_case_normal_common@?$output_processor@_WV?$stream_output_adapter@_W@__crt_stdio_output@@V?$format_validation_base@_WV?$stream_output_adapter@_W@__crt_stdio_output@@@2@@__crt_stdio_output@@AAE_NXZ 1008dbf0 f i libucrtd:output.obj
 0001:0008cc50       ?state_case_normal_common@?$output_processor@_WV?$stream_output_adapter@_W@__crt_stdio_output@@V?$positional_parameter_base@_WV?$stream_output_adapter@_W@__crt_stdio_output@@@2@@__crt_stdio_output@@AAE_NXZ 1008dc50 f i libucrtd:output.obj
 0001:0008ccb0       ?state_case_normal_common@?$output_processor@_WV?$stream_output_adapter@_W@__crt_stdio_output@@V?$standard_base@_WV?$stream_output_adapter@_W@__crt_stdio_output@@@2@@__crt_stdio_output@@AAE_NXZ 1008dcb0 f i libucrtd:output.obj
 0001:0008cd10       ?state_case_normal_common@?$output_processor@_WV?$string_output_adapter@_W@__crt_stdio_output@@V?$format_validation_base@_WV?$string_output_adapter@_W@__crt_stdio_output@@@2@@__crt_stdio_output@@AAE_NXZ 1008dd10 f i libucrtd:output.obj
 0001:0008cd70       ?state_case_normal_common@?$output_processor@_WV?$string_output_adapter@_W@__crt_stdio_output@@V?$positional_parameter_base@_WV?$string_output_adapter@_W@__crt_stdio_output@@@2@@__crt_stdio_output@@AAE_NXZ 1008dd70 f i libucrtd:output.obj
 0001:0008cdd0       ?state_case_normal_common@?$output_processor@_WV?$string_output_adapter@_W@__crt_stdio_output@@V?$standard_base@_WV?$string_output_adapter@_W@__crt_stdio_output@@@2@@__crt_stdio_output@@AAE_NXZ 1008ddd0 f i libucrtd:output.obj
 0001:0008ce30       ?state_case_normal_tchar@?$output_processor@DV?$stream_output_adapter@D@__crt_stdio_output@@V?$format_validation_base@DV?$stream_output_adapter@D@__crt_stdio_output@@@2@@__crt_stdio_output@@AAE_ND@Z 1008de30 f i libucrtd:output.obj
 0001:0008cf60       ?state_case_normal_tchar@?$output_processor@DV?$stream_output_adapter@D@__crt_stdio_output@@V?$positional_parameter_base@DV?$stream_output_adapter@D@__crt_stdio_output@@@2@@__crt_stdio_output@@AAE_ND@Z 1008df60 f i libucrtd:output.obj
 0001:0008d090       ?state_case_normal_tchar@?$output_processor@DV?$stream_output_adapter@D@__crt_stdio_output@@V?$standard_base@DV?$stream_output_adapter@D@__crt_stdio_output@@@2@@__crt_stdio_output@@AAE_ND@Z 1008e090 f i libucrtd:output.obj
 0001:0008d1c0       ?state_case_normal_tchar@?$output_processor@DV?$string_output_adapter@D@__crt_stdio_output@@V?$format_validation_base@DV?$string_output_adapter@D@__crt_stdio_output@@@2@@__crt_stdio_output@@AAE_ND@Z 1008e1c0 f i libucrtd:output.obj
 0001:0008d2f0       ?state_case_normal_tchar@?$output_processor@DV?$string_output_adapter@D@__crt_stdio_output@@V?$positional_parameter_base@DV?$string_output_adapter@D@__crt_stdio_output@@@2@@__crt_stdio_output@@AAE_ND@Z 1008e2f0 f i libucrtd:output.obj
 0001:0008d420       ?state_case_normal_tchar@?$output_processor@DV?$string_output_adapter@D@__crt_stdio_output@@V?$standard_base@DV?$string_output_adapter@D@__crt_stdio_output@@@2@@__crt_stdio_output@@AAE_ND@Z 1008e420 f i libucrtd:output.obj
 0001:0008d550       ?state_case_normal_tchar@?$output_processor@_WV?$stream_output_adapter@_W@__crt_stdio_output@@V?$format_validation_base@_WV?$stream_output_adapter@_W@__crt_stdio_output@@@2@@__crt_stdio_output@@AAE_N_W@Z 1008e550 f i libucrtd:output.obj
 0001:0008d570       ?state_case_normal_tchar@?$output_processor@_WV?$stream_output_adapter@_W@__crt_stdio_output@@V?$positional_parameter_base@_WV?$stream_output_adapter@_W@__crt_stdio_output@@@2@@__crt_stdio_output@@AAE_N_W@Z 1008e570 f i libucrtd:output.obj
 0001:0008d590       ?state_case_normal_tchar@?$output_processor@_WV?$stream_output_adapter@_W@__crt_stdio_output@@V?$standard_base@_WV?$stream_output_adapter@_W@__crt_stdio_output@@@2@@__crt_stdio_output@@AAE_N_W@Z 1008e590 f i libucrtd:output.obj
 0001:0008d5b0       ?state_case_normal_tchar@?$output_processor@_WV?$string_output_adapter@_W@__crt_stdio_output@@V?$format_validation_base@_WV?$string_output_adapter@_W@__crt_stdio_output@@@2@@__crt_stdio_output@@AAE_N_W@Z 1008e5b0 f i libucrtd:output.obj
 0001:0008d5d0       ?state_case_normal_tchar@?$output_processor@_WV?$string_output_adapter@_W@__crt_stdio_output@@V?$positional_parameter_base@_WV?$string_output_adapter@_W@__crt_stdio_output@@@2@@__crt_stdio_output@@AAE_N_W@Z 1008e5d0 f i libucrtd:output.obj
 0001:0008d5f0       ?state_case_normal_tchar@?$output_processor@_WV?$string_output_adapter@_W@__crt_stdio_output@@V?$standard_base@_WV?$string_output_adapter@_W@__crt_stdio_output@@@2@@__crt_stdio_output@@AAE_N_W@Z 1008e5f0 f i libucrtd:output.obj
 0001:0008d610       ?state_case_percent@?$output_processor@DV?$stream_output_adapter@D@__crt_stdio_output@@V?$format_validation_base@DV?$stream_output_adapter@D@__crt_stdio_output@@@2@@__crt_stdio_output@@AAE_NXZ 1008e610 f i libucrtd:output.obj
 0001:0008d670       ?state_case_percent@?$output_processor@DV?$stream_output_adapter@D@__crt_stdio_output@@V?$positional_parameter_base@DV?$stream_output_adapter@D@__crt_stdio_output@@@2@@__crt_stdio_output@@AAE_NXZ 1008e670 f i libucrtd:output.obj
 0001:0008d6d0       ?state_case_percent@?$output_processor@DV?$stream_output_adapter@D@__crt_stdio_output@@V?$standard_base@DV?$stream_output_adapter@D@__crt_stdio_output@@@2@@__crt_stdio_output@@AAE_NXZ 1008e6d0 f i libucrtd:output.obj
 0001:0008d730       ?state_case_percent@?$output_processor@DV?$string_output_adapter@D@__crt_stdio_output@@V?$format_validation_base@DV?$string_output_adapter@D@__crt_stdio_output@@@2@@__crt_stdio_output@@AAE_NXZ 1008e730 f i libucrtd:output.obj
 0001:0008d790       ?state_case_percent@?$output_processor@DV?$string_output_adapter@D@__crt_stdio_output@@V?$positional_parameter_base@DV?$string_output_adapter@D@__crt_stdio_output@@@2@@__crt_stdio_output@@AAE_NXZ 1008e790 f i libucrtd:output.obj
 0001:0008d7f0       ?state_case_percent@?$output_processor@DV?$string_output_adapter@D@__crt_stdio_output@@V?$standard_base@DV?$string_output_adapter@D@__crt_stdio_output@@@2@@__crt_stdio_output@@AAE_NXZ 1008e7f0 f i libucrtd:output.obj
 0001:0008d850       ?state_case_percent@?$output_processor@_WV?$stream_output_adapter@_W@__crt_stdio_output@@V?$format_validation_base@_WV?$stream_output_adapter@_W@__crt_stdio_output@@@2@@__crt_stdio_output@@AAE_NXZ 1008e850 f i libucrtd:output.obj
 0001:0008d8b0       ?state_case_percent@?$output_processor@_WV?$stream_output_adapter@_W@__crt_stdio_output@@V?$positional_parameter_base@_WV?$stream_output_adapter@_W@__crt_stdio_output@@@2@@__crt_stdio_output@@AAE_NXZ 1008e8b0 f i libucrtd:output.obj
 0001:0008d910       ?state_case_percent@?$output_processor@_WV?$stream_output_adapter@_W@__crt_stdio_output@@V?$standard_base@_WV?$stream_output_adapter@_W@__crt_stdio_output@@@2@@__crt_stdio_output@@AAE_NXZ 1008e910 f i libucrtd:output.obj
 0001:0008d970       ?state_case_percent@?$output_processor@_WV?$string_output_adapter@_W@__crt_stdio_output@@V?$format_validation_base@_WV?$string_output_adapter@_W@__crt_stdio_output@@@2@@__crt_stdio_output@@AAE_NXZ 1008e970 f i libucrtd:output.obj
 0001:0008d9d0       ?state_case_percent@?$output_processor@_WV?$string_output_adapter@_W@__crt_stdio_output@@V?$positional_parameter_base@_WV?$string_output_adapter@_W@__crt_stdio_output@@@2@@__crt_stdio_output@@AAE_NXZ 1008e9d0 f i libucrtd:output.obj
 0001:0008da30       ?state_case_percent@?$output_processor@_WV?$string_output_adapter@_W@__crt_stdio_output@@V?$standard_base@_WV?$string_output_adapter@_W@__crt_stdio_output@@@2@@__crt_stdio_output@@AAE_NXZ 1008ea30 f i libucrtd:output.obj
 0001:0008da90       ?state_case_precision@?$output_processor@DV?$stream_output_adapter@D@__crt_stdio_output@@V?$format_validation_base@DV?$stream_output_adapter@D@__crt_stdio_output@@@2@@__crt_stdio_output@@AAE_NXZ 1008ea90 f i libucrtd:output.obj
 0001:0008db10       ?state_case_precision@?$output_processor@DV?$stream_output_adapter@D@__crt_stdio_output@@V?$positional_parameter_base@DV?$stream_output_adapter@D@__crt_stdio_output@@@2@@__crt_stdio_output@@AAE_NXZ 1008eb10 f i libucrtd:output.obj
 0001:0008db90       ?state_case_precision@?$output_processor@DV?$stream_output_adapter@D@__crt_stdio_output@@V?$standard_base@DV?$stream_output_adapter@D@__crt_stdio_output@@@2@@__crt_stdio_output@@AAE_NXZ 1008eb90 f i libucrtd:output.obj
 0001:0008dc10       ?state_case_precision@?$output_processor@DV?$string_output_adapter@D@__crt_stdio_output@@V?$format_validation_base@DV?$string_output_adapter@D@__crt_stdio_output@@@2@@__crt_stdio_output@@AAE_NXZ 1008ec10 f i libucrtd:output.obj
 0001:0008dc90       ?state_case_precision@?$output_processor@DV?$string_output_adapter@D@__crt_stdio_output@@V?$positional_parameter_base@DV?$string_output_adapter@D@__crt_stdio_output@@@2@@__crt_stdio_output@@AAE_NXZ 1008ec90 f i libucrtd:output.obj
 0001:0008dd10       ?state_case_precision@?$output_processor@DV?$string_output_adapter@D@__crt_stdio_output@@V?$standard_base@DV?$string_output_adapter@D@__crt_stdio_output@@@2@@__crt_stdio_output@@AAE_NXZ 1008ed10 f i libucrtd:output.obj
 0001:0008dd90       ?state_case_precision@?$output_processor@_WV?$stream_output_adapter@_W@__crt_stdio_output@@V?$format_validation_base@_WV?$stream_output_adapter@_W@__crt_stdio_output@@@2@@__crt_stdio_output@@AAE_NXZ 1008ed90 f i libucrtd:output.obj
 0001:0008de10       ?state_case_precision@?$output_processor@_WV?$stream_output_adapter@_W@__crt_stdio_output@@V?$positional_parameter_base@_WV?$stream_output_adapter@_W@__crt_stdio_output@@@2@@__crt_stdio_output@@AAE_NXZ 1008ee10 f i libucrtd:output.obj
 0001:0008de90       ?state_case_precision@?$output_processor@_WV?$stream_output_adapter@_W@__crt_stdio_output@@V?$standard_base@_WV?$stream_output_adapter@_W@__crt_stdio_output@@@2@@__crt_stdio_output@@AAE_NXZ 1008ee90 f i libucrtd:output.obj
 0001:0008df10       ?state_case_precision@?$output_processor@_WV?$string_output_adapter@_W@__crt_stdio_output@@V?$format_validation_base@_WV?$string_output_adapter@_W@__crt_stdio_output@@@2@@__crt_stdio_output@@AAE_NXZ 1008ef10 f i libucrtd:output.obj
 0001:0008df90       ?state_case_precision@?$output_processor@_WV?$string_output_adapter@_W@__crt_stdio_output@@V?$positional_parameter_base@_WV?$string_output_adapter@_W@__crt_stdio_output@@@2@@__crt_stdio_output@@AAE_NXZ 1008ef90 f i libucrtd:output.obj
 0001:0008e010       ?state_case_precision@?$output_processor@_WV?$string_output_adapter@_W@__crt_stdio_output@@V?$standard_base@_WV?$string_output_adapter@_W@__crt_stdio_output@@@2@@__crt_stdio_output@@AAE_NXZ 1008f010 f i libucrtd:output.obj
 0001:0008e090       ?state_case_size@?$output_processor@DV?$stream_output_adapter@D@__crt_stdio_output@@V?$format_validation_base@DV?$stream_output_adapter@D@__crt_stdio_output@@@2@@__crt_stdio_output@@AAE_NXZ 1008f090 f i libucrtd:output.obj
 0001:0008e550       ?state_case_size@?$output_processor@DV?$stream_output_adapter@D@__crt_stdio_output@@V?$positional_parameter_base@DV?$stream_output_adapter@D@__crt_stdio_output@@@2@@__crt_stdio_output@@AAE_NXZ 1008f550 f i libucrtd:output.obj
 0001:0008ea10       ?state_case_size@?$output_processor@DV?$stream_output_adapter@D@__crt_stdio_output@@V?$standard_base@DV?$stream_output_adapter@D@__crt_stdio_output@@@2@@__crt_stdio_output@@AAE_NXZ 1008fa10 f i libucrtd:output.obj
 0001:0008eed0       ?state_case_size@?$output_processor@DV?$string_output_adapter@D@__crt_stdio_output@@V?$format_validation_base@DV?$string_output_adapter@D@__crt_stdio_output@@@2@@__crt_stdio_output@@AAE_NXZ 1008fed0 f i libucrtd:output.obj
 0001:0008f390       ?state_case_size@?$output_processor@DV?$string_output_adapter@D@__crt_stdio_output@@V?$positional_parameter_base@DV?$string_output_adapter@D@__crt_stdio_output@@@2@@__crt_stdio_output@@AAE_NXZ 10090390 f i libucrtd:output.obj
 0001:0008f850       ?state_case_size@?$output_processor@DV?$string_output_adapter@D@__crt_stdio_output@@V?$standard_base@DV?$string_output_adapter@D@__crt_stdio_output@@@2@@__crt_stdio_output@@AAE_NXZ 10090850 f i libucrtd:output.obj
 0001:0008fd10       ?state_case_size@?$output_processor@_WV?$stream_output_adapter@_W@__crt_stdio_output@@V?$format_validation_base@_WV?$stream_output_adapter@_W@__crt_stdio_output@@@2@@__crt_stdio_output@@AAE_NXZ 10090d10 f i libucrtd:output.obj
 0001:000901d0       ?state_case_size@?$output_processor@_WV?$stream_output_adapter@_W@__crt_stdio_output@@V?$positional_parameter_base@_WV?$stream_output_adapter@_W@__crt_stdio_output@@@2@@__crt_stdio_output@@AAE_NXZ 100911d0 f i libucrtd:output.obj
 0001:00090690       ?state_case_size@?$output_processor@_WV?$stream_output_adapter@_W@__crt_stdio_output@@V?$standard_base@_WV?$stream_output_adapter@_W@__crt_stdio_output@@@2@@__crt_stdio_output@@AAE_NXZ 10091690 f i libucrtd:output.obj
 0001:00090b50       ?state_case_size@?$output_processor@_WV?$string_output_adapter@_W@__crt_stdio_output@@V?$format_validation_base@_WV?$string_output_adapter@_W@__crt_stdio_output@@@2@@__crt_stdio_output@@AAE_NXZ 10091b50 f i libucrtd:output.obj
 0001:00091010       ?state_case_size@?$output_processor@_WV?$string_output_adapter@_W@__crt_stdio_output@@V?$positional_parameter_base@_WV?$string_output_adapter@_W@__crt_stdio_output@@@2@@__crt_stdio_output@@AAE_NXZ 10092010 f i libucrtd:output.obj
 0001:000914d0       ?state_case_size@?$output_processor@_WV?$string_output_adapter@_W@__crt_stdio_output@@V?$standard_base@_WV?$string_output_adapter@_W@__crt_stdio_output@@@2@@__crt_stdio_output@@AAE_NXZ 100924d0 f i libucrtd:output.obj
 0001:00091990       ?state_case_type@?$output_processor@DV?$stream_output_adapter@D@__crt_stdio_output@@V?$format_validation_base@DV?$stream_output_adapter@D@__crt_stdio_output@@@2@@__crt_stdio_output@@AAE_NXZ 10092990 f i libucrtd:output.obj
 0001:00091e30       ?state_case_type@?$output_processor@DV?$stream_output_adapter@D@__crt_stdio_output@@V?$positional_parameter_base@DV?$stream_output_adapter@D@__crt_stdio_output@@@2@@__crt_stdio_output@@AAE_NXZ 10092e30 f i libucrtd:output.obj
 0001:000922d0       ?state_case_type@?$output_processor@DV?$stream_output_adapter@D@__crt_stdio_output@@V?$standard_base@DV?$stream_output_adapter@D@__crt_stdio_output@@@2@@__crt_stdio_output@@AAE_NXZ 100932d0 f i libucrtd:output.obj
 0001:00092770       ?state_case_type@?$output_processor@DV?$string_output_adapter@D@__crt_stdio_output@@V?$format_validation_base@DV?$string_output_adapter@D@__crt_stdio_output@@@2@@__crt_stdio_output@@AAE_NXZ 10093770 f i libucrtd:output.obj
 0001:00092c10       ?state_case_type@?$output_processor@DV?$string_output_adapter@D@__crt_stdio_output@@V?$positional_parameter_base@DV?$string_output_adapter@D@__crt_stdio_output@@@2@@__crt_stdio_output@@AAE_NXZ 10093c10 f i libucrtd:output.obj
 0001:000930b0       ?state_case_type@?$output_processor@DV?$string_output_adapter@D@__crt_stdio_output@@V?$standard_base@DV?$string_output_adapter@D@__crt_stdio_output@@@2@@__crt_stdio_output@@AAE_NXZ 100940b0 f i libucrtd:output.obj
 0001:00093550       ?state_case_type@?$output_processor@_WV?$stream_output_adapter@_W@__crt_stdio_output@@V?$format_validation_base@_WV?$stream_output_adapter@_W@__crt_stdio_output@@@2@@__crt_stdio_output@@AAE_NXZ 10094550 f i libucrtd:output.obj
 0001:00093a20       ?state_case_type@?$output_processor@_WV?$stream_output_adapter@_W@__crt_stdio_output@@V?$positional_parameter_base@_WV?$stream_output_adapter@_W@__crt_stdio_output@@@2@@__crt_stdio_output@@AAE_NXZ 10094a20 f i libucrtd:output.obj
 0001:00093ef0       ?state_case_type@?$output_processor@_WV?$stream_output_adapter@_W@__crt_stdio_output@@V?$standard_base@_WV?$stream_output_adapter@_W@__crt_stdio_output@@@2@@__crt_stdio_output@@AAE_NXZ 10094ef0 f i libucrtd:output.obj
 0001:000943c0       ?state_case_type@?$output_processor@_WV?$string_output_adapter@_W@__crt_stdio_output@@V?$format_validation_base@_WV?$string_output_adapter@_W@__crt_stdio_output@@@2@@__crt_stdio_output@@AAE_NXZ 100953c0 f i libucrtd:output.obj
 0001:00094890       ?state_case_type@?$output_processor@_WV?$string_output_adapter@_W@__crt_stdio_output@@V?$positional_parameter_base@_WV?$string_output_adapter@_W@__crt_stdio_output@@@2@@__crt_stdio_output@@AAE_NXZ 10095890 f i libucrtd:output.obj
 0001:00094d60       ?state_case_type@?$output_processor@_WV?$string_output_adapter@_W@__crt_stdio_output@@V?$standard_base@_WV?$string_output_adapter@_W@__crt_stdio_output@@@2@@__crt_stdio_output@@AAE_NXZ 10095d60 f i libucrtd:output.obj
 0001:00095230       ?state_case_width@?$output_processor@DV?$stream_output_adapter@D@__crt_stdio_output@@V?$format_validation_base@DV?$stream_output_adapter@D@__crt_stdio_output@@@2@@__crt_stdio_output@@AAE_NXZ 10096230 f i libucrtd:output.obj
 0001:000952c0       ?state_case_width@?$output_processor@DV?$stream_output_adapter@D@__crt_stdio_output@@V?$positional_parameter_base@DV?$stream_output_adapter@D@__crt_stdio_output@@@2@@__crt_stdio_output@@AAE_NXZ 100962c0 f i libucrtd:output.obj
 0001:00095350       ?state_case_width@?$output_processor@DV?$stream_output_adapter@D@__crt_stdio_output@@V?$standard_base@DV?$stream_output_adapter@D@__crt_stdio_output@@@2@@__crt_stdio_output@@AAE_NXZ 10096350 f i libucrtd:output.obj
 0001:000953e0       ?state_case_width@?$output_processor@DV?$string_output_adapter@D@__crt_stdio_output@@V?$format_validation_base@DV?$string_output_adapter@D@__crt_stdio_output@@@2@@__crt_stdio_output@@AAE_NXZ 100963e0 f i libucrtd:output.obj
 0001:00095470       ?state_case_width@?$output_processor@DV?$string_output_adapter@D@__crt_stdio_output@@V?$positional_parameter_base@DV?$string_output_adapter@D@__crt_stdio_output@@@2@@__crt_stdio_output@@AAE_NXZ 10096470 f i libucrtd:output.obj
 0001:00095500       ?state_case_width@?$output_processor@DV?$string_output_adapter@D@__crt_stdio_output@@V?$standard_base@DV?$string_output_adapter@D@__crt_stdio_output@@@2@@__crt_stdio_output@@AAE_NXZ 10096500 f i libucrtd:output.obj
 0001:00095590       ?state_case_width@?$output_processor@_WV?$stream_output_adapter@_W@__crt_stdio_output@@V?$format_validation_base@_WV?$stream_output_adapter@_W@__crt_stdio_output@@@2@@__crt_stdio_output@@AAE_NXZ 10096590 f i libucrtd:output.obj
 0001:00095620       ?state_case_width@?$output_processor@_WV?$stream_output_adapter@_W@__crt_stdio_output@@V?$positional_parameter_base@_WV?$stream_output_adapter@_W@__crt_stdio_output@@@2@@__crt_stdio_output@@AAE_NXZ 10096620 f i libucrtd:output.obj
 0001:000956b0       ?state_case_width@?$output_processor@_WV?$stream_output_adapter@_W@__crt_stdio_output@@V?$standard_base@_WV?$stream_output_adapter@_W@__crt_stdio_output@@@2@@__crt_stdio_output@@AAE_NXZ 100966b0 f i libucrtd:output.obj
 0001:00095740       ?state_case_width@?$output_processor@_WV?$string_output_adapter@_W@__crt_stdio_output@@V?$format_validation_base@_WV?$string_output_adapter@_W@__crt_stdio_output@@@2@@__crt_stdio_output@@AAE_NXZ 10096740 f i libucrtd:output.obj
 0001:000957d0       ?state_case_width@?$output_processor@_WV?$string_output_adapter@_W@__crt_stdio_output@@V?$positional_parameter_base@_WV?$string_output_adapter@_W@__crt_stdio_output@@@2@@__crt_stdio_output@@AAE_NXZ 100967d0 f i libucrtd:output.obj
 0001:00095860       ?state_case_width@?$output_processor@_WV?$string_output_adapter@_W@__crt_stdio_output@@V?$standard_base@_WV?$string_output_adapter@_W@__crt_stdio_output@@@2@@__crt_stdio_output@@AAE_NXZ 10096860 f i libucrtd:output.obj
 0001:000958f0       ?state_count@?$format_validation_base@DV?$stream_output_adapter@D@__crt_stdio_output@@@__crt_stdio_output@@KAIXZ 100968f0 f i libucrtd:output.obj
 0001:00095900       ?state_count@?$format_validation_base@DV?$string_output_adapter@D@__crt_stdio_output@@@__crt_stdio_output@@KAIXZ 10096900 f i libucrtd:output.obj
 0001:00095910       ?state_count@?$format_validation_base@_WV?$stream_output_adapter@_W@__crt_stdio_output@@@__crt_stdio_output@@KAIXZ 10096910 f i libucrtd:output.obj
 0001:00095920       ?state_count@?$format_validation_base@_WV?$string_output_adapter@_W@__crt_stdio_output@@@__crt_stdio_output@@KAIXZ 10096920 f i libucrtd:output.obj
 0001:00095930       ?state_count@?$standard_base@DV?$stream_output_adapter@D@__crt_stdio_output@@@__crt_stdio_output@@KAIXZ 10096930 f i libucrtd:output.obj
 0001:00095940       ?state_count@?$standard_base@DV?$string_output_adapter@D@__crt_stdio_output@@@__crt_stdio_output@@KAIXZ 10096940 f i libucrtd:output.obj
 0001:00095950       ?state_count@?$standard_base@_WV?$stream_output_adapter@_W@__crt_stdio_output@@@__crt_stdio_output@@KAIXZ 10096950 f i libucrtd:output.obj
 0001:00095960       ?state_count@?$standard_base@_WV?$string_output_adapter@_W@__crt_stdio_output@@@__crt_stdio_output@@KAIXZ 10096960 f i libucrtd:output.obj
 0001:00095970       ?state_transition_table@?$format_validation_base@DV?$stream_output_adapter@D@__crt_stdio_output@@@__crt_stdio_output@@KAPBEXZ 10096970 f i libucrtd:output.obj
 0001:00095980       ?state_transition_table@?$format_validation_base@DV?$string_output_adapter@D@__crt_stdio_output@@@__crt_stdio_output@@KAPBEXZ 10096980 f i libucrtd:output.obj
 0001:00095990       ?state_transition_table@?$format_validation_base@_WV?$stream_output_adapter@_W@__crt_stdio_output@@@__crt_stdio_output@@KAPBEXZ 10096990 f i libucrtd:output.obj
 0001:000959a0       ?state_transition_table@?$format_validation_base@_WV?$string_output_adapter@_W@__crt_stdio_output@@@__crt_stdio_output@@KAPBEXZ 100969a0 f i libucrtd:output.obj
 0001:000959b0       ?state_transition_table@?$standard_base@DV?$stream_output_adapter@D@__crt_stdio_output@@@__crt_stdio_output@@KAPBEXZ 100969b0 f i libucrtd:output.obj
 0001:000959c0       ?state_transition_table@?$standard_base@DV?$string_output_adapter@D@__crt_stdio_output@@@__crt_stdio_output@@KAPBEXZ 100969c0 f i libucrtd:output.obj
 0001:000959d0       ?state_transition_table@?$standard_base@_WV?$stream_output_adapter@_W@__crt_stdio_output@@@__crt_stdio_output@@KAPBEXZ 100969d0 f i libucrtd:output.obj
 0001:000959e0       ?state_transition_table@?$standard_base@_WV?$string_output_adapter@_W@__crt_stdio_output@@@__crt_stdio_output@@KAPBEXZ 100969e0 f i libucrtd:output.obj
 0001:000959f0       ?to_integer_size@__crt_stdio_output@@YAIW4length_modifier@1@@Z 100969f0 f i libucrtd:output.obj
 0001:00095ac0       ?type_case_X@?$output_processor@DV?$stream_output_adapter@D@__crt_stdio_output@@V?$format_validation_base@DV?$stream_output_adapter@D@__crt_stdio_output@@@2@@__crt_stdio_output@@AAE_NXZ 10096ac0 f i libucrtd:output.obj
 0001:00095ae0       ?type_case_X@?$output_processor@DV?$stream_output_adapter@D@__crt_stdio_output@@V?$positional_parameter_base@DV?$stream_output_adapter@D@__crt_stdio_output@@@2@@__crt_stdio_output@@AAE_NXZ 10096ae0 f i libucrtd:output.obj
 0001:00095b00       ?type_case_X@?$output_processor@DV?$stream_output_adapter@D@__crt_stdio_output@@V?$standard_base@DV?$stream_output_adapter@D@__crt_stdio_output@@@2@@__crt_stdio_output@@AAE_NXZ 10096b00 f i libucrtd:output.obj
 0001:00095b20       ?type_case_X@?$output_processor@DV?$string_output_adapter@D@__crt_stdio_output@@V?$format_validation_base@DV?$string_output_adapter@D@__crt_stdio_output@@@2@@__crt_stdio_output@@AAE_NXZ 10096b20 f i libucrtd:output.obj
 0001:00095b40       ?type_case_X@?$output_processor@DV?$string_output_adapter@D@__crt_stdio_output@@V?$positional_parameter_base@DV?$string_output_adapter@D@__crt_stdio_output@@@2@@__crt_stdio_output@@AAE_NXZ 10096b40 f i libucrtd:output.obj
 0001:00095b60       ?type_case_X@?$output_processor@DV?$string_output_adapter@D@__crt_stdio_output@@V?$standard_base@DV?$string_output_adapter@D@__crt_stdio_output@@@2@@__crt_stdio_output@@AAE_NXZ 10096b60 f i libucrtd:output.obj
 0001:00095b80       ?type_case_X@?$output_processor@_WV?$stream_output_adapter@_W@__crt_stdio_output@@V?$format_validation_base@_WV?$stream_output_adapter@_W@__crt_stdio_output@@@2@@__crt_stdio_output@@AAE_NXZ 10096b80 f i libucrtd:output.obj
 0001:00095ba0       ?type_case_X@?$output_processor@_WV?$stream_output_adapter@_W@__crt_stdio_output@@V?$positional_parameter_base@_WV?$stream_output_adapter@_W@__crt_stdio_output@@@2@@__crt_stdio_output@@AAE_NXZ 10096ba0 f i libucrtd:output.obj
 0001:00095bc0       ?type_case_X@?$output_processor@_WV?$stream_output_adapter@_W@__crt_stdio_output@@V?$standard_base@_WV?$stream_output_adapter@_W@__crt_stdio_output@@@2@@__crt_stdio_output@@AAE_NXZ 10096bc0 f i libucrtd:output.obj
 0001:00095be0       ?type_case_X@?$output_processor@_WV?$string_output_adapter@_W@__crt_stdio_output@@V?$format_validation_base@_WV?$string_output_adapter@_W@__crt_stdio_output@@@2@@__crt_stdio_output@@AAE_NXZ 10096be0 f i libucrtd:output.obj
 0001:00095c00       ?type_case_X@?$output_processor@_WV?$string_output_adapter@_W@__crt_stdio_output@@V?$positional_parameter_base@_WV?$string_output_adapter@_W@__crt_stdio_output@@@2@@__crt_stdio_output@@AAE_NXZ 10096c00 f i libucrtd:output.obj
 0001:00095c20       ?type_case_X@?$output_processor@_WV?$string_output_adapter@_W@__crt_stdio_output@@V?$standard_base@_WV?$string_output_adapter@_W@__crt_stdio_output@@@2@@__crt_stdio_output@@AAE_NXZ 10096c20 f i libucrtd:output.obj
 0001:00095c40       ?type_case_Z@?$output_processor@DV?$stream_output_adapter@D@__crt_stdio_output@@V?$format_validation_base@DV?$stream_output_adapter@D@__crt_stdio_output@@@2@@__crt_stdio_output@@AAE_NXZ 10096c40 f i libucrtd:output.obj
 0001:00095d70       ?type_case_Z@?$output_processor@DV?$stream_output_adapter@D@__crt_stdio_output@@V?$positional_parameter_base@DV?$stream_output_adapter@D@__crt_stdio_output@@@2@@__crt_stdio_output@@AAE_NXZ 10096d70 f i libucrtd:output.obj
 0001:00095ea0       ?type_case_Z@?$output_processor@DV?$stream_output_adapter@D@__crt_stdio_output@@V?$standard_base@DV?$stream_output_adapter@D@__crt_stdio_output@@@2@@__crt_stdio_output@@AAE_NXZ 10096ea0 f i libucrtd:output.obj
 0001:00095fd0       ?type_case_Z@?$output_processor@DV?$string_output_adapter@D@__crt_stdio_output@@V?$format_validation_base@DV?$string_output_adapter@D@__crt_stdio_output@@@2@@__crt_stdio_output@@AAE_NXZ 10096fd0 f i libucrtd:output.obj
 0001:00096100       ?type_case_Z@?$output_processor@DV?$string_output_adapter@D@__crt_stdio_output@@V?$positional_parameter_base@DV?$string_output_adapter@D@__crt_stdio_output@@@2@@__crt_stdio_output@@AAE_NXZ 10097100 f i libucrtd:output.obj
 0001:00096230       ?type_case_Z@?$output_processor@DV?$string_output_adapter@D@__crt_stdio_output@@V?$standard_base@DV?$string_output_adapter@D@__crt_stdio_output@@@2@@__crt_stdio_output@@AAE_NXZ 10097230 f i libucrtd:output.obj
 0001:00096360       ?type_case_Z@?$output_processor@_WV?$stream_output_adapter@_W@__crt_stdio_output@@V?$format_validation_base@_WV?$stream_output_adapter@_W@__crt_stdio_output@@@2@@__crt_stdio_output@@AAE_NXZ 10097360 f i libucrtd:output.obj
 0001:00096490       ?type_case_Z@?$output_processor@_WV?$stream_output_adapter@_W@__crt_stdio_output@@V?$positional_parameter_base@_WV?$stream_output_adapter@_W@__crt_stdio_output@@@2@@__crt_stdio_output@@AAE_NXZ 10097490 f i libucrtd:output.obj
 0001:000965c0       ?type_case_Z@?$output_processor@_WV?$stream_output_adapter@_W@__crt_stdio_output@@V?$standard_base@_WV?$stream_output_adapter@_W@__crt_stdio_output@@@2@@__crt_stdio_output@@AAE_NXZ 100975c0 f i libucrtd:output.obj
 0001:000966f0       ?type_case_Z@?$output_processor@_WV?$string_output_adapter@_W@__crt_stdio_output@@V?$format_validation_base@_WV?$string_output_adapter@_W@__crt_stdio_output@@@2@@__crt_stdio_output@@AAE_NXZ 100976f0 f i libucrtd:output.obj
 0001:00096820       ?type_case_Z@?$output_processor@_WV?$string_output_adapter@_W@__crt_stdio_output@@V?$positional_parameter_base@_WV?$string_output_adapter@_W@__crt_stdio_output@@@2@@__crt_stdio_output@@AAE_NXZ 10097820 f i libucrtd:output.obj
 0001:00096950       ?type_case_Z@?$output_processor@_WV?$string_output_adapter@_W@__crt_stdio_output@@V?$standard_base@_WV?$string_output_adapter@_W@__crt_stdio_output@@@2@@__crt_stdio_output@@AAE_NXZ 10097950 f i libucrtd:output.obj
 0001:00096a80       ?type_case_a@?$output_processor@DV?$stream_output_adapter@D@__crt_stdio_output@@V?$format_validation_base@DV?$stream_output_adapter@D@__crt_stdio_output@@@2@@__crt_stdio_output@@AAE_NXZ 10097a80 f i libucrtd:output.obj
 0001:00096d70       ?type_case_a@?$output_processor@DV?$stream_output_adapter@D@__crt_stdio_output@@V?$positional_parameter_base@DV?$stream_output_adapter@D@__crt_stdio_output@@@2@@__crt_stdio_output@@AAE_NXZ 10097d70 f i libucrtd:output.obj
 0001:00097060       ?type_case_a@?$output_processor@DV?$stream_output_adapter@D@__crt_stdio_output@@V?$standard_base@DV?$stream_output_adapter@D@__crt_stdio_output@@@2@@__crt_stdio_output@@AAE_NXZ 10098060 f i libucrtd:output.obj
 0001:00097350       ?type_case_a@?$output_processor@DV?$string_output_adapter@D@__crt_stdio_output@@V?$format_validation_base@DV?$string_output_adapter@D@__crt_stdio_output@@@2@@__crt_stdio_output@@AAE_NXZ 10098350 f i libucrtd:output.obj
 0001:00097640       ?type_case_a@?$output_processor@DV?$string_output_adapter@D@__crt_stdio_output@@V?$positional_parameter_base@DV?$string_output_adapter@D@__crt_stdio_output@@@2@@__crt_stdio_output@@AAE_NXZ 10098640 f i libucrtd:output.obj
 0001:00097930       ?type_case_a@?$output_processor@DV?$string_output_adapter@D@__crt_stdio_output@@V?$standard_base@DV?$string_output_adapter@D@__crt_stdio_output@@@2@@__crt_stdio_output@@AAE_NXZ 10098930 f i libucrtd:output.obj
 0001:00097c20       ?type_case_a@?$output_processor@_WV?$stream_output_adapter@_W@__crt_stdio_output@@V?$format_validation_base@_WV?$stream_output_adapter@_W@__crt_stdio_output@@@2@@__crt_stdio_output@@AAE_NXZ 10098c20 f i libucrtd:output.obj
 0001:00097f20       ?type_case_a@?$output_processor@_WV?$stream_output_adapter@_W@__crt_stdio_output@@V?$positional_parameter_base@_WV?$stream_output_adapter@_W@__crt_stdio_output@@@2@@__crt_stdio_output@@AAE_NXZ 10098f20 f i libucrtd:output.obj
 0001:00098220       ?type_case_a@?$output_processor@_WV?$stream_output_adapter@_W@__crt_stdio_output@@V?$standard_base@_WV?$stream_output_adapter@_W@__crt_stdio_output@@@2@@__crt_stdio_output@@AAE_NXZ 10099220 f i libucrtd:output.obj
 0001:00098520       ?type_case_a@?$output_processor@_WV?$string_output_adapter@_W@__crt_stdio_output@@V?$format_validation_base@_WV?$string_output_adapter@_W@__crt_stdio_output@@@2@@__crt_stdio_output@@AAE_NXZ 10099520 f i libucrtd:output.obj
 0001:00098820       ?type_case_a@?$output_processor@_WV?$string_output_adapter@_W@__crt_stdio_output@@V?$positional_parameter_base@_WV?$string_output_adapter@_W@__crt_stdio_output@@@2@@__crt_stdio_output@@AAE_NXZ 10099820 f i libucrtd:output.obj
 0001:00098b20       ?type_case_a@?$output_processor@_WV?$string_output_adapter@_W@__crt_stdio_output@@V?$standard_base@_WV?$string_output_adapter@_W@__crt_stdio_output@@@2@@__crt_stdio_output@@AAE_NXZ 10099b20 f i libucrtd:output.obj
 0001:00098e20       ?type_case_c@?$output_processor@DV?$stream_output_adapter@D@__crt_stdio_output@@V?$format_validation_base@DV?$stream_output_adapter@D@__crt_stdio_output@@@2@@__crt_stdio_output@@AAE_NXZ 10099e20 f i libucrtd:output.obj
 0001:00098e40       ?type_case_c@?$output_processor@DV?$stream_output_adapter@D@__crt_stdio_output@@V?$positional_parameter_base@DV?$stream_output_adapter@D@__crt_stdio_output@@@2@@__crt_stdio_output@@AAE_NXZ 10099e40 f i libucrtd:output.obj
 0001:00098e60       ?type_case_c@?$output_processor@DV?$stream_output_adapter@D@__crt_stdio_output@@V?$standard_base@DV?$stream_output_adapter@D@__crt_stdio_output@@@2@@__crt_stdio_output@@AAE_NXZ 10099e60 f i libucrtd:output.obj
 0001:00098e80       ?type_case_c@?$output_processor@DV?$string_output_adapter@D@__crt_stdio_output@@V?$format_validation_base@DV?$string_output_adapter@D@__crt_stdio_output@@@2@@__crt_stdio_output@@AAE_NXZ 10099e80 f i libucrtd:output.obj
 0001:00098ea0       ?type_case_c@?$output_processor@DV?$string_output_adapter@D@__crt_stdio_output@@V?$positional_parameter_base@DV?$string_output_adapter@D@__crt_stdio_output@@@2@@__crt_stdio_output@@AAE_NXZ 10099ea0 f i libucrtd:output.obj
 0001:00098ec0       ?type_case_c@?$output_processor@DV?$string_output_adapter@D@__crt_stdio_output@@V?$standard_base@DV?$string_output_adapter@D@__crt_stdio_output@@@2@@__crt_stdio_output@@AAE_NXZ 10099ec0 f i libucrtd:output.obj
 0001:00098ee0       ?type_case_c@?$output_processor@_WV?$stream_output_adapter@_W@__crt_stdio_output@@V?$format_validation_base@_WV?$stream_output_adapter@_W@__crt_stdio_output@@@2@@__crt_stdio_output@@AAE_NXZ 10099ee0 f i libucrtd:output.obj
 0001:00098f00       ?type_case_c@?$output_processor@_WV?$stream_output_adapter@_W@__crt_stdio_output@@V?$positional_parameter_base@_WV?$stream_output_adapter@_W@__crt_stdio_output@@@2@@__crt_stdio_output@@AAE_NXZ 10099f00 f i libucrtd:output.obj
 0001:00098f20       ?type_case_c@?$output_processor@_WV?$stream_output_adapter@_W@__crt_stdio_output@@V?$standard_base@_WV?$stream_output_adapter@_W@__crt_stdio_output@@@2@@__crt_stdio_output@@AAE_NXZ 10099f20 f i libucrtd:output.obj
 0001:00098f40       ?type_case_c@?$output_processor@_WV?$string_output_adapter@_W@__crt_stdio_output@@V?$format_validation_base@_WV?$string_output_adapter@_W@__crt_stdio_output@@@2@@__crt_stdio_output@@AAE_NXZ 10099f40 f i libucrtd:output.obj
 0001:00098f60       ?type_case_c@?$output_processor@_WV?$string_output_adapter@_W@__crt_stdio_output@@V?$positional_parameter_base@_WV?$string_output_adapter@_W@__crt_stdio_output@@@2@@__crt_stdio_output@@AAE_NXZ 10099f60 f i libucrtd:output.obj
 0001:00098f80       ?type_case_c@?$output_processor@_WV?$string_output_adapter@_W@__crt_stdio_output@@V?$standard_base@_WV?$string_output_adapter@_W@__crt_stdio_output@@@2@@__crt_stdio_output@@AAE_NXZ 10099f80 f i libucrtd:output.obj
 0001:00098fa0       ?type_case_c_tchar@?$output_processor@DV?$stream_output_adapter@D@__crt_stdio_output@@V?$format_validation_base@DV?$stream_output_adapter@D@__crt_stdio_output@@@2@@__crt_stdio_output@@AAE_ND@Z 10099fa0 f i libucrtd:output.obj
 0001:000990f0       ?type_case_c_tchar@?$output_processor@DV?$stream_output_adapter@D@__crt_stdio_output@@V?$positional_parameter_base@DV?$stream_output_adapter@D@__crt_stdio_output@@@2@@__crt_stdio_output@@AAE_ND@Z 1009a0f0 f i libucrtd:output.obj
 0001:00099240       ?type_case_c_tchar@?$output_processor@DV?$stream_output_adapter@D@__crt_stdio_output@@V?$standard_base@DV?$stream_output_adapter@D@__crt_stdio_output@@@2@@__crt_stdio_output@@AAE_ND@Z 1009a240 f i libucrtd:output.obj
 0001:00099390       ?type_case_c_tchar@?$output_processor@DV?$string_output_adapter@D@__crt_stdio_output@@V?$format_validation_base@DV?$string_output_adapter@D@__crt_stdio_output@@@2@@__crt_stdio_output@@AAE_ND@Z 1009a390 f i libucrtd:output.obj
 0001:000994e0       ?type_case_c_tchar@?$output_processor@DV?$string_output_adapter@D@__crt_stdio_output@@V?$positional_parameter_base@DV?$string_output_adapter@D@__crt_stdio_output@@@2@@__crt_stdio_output@@AAE_ND@Z 1009a4e0 f i libucrtd:output.obj
 0001:00099630       ?type_case_c_tchar@?$output_processor@DV?$string_output_adapter@D@__crt_stdio_output@@V?$standard_base@DV?$string_output_adapter@D@__crt_stdio_output@@@2@@__crt_stdio_output@@AAE_ND@Z 1009a630 f i libucrtd:output.obj
 0001:00099780       ?type_case_c_tchar@?$output_processor@_WV?$stream_output_adapter@_W@__crt_stdio_output@@V?$format_validation_base@_WV?$stream_output_adapter@_W@__crt_stdio_output@@@2@@__crt_stdio_output@@AAE_N_W@Z 1009a780 f i libucrtd:output.obj
 0001:000998c0       ?type_case_c_tchar@?$output_processor@_WV?$stream_output_adapter@_W@__crt_stdio_output@@V?$positional_parameter_base@_WV?$stream_output_adapter@_W@__crt_stdio_output@@@2@@__crt_stdio_output@@AAE_N_W@Z 1009a8c0 f i libucrtd:output.obj
 0001:00099a00       ?type_case_c_tchar@?$output_processor@_WV?$stream_output_adapter@_W@__crt_stdio_output@@V?$standard_base@_WV?$stream_output_adapter@_W@__crt_stdio_output@@@2@@__crt_stdio_output@@AAE_N_W@Z 1009aa00 f i libucrtd:output.obj
 0001:00099b40       ?type_case_c_tchar@?$output_processor@_WV?$string_output_adapter@_W@__crt_stdio_output@@V?$format_validation_base@_WV?$string_output_adapter@_W@__crt_stdio_output@@@2@@__crt_stdio_output@@AAE_N_W@Z 1009ab40 f i libucrtd:output.obj
 0001:00099c80       ?type_case_c_tchar@?$output_processor@_WV?$string_output_adapter@_W@__crt_stdio_output@@V?$positional_parameter_base@_WV?$string_output_adapter@_W@__crt_stdio_output@@@2@@__crt_stdio_output@@AAE_N_W@Z 1009ac80 f i libucrtd:output.obj
 0001:00099dc0       ?type_case_c_tchar@?$output_processor@_WV?$string_output_adapter@_W@__crt_stdio_output@@V?$standard_base@_WV?$string_output_adapter@_W@__crt_stdio_output@@@2@@__crt_stdio_output@@AAE_N_W@Z 1009adc0 f i libucrtd:output.obj
 0001:00099f00       ?type_case_d@?$output_processor@DV?$stream_output_adapter@D@__crt_stdio_output@@V?$format_validation_base@DV?$stream_output_adapter@D@__crt_stdio_output@@@2@@__crt_stdio_output@@AAE_NXZ 1009af00 f i libucrtd:output.obj
 0001:00099f30       ?type_case_d@?$output_processor@DV?$stream_output_adapter@D@__crt_stdio_output@@V?$positional_parameter_base@DV?$stream_output_adapter@D@__crt_stdio_output@@@2@@__crt_stdio_output@@AAE_NXZ 1009af30 f i libucrtd:output.obj
 0001:00099f60       ?type_case_d@?$output_processor@DV?$stream_output_adapter@D@__crt_stdio_output@@V?$standard_base@DV?$stream_output_adapter@D@__crt_stdio_output@@@2@@__crt_stdio_output@@AAE_NXZ 1009af60 f i libucrtd:output.obj
 0001:00099f90       ?type_case_d@?$output_processor@DV?$string_output_adapter@D@__crt_stdio_output@@V?$format_validation_base@DV?$string_output_adapter@D@__crt_stdio_output@@@2@@__crt_stdio_output@@AAE_NXZ 1009af90 f i libucrtd:output.obj
 0001:00099fc0       ?type_case_d@?$output_processor@DV?$string_output_adapter@D@__crt_stdio_output@@V?$positional_parameter_base@DV?$string_output_adapter@D@__crt_stdio_output@@@2@@__crt_stdio_output@@AAE_NXZ 1009afc0 f i libucrtd:output.obj
 0001:00099ff0       ?type_case_d@?$output_processor@DV?$string_output_adapter@D@__crt_stdio_output@@V?$standard_base@DV?$string_output_adapter@D@__crt_stdio_output@@@2@@__crt_stdio_output@@AAE_NXZ 1009aff0 f i libucrtd:output.obj
 0001:0009a020       ?type_case_d@?$output_processor@_WV?$stream_output_adapter@_W@__crt_stdio_output@@V?$format_validation_base@_WV?$stream_output_adapter@_W@__crt_stdio_output@@@2@@__crt_stdio_output@@AAE_NXZ 1009b020 f i libucrtd:output.obj
 0001:0009a050       ?type_case_d@?$output_processor@_WV?$stream_output_adapter@_W@__crt_stdio_output@@V?$positional_parameter_base@_WV?$stream_output_adapter@_W@__crt_stdio_output@@@2@@__crt_stdio_output@@AAE_NXZ 1009b050 f i libucrtd:output.obj
 0001:0009a080       ?type_case_d@?$output_processor@_WV?$stream_output_adapter@_W@__crt_stdio_output@@V?$standard_base@_WV?$stream_output_adapter@_W@__crt_stdio_output@@@2@@__crt_stdio_output@@AAE_NXZ 1009b080 f i libucrtd:output.obj
 0001:0009a0b0       ?type_case_d@?$output_processor@_WV?$string_output_adapter@_W@__crt_stdio_output@@V?$format_validation_base@_WV?$string_output_adapter@_W@__crt_stdio_output@@@2@@__crt_stdio_output@@AAE_NXZ 1009b0b0 f i libucrtd:output.obj
 0001:0009a0e0       ?type_case_d@?$output_processor@_WV?$string_output_adapter@_W@__crt_stdio_output@@V?$positional_parameter_base@_WV?$string_output_adapter@_W@__crt_stdio_output@@@2@@__crt_stdio_output@@AAE_NXZ 1009b0e0 f i libucrtd:output.obj
 0001:0009a110       ?type_case_d@?$output_processor@_WV?$string_output_adapter@_W@__crt_stdio_output@@V?$standard_base@_WV?$string_output_adapter@_W@__crt_stdio_output@@@2@@__crt_stdio_output@@AAE_NXZ 1009b110 f i libucrtd:output.obj
 0001:0009a140       ?type_case_integer@?$output_processor@DV?$stream_output_adapter@D@__crt_stdio_output@@V?$format_validation_base@DV?$stream_output_adapter@D@__crt_stdio_output@@@2@@__crt_stdio_output@@AAE_NI_N@Z 1009b140 f i libucrtd:output.obj
 0001:0009a550       ?type_case_integer@?$output_processor@DV?$stream_output_adapter@D@__crt_stdio_output@@V?$positional_parameter_base@DV?$stream_output_adapter@D@__crt_stdio_output@@@2@@__crt_stdio_output@@AAE_NI_N@Z 1009b550 f i libucrtd:output.obj
 0001:0009a960       ?type_case_integer@?$output_processor@DV?$stream_output_adapter@D@__crt_stdio_output@@V?$standard_base@DV?$stream_output_adapter@D@__crt_stdio_output@@@2@@__crt_stdio_output@@AAE_NI_N@Z 1009b960 f i libucrtd:output.obj
 0001:0009ad70       ?type_case_integer@?$output_processor@DV?$string_output_adapter@D@__crt_stdio_output@@V?$format_validation_base@DV?$string_output_adapter@D@__crt_stdio_output@@@2@@__crt_stdio_output@@AAE_NI_N@Z 1009bd70 f i libucrtd:output.obj
 0001:0009b180       ?type_case_integer@?$output_processor@DV?$string_output_adapter@D@__crt_stdio_output@@V?$positional_parameter_base@DV?$string_output_adapter@D@__crt_stdio_output@@@2@@__crt_stdio_output@@AAE_NI_N@Z 1009c180 f i libucrtd:output.obj
 0001:0009b590       ?type_case_integer@?$output_processor@DV?$string_output_adapter@D@__crt_stdio_output@@V?$standard_base@DV?$string_output_adapter@D@__crt_stdio_output@@@2@@__crt_stdio_output@@AAE_NI_N@Z 1009c590 f i libucrtd:output.obj
 0001:0009b9a0       ?type_case_integer@?$output_processor@_WV?$stream_output_adapter@_W@__crt_stdio_output@@V?$format_validation_base@_WV?$stream_output_adapter@_W@__crt_stdio_output@@@2@@__crt_stdio_output@@AAE_NI_N@Z 1009c9a0 f i libucrtd:output.obj
 0001:0009bdb0       ?type_case_integer@?$output_processor@_WV?$stream_output_adapter@_W@__crt_stdio_output@@V?$positional_parameter_base@_WV?$stream_output_adapter@_W@__crt_stdio_output@@@2@@__crt_stdio_output@@AAE_NI_N@Z 1009cdb0 f i libucrtd:output.obj
 0001:0009c1c0       ?type_case_integer@?$output_processor@_WV?$stream_output_adapter@_W@__crt_stdio_output@@V?$standard_base@_WV?$stream_output_adapter@_W@__crt_stdio_output@@@2@@__crt_stdio_output@@AAE_NI_N@Z 1009d1c0 f i libucrtd:output.obj
 0001:0009c5d0       ?type_case_integer@?$output_processor@_WV?$string_output_adapter@_W@__crt_stdio_output@@V?$format_validation_base@_WV?$string_output_adapter@_W@__crt_stdio_output@@@2@@__crt_stdio_output@@AAE_NI_N@Z 1009d5d0 f i libucrtd:output.obj
 0001:0009c9e0       ?type_case_integer@?$output_processor@_WV?$string_output_adapter@_W@__crt_stdio_output@@V?$positional_parameter_base@_WV?$string_output_adapter@_W@__crt_stdio_output@@@2@@__crt_stdio_output@@AAE_NI_N@Z 1009d9e0 f i libucrtd:output.obj
 0001:0009cdf0       ?type_case_integer@?$output_processor@_WV?$string_output_adapter@_W@__crt_stdio_output@@V?$standard_base@_WV?$string_output_adapter@_W@__crt_stdio_output@@@2@@__crt_stdio_output@@AAE_NI_N@Z 1009ddf0 f i libucrtd:output.obj
 0001:0009d200       ?type_case_n@?$output_processor@DV?$stream_output_adapter@D@__crt_stdio_output@@V?$format_validation_base@DV?$stream_output_adapter@D@__crt_stdio_output@@@2@@__crt_stdio_output@@AAE_NXZ 1009e200 f i libucrtd:output.obj
 0001:0009d470       ?type_case_n@?$output_processor@DV?$stream_output_adapter@D@__crt_stdio_output@@V?$positional_parameter_base@DV?$stream_output_adapter@D@__crt_stdio_output@@@2@@__crt_stdio_output@@AAE_NXZ 1009e470 f i libucrtd:output.obj
 0001:0009d6e0       ?type_case_n@?$output_processor@DV?$stream_output_adapter@D@__crt_stdio_output@@V?$standard_base@DV?$stream_output_adapter@D@__crt_stdio_output@@@2@@__crt_stdio_output@@AAE_NXZ 1009e6e0 f i libucrtd:output.obj
 0001:0009d950       ?type_case_n@?$output_processor@DV?$string_output_adapter@D@__crt_stdio_output@@V?$format_validation_base@DV?$string_output_adapter@D@__crt_stdio_output@@@2@@__crt_stdio_output@@AAE_NXZ 1009e950 f i libucrtd:output.obj
 0001:0009dbc0       ?type_case_n@?$output_processor@DV?$string_output_adapter@D@__crt_stdio_output@@V?$positional_parameter_base@DV?$string_output_adapter@D@__crt_stdio_output@@@2@@__crt_stdio_output@@AAE_NXZ 1009ebc0 f i libucrtd:output.obj
 0001:0009de30       ?type_case_n@?$output_processor@DV?$string_output_adapter@D@__crt_stdio_output@@V?$standard_base@DV?$string_output_adapter@D@__crt_stdio_output@@@2@@__crt_stdio_output@@AAE_NXZ 1009ee30 f i libucrtd:output.obj
 0001:0009e0a0       ?type_case_n@?$output_processor@_WV?$stream_output_adapter@_W@__crt_stdio_output@@V?$format_validation_base@_WV?$stream_output_adapter@_W@__crt_stdio_output@@@2@@__crt_stdio_output@@AAE_NXZ 1009f0a0 f i libucrtd:output.obj
 0001:0009e310       ?type_case_n@?$output_processor@_WV?$stream_output_adapter@_W@__crt_stdio_output@@V?$positional_parameter_base@_WV?$stream_output_adapter@_W@__crt_stdio_output@@@2@@__crt_stdio_output@@AAE_NXZ 1009f310 f i libucrtd:output.obj
 0001:0009e580       ?type_case_n@?$output_processor@_WV?$stream_output_adapter@_W@__crt_stdio_output@@V?$standard_base@_WV?$stream_output_adapter@_W@__crt_stdio_output@@@2@@__crt_stdio_output@@AAE_NXZ 1009f580 f i libucrtd:output.obj
 0001:0009e7f0       ?type_case_n@?$output_processor@_WV?$string_output_adapter@_W@__crt_stdio_output@@V?$format_validation_base@_WV?$string_output_adapter@_W@__crt_stdio_output@@@2@@__crt_stdio_output@@AAE_NXZ 1009f7f0 f i libucrtd:output.obj
 0001:0009ea60       ?type_case_n@?$output_processor@_WV?$string_output_adapter@_W@__crt_stdio_output@@V?$positional_parameter_base@_WV?$string_output_adapter@_W@__crt_stdio_output@@@2@@__crt_stdio_output@@AAE_NXZ 1009fa60 f i libucrtd:output.obj
 0001:0009ecd0       ?type_case_n@?$output_processor@_WV?$string_output_adapter@_W@__crt_stdio_output@@V?$standard_base@_WV?$string_output_adapter@_W@__crt_stdio_output@@@2@@__crt_stdio_output@@AAE_NXZ 1009fcd0 f i libucrtd:output.obj
 0001:0009ef40       ?type_case_o@?$output_processor@DV?$stream_output_adapter@D@__crt_stdio_output@@V?$format_validation_base@DV?$stream_output_adapter@D@__crt_stdio_output@@@2@@__crt_stdio_output@@AAE_NXZ 1009ff40 f i libucrtd:output.obj
 0001:0009ef90       ?type_case_o@?$output_processor@DV?$stream_output_adapter@D@__crt_stdio_output@@V?$positional_parameter_base@DV?$stream_output_adapter@D@__crt_stdio_output@@@2@@__crt_stdio_output@@AAE_NXZ 1009ff90 f i libucrtd:output.obj
 0001:0009efe0       ?type_case_o@?$output_processor@DV?$stream_output_adapter@D@__crt_stdio_output@@V?$standard_base@DV?$stream_output_adapter@D@__crt_stdio_output@@@2@@__crt_stdio_output@@AAE_NXZ 1009ffe0 f i libucrtd:output.obj
 0001:0009f030       ?type_case_o@?$output_processor@DV?$string_output_adapter@D@__crt_stdio_output@@V?$format_validation_base@DV?$string_output_adapter@D@__crt_stdio_output@@@2@@__crt_stdio_output@@AAE_NXZ 100a0030 f i libucrtd:output.obj
 0001:0009f080       ?type_case_o@?$output_processor@DV?$string_output_adapter@D@__crt_stdio_output@@V?$positional_parameter_base@DV?$string_output_adapter@D@__crt_stdio_output@@@2@@__crt_stdio_output@@AAE_NXZ 100a0080 f i libucrtd:output.obj
 0001:0009f0d0       ?type_case_o@?$output_processor@DV?$string_output_adapter@D@__crt_stdio_output@@V?$standard_base@DV?$string_output_adapter@D@__crt_stdio_output@@@2@@__crt_stdio_output@@AAE_NXZ 100a00d0 f i libucrtd:output.obj
 0001:0009f120       ?type_case_o@?$output_processor@_WV?$stream_output_adapter@_W@__crt_stdio_output@@V?$format_validation_base@_WV?$stream_output_adapter@_W@__crt_stdio_output@@@2@@__crt_stdio_output@@AAE_NXZ 100a0120 f i libucrtd:output.obj
 0001:0009f170       ?type_case_o@?$output_processor@_WV?$stream_output_adapter@_W@__crt_stdio_output@@V?$positional_parameter_base@_WV?$stream_output_adapter@_W@__crt_stdio_output@@@2@@__crt_stdio_output@@AAE_NXZ 100a0170 f i libucrtd:output.obj
 0001:0009f1c0       ?type_case_o@?$output_processor@_WV?$stream_output_adapter@_W@__crt_stdio_output@@V?$standard_base@_WV?$stream_output_adapter@_W@__crt_stdio_output@@@2@@__crt_stdio_output@@AAE_NXZ 100a01c0 f i libucrtd:output.obj
 0001:0009f210       ?type_case_o@?$output_processor@_WV?$string_output_adapter@_W@__crt_stdio_output@@V?$format_validation_base@_WV?$string_output_adapter@_W@__crt_stdio_output@@@2@@__crt_stdio_output@@AAE_NXZ 100a0210 f i libucrtd:output.obj
 0001:0009f260       ?type_case_o@?$output_processor@_WV?$string_output_adapter@_W@__crt_stdio_output@@V?$positional_parameter_base@_WV?$string_output_adapter@_W@__crt_stdio_output@@@2@@__crt_stdio_output@@AAE_NXZ 100a0260 f i libucrtd:output.obj
 0001:0009f2b0       ?type_case_o@?$output_processor@_WV?$string_output_adapter@_W@__crt_stdio_output@@V?$standard_base@_WV?$string_output_adapter@_W@__crt_stdio_output@@@2@@__crt_stdio_output@@AAE_NXZ 100a02b0 f i libucrtd:output.obj
 0001:0009f300       ?type_case_p@?$output_processor@DV?$stream_output_adapter@D@__crt_stdio_output@@V?$format_validation_base@DV?$stream_output_adapter@D@__crt_stdio_output@@@2@@__crt_stdio_output@@AAE_NXZ 100a0300 f i libucrtd:output.obj
 0001:0009f340       ?type_case_p@?$output_processor@DV?$stream_output_adapter@D@__crt_stdio_output@@V?$positional_parameter_base@DV?$stream_output_adapter@D@__crt_stdio_output@@@2@@__crt_stdio_output@@AAE_NXZ 100a0340 f i libucrtd:output.obj
 0001:0009f380       ?type_case_p@?$output_processor@DV?$stream_output_adapter@D@__crt_stdio_output@@V?$standard_base@DV?$stream_output_adapter@D@__crt_stdio_output@@@2@@__crt_stdio_output@@AAE_NXZ 100a0380 f i libucrtd:output.obj
 0001:0009f3c0       ?type_case_p@?$output_processor@DV?$string_output_adapter@D@__crt_stdio_output@@V?$format_validation_base@DV?$string_output_adapter@D@__crt_stdio_output@@@2@@__crt_stdio_output@@AAE_NXZ 100a03c0 f i libucrtd:output.obj
 0001:0009f400       ?type_case_p@?$output_processor@DV?$string_output_adapter@D@__crt_stdio_output@@V?$positional_parameter_base@DV?$string_output_adapter@D@__crt_stdio_output@@@2@@__crt_stdio_output@@AAE_NXZ 100a0400 f i libucrtd:output.obj
 0001:0009f440       ?type_case_p@?$output_processor@DV?$string_output_adapter@D@__crt_stdio_output@@V?$standard_base@DV?$string_output_adapter@D@__crt_stdio_output@@@2@@__crt_stdio_output@@AAE_NXZ 100a0440 f i libucrtd:output.obj
 0001:0009f480       ?type_case_p@?$output_processor@_WV?$stream_output_adapter@_W@__crt_stdio_output@@V?$format_validation_base@_WV?$stream_output_adapter@_W@__crt_stdio_output@@@2@@__crt_stdio_output@@AAE_NXZ 100a0480 f i libucrtd:output.obj
 0001:0009f4c0       ?type_case_p@?$output_processor@_WV?$stream_output_adapter@_W@__crt_stdio_output@@V?$positional_parameter_base@_WV?$stream_output_adapter@_W@__crt_stdio_output@@@2@@__crt_stdio_output@@AAE_NXZ 100a04c0 f i libucrtd:output.obj
 0001:0009f500       ?type_case_p@?$output_processor@_WV?$stream_output_adapter@_W@__crt_stdio_output@@V?$standard_base@_WV?$stream_output_adapter@_W@__crt_stdio_output@@@2@@__crt_stdio_output@@AAE_NXZ 100a0500 f i libucrtd:output.obj
 0001:0009f540       ?type_case_p@?$output_processor@_WV?$string_output_adapter@_W@__crt_stdio_output@@V?$format_validation_base@_WV?$string_output_adapter@_W@__crt_stdio_output@@@2@@__crt_stdio_output@@AAE_NXZ 100a0540 f i libucrtd:output.obj
 0001:0009f580       ?type_case_p@?$output_processor@_WV?$string_output_adapter@_W@__crt_stdio_output@@V?$positional_parameter_base@_WV?$string_output_adapter@_W@__crt_stdio_output@@@2@@__crt_stdio_output@@AAE_NXZ 100a0580 f i libucrtd:output.obj
 0001:0009f5c0       ?type_case_p@?$output_processor@_WV?$string_output_adapter@_W@__crt_stdio_output@@V?$standard_base@_WV?$string_output_adapter@_W@__crt_stdio_output@@@2@@__crt_stdio_output@@AAE_NXZ 100a05c0 f i libucrtd:output.obj
 0001:0009f600       ?type_case_s@?$output_processor@DV?$stream_output_adapter@D@__crt_stdio_output@@V?$format_validation_base@DV?$stream_output_adapter@D@__crt_stdio_output@@@2@@__crt_stdio_output@@AAE_NXZ 100a0600 f i libucrtd:output.obj
 0001:0009f730       ?type_case_s@?$output_processor@DV?$stream_output_adapter@D@__crt_stdio_output@@V?$positional_parameter_base@DV?$stream_output_adapter@D@__crt_stdio_output@@@2@@__crt_stdio_output@@AAE_NXZ 100a0730 f i libucrtd:output.obj
 0001:0009f860       ?type_case_s@?$output_processor@DV?$stream_output_adapter@D@__crt_stdio_output@@V?$standard_base@DV?$stream_output_adapter@D@__crt_stdio_output@@@2@@__crt_stdio_output@@AAE_NXZ 100a0860 f i libucrtd:output.obj
 0001:0009f990       ?type_case_s@?$output_processor@DV?$string_output_adapter@D@__crt_stdio_output@@V?$format_validation_base@DV?$string_output_adapter@D@__crt_stdio_output@@@2@@__crt_stdio_output@@AAE_NXZ 100a0990 f i libucrtd:output.obj
 0001:0009fac0       ?type_case_s@?$output_processor@DV?$string_output_adapter@D@__crt_stdio_output@@V?$positional_parameter_base@DV?$string_output_adapter@D@__crt_stdio_output@@@2@@__crt_stdio_output@@AAE_NXZ 100a0ac0 f i libucrtd:output.obj
 0001:0009fbf0       ?type_case_s@?$output_processor@DV?$string_output_adapter@D@__crt_stdio_output@@V?$standard_base@DV?$string_output_adapter@D@__crt_stdio_output@@@2@@__crt_stdio_output@@AAE_NXZ 100a0bf0 f i libucrtd:output.obj
 0001:0009fd20       ?type_case_s@?$output_processor@_WV?$stream_output_adapter@_W@__crt_stdio_output@@V?$format_validation_base@_WV?$stream_output_adapter@_W@__crt_stdio_output@@@2@@__crt_stdio_output@@AAE_NXZ 100a0d20 f i libucrtd:output.obj
 0001:0009fe50       ?type_case_s@?$output_processor@_WV?$stream_output_adapter@_W@__crt_stdio_output@@V?$positional_parameter_base@_WV?$stream_output_adapter@_W@__crt_stdio_output@@@2@@__crt_stdio_output@@AAE_NXZ 100a0e50 f i libucrtd:output.obj
 0001:0009ff80       ?type_case_s@?$output_processor@_WV?$stream_output_adapter@_W@__crt_stdio_output@@V?$standard_base@_WV?$stream_output_adapter@_W@__crt_stdio_output@@@2@@__crt_stdio_output@@AAE_NXZ 100a0f80 f i libucrtd:output.obj
 0001:000a00b0       ?type_case_s@?$output_processor@_WV?$string_output_adapter@_W@__crt_stdio_output@@V?$format_validation_base@_WV?$string_output_adapter@_W@__crt_stdio_output@@@2@@__crt_stdio_output@@AAE_NXZ 100a10b0 f i libucrtd:output.obj
 0001:000a01e0       ?type_case_s@?$output_processor@_WV?$string_output_adapter@_W@__crt_stdio_output@@V?$positional_parameter_base@_WV?$string_output_adapter@_W@__crt_stdio_output@@@2@@__crt_stdio_output@@AAE_NXZ 100a11e0 f i libucrtd:output.obj
 0001:000a0310       ?type_case_s@?$output_processor@_WV?$string_output_adapter@_W@__crt_stdio_output@@V?$standard_base@_WV?$string_output_adapter@_W@__crt_stdio_output@@@2@@__crt_stdio_output@@AAE_NXZ 100a1310 f i libucrtd:output.obj
 0001:000a0440       ?type_case_s_compute_narrow_string_length@?$output_processor@DV?$stream_output_adapter@D@__crt_stdio_output@@V?$format_validation_base@DV?$stream_output_adapter@D@__crt_stdio_output@@@2@@__crt_stdio_output@@ABEHHD@Z 100a1440 f i libucrtd:output.obj
 0001:000a0470       ?type_case_s_compute_narrow_string_length@?$output_processor@DV?$stream_output_adapter@D@__crt_stdio_output@@V?$positional_parameter_base@DV?$stream_output_adapter@D@__crt_stdio_output@@@2@@__crt_stdio_output@@ABEHHD@Z 100a1470 f i libucrtd:output.obj
 0001:000a04a0       ?type_case_s_compute_narrow_string_length@?$output_processor@DV?$stream_output_adapter@D@__crt_stdio_output@@V?$standard_base@DV?$stream_output_adapter@D@__crt_stdio_output@@@2@@__crt_stdio_output@@ABEHHD@Z 100a14a0 f i libucrtd:output.obj
 0001:000a04d0       ?type_case_s_compute_narrow_string_length@?$output_processor@DV?$string_output_adapter@D@__crt_stdio_output@@V?$format_validation_base@DV?$string_output_adapter@D@__crt_stdio_output@@@2@@__crt_stdio_output@@ABEHHD@Z 100a14d0 f i libucrtd:output.obj
 0001:000a0500       ?type_case_s_compute_narrow_string_length@?$output_processor@DV?$string_output_adapter@D@__crt_stdio_output@@V?$positional_parameter_base@DV?$string_output_adapter@D@__crt_stdio_output@@@2@@__crt_stdio_output@@ABEHHD@Z 100a1500 f i libucrtd:output.obj
 0001:000a0530       ?type_case_s_compute_narrow_string_length@?$output_processor@DV?$string_output_adapter@D@__crt_stdio_output@@V?$standard_base@DV?$string_output_adapter@D@__crt_stdio_output@@@2@@__crt_stdio_output@@ABEHHD@Z 100a1530 f i libucrtd:output.obj
 0001:000a0560       ?type_case_s_compute_narrow_string_length@?$output_processor@_WV?$stream_output_adapter@_W@__crt_stdio_output@@V?$format_validation_base@_WV?$stream_output_adapter@_W@__crt_stdio_output@@@2@@__crt_stdio_output@@ABEHH_W@Z 100a1560 f i libucrtd:output.obj
 0001:000a05f0       ?type_case_s_compute_narrow_string_length@?$output_processor@_WV?$stream_output_adapter@_W@__crt_stdio_output@@V?$positional_parameter_base@_WV?$stream_output_adapter@_W@__crt_stdio_output@@@2@@__crt_stdio_output@@ABEHH_W@Z 100a15f0 f i libucrtd:output.obj
 0001:000a0680       ?type_case_s_compute_narrow_string_length@?$output_processor@_WV?$stream_output_adapter@_W@__crt_stdio_output@@V?$standard_base@_WV?$stream_output_adapter@_W@__crt_stdio_output@@@2@@__crt_stdio_output@@ABEHH_W@Z 100a1680 f i libucrtd:output.obj
 0001:000a0710       ?type_case_s_compute_narrow_string_length@?$output_processor@_WV?$string_output_adapter@_W@__crt_stdio_output@@V?$format_validation_base@_WV?$string_output_adapter@_W@__crt_stdio_output@@@2@@__crt_stdio_output@@ABEHH_W@Z 100a1710 f i libucrtd:output.obj
 0001:000a07a0       ?type_case_s_compute_narrow_string_length@?$output_processor@_WV?$string_output_adapter@_W@__crt_stdio_output@@V?$positional_parameter_base@_WV?$string_output_adapter@_W@__crt_stdio_output@@@2@@__crt_stdio_output@@ABEHH_W@Z 100a17a0 f i libucrtd:output.obj
 0001:000a0830       ?type_case_s_compute_narrow_string_length@?$output_processor@_WV?$string_output_adapter@_W@__crt_stdio_output@@V?$standard_base@_WV?$string_output_adapter@_W@__crt_stdio_output@@@2@@__crt_stdio_output@@ABEHH_W@Z 100a1830 f i libucrtd:output.obj
 0001:000a08c0       ?type_case_u@?$output_processor@DV?$stream_output_adapter@D@__crt_stdio_output@@V?$format_validation_base@DV?$stream_output_adapter@D@__crt_stdio_output@@@2@@__crt_stdio_output@@AAE_NXZ 100a18c0 f i libucrtd:output.obj
 0001:000a08e0       ?type_case_u@?$output_processor@DV?$stream_output_adapter@D@__crt_stdio_output@@V?$positional_parameter_base@DV?$stream_output_adapter@D@__crt_stdio_output@@@2@@__crt_stdio_output@@AAE_NXZ 100a18e0 f i libucrtd:output.obj
 0001:000a0900       ?type_case_u@?$output_processor@DV?$stream_output_adapter@D@__crt_stdio_output@@V?$standard_base@DV?$stream_output_adapter@D@__crt_stdio_output@@@2@@__crt_stdio_output@@AAE_NXZ 100a1900 f i libucrtd:output.obj
 0001:000a0920       ?type_case_u@?$output_processor@DV?$string_output_adapter@D@__crt_stdio_output@@V?$format_validation_base@DV?$string_output_adapter@D@__crt_stdio_output@@@2@@__crt_stdio_output@@AAE_NXZ 100a1920 f i libucrtd:output.obj
 0001:000a0940       ?type_case_u@?$output_processor@DV?$string_output_adapter@D@__crt_stdio_output@@V?$positional_parameter_base@DV?$string_output_adapter@D@__crt_stdio_output@@@2@@__crt_stdio_output@@AAE_NXZ 100a1940 f i libucrtd:output.obj
 0001:000a0960       ?type_case_u@?$output_processor@DV?$string_output_adapter@D@__crt_stdio_output@@V?$standard_base@DV?$string_output_adapter@D@__crt_stdio_output@@@2@@__crt_stdio_output@@AAE_NXZ 100a1960 f i libucrtd:output.obj
 0001:000a0980       ?type_case_u@?$output_processor@_WV?$stream_output_adapter@_W@__crt_stdio_output@@V?$format_validation_base@_WV?$stream_output_adapter@_W@__crt_stdio_output@@@2@@__crt_stdio_output@@AAE_NXZ 100a1980 f i libucrtd:output.obj
 0001:000a09a0       ?type_case_u@?$output_processor@_WV?$stream_output_adapter@_W@__crt_stdio_output@@V?$positional_parameter_base@_WV?$stream_output_adapter@_W@__crt_stdio_output@@@2@@__crt_stdio_output@@AAE_NXZ 100a19a0 f i libucrtd:output.obj
 0001:000a09c0       ?type_case_u@?$output_processor@_WV?$stream_output_adapter@_W@__crt_stdio_output@@V?$standard_base@_WV?$stream_output_adapter@_W@__crt_stdio_output@@@2@@__crt_stdio_output@@AAE_NXZ 100a19c0 f i libucrtd:output.obj
 0001:000a09e0       ?type_case_u@?$output_processor@_WV?$string_output_adapter@_W@__crt_stdio_output@@V?$format_validation_base@_WV?$string_output_adapter@_W@__crt_stdio_output@@@2@@__crt_stdio_output@@AAE_NXZ 100a19e0 f i libucrtd:output.obj
 0001:000a0a00       ?type_case_u@?$output_processor@_WV?$string_output_adapter@_W@__crt_stdio_output@@V?$positional_parameter_base@_WV?$string_output_adapter@_W@__crt_stdio_output@@@2@@__crt_stdio_output@@AAE_NXZ 100a1a00 f i libucrtd:output.obj
 0001:000a0a20       ?type_case_u@?$output_processor@_WV?$string_output_adapter@_W@__crt_stdio_output@@V?$standard_base@_WV?$string_output_adapter@_W@__crt_stdio_output@@@2@@__crt_stdio_output@@AAE_NXZ 100a1a20 f i libucrtd:output.obj
 0001:000a0a40       ?type_case_x@?$output_processor@DV?$stream_output_adapter@D@__crt_stdio_output@@V?$format_validation_base@DV?$stream_output_adapter@D@__crt_stdio_output@@@2@@__crt_stdio_output@@AAE_NXZ 100a1a40 f i libucrtd:output.obj
 0001:000a0a60       ?type_case_x@?$output_processor@DV?$stream_output_adapter@D@__crt_stdio_output@@V?$positional_parameter_base@DV?$stream_output_adapter@D@__crt_stdio_output@@@2@@__crt_stdio_output@@AAE_NXZ 100a1a60 f i libucrtd:output.obj
 0001:000a0a80       ?type_case_x@?$output_processor@DV?$stream_output_adapter@D@__crt_stdio_output@@V?$standard_base@DV?$stream_output_adapter@D@__crt_stdio_output@@@2@@__crt_stdio_output@@AAE_NXZ 100a1a80 f i libucrtd:output.obj
 0001:000a0aa0       ?type_case_x@?$output_processor@DV?$string_output_adapter@D@__crt_stdio_output@@V?$format_validation_base@DV?$string_output_adapter@D@__crt_stdio_output@@@2@@__crt_stdio_output@@AAE_NXZ 100a1aa0 f i libucrtd:output.obj
 0001:000a0ac0       ?type_case_x@?$output_processor@DV?$string_output_adapter@D@__crt_stdio_output@@V?$positional_parameter_base@DV?$string_output_adapter@D@__crt_stdio_output@@@2@@__crt_stdio_output@@AAE_NXZ 100a1ac0 f i libucrtd:output.obj
 0001:000a0ae0       ?type_case_x@?$output_processor@DV?$string_output_adapter@D@__crt_stdio_output@@V?$standard_base@DV?$string_output_adapter@D@__crt_stdio_output@@@2@@__crt_stdio_output@@AAE_NXZ 100a1ae0 f i libucrtd:output.obj
 0001:000a0b00       ?type_case_x@?$output_processor@_WV?$stream_output_adapter@_W@__crt_stdio_output@@V?$format_validation_base@_WV?$stream_output_adapter@_W@__crt_stdio_output@@@2@@__crt_stdio_output@@AAE_NXZ 100a1b00 f i libucrtd:output.obj
 0001:000a0b20       ?type_case_x@?$output_processor@_WV?$stream_output_adapter@_W@__crt_stdio_output@@V?$positional_parameter_base@_WV?$stream_output_adapter@_W@__crt_stdio_output@@@2@@__crt_stdio_output@@AAE_NXZ 100a1b20 f i libucrtd:output.obj
 0001:000a0b40       ?type_case_x@?$output_processor@_WV?$stream_output_adapter@_W@__crt_stdio_output@@V?$standard_base@_WV?$stream_output_adapter@_W@__crt_stdio_output@@@2@@__crt_stdio_output@@AAE_NXZ 100a1b40 f i libucrtd:output.obj
 0001:000a0b60       ?type_case_x@?$output_processor@_WV?$string_output_adapter@_W@__crt_stdio_output@@V?$format_validation_base@_WV?$string_output_adapter@_W@__crt_stdio_output@@@2@@__crt_stdio_output@@AAE_NXZ 100a1b60 f i libucrtd:output.obj
 0001:000a0b80       ?type_case_x@?$output_processor@_WV?$string_output_adapter@_W@__crt_stdio_output@@V?$positional_parameter_base@_WV?$string_output_adapter@_W@__crt_stdio_output@@@2@@__crt_stdio_output@@AAE_NXZ 100a1b80 f i libucrtd:output.obj
 0001:000a0ba0       ?type_case_x@?$output_processor@_WV?$string_output_adapter@_W@__crt_stdio_output@@V?$standard_base@_WV?$string_output_adapter@_W@__crt_stdio_output@@@2@@__crt_stdio_output@@AAE_NXZ 100a1ba0 f i libucrtd:output.obj
 0001:000a0bc0       ?unset_flag@?$output_processor@DV?$stream_output_adapter@D@__crt_stdio_output@@V?$format_validation_base@DV?$stream_output_adapter@D@__crt_stdio_output@@@2@@__crt_stdio_output@@AAEXI@Z 100a1bc0 f i libucrtd:output.obj
 0001:000a0bf0       ?unset_flag@?$output_processor@DV?$stream_output_adapter@D@__crt_stdio_output@@V?$positional_parameter_base@DV?$stream_output_adapter@D@__crt_stdio_output@@@2@@__crt_stdio_output@@AAEXI@Z 100a1bf0 f i libucrtd:output.obj
 0001:000a0c20       ?unset_flag@?$output_processor@DV?$stream_output_adapter@D@__crt_stdio_output@@V?$standard_base@DV?$stream_output_adapter@D@__crt_stdio_output@@@2@@__crt_stdio_output@@AAEXI@Z 100a1c20 f i libucrtd:output.obj
 0001:000a0c50       ?unset_flag@?$output_processor@DV?$string_output_adapter@D@__crt_stdio_output@@V?$format_validation_base@DV?$string_output_adapter@D@__crt_stdio_output@@@2@@__crt_stdio_output@@AAEXI@Z 100a1c50 f i libucrtd:output.obj
 0001:000a0c80       ?unset_flag@?$output_processor@DV?$string_output_adapter@D@__crt_stdio_output@@V?$positional_parameter_base@DV?$string_output_adapter@D@__crt_stdio_output@@@2@@__crt_stdio_output@@AAEXI@Z 100a1c80 f i libucrtd:output.obj
 0001:000a0cb0       ?unset_flag@?$output_processor@DV?$string_output_adapter@D@__crt_stdio_output@@V?$standard_base@DV?$string_output_adapter@D@__crt_stdio_output@@@2@@__crt_stdio_output@@AAEXI@Z 100a1cb0 f i libucrtd:output.obj
 0001:000a0ce0       ?unset_flag@?$output_processor@_WV?$stream_output_adapter@_W@__crt_stdio_output@@V?$format_validation_base@_WV?$stream_output_adapter@_W@__crt_stdio_output@@@2@@__crt_stdio_output@@AAEXI@Z 100a1ce0 f i libucrtd:output.obj
 0001:000a0d10       ?unset_flag@?$output_processor@_WV?$stream_output_adapter@_W@__crt_stdio_output@@V?$positional_parameter_base@_WV?$stream_output_adapter@_W@__crt_stdio_output@@@2@@__crt_stdio_output@@AAEXI@Z 100a1d10 f i libucrtd:output.obj
 0001:000a0d40       ?unset_flag@?$output_processor@_WV?$stream_output_adapter@_W@__crt_stdio_output@@V?$standard_base@_WV?$stream_output_adapter@_W@__crt_stdio_output@@@2@@__crt_stdio_output@@AAEXI@Z 100a1d40 f i libucrtd:output.obj
 0001:000a0d70       ?unset_flag@?$output_processor@_WV?$string_output_adapter@_W@__crt_stdio_output@@V?$format_validation_base@_WV?$string_output_adapter@_W@__crt_stdio_output@@@2@@__crt_stdio_output@@AAEXI@Z 100a1d70 f i libucrtd:output.obj
 0001:000a0da0       ?unset_flag@?$output_processor@_WV?$string_output_adapter@_W@__crt_stdio_output@@V?$positional_parameter_base@_WV?$string_output_adapter@_W@__crt_stdio_output@@@2@@__crt_stdio_output@@AAEXI@Z 100a1da0 f i libucrtd:output.obj
 0001:000a0dd0       ?unset_flag@?$output_processor@_WV?$string_output_adapter@_W@__crt_stdio_output@@V?$standard_base@_WV?$string_output_adapter@_W@__crt_stdio_output@@@2@@__crt_stdio_output@@AAEXI@Z 100a1dd0 f i libucrtd:output.obj
 0001:000a0e00       ?update_field_width@?$positional_parameter_base@DV?$stream_output_adapter@D@__crt_stdio_output@@@__crt_stdio_output@@IAE_NXZ 100a1e00 f i libucrtd:output.obj
 0001:000a0fe0       ?update_field_width@?$positional_parameter_base@DV?$string_output_adapter@D@__crt_stdio_output@@@__crt_stdio_output@@IAE_NXZ 100a1fe0 f i libucrtd:output.obj
 0001:000a11c0       ?update_field_width@?$positional_parameter_base@_WV?$stream_output_adapter@_W@__crt_stdio_output@@@__crt_stdio_output@@IAE_NXZ 100a21c0 f i libucrtd:output.obj
 0001:000a13a0       ?update_field_width@?$positional_parameter_base@_WV?$string_output_adapter@_W@__crt_stdio_output@@@__crt_stdio_output@@IAE_NXZ 100a23a0 f i libucrtd:output.obj
 0001:000a1580       ?update_field_width@?$standard_base@DV?$stream_output_adapter@D@__crt_stdio_output@@@__crt_stdio_output@@IAE_NXZ 100a2580 f i libucrtd:output.obj
 0001:000a15b0       ?update_field_width@?$standard_base@DV?$string_output_adapter@D@__crt_stdio_output@@@__crt_stdio_output@@IAE_NXZ 100a25b0 f i libucrtd:output.obj
 0001:000a15e0       ?update_field_width@?$standard_base@_WV?$stream_output_adapter@_W@__crt_stdio_output@@@__crt_stdio_output@@IAE_NXZ 100a25e0 f i libucrtd:output.obj
 0001:000a1610       ?update_field_width@?$standard_base@_WV?$string_output_adapter@_W@__crt_stdio_output@@@__crt_stdio_output@@IAE_NXZ 100a2610 f i libucrtd:output.obj
 0001:000a1640       ?update_precision@?$positional_parameter_base@DV?$stream_output_adapter@D@__crt_stdio_output@@@__crt_stdio_output@@IAE_NXZ 100a2640 f i libucrtd:output.obj
 0001:000a1820       ?update_precision@?$positional_parameter_base@DV?$string_output_adapter@D@__crt_stdio_output@@@__crt_stdio_output@@IAE_NXZ 100a2820 f i libucrtd:output.obj
 0001:000a1a00       ?update_precision@?$positional_parameter_base@_WV?$stream_output_adapter@_W@__crt_stdio_output@@@__crt_stdio_output@@IAE_NXZ 100a2a00 f i libucrtd:output.obj
 0001:000a1be0       ?update_precision@?$positional_parameter_base@_WV?$string_output_adapter@_W@__crt_stdio_output@@@__crt_stdio_output@@IAE_NXZ 100a2be0 f i libucrtd:output.obj
 0001:000a1dc0       ?update_precision@?$standard_base@DV?$stream_output_adapter@D@__crt_stdio_output@@@__crt_stdio_output@@IAE_NXZ 100a2dc0 f i libucrtd:output.obj
 0001:000a1df0       ?update_precision@?$standard_base@DV?$string_output_adapter@D@__crt_stdio_output@@@__crt_stdio_output@@IAE_NXZ 100a2df0 f i libucrtd:output.obj
 0001:000a1e20       ?update_precision@?$standard_base@_WV?$stream_output_adapter@_W@__crt_stdio_output@@@__crt_stdio_output@@IAE_NXZ 100a2e20 f i libucrtd:output.obj
 0001:000a1e50       ?update_precision@?$standard_base@_WV?$string_output_adapter@_W@__crt_stdio_output@@@__crt_stdio_output@@IAE_NXZ 100a2e50 f i libucrtd:output.obj
 0001:000a1e80       ?valid@__crt_stdio_stream@@QBE_NXZ 100a2e80 f i libucrtd:output.obj
 0001:000a1ec0       ?validate@?$stream_output_adapter@D@__crt_stdio_output@@QBE_NXZ 100a2ec0 f i libucrtd:output.obj
 0001:000a1f90       ?validate@?$stream_output_adapter@_W@__crt_stdio_output@@QBE_NXZ 100a2f90 f i libucrtd:output.obj
 0001:000a2060       ?validate@?$string_output_adapter@D@__crt_stdio_output@@QBE_NXZ 100a3060 f i libucrtd:output.obj
 0001:000a2120       ?validate@?$string_output_adapter@_W@__crt_stdio_output@@QBE_NXZ 100a3120 f i libucrtd:output.obj
 0001:000a21e0       ?validate_and_store_parameter_data@?$positional_parameter_base@DV?$stream_output_adapter@D@__crt_stdio_output@@@__crt_stdio_output@@AAE_NAAUparameter_data@12@W4parameter_type@12@DW4length_modifier@2@@Z 100a31e0 f i libucrtd:output.obj
 0001:000a22f0       ?validate_and_store_parameter_data@?$positional_parameter_base@DV?$string_output_adapter@D@__crt_stdio_output@@@__crt_stdio_output@@AAE_NAAUparameter_data@12@W4parameter_type@12@DW4length_modifier@2@@Z 100a32f0 f i libucrtd:output.obj
 0001:000a2400       ?validate_and_store_parameter_data@?$positional_parameter_base@_WV?$stream_output_adapter@_W@__crt_stdio_output@@@__crt_stdio_output@@AAE_NAAUparameter_data@12@W4parameter_type@12@_WW4length_modifier@2@@Z 100a3400 f i libucrtd:output.obj
 0001:000a2510       ?validate_and_store_parameter_data@?$positional_parameter_base@_WV?$string_output_adapter@_W@__crt_stdio_output@@@__crt_stdio_output@@AAE_NAAUparameter_data@12@W4parameter_type@12@_WW4length_modifier@2@@Z 100a3510 f i libucrtd:output.obj
 0001:000a2620       ?validate_and_update_state_at_beginning_of_format_character@?$positional_parameter_base@DV?$stream_output_adapter@D@__crt_stdio_output@@@__crt_stdio_output@@IAE_NXZ 100a3620 f i libucrtd:output.obj
 0001:000a28d0       ?validate_and_update_state_at_beginning_of_format_character@?$positional_parameter_base@DV?$string_output_adapter@D@__crt_stdio_output@@@__crt_stdio_output@@IAE_NXZ 100a38d0 f i libucrtd:output.obj
 0001:000a2b80       ?validate_and_update_state_at_beginning_of_format_character@?$positional_parameter_base@_WV?$stream_output_adapter@_W@__crt_stdio_output@@@__crt_stdio_output@@IAE_NXZ 100a3b80 f i libucrtd:output.obj
 0001:000a2e30       ?validate_and_update_state_at_beginning_of_format_character@?$positional_parameter_base@_WV?$string_output_adapter@_W@__crt_stdio_output@@@__crt_stdio_output@@IAE_NXZ 100a3e30 f i libucrtd:output.obj
 0001:000a30e0       ?validate_and_update_state_at_beginning_of_format_character@?$standard_base@DV?$stream_output_adapter@D@__crt_stdio_output@@@__crt_stdio_output@@IAE_NXZ 100a40e0 f i libucrtd:output.obj
 0001:000a3100       ?validate_and_update_state_at_beginning_of_format_character@?$standard_base@DV?$string_output_adapter@D@__crt_stdio_output@@@__crt_stdio_output@@IAE_NXZ 100a4100 f i libucrtd:output.obj
 0001:000a3120       ?validate_and_update_state_at_beginning_of_format_character@?$standard_base@_WV?$stream_output_adapter@_W@__crt_stdio_output@@@__crt_stdio_output@@IAE_NXZ 100a4120 f i libucrtd:output.obj
 0001:000a3140       ?validate_and_update_state_at_beginning_of_format_character@?$standard_base@_WV?$string_output_adapter@_W@__crt_stdio_output@@@__crt_stdio_output@@IAE_NXZ 100a4140 f i libucrtd:output.obj
 0001:000a3160       ?validate_and_update_state_at_end_of_format_string@?$format_validation_base@DV?$stream_output_adapter@D@__crt_stdio_output@@@__crt_stdio_output@@IBE_NXZ 100a4160 f i libucrtd:output.obj
 0001:000a3220       ?validate_and_update_state_at_end_of_format_string@?$format_validation_base@DV?$string_output_adapter@D@__crt_stdio_output@@@__crt_stdio_output@@IBE_NXZ 100a4220 f i libucrtd:output.obj
 0001:000a32e0       ?validate_and_update_state_at_end_of_format_string@?$format_validation_base@_WV?$stream_output_adapter@_W@__crt_stdio_output@@@__crt_stdio_output@@IBE_NXZ 100a42e0 f i libucrtd:output.obj
 0001:000a33a0       ?validate_and_update_state_at_end_of_format_string@?$format_validation_base@_WV?$string_output_adapter@_W@__crt_stdio_output@@@__crt_stdio_output@@IBE_NXZ 100a43a0 f i libucrtd:output.obj
 0001:000a3460       ?validate_and_update_state_at_end_of_format_string@?$positional_parameter_base@DV?$stream_output_adapter@D@__crt_stdio_output@@@__crt_stdio_output@@IAE_NXZ 100a4460 f i libucrtd:output.obj
 0001:000a3660       ?validate_and_update_state_at_end_of_format_string@?$positional_parameter_base@DV?$string_output_adapter@D@__crt_stdio_output@@@__crt_stdio_output@@IAE_NXZ 100a4660 f i libucrtd:output.obj
 0001:000a3860       ?validate_and_update_state_at_end_of_format_string@?$positional_parameter_base@_WV?$stream_output_adapter@_W@__crt_stdio_output@@@__crt_stdio_output@@IAE_NXZ 100a4860 f i libucrtd:output.obj
 0001:000a3a60       ?validate_and_update_state_at_end_of_format_string@?$positional_parameter_base@_WV?$string_output_adapter@_W@__crt_stdio_output@@@__crt_stdio_output@@IAE_NXZ 100a4a60 f i libucrtd:output.obj
 0001:000a3c60       ?validate_and_update_state_at_end_of_format_string@?$standard_base@DV?$stream_output_adapter@D@__crt_stdio_output@@@__crt_stdio_output@@IBE_NXZ 100a4c60 f i libucrtd:output.obj
 0001:000a3c80       ?validate_and_update_state_at_end_of_format_string@?$standard_base@DV?$string_output_adapter@D@__crt_stdio_output@@@__crt_stdio_output@@IBE_NXZ 100a4c80 f i libucrtd:output.obj
 0001:000a3ca0       ?validate_and_update_state_at_end_of_format_string@?$standard_base@_WV?$stream_output_adapter@_W@__crt_stdio_output@@@__crt_stdio_output@@IBE_NXZ 100a4ca0 f i libucrtd:output.obj
 0001:000a3cc0       ?validate_and_update_state_at_end_of_format_string@?$standard_base@_WV?$string_output_adapter@_W@__crt_stdio_output@@@__crt_stdio_output@@IBE_NXZ 100a4cc0 f i libucrtd:output.obj
 0001:000a3ce0       ?validate_state_for_type_case_a@?$positional_parameter_base@DV?$stream_output_adapter@D@__crt_stdio_output@@@__crt_stdio_output@@IAE_NXZ 100a4ce0 f i libucrtd:output.obj
 0001:000a3e10       ?validate_state_for_type_case_a@?$positional_parameter_base@DV?$string_output_adapter@D@__crt_stdio_output@@@__crt_stdio_output@@IAE_NXZ 100a4e10 f i libucrtd:output.obj
 0001:000a3f40       ?validate_state_for_type_case_a@?$positional_parameter_base@_WV?$stream_output_adapter@_W@__crt_stdio_output@@@__crt_stdio_output@@IAE_NXZ 100a4f40 f i libucrtd:output.obj
 0001:000a4070       ?validate_state_for_type_case_a@?$positional_parameter_base@_WV?$string_output_adapter@_W@__crt_stdio_output@@@__crt_stdio_output@@IAE_NXZ 100a5070 f i libucrtd:output.obj
 0001:000a41a0       ?validate_state_for_type_case_a@?$standard_base@DV?$stream_output_adapter@D@__crt_stdio_output@@@__crt_stdio_output@@IBE_NXZ 100a51a0 f i libucrtd:output.obj
 0001:000a41c0       ?validate_state_for_type_case_a@?$standard_base@DV?$string_output_adapter@D@__crt_stdio_output@@@__crt_stdio_output@@IBE_NXZ 100a51c0 f i libucrtd:output.obj
 0001:000a41e0       ?validate_state_for_type_case_a@?$standard_base@_WV?$stream_output_adapter@_W@__crt_stdio_output@@@__crt_stdio_output@@IBE_NXZ 100a51e0 f i libucrtd:output.obj
 0001:000a4200       ?validate_state_for_type_case_a@?$standard_base@_WV?$string_output_adapter@_W@__crt_stdio_output@@@__crt_stdio_output@@IBE_NXZ 100a5200 f i libucrtd:output.obj
 0001:000a4220       ?validate_stream_is_ansi_if_required@?$__acrt_stdio_char_traits@D@@SA_NQAU_iobuf@@@Z 100a5220 f i libucrtd:output.obj
 0001:000a43a0       ?validate_stream_is_ansi_if_required@?$__acrt_stdio_char_traits@_W@@SA_NQAU_iobuf@@@Z 100a53a0 f i libucrtd:output.obj
 0001:000a43b0       ?wide_null_string@?$output_processor@DV?$stream_output_adapter@D@__crt_stdio_output@@V?$format_validation_base@DV?$stream_output_adapter@D@__crt_stdio_output@@@2@@__crt_stdio_output@@CAPA_WXZ 100a53b0 f i libucrtd:output.obj
 0001:000a43c0       ?wide_null_string@?$output_processor@DV?$stream_output_adapter@D@__crt_stdio_output@@V?$positional_parameter_base@DV?$stream_output_adapter@D@__crt_stdio_output@@@2@@__crt_stdio_output@@CAPA_WXZ 100a53c0 f i libucrtd:output.obj
 0001:000a43d0       ?wide_null_string@?$output_processor@DV?$stream_output_adapter@D@__crt_stdio_output@@V?$standard_base@DV?$stream_output_adapter@D@__crt_stdio_output@@@2@@__crt_stdio_output@@CAPA_WXZ 100a53d0 f i libucrtd:output.obj
 0001:000a43e0       ?wide_null_string@?$output_processor@DV?$string_output_adapter@D@__crt_stdio_output@@V?$format_validation_base@DV?$string_output_adapter@D@__crt_stdio_output@@@2@@__crt_stdio_output@@CAPA_WXZ 100a53e0 f i libucrtd:output.obj
 0001:000a43f0       ?wide_null_string@?$output_processor@DV?$string_output_adapter@D@__crt_stdio_output@@V?$positional_parameter_base@DV?$string_output_adapter@D@__crt_stdio_output@@@2@@__crt_stdio_output@@CAPA_WXZ 100a53f0 f i libucrtd:output.obj
 0001:000a4400       ?wide_null_string@?$output_processor@DV?$string_output_adapter@D@__crt_stdio_output@@V?$standard_base@DV?$string_output_adapter@D@__crt_stdio_output@@@2@@__crt_stdio_output@@CAPA_WXZ 100a5400 f i libucrtd:output.obj
 0001:000a4410       ?wide_null_string@?$output_processor@_WV?$stream_output_adapter@_W@__crt_stdio_output@@V?$format_validation_base@_WV?$stream_output_adapter@_W@__crt_stdio_output@@@2@@__crt_stdio_output@@CAPA_WXZ 100a5410 f i libucrtd:output.obj
 0001:000a4420       ?wide_null_string@?$output_processor@_WV?$stream_output_adapter@_W@__crt_stdio_output@@V?$positional_parameter_base@_WV?$stream_output_adapter@_W@__crt_stdio_output@@@2@@__crt_stdio_output@@CAPA_WXZ 100a5420 f i libucrtd:output.obj
 0001:000a4430       ?wide_null_string@?$output_processor@_WV?$stream_output_adapter@_W@__crt_stdio_output@@V?$standard_base@_WV?$stream_output_adapter@_W@__crt_stdio_output@@@2@@__crt_stdio_output@@CAPA_WXZ 100a5430 f i libucrtd:output.obj
 0001:000a4440       ?wide_null_string@?$output_processor@_WV?$string_output_adapter@_W@__crt_stdio_output@@V?$format_validation_base@_WV?$string_output_adapter@_W@__crt_stdio_output@@@2@@__crt_stdio_output@@CAPA_WXZ 100a5440 f i libucrtd:output.obj
 0001:000a4450       ?wide_null_string@?$output_processor@_WV?$string_output_adapter@_W@__crt_stdio_output@@V?$positional_parameter_base@_WV?$string_output_adapter@_W@__crt_stdio_output@@@2@@__crt_stdio_output@@CAPA_WXZ 100a5450 f i libucrtd:output.obj
 0001:000a4460       ?wide_null_string@?$output_processor@_WV?$string_output_adapter@_W@__crt_stdio_output@@V?$standard_base@_WV?$string_output_adapter@_W@__crt_stdio_output@@@2@@__crt_stdio_output@@CAPA_WXZ 100a5460 f i libucrtd:output.obj
 0001:000a4470       ?write_character@?$stream_output_adapter@D@__crt_stdio_output@@QBEXDQAH@Z 100a5470 f i libucrtd:output.obj
 0001:000a4510       ?write_character@?$stream_output_adapter@_W@__crt_stdio_output@@QBEX_WQAH@Z 100a5510 f i libucrtd:output.obj
 0001:000a45b0       ?write_character@?$string_output_adapter@D@__crt_stdio_output@@QBE_NDQAH@Z 100a55b0 f i libucrtd:output.obj
 0001:000a4670       ?write_character@?$string_output_adapter@_W@__crt_stdio_output@@QBE_N_WQAH@Z 100a5670 f i libucrtd:output.obj
 0001:000a4730       ?write_stored_string_tchar@?$output_processor@DV?$stream_output_adapter@D@__crt_stdio_output@@V?$format_validation_base@DV?$stream_output_adapter@D@__crt_stdio_output@@@2@@__crt_stdio_output@@AAE_ND@Z 100a5730 f i libucrtd:output.obj
 0001:000a4880       ?write_stored_string_tchar@?$output_processor@DV?$stream_output_adapter@D@__crt_stdio_output@@V?$positional_parameter_base@DV?$stream_output_adapter@D@__crt_stdio_output@@@2@@__crt_stdio_output@@AAE_ND@Z 100a5880 f i libucrtd:output.obj
 0001:000a49d0       ?write_stored_string_tchar@?$output_processor@DV?$stream_output_adapter@D@__crt_stdio_output@@V?$standard_base@DV?$stream_output_adapter@D@__crt_stdio_output@@@2@@__crt_stdio_output@@AAE_ND@Z 100a59d0 f i libucrtd:output.obj
 0001:000a4b20       ?write_stored_string_tchar@?$output_processor@DV?$string_output_adapter@D@__crt_stdio_output@@V?$format_validation_base@DV?$string_output_adapter@D@__crt_stdio_output@@@2@@__crt_stdio_output@@AAE_ND@Z 100a5b20 f i libucrtd:output.obj
 0001:000a4c70       ?write_stored_string_tchar@?$output_processor@DV?$string_output_adapter@D@__crt_stdio_output@@V?$positional_parameter_base@DV?$string_output_adapter@D@__crt_stdio_output@@@2@@__crt_stdio_output@@AAE_ND@Z 100a5c70 f i libucrtd:output.obj
 0001:000a4dc0       ?write_stored_string_tchar@?$output_processor@DV?$string_output_adapter@D@__crt_stdio_output@@V?$standard_base@DV?$string_output_adapter@D@__crt_stdio_output@@@2@@__crt_stdio_output@@AAE_ND@Z 100a5dc0 f i libucrtd:output.obj
 0001:000a4f10       ?write_stored_string_tchar@?$output_processor@_WV?$stream_output_adapter@_W@__crt_stdio_output@@V?$format_validation_base@_WV?$stream_output_adapter@_W@__crt_stdio_output@@@2@@__crt_stdio_output@@AAE_N_W@Z 100a5f10 f i libucrtd:output.obj
 0001:000a5030       ?write_stored_string_tchar@?$output_processor@_WV?$stream_output_adapter@_W@__crt_stdio_output@@V?$positional_parameter_base@_WV?$stream_output_adapter@_W@__crt_stdio_output@@@2@@__crt_stdio_output@@AAE_N_W@Z 100a6030 f i libucrtd:output.obj
 0001:000a5150       ?write_stored_string_tchar@?$output_processor@_WV?$stream_output_adapter@_W@__crt_stdio_output@@V?$standard_base@_WV?$stream_output_adapter@_W@__crt_stdio_output@@@2@@__crt_stdio_output@@AAE_N_W@Z 100a6150 f i libucrtd:output.obj
 0001:000a5270       ?write_stored_string_tchar@?$output_processor@_WV?$string_output_adapter@_W@__crt_stdio_output@@V?$format_validation_base@_WV?$string_output_adapter@_W@__crt_stdio_output@@@2@@__crt_stdio_output@@AAE_N_W@Z 100a6270 f i libucrtd:output.obj
 0001:000a5390       ?write_stored_string_tchar@?$output_processor@_WV?$string_output_adapter@_W@__crt_stdio_output@@V?$positional_parameter_base@_WV?$string_output_adapter@_W@__crt_stdio_output@@@2@@__crt_stdio_output@@AAE_N_W@Z 100a6390 f i libucrtd:output.obj
 0001:000a54b0       ?write_stored_string_tchar@?$output_processor@_WV?$string_output_adapter@_W@__crt_stdio_output@@V?$standard_base@_WV?$string_output_adapter@_W@__crt_stdio_output@@@2@@__crt_stdio_output@@AAE_N_W@Z 100a64b0 f i libucrtd:output.obj
 0001:000a55d0       ?write_string@?$stream_output_adapter@D@__crt_stdio_output@@QBEXQBDHQAH1@Z 100a65d0 f i libucrtd:output.obj
 0001:000a56b0       ?write_string@?$stream_output_adapter@_W@__crt_stdio_output@@QBEXQB_WHQAH1@Z 100a66b0 f i libucrtd:output.obj
 0001:000a5790       ?write_string@?$string_output_adapter@D@__crt_stdio_output@@QBEXQBDHQAH1@Z 100a6790 f i libucrtd:output.obj
 0001:000a58f0       ?write_string@?$string_output_adapter@_W@__crt_stdio_output@@QBEXQB_WHQAH1@Z 100a68f0 f i libucrtd:output.obj
 0001:000a5a50       ___acrt_isleadbyte_l_noupdate 100a6a50 f i libucrtd:output.obj
 0001:000a5a80       ___stdio_common_vfprintf   100a6a80 f   libucrtd:output.obj
 0001:000a5ab0       ___stdio_common_vfprintf_p 100a6ab0 f   libucrtd:output.obj
 0001:000a5ae0       ___stdio_common_vfprintf_s 100a6ae0 f   libucrtd:output.obj
 0001:000a5b10       ___stdio_common_vfwprintf  100a6b10 f   libucrtd:output.obj
 0001:000a5b40       ___stdio_common_vfwprintf_p 100a6b40 f   libucrtd:output.obj
 0001:000a5b70       ___stdio_common_vfwprintf_s 100a6b70 f   libucrtd:output.obj
 0001:000a5ba0       ___stdio_common_vsnprintf_s 100a6ba0 f   libucrtd:output.obj
 0001:000a5be0       ___stdio_common_vsnwprintf_s 100a6be0 f   libucrtd:output.obj
 0001:000a5c20       ___stdio_common_vsprintf   100a6c20 f   libucrtd:output.obj
 0001:000a5c60       ___stdio_common_vsprintf_p 100a6c60 f   libucrtd:output.obj
 0001:000a5ca0       ___stdio_common_vsprintf_s 100a6ca0 f   libucrtd:output.obj
 0001:000a5ce0       ___stdio_common_vswprintf  100a6ce0 f   libucrtd:output.obj
 0001:000a5d20       ___stdio_common_vswprintf_p 100a6d20 f   libucrtd:output.obj
 0001:000a5d60       ___stdio_common_vswprintf_s 100a6d60 f   libucrtd:output.obj
 0001:000a6920       __makepath                 100a7920 f   libucrtd:makepath.obj
 0001:000a6950       __makepath_s               100a7950 f   libucrtd:makepath.obj
 0001:000a6980       __wmakepath                100a7980 f   libucrtd:makepath.obj
 0001:000a69b0       __wmakepath_s              100a79b0 f   libucrtd:makepath.obj
 0001:000a8840       ??$tcsncpy_s@AAPADIAAPBDABI@?$__crt_char_traits@D@@SAHAAPAD$$QAIAAPBDABI@Z 100a9840 f i libucrtd:splitpath.obj
 0001:000a8870       ??$tcsncpy_s@AAPADIAAPBDH@?$__crt_char_traits@D@@SAHAAPAD$$QAIAAPBD$$QAH@Z 100a9870 f i libucrtd:splitpath.obj
 0001:000a88a0       ??$tcsncpy_s@AAPA_WIAAPB_WABI@?$__crt_char_traits@_W@@SAHAAPA_W$$QAIAAPB_WABI@Z 100a98a0 f i libucrtd:splitpath.obj
 0001:000a88d0       ??$tcsncpy_s@AAPA_WIAAPB_WH@?$__crt_char_traits@_W@@SAHAAPA_W$$QAIAAPB_W$$QAH@Z 100a98d0 f i libucrtd:splitpath.obj
 0001:000a8b20       __splitpath                100a9b20 f   libucrtd:splitpath.obj
 0001:000a8b50       __splitpath_s              100a9b50 f   libucrtd:splitpath.obj
 0001:000a8bb0       __wsplitpath               100a9bb0 f   libucrtd:splitpath.obj
 0001:000a8be0       __wsplitpath_s             100a9be0 f   libucrtd:splitpath.obj
 0001:000a9020       _wcscpy_s                  100aa020 f   libucrtd:wcscpy_s.obj
 0001:000a9050       __set_abort_behavior       100aa050 f   libucrtd:abort.obj
 0001:000a9090       _abort                     100aa090 f   libucrtd:abort.obj
 0001:000a94f0       _strcpy_s                  100aa4f0 f   libucrtd:strcpy_s.obj
 0001:000a9520       _strcmp                    100aa520 f   libucrtd:strcmp.obj
 0001:000a95d0       _strlen                    100aa5d0 f   libucrtd:strlen.obj
 0001:000a9680       _free                      100aa680 f   libucrtd:free.obj
 0001:000a96a0       ??$is_overflow_condition@K@__crt_strtox@@YA_NIK@Z 100aa6a0 f i libucrtd:atox.obj
 0001:000a9710       ??$is_overflow_condition@_K@__crt_strtox@@YA_NI_K@Z 100aa710 f i libucrtd:atox.obj
 0001:000a97c0       ??$make_c_string_character_source@D$$T@__crt_strtox@@YA?AV?$c_string_character_source@D@0@QBD$$T@Z 100aa7c0 f i libucrtd:atox.obj
 0001:000a97e0       ??$make_c_string_character_source@_W$$T@__crt_strtox@@YA?AV?$c_string_character_source@_W@0@QB_W$$T@Z 100aa7e0 f i libucrtd:atox.obj
 0001:000a9800       ??$parse_integer@KV?$c_string_character_source@D@__crt_strtox@@@__crt_strtox@@YAKQAU__crt_locale_pointers@@V?$c_string_character_source@D@0@H_N@Z 100aa800 f i libucrtd:atox.obj
 0001:000a9c50       ??$parse_integer@KV?$c_string_character_source@_W@__crt_strtox@@@__crt_strtox@@YAKQAU__crt_locale_pointers@@V?$c_string_character_source@_W@0@H_N@Z 100aac50 f i libucrtd:atox.obj
 0001:000aa0a0       ??$parse_integer@_KV?$c_string_character_source@D@__crt_strtox@@@__crt_strtox@@YA_KQAU__crt_locale_pointers@@V?$c_string_character_source@D@0@H_N@Z 100ab0a0 f i libucrtd:atox.obj
 0001:000aa5c0       ??$parse_integer@_KV?$c_string_character_source@_W@__crt_strtox@@@__crt_strtox@@YA_KQAU__crt_locale_pointers@@V?$c_string_character_source@_W@0@H_N@Z 100ab5c0 f i libucrtd:atox.obj
 0001:000aab00       ??$parse_integer_from_string@JD$$T@__crt_strtox@@YAJQBD$$THQAU__crt_locale_pointers@@@Z 100abb00 f i libucrtd:atox.obj
 0001:000aab50       ??$parse_integer_from_string@J_W$$T@__crt_strtox@@YAJQB_W$$THQAU__crt_locale_pointers@@@Z 100abb50 f i libucrtd:atox.obj
 0001:000aaba0       ??$parse_integer_from_string@_JD$$T@__crt_strtox@@YA_JQBD$$THQAU__crt_locale_pointers@@@Z 100abba0 f i libucrtd:atox.obj
 0001:000aabf0       ??$parse_integer_from_string@_J_W$$T@__crt_strtox@@YA_JQB_W$$THQAU__crt_locale_pointers@@@Z 100abbf0 f i libucrtd:atox.obj
 0001:000aac40       ??0?$c_string_character_source@D@__crt_strtox@@QAE@QBDQAPBD@Z 100abc40 f i libucrtd:atox.obj
 0001:000aac80       ??0?$c_string_character_source@_W@__crt_strtox@@QAE@QB_WQAPB_W@Z 100abc80 f i libucrtd:atox.obj
 0001:000aacc0       ??1?$c_string_character_source@D@__crt_strtox@@QAE@XZ 100abcc0 f i libucrtd:atox.obj
 0001:000aacf0       ??1?$c_string_character_source@_W@__crt_strtox@@QAE@XZ 100abcf0 f i libucrtd:atox.obj
 0001:000aad20       ?get@?$c_string_character_source@D@__crt_strtox@@QAEDXZ 100abd20 f i libucrtd:atox.obj
 0001:000aad60       ?get@?$c_string_character_source@_W@__crt_strtox@@QAE_WXZ 100abd60 f i libucrtd:atox.obj
 0001:000aada0       ?is_space@__crt_strtox@@YA_NDQAU__crt_locale_pointers@@@Z 100abda0 f i libucrtd:atox.obj
 0001:000aadf0       ?is_space@__crt_strtox@@YA_N_WPAU__crt_locale_pointers@@@Z 100abdf0 f i libucrtd:atox.obj
 0001:000aae30       ?maximum_signed_value@__crt_strtox@@YAJK@Z 100abe30 f i libucrtd:atox.obj
 0001:000aae40       ?maximum_signed_value@__crt_strtox@@YA_J_K@Z 100abe40 f i libucrtd:atox.obj
 0001:000aae60       ?minimum_signed_value@__crt_strtox@@YAJK@Z 100abe60 f i libucrtd:atox.obj
 0001:000aae70       ?minimum_signed_value@__crt_strtox@@YA_J_K@Z 100abe70 f i libucrtd:atox.obj
 0001:000aae90       ?parse_digit@__crt_strtox@@YAID@Z 100abe90 f i libucrtd:atox.obj
 0001:000aaf10       ?parse_digit@__crt_strtox@@YAI_W@Z 100abf10 f i libucrtd:atox.obj
 0001:000aafb0       ?restore_state@?$c_string_character_source@D@__crt_strtox@@QAE_NQBD@Z 100abfb0 f i libucrtd:atox.obj
 0001:000aafd0       ?restore_state@?$c_string_character_source@_W@__crt_strtox@@QAE_NQB_W@Z 100abfd0 f i libucrtd:atox.obj
 0001:000aaff0       ?save_state@?$c_string_character_source@D@__crt_strtox@@QBEPBDXZ 100abff0 f i libucrtd:atox.obj
 0001:000ab010       ?save_state@?$c_string_character_source@_W@__crt_strtox@@QBEPB_WXZ 100ac010 f i libucrtd:atox.obj
 0001:000ab030       ?unget@?$c_string_character_source@D@__crt_strtox@@QAEXD@Z 100ac030 f i libucrtd:atox.obj
 0001:000ab100       ?unget@?$c_string_character_source@_W@__crt_strtox@@QAEX_W@Z 100ac100 f i libucrtd:atox.obj
 0001:000ab1d0       ?validate@?$c_string_character_source@D@__crt_strtox@@QBE_NXZ 100ac1d0 f i libucrtd:atox.obj
 0001:000ab290       ?validate@?$c_string_character_source@_W@__crt_strtox@@QBE_NXZ 100ac290 f i libucrtd:atox.obj
 0001:000ab350       ?wide_character_to_digit@__crt_strtox@@YAH_W@Z 100ac350 f i libucrtd:atox.obj
 0001:000ab740       __atoi64                   100ac740 f   libucrtd:atox.obj
 0001:000ab760       __atoi64_l                 100ac760 f   libucrtd:atox.obj
 0001:000ab790       __atoi_l                   100ac790 f   libucrtd:atox.obj
 0001:000ab7c0       __atol_l                   100ac7c0 f   libucrtd:atox.obj
 0001:000ab7f0       __atoll_l                  100ac7f0 f   libucrtd:atox.obj
 0001:000ab820       __wtoi                     100ac820 f   libucrtd:atox.obj
 0001:000ab840       __wtoi64                   100ac840 f   libucrtd:atox.obj
 0001:000ab860       __wtoi64_l                 100ac860 f   libucrtd:atox.obj
 0001:000ab890       __wtoi_l                   100ac890 f   libucrtd:atox.obj
 0001:000ab8c0       __wtol                     100ac8c0 f   libucrtd:atox.obj
 0001:000ab8e0       __wtol_l                   100ac8e0 f   libucrtd:atox.obj
 0001:000ab910       __wtoll                    100ac910 f   libucrtd:atox.obj
 0001:000ab930       __wtoll_l                  100ac930 f   libucrtd:atox.obj
 0001:000ab960       _atoi                      100ac960 f   libucrtd:atox.obj
 0001:000ab980       _atol                      100ac980 f   libucrtd:atox.obj
 0001:000ab9a0       _atoll                     100ac9a0 f   libucrtd:atox.obj
 0001:000ab9c0       __add_exp                  100ac9c0 f   libucrtd:util.obj
 0001:000aba00       __decomp                   100aca00 f   libucrtd:util.obj
 0001:000abb70       __get_exp                  100acb70 f   libucrtd:util.obj
 0001:000abbb0       __set_bexp                 100acbb0 f   libucrtd:util.obj
 0001:000abbf0       __set_exp                  100acbf0 f   libucrtd:util.obj
 0001:000abc40       __sptype                   100acc40 f   libucrtd:util.obj
 0001:000abce0       ___clrfp_sse2              100acce0 f   libucrtd:fpctrl.obj
 0001:000abd30       ___ctrlfp_sse2             100acd30 f   libucrtd:fpctrl.obj
 0001:000abda0       ___fclrf_sse2              100acda0 f   libucrtd:fpctrl.obj
 0001:000abdd0       ___get_fpsr_sse2           100acdd0 f   libucrtd:fpctrl.obj
 0001:000abe00       ___set_fpsr_sse2           100ace00 f   libucrtd:fpctrl.obj
 0001:000abf10       ___set_statfp_sse2         100acf10 f   libucrtd:fpctrl.obj
 0001:000abf50       ___statfp_sse2             100acf50 f   libucrtd:fpctrl.obj
 0001:000abf90       __clrfp                    100acf90 f   libucrtd:fpctrl.obj
 0001:000abfb0       __ctrlfp                   100acfb0 f   libucrtd:fpctrl.obj
 0001:000abff0       __set_statfp               100acff0 f   libucrtd:fpctrl.obj
 0001:000ac070       __statfp                   100ad070 f   libucrtd:fpctrl.obj
 0001:000ac090       _ldexp                     100ad090 f   libucrtd:ldexp.obj
 0001:000ac420       _nextafter                 100ad420 f   libucrtd:nextafter.obj
 0001:000ac450       ___acrt_initialize_sse2    100ad450 f   libucrtd:mathfcns.obj
 0001:000ac470       __set_SSE2_enable          100ad470 f   libucrtd:mathfcns.obj
 0001:000ac4d0       __CIpow_pentium4           100ad4d0 f   libucrtd:pow_pentium4.obj
 0001:000ac4e9       __pow_pentium4             100ad4e9     libucrtd:pow_pentium4.obj
 0001:000ad2d1       __fFEXP                    100ae2d1     libucrtd:87tran.obj
 0001:000ad328       __rtinfpopse               100ae328     libucrtd:87tran.obj
 0001:000ad32a       __rtinfnpopse              100ae32a     libucrtd:87tran.obj
 0001:000ad33a       __fFLN                     100ae33a     libucrtd:87tran.obj
 0001:000ad3ef       __rtinfpop                 100ae3ef     libucrtd:87tran.obj
 0001:000ad3f1       __rtinfnpop                100ae3f1     libucrtd:87tran.obj
 0001:000ad40e       __ffexpm1                  100ae40e     libucrtd:87tran.obj
 0001:000ad540       __trandisp1                100ae540 f   libucrtd:87disp.obj
 0001:000ad5a7       __trandisp2                100ae5a7 f   libucrtd:87disp.obj
 0001:000ad633       __rttospopde               100ae633     libucrtd:87disp.obj
 0001:000ad638       __rttospop                 100ae638     libucrtd:87disp.obj
 0001:000ad63a       __rtnospop                 100ae63a     libucrtd:87disp.obj
 0001:000ad63c       __rttosnpop                100ae63c     libucrtd:87disp.obj
 0001:000ad63d       __rtnospopde               100ae63d     libucrtd:87disp.obj
 0001:000ad644       __rtzeropop                100ae644     libucrtd:87disp.obj
 0001:000ad646       __rtzeronpop               100ae646     libucrtd:87disp.obj
 0001:000ad64b       __rtzerospop               100ae64b     libucrtd:87disp.obj
 0001:000ad658       __rtonepop                 100ae658     libucrtd:87disp.obj
 0001:000ad65a       __rtonenpop                100ae65a     libucrtd:87disp.obj
 0001:000ad65f       __tosnan1                  100ae65f     libucrtd:87disp.obj
 0001:000ad68a       __nosnan2                  100ae68a     libucrtd:87disp.obj
 0001:000ad68c       __tosnan2                  100ae68c     libucrtd:87disp.obj
 0001:000ad6b4       __nan2                     100ae6b4     libucrtd:87disp.obj
 0001:000ad6f3       __rtindfpop                100ae6f3     libucrtd:87disp.obj
 0001:000ad6f5       __rtindfnpop               100ae6f5     libucrtd:87disp.obj
 0001:000ad706       __rttosnpopde              100ae706     libucrtd:87disp.obj
 0001:000ad710       __rtatan2inf               100ae710     libucrtd:87disp.obj
 0001:000ad72d       __rtchsifneg               100ae72d     libucrtd:87disp.obj
 0001:000ad7c0       ___setfflag                100ae7c0 f   libucrtd:fp_flags.obj
 0001:000ad7f0       __startTwoArgErrorHandling 100ae7f0 f   libucrtd:genexcep.obj
 0001:000ad807       __startOneArgErrorHandling 100ae807 f   libucrtd:genexcep.obj
 0001:000ad860       __twoToTOS                 100ae860 f   libucrtd:common.obj
 0001:000ad875       __load_CW                  100ae875 f   libucrtd:common.obj
 0001:000ad88c       __convertTOStoQNaN         100ae88c f   libucrtd:common.obj
 0001:000ad8a5       __fload_withFB             100ae8a5 f   libucrtd:common.obj
 0001:000ad8e8       __checkTOS_withFB          100ae8e8 f   libucrtd:common.obj
 0001:000ad8fe       __fast_exit                100ae8fe f   libucrtd:common.obj
 0001:000ad90b       __math_exit                100ae90b f   libucrtd:common.obj
 0001:000ad935       __check_overflow_exit      100ae935 f   libucrtd:common.obj
 0001:000ad949       __check_range_exit         100ae949 f   libucrtd:common.obj
 0001:000ada50       __d_inttype                100aea50 f   libucrtd:powhlp.obj
 0001:000adb00       __powhlp                   100aeb00 f   libucrtd:powhlp.obj
 0001:000add10       __CIcos_pentium4           100aed10 f   libucrtd:cos_pentium4.obj
 0001:000add28       __cos_pentium4             100aed28     libucrtd:cos_pentium4.obj
 0001:000adf30       __CIsin_pentium4           100aef30 f   libucrtd:sin_pentium4.obj
 0001:000adf48       __sin_pentium4             100aef48     libucrtd:sin_pentium4.obj
 0001:000ae18c       __fFATN2                   100af18c     libucrtd:87triga.obj
 0001:000ae1dc       __rtpiby2                  100af1dc     libucrtd:87triga.obj
 0001:000ae250       __cintrindisp2             100af250 f   libucrtd:87cdisp.obj
 0001:000ae294       __cintrindisp1             100af294 f   libucrtd:87cdisp.obj
 0001:000ae2d7       __ctrandisp2               100af2d7 f   libucrtd:87cdisp.obj
 0001:000ae466       __ctrandisp1               100af466 f   libucrtd:87cdisp.obj
 0001:000ae499       __fload                    100af499 f   libucrtd:87cdisp.obj
 0001:000ae580       ___libm_error_support      100af580 f   libucrtd:libm_error.obj
 0001:000aecc0       ___libm_setusermatherr     100afcc0 f   libucrtd:libm_error.obj
 0001:000aed00       __floor_default            100afd00 f   libucrtd:floor.obj
 0001:000aee60       ??$__crt_fast_decode_pointer@P6AXPB_W00II@Z@@YAP6AXPB_W00II@ZQ6AX000II@Z@Z 100afe60 f i libucrtd:invalid_parameter.obj
 0001:000aeea0       ??$__crt_fast_encode_pointer@P6AXPB_W00II@Z@@YAP6AXPB_W00II@ZQ6AX000II@Z@Z 100afea0 f i libucrtd:invalid_parameter.obj
 0001:000aeee0       ?initialize@?$dual_state_global@P6AXPB_W00II@Z@__crt_state_management@@QAEXQ6AXPB_W00II@Z@Z 100afee0 f i libucrtd:invalid_parameter.obj
 0001:000aef30       ?value@?$dual_state_global@P6AXPB_W00II@Z@__crt_state_management@@QAEAAP6AXPB_W00II@ZXZ 100aff30 f i libucrtd:invalid_parameter.obj
 0001:000aef50       ___acrt_call_reportfault   100aff50 f   libucrtd:invalid_parameter.obj
 0001:000af100       ___acrt_initialize_invalid_parameter_handler 100b0100 f   libucrtd:invalid_parameter.obj
 0001:000af120       __get_invalid_parameter_handler 100b0120 f   libucrtd:invalid_parameter.obj
 0001:000af150       __get_thread_local_invalid_parameter_handler 100b0150 f   libucrtd:invalid_parameter.obj
 0001:000af180       __invalid_parameter        100b0180 f   libucrtd:invalid_parameter.obj
 0001:000af280       __invalid_parameter_noinfo 100b0280 f   libucrtd:invalid_parameter.obj
 0001:000af2a0       __invalid_parameter_noinfo_noreturn 100b02a0 f   libucrtd:invalid_parameter.obj
 0001:000af2e0       __invoke_watson            100b02e0 f   libucrtd:invalid_parameter.obj
 0001:000af330       __set_invalid_parameter_handler 100b0330 f   libucrtd:invalid_parameter.obj
 0001:000af390       __set_thread_local_invalid_parameter_handler 100b0390 f   libucrtd:invalid_parameter.obj
 0001:000af3d0       __CrtGetReportHook         100b03d0 f   libucrtd:dbgrptt.obj
 0001:000af3e0       __CrtSetReportFile         100b03e0 f   libucrtd:dbgrptt.obj
 0001:000af510       __CrtSetReportHook         100b0510 f   libucrtd:dbgrptt.obj
 0001:000af540       __CrtSetReportMode         100b0540 f   libucrtd:dbgrptt.obj
 0001:000af6d0       __VCrtDbgReportA           100b06d0 f   libucrtd:dbgrptt.obj
 0001:000b0190       __VCrtDbgReportW           100b1190 f   libucrtd:dbgrptt.obj
 0001:000b0db0       __snprintf_s               100b1db0 f i libucrtd:dbgrptt.obj
 0001:000b0e10       __vsnprintf_s              100b1e10 f i libucrtd:dbgrptt.obj
 0001:000b0e40       __vsnprintf_s_l            100b1e40 f i libucrtd:dbgrptt.obj
 0001:000b0eb0       __vsnwprintf_s             100b1eb0 f i libucrtd:dbgrptt.obj
 0001:000b0ee0       ___acrt_errno_from_os_error 100b1ee0 f   libucrtd:errno.obj
 0001:000b0f80       ___acrt_errno_map_os_error 100b1f80 f   libucrtd:errno.obj
 0001:000b0fc0       ___doserrno                100b1fc0 f   libucrtd:errno.obj
 0001:000b0ff0       __errno                    100b1ff0 f   libucrtd:errno.obj
 0001:000b1020       __get_doserrno             100b2020 f   libucrtd:errno.obj
 0001:000b10d0       __get_errno                100b20d0 f   libucrtd:errno.obj
 0001:000b1180       __set_doserrno             100b2180 f   libucrtd:errno.obj
 0001:000b11c0       __set_errno                100b21c0 f   libucrtd:errno.obj
 0001:000b1200       _wcslen                    100b2200 f   libucrtd:wcslen.obj
 0001:000b15f0       ??$message_box@$$TAAPBDAAPBDAAI@?$__crt_char_traits@D@@SAH$$QA$$TAAPBD1AAI@Z 100b25f0 f i libucrtd:crtmbox.obj
 0001:000b1620       ??$message_box@$$TAAPB_WAAPB_WAAI@?$__crt_char_traits@_W@@SAH$$QA$$TAAPB_W1AAI@Z 100b2620 f i libucrtd:crtmbox.obj
 0001:000b1650       ??$message_box@$$TABQBDABQBDK@?$__crt_char_traits@D@@SAH$$QA$$TABQBD1$$QAK@Z 100b2650 f i libucrtd:crtmbox.obj
 0001:000b1680       ??$message_box@$$TABQB_WABQB_WK@?$__crt_char_traits@_W@@SAH$$QA$$TABQB_W1$$QAK@Z 100b2680 f i libucrtd:crtmbox.obj
 0001:000b16b0       ??$message_box@PAUHWND__@@ABQBDABQBDABI@?$__crt_char_traits@D@@SAH$$QAPAUHWND__@@ABQBD1ABI@Z 100b26b0 f i libucrtd:crtmbox.obj
 0001:000b16e0       ??$message_box@PAUHWND__@@ABQB_WABQB_WABI@?$__crt_char_traits@_W@@SAH$$QAPAUHWND__@@ABQB_W1ABI@Z 100b26e0 f i libucrtd:crtmbox.obj
 0001:000b17d0       ??$output_debug_string@ABQBD@?$__crt_char_traits@D@@SAXABQBD@Z 100b27d0 f i libucrtd:crtmbox.obj
 0001:000b17f0       ??$output_debug_string@ABQB_W@?$__crt_char_traits@_W@@SAXABQB_W@Z 100b27f0 f i libucrtd:crtmbox.obj
 0001:000b1810       ??0?$__crt_unique_handle_t@U__crt_handle_traits@@@@QAE@QAX@Z 100b2810 f i libucrtd:crtmbox.obj
 0001:000b1830       ??1?$__crt_unique_handle_t@U__crt_handle_traits@@@@QAE@XZ 100b2830 f i libucrtd:crtmbox.obj
 0001:000b1850       ??B?$__crt_unique_handle_t@U__crt_handle_traits@@@@QBE_NXZ 100b2850 f i libucrtd:crtmbox.obj
 0001:000b1870       ?close@?$__crt_unique_handle_t@U__crt_handle_traits@@@@QAEXXZ 100b2870 f i libucrtd:crtmbox.obj
 0001:000b18b0       ?close@__crt_handle_traits@@SA_NPAX@Z 100b28b0 f i libucrtd:crtmbox.obj
 0001:000b18f0       ?get@?$__crt_unique_handle_t@U__crt_handle_traits@@@@QBEPAXXZ 100b28f0 f i libucrtd:crtmbox.obj
 0001:000b1910       ?get_invalid_value@__crt_handle_traits@@SAPAXXZ 100b2910 f i libucrtd:crtmbox.obj
 0001:000b1920       ?is_valid@?$__crt_unique_handle_t@U__crt_handle_traits@@@@QBE_NXZ 100b2920 f i libucrtd:crtmbox.obj
 0001:000b1960       ___acrt_show_narrow_message_box 100b2960 f   libucrtd:crtmbox.obj
 0001:000b1990       ___acrt_show_wide_message_box 100b2990 f   libucrtd:crtmbox.obj
 0001:000b19c0       ___acrt_initialize_locks   100b29c0 f   libucrtd:locks.obj
 0001:000b1a40       ___acrt_lock               100b2a40 f   libucrtd:locks.obj
 0001:000b1a60       ___acrt_uninitialize_locks 100b2a60 f   libucrtd:locks.obj
 0001:000b1ac0       ___acrt_unlock             100b2ac0 f   libucrtd:locks.obj
 0001:000b1ae0       __lock_locales             100b2ae0 f   libucrtd:locks.obj
 0001:000b1b00       __unlock_locales           100b2b00 f   libucrtd:locks.obj
 0001:000b1b20       ??$?B$$A6AXH@Z@__crt_fast_encoded_nullptr_t@@QBEP6AXH@ZXZ 100b2b20 f i libucrtd:signal.obj
 0001:000b1b40       ??$?RV<lambda_a048d3beccc847880fc8490e18b82769>@@AAV<lambda_ec61778202f4f5fc7e7711acc23c3bca>@@V<lambda_f7496a158712204296dd6628a163878e>@@@?$__crt_seh_guarded_call@P6AXH@Z@@QAEP6AXH@Z$$QAV<lambda_a048d3beccc847880fc8490e18b82769>@@AAV<lambda_ec61778202f4f5fc7e7711acc23c3bca>@@$$QAV<lambda_f7496a158712204296dd6628a163878e>@@@Z 100b2b40 f i libucrtd:signal.obj
 0001:000b1bf0       ??$__acrt_lock_and_call@V<lambda_ec61778202f4f5fc7e7711acc23c3bca>@@@@YAP6AXH@ZW4__acrt_lock_id@@$$QAV<lambda_ec61778202f4f5fc7e7711acc23c3bca>@@@Z 100b2bf0 f i libucrtd:signal.obj
 0001:000b1c40       ??$__crt_fast_decode_pointer@P6AXH@Z@@YAP6AXH@ZQ6AXH@Z@Z 100b2c40 f i libucrtd:signal.obj
 0001:000b1c80       ??$__crt_fast_encode_pointer@P6AXH@Z@@YAP6AXH@ZQ6AXH@Z@Z 100b2c80 f i libucrtd:signal.obj
 0001:000b2000       ?initialize@?$dual_state_global@P6AXH@Z@__crt_state_management@@QAEXQ6AXH@Z@Z 100b3000 f i libucrtd:signal.obj
 0001:000b2120       ?value@?$dual_state_global@P6AXH@Z@__crt_state_management@@QAEAAP6AXH@ZXZ 100b3120 f i libucrtd:signal.obj
 0001:000b2140       ___acrt_get_sigabrt_handler 100b3140 f   libucrtd:signal.obj
 0001:000b2160       ___acrt_initialize_signal_handlers 100b3160 f   libucrtd:signal.obj
 0001:000b21b0       ___fpecode                 100b31b0 f   libucrtd:signal.obj
 0001:000b21d0       ___pxcptinfoptrs           100b31d0 f   libucrtd:signal.obj
 0001:000b21f0       _raise                     100b31f0 f   libucrtd:signal.obj
 0001:000b26c0       _signal                    100b36c0 f   libucrtd:signal.obj
 0001:000b29f0       ??$__crt_fast_decode_pointer@P6AHPAU_exception@@@Z@@YAP6AHPAU_exception@@@ZQ6AH0@Z@Z 100b39f0 f i libucrtd:matherr.obj
 0001:000b2a30       ??$__crt_fast_encode_pointer@P6AHPAU_exception@@@Z@@YAP6AHPAU_exception@@@ZQ6AH0@Z@Z 100b3a30 f i libucrtd:matherr.obj
 0001:000b2a70       ?initialize@?$dual_state_global@P6AHPAU_exception@@@Z@__crt_state_management@@QAEXQ6AHPAU_exception@@@Z@Z 100b3a70 f i libucrtd:matherr.obj
 0001:000b2ac0       ?value@?$dual_state_global@P6AHPAU_exception@@@Z@__crt_state_management@@QAEAAP6AHPAU_exception@@@ZXZ 100b3ac0 f i libucrtd:matherr.obj
 0001:000b2ae0       ___acrt_has_user_matherr   100b3ae0 f   libucrtd:matherr.obj
 0001:000b2b30       ___acrt_initialize_user_matherr 100b3b30 f   libucrtd:matherr.obj
 0001:000b2b50       ___acrt_invoke_user_matherr 100b3b50 f   libucrtd:matherr.obj
 0001:000b2bd0       ___setusermatherr          100b3bd0 f   libucrtd:matherr.obj
 0001:000b2c00       ??$__crt_interlocked_exchange_pointer@X$$T@@YAPAXPDSAX$$T@Z 100b3c00 f i libucrtd:free_base.obj
 0001:000b2c30       ___acrt_get_msvcrt_heap_handle 100b3c30 f   libucrtd:free_base.obj
 0001:000b2d20       __free_base                100b3d20 f   libucrtd:free_base.obj
 0001:000b2d80       __msize                    100b3d80 f   libucrtd:msize.obj
 0001:000b2da0       __realloc_base             100b3da0 f   libucrtd:realloc_base.obj
 0001:000b2e60       __aligned_free             100b3e60 f   libucrtd:align.obj
 0001:000b2e80       __aligned_free_base        100b3e80 f   libucrtd:align.obj
 0001:000b2ed0       __aligned_malloc           100b3ed0 f   libucrtd:align.obj
 0001:000b2f00       __aligned_malloc_base      100b3f00 f   libucrtd:align.obj
 0001:000b2f20       __aligned_msize            100b3f20 f   libucrtd:align.obj
 0001:000b2f50       __aligned_msize_base       100b3f50 f   libucrtd:align.obj
 0001:000b30d0       __aligned_offset_malloc    100b40d0 f   libucrtd:align.obj
 0001:000b3100       __aligned_offset_malloc_base 100b4100 f   libucrtd:align.obj
 0001:000b3320       __aligned_offset_realloc   100b4320 f   libucrtd:align.obj
 0001:000b3350       __aligned_offset_realloc_base 100b4350 f   libucrtd:align.obj
 0001:000b3730       __aligned_offset_recalloc  100b4730 f   libucrtd:align.obj
 0001:000b3760       __aligned_offset_recalloc_base 100b4760 f   libucrtd:align.obj
 0001:000b3840       __aligned_realloc          100b4840 f   libucrtd:align.obj
 0001:000b3870       __aligned_realloc_base     100b4870 f   libucrtd:align.obj
 0001:000b38a0       __aligned_recalloc         100b48a0 f   libucrtd:align.obj
 0001:000b38d0       __aligned_recalloc_base    100b48d0 f   libucrtd:align.obj
 0001:000b3900       __chvalidator              100b4900 f   libucrtd:isctype.obj
 0001:000b3960       __chvalidator_l            100b4960 f   libucrtd:isctype.obj
 0001:000b3a20       __isctype                  100b4a20 f   libucrtd:isctype.obj
 0001:000b3a70       __isctype_l                100b4a70 f   libucrtd:isctype.obj
 0001:000b3c50       ??$?RU__acrt_ptd@@@__crt_internal_free_policy@@QBEXQBU__acrt_ptd@@@Z 100b4c50 f i libucrtd:per_thread_data.obj
 0001:000b3c80       ??$?RV<lambda_3518db117f0e7cdb002338c5d3c47b6c>@@AAV<lambda_b2ea41f6bbb362cd97d94c6828d90b61>@@V<lambda_abdedf541bb04549bc734292b4a045d4>@@@?$__crt_seh_guarded_call@X@@QAEX$$QAV<lambda_3518db117f0e7cdb002338c5d3c47b6c>@@AAV<lambda_b2ea41f6bbb362cd97d94c6828d90b61>@@$$QAV<lambda_abdedf541bb04549bc734292b4a045d4>@@@Z 100b4c80 f i libucrtd:per_thread_data.obj
 0001:000b3d20       ??$?RV<lambda_5b71d36f03204c0beab531769a5b5694>@@AAV<lambda_be2b3da3f62db62e9dad5dc70221a656>@@V<lambda_8f9ce462984622f9bf76b59e2aaaf805>@@@?$__crt_seh_guarded_call@X@@QAEX$$QAV<lambda_5b71d36f03204c0beab531769a5b5694>@@AAV<lambda_be2b3da3f62db62e9dad5dc70221a656>@@$$QAV<lambda_8f9ce462984622f9bf76b59e2aaaf805>@@@Z 100b4d20 f i libucrtd:per_thread_data.obj
 0001:000b3dc0       ??$?RV<lambda_952b238c83a62ef8e81c72265e1e9aa0>@@AAV<lambda_801f60a70ab65355beb13c41cbe335bb>@@V<lambda_84d84f98815add542a0d6e6ca338feb2>@@@?$__crt_seh_guarded_call@X@@QAEX$$QAV<lambda_952b238c83a62ef8e81c72265e1e9aa0>@@AAV<lambda_801f60a70ab65355beb13c41cbe335bb>@@$$QAV<lambda_84d84f98815add542a0d6e6ca338feb2>@@@Z 100b4dc0 f i libucrtd:per_thread_data.obj
 0001:000b3e60       ??$?RV<lambda_9df27f884b057bc3edfc946cb5b7cf47>@@AAV<lambda_e69574bed617af4e071282c136b37893>@@V<lambda_cc0d902bcbbeb830f749456577db4721>@@@?$__crt_seh_guarded_call@X@@QAEX$$QAV<lambda_9df27f884b057bc3edfc946cb5b7cf47>@@AAV<lambda_e69574bed617af4e071282c136b37893>@@$$QAV<lambda_cc0d902bcbbeb830f749456577db4721>@@@Z 100b4e60 f i libucrtd:per_thread_data.obj
 0001:000b3f00       ??$__acrt_lock_and_call@V<lambda_801f60a70ab65355beb13c41cbe335bb>@@@@YAXW4__acrt_lock_id@@$$QAV<lambda_801f60a70ab65355beb13c41cbe335bb>@@@Z 100b4f00 f i libucrtd:per_thread_data.obj
 0001:000b3f50       ??$__acrt_lock_and_call@V<lambda_b2ea41f6bbb362cd97d94c6828d90b61>@@@@YAXW4__acrt_lock_id@@$$QAV<lambda_b2ea41f6bbb362cd97d94c6828d90b61>@@@Z 100b4f50 f i libucrtd:per_thread_data.obj
 0001:000b3fa0       ??$__acrt_lock_and_call@V<lambda_be2b3da3f62db62e9dad5dc70221a656>@@@@YAXW4__acrt_lock_id@@$$QAV<lambda_be2b3da3f62db62e9dad5dc70221a656>@@@Z 100b4fa0 f i libucrtd:per_thread_data.obj
 0001:000b3ff0       ??$__acrt_lock_and_call@V<lambda_e69574bed617af4e071282c136b37893>@@@@YAXW4__acrt_lock_id@@$$QAV<lambda_e69574bed617af4e071282c136b37893>@@@Z 100b4ff0 f i libucrtd:per_thread_data.obj
 0001:000b4250       ??0?$__crt_unique_heap_ptr@U__acrt_ptd@@U__crt_internal_free_policy@@@@QAE@QAU__acrt_ptd@@@Z 100b5250 f i libucrtd:per_thread_data.obj
 0001:000b4270       ??0__crt_scoped_get_last_error_reset@@QAE@XZ 100b5270 f i libucrtd:per_thread_data.obj
 0001:000b42a0       ??1?$__crt_unique_heap_ptr@U__acrt_ptd@@U__crt_internal_free_policy@@@@QAE@XZ 100b52a0 f i libucrtd:per_thread_data.obj
 0001:000b42c0       ??1__crt_scoped_get_last_error_reset@@QAE@XZ 100b52c0 f i libucrtd:per_thread_data.obj
 0001:000b42e0       ??B?$__crt_unique_heap_ptr@U__acrt_ptd@@U__crt_internal_free_policy@@@@QBE_NXZ 100b52e0 f i libucrtd:per_thread_data.obj
 0001:000b46a0       ?dangerous_get_state_array@?$dual_state_global@PAU__crt_locale_data@@@__crt_state_management@@QAEPAPAU__crt_locale_data@@XZ 100b56a0 f i libucrtd:per_thread_data.obj
 0001:000b4880       ?detach@?$__crt_unique_heap_ptr@U__acrt_ptd@@U__crt_internal_free_policy@@@@QAEPAU__acrt_ptd@@XZ 100b5880 f i libucrtd:per_thread_data.obj
 0001:000b48b0       ?get@?$__crt_unique_heap_ptr@U__acrt_ptd@@U__crt_internal_free_policy@@@@QBEPAU__acrt_ptd@@XZ 100b58b0 f i libucrtd:per_thread_data.obj
 0001:000b4a30       ?is_valid@?$__crt_unique_heap_ptr@U__acrt_ptd@@U__crt_internal_free_policy@@@@QBE_NXZ 100b5a30 f i libucrtd:per_thread_data.obj
 0001:000b4a70       ?release@?$__crt_unique_heap_ptr@U__acrt_ptd@@U__crt_internal_free_policy@@@@QAEXXZ 100b5a70 f i libucrtd:per_thread_data.obj
 0001:000b4b90       ?value@?$dual_state_global@PAU__crt_locale_data@@@__crt_state_management@@QAEAAPAU__crt_locale_data@@XZ 100b5b90 f i libucrtd:per_thread_data.obj
 0001:000b4bb0       ___acrt_freeptd            100b5bb0 f   libucrtd:per_thread_data.obj
 0001:000b4bf0       ___acrt_getptd             100b5bf0 f   libucrtd:per_thread_data.obj
 0001:000b4c20       ___acrt_getptd_noexit      100b5c20 f   libucrtd:per_thread_data.obj
 0001:000b4c30       ___acrt_initialize_ptd     100b5c30 f   libucrtd:per_thread_data.obj
 0001:000b4c80       ___acrt_uninitialize_ptd   100b5c80 f   libucrtd:per_thread_data.obj
 0001:000b4cb0       ___threadhandle            100b5cb0 f   libucrtd:per_thread_data.obj
 0001:000b4cc0       ___threadid                100b5cc0 f   libucrtd:per_thread_data.obj
 0001:000b4d30       __expand                   100b5d30 f   libucrtd:expand.obj
 0001:000b4d60       __expand_base              100b5d60 f   libucrtd:expand.obj
 0001:000b4ee0       ___acrt_update_locale_info 100b5ee0 f   libucrtd:locale_update.obj
 0001:000b4f30       ___acrt_update_multibyte_info 100b5f30 f   libucrtd:locale_update.obj
 0001:000b4f70       ?value@?$dual_state_global@J@__crt_state_management@@QAEAAJXZ 100b5f70 f i libucrtd:new_mode.obj
 0001:000b4f90       __query_new_mode           100b5f90 f   libucrtd:new_mode.obj
 0001:000b4fb0       __set_new_mode             100b5fb0 f   libucrtd:new_mode.obj
 0001:000b5080       __CrtDefaultAllocHook      100b6080 f   libucrtd:debug_heap_hook.obj
 0001:000b50a0       ??$?RU__crt_locale_data@@@__crt_internal_free_policy@@QBEXQBU__crt_locale_data@@@Z 100b60a0 f i libucrtd:wsetlocale.obj
 0001:000b50d0       ??$?RU__crt_locale_pointers@@@__crt_internal_free_policy@@QBEXQBU__crt_locale_pointers@@@Z 100b60d0 f i libucrtd:wsetlocale.obj
 0001:000b5100       ??$?RU__crt_multibyte_data@@@__crt_internal_free_policy@@QBEXQBU__crt_multibyte_data@@@Z 100b6100 f i libucrtd:wsetlocale.obj
 0001:000b5130       ??$?RV<lambda_0f92d0c5a8007722f95b3b6c71cd8e3e>@@AAV<lambda_321f9d61c14d59ff00145e45db1313e0>@@V<lambda_3298c911d7b53f44106027a7fde9a80a>@@@?$__crt_seh_guarded_call@X@@QAEX$$QAV<lambda_0f92d0c5a8007722f95b3b6c71cd8e3e>@@AAV<lambda_321f9d61c14d59ff00145e45db1313e0>@@$$QAV<lambda_3298c911d7b53f44106027a7fde9a80a>@@@Z 100b6130 f i libucrtd:wsetlocale.obj
 0001:000b51d0       ??$?RV<lambda_507d9fd6b66e39451a8852ba73f804a7>@@AAV<lambda_565169b3e3b494427ce1bebdd17b54ac>@@AAV<lambda_f51fe5fd7c79a33db34fc9310f277369>@@@?$__crt_seh_guarded_call@X@@QAEX$$QAV<lambda_507d9fd6b66e39451a8852ba73f804a7>@@AAV<lambda_565169b3e3b494427ce1bebdd17b54ac>@@AAV<lambda_f51fe5fd7c79a33db34fc9310f277369>@@@Z 100b61d0 f i libucrtd:wsetlocale.obj
 0001:000b5270       ??$?RV<lambda_76aaead6e312921abc834cb00a638bdd>@@AAV<lambda_176e34f99554166dd2fac165c457248c>@@V<lambda_998ee1c9f4290b119b936bcd6215875a>@@@?$__crt_seh_guarded_call@X@@QAEX$$QAV<lambda_76aaead6e312921abc834cb00a638bdd>@@AAV<lambda_176e34f99554166dd2fac165c457248c>@@$$QAV<lambda_998ee1c9f4290b119b936bcd6215875a>@@@Z 100b6270 f i libucrtd:wsetlocale.obj
 0001:000b5310       ??$?RV<lambda_c9469061b39d205f0f236529d4a41659>@@AAV<lambda_b7fb1a997d3ebc0cc0186c5835178808>@@V<lambda_14b92c79d699846b5cc916cd4cf280e4>@@@?$__crt_seh_guarded_call@X@@QAEX$$QAV<lambda_c9469061b39d205f0f236529d4a41659>@@AAV<lambda_b7fb1a997d3ebc0cc0186c5835178808>@@$$QAV<lambda_14b92c79d699846b5cc916cd4cf280e4>@@@Z 100b6310 f i libucrtd:wsetlocale.obj
 0001:000b53b0       ??$__acrt_lock_and_call@V<lambda_176e34f99554166dd2fac165c457248c>@@@@YAXW4__acrt_lock_id@@$$QAV<lambda_176e34f99554166dd2fac165c457248c>@@@Z 100b63b0 f i libucrtd:wsetlocale.obj
 0001:000b5400       ??$__acrt_lock_and_call@V<lambda_321f9d61c14d59ff00145e45db1313e0>@@@@YAXW4__acrt_lock_id@@$$QAV<lambda_321f9d61c14d59ff00145e45db1313e0>@@@Z 100b6400 f i libucrtd:wsetlocale.obj
 0001:000b5450       ??$__acrt_lock_and_call@V<lambda_b7fb1a997d3ebc0cc0186c5835178808>@@@@YAXW4__acrt_lock_id@@$$QAV<lambda_b7fb1a997d3ebc0cc0186c5835178808>@@@Z 100b6450 f i libucrtd:wsetlocale.obj
 0001:000b54a0       ??$__crt_call_and_cleanup@V<lambda_565169b3e3b494427ce1bebdd17b54ac>@@V<lambda_f51fe5fd7c79a33db34fc9310f277369>@@@@YAX$$QAV<lambda_565169b3e3b494427ce1bebdd17b54ac>@@$$QAV<lambda_f51fe5fd7c79a33db34fc9310f277369>@@@Z 100b64a0 f i libucrtd:wsetlocale.obj
 0001:000b54d0       ??$__vcrt_va_start_verify_argument_type@H@@YAXXZ 100b64d0 f i libucrtd:wsetlocale.obj
 0001:000b5700       ??0?$__crt_unique_heap_ptr@U__crt_locale_data@@U__crt_internal_free_policy@@@@QAE@QAU__crt_locale_data@@@Z 100b6700 f i libucrtd:wsetlocale.obj
 0001:000b5720       ??0?$__crt_unique_heap_ptr@U__crt_locale_pointers@@U__crt_internal_free_policy@@@@QAE@QAU__crt_locale_pointers@@@Z 100b6720 f i libucrtd:wsetlocale.obj
 0001:000b5740       ??0?$__crt_unique_heap_ptr@U__crt_multibyte_data@@U__crt_internal_free_policy@@@@QAE@QAU__crt_multibyte_data@@@Z 100b6740 f i libucrtd:wsetlocale.obj
 0001:000b5760       ??1?$__crt_unique_heap_ptr@U__crt_locale_data@@U__crt_internal_free_policy@@@@QAE@XZ 100b6760 f i libucrtd:wsetlocale.obj
 0001:000b5780       ??1?$__crt_unique_heap_ptr@U__crt_locale_pointers@@U__crt_internal_free_policy@@@@QAE@XZ 100b6780 f i libucrtd:wsetlocale.obj
 0001:000b57a0       ??1?$__crt_unique_heap_ptr@U__crt_multibyte_data@@U__crt_internal_free_policy@@@@QAE@XZ 100b67a0 f i libucrtd:wsetlocale.obj
 0001:000b57c0       ??B?$__crt_unique_heap_ptr@U__crt_locale_data@@U__crt_internal_free_policy@@@@QBE_NXZ 100b67c0 f i libucrtd:wsetlocale.obj
 0001:000b57e0       ??B?$__crt_unique_heap_ptr@U__crt_locale_pointers@@U__crt_internal_free_policy@@@@QBE_NXZ 100b67e0 f i libucrtd:wsetlocale.obj
 0001:000b5800       ??B?$__crt_unique_heap_ptr@U__crt_multibyte_data@@U__crt_internal_free_policy@@@@QBE_NXZ 100b6800 f i libucrtd:wsetlocale.obj
 0001:000b5c40       ?detach@?$__crt_unique_heap_ptr@U__crt_locale_data@@U__crt_internal_free_policy@@@@QAEPAU__crt_locale_data@@XZ 100b6c40 f i libucrtd:wsetlocale.obj
 0001:000b5c70       ?detach@?$__crt_unique_heap_ptr@U__crt_locale_pointers@@U__crt_internal_free_policy@@@@QAEPAU__crt_locale_pointers@@XZ 100b6c70 f i libucrtd:wsetlocale.obj
 0001:000b5ca0       ?detach@?$__crt_unique_heap_ptr@U__crt_multibyte_data@@U__crt_internal_free_policy@@@@QAEPAU__crt_multibyte_data@@XZ 100b6ca0 f i libucrtd:wsetlocale.obj
 0001:000b5cd0       ?get@?$__crt_unique_heap_ptr@U__crt_locale_data@@U__crt_internal_free_policy@@@@QBEPAU__crt_locale_data@@XZ 100b6cd0 f i libucrtd:wsetlocale.obj
 0001:000b5cf0       ?get@?$__crt_unique_heap_ptr@U__crt_locale_pointers@@U__crt_internal_free_policy@@@@QBEPAU__crt_locale_pointers@@XZ 100b6cf0 f i libucrtd:wsetlocale.obj
 0001:000b5d10       ?get@?$__crt_unique_heap_ptr@U__crt_multibyte_data@@U__crt_internal_free_policy@@@@QBEPAU__crt_multibyte_data@@XZ 100b6d10 f i libucrtd:wsetlocale.obj
 0001:000b5d30       ?is_valid@?$__crt_unique_heap_ptr@U__crt_locale_data@@U__crt_internal_free_policy@@@@QBE_NXZ 100b6d30 f i libucrtd:wsetlocale.obj
 0001:000b5d70       ?is_valid@?$__crt_unique_heap_ptr@U__crt_locale_pointers@@U__crt_internal_free_policy@@@@QBE_NXZ 100b6d70 f i libucrtd:wsetlocale.obj
 0001:000b5db0       ?is_valid@?$__crt_unique_heap_ptr@U__crt_multibyte_data@@U__crt_internal_free_policy@@@@QBE_NXZ 100b6db0 f i libucrtd:wsetlocale.obj
 0001:000b5df0       ?release@?$__crt_unique_heap_ptr@U__crt_locale_data@@U__crt_internal_free_policy@@@@QAEXXZ 100b6df0 f i libucrtd:wsetlocale.obj
 0001:000b5e30       ?release@?$__crt_unique_heap_ptr@U__crt_locale_pointers@@U__crt_internal_free_policy@@@@QAEXXZ 100b6e30 f i libucrtd:wsetlocale.obj
 0001:000b5e70       ?release@?$__crt_unique_heap_ptr@U__crt_multibyte_data@@U__crt_internal_free_policy@@@@QAEXXZ 100b6e70 f i libucrtd:wsetlocale.obj
 0001:000b5eb0       ___acrt_copy_locale_name   100b6eb0 f   libucrtd:wsetlocale.obj
 0001:000b5f80       ___acrt_set_locale_changed 100b6f80 f   libucrtd:wsetlocale.obj
 0001:000b5fa0       ___acrt_uninitialize_locale 100b6fa0 f   libucrtd:wsetlocale.obj
 0001:000b6070       ___lc_lctowcs              100b7070 f   libucrtd:wsetlocale.obj
 0001:000b6150       ___lc_wcstolc              100b7150 f   libucrtd:wsetlocale.obj
 0001:000b6400       __configthreadlocale       100b7400 f   libucrtd:wsetlocale.obj
 0001:000b65e0       __create_locale            100b75e0 f   libucrtd:wsetlocale.obj
 0001:000b6670       __expandlocale             100b7670 f   libucrtd:wsetlocale.obj
 0001:000b6c70       __free_locale              100b7c70 f   libucrtd:wsetlocale.obj
 0001:000b6df0       __get_current_locale       100b7df0 f   libucrtd:wsetlocale.obj
 0001:000b6ef0       __wcreate_locale           100b7ef0 f   libucrtd:wsetlocale.obj
 0001:000b71b0       __wcscats                  100b81b0 f   libucrtd:wsetlocale.obj
 0001:000b7250       __wsetlocale               100b8250 f   libucrtd:wsetlocale.obj
 0001:000b8560       ___p___mb_cur_max          100b9560 f   libucrtd:nlsdata.obj
 0001:000b85a0       ___acrt_getheap            100b95a0 f   libucrtd:heap_handle.obj
 0001:000b85f0       ___acrt_initialize_heap    100b95f0 f   libucrtd:heap_handle.obj
 0001:000b8620       ___acrt_uninitialize_heap  100b9620 f   libucrtd:heap_handle.obj
 0001:000b8640       __get_heap_handle          100b9640 f   libucrtd:heap_handle.obj
 0001:000b86f0       ??$?B$$A6GHPA_WKJ@Z@__crt_fast_encoded_nullptr_t@@QBEP6GHPA_WKJ@ZXZ 100b96f0 f i libucrtd:winapi_thunks.obj
 0001:000b8710       ??$?RV<lambda_9227be29367c048ad7fd93a717dcb1a1>@@AAV<lambda_a463b7b0560cfcaf9b17f27c6ef46564>@@V<lambda_ccea11b5727ccf69be64f5f5d9a08d9f>@@@?$__crt_seh_guarded_call@H@@QAEH$$QAV<lambda_9227be29367c048ad7fd93a717dcb1a1>@@AAV<lambda_a463b7b0560cfcaf9b17f27c6ef46564>@@$$QAV<lambda_ccea11b5727ccf69be64f5f5d9a08d9f>@@@Z 100b9710 f i libucrtd:winapi_thunks.obj
 0001:000b87c0       ??$__acrt_lock_and_call@V<lambda_a463b7b0560cfcaf9b17f27c6ef46564>@@@@YAHW4__acrt_lock_id@@$$QAV<lambda_a463b7b0560cfcaf9b17f27c6ef46564>@@@Z 100b97c0 f i libucrtd:winapi_thunks.obj
 0001:000b8810       ??$__crt_fast_decode_pointer@P6GHPA_WKJ@Z@@YAP6GHPA_WKJ@ZQ6GH0KJ@Z@Z 100b9810 f i libucrtd:winapi_thunks.obj
 0001:000b8850       ??$__crt_fast_encode_pointer@P6GHPA_WKJ@Z@@YAP6GHPA_WKJ@ZQ6GH0KJ@Z@Z 100b9850 f i libucrtd:winapi_thunks.obj
 0001:000b9420       ___acrt_AreFileApisANSI@0  100ba420 f   libucrtd:winapi_thunks.obj
 0001:000b9480       ___acrt_CompareStringEx@36 100ba480 f   libucrtd:winapi_thunks.obj
 0001:000b9540       ___acrt_EnumSystemLocalesEx@16 100ba540 f   libucrtd:winapi_thunks.obj
 0001:000b95d0       ___acrt_FlsAlloc@4         100ba5d0 f   libucrtd:winapi_thunks.obj
 0001:000b9640       ___acrt_FlsFree@4          100ba640 f   libucrtd:winapi_thunks.obj
 0001:000b96b0       ___acrt_FlsGetValue@4      100ba6b0 f   libucrtd:winapi_thunks.obj
 0001:000b9720       ___acrt_FlsSetValue@8      100ba720 f   libucrtd:winapi_thunks.obj
 0001:000b9790       ___acrt_GetDateFormatEx@28 100ba790 f   libucrtd:winapi_thunks.obj
 0001:000b9840       ___acrt_GetEnabledXStateFeatures@0 100ba840 f   libucrtd:winapi_thunks.obj
 0001:000b98a0       ___acrt_GetFileInformationByHandleEx@16 100ba8a0 f   libucrtd:winapi_thunks.obj
 0001:000b9920       ___acrt_GetLocaleInfoEx@16 100ba920 f   libucrtd:winapi_thunks.obj
 0001:000b99b0       ___acrt_GetSystemTimePreciseAsFileTime@4 100ba9b0 f   libucrtd:winapi_thunks.obj
 0001:000b9a20       ___acrt_GetTimeFormatEx@24 100baa20 f   libucrtd:winapi_thunks.obj
 0001:000b9ad0       ___acrt_GetUserDefaultLocaleName@8 100baad0 f   libucrtd:winapi_thunks.obj
 0001:000b9b50       ___acrt_GetXStateFeaturesMask@8 100bab50 f   libucrtd:winapi_thunks.obj
 0001:000b9bc0       ___acrt_InitializeCriticalSectionEx@12 100babc0 f   libucrtd:winapi_thunks.obj
 0001:000b9c40       ___acrt_IsValidLocaleName@4 100bac40 f   libucrtd:winapi_thunks.obj
 0001:000b9cc0       ___acrt_LCIDToLocaleName@16 100bacc0 f   libucrtd:winapi_thunks.obj
 0001:000b9d50       ___acrt_LCMapStringEx@36   100bad50 f   libucrtd:winapi_thunks.obj
 0001:000b9e10       ___acrt_LocaleNameToLCID@8 100bae10 f   libucrtd:winapi_thunks.obj
 0001:000b9e80       ___acrt_LocateXStateFeature@12 100bae80 f   libucrtd:winapi_thunks.obj
 0001:000b9ef0       ___acrt_MessageBoxA@16     100baef0 f   libucrtd:winapi_thunks.obj
 0001:000b9f60       ___acrt_MessageBoxW@16     100baf60 f   libucrtd:winapi_thunks.obj
 0001:000b9fd0       ___acrt_RoInitialize@4     100bafd0 f   libucrtd:winapi_thunks.obj
 0001:000ba030       ___acrt_RoUninitialize@0   100bb030 f   libucrtd:winapi_thunks.obj
 0001:000ba080       ___acrt_RtlGenRandom@8     100bb080 f   libucrtd:winapi_thunks.obj
 0001:000ba0f0       ___acrt_SetThreadStackGuarantee@4 100bb0f0 f   libucrtd:winapi_thunks.obj
 0001:000ba150       ___acrt_can_show_message_box 100bb150 f   libucrtd:winapi_thunks.obj
 0001:000ba190       ___acrt_can_use_vista_locale_apis 100bb190 f   libucrtd:winapi_thunks.obj
 0001:000ba1c0       ___acrt_can_use_xstate_apis 100bb1c0 f   libucrtd:winapi_thunks.obj
 0001:000ba1f0       ___acrt_get_parent_window  100bb1f0 f   libucrtd:winapi_thunks.obj
 0001:000ba290       ___acrt_initialize_winapi_thunks 100bb290 f   libucrtd:winapi_thunks.obj
 0001:000ba310       ___acrt_is_interactive     100bb310 f   libucrtd:winapi_thunks.obj
 0001:000ba3e0       ___acrt_is_packaged_app    100bb3e0 f   libucrtd:winapi_thunks.obj
 0001:000ba540       ___acrt_uninitialize_winapi_thunks 100bb540 f   libucrtd:winapi_thunks.obj
 0001:000bb8b0       ??$find_first_file_ex@ABQADW4_FINDEX_INFO_LEVELS@@PAU_WIN32_FIND_DATAA@@W4_FINDEX_SEARCH_OPS@@$$TH@?$__crt_char_traits@D@@SAPAXABQAD$$QAW4_FINDEX_INFO_LEVELS@@$$QAPAU_WIN32_FIND_DATAA@@$$QAW4_FINDEX_SEARCH_OPS@@$$QA$$T$$QAH@Z 100bc8b0 f i libucrtd:argv_wildcards.obj
 0001:000bb8f0       ??$find_first_file_ex@ABQA_WW4_FINDEX_INFO_LEVELS@@PAU_WIN32_FIND_DATAW@@W4_FINDEX_SEARCH_OPS@@$$TH@?$__crt_char_traits@_W@@SAPAXABQA_W$$QAW4_FINDEX_INFO_LEVELS@@$$QAPAU_WIN32_FIND_DATAW@@$$QAW4_FINDEX_SEARCH_OPS@@$$QA$$T$$QAH@Z 100bc8f0 f i libucrtd:argv_wildcards.obj
 0001:000bb930       ??$find_next_file@PAXPAU_WIN32_FIND_DATAA@@@?$__crt_char_traits@D@@SAH$$QAPAX$$QAPAU_WIN32_FIND_DATAA@@@Z 100bc930 f i libucrtd:argv_wildcards.obj
 0001:000bb950       ??$find_next_file@PAXPAU_WIN32_FIND_DATAW@@@?$__crt_char_traits@_W@@SAH$$QAPAX$$QAPAU_WIN32_FIND_DATAW@@@Z 100bc950 f i libucrtd:argv_wildcards.obj
 0001:000bb970       ??$tcsncpy_s@AAPADIAAPADABI@?$__crt_char_traits@D@@SAHAAPAD$$QAI0ABI@Z 100bc970 f i libucrtd:argv_wildcards.obj
 0001:000bb9a0       ??$tcsncpy_s@AAPA_WIAAPA_WABI@?$__crt_char_traits@_W@@SAHAAPA_W$$QAI0ABI@Z 100bc9a0 f i libucrtd:argv_wildcards.obj
 0001:000bb9d0       ??$tcsncpy_s@PAD$$CBIABQBDABI@?$__crt_char_traits@D@@SAH$$QAPAD$$QBIABQBDABI@Z 100bc9d0 f i libucrtd:argv_wildcards.obj
 0001:000bba00       ??$tcsncpy_s@PADABIABQBDABI@?$__crt_char_traits@D@@SAH$$QAPADABIABQBD1@Z 100bca00 f i libucrtd:argv_wildcards.obj
 0001:000bba30       ??$tcsncpy_s@PA_W$$CBIABQB_WABI@?$__crt_char_traits@_W@@SAH$$QAPA_W$$QBIABQB_WABI@Z 100bca30 f i libucrtd:argv_wildcards.obj
 0001:000bba60       ??$tcsncpy_s@PA_WABIABQB_WABI@?$__crt_char_traits@_W@@SAH$$QAPA_WABIABQB_W1@Z 100bca60 f i libucrtd:argv_wildcards.obj
 0001:000bba90       ??$tcspbrk@AAPADAAY02$$CBD@?$__crt_char_traits@D@@SAPADAAPADAAY02$$CBD@Z 100bca90 f i libucrtd:argv_wildcards.obj
 0001:000bbab0       ??$tcspbrk@AAPA_WAAY02$$CB_W@?$__crt_char_traits@_W@@SAPA_WAAPA_WAAY02$$CB_W@Z 100bcab0 f i libucrtd:argv_wildcards.obj
 0001:000bbad0       ??0?$__crt_unique_handle_t@U__crt_findfile_traits@@@@QAE@QAX@Z 100bcad0 f i libucrtd:argv_wildcards.obj
 0001:000bbaf0       ??0?$argument_list@D@?A0x536e2c96@@QAE@XZ 100bcaf0 f i libucrtd:argv_wildcards.obj
 0001:000bbb30       ??0?$argument_list@_W@?A0x536e2c96@@QAE@XZ 100bcb30 f i libucrtd:argv_wildcards.obj
 0001:000bbb70       ??1?$__crt_unique_handle_t@U__crt_findfile_traits@@@@QAE@XZ 100bcb70 f i libucrtd:argv_wildcards.obj
 0001:000bbb90       ??1?$argument_list@D@?A0x536e2c96@@QAE@XZ 100bcb90 f i libucrtd:argv_wildcards.obj
 0001:000bbc00       ??1?$argument_list@_W@?A0x536e2c96@@QAE@XZ 100bcc00 f i libucrtd:argv_wildcards.obj
 0001:000bbd50       ?append@?$argument_list@D@?A0x536e2c96@@QAEHQAD@Z 100bcd50 f i libucrtd:argv_wildcards.obj
 0001:000bbdc0       ?append@?$argument_list@_W@?A0x536e2c96@@QAEHQA_W@Z 100bcdc0 f i libucrtd:argv_wildcards.obj
 0001:000bbe30       ?begin@?$argument_list@D@?A0x536e2c96@@QBEPAPADXZ 100bce30 f i libucrtd:argv_wildcards.obj
 0001:000bbe50       ?begin@?$argument_list@_W@?A0x536e2c96@@QBEPAPA_WXZ 100bce50 f i libucrtd:argv_wildcards.obj
 0001:000bbe70       ?close@?$__crt_unique_handle_t@U__crt_findfile_traits@@@@QAEXXZ 100bce70 f i libucrtd:argv_wildcards.obj
 0001:000bbeb0       ?close@__crt_findfile_traits@@SA_NPAX@Z 100bceb0 f i libucrtd:argv_wildcards.obj
 0001:000bbef0       ?end@?$argument_list@D@?A0x536e2c96@@QBEPAPADXZ 100bcef0 f i libucrtd:argv_wildcards.obj
 0001:000bbf10       ?end@?$argument_list@_W@?A0x536e2c96@@QBEPAPA_WXZ 100bcf10 f i libucrtd:argv_wildcards.obj
 0001:000bbf30       ?expand_if_necessary@?$argument_list@D@?A0x536e2c96@@AAEHXZ 100bcf30 f i libucrtd:argv_wildcards.obj
 0001:000bc0e0       ?expand_if_necessary@?$argument_list@_W@?A0x536e2c96@@AAEHXZ 100bd0e0 f i libucrtd:argv_wildcards.obj
 0001:000bc290       ?get@?$__crt_unique_handle_t@U__crt_findfile_traits@@@@QBEPAXXZ 100bd290 f i libucrtd:argv_wildcards.obj
 0001:000bc2b0       ?get_invalid_value@__crt_findfile_traits@@SAPAXXZ 100bd2b0 f i libucrtd:argv_wildcards.obj
 0001:000bc2f0       ?size@?$argument_list@D@?A0x536e2c96@@QBEIXZ 100bd2f0 f i libucrtd:argv_wildcards.obj
 0001:000bc320       ?size@?$argument_list@_W@?A0x536e2c96@@QBEIXZ 100bd320 f i libucrtd:argv_wildcards.obj
 0001:000bc350       ?strpbrk@@YAPADQADQBD@Z    100bd350 f i libucrtd:argv_wildcards.obj
 0001:000bc370       ?wcspbrk@@YAPA_WPA_WPB_W@Z 100bd370 f i libucrtd:argv_wildcards.obj
 0001:000bc390       ___acrt_expand_narrow_argv_wildcards 100bd390 f   libucrtd:argv_wildcards.obj
 0001:000bc3b0       ___acrt_expand_wide_argv_wildcards 100bd3b0 f   libucrtd:argv_wildcards.obj
 0001:000bc3d0       ??$?RV<lambda_694f386f8d9a4d7d5afe1ac229f209db>@@AAV<lambda_2f900415df1f7f624cdaaefe86d0b1c0>@@V<lambda_17c2d007e408fdf31ce10a4c853c6ffa>@@@?$__crt_seh_guarded_call@X@@QAEX$$QAV<lambda_694f386f8d9a4d7d5afe1ac229f209db>@@AAV<lambda_2f900415df1f7f624cdaaefe86d0b1c0>@@$$QAV<lambda_17c2d007e408fdf31ce10a4c853c6ffa>@@@Z 100bd3d0 f i libucrtd:mbctype.obj
 0001:000bc470       ??$__acrt_lock_and_call@V<lambda_2f900415df1f7f624cdaaefe86d0b1c0>@@@@YAXW4__acrt_lock_id@@$$QAV<lambda_2f900415df1f7f624cdaaefe86d0b1c0>@@@Z 100bd470 f i libucrtd:mbctype.obj
 0001:000bd000       ___acrt_initialize_multibyte 100be000 f   libucrtd:mbctype.obj
 0001:000bd030       ___acrt_update_thread_multibyte_data 100be030 f   libucrtd:mbctype.obj
 0001:000bd180       ___p__mbcasemap            100be180 f   libucrtd:mbctype.obj
 0001:000bd1a0       ___p__mbctype              100be1a0 f   libucrtd:mbctype.obj
 0001:000bd1c0       __getmbcp                  100be1c0 f   libucrtd:mbctype.obj
 0001:000bd250       __setmbcp                  100be250 f   libucrtd:mbctype.obj
 0001:000bd270       __setmbcp_nolock           100be270 f   libucrtd:mbctype.obj
 0001:000bd88b       __ismbbalnum               100be88b f   libucrtd:ismbbyte.obj
 0001:000bd8ac       __ismbbalnum_l             100be8ac f   libucrtd:ismbbyte.obj
 0001:000bd8cf       __ismbbalpha               100be8cf f   libucrtd:ismbbyte.obj
 0001:000bd8f0       __ismbbalpha_l             100be8f0 f   libucrtd:ismbbyte.obj
 0001:000bd913       __ismbbblank               100be913 f   libucrtd:ismbbyte.obj
 0001:000bd93e       __ismbbblank_l             100be93e f   libucrtd:ismbbyte.obj
 0001:000bd96b       __ismbbgraph               100be96b f   libucrtd:ismbbyte.obj
 0001:000bd98c       __ismbbgraph_l             100be98c f   libucrtd:ismbbyte.obj
 0001:000bd9af       __ismbbkalnum              100be9af f   libucrtd:ismbbyte.obj
 0001:000bd9cd       __ismbbkalnum_l            100be9cd f   libucrtd:ismbbyte.obj
 0001:000bd9ec       __ismbbkana                100be9ec f   libucrtd:ismbbyte.obj
 0001:000bda03       __ismbbkana_l              100bea03 f   libucrtd:ismbbyte.obj
 0001:000bda68       __ismbbkprint              100bea68 f   libucrtd:ismbbyte.obj
 0001:000bda86       __ismbbkprint_l            100bea86 f   libucrtd:ismbbyte.obj
 0001:000bdaa5       __ismbbkpunct              100beaa5 f   libucrtd:ismbbyte.obj
 0001:000bdac3       __ismbbkpunct_l            100beac3 f   libucrtd:ismbbyte.obj
 0001:000bdae2       __ismbblead                100beae2 f   libucrtd:ismbbyte.obj
 0001:000bdb00       __ismbblead_l              100beb00 f   libucrtd:ismbbyte.obj
 0001:000bdb1f       __ismbbprint               100beb1f f   libucrtd:ismbbyte.obj
 0001:000bdb40       __ismbbprint_l             100beb40 f   libucrtd:ismbbyte.obj
 0001:000bdb63       __ismbbpunct               100beb63 f   libucrtd:ismbbyte.obj
 0001:000bdb81       __ismbbpunct_l             100beb81 f   libucrtd:ismbbyte.obj
 0001:000bdba0       __ismbbtrail               100beba0 f   libucrtd:ismbbyte.obj
 0001:000bdbbe       __ismbbtrail_l             100bebbe f   libucrtd:ismbbyte.obj
 0001:000bdbe0       ___acrt_initialize_command_line 100bebe0 f   libucrtd:argv_data.obj
 0001:000bdc10       ___acrt_uninitialize_command_line 100bec10 f   libucrtd:argv_data.obj
 0001:000bdc20       ___p___argc                100bec20 f   libucrtd:argv_data.obj
 0001:000bdc30       ___p___argv                100bec30 f   libucrtd:argv_data.obj
 0001:000bdc40       ___p___wargv               100bec40 f   libucrtd:argv_data.obj
 0001:000bdc50       ___p__acmdln               100bec50 f   libucrtd:argv_data.obj
 0001:000bdc60       ___p__pgmptr               100bec60 f   libucrtd:argv_data.obj
 0001:000bdc70       ___p__wcmdln               100bec70 f   libucrtd:argv_data.obj
 0001:000bdc80       ___p__wpgmptr              100bec80 f   libucrtd:argv_data.obj
 0001:000bdc90       __get_pgmptr               100bec90 f   libucrtd:argv_data.obj
 0001:000bddf0       __get_wpgmptr              100bedf0 f   libucrtd:argv_data.obj
 0001:000bdf42       ??0?$__crt_unique_handle_t@Uenvironment_strings_traits@?A0xda6148bb@@@@QAE@QA_W@Z 100bef42 f i libucrtd:get_environment_from_os.obj
 0001:000bdf56       ??1?$__crt_unique_handle_t@Uenvironment_strings_traits@?A0xda6148bb@@@@QAE@XZ 100bef56 f i libucrtd:get_environment_from_os.obj
 0001:000bdf72       ??B?$__crt_unique_handle_t@Uenvironment_strings_traits@?A0xda6148bb@@@@QBE_NXZ 100bef72 f i libucrtd:get_environment_from_os.obj
 0001:000bdf7c       ?close@?$__crt_unique_handle_t@Uenvironment_strings_traits@?A0xda6148bb@@@@QAEXXZ 100bef7c f i libucrtd:get_environment_from_os.obj
 0001:000bdf98       ?close@environment_strings_traits@?A0xda6148bb@@SA_NPA_W@Z 100bef98 f i libucrtd:get_environment_from_os.obj
 0001:000bdff2       ?get@?$__crt_unique_handle_t@Uenvironment_strings_traits@?A0xda6148bb@@@@QBEPA_WXZ 100beff2 f i libucrtd:get_environment_from_os.obj
 0001:000bdff5       ?get_invalid_value@environment_strings_traits@?A0xda6148bb@@SAPA_WXZ 100beff5 f i libucrtd:get_environment_from_os.obj
 0001:000bdff8       ?is_valid@?$__crt_unique_handle_t@Uenvironment_strings_traits@?A0xda6148bb@@@@QBE_NXZ 100beff8 f i libucrtd:get_environment_from_os.obj
 0001:000be002       ___dcrt_get_narrow_environment_from_os 100bf002 f   libucrtd:get_environment_from_os.obj
 0001:000be0b7       ___dcrt_get_wide_environment_from_os 100bf0b7 f   libucrtd:get_environment_from_os.obj
 0001:000bec57       ??$get_or_create_environment_nolock@$$$V@?$__crt_char_traits@D@@SAPAPADXZ 100bfc57 f i libucrtd:setenv.obj
 0001:000bec5c       ??$get_or_create_environment_nolock@$$$V@?$__crt_char_traits@_W@@SAPAPA_WXZ 100bfc5c f i libucrtd:setenv.obj
 0001:000bec61       ??$set_environment_variable@ABQADQAD@?$__crt_char_traits@D@@SAHABQAD$$QBQAD@Z 100bfc61 f i libucrtd:setenv.obj
 0001:000bec7d       ??$set_environment_variable@ABQA_WQA_W@?$__crt_char_traits@_W@@SAHABQA_W$$QBQA_W@Z 100bfc7d f i libucrtd:setenv.obj
 0001:000bec99       ??$tcschr@ABQADD@?$__crt_char_traits@D@@SAPADABQAD$$QAD@Z 100bfc99 f i libucrtd:setenv.obj
 0001:000becb9       ??$tcschr@ABQA_WD@?$__crt_char_traits@_W@@SAPA_WABQA_W$$QAD@Z 100bfcb9 f i libucrtd:setenv.obj
 0001:000becde       ??$tcscpy_s@AAPADABIAAPAD@?$__crt_char_traits@D@@SAHAAPADABI0@Z 100bfcde f i libucrtd:setenv.obj
 0001:000bed03       ??$tcscpy_s@AAPA_WABIAAPA_W@?$__crt_char_traits@_W@@SAHAAPA_WABI0@Z 100bfd03 f i libucrtd:setenv.obj
 0001:000bed28       ??$tcscpy_s@ABQADABIABQAD@?$__crt_char_traits@D@@SAHABQADABI0@Z 100bfd28 f i libucrtd:setenv.obj
 0001:000bed4d       ??$tcscpy_s@ABQA_WABIABQA_W@?$__crt_char_traits@_W@@SAHABQA_WABI0@Z 100bfd4d f i libucrtd:setenv.obj
 0001:000bed72       ??$tcslen@ABQAD@?$__crt_char_traits@D@@SAIABQAD@Z 100bfd72 f i libucrtd:setenv.obj
 0001:000bed90       ??$tcslen@ABQA_W@?$__crt_char_traits@_W@@SAIABQA_W@Z 100bfd90 f i libucrtd:setenv.obj
 0001:000bedb5       ??$tcsnicoll@ABQBDAAPADABI@?$__crt_char_traits@D@@SAHABQBDAAPADABI@Z 100bfdb5 f i libucrtd:setenv.obj
 0001:000bedda       ??$tcsnicoll@ABQB_WAAPA_WABI@?$__crt_char_traits@_W@@SAHABQB_WAAPA_WABI@Z 100bfdda f i libucrtd:setenv.obj
 0001:000bedff       ??$tcsnlen@QADH@?$__crt_char_traits@D@@SAI$$QBQAD$$QAH@Z 100bfdff f i libucrtd:setenv.obj
 0001:000bee1d       ??$tcsnlen@QA_WH@?$__crt_char_traits@_W@@SAI$$QBQA_W$$QAH@Z 100bfe1d f i libucrtd:setenv.obj
 0001:000bee5f       ?strchr@@YAPADQADH@Z       100bfe5f f i libucrtd:setenv.obj
 0001:000bee6c       ?wcschr@@YAPA_WPA_W_W@Z    100bfe6c f i libucrtd:setenv.obj
 0001:000bee79       ___dcrt_set_variable_in_narrow_environment_nolock 100bfe79 f   libucrtd:setenv.obj
 0001:000bee86       ___dcrt_set_variable_in_wide_environment_nolock 100bfe86 f   libucrtd:setenv.obj
 0001:000bf210       ___acrt_initialize_lowio   100c0210 f   libucrtd:ioinit.obj
 0001:000bf2d0       ___acrt_uninitialize_lowio 100c02d0 f   libucrtd:ioinit.obj
 0001:000bf340       ___acrt_execute_initializers 100c0340 f   libucrtd:shared_initialization.obj
 0001:000bf440       ___acrt_execute_uninitializers 100c0440 f   libucrtd:shared_initialization.obj
 0001:000bf4d0       ?has_any_buffer@__crt_stdio_stream@@QBE_NXZ 100c04d0 f i libucrtd:_sftbuf.obj
 0001:000bf4f0       ?has_any_of@__crt_stdio_stream@@QBE_NJ@Z 100c04f0 f i libucrtd:_sftbuf.obj
 0001:000bf530       ?has_temporary_buffer@__crt_stdio_stream@@QBE_NXZ 100c0530 f i libucrtd:_sftbuf.obj
 0001:000bf550       ?set_flags@__crt_stdio_stream@@QBE_NJ@Z 100c0550 f i libucrtd:_sftbuf.obj
 0001:000bf5b0       ?unset_flags@__crt_stdio_stream@@QBE_NJ@Z 100c05b0 f i libucrtd:_sftbuf.obj
 0001:000bf610       ___acrt_stdio_begin_temporary_buffering_nolock 100c0610 f   libucrtd:_sftbuf.obj
