 PhysX3_x86

 Timestamp is 58ca812f (Thu Mar 16 12:12:31 2017)

 Preferred load address is 10000000

 Start         Length     Name                   Class
 0001:00000000 00005c80H .text$di                CODE
 0001:00005c80 0018a29fH .text$mn                CODE
 0002:00000000 00000180H .idata$5                DATA
 0002:00000180 00000004H .00cfg                  DATA
 0002:00000184 00000004H .CRT$XCA                DATA
 0002:00000188 00000de8H .CRT$XCU                DATA
 0002:00000f70 00000004H .CRT$XCZ                DATA
 0002:00000f74 00000004H .CRT$XIA                DATA
 0002:00000f78 0000000cH .CRT$XIC                DATA
 0002:00000f84 00000004H .CRT$XIZ                DATA
 0002:00000f88 00000004H .CRT$XPA                DATA
 0002:00000f8c 00000008H .CRT$XPX                DATA
 0002:00000f94 00000004H .CRT$XPXA               DATA
 0002:00000f98 00000004H .CRT$XPZ                DATA
 0002:00000f9c 00000004H .CRT$XTA                DATA
 0002:00000fa0 00000020H .CRT$XTZ                DATA
 0002:00000fc0 0001de24H .rdata                  DATA
 0002:0001ede4 0000020cH .rdata$r                DATA
 0002:0001eff0 0000000cH .rdata$sxdata           DATA
 0002:0001effc 000003c0H .rdata$zzzdbg           DATA
 0002:0001f3bc 00000004H .rtc$IAA                DATA
 0002:0001f3c0 00000004H .rtc$IZZ                DATA
 0002:0001f3c4 00000004H .rtc$TAA                DATA
 0002:0001f3c8 00000008H .rtc$TZZ                DATA
 0002:0001f3d0 000006f4H .xdata$x                DATA
 0002:0001fac4 00000040H .didat$2                DATA
 0002:0001fb04 00000020H .didat$3                DATA
 0002:0001fb24 00000320H .didat$4                DATA
 0002:0001fe44 0000472cH .didat$6                DATA
 0002:00024570 00000320H .didat$7                DATA
 0002:00024890 000029a4H .edata                  DATA
 0002:00027234 00000014H .idata$2                DATA
 0002:00027248 00000014H .idata$3                DATA
 0002:0002725c 00000180H .idata$4                DATA
 0002:000273dc 00000718H .idata$6                DATA
 0003:00000000 00002440H .data                   DATA
 0003:00002440 00002890H .data$r                 DATA
 0003:00004cd0 00000330H .didat$5                DATA
 0003:00005000 000054b4H .bss                    DATA
 0004:00000000 000000ecH .gfids$x                DATA
 0004:000000ec 00000078H .gfids$y                DATA
 0005:00000000 000000a0H .rsrc$01                DATA
 0005:000000a0 00000490H .rsrc$02                DATA

  Address         Publics by Value              Rva+Base       Lib:Object

 0000:00000000       __except_list              00000000     <absolute>
 0000:00000000       ___guard_iat_count         00000000     <absolute>
 0000:00000000       ___guard_fids_count        00000000     <absolute>
 0000:00000000       ___guard_iat_table         00000000     <absolute>
 0000:00000000       ___guard_fids_table        00000000     <absolute>
 0000:00000000       ___guard_longjmp_count     00000000     <absolute>
 0000:00000000       ___guard_longjmp_table     00000000     <absolute>
 0000:00000000       ___dynamic_value_reloc_table 00000000     <absolute>
 0000:00000003       ___safe_se_handler_count   00000003     <absolute>
 0000:00000100       ___guard_flags             00000100     <absolute>
 0000:00000000       ___ImageBase               10000000     <linker-defined>
 0001:00005c80       _PxSetPhysXDelayLoadHook   10006c80 f   NpWindowsDelayLoadHook.obj
 0001:00005c90       ?delayHook@@YGP6GHXZIPAUDelayLoadInfo@@@Z 10006c90 f   NpWindowsDelayLoadHook.obj
 0001:00005ce0       ?foundationDliNotePreLoadLibrary@shdfnd@physx@@YGP6GHXZPBDPBVPxFoundationDelayLoadHook@2@@Z 10006ce0 f i NpWindowsDelayLoadHook.obj
 0001:00005da0       ?physXCommonDliNotePreLoadLibrary@Cm@physx@@YGP6GHXZPBDPBVPxDelayLoadHook@2@@Z 10006da0 f i NpWindowsDelayLoadHook.obj
 0001:00005f20       ?createTriangleMeshMirror@NpPhysicsGpu@physx@@QAE_NABVPxTriangleMesh@2@AAVPxCudaContextManager@2@@Z 10006f20 f   NpPhysicsGpu.obj
 0001:00005fe0       ?releaseTriangleMeshMirror@NpPhysicsGpu@physx@@QAEXABVPxTriangleMesh@2@PAVPxCudaContextManager@2@@Z 10006fe0 f   NpPhysicsGpu.obj
 0001:00006000       ?createHeightFieldMirror@NpPhysicsGpu@physx@@QAE_NABVPxHeightField@2@AAVPxCudaContextManager@2@@Z 10007000 f   NpPhysicsGpu.obj
 0001:000060c0       ?releaseHeightFieldMirror@NpPhysicsGpu@physx@@QAEXABVPxHeightField@2@PAVPxCudaContextManager@2@@Z 100070c0 f   NpPhysicsGpu.obj
 0001:000060e0       ?createConvexMeshMirror@NpPhysicsGpu@physx@@QAE_NABVPxConvexMesh@2@AAVPxCudaContextManager@2@@Z 100070e0 f   NpPhysicsGpu.obj
 0001:000061a0       ?releaseConvexMeshMirror@NpPhysicsGpu@physx@@QAEXABVPxConvexMesh@2@PAVPxCudaContextManager@2@@Z 100071a0 f   NpPhysicsGpu.obj
 0001:000061c0       ?setExplicitCudaFlushCountHint@NpPhysicsGpu@physx@@QAEXABVPxScene@2@I@Z 100071c0 f   NpPhysicsGpu.obj
 0001:00006220       ?setTriangleMeshCacheSizeHint@NpPhysicsGpu@physx@@QAE_NABVPxScene@2@I@Z 10007220 f   NpPhysicsGpu.obj
 0001:00006280       ?getTriangleMeshCacheStatistics@NpPhysicsGpu@physx@@QAE?AUPxTriangleMeshCacheStatistics@2@ABVPxScene@2@@Z 10007280 f   NpPhysicsGpu.obj
 0001:00006310       ??0NpPhysicsGpu@physx@@QAE@AAVNpPhysics@1@@Z 10007310 f   NpPhysicsGpu.obj
 0001:00006340       ??1NpPhysicsGpu@physx@@UAE@XZ 10007340 f   NpPhysicsGpu.obj
 0001:00006370       ?findMeshMirror@NpPhysicsGpu@physx@@AAEPAUMeshMirror@12@PBX@Z 10007370 f   NpPhysicsGpu.obj
 0001:000063b0       ?findMeshMirror@NpPhysicsGpu@physx@@AAEPAUMeshMirror@12@PBXAAVPxCudaContextManager@2@@Z 100073b0 f   NpPhysicsGpu.obj
 0001:000063f0       ?getPhysXGpu@NpPhysicsGpu@physx@@AAEPAVPxPhysXGpu@2@_NPBD0@Z 100073f0 f   NpPhysicsGpu.obj
 0001:00006440       ?checkNewMirror@NpPhysicsGpu@physx@@AAE_NPBXAAVPxCudaContextManager@2@PBD@Z 10007440 f   NpPhysicsGpu.obj
 0001:000064c0       ?checkMirrorExists@NpPhysicsGpu@physx@@AAE_NPAUMeshMirror@12@PBD@Z 100074c0 f   NpPhysicsGpu.obj
 0001:00006510       ?checkMirrorHandle@NpPhysicsGpu@physx@@AAE_NIPBD@Z 10007510 f   NpPhysicsGpu.obj
 0001:00006550       ?addMeshMirror@NpPhysicsGpu@physx@@AAEXPBXIAAVPxCudaContextManager@2@@Z 10007550 f   NpPhysicsGpu.obj
 0001:000065a0       ?releaseMeshMirror@NpPhysicsGpu@physx@@AAEXPBXPBDPAVPxCudaContextManager@2@@Z 100075a0 f   NpPhysicsGpu.obj
 0001:00006730       ??_ENpPhysicsGpu@physx@@UAEPAXI@Z 10007730 f i NpPhysicsGpu.obj
 0001:00006730       ??_GNpPhysicsGpu@physx@@UAEPAXI@Z 10007730 f i NpPhysicsGpu.obj
 0001:00006780       ??_H@YGXPAXIIP6EPAX0@Z@Z   10007780 f i NpPhysicsGpu.obj
 0001:000067b0       ??_I@YGXPAXIIP6EX0@Z@Z     100077b0 f i NpPhysicsGpu.obj
 0001:000067f0       ?__empty_global_delete@@YAXPAX@Z 100077f0 f i NpPhysicsGpu.obj
 0001:00006800       ?__global_array_delete@@YAXPAXI@Z 10007800 f i NpPhysicsGpu.obj
 0001:00006800       ?__global_delete@@YAXPAXI@Z 10007800 f i NpPhysicsGpu.obj
 0001:00006800       ?__empty_global_delete@@YAXPAXI@Z 10007800 f i NpPhysicsGpu.obj
 0001:00006810       ?allocate@?$Array@UMeshMirror@NpPhysicsGpu@physx@@V?$ReflectionAllocator@UMeshMirror@NpPhysicsGpu@physx@@@shdfnd@3@@shdfnd@physx@@IAEPAUMeshMirror@NpPhysicsGpu@3@I@Z 10007810 f i NpPhysicsGpu.obj
 0001:00006880       ?recreate@?$Array@UMeshMirror@NpPhysicsGpu@physx@@V?$ReflectionAllocator@UMeshMirror@NpPhysicsGpu@physx@@@shdfnd@3@@shdfnd@physx@@IAEXI@Z 10007880 f i NpPhysicsGpu.obj
 0001:000068f0       _PxGetSuggestedCudaDeviceOrdinal 100078f0 f   PxGpu.obj
 0001:00006920       _PxCreateCudaContextManager 10007920 f   PxGpu.obj
 0001:00006960       ?enable@PxParticleDeviceExclusive@physx@@SAXAAVPxParticleBase@2@@Z 10007960 f   PxParticleDeviceExclusive.obj
 0001:00006990       ?isEnabled@PxParticleDeviceExclusive@physx@@SA_NAAVPxParticleBase@2@@Z 10007990 f   PxParticleDeviceExclusive.obj
 0001:000069e0       ?getReadWriteCudaBuffers@PxParticleDeviceExclusive@physx@@SAXAAVPxParticleBase@2@AAUPxCudaReadWriteParticleBuffers@2@@Z 100079e0 f   PxParticleDeviceExclusive.obj
 0001:00006a40       ?setValidParticleRange@PxParticleDeviceExclusive@physx@@SAXAAVPxParticleBase@2@I@Z 10007a40 f   PxParticleDeviceExclusive.obj
 0001:00006aa0       ?setFlags@PxParticleDeviceExclusive@physx@@SAXAAVPxParticleBase@2@V?$PxFlags@W4Enum@PxParticleDeviceExclusiveFlag@physx@@I@2@@Z 10007aa0 f   PxParticleDeviceExclusive.obj
 0001:00006b00       ?getLaunchTask@PxParticleDeviceExclusive@physx@@SAPAVPxBaseTask@2@AAVPxParticleBase@2@@Z 10007b00 f   PxParticleDeviceExclusive.obj
 0001:00006b70       ?addLaunchTaskDependent@PxParticleDeviceExclusive@physx@@SAXAAVPxParticleBase@2@AAVPxBaseTask@2@@Z 10007b70 f   PxParticleDeviceExclusive.obj
 0001:00006bd0       ?getCudaStream@PxParticleDeviceExclusive@physx@@SAPAUCUstream_st@@AAVPxParticleBase@2@@Z 10007bd0 f   PxParticleDeviceExclusive.obj
 0001:00006c40       ?addLaunchTaskDependentGpu@?$NpParticleBaseTemplate@VPxParticleFluid@physx@@VNpParticleFluid@2@@physx@@QAEXAAVPxBaseTask@2@@Z 10007c40 f i PxParticleDeviceExclusive.obj
 0001:00006c60       ?addLaunchTaskDependentGpu@?$NpParticleBaseTemplate@VPxParticleSystem@physx@@VNpParticleSystem@2@@physx@@QAEXAAVPxBaseTask@2@@Z 10007c60 f i PxParticleDeviceExclusive.obj
 0001:00006c80       ?enableDeviceExclusiveModeGpu@?$NpParticleBaseTemplate@VPxParticleFluid@physx@@VNpParticleFluid@2@@physx@@QAEXXZ 10007c80 f i PxParticleDeviceExclusive.obj
 0001:00006d00       ?enableDeviceExclusiveModeGpu@?$NpParticleBaseTemplate@VPxParticleSystem@physx@@VNpParticleSystem@2@@physx@@QAEXXZ 10007d00 f i PxParticleDeviceExclusive.obj
 0001:00006d80       ?getCudaStreamGpu@?$NpParticleBaseTemplate@VPxParticleFluid@physx@@VNpParticleFluid@2@@physx@@QBEIXZ 10007d80 f i PxParticleDeviceExclusive.obj
 0001:00006da0       ?getCudaStreamGpu@?$NpParticleBaseTemplate@VPxParticleSystem@physx@@VNpParticleSystem@2@@physx@@QBEIXZ 10007da0 f i PxParticleDeviceExclusive.obj
 0001:00006dc0       ?getDeviceExclusiveAccessGpu@?$NpParticleBaseTemplate@VPxParticleFluid@physx@@VNpParticleFluid@2@@physx@@QBEPAVPxParticleDeviceExclusiveAccess@2@PBD@Z 10007dc0 f i PxParticleDeviceExclusive.obj
 0001:00006e60       ?getDeviceExclusiveAccessGpu@?$NpParticleBaseTemplate@VPxParticleSystem@physx@@VNpParticleSystem@2@@physx@@QBEPAVPxParticleDeviceExclusiveAccess@2@PBD@Z 10007e60 f i PxParticleDeviceExclusive.obj
 0001:00006f00       ?getLaunchTaskGpu@?$NpParticleBaseTemplate@VPxParticleFluid@physx@@VNpParticleFluid@2@@physx@@QBEPAVPxBaseTask@2@XZ 10007f00 f i PxParticleDeviceExclusive.obj
 0001:00006f20       ?getLaunchTaskGpu@?$NpParticleBaseTemplate@VPxParticleSystem@physx@@VNpParticleSystem@2@@physx@@QBEPAVPxBaseTask@2@XZ 10007f20 f i PxParticleDeviceExclusive.obj
 0001:00006f40       ?getReadWriteCudaBuffersGpu@?$NpParticleBaseTemplate@VPxParticleFluid@physx@@VNpParticleFluid@2@@physx@@QBEXAAUPxCudaReadWriteParticleBuffers@2@@Z 10007f40 f i PxParticleDeviceExclusive.obj
 0001:00006f60       ?getReadWriteCudaBuffersGpu@?$NpParticleBaseTemplate@VPxParticleSystem@physx@@VNpParticleSystem@2@@physx@@QBEXAAUPxCudaReadWriteParticleBuffers@2@@Z 10007f60 f i PxParticleDeviceExclusive.obj
 0001:00006f80       ?isDeviceExclusiveModeEnabledGpu@?$NpParticleBaseTemplate@VPxParticleFluid@physx@@VNpParticleFluid@2@@physx@@QBE_NXZ 10007f80 f i PxParticleDeviceExclusive.obj
 0001:00007000       ?isDeviceExclusiveModeEnabledGpu@?$NpParticleBaseTemplate@VPxParticleSystem@physx@@VNpParticleSystem@2@@physx@@QBE_NXZ 10008000 f i PxParticleDeviceExclusive.obj
 0001:00007080       ?setDeviceExclusiveModeFlagsGpu@?$NpParticleBaseTemplate@VPxParticleFluid@physx@@VNpParticleFluid@2@@physx@@QAEXI@Z 10008080 f i PxParticleDeviceExclusive.obj
 0001:000070a0       ?setDeviceExclusiveModeFlagsGpu@?$NpParticleBaseTemplate@VPxParticleSystem@physx@@VNpParticleSystem@2@@physx@@QAEXI@Z 100080a0 f i PxParticleDeviceExclusive.obj
 0001:000070c0       ?setValidParticleRangeGpu@?$NpParticleBaseTemplate@VPxParticleFluid@physx@@VNpParticleFluid@2@@physx@@QAEXI@Z 100080c0 f i PxParticleDeviceExclusive.obj
 0001:000070e0       ?setValidParticleRangeGpu@?$NpParticleBaseTemplate@VPxParticleSystem@physx@@VNpParticleSystem@2@@physx@@QAEXI@Z 100080e0 f i PxParticleDeviceExclusive.obj
 0001:00007100       ?createTriangleMeshMirror@PxParticleGpu@physx@@SA_NABVPxTriangleMesh@2@AAVPxCudaContextManager@2@@Z 10008100 f   PxParticleGpu.obj
 0001:00007120       ?releaseTriangleMeshMirror@PxParticleGpu@physx@@SAXABVPxTriangleMesh@2@PAVPxCudaContextManager@2@@Z 10008120 f   PxParticleGpu.obj
 0001:00007140       ?createHeightFieldMirror@PxParticleGpu@physx@@SA_NABVPxHeightField@2@AAVPxCudaContextManager@2@@Z 10008140 f   PxParticleGpu.obj
 0001:00007160       ?releaseHeightFieldMirror@PxParticleGpu@physx@@SAXABVPxHeightField@2@PAVPxCudaContextManager@2@@Z 10008160 f   PxParticleGpu.obj
 0001:00007180       ?createConvexMeshMirror@PxParticleGpu@physx@@SA_NABVPxConvexMesh@2@AAVPxCudaContextManager@2@@Z 10008180 f   PxParticleGpu.obj
 0001:000071a0       ?releaseConvexMeshMirror@PxParticleGpu@physx@@SAXABVPxConvexMesh@2@PAVPxCudaContextManager@2@@Z 100081a0 f   PxParticleGpu.obj
 0001:000071c0       ?setExplicitCudaFlushCountHint@PxParticleGpu@physx@@SAXABVPxScene@2@I@Z 100081c0 f   PxParticleGpu.obj
 0001:000071e0       ?setTriangleMeshCacheSizeHint@PxParticleGpu@physx@@SA_NABVPxScene@2@I@Z 100081e0 f   PxParticleGpu.obj
 0001:00007200       ?getTriangleMeshCacheStatistics@PxParticleGpu@physx@@SA?AUPxTriangleMeshCacheStatistics@2@ABVPxScene@2@@Z 10008200 f   PxParticleGpu.obj
 0001:00007230       _PxSetPhysXGpuLoadHook     10008230 f   PxPhysXGpuModuleLoader.obj
 0001:000072b0       ?PxLoadPhysxGPUModule@physx@@YAXPBD@Z 100082b0 f   PxPhysXGpuModuleLoader.obj
 0001:00007360       ?registerPhysXIndicatorGpuClient@PxPhysXIndicatorDeviceExclusive@physx@@SAXAAVPxPhysics@2@@Z 10008360 f   PxPhysXIndicatorDeviceExclusive.obj
 0001:00007370       ?unregisterPhysXIndicatorGpuClient@PxPhysXIndicatorDeviceExclusive@physx@@SAXAAVPxPhysics@2@@Z 10008370 f   PxPhysXIndicatorDeviceExclusive.obj
 0001:00007380       ??0PhysXIndicator@physx@@QAE@_N@Z 10008380 f   PhysXIndicatorWindows.obj
 0001:00007480       ??1PhysXIndicator@physx@@QAE@XZ 10008480 f   PhysXIndicatorWindows.obj
 0001:000074c0       ?setIsGpu@PhysXIndicator@physx@@QAEX_N@Z 100084c0 f   PhysXIndicatorWindows.obj
 0001:00007500       ??$__vcrt_va_start_verify_argument_type@QBD@@YAXXZ 10008500 f i PhysXIndicatorWindows.obj
 0001:00007510       ?IsWindowsVersionOrGreater@@YA_NGGG@Z 10008510 f i PhysXIndicatorWindows.obj
 0001:000075c0       ___local_stdio_printf_options 100085c0 f i PhysXIndicatorWindows.obj
 0001:000075d0       _sprintf                   100085d0 f i PhysXIndicatorWindows.obj
 0001:00007610       ?createObject@NpParticleFluid@physx@@SAPAV12@AAPAEAAVPxDeserializationContext@2@@Z 10008610 f   NpParticleFluid.obj
 0001:00007660       ??0NpParticleFluid@physx@@QAE@I_N@Z 10008660 f   NpParticleFluid.obj
 0001:000076c0       ??1NpParticleFluid@physx@@UAE@XZ 100086c0 f   NpParticleFluid.obj
 0001:000076f0       ?is@NpParticleFluid@physx@@UAEPAXW4Enum@PxActorType@2@@Z 100086f0 f   NpParticleFluid.obj
 0001:00007700       ?is@NpParticleFluid@physx@@UBEPBXW4Enum@PxActorType@2@@Z 10008700 f   NpParticleFluid.obj
 0001:00007710       ?lockParticleFluidReadData@NpParticleFluid@physx@@UAEPAVPxParticleFluidReadData@2@V?$PxFlags@W4Enum@PxDataAccessFlag@physx@@E@2@@Z 10008710 f   NpParticleFluid.obj
 0001:00007730       ?lockParticleFluidReadData@NpParticleFluid@physx@@UAEPAVPxParticleFluidReadData@2@XZ 10008730 f   NpParticleFluid.obj
 0001:00007740       ?getStiffness@NpParticleFluid@physx@@UBEMXZ 10008740 f   NpParticleFluid.obj
 0001:00007770       ?setStiffness@NpParticleFluid@physx@@UAEXM@Z 10008770 f   NpParticleFluid.obj
 0001:000077e0       ?getViscosity@NpParticleFluid@physx@@UBEMXZ 100087e0 f   NpParticleFluid.obj
 0001:00007810       ?setViscosity@NpParticleFluid@physx@@UAEXM@Z 10008810 f   NpParticleFluid.obj
 0001:00007880       ?getRestParticleDistance@NpParticleFluid@physx@@UBEMXZ 10008880 f   NpParticleFluid.obj
 0001:00007890       ?setRestParticleDistance@NpParticleFluid@physx@@UAEXM@Z 10008890 f   NpParticleFluid.obj
 0001:000078d0       ??$pointerOffset@PAVActor@Scb@physx@@@shdfnd@physx@@YAPAVActor@Scb@1@PAXH@Z 100088d0 f i NpParticleFluid.obj
 0001:000078e0       ??$pointerOffset@PBVActor@Scb@physx@@@shdfnd@physx@@YAPBVActor@Scb@1@PBXH@Z 100088e0 f i NpParticleFluid.obj
 0001:000078f0       ??0?$NpActorTemplate@VPxParticleFluid@physx@@@physx@@QAE@GV?$PxFlags@W4Enum@PxBaseFlag@physx@@G@1@PBDPAX@Z 100088f0 f i NpParticleFluid.obj
 0001:00007940       ??0?$NpParticleBaseTemplate@VPxParticleFluid@physx@@VNpParticleFluid@2@@physx@@QAE@GV?$PxFlags@W4Enum@PxBaseFlag@physx@@G@1@ABW4Enum@PxActorType@1@I_N@Z 10008940 f i NpParticleFluid.obj
 0001:000079a0       ??0?$NpParticleBaseTemplate@VPxParticleFluid@physx@@VNpParticleFluid@2@@physx@@QAE@V?$PxFlags@W4Enum@PxBaseFlag@physx@@G@1@@Z 100089a0 f i NpParticleFluid.obj
 0001:00007a20       ??0NpParticleFluidReadData@physx@@QAE@XZ 10008a20 f i NpParticleFluid.obj
 0001:00007a60       ??0PxParticleFluidReadData@physx@@QAE@XZ 10008a60 f i NpParticleFluid.obj
 0001:00007ad0       ??0PxVec3@physx@@QAE@XZ    10008ad0 f i NpParticleFluid.obj
 0001:00007ae0       ??1?$NpActorTemplate@VPxParticleFluid@physx@@@physx@@UAE@XZ 10008ae0 f i NpParticleFluid.obj
 0001:00007b10       ??1?$NpParticleBaseTemplate@VPxParticleFluid@physx@@VNpParticleFluid@2@@physx@@UAE@XZ 10008b10 f i NpParticleFluid.obj
 0001:00007b40       ??1NpParticleFluidReadData@physx@@UAE@XZ 10008b40 f i NpParticleFluid.obj
 0001:00007b50       ??1PxActor@physx@@MAE@XZ   10008b50 f i NpParticleFluid.obj
 0001:00007b60       ??1PxBase@physx@@MAE@XZ    10008b60 f i NpParticleFluid.obj
 0001:00007b70       ??1PxLockedData@physx@@UAE@XZ 10008b70 f i NpParticleFluid.obj
 0001:00007b80       ??1PxParticleBase@physx@@MAE@XZ 10008b80 f i NpParticleFluid.obj
 0001:00007b90       ??1PxParticleFluid@physx@@MAE@XZ 10008b90 f i NpParticleFluid.obj
 0001:00007ba0       ??1PxParticleFluidReadData@physx@@UAE@XZ 10008ba0 f i NpParticleFluid.obj
 0001:00007bb0       ??1PxParticleReadData@physx@@UAE@XZ 10008bb0 f i NpParticleFluid.obj
 0001:00007bc0       ??_G?$NpActorTemplate@VPxParticleFluid@physx@@@physx@@UAEPAXI@Z 10008bc0 f i NpParticleFluid.obj
 0001:00007bc0       ??_E?$NpActorTemplate@VPxParticleFluid@physx@@@physx@@UAEPAXI@Z 10008bc0 f i NpParticleFluid.obj
 0001:00007c20       ??_E?$NpParticleBaseTemplate@VPxParticleFluid@physx@@VNpParticleFluid@2@@physx@@UAEPAXI@Z 10008c20 f i NpParticleFluid.obj
 0001:00007c20       ??_G?$NpParticleBaseTemplate@VPxParticleFluid@physx@@VNpParticleFluid@2@@physx@@UAEPAXI@Z 10008c20 f i NpParticleFluid.obj
 0001:00007c90       ??_GNpParticleFluid@physx@@UAEPAXI@Z 10008c90 f i NpParticleFluid.obj
 0001:00007c90       ??_ENpParticleFluid@physx@@UAEPAXI@Z 10008c90 f i NpParticleFluid.obj
 0001:00007d00       ??_GNpParticleFluidReadData@physx@@UAEPAXI@Z 10008d00 f i NpParticleFluid.obj
 0001:00007d00       ??_ENpParticleFluidReadData@physx@@UAEPAXI@Z 10008d00 f i NpParticleFluid.obj
 0001:00007d50       ??_GPxActor@physx@@MAEPAXI@Z 10008d50 f i NpParticleFluid.obj
 0001:00007d50       ??_EPxActor@physx@@MAEPAXI@Z 10008d50 f i NpParticleFluid.obj
 0001:00007d80       ??_EPxBase@physx@@MAEPAXI@Z 10008d80 f i NpParticleFluid.obj
 0001:00007d80       ??_GPxBase@physx@@MAEPAXI@Z 10008d80 f i NpParticleFluid.obj
 0001:00007db0       ??_EPxLockedData@physx@@UAEPAXI@Z 10008db0 f i NpParticleFluid.obj
 0001:00007db0       ??_GPxLockedData@physx@@UAEPAXI@Z 10008db0 f i NpParticleFluid.obj
 0001:00007de0       ??_EPxParticleBase@physx@@MAEPAXI@Z 10008de0 f i NpParticleFluid.obj
 0001:00007de0       ??_GPxParticleBase@physx@@MAEPAXI@Z 10008de0 f i NpParticleFluid.obj
 0001:00007e10       ??_EPxParticleFluid@physx@@MAEPAXI@Z 10008e10 f i NpParticleFluid.obj
 0001:00007e10       ??_GPxParticleFluid@physx@@MAEPAXI@Z 10008e10 f i NpParticleFluid.obj
 0001:00007e40       ??_GPxParticleFluidReadData@physx@@UAEPAXI@Z 10008e40 f i NpParticleFluid.obj
 0001:00007e40       ??_EPxParticleFluidReadData@physx@@UAEPAXI@Z 10008e40 f i NpParticleFluid.obj
 0001:00007e70       ??_GPxParticleReadData@physx@@UAEPAXI@Z 10008e70 f i NpParticleFluid.obj
 0001:00007e70       ??_EPxParticleReadData@physx@@UAEPAXI@Z 10008e70 f i NpParticleFluid.obj
 0001:00007ea0       ?addForces@?$NpParticleBaseTemplate@VPxParticleFluid@physx@@VNpParticleFluid@2@@physx@@UAEXIABV?$PxStrideIterator@$$CBI@2@ABV?$PxStrideIterator@$$CBVPxVec3@physx@@@2@W4Enum@PxForceMode@2@@Z 10008ea0 f i NpParticleFluid.obj
 0001:00007f00       ?createParticles@?$NpParticleBaseTemplate@VPxParticleFluid@physx@@VNpParticleFluid@2@@physx@@UAE_NABVPxParticleCreationData@2@@Z 10008f00 f i NpParticleFluid.obj
 0001:00007f40       ?erase@?$HashBase@PAVPxParticleBase@physx@@PAV12@U?$Hash@PAVPxParticleBase@physx@@@shdfnd@2@UGetKey@?$HashSetBase@PAVPxParticleBase@physx@@U?$Hash@PAVPxParticleBase@physx@@@shdfnd@2@VNonTrackingAllocator@42@$00@internal@42@VNonTrackingAllocator@42@$00@internal@shdfnd@physx@@QAE_NABQAVPxParticleBase@4@@Z 10008f40 f i NpParticleFluid.obj
 0001:00007ff0       ?exportExtraData@?$NpActorTemplate@VPxParticleFluid@physx@@@physx@@UAEXAAVPxSerializationContext@2@@Z 10008ff0 f i NpParticleFluid.obj
 0001:00008000       ?exportExtraData@NpParticleFluid@physx@@UAEXAAVPxSerializationContext@2@@Z 10009000 f i NpParticleFluid.obj
 0001:00008010       ?getActorFlags@?$NpActorTemplate@VPxParticleFluid@physx@@@physx@@UBE?AV?$PxFlags@W4Enum@PxActorFlag@physx@@E@2@XZ 10009010 f i NpParticleFluid.obj
 0001:00008050       ?getAggregate@?$NpActorTemplate@VPxParticleFluid@physx@@@physx@@UBEPAVPxAggregate@2@XZ 10009050 f i NpParticleFluid.obj
 0001:00008060       ?getClientBehaviorFlags@?$NpActorTemplate@VPxParticleFluid@physx@@@physx@@UBE?AV?$PxFlags@W4Enum@PxActorClientBehaviorFlag@physx@@E@2@XZ 10009060 f i NpParticleFluid.obj
 0001:000080b0       ?getConcreteTypeName@PxParticleFluid@physx@@UBEPBDXZ 100090b0 f i NpParticleFluid.obj
 0001:000080c0       ?getContactOffset@?$NpParticleBaseTemplate@VPxParticleFluid@physx@@VNpParticleFluid@2@@physx@@UBEMXZ 100090c0 f i NpParticleFluid.obj
 0001:000080d0       ?getDamping@?$NpParticleBaseTemplate@VPxParticleFluid@physx@@VNpParticleFluid@2@@physx@@UBEMXZ 100090d0 f i NpParticleFluid.obj
 0001:00008100       ?getDataAccessFlags@NpParticleFluidReadData@physx@@UAE?AV?$PxFlags@W4Enum@PxDataAccessFlag@physx@@E@2@XZ 10009100 f i NpParticleFluid.obj
 0001:00008120       ?getDominanceGroup@?$NpActorTemplate@VPxParticleFluid@physx@@@physx@@UBEEXZ 10009120 f i NpParticleFluid.obj
 0001:00008150       ?getDynamicFriction@?$NpParticleBaseTemplate@VPxParticleFluid@physx@@VNpParticleFluid@2@@physx@@UBEMXZ 10009150 f i NpParticleFluid.obj
 0001:00008180       ?getExternalAcceleration@?$NpParticleBaseTemplate@VPxParticleFluid@physx@@VNpParticleFluid@2@@physx@@UBE?AVPxVec3@2@XZ 10009180 f i NpParticleFluid.obj
 0001:000081c0       ?getGridSize@?$NpParticleBaseTemplate@VPxParticleFluid@physx@@VNpParticleFluid@2@@physx@@UBEMXZ 100091c0 f i NpParticleFluid.obj
 0001:000081d0       ?getMaxMotionDistance@?$NpParticleBaseTemplate@VPxParticleFluid@physx@@VNpParticleFluid@2@@physx@@UBEMXZ 100091d0 f i NpParticleFluid.obj
 0001:000081e0       ?getMaxParticles@?$NpParticleBaseTemplate@VPxParticleFluid@physx@@VNpParticleFluid@2@@physx@@UBEIXZ 100091e0 f i NpParticleFluid.obj
 0001:000081f0       ?getName@?$NpActorTemplate@VPxParticleFluid@physx@@@physx@@UBEPBDXZ 100091f0 f i NpParticleFluid.obj
 0001:00008200       ?getOwnerClient@?$NpActorTemplate@VPxParticleFluid@physx@@@physx@@UBEEXZ 10009200 f i NpParticleFluid.obj
 0001:00008230       ?getParticleBaseFlags@?$NpParticleBaseTemplate@VPxParticleFluid@physx@@VNpParticleFluid@2@@physx@@UBE?AV?$PxFlags@W4Enum@PxParticleBaseFlag@physx@@G@2@XZ 10009230 f i NpParticleFluid.obj
 0001:00008270       ?getParticleMass@?$NpParticleBaseTemplate@VPxParticleFluid@physx@@VNpParticleFluid@2@@physx@@UBEMXZ 10009270 f i NpParticleFluid.obj
 0001:000082a0       ?getParticleReadDataFlags@?$NpParticleBaseTemplate@VPxParticleFluid@physx@@VNpParticleFluid@2@@physx@@UBE?AV?$PxFlags@W4Enum@PxParticleReadDataFlag@physx@@G@2@XZ 100092a0 f i NpParticleFluid.obj
 0001:000082c0       ?getProjectionPlane@?$NpParticleBaseTemplate@VPxParticleFluid@physx@@VNpParticleFluid@2@@physx@@UBEXAAVPxVec3@2@AAM@Z 100092c0 f i NpParticleFluid.obj
 0001:00008310       ?getRestOffset@?$NpParticleBaseTemplate@VPxParticleFluid@physx@@VNpParticleFluid@2@@physx@@UBEMXZ 10009310 f i NpParticleFluid.obj
 0001:00008320       ?getRestitution@?$NpParticleBaseTemplate@VPxParticleFluid@physx@@VNpParticleFluid@2@@physx@@UBEMXZ 10009320 f i NpParticleFluid.obj
 0001:00008350       ?getScene@?$NpActorTemplate@VPxParticleFluid@physx@@@physx@@UBEPAVPxScene@2@XZ 10009350 f i NpParticleFluid.obj
 0001:00008360       ?getSimulationFilterData@?$NpParticleBaseTemplate@VPxParticleFluid@physx@@VNpParticleFluid@2@@physx@@UBE?AUPxFilterData@2@XZ 10009360 f i NpParticleFluid.obj
 0001:000083a0       ?getStaticFriction@?$NpParticleBaseTemplate@VPxParticleFluid@physx@@VNpParticleFluid@2@@physx@@UBEMXZ 100093a0 f i NpParticleFluid.obj
 0001:000083d0       ?getType@?$NpParticleBaseTemplate@VPxParticleFluid@physx@@VNpParticleFluid@2@@physx@@UBE?AW4Enum@PxActorType@2@XZ 100093d0 f i NpParticleFluid.obj
 0001:000083e0       ?getType@NpParticleFluid@physx@@UBE?AW4Enum@PxActorType@2@XZ 100093e0 f i NpParticleFluid.obj
 0001:000083f0       ?getWorldBounds@?$NpParticleBaseTemplate@VPxParticleFluid@physx@@VNpParticleFluid@2@@physx@@UBE?AVPxBounds3@2@M@Z 100093f0 f i NpParticleFluid.obj
 0001:00008520       ?isKindOf@PxActor@physx@@MBE_NPBD@Z 10009520 f i NpParticleFluid.obj
 0001:000085a0       ?isKindOf@PxBase@physx@@MBE_NPBD@Z 100095a0 f i NpParticleFluid.obj
 0001:000085f0       ?isKindOf@PxParticleBase@physx@@MBE_NPBD@Z 100095f0 f i NpParticleFluid.obj
 0001:00008650       ?isKindOf@PxParticleFluid@physx@@MBE_NPBD@Z 10009650 f i NpParticleFluid.obj
 0001:000086e0       ?isReleasable@PxBase@physx@@UBE_NXZ 100096e0 f i NpParticleFluid.obj
 0001:000086f0       ?lockParticleReadData@?$NpParticleBaseTemplate@VPxParticleFluid@physx@@VNpParticleFluid@2@@physx@@UAEPAVPxParticleReadData@2@V?$PxFlags@W4Enum@PxDataAccessFlag@physx@@E@2@@Z 100096f0 f i NpParticleFluid.obj
 0001:00008710       ?lockParticleReadData@?$NpParticleBaseTemplate@VPxParticleFluid@physx@@VNpParticleFluid@2@@physx@@UAEPAVPxParticleReadData@2@XZ 10009710 f i NpParticleFluid.obj
 0001:00008720       ?lockParticleReadData@ParticleSystem@Scb@physx@@QAEPAVPxParticleReadData@3@V?$PxFlags@W4Enum@PxDataAccessFlag@physx@@E@3@@Z 10009720 f i NpParticleFluid.obj
 0001:00008860       ?release@?$NpActorTemplate@VPxParticleFluid@physx@@@physx@@UAEXXZ 10009860 f i NpParticleFluid.obj
 0001:00008870       ?release@?$NpParticleBaseTemplate@VPxParticleFluid@physx@@VNpParticleFluid@2@@physx@@UAEXXZ 10009870 f i NpParticleFluid.obj
 0001:000088d0       ?releaseParticles@?$NpParticleBaseTemplate@VPxParticleFluid@physx@@VNpParticleFluid@2@@physx@@UAEXIABV?$PxStrideIterator@$$CBI@2@@Z 100098d0 f i NpParticleFluid.obj
 0001:000088f0       ?releaseParticles@?$NpParticleBaseTemplate@VPxParticleFluid@physx@@VNpParticleFluid@2@@physx@@UAEXXZ 100098f0 f i NpParticleFluid.obj
 0001:00008900       ?replaceWithLast@?$HashBase@PAVPxParticleBase@physx@@PAV12@U?$Hash@PAVPxParticleBase@physx@@@shdfnd@2@UGetKey@?$HashSetBase@PAVPxParticleBase@physx@@U?$Hash@PAVPxParticleBase@physx@@@shdfnd@2@VNonTrackingAllocator@42@$00@internal@42@VNonTrackingAllocator@42@$00@internal@shdfnd@physx@@AAEXI@Z 10009900 f i NpParticleFluid.obj
 0001:00008990       ?requires@NpParticleFluid@physx@@UAEXAAVPxProcessPxBaseCallback@2@@Z 10009990 f i NpParticleFluid.obj
 0001:000089a0       ?resetFiltering@?$NpParticleBaseTemplate@VPxParticleFluid@physx@@VNpParticleFluid@2@@physx@@UAEXXZ 100099a0 f i NpParticleFluid.obj
 0001:000089e0       ?resolveReferences@?$NpActorTemplate@VPxParticleFluid@physx@@@physx@@UAEXAAVPxDeserializationContext@2@@Z 100099e0 f i NpParticleFluid.obj
 0001:000089f0       ?setActorFlag@?$NpActorTemplate@VPxParticleFluid@physx@@@physx@@UAEXW4Enum@PxActorFlag@2@_N@Z 100099f0 f i NpParticleFluid.obj
 0001:00008aa0       ?setActorFlags@?$NpActorTemplate@VPxParticleFluid@physx@@@physx@@UAEXV?$PxFlags@W4Enum@PxActorFlag@physx@@E@2@@Z 10009aa0 f i NpParticleFluid.obj
 0001:00008ad0       ?setActorFlags@Actor@Scb@physx@@QAEXV?$PxFlags@W4Enum@PxActorFlag@physx@@E@3@@Z 10009ad0 f i NpParticleFluid.obj
 0001:00008b50       ?setClientBehaviorFlags@?$NpActorTemplate@VPxParticleFluid@physx@@@physx@@UAEXV?$PxFlags@W4Enum@PxActorClientBehaviorFlag@physx@@E@2@@Z 10009b50 f i NpParticleFluid.obj
 0001:00008b80       ?setClientBehaviorFlags@Actor@Scb@physx@@QAEXV?$PxFlags@W4Enum@PxActorClientBehaviorFlag@physx@@E@3@@Z 10009b80 f i NpParticleFluid.obj
 0001:00008c00       ?setContactOffset@?$NpParticleBaseTemplate@VPxParticleFluid@physx@@VNpParticleFluid@2@@physx@@UAEXM@Z 10009c00 f i NpParticleFluid.obj
 0001:00008c40       ?setDamping@?$NpParticleBaseTemplate@VPxParticleFluid@physx@@VNpParticleFluid@2@@physx@@UAEXM@Z 10009c40 f i NpParticleFluid.obj
 0001:00008c60       ?setDamping@ParticleSystem@Scb@physx@@QAEXM@Z 10009c60 f i NpParticleFluid.obj
 0001:00008ce0       ?setDataAccessFlags@NpParticleFluidReadData@physx@@UAEXV?$PxFlags@W4Enum@PxDataAccessFlag@physx@@E@2@@Z 10009ce0 f i NpParticleFluid.obj
 0001:00008cf0       ?setDominanceGroup@?$NpActorTemplate@VPxParticleFluid@physx@@@physx@@UAEXE@Z 10009cf0 f i NpParticleFluid.obj
 0001:00008d10       ?setDominanceGroup@Actor@Scb@physx@@QAEXE@Z 10009d10 f i NpParticleFluid.obj
 0001:00008d80       ?setDynamicFriction@?$NpParticleBaseTemplate@VPxParticleFluid@physx@@VNpParticleFluid@2@@physx@@UAEXM@Z 10009d80 f i NpParticleFluid.obj
 0001:00008da0       ?setDynamicFriction@ParticleSystem@Scb@physx@@QAEXM@Z 10009da0 f i NpParticleFluid.obj
 0001:00008e20       ?setExternalAcceleration@?$NpParticleBaseTemplate@VPxParticleFluid@physx@@VNpParticleFluid@2@@physx@@UAEXABVPxVec3@2@@Z 10009e20 f i NpParticleFluid.obj
 0001:00008e30       ?setExternalAcceleration@ParticleSystem@Scb@physx@@QAEXABVPxVec3@3@@Z 10009e30 f i NpParticleFluid.obj
 0001:00008eb0       ?setFlags@ParticleSystem@Scb@physx@@QAEXV?$PxFlags@W4Enum@PxParticleBaseFlag@physx@@G@3@@Z 10009eb0 f i NpParticleFluid.obj
 0001:00008f30       ?setGridSize@?$NpParticleBaseTemplate@VPxParticleFluid@physx@@VNpParticleFluid@2@@physx@@UAEXM@Z 10009f30 f i NpParticleFluid.obj
 0001:00008f70       ?setMaxMotionDistance@?$NpParticleBaseTemplate@VPxParticleFluid@physx@@VNpParticleFluid@2@@physx@@UAEXM@Z 10009f70 f i NpParticleFluid.obj
 0001:00008fb0       ?setName@?$NpActorTemplate@VPxParticleFluid@physx@@@physx@@UAEXPBD@Z 10009fb0 f i NpParticleFluid.obj
 0001:00008fc0       ?setOwnerClient@?$NpActorTemplate@VPxParticleFluid@physx@@@physx@@UAEXE@Z 10009fc0 f i NpParticleFluid.obj
 0001:00009020       ?setOwnerClient@Actor@Scb@physx@@QAEXE@Z 1000a020 f i NpParticleFluid.obj
 0001:00009090       ?setParticleBaseFlag@?$NpParticleBaseTemplate@VPxParticleFluid@physx@@VNpParticleFluid@2@@physx@@UAEXW4Enum@PxParticleBaseFlag@2@_N@Z 1000a090 f i NpParticleFluid.obj
 0001:00009140       ?setParticleMass@?$NpParticleBaseTemplate@VPxParticleFluid@physx@@VNpParticleFluid@2@@physx@@UAEXM@Z 1000a140 f i NpParticleFluid.obj
 0001:00009160       ?setParticleMass@ParticleSystem@Scb@physx@@QAEXM@Z 1000a160 f i NpParticleFluid.obj
 0001:000091e0       ?setParticleReadDataFlag@?$NpParticleBaseTemplate@VPxParticleFluid@physx@@VNpParticleFluid@2@@physx@@UAEXW4Enum@PxParticleReadDataFlag@2@_N@Z 1000a1e0 f i NpParticleFluid.obj
 0001:00009240       ?setPositions@?$NpParticleBaseTemplate@VPxParticleFluid@physx@@VNpParticleFluid@2@@physx@@UAEXIABV?$PxStrideIterator@$$CBI@2@ABV?$PxStrideIterator@$$CBVPxVec3@physx@@@2@@Z 1000a240 f i NpParticleFluid.obj
 0001:00009260       ?setProjectionPlane@?$NpParticleBaseTemplate@VPxParticleFluid@physx@@VNpParticleFluid@2@@physx@@UAEXABVPxVec3@2@M@Z 1000a260 f i NpParticleFluid.obj
 0001:000092b0       ?setProjectionPlane@ParticleSystem@Scb@physx@@QAEXABVPxPlane@3@@Z 1000a2b0 f i NpParticleFluid.obj
 0001:00009330       ?setRestOffset@?$NpParticleBaseTemplate@VPxParticleFluid@physx@@VNpParticleFluid@2@@physx@@UAEXM@Z 1000a330 f i NpParticleFluid.obj
 0001:00009370       ?setRestOffsets@?$NpParticleBaseTemplate@VPxParticleFluid@physx@@VNpParticleFluid@2@@physx@@UAEXIABV?$PxStrideIterator@$$CBI@2@ABV?$PxStrideIterator@$$CBM@2@@Z 1000a370 f i NpParticleFluid.obj
 0001:00009390       ?setRestitution@?$NpParticleBaseTemplate@VPxParticleFluid@physx@@VNpParticleFluid@2@@physx@@UAEXM@Z 1000a390 f i NpParticleFluid.obj
 0001:000093b0       ?setRestitution@ParticleSystem@Scb@physx@@QAEXM@Z 1000a3b0 f i NpParticleFluid.obj
 0001:00009430       ?setSimulationFilterData@?$NpParticleBaseTemplate@VPxParticleFluid@physx@@VNpParticleFluid@2@@physx@@UAEXABUPxFilterData@2@@Z 1000a430 f i NpParticleFluid.obj
 0001:00009440       ?setSimulationFilterData@ParticleSystem@Scb@physx@@QAEXABUPxFilterData@3@@Z 1000a440 f i NpParticleFluid.obj
 0001:000094b0       ?setStaticFriction@?$NpParticleBaseTemplate@VPxParticleFluid@physx@@VNpParticleFluid@2@@physx@@UAEXM@Z 1000a4b0 f i NpParticleFluid.obj
 0001:000094d0       ?setStaticFriction@ParticleSystem@Scb@physx@@QAEXM@Z 1000a4d0 f i NpParticleFluid.obj
 0001:00009550       ?setVelocities@?$NpParticleBaseTemplate@VPxParticleFluid@physx@@VNpParticleFluid@2@@physx@@UAEXIABV?$PxStrideIterator@$$CBI@2@ABV?$PxStrideIterator@$$CBVPxVec3@physx@@@2@@Z 1000a550 f i NpParticleFluid.obj
 0001:00009570       ?unlock@NpParticleFluidReadData@physx@@UAEXXZ 1000a570 f i NpParticleFluid.obj
 0001:00009580       ?createObject@NpParticleSystem@physx@@SAPAV12@AAPAEAAVPxDeserializationContext@2@@Z 1000a580 f   NpParticleSystem.obj
 0001:000095d0       ??0NpParticleSystem@physx@@QAE@I_N@Z 1000a5d0 f   NpParticleSystem.obj
 0001:00009630       ??1NpParticleSystem@physx@@UAE@XZ 1000a630 f   NpParticleSystem.obj
 0001:00009660       ?setParticleReadDataFlag@NpParticleSystem@physx@@UAEXW4Enum@PxParticleReadDataFlag@2@_N@Z 1000a660 f   NpParticleSystem.obj
 0001:000096c0       ??0?$NpActorTemplate@VPxParticleSystem@physx@@@physx@@QAE@GV?$PxFlags@W4Enum@PxBaseFlag@physx@@G@1@PBDPAX@Z 1000a6c0 f i NpParticleSystem.obj
 0001:00009710       ??0?$NpParticleBaseTemplate@VPxParticleSystem@physx@@VNpParticleSystem@2@@physx@@QAE@GV?$PxFlags@W4Enum@PxBaseFlag@physx@@G@1@ABW4Enum@PxActorType@1@I_N@Z 1000a710 f i NpParticleSystem.obj
 0001:00009770       ??0?$NpParticleBaseTemplate@VPxParticleSystem@physx@@VNpParticleSystem@2@@physx@@QAE@V?$PxFlags@W4Enum@PxBaseFlag@physx@@G@1@@Z 1000a770 f i NpParticleSystem.obj
 0001:000097f0       ??1?$NpActorTemplate@VPxParticleSystem@physx@@@physx@@UAE@XZ 1000a7f0 f i NpParticleSystem.obj
 0001:00009820       ??1?$NpParticleBaseTemplate@VPxParticleSystem@physx@@VNpParticleSystem@2@@physx@@UAE@XZ 1000a820 f i NpParticleSystem.obj
 0001:00009850       ??1PxParticleSystem@physx@@MAE@XZ 1000a850 f i NpParticleSystem.obj
 0001:00009860       ??_G?$NpActorTemplate@VPxParticleSystem@physx@@@physx@@UAEPAXI@Z 1000a860 f i NpParticleSystem.obj
 0001:00009860       ??_E?$NpActorTemplate@VPxParticleSystem@physx@@@physx@@UAEPAXI@Z 1000a860 f i NpParticleSystem.obj
 0001:000098c0       ??_E?$NpParticleBaseTemplate@VPxParticleSystem@physx@@VNpParticleSystem@2@@physx@@UAEPAXI@Z 1000a8c0 f i NpParticleSystem.obj
 0001:000098c0       ??_G?$NpParticleBaseTemplate@VPxParticleSystem@physx@@VNpParticleSystem@2@@physx@@UAEPAXI@Z 1000a8c0 f i NpParticleSystem.obj
 0001:00009930       ??_GNpParticleSystem@physx@@UAEPAXI@Z 1000a930 f i NpParticleSystem.obj
 0001:00009930       ??_ENpParticleSystem@physx@@UAEPAXI@Z 1000a930 f i NpParticleSystem.obj
 0001:000099a0       ??_GPxParticleSystem@physx@@MAEPAXI@Z 1000a9a0 f i NpParticleSystem.obj
 0001:000099a0       ??_EPxParticleSystem@physx@@MAEPAXI@Z 1000a9a0 f i NpParticleSystem.obj
 0001:000099d0       ?addForces@?$NpParticleBaseTemplate@VPxParticleSystem@physx@@VNpParticleSystem@2@@physx@@UAEXIABV?$PxStrideIterator@$$CBI@2@ABV?$PxStrideIterator@$$CBVPxVec3@physx@@@2@W4Enum@PxForceMode@2@@Z 1000a9d0 f i NpParticleSystem.obj
 0001:00009a30       ?createParticles@?$NpParticleBaseTemplate@VPxParticleSystem@physx@@VNpParticleSystem@2@@physx@@UAE_NABVPxParticleCreationData@2@@Z 1000aa30 f i NpParticleSystem.obj
 0001:00009a70       ?exportExtraData@?$NpActorTemplate@VPxParticleSystem@physx@@@physx@@UAEXAAVPxSerializationContext@2@@Z 1000aa70 f i NpParticleSystem.obj
 0001:00009a80       ?exportExtraData@NpParticleSystem@physx@@UAEXAAVPxSerializationContext@2@@Z 1000aa80 f i NpParticleSystem.obj
 0001:00009a90       ?getActorFlags@?$NpActorTemplate@VPxParticleSystem@physx@@@physx@@UBE?AV?$PxFlags@W4Enum@PxActorFlag@physx@@E@2@XZ 1000aa90 f i NpParticleSystem.obj
 0001:00009ad0       ?getAggregate@?$NpActorTemplate@VPxParticleSystem@physx@@@physx@@UBEPAVPxAggregate@2@XZ 1000aad0 f i NpParticleSystem.obj
 0001:00009ae0       ?getClientBehaviorFlags@?$NpActorTemplate@VPxParticleSystem@physx@@@physx@@UBE?AV?$PxFlags@W4Enum@PxActorClientBehaviorFlag@physx@@E@2@XZ 1000aae0 f i NpParticleSystem.obj
 0001:00009b30       ?getConcreteTypeName@PxParticleSystem@physx@@UBEPBDXZ 1000ab30 f i NpParticleSystem.obj
 0001:00009b40       ?getContactOffset@?$NpParticleBaseTemplate@VPxParticleSystem@physx@@VNpParticleSystem@2@@physx@@UBEMXZ 1000ab40 f i NpParticleSystem.obj
 0001:00009b50       ?getDamping@?$NpParticleBaseTemplate@VPxParticleSystem@physx@@VNpParticleSystem@2@@physx@@UBEMXZ 1000ab50 f i NpParticleSystem.obj
 0001:00009b80       ?getDominanceGroup@?$NpActorTemplate@VPxParticleSystem@physx@@@physx@@UBEEXZ 1000ab80 f i NpParticleSystem.obj
 0001:00009bb0       ?getDynamicFriction@?$NpParticleBaseTemplate@VPxParticleSystem@physx@@VNpParticleSystem@2@@physx@@UBEMXZ 1000abb0 f i NpParticleSystem.obj
 0001:00009be0       ?getExternalAcceleration@?$NpParticleBaseTemplate@VPxParticleSystem@physx@@VNpParticleSystem@2@@physx@@UBE?AVPxVec3@2@XZ 1000abe0 f i NpParticleSystem.obj
 0001:00009c20       ?getGridSize@?$NpParticleBaseTemplate@VPxParticleSystem@physx@@VNpParticleSystem@2@@physx@@UBEMXZ 1000ac20 f i NpParticleSystem.obj
 0001:00009c30       ?getMaxMotionDistance@?$NpParticleBaseTemplate@VPxParticleSystem@physx@@VNpParticleSystem@2@@physx@@UBEMXZ 1000ac30 f i NpParticleSystem.obj
 0001:00009c40       ?getMaxParticles@?$NpParticleBaseTemplate@VPxParticleSystem@physx@@VNpParticleSystem@2@@physx@@UBEIXZ 1000ac40 f i NpParticleSystem.obj
 0001:00009c50       ?getName@?$NpActorTemplate@VPxParticleSystem@physx@@@physx@@UBEPBDXZ 1000ac50 f i NpParticleSystem.obj
 0001:00009c60       ?getOwnerClient@?$NpActorTemplate@VPxParticleSystem@physx@@@physx@@UBEEXZ 1000ac60 f i NpParticleSystem.obj
 0001:00009c90       ?getParticleBaseFlags@?$NpParticleBaseTemplate@VPxParticleSystem@physx@@VNpParticleSystem@2@@physx@@UBE?AV?$PxFlags@W4Enum@PxParticleBaseFlag@physx@@G@2@XZ 1000ac90 f i NpParticleSystem.obj
 0001:00009cd0       ?getParticleMass@?$NpParticleBaseTemplate@VPxParticleSystem@physx@@VNpParticleSystem@2@@physx@@UBEMXZ 1000acd0 f i NpParticleSystem.obj
 0001:00009d00       ?getParticleReadDataFlags@?$NpParticleBaseTemplate@VPxParticleSystem@physx@@VNpParticleSystem@2@@physx@@UBE?AV?$PxFlags@W4Enum@PxParticleReadDataFlag@physx@@G@2@XZ 1000ad00 f i NpParticleSystem.obj
 0001:00009d20       ?getProjectionPlane@?$NpParticleBaseTemplate@VPxParticleSystem@physx@@VNpParticleSystem@2@@physx@@UBEXAAVPxVec3@2@AAM@Z 1000ad20 f i NpParticleSystem.obj
 0001:00009d70       ?getRestOffset@?$NpParticleBaseTemplate@VPxParticleSystem@physx@@VNpParticleSystem@2@@physx@@UBEMXZ 1000ad70 f i NpParticleSystem.obj
 0001:00009d80       ?getRestitution@?$NpParticleBaseTemplate@VPxParticleSystem@physx@@VNpParticleSystem@2@@physx@@UBEMXZ 1000ad80 f i NpParticleSystem.obj
 0001:00009db0       ?getScene@?$NpActorTemplate@VPxParticleSystem@physx@@@physx@@UBEPAVPxScene@2@XZ 1000adb0 f i NpParticleSystem.obj
 0001:00009dc0       ?getSimulationFilterData@?$NpParticleBaseTemplate@VPxParticleSystem@physx@@VNpParticleSystem@2@@physx@@UBE?AUPxFilterData@2@XZ 1000adc0 f i NpParticleSystem.obj
 0001:00009e00       ?getStaticFriction@?$NpParticleBaseTemplate@VPxParticleSystem@physx@@VNpParticleSystem@2@@physx@@UBEMXZ 1000ae00 f i NpParticleSystem.obj
 0001:00009e30       ?getType@?$NpParticleBaseTemplate@VPxParticleSystem@physx@@VNpParticleSystem@2@@physx@@UBE?AW4Enum@PxActorType@2@XZ 1000ae30 f i NpParticleSystem.obj
 0001:00009e40       ?getType@NpParticleSystem@physx@@UBE?AW4Enum@PxActorType@2@XZ 1000ae40 f i NpParticleSystem.obj
 0001:00009e50       ?getWorldBounds@?$NpParticleBaseTemplate@VPxParticleSystem@physx@@VNpParticleSystem@2@@physx@@UBE?AVPxBounds3@2@M@Z 1000ae50 f i NpParticleSystem.obj
 0001:00009f80       ?isKindOf@PxParticleSystem@physx@@MBE_NPBD@Z 1000af80 f i NpParticleSystem.obj
 0001:0000a010       ?lockParticleReadData@?$NpParticleBaseTemplate@VPxParticleSystem@physx@@VNpParticleSystem@2@@physx@@UAEPAVPxParticleReadData@2@V?$PxFlags@W4Enum@PxDataAccessFlag@physx@@E@2@@Z 1000b010 f i NpParticleSystem.obj
 0001:0000a030       ?lockParticleReadData@?$NpParticleBaseTemplate@VPxParticleSystem@physx@@VNpParticleSystem@2@@physx@@UAEPAVPxParticleReadData@2@XZ 1000b030 f i NpParticleSystem.obj
 0001:0000a040       ?release@?$NpActorTemplate@VPxParticleSystem@physx@@@physx@@UAEXXZ 1000b040 f i NpParticleSystem.obj
 0001:0000a050       ?release@?$NpParticleBaseTemplate@VPxParticleSystem@physx@@VNpParticleSystem@2@@physx@@UAEXXZ 1000b050 f i NpParticleSystem.obj
 0001:0000a0b0       ?releaseParticles@?$NpParticleBaseTemplate@VPxParticleSystem@physx@@VNpParticleSystem@2@@physx@@UAEXIABV?$PxStrideIterator@$$CBI@2@@Z 1000b0b0 f i NpParticleSystem.obj
 0001:0000a0d0       ?releaseParticles@?$NpParticleBaseTemplate@VPxParticleSystem@physx@@VNpParticleSystem@2@@physx@@UAEXXZ 1000b0d0 f i NpParticleSystem.obj
 0001:0000a0e0       ?requires@NpParticleSystem@physx@@UAEXAAVPxProcessPxBaseCallback@2@@Z 1000b0e0 f i NpParticleSystem.obj
 0001:0000a0f0       ?resetFiltering@?$NpParticleBaseTemplate@VPxParticleSystem@physx@@VNpParticleSystem@2@@physx@@UAEXXZ 1000b0f0 f i NpParticleSystem.obj
 0001:0000a130       ?resolveReferences@?$NpActorTemplate@VPxParticleSystem@physx@@@physx@@UAEXAAVPxDeserializationContext@2@@Z 1000b130 f i NpParticleSystem.obj
 0001:0000a140       ?setActorFlag@?$NpActorTemplate@VPxParticleSystem@physx@@@physx@@UAEXW4Enum@PxActorFlag@2@_N@Z 1000b140 f i NpParticleSystem.obj
 0001:0000a1f0       ?setActorFlags@?$NpActorTemplate@VPxParticleSystem@physx@@@physx@@UAEXV?$PxFlags@W4Enum@PxActorFlag@physx@@E@2@@Z 1000b1f0 f i NpParticleSystem.obj
 0001:0000a220       ?setClientBehaviorFlags@?$NpActorTemplate@VPxParticleSystem@physx@@@physx@@UAEXV?$PxFlags@W4Enum@PxActorClientBehaviorFlag@physx@@E@2@@Z 1000b220 f i NpParticleSystem.obj
 0001:0000a250       ?setContactOffset@?$NpParticleBaseTemplate@VPxParticleSystem@physx@@VNpParticleSystem@2@@physx@@UAEXM@Z 1000b250 f i NpParticleSystem.obj
 0001:0000a290       ?setDamping@?$NpParticleBaseTemplate@VPxParticleSystem@physx@@VNpParticleSystem@2@@physx@@UAEXM@Z 1000b290 f i NpParticleSystem.obj
 0001:0000a2b0       ?setDominanceGroup@?$NpActorTemplate@VPxParticleSystem@physx@@@physx@@UAEXE@Z 1000b2b0 f i NpParticleSystem.obj
 0001:0000a2d0       ?setDynamicFriction@?$NpParticleBaseTemplate@VPxParticleSystem@physx@@VNpParticleSystem@2@@physx@@UAEXM@Z 1000b2d0 f i NpParticleSystem.obj
 0001:0000a2f0       ?setExternalAcceleration@?$NpParticleBaseTemplate@VPxParticleSystem@physx@@VNpParticleSystem@2@@physx@@UAEXABVPxVec3@2@@Z 1000b2f0 f i NpParticleSystem.obj
 0001:0000a300       ?setGridSize@?$NpParticleBaseTemplate@VPxParticleSystem@physx@@VNpParticleSystem@2@@physx@@UAEXM@Z 1000b300 f i NpParticleSystem.obj
 0001:0000a340       ?setMaxMotionDistance@?$NpParticleBaseTemplate@VPxParticleSystem@physx@@VNpParticleSystem@2@@physx@@UAEXM@Z 1000b340 f i NpParticleSystem.obj
 0001:0000a380       ?setName@?$NpActorTemplate@VPxParticleSystem@physx@@@physx@@UAEXPBD@Z 1000b380 f i NpParticleSystem.obj
 0001:0000a390       ?setOwnerClient@?$NpActorTemplate@VPxParticleSystem@physx@@@physx@@UAEXE@Z 1000b390 f i NpParticleSystem.obj
 0001:0000a3f0       ?setParticleBaseFlag@?$NpParticleBaseTemplate@VPxParticleSystem@physx@@VNpParticleSystem@2@@physx@@UAEXW4Enum@PxParticleBaseFlag@2@_N@Z 1000b3f0 f i NpParticleSystem.obj
 0001:0000a4a0       ?setParticleMass@?$NpParticleBaseTemplate@VPxParticleSystem@physx@@VNpParticleSystem@2@@physx@@UAEXM@Z 1000b4a0 f i NpParticleSystem.obj
 0001:0000a4c0       ?setParticleReadDataFlag@?$NpParticleBaseTemplate@VPxParticleSystem@physx@@VNpParticleSystem@2@@physx@@UAEXW4Enum@PxParticleReadDataFlag@2@_N@Z 1000b4c0 f i NpParticleSystem.obj
 0001:0000a520       ?setPositions@?$NpParticleBaseTemplate@VPxParticleSystem@physx@@VNpParticleSystem@2@@physx@@UAEXIABV?$PxStrideIterator@$$CBI@2@ABV?$PxStrideIterator@$$CBVPxVec3@physx@@@2@@Z 1000b520 f i NpParticleSystem.obj
 0001:0000a540       ?setProjectionPlane@?$NpParticleBaseTemplate@VPxParticleSystem@physx@@VNpParticleSystem@2@@physx@@UAEXABVPxVec3@2@M@Z 1000b540 f i NpParticleSystem.obj
 0001:0000a590       ?setRestOffset@?$NpParticleBaseTemplate@VPxParticleSystem@physx@@VNpParticleSystem@2@@physx@@UAEXM@Z 1000b590 f i NpParticleSystem.obj
 0001:0000a5d0       ?setRestOffsets@?$NpParticleBaseTemplate@VPxParticleSystem@physx@@VNpParticleSystem@2@@physx@@UAEXIABV?$PxStrideIterator@$$CBI@2@ABV?$PxStrideIterator@$$CBM@2@@Z 1000b5d0 f i NpParticleSystem.obj
 0001:0000a5f0       ?setRestitution@?$NpParticleBaseTemplate@VPxParticleSystem@physx@@VNpParticleSystem@2@@physx@@UAEXM@Z 1000b5f0 f i NpParticleSystem.obj
 0001:0000a610       ?setSimulationFilterData@?$NpParticleBaseTemplate@VPxParticleSystem@physx@@VNpParticleSystem@2@@physx@@UAEXABUPxFilterData@2@@Z 1000b610 f i NpParticleSystem.obj
 0001:0000a620       ?setStaticFriction@?$NpParticleBaseTemplate@VPxParticleSystem@physx@@VNpParticleSystem@2@@physx@@UAEXM@Z 1000b620 f i NpParticleSystem.obj
 0001:0000a640       ?setVelocities@?$NpParticleBaseTemplate@VPxParticleSystem@physx@@VNpParticleSystem@2@@physx@@UAEXIABV?$PxStrideIterator@$$CBI@2@ABV?$PxStrideIterator@$$CBVPxVec3@physx@@@2@@Z 1000b640 f i NpParticleSystem.obj
 0001:0000a660       ??0Offsets@Actor@Scb@physx@@QAE@XZ 1000b660 f   ScbActor.obj
 0001:0000a6b0       ?addActor@Aggregate@Scb@physx@@QAEXAAVActor@23@@Z 1000b6b0 f   ScbAggregate.obj
 0001:0000a7e0       ?removeActor@Aggregate@Scb@physx@@QAEXAAVActor@23@_N@Z 1000b7e0 f   ScbAggregate.obj
 0001:0000a930       ??$allocArrayBuffer@PAVActor@Scb@physx@@@Scene@Scb@physx@@AAEPAPAVActor@12@AAV?$Array@PAVActor@Scb@physx@@V?$ReflectionAllocator@PAVActor@Scb@physx@@@shdfnd@3@@shdfnd@2@IAAI@Z 1000b930 f i ScbAggregate.obj
 0001:0000a970       ?allocate@?$Array@PAVActor@Scb@physx@@V?$ReflectionAllocator@PAVActor@Scb@physx@@@shdfnd@3@@shdfnd@physx@@IAEPAPAVActor@Scb@3@I@Z 1000b970 f i ScbAggregate.obj
 0001:0000a9f0       ?create@?$Array@PAVActor@Scb@physx@@V?$ReflectionAllocator@PAVActor@Scb@physx@@@shdfnd@3@@shdfnd@physx@@KAXPAPAVActor@Scb@3@0ABQAV453@@Z 1000b9f0 f i ScbAggregate.obj
 0001:0000aa50       ?recreate@?$Array@PAVActor@Scb@physx@@V?$ReflectionAllocator@PAVActor@Scb@physx@@@shdfnd@3@@shdfnd@physx@@IAEXI@Z 1000ba50 f i ScbAggregate.obj
 0001:0000aab0       ?resize@?$Array@PAVActor@Scb@physx@@V?$ReflectionAllocator@PAVActor@Scb@physx@@@shdfnd@3@@shdfnd@physx@@QAEXIABQAVActor@Scb@3@@Z 1000bab0 f i ScbAggregate.obj
 0001:0000aaf0       ?destroy@Base@Scb@physx@@QAEXXZ 1000baf0 f   ScbBase.obj
 0001:0000ab30       ??0Cloth@Scb@physx@@QAE@ABVPxTransform@2@AAVClothFabricCore@Sc@2@PBUPxClothParticle@2@V?$PxFlags@W4Enum@PxClothFlag@physx@@G@2@@Z 1000bb30 f   ScbCloth.obj
 0001:0000ab80       ??1Cloth@Scb@physx@@QAE@XZ 1000bb80 f   ScbCloth.obj
 0001:0000ab90       ?syncState@Cloth@Scb@physx@@QAEXXZ 1000bb90 f   ScbCloth.obj
 0001:0000abc0       ?syncState@Actor@Scb@physx@@IAEXXZ 1000bbc0 f i ScbCloth.obj
 0001:0000ac30       ?getBinaryMetaData@Base@Scb@physx@@SAXAAVPxOutputStream@3@@Z 1000bc30 f   ScbMetaData.obj
 0001:0000ada0       ?getBinaryMetaData@Shape@Scb@physx@@SAXAAVPxOutputStream@3@@Z 1000bda0 f   ScbMetaData.obj
 0001:0000ae80       ?getBinaryMetaData@Actor@Scb@physx@@SAXAAVPxOutputStream@3@@Z 1000be80 f   ScbMetaData.obj
 0001:0000af20       ?getBinaryMetaData@RigidObject@Scb@physx@@SAXAAVPxOutputStream@3@@Z 1000bf20 f   ScbMetaData.obj
 0001:0000afc0       ?getBinaryMetaData@Body@Scb@physx@@SAXAAVPxOutputStream@3@@Z 1000bfc0 f   ScbMetaData.obj
 0001:0000b240       ?getBinaryMetaData@RigidStatic@Scb@physx@@SAXAAVPxOutputStream@3@@Z 1000c240 f   ScbMetaData.obj
 0001:0000b320       ?getBinaryMetaData@Constraint@Scb@physx@@SAXAAVPxOutputStream@3@@Z 1000c320 f   ScbMetaData.obj
 0001:0000b4d0       ?getBinaryMetaData@Articulation@Scb@physx@@SAXAAVPxOutputStream@3@@Z 1000c4d0 f   ScbMetaData.obj
 0001:0000b640       ?getBinaryMetaData@ArticulationJoint@Scb@physx@@SAXAAVPxOutputStream@3@@Z 1000c640 f   ScbMetaData.obj
 0001:0000b720       ?getBinaryMetaData@Aggregate@Scb@physx@@SAXAAVPxOutputStream@3@@Z 1000c720 f   ScbMetaData.obj
 0001:0000b8d0       ?getBinaryMetaData@Cloth@Scb@physx@@SAXAAVPxOutputStream@3@@Z 1000c8d0 f   ScbMetaData.obj
 0001:0000b9b0       ?getBinaryMetaData@ParticleSystem@Scb@physx@@SAXAAVPxOutputStream@3@@Z 1000c9b0 f   ScbMetaData.obj
 0001:0000bc70       ?initialize@ForceUpdates@ParticleSystem@Scb@physx@@QAEXI@Z 1000cc70 f   ScbParticleSystem.obj
 0001:0000bd40       ?destroy@ForceUpdates@ParticleSystem@Scb@physx@@QAEXXZ 1000cd40 f   ScbParticleSystem.obj
 0001:0000bdb0       ??0ParticleSystem@Scb@physx@@QAE@ABW4Enum@PxActorType@2@I_N@Z 1000cdb0 f   ScbParticleSystem.obj
 0001:0000be40       ??1ParticleSystem@Scb@physx@@QAE@XZ 1000ce40 f   ScbParticleSystem.obj
 0001:0000be70       ?createParticles@ParticleSystem@Scb@physx@@QAE_NABVPxParticleCreationData@3@@Z 1000ce70 f   ScbParticleSystem.obj
 0001:0000bf40       ?releaseParticles@ParticleSystem@Scb@physx@@QAEXIABV?$PxStrideIterator@$$CBI@3@@Z 1000cf40 f   ScbParticleSystem.obj
 0001:0000c0b0       ?releaseParticles@ParticleSystem@Scb@physx@@QAEXXZ 1000d0b0 f   ScbParticleSystem.obj
 0001:0000c1d0       ?setPositions@ParticleSystem@Scb@physx@@QAEXIABV?$PxStrideIterator@$$CBI@3@ABV?$PxStrideIterator@$$CBVPxVec3@physx@@@3@@Z 1000d1d0 f   ScbParticleSystem.obj
 0001:0000c2a0       ?setVelocities@ParticleSystem@Scb@physx@@QAEXIABV?$PxStrideIterator@$$CBI@3@ABV?$PxStrideIterator@$$CBVPxVec3@physx@@@3@@Z 1000d2a0 f   ScbParticleSystem.obj
 0001:0000c370       ?setRestOffsets@ParticleSystem@Scb@physx@@QAEXIABV?$PxStrideIterator@$$CBI@3@ABV?$PxStrideIterator@$$CBM@3@@Z 1000d370 f   ScbParticleSystem.obj
 0001:0000c440       ?addForces@ParticleSystem@Scb@physx@@QAEXIABV?$PxStrideIterator@$$CBI@3@ABV?$PxStrideIterator@$$CBVPxVec3@physx@@@3@W4Enum@PxForceMode@3@@Z 1000d440 f   ScbParticleSystem.obj
 0001:0000c5c0       ?submitForceUpdates@ParticleSystem@Scb@physx@@QAEXM@Z 1000d5c0 f   ScbParticleSystem.obj
 0001:0000c6e0       ?syncState@ParticleSystem@Scb@physx@@QAEXXZ 1000d6e0 f   ScbParticleSystem.obj
 0001:0000c8c0       ?add@ForceUpdates@ParticleSystem@Scb@physx@@QAEXIABVPxVec3@4@@Z 1000d8c0 f i ScbParticleSystem.obj
 0001:0000c970       ?extendUninitialized@?$BitMapBase@VNonTrackingAllocator@shdfnd@physx@@@Cm@physx@@IAEXI@Z 1000d970 f i ScbParticleSystem.obj
 0001:0000c9f0       ?scheduleForInsert@ObjectTracker@Scb@physx@@QAEXAAVBase@23@@Z 1000d9f0 f   ScbScene.obj
 0001:0000ca70       ?scheduleForRemove@ObjectTracker@Scb@physx@@QAEXAAVBase@23@@Z 1000da70 f   ScbScene.obj
 0001:0000cae0       ?scheduleForUpdate@ObjectTracker@Scb@physx@@QAEXAAVBase@23@@Z 1000dae0 f   ScbScene.obj
 0001:0000cb30       ?clear@ObjectTracker@Scb@physx@@QAEXXZ 1000db30 f   ScbScene.obj
 0001:0000cba0       ?insert@ObjectTracker@Scb@physx@@QAEXAAVBase@23@@Z 1000dba0 f   ScbScene.obj
 0001:0000cbd0       ?remove@ObjectTracker@Scb@physx@@QAEXAAVBase@23@@Z 1000dbd0 f   ScbScene.obj
 0001:0000cbf0       ??0Scene@Scb@physx@@QAE@ABVPxSceneDesc@2@_K@Z 1000dbf0 f   ScbScene.obj
 0001:0000cfc0       ?release@Scene@Scb@physx@@QAEXXZ 1000dfc0 f   ScbScene.obj
 0001:0000d010       ?getPxScene@Scene@Scb@physx@@QAEPAVPxScene@3@XZ 1000e010 f   ScbScene.obj
 0001:0000d020       ?addActor@Scene@Scb@physx@@QAEXAAVRigidStatic@23@_NPAVPxBounds3@3@@Z 1000e020 f   ScbScene.obj
 0001:0000d140       ?removeActor@Scene@Scb@physx@@QAEXAAVRigidStatic@23@_N1@Z 1000e140 f   ScbScene.obj
 0001:0000d270       ?addActor@Scene@Scb@physx@@QAEXAAVBody@23@_NPAVPxBounds3@3@@Z 1000e270 f   ScbScene.obj
 0001:0000d4c0       ?removeActor@Scene@Scb@physx@@QAEXAAVBody@23@_N1@Z 1000e4c0 f   ScbScene.obj
 0001:0000d6e0       ?addConstraint@Scene@Scb@physx@@QAEXAAVConstraint@23@@Z 1000e6e0 f   ScbScene.obj
 0001:0000d700       ?removeConstraint@Scene@Scb@physx@@QAEXAAVConstraint@23@@Z 1000e700 f   ScbScene.obj
 0001:0000d740       ?addArticulation@Scene@Scb@physx@@QAEXAAVArticulation@23@@Z 1000e740 f   ScbScene.obj
 0001:0000d7b0       ?removeArticulation@Scene@Scb@physx@@QAEXAAVArticulation@23@@Z 1000e7b0 f   ScbScene.obj
 0001:0000d800       ?addArticulationJoint@Scene@Scb@physx@@QAEXAAVArticulationJoint@23@@Z 1000e800 f   ScbScene.obj
 0001:0000d870       ?removeArticulationJoint@Scene@Scb@physx@@QAEXAAVArticulationJoint@23@@Z 1000e870 f   ScbScene.obj
 0001:0000d8b0       ?addAggregate@Scene@Scb@physx@@QAEXAAVAggregate@23@@Z 1000e8b0 f   ScbScene.obj
 0001:0000d900       ?removeAggregate@Scene@Scb@physx@@QAEXAAVAggregate@23@@Z 1000e900 f   ScbScene.obj
 0001:0000d940       ?addParticleSystem@Scene@Scb@physx@@QAEXAAVParticleSystem@23@@Z 1000e940 f   ScbScene.obj
 0001:0000d980       ?removeParticleSystem@Scene@Scb@physx@@QAEXAAVParticleSystem@23@_N@Z 1000e980 f   ScbScene.obj
 0001:0000d9e0       ?addCloth@Scene@Scb@physx@@QAEXAAVCloth@23@@Z 1000e9e0 f   ScbScene.obj
 0001:0000da50       ?removeCloth@Scene@Scb@physx@@QAEXAAVCloth@23@@Z 1000ea50 f   ScbScene.obj
 0001:0000da90       ?addMaterial@Scene@Scb@physx@@QAEXABVMaterialCore@Sc@3@@Z 1000ea90 f   ScbScene.obj
 0001:0000db20       ?updateMaterial@Scene@Scb@physx@@QAEXABVMaterialCore@Sc@3@@Z 1000eb20 f   ScbScene.obj
 0001:0000dbb0       ?removeMaterial@Scene@Scb@physx@@QAEXABVMaterialCore@Sc@3@@Z 1000ebb0 f   ScbScene.obj
 0001:0000dc40       ?updateLowLevelMaterial@Scene@Scb@physx@@QAEXPAPAVNpMaterial@3@@Z 1000ec40 f   ScbScene.obj
 0001:0000dda0       ?getBroadPhaseType@Scene@Scb@physx@@QBE?AW4Enum@PxBroadPhaseType@3@XZ 1000eda0 f   ScbScene.obj
 0001:0000ddb0       ?getBroadPhaseCaps@Scene@Scb@physx@@QBE_NAAUPxBroadPhaseCaps@3@@Z 1000edb0 f   ScbScene.obj
 0001:0000ddc0       ?getNbBroadPhaseRegions@Scene@Scb@physx@@QBEIXZ 1000edc0 f   ScbScene.obj
 0001:0000ddd0       ?getBroadPhaseRegions@Scene@Scb@physx@@QBEIPAUPxBroadPhaseRegionInfo@3@II@Z 1000edd0 f   ScbScene.obj
 0001:0000dde0       ?addBroadPhaseRegion@Scene@Scb@physx@@QAEIABUPxBroadPhaseRegion@3@_N@Z 1000ede0 f   ScbScene.obj
 0001:0000de20       ?removeBroadPhaseRegion@Scene@Scb@physx@@QAE_NI@Z 1000ee20 f   ScbScene.obj
 0001:0000de60       ?shiftOrigin@Scene@Scb@physx@@QAEXABVPxVec3@3@@Z 1000ee60 f   ScbScene.obj
 0001:0000de70       ?syncWriteThroughProperties@Scene@Scb@physx@@QAEXXZ 1000ee70 f   ScbScene.obj
 0001:0000e190       ?syncEntireScene@Scene@Scb@physx@@QAEXXZ 1000f190 f   ScbScene.obj
 0001:0000e4f0       ?processPendingRemove@Scene@Scb@physx@@QAEXXZ 1000f4f0 f   ScbScene.obj
 0001:0000e680       ?scheduleForUpdate@Scene@Scb@physx@@QAEXAAVBase@23@@Z 1000f680 f   ScbScene.obj
 0001:0000e760       ?getStream@Scene@Scb@physx@@QAEPAEW4Enum@ScbType@3@@Z 1000f760 f   ScbScene.obj
 0001:0000e8d0       ?syncState@Scene@Scb@physx@@AAEXXZ 1000f8d0 f   ScbScene.obj
 0001:0000ea50       ?preSimulateUpdateAppThread@Scene@Scb@physx@@QAEXM@Z 1000fa50 f   ScbScene.obj
 0001:0000eaa0       ?switchRigidToNoSim@Scene@Scb@physx@@QAEXAAVRigidObject@23@_N@Z 1000faa0 f   ScbScene.obj
 0001:0000eb90       ?switchRigidFromNoSim@Scene@Scb@physx@@QAEXAAVRigidObject@23@_N@Z 1000fb90 f   ScbScene.obj
 0001:0000ec50       ??$add@VArticulation@Scb@physx@@@Scene@Scb@physx@@AAEXAAVArticulation@12@AAVObjectTracker@12@PAVPxBounds3@2@@Z 1000fc50 f i ScbScene.obj
 0001:0000ecb0       ??$add@VArticulationJoint@Scb@physx@@@Scene@Scb@physx@@AAEXAAVArticulationJoint@12@AAVObjectTracker@12@PAVPxBounds3@2@@Z 1000fcb0 f i ScbScene.obj
 0001:0000ed20       ??$add@VBody@Scb@physx@@@Scene@Scb@physx@@AAEXAAVBody@12@AAVObjectTracker@12@PAVPxBounds3@2@@Z 1000fd20 f i ScbScene.obj
 0001:0000eef0       ??$add@VConstraint@Scb@physx@@@Scene@Scb@physx@@AAEXAAVConstraint@12@AAVObjectTracker@12@PAVPxBounds3@2@@Z 1000fef0 f i ScbScene.obj
 0001:0000ef90       ??$add@VParticleSystem@Scb@physx@@@Scene@Scb@physx@@AAEXAAVParticleSystem@12@AAVObjectTracker@12@PAVPxBounds3@2@@Z 1000ff90 f i ScbScene.obj
 0001:0000efd0       ??$add@VRigidStatic@Scb@physx@@@Scene@Scb@physx@@AAEXAAVRigidStatic@12@AAVObjectTracker@12@PAVPxBounds3@2@@Z 1000ffd0 f i ScbScene.obj
 0001:0000f1a0       ??$addRigidNoSim@$00VBody@Scb@physx@@@Scene@Scb@physx@@AAEXAAVBody@12@AAVObjectTracker@12@@Z 100101a0 f i ScbScene.obj
 0001:0000f350       ??$addRigidNoSim@$0A@VRigidStatic@Scb@physx@@@Scene@Scb@physx@@AAEXAAVRigidStatic@12@AAVObjectTracker@12@@Z 10010350 f i ScbScene.obj
 0001:0000f500       ??$partition@PAX$$CBU?$Less@PAX@shdfnd@physx@@@internal@shdfnd@physx@@YAHPAPAXHHABU?$Less@PAX@12@@Z 10010500 f i ScbScene.obj
 0001:0000f590       ??$pointerOffset@PAVShape@Scb@physx@@@shdfnd@physx@@YAPAVShape@Scb@1@PAXH@Z 10010590 f i ScbScene.obj
 0001:0000f5a0       ??$processRemoves@VArticulation@Scb@physx@@$00$0A@@Scene@Scb@physx@@AAEXAAVObjectTracker@12@@Z 100105a0 f i ScbScene.obj
 0001:0000f610       ??$processRemoves@VArticulationJoint@Scb@physx@@$0A@$0A@@Scene@Scb@physx@@AAEXAAVObjectTracker@12@@Z 10010610 f i ScbScene.obj
 0001:0000f650       ??$processRemoves@VBody@Scb@physx@@$00$00@Scene@Scb@physx@@AAEXAAVObjectTracker@12@@Z 10010650 f i ScbScene.obj
 0001:0000f8b0       ??$processRemoves@VCloth@Scb@physx@@$0A@$0A@@Scene@Scb@physx@@AAEXAAVObjectTracker@12@@Z 100108b0 f i ScbScene.obj
 0001:0000f8f0       ??$processRemoves@VConstraint@Scb@physx@@$00$0A@@Scene@Scb@physx@@AAEXAAVObjectTracker@12@@Z 100108f0 f i ScbScene.obj
 0001:0000f950       ??$processRemoves@VParticleSystem@Scb@physx@@$0A@$0A@@Scene@Scb@physx@@AAEXAAVObjectTracker@12@@Z 10010950 f i ScbScene.obj
 0001:0000f9a0       ??$processRemoves@VRigidStatic@Scb@physx@@$0A@$00@Scene@Scb@physx@@AAEXAAVObjectTracker@12@@Z 100109a0 f i ScbScene.obj
 0001:0000fbe0       ??$processShapeRemoves@VBody@Scb@physx@@@Scene@Scb@physx@@AAEXAAVObjectTracker@12@@Z 10010be0 f i ScbScene.obj
 0001:0000fd40       ??$processShapeRemoves@VRigidStatic@Scb@physx@@@Scene@Scb@physx@@AAEXAAVObjectTracker@12@@Z 10010d40 f i ScbScene.obj
 0001:0000fea0       ??$processSimUpdates@VArticulation@Scb@physx@@VArticulationCore@Sc@3@@Scene@Scb@physx@@AAEXPBQAVArticulationCore@Sc@2@I@Z 10010ea0 f i ScbScene.obj
 0001:00010030       ??$processSimUpdates@VBody@Scb@physx@@VBodyCore@Sc@3@@Scene@Scb@physx@@AAEXPBQAVBodyCore@Sc@2@I@Z 10011030 f i ScbScene.obj
 0001:00010070       ??$processSimUpdates@VConstraint@Scb@physx@@VConstraintCore@Sc@3@@Scene@Scb@physx@@AAEXPBQAVConstraintCore@Sc@2@I@Z 10011070 f i ScbScene.obj
 0001:00010190       ??$processUserUpdates@VArticulation@Scb@physx@@@Scene@Scb@physx@@AAEXAAVObjectTracker@12@@Z 10011190 f i ScbScene.obj
 0001:00010200       ??$processUserUpdates@VArticulationJoint@Scb@physx@@@Scene@Scb@physx@@AAEXAAVObjectTracker@12@@Z 10011200 f i ScbScene.obj
 0001:00010290       ??$processUserUpdates@VBody@Scb@physx@@@Scene@Scb@physx@@AAEXAAVObjectTracker@12@@Z 10011290 f i ScbScene.obj
 0001:00010490       ??$processUserUpdates@VConstraint@Scb@physx@@@Scene@Scb@physx@@AAEXAAVObjectTracker@12@@Z 10011490 f i ScbScene.obj
 0001:00010550       ??$processUserUpdates@VRigidStatic@Scb@physx@@@Scene@Scb@physx@@AAEXAAVObjectTracker@12@@Z 10011550 f i ScbScene.obj
 0001:00010750       ??$remove@VArticulation@Scb@physx@@@Scene@Scb@physx@@AAEXAAVArticulation@12@AAVObjectTracker@12@_N@Z 10011750 f i ScbScene.obj
 0001:000107a0       ??$remove@VArticulationJoint@Scb@physx@@@Scene@Scb@physx@@AAEXAAVArticulationJoint@12@AAVObjectTracker@12@_N@Z 100117a0 f i ScbScene.obj
 0001:000107e0       ??$remove@VBody@Scb@physx@@@Scene@Scb@physx@@AAEXAAVBody@12@AAVObjectTracker@12@_N@Z 100117e0 f i ScbScene.obj
 0001:00010a20       ??$remove@VRigidStatic@Scb@physx@@@Scene@Scb@physx@@AAEXAAVRigidStatic@12@AAVObjectTracker@12@_N@Z 10011a20 f i ScbScene.obj
 0001:00010c50       ??$removeRigidNoSim@$00VBody@Scb@physx@@@Scene@Scb@physx@@AAEXAAVBody@12@AAVObjectTracker@12@@Z 10011c50 f i ScbScene.obj
 0001:00010e60       ??$removeRigidNoSim@$0A@VRigidStatic@Scb@physx@@@Scene@Scb@physx@@AAEXAAVRigidStatic@12@AAVObjectTracker@12@@Z 10011e60 f i ScbScene.obj
 0001:00011070       ??$smallSort@PAX$$CBU?$Less@PAX@shdfnd@physx@@@internal@shdfnd@physx@@YAXPAPAXHHABU?$Less@PAX@12@@Z 10012070 f i ScbScene.obj
 0001:000110f0       ??$sort@PAXU?$Less@PAX@shdfnd@physx@@V?$ReflectionAllocator@U?$Block@E$0BAA@@Scene@Sc@physx@@@23@@shdfnd@physx@@YAXPAPAXIABU?$Less@PAX@01@ABV?$ReflectionAllocator@U?$Block@E$0BAA@@Scene@Sc@physx@@@01@I@Z 100120f0 f i ScbScene.obj
 0001:00011260       ??$sort@PAXU?$Less@PAX@shdfnd@physx@@V?$ReflectionAllocator@U?$Block@E$0BIA@@Scene@Sc@physx@@@23@@shdfnd@physx@@YAXPAPAXIABU?$Less@PAX@01@ABV?$ReflectionAllocator@U?$Block@E$0BIA@@Scene@Sc@physx@@@01@I@Z 10012260 f i ScbScene.obj
 0001:000113d0       ??$sort@PAXU?$Less@PAX@shdfnd@physx@@V?$ReflectionAllocator@U?$Block@E$0IA@@Scene@Sc@physx@@@23@@shdfnd@physx@@YAXPAPAXIABU?$Less@PAX@01@ABV?$ReflectionAllocator@U?$Block@E$0IA@@Scene@Sc@physx@@@01@I@Z 100123d0 f i ScbScene.obj
 0001:00011540       ??$sort@PAXU?$Less@PAX@shdfnd@physx@@V?$ReflectionAllocator@U?$Block@PAX$07@Scene@Sc@physx@@@23@@shdfnd@physx@@YAXPAPAXIABU?$Less@PAX@01@ABV?$ReflectionAllocator@U?$Block@PAX$07@Scene@Sc@physx@@@01@I@Z 10012540 f i ScbScene.obj
 0001:000116b0       ??$sort@PAXU?$Less@PAX@shdfnd@physx@@V?$ReflectionAllocator@U?$Block@PAX$0BA@@Scene@Sc@physx@@@23@@shdfnd@physx@@YAXPAPAXIABU?$Less@PAX@01@ABV?$ReflectionAllocator@U?$Block@PAX$0BA@@Scene@Sc@physx@@@01@I@Z 100126b0 f i ScbScene.obj
 0001:00011820       ??$sort@PAXU?$Less@PAX@shdfnd@physx@@V?$ReflectionAllocator@U?$Block@PAX$0CA@@Scene@Sc@physx@@@23@@shdfnd@physx@@YAXPAPAXIABU?$Less@PAX@01@ABV?$ReflectionAllocator@U?$Block@PAX$0CA@@Scene@Sc@physx@@@01@I@Z 10012820 f i ScbScene.obj
 0001:00011990       ??0?$MutexT@V?$ReflectionAllocator@VMutexImpl@shdfnd@physx@@@shdfnd@physx@@@shdfnd@physx@@QAE@ABV?$ReflectionAllocator@VMutexImpl@shdfnd@physx@@@12@@Z 10012990 f i ScbScene.obj
 0001:00011a00       ??0AggregateBuffer@Scb@physx@@QAE@XZ 10012a00 f i ScbScene.obj
 0001:00011a20       ??0BodyBuffer@Scb@physx@@QAE@XZ 10012a20 f i ScbScene.obj
 0001:00011a90       ??0FlushPool@Cm@physx@@QAE@I@Z 10012a90 f i ScbScene.obj
 0001:00011b40       ??0ParticleSystemBuffer@Scb@physx@@QAE@XZ 10012b40 f i ScbScene.obj
 0001:00011b70       ??0PxTransform@physx@@QAE@XZ 10012b70 f i ScbScene.obj
 0001:00011b80       ??0RigidObjectBuffer@Scb@physx@@QAE@XZ 10012b80 f i ScbScene.obj
 0001:00011c10       ??0SceneBuffer@Scb@physx@@QAE@XZ 10012c10 f i ScbScene.obj
 0001:00011cc0       ??0ShapeBuffer@Scb@physx@@QAE@XZ 10012cc0 f i ScbScene.obj
 0001:00011d00       ??1?$Array@PAVInteraction@Sc@physx@@V?$ReflectionAllocator@PAVInteraction@Sc@physx@@@shdfnd@3@@shdfnd@physx@@QAE@XZ 10012d00 f i ScbScene.obj
 0001:00011d30       ??1PxBaseTask@physx@@UAE@XZ 10012d30 f i ScbScene.obj
 0001:00011d40       ??1PxLightCpuTask@physx@@UAE@XZ 10012d40 f i ScbScene.obj
 0001:00011d50       ??_EPxBaseTask@physx@@UAEPAXI@Z 10012d50 f i ScbScene.obj
 0001:00011d50       ??_GPxBaseTask@physx@@UAEPAXI@Z 10012d50 f i ScbScene.obj
 0001:00011d80       ?allocate@?$Array@PAEV?$ReflectionAllocator@PAE@shdfnd@physx@@@shdfnd@physx@@IAEPAPAEI@Z 10012d80 f i ScbScene.obj
 0001:00011e00       ?allocate@?$Array@PAXV?$ReflectionAllocator@U?$Block@E$0BAA@@Scene@Sc@physx@@@shdfnd@physx@@@shdfnd@physx@@IAEPAPAXI@Z 10012e00 f i ScbScene.obj
 0001:00011e80       ?allocate@?$Array@PAXV?$ReflectionAllocator@U?$Block@E$0BIA@@Scene@Sc@physx@@@shdfnd@physx@@@shdfnd@physx@@IAEPAPAXI@Z 10012e80 f i ScbScene.obj
 0001:00011f00       ?allocate@?$Array@PAXV?$ReflectionAllocator@U?$Block@E$0IA@@Scene@Sc@physx@@@shdfnd@physx@@@shdfnd@physx@@IAEPAPAXI@Z 10012f00 f i ScbScene.obj
 0001:00011f80       ?allocate@?$Array@PAXV?$ReflectionAllocator@U?$Block@PAX$07@Scene@Sc@physx@@@shdfnd@physx@@@shdfnd@physx@@IAEPAPAXI@Z 10012f80 f i ScbScene.obj
 0001:00012000       ?allocate@?$Array@PAXV?$ReflectionAllocator@U?$Block@PAX$0BA@@Scene@Sc@physx@@@shdfnd@physx@@@shdfnd@physx@@IAEPAPAXI@Z 10013000 f i ScbScene.obj
 0001:00012080       ?allocate@?$Array@PAXV?$ReflectionAllocator@U?$Block@PAX$0CA@@Scene@Sc@physx@@@shdfnd@physx@@@shdfnd@physx@@IAEPAPAXI@Z 10013080 f i ScbScene.obj
 0001:00012100       ?allocate@?$Array@V?$PxFlags@W4Enum@PxClientBehaviorFlag@physx@@E@physx@@V?$ReflectionAllocator@V?$PxFlags@W4Enum@PxClientBehaviorFlag@physx@@E@physx@@@shdfnd@2@@shdfnd@physx@@IAEPAV?$PxFlags@W4Enum@PxClientBehaviorFlag@physx@@E@3@I@Z 10013100 f i ScbScene.obj
 0001:00012160       ?allocate@?$Array@VMaterialEvent@Scb@physx@@V?$ReflectionAllocator@VMaterialEvent@Scb@physx@@@shdfnd@3@@shdfnd@physx@@IAEPAVMaterialEvent@Scb@3@I@Z 10013160 f i ScbScene.obj
 0001:000121e0       ?allocate@?$InlineAllocator@$0BA@V?$ReflectionAllocator@PAVShape@Scb@physx@@@shdfnd@physx@@@shdfnd@physx@@QAEPAXIPBDH@Z 100131e0 f i ScbScene.obj
 0001:00012260       ?allocate@?$InlineAllocator@$0BAA@V?$ReflectionAllocator@PBVShapeCore@Sc@physx@@@shdfnd@physx@@@shdfnd@physx@@QAEPAXIPBDH@Z 10013260 f i ScbScene.obj
 0001:000122e0       ?allocate@?$InlineAllocator@$0CA@V?$ReflectionAllocator@URemovedShape@Scb@physx@@@shdfnd@physx@@@shdfnd@physx@@QAEPAXIPBDH@Z 100132e0 f i ScbScene.obj
 0001:00012360       ?allocateNotThreadSafe@FlushPool@Cm@physx@@QAEPAXII@Z 10013360 f i ScbScene.obj
 0001:00012450       ?clear@?$HashBase@PAVBase@Scb@physx@@PAV123@U?$Hash@PAVBase@Scb@physx@@@shdfnd@3@UGetKey@?$HashSetBase@PAVBase@Scb@physx@@U?$Hash@PAVBase@Scb@physx@@@shdfnd@3@VNonTrackingAllocator@53@$00@internal@53@VNonTrackingAllocator@53@$00@internal@shdfnd@physx@@QAEXXZ 10013450 f i ScbScene.obj
 0001:000124c0       ?clearNotThreadSafe@FlushPool@Cm@physx@@QAEXI@Z 100134c0 f i ScbScene.obj
 0001:00012510       ?create@?$Array@PAVShape@Scb@physx@@V?$InlineAllocator@$0BA@V?$ReflectionAllocator@PAVShape@Scb@physx@@@shdfnd@physx@@@shdfnd@3@@shdfnd@physx@@KAXPAPAVShape@Scb@3@0ABQAV453@@Z 10013510 f i ScbScene.obj
 0001:00012570       ?create@?$Array@URemovedShape@Scb@physx@@V?$InlineAllocator@$0CA@V?$ReflectionAllocator@URemovedShape@Scb@physx@@@shdfnd@physx@@@shdfnd@3@@shdfnd@physx@@KAXPAURemovedShape@Scb@3@0ABU453@@Z 10013570 f i ScbScene.obj
 0001:000125e0       ?create@?$Array@VMaterialEvent@Scb@physx@@V?$ReflectionAllocator@VMaterialEvent@Scb@physx@@@shdfnd@3@@shdfnd@physx@@KAXPAVMaterialEvent@Scb@3@0ABV453@@Z 100135e0 f i ScbScene.obj
 0001:00012650       ?create@?$HashBase@PAVBase@Scb@physx@@PAV123@U?$Hash@PAVBase@Scb@physx@@@shdfnd@3@UGetKey@?$HashSetBase@PAVBase@Scb@physx@@U?$Hash@PAVBase@Scb@physx@@@shdfnd@3@VNonTrackingAllocator@53@$00@internal@53@VNonTrackingAllocator@53@$00@internal@shdfnd@physx@@QAEPAPAVBase@Scb@4@ABQAV564@AA_N@Z 10013650 f i ScbScene.obj
 0001:00012780       ?erase@?$HashBase@PAVBase@Scb@physx@@PAV123@U?$Hash@PAVBase@Scb@physx@@@shdfnd@3@UGetKey@?$HashSetBase@PAVBase@Scb@physx@@U?$Hash@PAVBase@Scb@physx@@@shdfnd@3@VNonTrackingAllocator@53@$00@internal@53@VNonTrackingAllocator@53@$00@internal@shdfnd@physx@@QAE_NABQAVBase@Scb@4@@Z 10013780 f i ScbScene.obj
 0001:00012830       ?grow@?$Stack@V?$ReflectionAllocator@U?$Block@E$0BAA@@Scene@Sc@physx@@@shdfnd@physx@@@internal@shdfnd@physx@@QAEXXZ 10013830 f i ScbScene.obj
 0001:000128d0       ?grow@?$Stack@V?$ReflectionAllocator@U?$Block@E$0BIA@@Scene@Sc@physx@@@shdfnd@physx@@@internal@shdfnd@physx@@QAEXXZ 100138d0 f i ScbScene.obj
 0001:00012970       ?grow@?$Stack@V?$ReflectionAllocator@U?$Block@E$0IA@@Scene@Sc@physx@@@shdfnd@physx@@@internal@shdfnd@physx@@QAEXXZ 10013970 f i ScbScene.obj
 0001:00012a10       ?grow@?$Stack@V?$ReflectionAllocator@U?$Block@PAX$07@Scene@Sc@physx@@@shdfnd@physx@@@internal@shdfnd@physx@@QAEXXZ 10013a10 f i ScbScene.obj
 0001:00012ab0       ?grow@?$Stack@V?$ReflectionAllocator@U?$Block@PAX$0BA@@Scene@Sc@physx@@@shdfnd@physx@@@internal@shdfnd@physx@@QAEXXZ 10013ab0 f i ScbScene.obj
 0001:00012b50       ?grow@?$Stack@V?$ReflectionAllocator@U?$Block@PAX$0CA@@Scene@Sc@physx@@@shdfnd@physx@@@internal@shdfnd@physx@@QAEXXZ 10013b50 f i ScbScene.obj
 0001:00012bf0       ?growAndPushBack@?$Array@PAEV?$ReflectionAllocator@PAE@shdfnd@physx@@@shdfnd@physx@@IAEAAPAEABQAE@Z 10013bf0 f i ScbScene.obj
 0001:00012c80       ?growAndPushBack@?$Array@PAXV?$ReflectionAllocator@U?$Block@E$0BAA@@Scene@Sc@physx@@@shdfnd@physx@@@shdfnd@physx@@IAEAAPAXABQAX@Z 10013c80 f i ScbScene.obj
 0001:00012d10       ?growAndPushBack@?$Array@PAXV?$ReflectionAllocator@U?$Block@E$0BIA@@Scene@Sc@physx@@@shdfnd@physx@@@shdfnd@physx@@IAEAAPAXABQAX@Z 10013d10 f i ScbScene.obj
 0001:00012da0       ?growAndPushBack@?$Array@PAXV?$ReflectionAllocator@U?$Block@E$0IA@@Scene@Sc@physx@@@shdfnd@physx@@@shdfnd@physx@@IAEAAPAXABQAX@Z 10013da0 f i ScbScene.obj
 0001:00012e30       ?growAndPushBack@?$Array@PAXV?$ReflectionAllocator@U?$Block@PAX$07@Scene@Sc@physx@@@shdfnd@physx@@@shdfnd@physx@@IAEAAPAXABQAX@Z 10013e30 f i ScbScene.obj
 0001:00012ec0       ?growAndPushBack@?$Array@PAXV?$ReflectionAllocator@U?$Block@PAX$0BA@@Scene@Sc@physx@@@shdfnd@physx@@@shdfnd@physx@@IAEAAPAXABQAX@Z 10013ec0 f i ScbScene.obj
 0001:00012f50       ?growAndPushBack@?$Array@PAXV?$ReflectionAllocator@U?$Block@PAX$0CA@@Scene@Sc@physx@@@shdfnd@physx@@@shdfnd@physx@@IAEAAPAXABQAX@Z 10013f50 f i ScbScene.obj
 0001:00012fe0       ?growAndPushBack@?$Array@V?$PxFlags@W4Enum@PxClientBehaviorFlag@physx@@E@physx@@V?$ReflectionAllocator@V?$PxFlags@W4Enum@PxClientBehaviorFlag@physx@@E@physx@@@shdfnd@2@@shdfnd@physx@@IAEAAV?$PxFlags@W4Enum@PxClientBehaviorFlag@physx@@E@3@ABV43@@Z 10013fe0 f i ScbScene.obj
 0001:00013070       ?growAndPushBack@?$Array@VMaterialEvent@Scb@physx@@V?$ReflectionAllocator@VMaterialEvent@Scb@physx@@@shdfnd@3@@shdfnd@physx@@IAEAAVMaterialEvent@Scb@3@ABV453@@Z 10014070 f i ScbScene.obj
 0001:00013100       ?putToSleepInternal@Body@Scb@physx@@QAEXXZ 10014100 f i ScbScene.obj
 0001:00013200       ?recreate@?$Array@PAVShape@Scb@physx@@V?$InlineAllocator@$0BA@V?$ReflectionAllocator@PAVShape@Scb@physx@@@shdfnd@physx@@@shdfnd@3@@shdfnd@physx@@IAEXI@Z 10014200 f i ScbScene.obj
 0001:00013290       ?recreate@?$Array@URemovedShape@Scb@physx@@V?$InlineAllocator@$0CA@V?$ReflectionAllocator@URemovedShape@Scb@physx@@@shdfnd@physx@@@shdfnd@3@@shdfnd@physx@@IAEXI@Z 10014290 f i ScbScene.obj
 0001:00013320       ?recreate@?$Array@VMaterialEvent@Scb@physx@@V?$ReflectionAllocator@VMaterialEvent@Scb@physx@@@shdfnd@3@@shdfnd@physx@@IAEXI@Z 10014320 f i ScbScene.obj
 0001:00013380       ?replaceWithLast@?$HashBase@PAVBase@Scb@physx@@PAV123@U?$Hash@PAVBase@Scb@physx@@@shdfnd@3@UGetKey@?$HashSetBase@PAVBase@Scb@physx@@U?$Hash@PAVBase@Scb@physx@@@shdfnd@3@VNonTrackingAllocator@53@$00@internal@53@VNonTrackingAllocator@53@$00@internal@shdfnd@physx@@AAEXI@Z 10014380 f i ScbScene.obj
 0001:00013410       ?reserveInternal@?$HashBase@PAVBase@Scb@physx@@PAV123@U?$Hash@PAVBase@Scb@physx@@@shdfnd@3@UGetKey@?$HashSetBase@PAVBase@Scb@physx@@U?$Hash@PAVBase@Scb@physx@@@shdfnd@3@VNonTrackingAllocator@53@$00@internal@53@VNonTrackingAllocator@53@$00@internal@shdfnd@physx@@AAEXI@Z 10014410 f i ScbScene.obj
 0001:000135a0       ?resize@?$Array@PAVShape@Scb@physx@@V?$InlineAllocator@$0BA@V?$ReflectionAllocator@PAVShape@Scb@physx@@@shdfnd@physx@@@shdfnd@3@@shdfnd@physx@@QAEXIABQAVShape@Scb@3@@Z 100145a0 f i ScbScene.obj
 0001:000135e0       ?resize@?$Array@URemovedShape@Scb@physx@@V?$InlineAllocator@$0CA@V?$ReflectionAllocator@URemovedShape@Scb@physx@@@shdfnd@physx@@@shdfnd@3@@shdfnd@physx@@QAEXIABURemovedShape@Scb@3@@Z 100145e0 f i ScbScene.obj
 0001:00013620       ?resize@?$Array@VMaterialEvent@Scb@physx@@V?$ReflectionAllocator@VMaterialEvent@Scb@physx@@@shdfnd@3@@shdfnd@physx@@QAEXIABVMaterialEvent@Scb@3@@Z 10014620 f i ScbScene.obj
 0001:00013660       ?resize@PxsMaterialManager@physx@@QAEXI@Z 10014660 f i ScbScene.obj
 0001:00013770       ?setAngularVelocity@Body@Scb@physx@@QAEXABVPxVec3@3@@Z 10014770 f i ScbScene.obj
 0001:000137e0       ?setLinearVelocity@Body@Scb@physx@@QAEXABVPxVec3@3@@Z 100147e0 f i ScbScene.obj
 0001:00013850       ?syncCollisionWriteThroughState@Body@Scb@physx@@QAEXXZ 10014850 f i ScbScene.obj
 0001:00013b30       ?syncDominancePairs@SceneBuffer@Scb@physx@@QAEXAAVScene@Sc@3@@Z 10014b30 f i ScbScene.obj
 0001:00013c00       ?syncState@Aggregate@Scb@physx@@QAEXAAVScene@23@@Z 10014c00 f i ScbScene.obj
 0001:00013d30       ?syncState@Articulation@Scb@physx@@QAEXXZ 10014d30 f i ScbScene.obj
 0001:00013e80       ?syncState@ArticulationJoint@Scb@physx@@QAEXXZ 10014e80 f i ScbScene.obj
 0001:00014070       ?syncState@Body@Scb@physx@@QAEXXZ 10015070 f i ScbScene.obj
 0001:00014800       ?syncState@Constraint@Scb@physx@@QAEXXZ 10015800 f i ScbScene.obj
 0001:000148e0       ?syncState@RigidObject@Scb@physx@@QAEXXZ 100158e0 f i ScbScene.obj
 0001:00014b00       ?syncState@RigidStatic@Scb@physx@@QAEXXZ 10015b00 f i ScbScene.obj
 0001:00014bb0       ?syncState@Shape@Scb@physx@@QAEXXZ 10015bb0 f   ScbShape.obj
 0001:00014d10       ?setMaterialsHelper@Shape@Scb@physx@@AAE_NPBQAVPxMaterial@3@G@Z 10015d10 f   ScbShape.obj
 0001:00014e20       ??0NpCloth@physx@@QAE@V?$PxFlags@W4Enum@PxBaseFlag@physx@@G@1@@Z 10015e20 f   NpCloth.obj
 0001:00014eb0       ?requires@NpCloth@physx@@UAEXAAVPxProcessPxBaseCallback@2@@Z 10015eb0 f   NpCloth.obj
 0001:00014ed0       ?resolveReferences@NpCloth@physx@@UAEXAAVPxDeserializationContext@2@@Z 10015ed0 f   NpCloth.obj
 0001:00014f20       ?createObject@NpCloth@physx@@SAPAV12@AAPAEAAVPxDeserializationContext@2@@Z 10015f20 f   NpCloth.obj
 0001:00014f70       ??0NpCloth@physx@@QAE@ABVPxTransform@1@AAVNpClothFabric@1@PBUPxClothParticle@1@V?$PxFlags@W4Enum@PxClothFlag@physx@@G@1@@Z 10015f70 f   NpCloth.obj
 0001:00015000       ??1NpCloth@physx@@UAE@XZ   10016000 f   NpCloth.obj
 0001:00015070       ?release@NpCloth@physx@@UAEXXZ 10016070 f   NpCloth.obj
 0001:000150b0       ?getType@NpCloth@physx@@UBE?AW4Enum@PxActorType@2@XZ 100160b0 f   NpCloth.obj
 0001:000150c0       ?getFabric@NpCloth@physx@@UBEPAVPxClothFabric@2@XZ 100160c0 f   NpCloth.obj
 0001:000150d0       ?setParticles@NpCloth@physx@@UAEXPBUPxClothParticle@2@0@Z 100160d0 f   NpCloth.obj
 0001:00015120       ?getNbParticles@NpCloth@physx@@UBEIXZ 10016120 f   NpCloth.obj
 0001:00015130       ?setMotionConstraints@NpCloth@physx@@UAEXPBUPxClothParticleMotionConstraint@2@@Z 10016130 f   NpCloth.obj
 0001:00015180       ?getMotionConstraints@NpCloth@physx@@UBE_NPAUPxClothParticleMotionConstraint@2@@Z 10016180 f   NpCloth.obj
 0001:000151d0       ?getNbMotionConstraints@NpCloth@physx@@UBEIXZ 100161d0 f   NpCloth.obj
 0001:000151e0       ?setMotionConstraintConfig@NpCloth@physx@@UAEXABUPxClothMotionConstraintConfig@2@@Z 100161e0 f   NpCloth.obj
 0001:00015230       ?getMotionConstraintConfig@NpCloth@physx@@UBE?AUPxClothMotionConstraintConfig@2@XZ 10016230 f   NpCloth.obj
 0001:00015250       ?setSeparationConstraints@NpCloth@physx@@UAEXPBUPxClothParticleSeparationConstraint@2@@Z 10016250 f   NpCloth.obj
 0001:000152a0       ?getSeparationConstraints@NpCloth@physx@@UBE_NPAUPxClothParticleSeparationConstraint@2@@Z 100162a0 f   NpCloth.obj
 0001:000152f0       ?getNbSeparationConstraints@NpCloth@physx@@UBEIXZ 100162f0 f   NpCloth.obj
 0001:00015300       ?clearInterpolation@NpCloth@physx@@UAEXXZ 10016300 f   NpCloth.obj
 0001:00015310       ?setParticleAccelerations@NpCloth@physx@@UAEXPBVPxVec4@2@@Z 10016310 f   NpCloth.obj
 0001:00015360       ?getParticleAccelerations@NpCloth@physx@@UBE_NPAVPxVec4@2@@Z 10016360 f   NpCloth.obj
 0001:000153b0       ?getNbParticleAccelerations@NpCloth@physx@@UBEIXZ 100163b0 f   NpCloth.obj
 0001:000153c0       ?addCollisionSphere@NpCloth@physx@@UAEXABUPxClothCollisionSphere@2@@Z 100163c0 f   NpCloth.obj
 0001:00015410       ?removeCollisionSphere@NpCloth@physx@@UAEXI@Z 10016410 f   NpCloth.obj
 0001:00015460       ?setCollisionSpheres@NpCloth@physx@@UAEXPBUPxClothCollisionSphere@2@I@Z 10016460 f   NpCloth.obj
 0001:000154b0       ?getNbCollisionSpheres@NpCloth@physx@@UBEIXZ 100164b0 f   NpCloth.obj
 0001:00015500       ?getCollisionData@NpCloth@physx@@UBEXPAUPxClothCollisionSphere@2@PAIPAUPxClothCollisionPlane@2@1PAUPxClothCollisionTriangle@2@@Z 10016500 f   NpCloth.obj
 0001:00015550       ?addCollisionCapsule@NpCloth@physx@@UAEXII@Z 10016550 f   NpCloth.obj
 0001:000155a0       ?removeCollisionCapsule@NpCloth@physx@@UAEXI@Z 100165a0 f   NpCloth.obj
 0001:000155f0       ?getNbCollisionCapsules@NpCloth@physx@@UBEIXZ 100165f0 f   NpCloth.obj
 0001:00015640       ?addCollisionTriangle@NpCloth@physx@@UAEXABUPxClothCollisionTriangle@2@@Z 10016640 f   NpCloth.obj
 0001:00015690       ?removeCollisionTriangle@NpCloth@physx@@UAEXI@Z 10016690 f   NpCloth.obj
 0001:000156e0       ?setCollisionTriangles@NpCloth@physx@@UAEXPBUPxClothCollisionTriangle@2@I@Z 100166e0 f   NpCloth.obj
 0001:00015730       ?getNbCollisionTriangles@NpCloth@physx@@UBEIXZ 10016730 f   NpCloth.obj
 0001:00015780       ?addCollisionPlane@NpCloth@physx@@UAEXABUPxClothCollisionPlane@2@@Z 10016780 f   NpCloth.obj
 0001:000157d0       ?removeCollisionPlane@NpCloth@physx@@UAEXI@Z 100167d0 f   NpCloth.obj
 0001:00015820       ?setCollisionPlanes@NpCloth@physx@@UAEXPBUPxClothCollisionPlane@2@I@Z 10016820 f   NpCloth.obj
 0001:00015870       ?getNbCollisionPlanes@NpCloth@physx@@UBEIXZ 10016870 f   NpCloth.obj
 0001:000158c0       ?addCollisionConvex@NpCloth@physx@@UAEXI@Z 100168c0 f   NpCloth.obj
 0001:00015910       ?removeCollisionConvex@NpCloth@physx@@UAEXI@Z 10016910 f   NpCloth.obj
 0001:00015960       ?getNbCollisionConvexes@NpCloth@physx@@UBEIXZ 10016960 f   NpCloth.obj
 0001:000159b0       ?setVirtualParticles@NpCloth@physx@@UAEXIPBIIPBVPxVec3@2@@Z 100169b0 f   NpCloth.obj
 0001:00015a00       ?getNbVirtualParticles@NpCloth@physx@@UBEIXZ 10016a00 f   NpCloth.obj
 0001:00015a50       ?getVirtualParticles@NpCloth@physx@@UBEXPAI@Z 10016a50 f   NpCloth.obj
 0001:00015aa0       ?getNbVirtualParticleWeights@NpCloth@physx@@UBEIXZ 10016aa0 f   NpCloth.obj
 0001:00015af0       ?getVirtualParticleWeights@NpCloth@physx@@UBEXPAVPxVec3@2@@Z 10016af0 f   NpCloth.obj
 0001:00015b40       ?setGlobalPose@NpCloth@physx@@UAEXABVPxTransform@2@@Z 10016b40 f   NpCloth.obj
 0001:00015c30       ?getGlobalPose@NpCloth@physx@@UBE?AVPxTransform@2@XZ 10016c30 f   NpCloth.obj
 0001:00015c50       ?setTargetPose@NpCloth@physx@@UAEXABVPxTransform@2@@Z 10016c50 f   NpCloth.obj
 0001:00015d40       ?setExternalAcceleration@NpCloth@physx@@UAEXVPxVec3@2@@Z 10016d40 f   NpCloth.obj
 0001:00015dc0       ?getExternalAcceleration@NpCloth@physx@@UBE?AVPxVec3@2@XZ 10016dc0 f   NpCloth.obj
 0001:00015de0       ?setLinearInertiaScale@NpCloth@physx@@UAEXVPxVec3@2@@Z 10016de0 f   NpCloth.obj
 0001:00015e60       ?getLinearInertiaScale@NpCloth@physx@@UBE?AVPxVec3@2@XZ 10016e60 f   NpCloth.obj
 0001:00015e80       ?setAngularInertiaScale@NpCloth@physx@@UAEXVPxVec3@2@@Z 10016e80 f   NpCloth.obj
 0001:00015f00       ?getAngularInertiaScale@NpCloth@physx@@UBE?AVPxVec3@2@XZ 10016f00 f   NpCloth.obj
 0001:00015f20       ?setCentrifugalInertiaScale@NpCloth@physx@@UAEXVPxVec3@2@@Z 10016f20 f   NpCloth.obj
 0001:00015fa0       ?getCentrifugalInertiaScale@NpCloth@physx@@UBE?AVPxVec3@2@XZ 10016fa0 f   NpCloth.obj
 0001:00015fc0       ?setInertiaScale@NpCloth@physx@@UAEXM@Z 10016fc0 f   NpCloth.obj
 0001:00016090       ?setDampingCoefficient@NpCloth@physx@@UAEXVPxVec3@2@@Z 10017090 f   NpCloth.obj
 0001:00016110       ?getDampingCoefficient@NpCloth@physx@@UBE?AVPxVec3@2@XZ 10017110 f   NpCloth.obj
 0001:00016130       ?setFrictionCoefficient@NpCloth@physx@@UAEXM@Z 10017130 f   NpCloth.obj
 0001:00016190       ?getFrictionCoefficient@NpCloth@physx@@UBEMXZ 10017190 f   NpCloth.obj
 0001:000161f0       ?setLinearDragCoefficient@NpCloth@physx@@UAEXVPxVec3@2@@Z 100171f0 f   NpCloth.obj
 0001:00016270       ?getLinearDragCoefficient@NpCloth@physx@@UBE?AVPxVec3@2@XZ 10017270 f   NpCloth.obj
 0001:00016290       ?setAngularDragCoefficient@NpCloth@physx@@UAEXVPxVec3@2@@Z 10017290 f   NpCloth.obj
 0001:00016310       ?getAngularDragCoefficient@NpCloth@physx@@UBE?AVPxVec3@2@XZ 10017310 f   NpCloth.obj
 0001:00016330       ?setDragCoefficient@NpCloth@physx@@UAEXM@Z 10017330 f   NpCloth.obj
 0001:00016380       ?setCollisionMassScale@NpCloth@physx@@UAEXM@Z 10017380 f   NpCloth.obj
 0001:000163e0       ?getCollisionMassScale@NpCloth@physx@@UBEMXZ 100173e0 f   NpCloth.obj
 0001:00016440       ?setSelfCollisionDistance@NpCloth@physx@@UAEXM@Z 10017440 f   NpCloth.obj
 0001:000164a0       ?getSelfCollisionDistance@NpCloth@physx@@UBEMXZ 100174a0 f   NpCloth.obj
 0001:00016500       ?setSelfCollisionStiffness@NpCloth@physx@@UAEXM@Z 10017500 f   NpCloth.obj
 0001:00016560       ?getSelfCollisionStiffness@NpCloth@physx@@UBEMXZ 10017560 f   NpCloth.obj
 0001:000165c0       ?setSelfCollisionIndices@NpCloth@physx@@UAEXPBII@Z 100175c0 f   NpCloth.obj
 0001:00016610       ?getSelfCollisionIndices@NpCloth@physx@@UBE_NPAI@Z 10017610 f   NpCloth.obj
 0001:00016660       ?getNbSelfCollisionIndices@NpCloth@physx@@UBEIXZ 10017660 f   NpCloth.obj
 0001:00016670       ?setRestPositions@NpCloth@physx@@UAEXPBVPxVec4@2@@Z 10017670 f   NpCloth.obj
 0001:000166c0       ?getRestPositions@NpCloth@physx@@UBE_NPAVPxVec4@2@@Z 100176c0 f   NpCloth.obj
 0001:00016710       ?getNbRestPositions@NpCloth@physx@@UBEIXZ 10017710 f   NpCloth.obj
 0001:00016720       ?setSolverFrequency@NpCloth@physx@@UAEXM@Z 10017720 f   NpCloth.obj
 0001:00016780       ?getSolverFrequency@NpCloth@physx@@UBEMXZ 10017780 f   NpCloth.obj
 0001:000167e0       ?setStiffnessFrequency@NpCloth@physx@@UAEXM@Z 100177e0 f   NpCloth.obj
 0001:00016840       ?getStiffnessFrequency@NpCloth@physx@@UBEMXZ 10017840 f   NpCloth.obj
 0001:000168a0       ?setStretchConfig@NpCloth@physx@@UAEXW4Enum@PxClothFabricPhaseType@2@ABUPxClothStretchConfig@2@@Z 100178a0 f   NpCloth.obj
 0001:000168f0       ?getStretchConfig@NpCloth@physx@@UBE?AUPxClothStretchConfig@2@W4Enum@PxClothFabricPhaseType@2@@Z 100178f0 f   NpCloth.obj
 0001:00016910       ?setTetherConfig@NpCloth@physx@@UAEXABUPxClothTetherConfig@2@@Z 10017910 f   NpCloth.obj
 0001:00016960       ?getTetherConfig@NpCloth@physx@@UBE?AUPxClothTetherConfig@2@XZ 10017960 f   NpCloth.obj
 0001:00016980       ?setClothFlags@NpCloth@physx@@UAEXV?$PxFlags@W4Enum@PxClothFlag@physx@@G@2@@Z 10017980 f   NpCloth.obj
 0001:000169f0       ?setClothFlag@NpCloth@physx@@UAEXW4Enum@PxClothFlag@2@_N@Z 100179f0 f   NpCloth.obj
 0001:00016a80       ?getClothFlags@NpCloth@physx@@UBE?AV?$PxFlags@W4Enum@PxClothFlag@physx@@G@2@XZ 10017a80 f   NpCloth.obj
 0001:00016ae0       ?getWindVelocity@NpCloth@physx@@UBE?AVPxVec3@2@XZ 10017ae0 f   NpCloth.obj
 0001:00016b00       ?setWindVelocity@NpCloth@physx@@UAEXVPxVec3@2@@Z 10017b00 f   NpCloth.obj
 0001:00016b80       ?getWindDrag@NpCloth@physx@@UBEMXZ 10017b80 f   NpCloth.obj
 0001:00016be0       ?setWindDrag@NpCloth@physx@@UAEXM@Z 10017be0 f   NpCloth.obj
 0001:00016c40       ?getWindLift@NpCloth@physx@@UBEMXZ 10017c40 f   NpCloth.obj
 0001:00016ca0       ?setWindLift@NpCloth@physx@@UAEXM@Z 10017ca0 f   NpCloth.obj
 0001:00016d00       ?isSleeping@NpCloth@physx@@UBE_NXZ 10017d00 f   NpCloth.obj
 0001:00016d60       ?getSleepLinearVelocity@NpCloth@physx@@UBEMXZ 10017d60 f   NpCloth.obj
 0001:00016dc0       ?setSleepLinearVelocity@NpCloth@physx@@UAEXM@Z 10017dc0 f   NpCloth.obj
 0001:00016e20       ?setWakeCounter@NpCloth@physx@@UAEXM@Z 10017e20 f   NpCloth.obj
 0001:00016e80       ?getWakeCounter@NpCloth@physx@@UBEMXZ 10017e80 f   NpCloth.obj
 0001:00016ee0       ?wakeUp@NpCloth@physx@@UAEXXZ 10017ee0 f   NpCloth.obj
 0001:00016f50       ?putToSleep@NpCloth@physx@@UAEXXZ 10017f50 f   NpCloth.obj
 0001:00016fb0       ?lockParticleData@NpCloth@physx@@UAEPAVPxClothParticleData@2@V?$PxFlags@W4Enum@PxDataAccessFlag@physx@@E@2@@Z 10017fb0 f   NpCloth.obj
 0001:00017010       ?lockParticleData@NpCloth@physx@@UBEPAVPxClothParticleData@2@XZ 10018010 f   NpCloth.obj
 0001:00017020       ?getPreviousTimeStep@NpCloth@physx@@UBEMXZ 10018020 f   NpCloth.obj
 0001:00017080       ?getWorldBounds@NpCloth@physx@@UBE?AVPxBounds3@2@M@Z 10018080 f   NpCloth.obj
 0001:00017170       ?setSimulationFilterData@NpCloth@physx@@UAEXABUPxFilterData@2@@Z 10018170 f   NpCloth.obj
 0001:000171c0       ?getSimulationFilterData@NpCloth@physx@@UBE?AUPxFilterData@2@XZ 100181c0 f   NpCloth.obj
 0001:000171e0       ?setContactOffset@NpCloth@physx@@UAEXM@Z 100181e0 f   NpCloth.obj
 0001:00017240       ?getContactOffset@NpCloth@physx@@UBEMXZ 10018240 f   NpCloth.obj
 0001:000172a0       ?setRestOffset@NpCloth@physx@@UAEXM@Z 100182a0 f   NpCloth.obj
 0001:00017300       ?getRestOffset@NpCloth@physx@@UBEMXZ 10018300 f   NpCloth.obj
 0001:00017360       ?visualize@NpCloth@physx@@UAEXAAVRenderOutput@Cm@2@PAVNpScene@2@@Z 10018360 f   NpCloth.obj
 0001:00017dd0       ?unlockParticleData@NpCloth@physx@@QAEXXZ 10018dd0 f   NpCloth.obj
 0001:00017de0       ?sendPvdSimpleProperties@NpCloth@physx@@AAEXXZ 10018de0 f   NpCloth.obj
 0001:00017df0       ?sendPvdMotionConstraints@NpCloth@physx@@AAEXXZ 10018df0 f   NpCloth.obj
 0001:00017e00       ?sendPvdSeparationConstraints@NpCloth@physx@@AAEXXZ 10018e00 f   NpCloth.obj
 0001:00017e10       ?sendPvdCollisionSpheres@NpCloth@physx@@AAEXXZ 10018e10 f   NpCloth.obj
 0001:00017e20       ?sendPvdCollisionCapsules@NpCloth@physx@@AAEXXZ 10018e20 f   NpCloth.obj
 0001:00017e30       ?sendPvdCollisionTriangles@NpCloth@physx@@AAEXXZ 10018e30 f   NpCloth.obj
 0001:00017e40       ?sendPvdVirtualParticles@NpCloth@physx@@AAEXXZ 10018e40 f   NpCloth.obj
 0001:00017e50       ?sendPvdSelfCollisionIndices@NpCloth@physx@@AAEXXZ 10018e50 f   NpCloth.obj
 0001:00017e60       ?sendPvdRestPositions@NpCloth@physx@@AAEXXZ 10018e60 f   NpCloth.obj
 0001:00017e70       ??0?$NpActorTemplate@VPxCloth@physx@@@physx@@QAE@GV?$PxFlags@W4Enum@PxBaseFlag@physx@@G@1@PBDPAX@Z 10018e70 f i NpCloth.obj
 0001:00017ec0       ??1?$NpActorTemplate@VPxCloth@physx@@@physx@@UAE@XZ 10018ec0 f i NpCloth.obj
 0001:00017ef0       ??1NpClothParticleData@physx@@UAE@XZ 10018ef0 f i NpCloth.obj
 0001:00017f00       ??1PxCloth@physx@@MAE@XZ   10018f00 f i NpCloth.obj
 0001:00017f10       ??_E?$NpActorTemplate@VPxCloth@physx@@@physx@@UAEPAXI@Z 10018f10 f i NpCloth.obj
 0001:00017f10       ??_G?$NpActorTemplate@VPxCloth@physx@@@physx@@UAEPAXI@Z 10018f10 f i NpCloth.obj
 0001:00017f70       ??_ENpCloth@physx@@UAEPAXI@Z 10018f70 f i NpCloth.obj
 0001:00017f70       ??_GNpCloth@physx@@UAEPAXI@Z 10018f70 f i NpCloth.obj
 0001:00017fc0       ??_ENpClothParticleData@physx@@UAEPAXI@Z 10018fc0 f i NpCloth.obj
 0001:00017fc0       ??_GNpClothParticleData@physx@@UAEPAXI@Z 10018fc0 f i NpCloth.obj
 0001:00018000       ??_GPxCloth@physx@@MAEPAXI@Z 10019000 f i NpCloth.obj
 0001:00018000       ??_EPxCloth@physx@@MAEPAXI@Z 10019000 f i NpCloth.obj
 0001:00018030       ??_GPxClothParticleData@physx@@UAEPAXI@Z 10019030 f i NpCloth.obj
 0001:00018030       ??_EPxClothParticleData@physx@@UAEPAXI@Z 10019030 f i NpCloth.obj
 0001:00018060       ?allocate@?$Array@IV?$ReflectionAllocator@I@shdfnd@physx@@@shdfnd@physx@@IAEPAII@Z 10019060 f i NpCloth.obj
 0001:000180e0       ?allocate@?$Array@UPxClothFabricPhase@physx@@V?$ReflectionAllocator@UPxClothFabricPhase@physx@@@shdfnd@2@@shdfnd@physx@@IAEPAUPxClothFabricPhase@3@I@Z 100190e0 f i NpCloth.obj
 0001:00018160       ?allocate@?$Array@VPxVec3@physx@@V?$ReflectionAllocator@VPxVec3@physx@@@shdfnd@2@@shdfnd@physx@@IAEPAVPxVec3@3@I@Z 10019160 f i NpCloth.obj
 0001:000181d0       ?copy@?$Array@VPxVec3@physx@@V?$ReflectionAllocator@VPxVec3@physx@@@shdfnd@2@@shdfnd@physx@@KAXPAVPxVec3@3@0PBV43@@Z 100191d0 f i NpCloth.obj
 0001:000182a0       ?create@?$Array@IV?$ReflectionAllocator@I@shdfnd@physx@@@shdfnd@physx@@KAXPAI0ABI@Z 100192a0 f i NpCloth.obj
 0001:00018300       ?create@?$Array@UPxClothFabricPhase@physx@@V?$ReflectionAllocator@UPxClothFabricPhase@physx@@@shdfnd@2@@shdfnd@physx@@KAXPAUPxClothFabricPhase@3@0ABU43@@Z 10019300 f i NpCloth.obj
 0001:00018370       ?create@?$Array@VPxVec3@physx@@V?$ReflectionAllocator@VPxVec3@physx@@@shdfnd@2@@shdfnd@physx@@KAXPAVPxVec3@3@0ABV43@@Z 10019370 f i NpCloth.obj
 0001:00018420       ?exportExtraData@?$NpActorTemplate@VPxCloth@physx@@@physx@@UAEXAAVPxSerializationContext@2@@Z 10019420 f i NpCloth.obj
 0001:00018430       ?exportExtraData@NpCloth@physx@@UAEXAAVPxSerializationContext@2@@Z 10019430 f i NpCloth.obj
 0001:00018440       ?getActorFlags@?$NpActorTemplate@VPxCloth@physx@@@physx@@UBE?AV?$PxFlags@W4Enum@PxActorFlag@physx@@E@2@XZ 10019440 f i NpCloth.obj
 0001:00018480       ?getAggregate@?$NpActorTemplate@VPxCloth@physx@@@physx@@UBEPAVPxAggregate@2@XZ 10019480 f i NpCloth.obj
 0001:00018490       ?getAngularDragCoefficient@Cloth@Scb@physx@@QBE?AVPxVec3@3@XZ 10019490 f i NpCloth.obj
 0001:00018500       ?getAngularInertiaScale@Cloth@Scb@physx@@QBE?AVPxVec3@3@XZ 10019500 f i NpCloth.obj
 0001:00018570       ?getCentrifugalInertiaScale@Cloth@Scb@physx@@QBE?AVPxVec3@3@XZ 10019570 f i NpCloth.obj
 0001:000185e0       ?getClientBehaviorFlags@?$NpActorTemplate@VPxCloth@physx@@@physx@@UBE?AV?$PxFlags@W4Enum@PxActorClientBehaviorFlag@physx@@E@2@XZ 100195e0 f i NpCloth.obj
 0001:00018630       ?getConcreteTypeName@PxCloth@physx@@UBEPBDXZ 10019630 f i NpCloth.obj
 0001:00018640       ?getDampingCoefficient@Cloth@Scb@physx@@QBE?AVPxVec3@3@XZ 10019640 f i NpCloth.obj
 0001:000186b0       ?getDataAccessFlags@NpClothParticleData@physx@@UAE?AV?$PxFlags@W4Enum@PxDataAccessFlag@physx@@E@2@XZ 100196b0 f i NpCloth.obj
 0001:000186c0       ?getDominanceGroup@?$NpActorTemplate@VPxCloth@physx@@@physx@@UBEEXZ 100196c0 f i NpCloth.obj
 0001:000186f0       ?getExternalAcceleration@Cloth@Scb@physx@@QBE?AVPxVec3@3@XZ 100196f0 f i NpCloth.obj
 0001:00018760       ?getGlobalPose@Cloth@Scb@physx@@QBE?AVPxTransform@3@XZ 10019760 f i NpCloth.obj
 0001:000187f0       ?getLinearDragCoefficient@Cloth@Scb@physx@@QBE?AVPxVec3@3@XZ 100197f0 f i NpCloth.obj
 0001:00018860       ?getLinearInertiaScale@Cloth@Scb@physx@@QBE?AVPxVec3@3@XZ 10019860 f i NpCloth.obj
 0001:000188d0       ?getMotionConstraintConfig@Cloth@Scb@physx@@QBE?AUPxClothMotionConstraintConfig@3@XZ 100198d0 f i NpCloth.obj
 0001:00018940       ?getName@?$NpActorTemplate@VPxCloth@physx@@@physx@@UBEPBDXZ 10019940 f i NpCloth.obj
 0001:00018950       ?getOwnerClient@?$NpActorTemplate@VPxCloth@physx@@@physx@@UBEEXZ 10019950 f i NpCloth.obj
 0001:00018980       ?getParticleData@Cloth@Scb@physx@@QAEXAAVNpClothParticleData@3@@Z 10019980 f i NpCloth.obj
 0001:000189e0       ?getScene@?$NpActorTemplate@VPxCloth@physx@@@physx@@UBEPAVPxScene@2@XZ 100199e0 f i NpCloth.obj
 0001:000189f0       ?getSimulationFilterData@Cloth@Scb@physx@@QBE?AUPxFilterData@3@XZ 100199f0 f i NpCloth.obj
 0001:00018a70       ?getStretchConfig@Cloth@Scb@physx@@QBE?AUPxClothStretchConfig@3@W4Enum@PxClothFabricPhaseType@3@@Z 10019a70 f i NpCloth.obj
 0001:00018af0       ?getTetherConfig@Cloth@Scb@physx@@QBE?AUPxClothTetherConfig@3@XZ 10019af0 f i NpCloth.obj
 0001:00018b60       ?getWindVelocity@Cloth@Scb@physx@@QBE?AVPxVec3@3@XZ 10019b60 f i NpCloth.obj
 0001:00018bd0       ?getWorldBounds@Cloth@Scb@physx@@QBE?AVPxBounds3@3@XZ 10019bd0 f i NpCloth.obj
 0001:00018c60       ?isKindOf@PxCloth@physx@@MBE_NPBD@Z 10019c60 f i NpCloth.obj
 0001:00018cc0       ?recreate@?$Array@IV?$ReflectionAllocator@I@shdfnd@physx@@@shdfnd@physx@@IAEXI@Z 10019cc0 f i NpCloth.obj
 0001:00018d20       ?recreate@?$Array@UPxClothFabricPhase@physx@@V?$ReflectionAllocator@UPxClothFabricPhase@physx@@@shdfnd@2@@shdfnd@physx@@IAEXI@Z 10019d20 f i NpCloth.obj
 0001:00018d80       ?recreate@?$Array@VPxVec3@physx@@V?$ReflectionAllocator@VPxVec3@physx@@@shdfnd@2@@shdfnd@physx@@IAEXI@Z 10019d80 f i NpCloth.obj
 0001:00018de0       ?release@?$NpActorTemplate@VPxCloth@physx@@@physx@@UAEXXZ 10019de0 f i NpCloth.obj
 0001:00018df0       ?resize@?$Array@IV?$ReflectionAllocator@I@shdfnd@physx@@@shdfnd@physx@@QAEXIABI@Z 10019df0 f i NpCloth.obj
 0001:00018e30       ?resize@?$Array@UPxClothFabricPhase@physx@@V?$ReflectionAllocator@UPxClothFabricPhase@physx@@@shdfnd@2@@shdfnd@physx@@QAEXIABUPxClothFabricPhase@3@@Z 10019e30 f i NpCloth.obj
 0001:00018e70       ?resize@?$Array@VPxVec3@physx@@V?$ReflectionAllocator@VPxVec3@physx@@@shdfnd@2@@shdfnd@physx@@QAEXIABVPxVec3@3@@Z 10019e70 f i NpCloth.obj
 0001:00018ec0       ?resolveReferences@?$NpActorTemplate@VPxCloth@physx@@@physx@@UAEXAAVPxDeserializationContext@2@@Z 10019ec0 f i NpCloth.obj
 0001:00018ed0       ?setActorFlag@?$NpActorTemplate@VPxCloth@physx@@@physx@@UAEXW4Enum@PxActorFlag@2@_N@Z 10019ed0 f i NpCloth.obj
 0001:00018f80       ?setActorFlags@?$NpActorTemplate@VPxCloth@physx@@@physx@@UAEXV?$PxFlags@W4Enum@PxActorFlag@physx@@E@2@@Z 10019f80 f i NpCloth.obj
 0001:00018fb0       ?setClientBehaviorFlags@?$NpActorTemplate@VPxCloth@physx@@@physx@@UAEXV?$PxFlags@W4Enum@PxActorClientBehaviorFlag@physx@@E@2@@Z 10019fb0 f i NpCloth.obj
 0001:00018fe0       ?setDominanceGroup@?$NpActorTemplate@VPxCloth@physx@@@physx@@UAEXE@Z 10019fe0 f i NpCloth.obj
 0001:00019000       ?setName@?$NpActorTemplate@VPxCloth@physx@@@physx@@UAEXPBD@Z 1001a000 f i NpCloth.obj
 0001:00019010       ?setOwnerClient@?$NpActorTemplate@VPxCloth@physx@@@physx@@UAEXE@Z 1001a010 f i NpCloth.obj
 0001:00019070       ?onRefCountZero@NpClothFabric@physx@@UAEXXZ 1001a070 f   NpClothFabric.obj
 0001:000190e0       ?exportExtraData@NpClothFabric@physx@@UAEXAAVPxSerializationContext@2@@Z 1001a0e0 f   NpClothFabric.obj
 0001:000190f0       ?importExtraData@NpClothFabric@physx@@QAEXAAVPxDeserializationContext@2@@Z 1001a0f0 f   NpClothFabric.obj
 0001:00019100       ?createObject@NpClothFabric@physx@@SAPAV12@AAPAEAAVPxDeserializationContext@2@@Z 1001a100 f   NpClothFabric.obj
 0001:00019170       ??0NpClothFabric@physx@@QAE@XZ 1001a170 f   NpClothFabric.obj
 0001:000191c0       ?load@NpClothFabric@physx@@QAE_NAAVPxInputStream@2@@Z 1001a1c0 f   NpClothFabric.obj
 0001:000191d0       ?load@NpClothFabric@physx@@QAE_NABVPxClothFabricDesc@2@@Z 1001a1d0 f   NpClothFabric.obj
 0001:000191e0       ?release@NpClothFabric@physx@@UAEXXZ 1001a1e0 f   NpClothFabric.obj
 0001:00019200       ?getNbParticles@NpClothFabric@physx@@UBEIXZ 1001a200 f   NpClothFabric.obj
 0001:00019210       ?getNbPhases@NpClothFabric@physx@@UBEIXZ 1001a210 f   NpClothFabric.obj
 0001:00019220       ?getNbSets@NpClothFabric@physx@@UBEIXZ 1001a220 f   NpClothFabric.obj
 0001:00019230       ?getNbParticleIndices@NpClothFabric@physx@@UBEIXZ 1001a230 f   NpClothFabric.obj
 0001:00019240       ?getNbRestvalues@NpClothFabric@physx@@UBEIXZ 1001a240 f   NpClothFabric.obj
 0001:00019250       ?getNbTethers@NpClothFabric@physx@@UBEIXZ 1001a250 f   NpClothFabric.obj
 0001:00019260       ?getPhases@NpClothFabric@physx@@UBEIPAUPxClothFabricPhase@2@I@Z 1001a260 f   NpClothFabric.obj
 0001:00019270       ?getSets@NpClothFabric@physx@@UBEIPAII@Z 1001a270 f   NpClothFabric.obj
 0001:00019280       ?getParticleIndices@NpClothFabric@physx@@UBEIPAII@Z 1001a280 f   NpClothFabric.obj
 0001:00019290       ?getRestvalues@NpClothFabric@physx@@UBEIPAMI@Z 1001a290 f   NpClothFabric.obj
 0001:000192a0       ?getTetherAnchors@NpClothFabric@physx@@UBEIPAII@Z 1001a2a0 f   NpClothFabric.obj
 0001:000192b0       ?getTetherLengths@NpClothFabric@physx@@UBEIPAMI@Z 1001a2b0 f   NpClothFabric.obj
 0001:000192c0       ?getPhaseType@NpClothFabric@physx@@QBE?AW4Enum@PxClothFabricPhaseType@2@I@Z 1001a2c0 f   NpClothFabric.obj
 0001:000192d0       ?scaleRestlengths@NpClothFabric@physx@@UAEXM@Z 1001a2d0 f   NpClothFabric.obj
 0001:000192f0       ?getReferenceCount@NpClothFabric@physx@@UBEIXZ 1001a2f0 f   NpClothFabric.obj
 0001:00019300       ?acquireReference@NpClothFabric@physx@@UAEXXZ 1001a300 f   NpClothFabric.obj
 0001:00019310       ??1NpClothFabric@physx@@UAE@XZ 1001a310 f   NpClothFabric.obj
 0001:00019340       ??1PxClothFabric@physx@@MAE@XZ 1001a340 f i NpClothFabric.obj
 0001:00019350       ??1RefCountable@Cm@physx@@UAE@XZ 1001a350 f i NpClothFabric.obj
 0001:00019357       ??_ENpClothFabric@physx@@W7AEPAXI@Z 1001a357 f i NpClothFabric.obj
 0001:00019360       ??_GNpClothFabric@physx@@UAEPAXI@Z 1001a360 f i NpClothFabric.obj
 0001:00019360       ??_ENpClothFabric@physx@@UAEPAXI@Z 1001a360 f i NpClothFabric.obj
 0001:000193c0       ??_GPxClothFabric@physx@@MAEPAXI@Z 1001a3c0 f i NpClothFabric.obj
 0001:000193c0       ??_EPxClothFabric@physx@@MAEPAXI@Z 1001a3c0 f i NpClothFabric.obj
 0001:000193f0       ??_GRefCountable@Cm@physx@@UAEPAXI@Z 1001a3f0 f i NpClothFabric.obj
 0001:000193f0       ??_ERefCountable@Cm@physx@@UAEPAXI@Z 1001a3f0 f i NpClothFabric.obj
 0001:00019420       ?getConcreteTypeName@PxClothFabric@physx@@UBEPBDXZ 1001a420 f i NpClothFabric.obj
 0001:00019430       ?isKindOf@PxClothFabric@physx@@MBE_NPBD@Z 1001a430 f i NpClothFabric.obj
 0001:000194b0       ?onRefCountZero@RefCountable@Cm@physx@@UAEXXZ 1001a4b0 f i NpClothFabric.obj
 0001:000194c0       ?requires@NpClothFabric@physx@@UAEXAAVPxProcessPxBaseCallback@2@@Z 1001a4c0 f i NpClothFabric.obj
 0001:000194d0       ?unlock@NpClothParticleData@physx@@UAEXXZ 1001a4d0 f   NpClothParticleData.obj
 0001:00019500       ?tryLock@NpClothParticleData@physx@@QAE_NV?$PxFlags@W4Enum@PxDataAccessFlag@physx@@E@2@@Z 1001a500 f   NpClothParticleData.obj
 0001:00019530       _PxConstructSolverBodies   1001a530 f   NpImmediateMode.obj
 0001:00019730       _PxConstructStaticSolverBody 1001a730 f   NpImmediateMode.obj
 0001:00019790       _PxBatchConstraints        1001a790 f   NpImmediateMode.obj
 0001:00019920       _PxCreateContactConstraints 1001a920 f   NpImmediateMode.obj
 0001:00019ae0       _PxCreateJointConstraints  1001aae0 f   NpImmediateMode.obj
 0001:00019c10       _PxCreateJointConstraintsWithShaders 1001ac10 f   NpImmediateMode.obj
 0001:00019dd0       _PxSolveConstraints        1001add0 f   NpImmediateMode.obj
 0001:00019f80       _PxIntegrateSolverBodies   1001af80 f   NpImmediateMode.obj
 0001:0001a500       _PxGenerateContacts        1001b500 f   NpImmediateMode.obj
 0001:0001a930       ?createCache@physx@@YAXAAUCache@Gu@1@W4Enum@PxGeometryType@1@1AAVPxCacheAllocator@1@@Z 1001b930 f   NpImmediateMode.obj
 0001:0001ad10       ??0ContactPoint@Gu@physx@@QAE@XZ 1001bd10 f i NpImmediateMode.obj
 0001:0001ad20       ??0FrictionPatch@Dy@physx@@QAE@XZ 1001bd20 f i NpImmediateMode.obj
 0001:0001ad30       ??0LargePersistentContactManifold@Gu@physx@@QAE@XZ 1001bd30 f i NpImmediateMode.obj
 0001:0001ad90       ??0PersistentContact@Gu@physx@@QAE@XZ 1001bd90 f i NpImmediateMode.obj
 0001:0001ada0       ??0Px1DConstraint@physx@@QAE@XZ 1001bda0 f i NpImmediateMode.obj
 0001:0001adb0       ??0SpherePersistentContactManifold@Gu@physx@@QAE@XZ 1001bdb0 f i NpImmediateMode.obj
 0001:0001ae10       ?exportExtraData@NpActor@physx@@QAEXAAVPxSerializationContext@2@@Z 1001be10 f   NpActor.obj
 0001:0001af80       ?importExtraData@NpActor@physx@@QAEXAAVPxDeserializationContext@2@@Z 1001bf80 f   NpActor.obj
 0001:0001b020       ?resolveReferences@NpActor@physx@@QAEXAAVPxDeserializationContext@2@@Z 1001c020 f   NpActor.obj
 0001:0001b080       ??0NpActor@physx@@QAE@PBD@Z 1001c080 f   NpActor.obj
 0001:0001b0a0       ?releaseConstraints@NpActor@physx@@QAEXAAVPxRigidActor@2@@Z 1001c0a0 f   NpActor.obj
 0001:0001b130       ?release@NpActor@physx@@QAEXAAVPxActor@2@@Z 1001c130 f   NpActor.obj
 0001:0001b150       ?getNpAggregate@NpActor@physx@@QBEPAVNpAggregate@2@AAI@Z 1001c150 f   NpActor.obj
 0001:0001b190       ?setAggregate@NpActor@physx@@QAEXPAVNpAggregate@2@AAVPxActor@2@@Z 1001c190 f   NpActor.obj
 0001:0001b200       ?getAggregate@NpActor@physx@@QBEPAVPxAggregate@2@XZ 1001c200 f   NpActor.obj
 0001:0001b230       ?removeConstraintsFromScene@NpActor@physx@@QAEXXZ 1001c230 f   NpActor.obj
 0001:0001b2b0       ?findConnector@NpActor@physx@@QBEIW4Enum@NpConnectorType@2@PAVPxBase@2@@Z 1001c2b0 f   NpActor.obj
 0001:0001b300       ?addConnector@NpActor@physx@@QAEXW4Enum@NpConnectorType@2@PAVPxBase@2@PBD@Z 1001c300 f   NpActor.obj
 0001:0001b3e0       ?removeConnector@NpActor@physx@@QAEXAAVPxActor@2@W4Enum@NpConnectorType@2@PAVPxBase@2@PBD@Z 1001c3e0 f   NpActor.obj
 0001:0001b410       ?getNbConnectors@NpActor@physx@@QBEIW4Enum@NpConnectorType@2@@Z 1001c410 f   NpActor.obj
 0001:0001b460       ?getShapeManager@NpActor@physx@@SAPAVNpShapeManager@2@AAVPxRigidActor@2@@Z 1001c460 f   NpActor.obj
 0001:0001b490       ?getShapeManager@NpActor@physx@@SAPBVNpShapeManager@2@ABVPxRigidActor@2@@Z 1001c490 f   NpActor.obj
 0001:0001b4c0       ?getGlobalPose@NpActor@physx@@SAXAAVPxTransform@2@ABVNpShape@2@ABVPxRigidActor@2@@Z 1001c4c0 f   NpActor.obj
 0001:0001b4e0       ?getGlobalPose@NpActor@physx@@SAXAAVPxTransform@2@ABVShape@Scb@2@ABVActor@52@@Z 1001c4e0 f   NpActor.obj
 0001:0001b8f0       ?getAPIScene@NpActor@physx@@SAPAVNpScene@2@ABVPxActor@2@@Z 1001c8f0 f   NpActor.obj
 0001:0001b930       ?getOwnerScene@NpActor@physx@@SAPAVNpScene@2@ABVPxActor@2@@Z 1001c930 f   NpActor.obj
 0001:0001b960       ?onActorRelease@NpActor@physx@@SAXPAVPxActor@2@@Z 1001c960 f   NpActor.obj
 0001:0001b980       ??1NpActor@physx@@IAE@XZ   1001c980 f   NpActor.obj
 0001:0001b990       ?addConstraintsToSceneInternal@NpActor@physx@@AAEXXZ 1001c990 f   NpActor.obj
 0001:0001ba30       ?removeConnector@NpActor@physx@@AAEXAAVPxActor@2@I@Z 1001ca30 f   NpActor.obj
 0001:0001bad0       ??0Offsets@NpActor@physx@@QAE@XZ 1001cad0 f   NpActor.obj
 0001:0001bb60       ??$exportArray@VNpConnector@physx@@V?$InlineAllocator@$0CA@V?$ReflectionAllocator@VNpConnector@physx@@@shdfnd@physx@@@shdfnd@2@@Cm@physx@@YAXABV?$Array@VNpConnector@physx@@V?$InlineAllocator@$0CA@V?$ReflectionAllocator@VNpConnector@physx@@@shdfnd@physx@@@shdfnd@2@@shdfnd@1@AAVPxSerializationContext@1@@Z 1001cb60 f i NpActor.obj
 0001:0001bba0       ??$exportInlineArray@VNpConnector@physx@@$03V?$ReflectionAllocator@VNpConnector@physx@@@shdfnd@2@@Cm@physx@@YAXABV?$InlineArray@VNpConnector@physx@@$03V?$ReflectionAllocator@VNpConnector@physx@@@shdfnd@2@@shdfnd@1@AAVPxSerializationContext@1@@Z 1001cba0 f i NpActor.obj
 0001:0001bbe0       ??$importArray@VNpConnector@physx@@V?$InlineAllocator@$0CA@V?$ReflectionAllocator@VNpConnector@physx@@@shdfnd@physx@@@shdfnd@2@@Cm@physx@@YAXAAV?$Array@VNpConnector@physx@@V?$InlineAllocator@$0CA@V?$ReflectionAllocator@VNpConnector@physx@@@shdfnd@physx@@@shdfnd@2@@shdfnd@1@AAVPxDeserializationContext@1@@Z 1001cbe0 f i NpActor.obj
 0001:0001bc20       ??$importInlineArray@VNpConnector@physx@@$03V?$ReflectionAllocator@VNpConnector@physx@@@shdfnd@2@@Cm@physx@@YAXAAV?$InlineArray@VNpConnector@physx@@$03V?$ReflectionAllocator@VNpConnector@physx@@@shdfnd@2@@shdfnd@1@AAVPxDeserializationContext@1@@Z 1001cc20 f i NpActor.obj
 0001:0001bc60       ?allocate@?$InlineAllocator@$0CA@V?$ReflectionAllocator@VNpConnector@physx@@@shdfnd@physx@@@shdfnd@physx@@QAEPAXIPBDH@Z 1001cc60 f i NpActor.obj
 0001:0001bce0       ?assign@?$Array@VNpConnector@physx@@V?$InlineAllocator@$0CA@V?$ReflectionAllocator@VNpConnector@physx@@@shdfnd@physx@@@shdfnd@2@@shdfnd@physx@@QAEXPBVNpConnector@3@0@Z 1001cce0 f i NpActor.obj
 0001:0001bd30       ?create@?$HashBase@PAVPxConstraint@physx@@PAV12@U?$Hash@PAVPxConstraint@physx@@@shdfnd@2@UGetKey@?$HashSetBase@PAVPxConstraint@physx@@U?$Hash@PAVPxConstraint@physx@@@shdfnd@2@VNonTrackingAllocator@42@$00@internal@42@VNonTrackingAllocator@42@$00@internal@shdfnd@physx@@QAEPAPAVPxConstraint@4@ABQAV54@AA_N@Z 1001cd30 f i NpActor.obj
 0001:0001be60       ?erase@?$HashBase@PAVPxConstraint@physx@@PAV12@U?$Hash@PAVPxConstraint@physx@@@shdfnd@2@UGetKey@?$HashSetBase@PAVPxConstraint@physx@@U?$Hash@PAVPxConstraint@physx@@@shdfnd@2@VNonTrackingAllocator@42@$00@internal@42@VNonTrackingAllocator@42@$00@internal@shdfnd@physx@@QAE_NABQAVPxConstraint@4@@Z 1001ce60 f i NpActor.obj
 0001:0001bf10       ?getKinematicTarget@Body@Scb@physx@@QBE_NAAVPxTransform@3@@Z 1001cf10 f i NpActor.obj
 0001:0001bf80       ?growAndPushBack@?$Array@VNpConnector@physx@@V?$InlineAllocator@$0CA@V?$ReflectionAllocator@VNpConnector@physx@@@shdfnd@physx@@@shdfnd@2@@shdfnd@physx@@IAEAAVNpConnector@3@ABV43@@Z 1001cf80 f i NpActor.obj
 0001:0001c040       ?recreate@?$Array@VNpConnector@physx@@V?$InlineAllocator@$0CA@V?$ReflectionAllocator@VNpConnector@physx@@@shdfnd@physx@@@shdfnd@2@@shdfnd@physx@@IAEXI@Z 1001d040 f i NpActor.obj
 0001:0001c0e0       ?replaceWithLast@?$HashBase@PAVPxConstraint@physx@@PAV12@U?$Hash@PAVPxConstraint@physx@@@shdfnd@2@UGetKey@?$HashSetBase@PAVPxConstraint@physx@@U?$Hash@PAVPxConstraint@physx@@@shdfnd@2@VNonTrackingAllocator@42@$00@internal@42@VNonTrackingAllocator@42@$00@internal@shdfnd@physx@@AAEXI@Z 1001d0e0 f i NpActor.obj
 0001:0001c170       ?reserveInternal@?$HashBase@PAVPxConstraint@physx@@PAV12@U?$Hash@PAVPxConstraint@physx@@@shdfnd@2@UGetKey@?$HashSetBase@PAVPxConstraint@physx@@U?$Hash@PAVPxConstraint@physx@@@shdfnd@2@VNonTrackingAllocator@42@$00@internal@42@VNonTrackingAllocator@42@$00@internal@shdfnd@physx@@AAEXI@Z 1001d170 f i NpActor.obj
 0001:0001c300       ?resizeUninitialized@?$Array@VNpConnector@physx@@V?$InlineAllocator@$0CA@V?$ReflectionAllocator@VNpConnector@physx@@@shdfnd@physx@@@shdfnd@2@@shdfnd@physx@@QAEXI@Z 1001d300 f i NpActor.obj
 0001:0001c330       ?exportExtraData@NpAggregate@physx@@UAEXAAVPxSerializationContext@2@@Z 1001d330 f   NpAggregate.obj
 0001:0001c360       ?importExtraData@NpAggregate@physx@@QAEXAAVPxDeserializationContext@2@@Z 1001d360 f   NpAggregate.obj
 0001:0001c390       ?resolveReferences@NpAggregate@physx@@QAEXAAVPxDeserializationContext@2@@Z 1001d390 f   NpAggregate.obj
 0001:0001c440       ?requires@NpAggregate@physx@@UAEXAAVPxProcessPxBaseCallback@2@@Z 1001d440 f   NpAggregate.obj
 0001:0001c4a0       ?createObject@NpAggregate@physx@@SAPAV12@AAPAEAAVPxDeserializationContext@2@@Z 1001d4a0 f   NpAggregate.obj
 0001:0001c510       ??0NpAggregate@physx@@QAE@I_N@Z 1001d510 f   NpAggregate.obj
 0001:0001c5a0       ??1NpAggregate@physx@@UAE@XZ 1001d5a0 f   NpAggregate.obj
 0001:0001c5f0       ?release@NpAggregate@physx@@UAEXXZ 1001d5f0 f   NpAggregate.obj
 0001:0001c710       ?addActor@NpAggregate@physx@@UAE_NAAVPxActor@2@@Z 1001d710 f   NpAggregate.obj
 0001:0001c800       ?removeActor@NpAggregate@physx@@UAE_NAAVPxActor@2@@Z 1001d800 f   NpAggregate.obj
 0001:0001c880       ?addArticulation@NpAggregate@physx@@UAE_NAAVPxArticulation@2@@Z 1001d880 f   NpAggregate.obj
 0001:0001c9e0       ?removeArticulation@NpAggregate@physx@@UAE_NAAVPxArticulation@2@@Z 1001d9e0 f   NpAggregate.obj
 0001:0001ca20       ?getNbActors@NpAggregate@physx@@UBEIXZ 1001da20 f   NpAggregate.obj
 0001:0001ca30       ?getMaxNbActors@NpAggregate@physx@@UBEIXZ 1001da30 f   NpAggregate.obj
 0001:0001ca40       ?getActors@NpAggregate@physx@@UBEIPAPAVPxActor@2@II@Z 1001da40 f   NpAggregate.obj
 0001:0001ca90       ?getScene@NpAggregate@physx@@UAEPAVPxScene@2@XZ 1001da90 f   NpAggregate.obj
 0001:0001cad0       ?getSelfCollision@NpAggregate@physx@@UBE_NXZ 1001dad0 f   NpAggregate.obj
 0001:0001cae0       ?getAPIScene@NpAggregate@physx@@QBEPAVNpScene@2@XZ 1001dae0 f   NpAggregate.obj
 0001:0001cb20       ?getOwnerScene@NpAggregate@physx@@QBEPAVNpScene@2@XZ 1001db20 f   NpAggregate.obj
 0001:0001cb30       ?addActorInternal@NpAggregate@physx@@QAEXAAVPxActor@2@AAVNpScene@2@@Z 1001db30 f   NpAggregate.obj
 0001:0001cbc0       ?removeAndReinsert@NpAggregate@physx@@QAEXAAVPxActor@2@_N@Z 1001dbc0 f   NpAggregate.obj
 0001:0001cc00       ?removeActorAndReinsert@NpAggregate@physx@@QAE_NAAVPxActor@2@_N@Z 1001dc00 f   NpAggregate.obj
 0001:0001cca0       ?removeArticulationAndReinsert@NpAggregate@physx@@QAE_NAAVPxArticulation@2@_N@Z 1001dca0 f   NpAggregate.obj
 0001:0001cd60       ??$pointerOffset@PAVNpActor@physx@@@shdfnd@physx@@YAPAVNpActor@1@PAXH@Z 1001dd60 f i NpAggregate.obj
 0001:0001cd70       ??1PxAggregate@physx@@MAE@XZ 1001dd70 f i NpAggregate.obj
 0001:0001cd80       ??_GNpAggregate@physx@@UAEPAXI@Z 1001dd80 f i NpAggregate.obj
 0001:0001cd80       ??_ENpAggregate@physx@@UAEPAXI@Z 1001dd80 f i NpAggregate.obj
 0001:0001cdf0       ??_EPxAggregate@physx@@MAEPAXI@Z 1001ddf0 f i NpAggregate.obj
 0001:0001cdf0       ??_GPxAggregate@physx@@MAEPAXI@Z 1001ddf0 f i NpAggregate.obj
 0001:0001ce20       ?erase@?$HashBase@PAVPxAggregate@physx@@PAV12@U?$Hash@PAVPxAggregate@physx@@@shdfnd@2@UGetKey@?$HashSetBase@PAVPxAggregate@physx@@U?$Hash@PAVPxAggregate@physx@@@shdfnd@2@VNonTrackingAllocator@42@$00@internal@42@VNonTrackingAllocator@42@$00@internal@shdfnd@physx@@QAE_NABQAVPxAggregate@4@@Z 1001de20 f i NpAggregate.obj
 0001:0001ced0       ?getConcreteTypeName@PxAggregate@physx@@UBEPBDXZ 1001ded0 f i NpAggregate.obj
 0001:0001cee0       ?isKindOf@PxAggregate@physx@@MBE_NPBD@Z 1001dee0 f i NpAggregate.obj
 0001:0001cf60       ?replaceWithLast@?$HashBase@PAVPxAggregate@physx@@PAV12@U?$Hash@PAVPxAggregate@physx@@@shdfnd@2@UGetKey@?$HashSetBase@PAVPxAggregate@physx@@U?$Hash@PAVPxAggregate@physx@@@shdfnd@2@VNonTrackingAllocator@42@$00@internal@42@VNonTrackingAllocator@42@$00@internal@shdfnd@physx@@AAEXI@Z 1001df60 f i NpAggregate.obj
 0001:0001cff0       ?NpArticulationGetRootFromScb@physx@@YAPAVBody@Scb@1@AAVArticulation@31@@Z 1001dff0 f   NpArticulation.obj
 0001:0001d020       ??1NpArticulation@physx@@UAE@XZ 1001e020 f   NpArticulation.obj
 0001:0001d090       ?exportExtraData@NpArticulation@physx@@UAEXAAVPxSerializationContext@2@@Z 1001e090 f   NpArticulation.obj
 0001:0001d0e0       ?importExtraData@NpArticulation@physx@@QAEXAAVPxDeserializationContext@2@@Z 1001e0e0 f   NpArticulation.obj
 0001:0001d140       ?resolveReferences@NpArticulation@physx@@QAEXAAVPxDeserializationContext@2@@Z 1001e140 f   NpArticulation.obj
 0001:0001d1a0       ?requires@NpArticulation@physx@@UAEXAAVPxProcessPxBaseCallback@2@@Z 1001e1a0 f   NpArticulation.obj
 0001:0001d1e0       ?createObject@NpArticulation@physx@@SAPAV12@AAPAEAAVPxDeserializationContext@2@@Z 1001e1e0 f   NpArticulation.obj
 0001:0001d2a0       ?release@NpArticulation@physx@@UAEXXZ 1001e2a0 f   NpArticulation.obj
 0001:0001d360       ?getScene@NpArticulation@physx@@UBEPAVPxScene@2@XZ 1001e360 f   NpArticulation.obj
 0001:0001d3a0       ?getInternalDriveIterations@NpArticulation@physx@@UBEIXZ 1001e3a0 f   NpArticulation.obj
 0001:0001d3c0       ?setInternalDriveIterations@NpArticulation@physx@@UAEXI@Z 1001e3c0 f   NpArticulation.obj
 0001:0001d3d0       ?getExternalDriveIterations@NpArticulation@physx@@UBEIXZ 1001e3d0 f   NpArticulation.obj
 0001:0001d3f0       ?setExternalDriveIterations@NpArticulation@physx@@UAEXI@Z 1001e3f0 f   NpArticulation.obj
 0001:0001d400       ?getMaxProjectionIterations@NpArticulation@physx@@UBEIXZ 1001e400 f   NpArticulation.obj
 0001:0001d420       ?setMaxProjectionIterations@NpArticulation@physx@@UAEXI@Z 1001e420 f   NpArticulation.obj
 0001:0001d430       ?getSeparationTolerance@NpArticulation@physx@@UBEMXZ 1001e430 f   NpArticulation.obj
 0001:0001d460       ?setSeparationTolerance@NpArticulation@physx@@UAEXM@Z 1001e460 f   NpArticulation.obj
 0001:0001d4d0       ?setSleepThreshold@NpArticulation@physx@@UAEXM@Z 1001e4d0 f   NpArticulation.obj
 0001:0001d540       ?getSleepThreshold@NpArticulation@physx@@UBEMXZ 1001e540 f   NpArticulation.obj
 0001:0001d570       ?setStabilizationThreshold@NpArticulation@physx@@UAEXM@Z 1001e570 f   NpArticulation.obj
 0001:0001d5e0       ?getStabilizationThreshold@NpArticulation@physx@@UBEMXZ 1001e5e0 f   NpArticulation.obj
 0001:0001d610       ?setWakeCounter@NpArticulation@physx@@UAEXM@Z 1001e610 f   NpArticulation.obj
 0001:0001d740       ?getWakeCounter@NpArticulation@physx@@UBEMXZ 1001e740 f   NpArticulation.obj
 0001:0001d750       ?setSolverIterationCounts@NpArticulation@physx@@UAEXII@Z 1001e750 f   NpArticulation.obj
 0001:0001d770       ?getSolverIterationCounts@NpArticulation@physx@@UBEXAAI0@Z 1001e770 f   NpArticulation.obj
 0001:0001d7b0       ?isSleeping@NpArticulation@physx@@UBE_NXZ 1001e7b0 f   NpArticulation.obj
 0001:0001d7c0       ?wakeUp@NpArticulation@physx@@UAEXXZ 1001e7c0 f   NpArticulation.obj
 0001:0001d910       ?putToSleep@NpArticulation@physx@@UAEXXZ 1001e910 f   NpArticulation.obj
 0001:0001d990       ?createLink@NpArticulation@physx@@UAEPAVPxArticulationLink@2@PAV32@ABVPxTransform@2@@Z 1001e990 f   NpArticulation.obj
 0001:0001db00       ?getNbLinks@NpArticulation@physx@@UBEIXZ 1001eb00 f   NpArticulation.obj
 0001:0001db10       ?getLinks@NpArticulation@physx@@UBEIPAPAVPxArticulationLink@2@II@Z 1001eb10 f   NpArticulation.obj
 0001:0001db60       ?getWorldBounds@NpArticulation@physx@@UBE?AVPxBounds3@2@M@Z 1001eb60 f   NpArticulation.obj
 0001:0001dd20       ?getAggregate@NpArticulation@physx@@UBEPAVPxAggregate@2@XZ 1001ed20 f   NpArticulation.obj
 0001:0001dd30       ?setName@NpArticulation@physx@@UAEXPBD@Z 1001ed30 f   NpArticulation.obj
 0001:0001dd40       ?getName@NpArticulation@physx@@UBEPBDXZ 1001ed40 f   NpArticulation.obj
 0001:0001dd50       ?createDriveCache@NpArticulation@physx@@UBEPAVPxArticulationDriveCache@2@MI@Z 1001ed50 f   NpArticulation.obj
 0001:0001dd70       ?updateDriveCache@NpArticulation@physx@@UBEXAAVPxArticulationDriveCache@2@MI@Z 1001ed70 f   NpArticulation.obj
 0001:0001dd90       ?releaseDriveCache@NpArticulation@physx@@UBEXAAVPxArticulationDriveCache@2@@Z 1001ed90 f   NpArticulation.obj
 0001:0001dda0       ?applyImpulse@NpArticulation@physx@@UAEXPAVPxArticulationLink@2@ABVPxArticulationDriveCache@2@ABVPxVec3@2@2@Z 1001eda0 f   NpArticulation.obj
 0001:0001de70       ?computeImpulseResponse@NpArticulation@physx@@UBEXPAVPxArticulationLink@2@AAVPxVec3@2@1ABVPxArticulationDriveCache@2@ABV42@3@Z 1001ee70 f   NpArticulation.obj
 0001:0001de80       ??0NpArticulation@physx@@QAE@XZ 1001ee80 f   NpArticulation.obj
 0001:0001df20       ?getRoot@NpArticulation@physx@@QAEPAVNpArticulationLink@2@XZ 1001ef20 f   NpArticulation.obj
 0001:0001df30       ?getAPIScene@NpArticulation@physx@@QBEPAVNpScene@2@XZ 1001ef30 f   NpArticulation.obj
 0001:0001df70       ?getOwnerScene@NpArticulation@physx@@QBEPAVNpScene@2@XZ 1001ef70 f   NpArticulation.obj
 0001:0001df80       ?wakeUpInternal@NpArticulation@physx@@QAEX_N0@Z 1001ef80 f   NpArticulation.obj
 0001:0001e120       ?visualize@NpArticulation@physx@@QAEXAAVRenderOutput@Cm@2@PAVNpScene@2@@Z 1001f120 f   NpArticulation.obj
 0001:0001e150       ??$exportArray@PAVNpArticulationLink@physx@@V?$InlineAllocator@$0BA@V?$ReflectionAllocator@PAVNpArticulationLink@physx@@@shdfnd@physx@@@shdfnd@2@@Cm@physx@@YAXABV?$Array@PAVNpArticulationLink@physx@@V?$InlineAllocator@$0BA@V?$ReflectionAllocator@PAVNpArticulationLink@physx@@@shdfnd@physx@@@shdfnd@2@@shdfnd@1@AAVPxSerializationContext@1@@Z 1001f150 f i NpArticulation.obj
 0001:0001e190       ??$exportInlineArray@PAVNpArticulationLink@physx@@$03V?$ReflectionAllocator@PAVNpArticulationLink@physx@@@shdfnd@2@@Cm@physx@@YAXABV?$InlineArray@PAVNpArticulationLink@physx@@$03V?$ReflectionAllocator@PAVNpArticulationLink@physx@@@shdfnd@2@@shdfnd@1@AAVPxSerializationContext@1@@Z 1001f190 f i NpArticulation.obj
 0001:0001e1d0       ??$importArray@PAVNpArticulationLink@physx@@V?$InlineAllocator@$0BA@V?$ReflectionAllocator@PAVNpArticulationLink@physx@@@shdfnd@physx@@@shdfnd@2@@Cm@physx@@YAXAAV?$Array@PAVNpArticulationLink@physx@@V?$InlineAllocator@$0BA@V?$ReflectionAllocator@PAVNpArticulationLink@physx@@@shdfnd@physx@@@shdfnd@2@@shdfnd@1@AAVPxDeserializationContext@1@@Z 1001f1d0 f i NpArticulation.obj
 0001:0001e210       ??$importInlineArray@PAVNpArticulationLink@physx@@$03V?$ReflectionAllocator@PAVNpArticulationLink@physx@@@shdfnd@2@@Cm@physx@@YAXAAV?$InlineArray@PAVNpArticulationLink@physx@@$03V?$ReflectionAllocator@PAVNpArticulationLink@physx@@@shdfnd@2@@shdfnd@1@AAVPxDeserializationContext@1@@Z 1001f210 f i NpArticulation.obj
 0001:0001e250       ??1PxArticulation@physx@@MAE@XZ 1001f250 f i NpArticulation.obj
 0001:0001e260       ??_GNpArticulation@physx@@UAEPAXI@Z 1001f260 f i NpArticulation.obj
 0001:0001e260       ??_ENpArticulation@physx@@UAEPAXI@Z 1001f260 f i NpArticulation.obj
 0001:0001e2b0       ??_GPxArticulation@physx@@MAEPAXI@Z 1001f2b0 f i NpArticulation.obj
 0001:0001e2b0       ??_EPxArticulation@physx@@MAEPAXI@Z 1001f2b0 f i NpArticulation.obj
 0001:0001e2e0       ?allocate@?$InlineAllocator@$0BA@V?$ReflectionAllocator@PAVNpArticulationLink@physx@@@shdfnd@physx@@@shdfnd@physx@@QAEPAXIPBDH@Z 1001f2e0 f i NpArticulation.obj
 0001:0001e360       ?erase@?$HashBase@PAVPxArticulation@physx@@PAV12@U?$Hash@PAVPxArticulation@physx@@@shdfnd@2@UGetKey@?$HashSetBase@PAVPxArticulation@physx@@U?$Hash@PAVPxArticulation@physx@@@shdfnd@2@VNonTrackingAllocator@42@$00@internal@42@VNonTrackingAllocator@42@$00@internal@shdfnd@physx@@QAE_NABQAVPxArticulation@4@@Z 1001f360 f i NpArticulation.obj
 0001:0001e410       ?getConcreteTypeName@PxArticulation@physx@@UBEPBDXZ 1001f410 f i NpArticulation.obj
 0001:0001e420       ?isKindOf@PxArticulation@physx@@MBE_NPBD@Z 1001f420 f i NpArticulation.obj
 0001:0001e4a0       ?replaceWithLast@?$HashBase@PAVPxArticulation@physx@@PAV12@U?$Hash@PAVPxArticulation@physx@@@shdfnd@2@UGetKey@?$HashSetBase@PAVPxArticulation@physx@@U?$Hash@PAVPxArticulation@physx@@@shdfnd@2@VNonTrackingAllocator@42@$00@internal@42@VNonTrackingAllocator@42@$00@internal@shdfnd@physx@@AAEXI@Z 1001f4a0 f i NpArticulation.obj
 0001:0001e530       ?setExternalDriveIterations@Articulation@Scb@physx@@QAEXI@Z 1001f530 f i NpArticulation.obj
 0001:0001e5a0       ?setInternalDriveIterations@Articulation@Scb@physx@@QAEXI@Z 1001f5a0 f i NpArticulation.obj
 0001:0001e610       ?setMaxProjectionIterations@Articulation@Scb@physx@@QAEXI@Z 1001f610 f i NpArticulation.obj
 0001:0001e680       ?setSolverIterationCounts@Articulation@Scb@physx@@QAEXG@Z 1001f680 f i NpArticulation.obj
 0001:0001e6f0       ?wakeUpInternal@Body@Scb@physx@@QAEXM@Z 1001f6f0 f i NpArticulation.obj
 0001:0001e780       ?NpArticulationJointGetBodiesFromScb@physx@@YAXAAVArticulationJoint@Scb@1@AAPAVBody@31@1@Z 1001f780 f   NpArticulationJoint.obj
 0001:0001e7b0       ?resolveReferences@NpArticulationJoint@physx@@UAEXAAVPxDeserializationContext@2@@Z 1001f7b0 f   NpArticulationJoint.obj
 0001:0001e810       ?createObject@NpArticulationJoint@physx@@SAPAV12@AAPAEAAVPxDeserializationContext@2@@Z 1001f810 f   NpArticulationJoint.obj
 0001:0001e860       ??0NpArticulationJoint@physx@@QAE@AAVNpArticulationLink@1@ABVPxTransform@1@01@Z 1001f860 f   NpArticulationJoint.obj
 0001:0001e8c0       ??1NpArticulationJoint@physx@@UAE@XZ 1001f8c0 f   NpArticulationJoint.obj
 0001:0001e8e0       ?getParentPose@NpArticulationJoint@physx@@UBE?AVPxTransform@2@XZ 1001f8e0 f   NpArticulationJoint.obj
 0001:0001eb70       ?setParentPose@NpArticulationJoint@physx@@UAEXABVPxTransform@2@@Z 1001fb70 f   NpArticulationJoint.obj
 0001:0001eea0       ?getChildPose@NpArticulationJoint@physx@@UBE?AVPxTransform@2@XZ 1001fea0 f   NpArticulationJoint.obj
 0001:0001f130       ?setChildPose@NpArticulationJoint@physx@@UAEXABVPxTransform@2@@Z 10020130 f   NpArticulationJoint.obj
 0001:0001f460       ?setTargetOrientation@NpArticulationJoint@physx@@UAEXABVPxQuat@2@@Z 10020460 f   NpArticulationJoint.obj
 0001:0001f470       ?getTargetOrientation@NpArticulationJoint@physx@@UBE?AVPxQuat@2@XZ 10020470 f   NpArticulationJoint.obj
 0001:0001f4b0       ?setTargetVelocity@NpArticulationJoint@physx@@UAEXABVPxVec3@2@@Z 100204b0 f   NpArticulationJoint.obj
 0001:0001f4c0       ?getTargetVelocity@NpArticulationJoint@physx@@UBE?AVPxVec3@2@XZ 100204c0 f   NpArticulationJoint.obj
 0001:0001f4f0       ?setDriveType@NpArticulationJoint@physx@@UAEXW4Enum@PxArticulationJointDriveType@2@@Z 100204f0 f   NpArticulationJoint.obj
 0001:0001f500       ?getDriveType@NpArticulationJoint@physx@@UBE?AW4Enum@PxArticulationJointDriveType@2@XZ 10020500 f   NpArticulationJoint.obj
 0001:0001f520       ?setStiffness@NpArticulationJoint@physx@@UAEXM@Z 10020520 f   NpArticulationJoint.obj
 0001:0001f590       ?getStiffness@NpArticulationJoint@physx@@UBEMXZ 10020590 f   NpArticulationJoint.obj
 0001:0001f5c0       ?setDamping@NpArticulationJoint@physx@@UAEXM@Z 100205c0 f   NpArticulationJoint.obj
 0001:0001f630       ?getDamping@NpArticulationJoint@physx@@UBEMXZ 10020630 f   NpArticulationJoint.obj
 0001:0001f660       ?setInternalCompliance@NpArticulationJoint@physx@@UAEXM@Z 10020660 f   NpArticulationJoint.obj
 0001:0001f6d0       ?getInternalCompliance@NpArticulationJoint@physx@@UBEMXZ 100206d0 f   NpArticulationJoint.obj
 0001:0001f700       ?setExternalCompliance@NpArticulationJoint@physx@@UAEXM@Z 10020700 f   NpArticulationJoint.obj
 0001:0001f720       ?getExternalCompliance@NpArticulationJoint@physx@@UBEMXZ 10020720 f   NpArticulationJoint.obj
 0001:0001f760       ?setSwingLimit@NpArticulationJoint@physx@@UAEXMM@Z 10020760 f   NpArticulationJoint.obj
 0001:0001f790       ?getSwingLimit@NpArticulationJoint@physx@@UBEXAAM0@Z 10020790 f   NpArticulationJoint.obj
 0001:0001f7e0       ?setTangentialStiffness@NpArticulationJoint@physx@@UAEXM@Z 100207e0 f   NpArticulationJoint.obj
 0001:0001f800       ?getTangentialStiffness@NpArticulationJoint@physx@@UBEMXZ 10020800 f   NpArticulationJoint.obj
 0001:0001f840       ?setTangentialDamping@NpArticulationJoint@physx@@UAEXM@Z 10020840 f   NpArticulationJoint.obj
 0001:0001f860       ?getTangentialDamping@NpArticulationJoint@physx@@UBEMXZ 10020860 f   NpArticulationJoint.obj
 0001:0001f8a0       ?setSwingLimitEnabled@NpArticulationJoint@physx@@UAEX_N@Z 100208a0 f   NpArticulationJoint.obj
 0001:0001f8b0       ?getSwingLimitEnabled@NpArticulationJoint@physx@@UBE_NXZ 100208b0 f   NpArticulationJoint.obj
 0001:0001f8d0       ?setSwingLimitContactDistance@NpArticulationJoint@physx@@UAEXM@Z 100208d0 f   NpArticulationJoint.obj
 0001:0001f8f0       ?getSwingLimitContactDistance@NpArticulationJoint@physx@@UBEMXZ 100208f0 f   NpArticulationJoint.obj
 0001:0001f930       ?setTwistLimit@NpArticulationJoint@physx@@UAEXMM@Z 10020930 f   NpArticulationJoint.obj
 0001:0001f960       ?getTwistLimit@NpArticulationJoint@physx@@UBEXAAM0@Z 10020960 f   NpArticulationJoint.obj
 0001:0001f9b0       ?setTwistLimitEnabled@NpArticulationJoint@physx@@UAEX_N@Z 100209b0 f   NpArticulationJoint.obj
 0001:0001f9c0       ?getTwistLimitEnabled@NpArticulationJoint@physx@@UBE_NXZ 100209c0 f   NpArticulationJoint.obj
 0001:0001f9e0       ?setTwistLimitContactDistance@NpArticulationJoint@physx@@UAEXM@Z 100209e0 f   NpArticulationJoint.obj
 0001:0001fa00       ?getTwistLimitContactDistance@NpArticulationJoint@physx@@UBEMXZ 10020a00 f   NpArticulationJoint.obj
 0001:0001fa40       ?release@NpArticulationJoint@physx@@UAEXXZ 10020a40 f   NpArticulationJoint.obj
 0001:0001faa0       ?getOwnerScene@NpArticulationJoint@physx@@ABEPAVNpScene@2@XZ 10020aa0 f   NpArticulationJoint.obj
 0001:0001fab0       ??1PxArticulationJoint@physx@@MAE@XZ 10020ab0 f i NpArticulationJoint.obj
 0001:0001fac0       ??_ENpArticulationJoint@physx@@UAEPAXI@Z 10020ac0 f i NpArticulationJoint.obj
 0001:0001fac0       ??_GNpArticulationJoint@physx@@UAEPAXI@Z 10020ac0 f i NpArticulationJoint.obj
 0001:0001fb10       ??_EPxArticulationJoint@physx@@MAEPAXI@Z 10020b10 f i NpArticulationJoint.obj
 0001:0001fb10       ??_GPxArticulationJoint@physx@@MAEPAXI@Z 10020b10 f i NpArticulationJoint.obj
 0001:0001fb40       ?getConcreteTypeName@PxArticulationJoint@physx@@UBEPBDXZ 10020b40 f i NpArticulationJoint.obj
 0001:0001fb50       ?isKindOf@PxArticulationJoint@physx@@MBE_NPBD@Z 10020b50 f i NpArticulationJoint.obj
 0001:0001fbd0       ?isSubordinate@NpArticulationJoint@physx@@UBE_NXZ 10020bd0 f i NpArticulationJoint.obj
 0001:0001fbe0       ?requires@NpArticulationJoint@physx@@UAEXAAVPxProcessPxBaseCallback@2@@Z 10020be0 f i NpArticulationJoint.obj
 0001:0001fbf0       ?setChildPose@ArticulationJoint@Scb@physx@@QAEXABVPxTransform@3@@Z 10020bf0 f i NpArticulationJoint.obj
 0001:0001fc80       ?setDriveType@ArticulationJoint@Scb@physx@@QAEXW4Enum@PxArticulationJointDriveType@3@@Z 10020c80 f i NpArticulationJoint.obj
 0001:0001fcf0       ?setExternalCompliance@ArticulationJoint@Scb@physx@@QAEXM@Z 10020cf0 f i NpArticulationJoint.obj
 0001:0001fd70       ?setParentPose@ArticulationJoint@Scb@physx@@QAEXABVPxTransform@3@@Z 10020d70 f i NpArticulationJoint.obj
 0001:0001fe00       ?setSwingLimit@ArticulationJoint@Scb@physx@@QAEXMM@Z 10020e00 f i NpArticulationJoint.obj
 0001:0001feb0       ?setSwingLimitContactDistance@ArticulationJoint@Scb@physx@@QAEXM@Z 10020eb0 f i NpArticulationJoint.obj
 0001:0001ff30       ?setSwingLimitEnabled@ArticulationJoint@Scb@physx@@QAEX_N@Z 10020f30 f i NpArticulationJoint.obj
 0001:0001ffa0       ?setTangentialDamping@ArticulationJoint@Scb@physx@@QAEXM@Z 10020fa0 f i NpArticulationJoint.obj
 0001:00020020       ?setTangentialStiffness@ArticulationJoint@Scb@physx@@QAEXM@Z 10021020 f i NpArticulationJoint.obj
 0001:000200a0       ?setTargetOrientation@ArticulationJoint@Scb@physx@@QAEXABVPxQuat@3@@Z 100210a0 f i NpArticulationJoint.obj
 0001:00020120       ?setTargetVelocity@ArticulationJoint@Scb@physx@@QAEXABVPxVec3@3@@Z 10021120 f i NpArticulationJoint.obj
 0001:000201a0       ?setTwistLimit@ArticulationJoint@Scb@physx@@QAEXMM@Z 100211a0 f i NpArticulationJoint.obj
 0001:00020250       ?setTwistLimitContactDistance@ArticulationJoint@Scb@physx@@QAEXM@Z 10021250 f i NpArticulationJoint.obj
 0001:000202d0       ?setTwistLimitEnabled@ArticulationJoint@Scb@physx@@QAEX_N@Z 100212d0 f i NpArticulationJoint.obj
 0001:00020340       ?exportExtraData@NpArticulationLink@physx@@UAEXAAVPxSerializationContext@2@@Z 10021340 f   NpArticulationLink.obj
 0001:000203b0       ?importExtraData@NpArticulationLink@physx@@QAEXAAVPxDeserializationContext@2@@Z 100213b0 f   NpArticulationLink.obj
 0001:00020420       ?resolveReferences@NpArticulationLink@physx@@UAEXAAVPxDeserializationContext@2@@Z 10021420 f   NpArticulationLink.obj
 0001:000204e0       ?requires@NpArticulationLink@physx@@UAEXAAVPxProcessPxBaseCallback@2@@Z 100214e0 f   NpArticulationLink.obj
 0001:00020540       ?createObject@NpArticulationLink@physx@@SAPAV12@AAPAEAAVPxDeserializationContext@2@@Z 10021540 f   NpArticulationLink.obj
 0001:000205b0       ??1NpArticulationLink@physx@@UAE@XZ 100215b0 f   NpArticulationLink.obj
 0001:00020630       ?release@NpArticulationLink@physx@@UAEXXZ 10021630 f   NpArticulationLink.obj
 0001:00020660       ?setGlobalPose@NpArticulationLink@physx@@UAEXABVPxTransform@2@@Z 10021660 f   NpArticulationLink.obj
 0001:00020680       ?setGlobalPose@NpArticulationLink@physx@@UAEXABVPxTransform@2@_N@Z 10021680 f   NpArticulationLink.obj
 0001:000208f0       ?getGlobalPose@NpArticulationLink@physx@@UBE?AVPxTransform@2@XZ 100218f0 f   NpArticulationLink.obj
 0001:00020cc0       ?setLinearVelocity@NpArticulationLink@physx@@UAEXABVPxVec3@2@_N@Z 10021cc0 f   NpArticulationLink.obj
 0001:00020d40       ?setAngularVelocity@NpArticulationLink@physx@@UAEXABVPxVec3@2@_N@Z 10021d40 f   NpArticulationLink.obj
 0001:00020dc0       ?getArticulation@NpArticulationLink@physx@@UBEAAVPxArticulation@2@XZ 10021dc0 f   NpArticulationLink.obj
 0001:00020dd0       ?getInboundJoint@NpArticulationLink@physx@@UBEPAVPxArticulationJoint@2@XZ 10021dd0 f   NpArticulationLink.obj
 0001:00020de0       ?getNbChildren@NpArticulationLink@physx@@UBEIXZ 10021de0 f   NpArticulationLink.obj
 0001:00020df0       ?getChildren@NpArticulationLink@physx@@UBEIPAPAVPxArticulationLink@2@II@Z 10021df0 f   NpArticulationLink.obj
 0001:00020e40       ?setCMassLocalPose@NpArticulationLink@physx@@UAEXABVPxTransform@2@@Z 10021e40 f   NpArticulationLink.obj
 0001:000215f0       ?addForce@NpArticulationLink@physx@@UAEXABVPxVec3@2@W4Enum@PxForceMode@2@_N@Z 100225f0 f   NpArticulationLink.obj
 0001:00021670       ?addTorque@NpArticulationLink@physx@@UAEXABVPxVec3@2@W4Enum@PxForceMode@2@_N@Z 10022670 f   NpArticulationLink.obj
 0001:000216f0       ?clearForce@NpArticulationLink@physx@@UAEXW4Enum@PxForceMode@2@@Z 100226f0 f   NpArticulationLink.obj
 0001:00021740       ?clearTorque@NpArticulationLink@physx@@UAEXW4Enum@PxForceMode@2@@Z 10022740 f   NpArticulationLink.obj
 0001:00021790       ??0NpArticulationLink@physx@@QAE@ABVPxTransform@1@AAVNpArticulation@1@PAV01@@Z 10022790 f   NpArticulationLink.obj
 0001:000218d0       ?releaseInternal@NpArticulationLink@physx@@QAEXXZ 100228d0 f   NpArticulationLink.obj
 0001:00021970       ?visualize@NpArticulationLink@physx@@QAEXAAVRenderOutput@Cm@2@PAVNpScene@2@@Z 10022970 f   NpArticulationLink.obj
 0001:00021c10       ?visualizeJoint@NpArticulationLink@physx@@QAEXAAVPxConstraintVisualizer@2@@Z 10022c10 f   NpArticulationLink.obj
 0001:00022550       ??$getConnectors@VPxConstraint@physx@@@NpActor@physx@@QBEIW4Enum@NpConnectorType@1@PAPAVPxConstraint@1@II@Z 10023550 f i NpArticulationLink.obj
 0001:000225b0       ??0?$NpActorTemplate@VPxArticulationLink@physx@@@physx@@QAE@GV?$PxFlags@W4Enum@PxBaseFlag@physx@@G@1@PBDPAX@Z 100235b0 f i NpArticulationLink.obj
 0001:00022600       ??0?$NpRigidActorTemplate@VPxArticulationLink@physx@@@physx@@QAE@GV?$PxFlags@W4Enum@PxBaseFlag@physx@@G@1@@Z 10023600 f i NpArticulationLink.obj
 0001:00022650       ??0?$NpRigidBodyTemplate@VPxArticulationLink@physx@@@physx@@QAE@GV?$PxFlags@W4Enum@PxBaseFlag@physx@@G@1@W4Enum@PxActorType@1@ABVPxTransform@1@@Z 10023650 f i NpArticulationLink.obj
 0001:000226b0       ??0?$NpRigidBodyTemplate@VPxArticulationLink@physx@@@physx@@QAE@V?$PxFlags@W4Enum@PxBaseFlag@physx@@G@1@@Z 100236b0 f i NpArticulationLink.obj
 0001:00022720       ??0Body@Scb@physx@@QAE@W4Enum@PxActorType@2@ABVPxTransform@2@@Z 10023720 f i NpArticulationLink.obj
 0001:00022800       ??0PxMat44@physx@@QAE@W4PxIDENTITY@1@@Z 10023800 f i NpArticulationLink.obj
 0001:00022880       ??1?$NpActorTemplate@VPxArticulationLink@physx@@@physx@@UAE@XZ 10023880 f i NpArticulationLink.obj
 0001:000228b0       ??1?$NpRigidActorTemplate@VPxArticulationLink@physx@@@physx@@UAE@XZ 100238b0 f i NpArticulationLink.obj
 0001:000228e0       ??1?$NpRigidBodyTemplate@VPxArticulationLink@physx@@@physx@@UAE@XZ 100238e0 f i NpArticulationLink.obj
 0001:00022920       ??1PxArticulationLink@physx@@MAE@XZ 10023920 f i NpArticulationLink.obj
 0001:00022930       ??1PxConstraintVisualizer@physx@@MAE@XZ 10023930 f i NpArticulationLink.obj
 0001:00022940       ??1PxRigidActor@physx@@MAE@XZ 10023940 f i NpArticulationLink.obj
 0001:00022950       ??1PxRigidBody@physx@@MAE@XZ 10023950 f i NpArticulationLink.obj
 0001:00022960       ??_G?$NpActorTemplate@VPxArticulationLink@physx@@@physx@@UAEPAXI@Z 10023960 f i NpArticulationLink.obj
 0001:00022960       ??_E?$NpActorTemplate@VPxArticulationLink@physx@@@physx@@UAEPAXI@Z 10023960 f i NpArticulationLink.obj
 0001:000229c0       ??_G?$NpRigidActorTemplate@VPxArticulationLink@physx@@@physx@@UAEPAXI@Z 100239c0 f i NpArticulationLink.obj
 0001:000229c0       ??_E?$NpRigidActorTemplate@VPxArticulationLink@physx@@@physx@@UAEPAXI@Z 100239c0 f i NpArticulationLink.obj
 0001:00022a30       ??_E?$NpRigidBodyTemplate@VPxArticulationLink@physx@@@physx@@UAEPAXI@Z 10023a30 f i NpArticulationLink.obj
 0001:00022a30       ??_G?$NpRigidBodyTemplate@VPxArticulationLink@physx@@@physx@@UAEPAXI@Z 10023a30 f i NpArticulationLink.obj
 0001:00022ab0       ??_EConstraintImmediateVisualizer@Cm@physx@@UAEPAXI@Z 10023ab0 f i NpArticulationLink.obj
 0001:00022ab0       ??_GConstraintImmediateVisualizer@Cm@physx@@UAEPAXI@Z 10023ab0 f i NpArticulationLink.obj
 0001:00022ae0       ??_ENpArticulationLink@physx@@UAEPAXI@Z 10023ae0 f i NpArticulationLink.obj
 0001:00022ae0       ??_GNpArticulationLink@physx@@UAEPAXI@Z 10023ae0 f i NpArticulationLink.obj
 0001:00022b30       ??_GPxArticulationLink@physx@@MAEPAXI@Z 10023b30 f i NpArticulationLink.obj
 0001:00022b30       ??_EPxArticulationLink@physx@@MAEPAXI@Z 10023b30 f i NpArticulationLink.obj
 0001:00022b60       ??_GPxConstraintVisualizer@physx@@MAEPAXI@Z 10023b60 f i NpArticulationLink.obj
 0001:00022b60       ??_EPxConstraintVisualizer@physx@@MAEPAXI@Z 10023b60 f i NpArticulationLink.obj
 0001:00022b90       ??_EPxRigidActor@physx@@MAEPAXI@Z 10023b90 f i NpArticulationLink.obj
 0001:00022b90       ??_GPxRigidActor@physx@@MAEPAXI@Z 10023b90 f i NpArticulationLink.obj
 0001:00022bc0       ??_GPxRigidBody@physx@@MAEPAXI@Z 10023bc0 f i NpArticulationLink.obj
 0001:00022bc0       ??_EPxRigidBody@physx@@MAEPAXI@Z 10023bc0 f i NpArticulationLink.obj
 0001:00022bf0       ?addSpatialAcceleration@Body@Scb@physx@@QAEXPBVPxVec3@3@0@Z 10023bf0 f i NpArticulationLink.obj
 0001:00022d00       ?addSpatialForce@?$NpRigidBodyTemplate@VPxArticulationLink@physx@@@physx@@IAEXPBVPxVec3@2@0W4Enum@PxForceMode@2@@Z 10023d00 f i NpArticulationLink.obj
 0001:00022f70       ?addSpatialVelocity@Body@Scb@physx@@QAEXPBVPxVec3@3@0@Z 10023f70 f i NpArticulationLink.obj
 0001:00023080       ?attachShape@?$NpRigidActorTemplate@VPxArticulationLink@physx@@@physx@@UAEXAAVPxShape@2@@Z 10024080 f i NpArticulationLink.obj
 0001:000230f0       ?attachShape@?$NpRigidBodyTemplate@VPxArticulationLink@physx@@@physx@@UAEXAAVPxShape@2@@Z 100240f0 f i NpArticulationLink.obj
 0001:00023160       ?clearSpatialAcceleration@Body@Scb@physx@@QAEX_N0@Z 10024160 f i NpArticulationLink.obj
 0001:00023220       ?clearSpatialForce@?$NpRigidBodyTemplate@VPxArticulationLink@physx@@@physx@@IAEXW4Enum@PxForceMode@2@_N1@Z 10024220 f i NpArticulationLink.obj
 0001:00023270       ?clearSpatialVelocity@Body@Scb@physx@@QAEX_N0@Z 10024270 f i NpArticulationLink.obj
 0001:00023330       ?createShape@?$NpRigidBodyTemplate@VPxArticulationLink@physx@@@physx@@UAEPAVPxShape@2@ABVPxGeometry@2@PBQAVPxMaterial@2@GV?$PxFlags@W4Enum@PxShapeFlag@physx@@E@2@@Z 10024330 f i NpArticulationLink.obj
 0001:00023380       ?detachShape@?$NpRigidActorTemplate@VPxArticulationLink@physx@@@physx@@UAEXAAVPxShape@2@_N@Z 10024380 f i NpArticulationLink.obj
 0001:000233d0       ?exportExtraData@?$NpActorTemplate@VPxArticulationLink@physx@@@physx@@UAEXAAVPxSerializationContext@2@@Z 100243d0 f i NpArticulationLink.obj
 0001:000233e0       ?exportExtraData@?$NpRigidActorTemplate@VPxArticulationLink@physx@@@physx@@UAEXAAVPxSerializationContext@2@@Z 100243e0 f i NpArticulationLink.obj
 0001:00023410       ?getActorFlags@?$NpActorTemplate@VPxArticulationLink@physx@@@physx@@UBE?AV?$PxFlags@W4Enum@PxActorFlag@physx@@E@2@XZ 10024410 f i NpArticulationLink.obj
 0001:00023450       ?getAggregate@?$NpActorTemplate@VPxArticulationLink@physx@@@physx@@UBEPAVPxAggregate@2@XZ 10024450 f i NpArticulationLink.obj
 0001:00023460       ?getAngularVelocity@?$NpRigidBodyTemplate@VPxArticulationLink@physx@@@physx@@UBE?AVPxVec3@2@XZ 10024460 f i NpArticulationLink.obj
 0001:00023490       ?getCMassLocalPose@?$NpRigidBodyTemplate@VPxArticulationLink@physx@@@physx@@UBE?AVPxTransform@2@XZ 10024490 f i NpArticulationLink.obj
 0001:000234e0       ?getClientBehaviorFlags@?$NpActorTemplate@VPxArticulationLink@physx@@@physx@@UBE?AV?$PxFlags@W4Enum@PxActorClientBehaviorFlag@physx@@E@2@XZ 100244e0 f i NpArticulationLink.obj
 0001:00023530       ?getConcreteTypeName@PxArticulationLink@physx@@UBEPBDXZ 10024530 f i NpArticulationLink.obj
 0001:00023540       ?getConstraints@?$NpRigidActorTemplate@VPxArticulationLink@physx@@@physx@@UBEIPAPAVPxConstraint@2@II@Z 10024540 f i NpArticulationLink.obj
 0001:00023560       ?getDominanceGroup@?$NpActorTemplate@VPxArticulationLink@physx@@@physx@@UBEEXZ 10024560 f i NpArticulationLink.obj
 0001:00023590       ?getGlobalInertiaTensorInverse@Body@Scb@physx@@QBE?AVPxMat33@3@XZ 10024590 f i NpArticulationLink.obj
 0001:000237f0       ?getInvMass@?$NpRigidBodyTemplate@VPxArticulationLink@physx@@@physx@@UBEMXZ 100247f0 f i NpArticulationLink.obj
 0001:00023820       ?getInverseMass@Body@Scb@physx@@QBEMXZ 10024820 f i NpArticulationLink.obj
 0001:00023850       ?getLinearVelocity@?$NpRigidBodyTemplate@VPxArticulationLink@physx@@@physx@@UBE?AVPxVec3@2@XZ 10024850 f i NpArticulationLink.obj
 0001:00023880       ?getMass@?$NpRigidBodyTemplate@VPxArticulationLink@physx@@@physx@@UBEMXZ 10024880 f i NpArticulationLink.obj
 0001:000238e0       ?getMassSpaceInertiaTensor@?$NpRigidBodyTemplate@VPxArticulationLink@physx@@@physx@@UBE?AVPxVec3@2@XZ 100248e0 f i NpArticulationLink.obj
 0001:00023970       ?getMassSpaceInvInertiaTensor@?$NpRigidBodyTemplate@VPxArticulationLink@physx@@@physx@@UBE?AVPxVec3@2@XZ 10024970 f i NpArticulationLink.obj
 0001:000239b0       ?getMaxContactImpulse@?$NpRigidBodyTemplate@VPxArticulationLink@physx@@@physx@@UBEMXZ 100249b0 f i NpArticulationLink.obj
 0001:000239f0       ?getMaxDepenetrationVelocity@?$NpRigidBodyTemplate@VPxArticulationLink@physx@@@physx@@UBEMXZ 100249f0 f i NpArticulationLink.obj
 0001:00023a40       ?getMinCCDAdvanceCoefficient@?$NpRigidBodyTemplate@VPxArticulationLink@physx@@@physx@@UBEMXZ 10024a40 f i NpArticulationLink.obj
 0001:00023a80       ?getName@?$NpActorTemplate@VPxArticulationLink@physx@@@physx@@UBEPBDXZ 10024a80 f i NpArticulationLink.obj
 0001:00023a90       ?getNbConstraints@?$NpRigidActorTemplate@VPxArticulationLink@physx@@@physx@@UBEIXZ 10024a90 f i NpArticulationLink.obj
 0001:00023aa0       ?getNbShapes@?$NpRigidActorTemplate@VPxArticulationLink@physx@@@physx@@UBEIXZ 10024aa0 f i NpArticulationLink.obj
 0001:00023ab0       ?getOwnerClient@?$NpActorTemplate@VPxArticulationLink@physx@@@physx@@UBEEXZ 10024ab0 f i NpArticulationLink.obj
 0001:00023ae0       ?getRigidBodyFlags@?$NpRigidBodyTemplate@VPxArticulationLink@physx@@@physx@@UBE?AV?$PxFlags@W4Enum@PxRigidBodyFlag@physx@@E@2@XZ 10024ae0 f i NpArticulationLink.obj
 0001:00023b10       ?getScene@?$NpActorTemplate@VPxArticulationLink@physx@@@physx@@UBEPAVPxScene@2@XZ 10024b10 f i NpArticulationLink.obj
 0001:00023b20       ?getShapes@?$NpRigidActorTemplate@VPxArticulationLink@physx@@@physx@@UBEIPAPAVPxShape@2@II@Z 10024b20 f i NpArticulationLink.obj
 0001:00023b30       ?getType@NpArticulationLink@physx@@UBE?AW4Enum@PxActorType@2@XZ 10024b30 f i NpArticulationLink.obj
 0001:00023b40       ?getWorldBounds@?$NpRigidActorTemplate@VPxArticulationLink@physx@@@physx@@UBE?AVPxBounds3@2@M@Z 10024b40 f i NpArticulationLink.obj
 0001:00023c50       ?growAndPushBack@?$Array@PAVNpArticulationLink@physx@@V?$InlineAllocator@$0BA@V?$ReflectionAllocator@PAVNpArticulationLink@physx@@@shdfnd@physx@@@shdfnd@2@@shdfnd@physx@@IAEAAPAVNpArticulationLink@3@ABQAV43@@Z 10024c50 f i NpArticulationLink.obj
 0001:00023d00       ?importExtraData@?$NpRigidActorTemplate@VPxArticulationLink@physx@@@physx@@QAEXAAVPxDeserializationContext@2@@Z 10024d00 f i NpArticulationLink.obj
 0001:00023d30       ?isKindOf@PxArticulationLink@physx@@MBE_NPBD@Z 10024d30 f i NpArticulationLink.obj
 0001:00023d90       ?isKindOf@PxRigidActor@physx@@MBE_NPBD@Z 10024d90 f i NpArticulationLink.obj
 0001:00023df0       ?isKindOf@PxRigidBody@physx@@MBE_NPBD@Z 10024df0 f i NpArticulationLink.obj
 0001:00023e80       ?isSubordinate@NpArticulationLink@physx@@UBE_NXZ 10024e80 f i NpArticulationLink.obj
 0001:00023e90       ?release@?$NpActorTemplate@VPxArticulationLink@physx@@@physx@@UAEXXZ 10024e90 f i NpArticulationLink.obj
 0001:00023ea0       ?release@?$NpRigidActorTemplate@VPxArticulationLink@physx@@@physx@@UAEXXZ 10024ea0 f i NpArticulationLink.obj
 0001:00023f00       ?removeFromChildList@NpArticulationLink@physx@@AAEXAAV12@@Z 10024f00 f i NpArticulationLink.obj
 0001:00023f50       ?requires@?$NpRigidActorTemplate@VPxArticulationLink@physx@@@physx@@UAEXAAVPxProcessPxBaseCallback@2@@Z 10024f50 f i NpArticulationLink.obj
 0001:00023fa0       ?resolveReferences@?$NpActorTemplate@VPxArticulationLink@physx@@@physx@@UAEXAAVPxDeserializationContext@2@@Z 10024fa0 f i NpArticulationLink.obj
 0001:00023fb0       ?resolveReferences@?$NpRigidActorTemplate@VPxArticulationLink@physx@@@physx@@UAEXAAVPxDeserializationContext@2@@Z 10024fb0 f i NpArticulationLink.obj
 0001:00024010       ?setActorFlag@?$NpActorTemplate@VPxArticulationLink@physx@@@physx@@UAEXW4Enum@PxActorFlag@2@_N@Z 10025010 f i NpArticulationLink.obj
 0001:000240c0       ?setActorFlag@?$NpRigidActorTemplate@VPxArticulationLink@physx@@@physx@@UAEXW4Enum@PxActorFlag@2@_N@Z 100250c0 f i NpArticulationLink.obj
 0001:00024230       ?setActorFlags@?$NpActorTemplate@VPxArticulationLink@physx@@@physx@@UAEXV?$PxFlags@W4Enum@PxActorFlag@physx@@E@2@@Z 10025230 f i NpArticulationLink.obj
 0001:00024260       ?setActorFlags@?$NpRigidActorTemplate@VPxArticulationLink@physx@@@physx@@UAEXV?$PxFlags@W4Enum@PxActorFlag@physx@@E@2@@Z 10025260 f i NpArticulationLink.obj
 0001:00024350       ?setBody2Actor@Body@Scb@physx@@QAEXABVPxTransform@3@@Z 10025350 f i NpArticulationLink.obj
 0001:00024400       ?setBody2World@Body@Scb@physx@@QAEXABVPxTransform@3@_N@Z 10025400 f i NpArticulationLink.obj
 0001:000244c0       ?setCMassLocalPoseInternal@?$NpRigidBodyTemplate@VPxArticulationLink@physx@@@physx@@IAEXABVPxTransform@2@@Z 100254c0 f i NpArticulationLink.obj
 0001:00024710       ?setClientBehaviorFlags@?$NpActorTemplate@VPxArticulationLink@physx@@@physx@@UAEXV?$PxFlags@W4Enum@PxActorClientBehaviorFlag@physx@@E@2@@Z 10025710 f i NpArticulationLink.obj
 0001:00024740       ?setClientBehaviorFlags@?$NpRigidActorTemplate@VPxArticulationLink@physx@@@physx@@UAEXV?$PxFlags@W4Enum@PxActorClientBehaviorFlag@physx@@E@2@@Z 10025740 f i NpArticulationLink.obj
 0001:00024790       ?setDominanceGroup@?$NpActorTemplate@VPxArticulationLink@physx@@@physx@@UAEXE@Z 10025790 f i NpArticulationLink.obj
 0001:000247b0       ?setFlags@Body@Scb@physx@@QAEXV?$PxFlags@W4Enum@PxRigidBodyFlag@physx@@E@3@@Z 100257b0 f i NpArticulationLink.obj
 0001:00024920       ?setInverseInertia@Body@Scb@physx@@QAEXABVPxVec3@3@@Z 10025920 f i NpArticulationLink.obj
 0001:000249a0       ?setInverseMass@Body@Scb@physx@@QAEXM@Z 100259a0 f i NpArticulationLink.obj
 0001:00024a20       ?setMass@?$NpRigidBodyTemplate@VPxArticulationLink@physx@@@physx@@UAEXM@Z 10025a20 f i NpArticulationLink.obj
 0001:00024a50       ?setMassSpaceInertiaTensor@?$NpRigidBodyTemplate@VPxArticulationLink@physx@@@physx@@UAEXABVPxVec3@2@@Z 10025a50 f i NpArticulationLink.obj
 0001:00024ad0       ?setMaxContactImpulse@?$NpRigidBodyTemplate@VPxArticulationLink@physx@@@physx@@UAEXM@Z 10025ad0 f i NpArticulationLink.obj
 0001:00024af0       ?setMaxContactImpulse@Body@Scb@physx@@QAEXM@Z 10025af0 f i NpArticulationLink.obj
 0001:00024b70       ?setMaxDepenetrationVelocity@?$NpRigidBodyTemplate@VPxArticulationLink@physx@@@physx@@UAEXM@Z 10025b70 f i NpArticulationLink.obj
 0001:00024bf0       ?setMinCCDAdvanceCoefficient@?$NpRigidBodyTemplate@VPxArticulationLink@physx@@@physx@@UAEXM@Z 10025bf0 f i NpArticulationLink.obj
 0001:00024c60       ?setName@?$NpActorTemplate@VPxArticulationLink@physx@@@physx@@UAEXPBD@Z 10025c60 f i NpArticulationLink.obj
 0001:00024c70       ?setOwnerClient@?$NpActorTemplate@VPxArticulationLink@physx@@@physx@@UAEXE@Z 10025c70 f i NpArticulationLink.obj
 0001:00024cd0       ?setRigidBodyFlag@?$NpRigidBodyTemplate@VPxArticulationLink@physx@@@physx@@UAEXW4Enum@PxRigidBodyFlag@2@_N@Z 10025cd0 f i NpArticulationLink.obj
 0001:00024fd0       ?setRigidBodyFlags@?$NpRigidBodyTemplate@VPxArticulationLink@physx@@@physx@@UAEXV?$PxFlags@W4Enum@PxRigidBodyFlag@physx@@E@2@@Z 10025fd0 f i NpArticulationLink.obj
 0001:000252a0       ?switchFromNoSim@?$NpRigidActorTemplate@VPxArticulationLink@physx@@@physx@@UAEXXZ 100262a0 f i NpArticulationLink.obj
 0001:000252b0       ?switchToNoSim@?$NpRigidActorTemplate@VPxArticulationLink@physx@@@physx@@UAEXXZ 100262b0 f i NpArticulationLink.obj
 0001:000252c0       ?updateShaderComs@?$NpRigidActorTemplate@VPxArticulationLink@physx@@@physx@@QAEXXZ 100262c0 f i NpArticulationLink.obj
 0001:00025310       ?visualize@?$NpRigidActorTemplate@VPxArticulationLink@physx@@@physx@@QAEXAAVRenderOutput@Cm@2@PAVNpScene@2@@Z 10026310 f i NpArticulationLink.obj
 0001:00025330       ?visualize@?$NpRigidBodyTemplate@VPxArticulationLink@physx@@@physx@@QAEXAAVRenderOutput@Cm@2@PAVNpScene@2@@Z 10026330 f i NpArticulationLink.obj
 0001:00025680       ?visualizeAngularLimit@ConstraintImmediateVisualizer@Cm@physx@@UAEXABVPxTransform@3@MM_N@Z 10026680 f i NpArticulationLink.obj
 0001:000256c0       ?visualizeDoubleCone@ConstraintImmediateVisualizer@Cm@physx@@UAEXABVPxTransform@3@M_N@Z 100266c0 f i NpArticulationLink.obj
 0001:000256f0       ?visualizeJointFrames@ConstraintImmediateVisualizer@Cm@physx@@UAEXABVPxTransform@3@0@Z 100266f0 f i NpArticulationLink.obj
 0001:00025720       ?visualizeLimitCone@ConstraintImmediateVisualizer@Cm@physx@@UAEXABVPxTransform@3@MM_N@Z 10026720 f i NpArticulationLink.obj
 0001:00025760       ?visualizeLinearLimit@ConstraintImmediateVisualizer@Cm@physx@@UAEXABVPxTransform@3@0M_N@Z 10026760 f i NpArticulationLink.obj
 0001:000257a0       ??0NpBatchQuery@physx@@QAE@AAVNpScene@1@ABVPxBatchQueryDesc@1@@Z 100267a0 f   NpBatchQuery.obj
 0001:00025840       ??1NpBatchQuery@physx@@UAE@XZ 10026840 f   NpBatchQuery.obj
 0001:000258a0       ?execute@NpBatchQuery@physx@@UAEXXZ 100268a0 f   NpBatchQuery.obj
 0001:00025cf0       ?release@NpBatchQuery@physx@@UAEXXZ 10026cf0 f   NpBatchQuery.obj
 0001:00025d40       ?getPreFilterShader@NpBatchQuery@physx@@UBEP6A?AW4Enum@PxQueryHitType@2@UPxFilterData@2@0PBXIAAV?$PxFlags@W4Enum@PxHitFlag@physx@@G@2@@ZXZ 10026d40 f   NpBatchQuery.obj
 0001:00025d50       ?getPostFilterShader@NpBatchQuery@physx@@UBEP6A?AW4Enum@PxQueryHitType@2@UPxFilterData@2@0PBXIABUPxQueryHit@2@@ZXZ 10026d50 f   NpBatchQuery.obj
 0001:00025d60       ?getFilterShaderData@NpBatchQuery@physx@@UBEPBXXZ 10026d60 f   NpBatchQuery.obj
 0001:00025d70       ?getFilterShaderDataSize@NpBatchQuery@physx@@UBEIXZ 10026d70 f   NpBatchQuery.obj
 0001:00025d80       ?getOwnerClient@NpBatchQuery@physx@@UBEEXZ 10026d80 f   NpBatchQuery.obj
 0001:00025d90       ?setUserMemory@NpBatchQuery@physx@@UAEXABUPxBatchQueryMemory@2@@Z 10026d90 f   NpBatchQuery.obj
 0001:00025df0       ?getUserMemory@NpBatchQuery@physx@@UAEABUPxBatchQueryMemory@2@XZ 10026df0 f   NpBatchQuery.obj
 0001:00025e00       ?raycast@NpBatchQuery@physx@@UAEXABVPxVec3@2@0MGV?$PxFlags@W4Enum@PxHitFlag@physx@@G@2@ABUPxQueryFilterData@2@PAXPBUPxQueryCache@2@@Z 10026e00 f   NpBatchQuery.obj
 0001:00025f00       ?overlap@NpBatchQuery@physx@@UAEXABVPxGeometry@2@ABVPxTransform@2@GABUPxQueryFilterData@2@PAXPBUPxQueryCache@2@@Z 10026f00 f   NpBatchQuery.obj
 0001:00025ff0       ?sweep@NpBatchQuery@physx@@UAEXABVPxGeometry@2@ABVPxTransform@2@ABVPxVec3@2@MGV?$PxFlags@W4Enum@PxHitFlag@physx@@G@2@ABUPxQueryFilterData@2@PAXPBUPxQueryCache@2@M@Z 10026ff0 f   NpBatchQuery.obj
 0001:000261b0       ?resetResultBuffers@NpBatchQuery@physx@@AAEXXZ 100271b0 f   NpBatchQuery.obj
 0001:00026290       ?finalizeExecute@NpBatchQuery@physx@@AAEXXZ 10027290 f   NpBatchQuery.obj
 0001:000262d0       ?writeBatchHeader@NpBatchQuery@physx@@AAEXABUBatchStreamHeader@2@@Z 100272d0 f   NpBatchQuery.obj
 0001:00026380       ??$writeStatus@U?$PxBatchQueryResult@UPxOverlapHit@physx@@@physx@@UPxOverlapHit@2@@@YAXPAU?$PxBatchQueryResult@UPxOverlapHit@physx@@@physx@@ABU?$PxHitBuffer@UPxOverlapHit@physx@@@1@PAX_N@Z 10027380 f i NpBatchQuery.obj
 0001:000263d0       ??$writeStatus@U?$PxBatchQueryResult@UPxRaycastHit@physx@@@physx@@UPxRaycastHit@2@@@YAXPAU?$PxBatchQueryResult@UPxRaycastHit@physx@@@physx@@ABU?$PxHitBuffer@UPxRaycastHit@physx@@@1@PAX_N@Z 100273d0 f i NpBatchQuery.obj
 0001:00026430       ??$writeStatus@U?$PxBatchQueryResult@UPxSweepHit@physx@@@physx@@UPxSweepHit@2@@@YAXPAU?$PxBatchQueryResult@UPxSweepHit@physx@@@physx@@ABU?$PxHitBuffer@UPxSweepHit@physx@@@1@PAX_N@Z 10027430 f i NpBatchQuery.obj
 0001:000264c0       ??0?$PxOverflowBuffer@UPxRaycastHit@physx@@@@QAE@PAUPxRaycastHit@physx@@I@Z 100274c0 f i NpBatchQuery.obj
 0001:00026570       ??0?$PxOverflowBuffer@UPxSweepHit@physx@@@@QAE@PAUPxSweepHit@physx@@I@Z 10027570 f i NpBatchQuery.obj
 0001:00026610       ??0?$SyncT@V?$ReflectionAllocator@VSyncImpl@shdfnd@physx@@@shdfnd@physx@@@shdfnd@physx@@QAE@ABV?$ReflectionAllocator@VSyncImpl@shdfnd@physx@@@12@@Z 10027610 f i NpBatchQuery.obj
 0001:00026680       ??1?$PxHitBuffer@UPxOverlapHit@physx@@@physx@@UAE@XZ 10027680 f i NpBatchQuery.obj
 0001:00026690       ??1?$PxHitBuffer@UPxRaycastHit@physx@@@physx@@UAE@XZ 10027690 f i NpBatchQuery.obj
 0001:000266a0       ??1?$PxHitBuffer@UPxSweepHit@physx@@@physx@@UAE@XZ 100276a0 f i NpBatchQuery.obj
 0001:000266b0       ??1?$PxHitCallback@UPxOverlapHit@physx@@@physx@@UAE@XZ 100276b0 f i NpBatchQuery.obj
 0001:000266c0       ??1?$PxHitCallback@UPxRaycastHit@physx@@@physx@@UAE@XZ 100276c0 f i NpBatchQuery.obj
 0001:000266d0       ??1?$PxHitCallback@UPxSweepHit@physx@@@physx@@UAE@XZ 100276d0 f i NpBatchQuery.obj
 0001:000266e0       ??1PxBatchQuery@physx@@MAE@XZ 100276e0 f i NpBatchQuery.obj
 0001:000266f0       ??4PxRaycastHit@physx@@QAEAAU01@ABU01@@Z 100276f0 f i NpBatchQuery.obj
 0001:00026760       ??_G?$PxHitBuffer@UPxOverlapHit@physx@@@physx@@UAEPAXI@Z 10027760 f i NpBatchQuery.obj
 0001:00026760       ??_E?$PxHitBuffer@UPxOverlapHit@physx@@@physx@@UAEPAXI@Z 10027760 f i NpBatchQuery.obj
 0001:00026790       ??_E?$PxHitBuffer@UPxRaycastHit@physx@@@physx@@UAEPAXI@Z 10027790 f i NpBatchQuery.obj
 0001:00026790       ??_G?$PxHitBuffer@UPxRaycastHit@physx@@@physx@@UAEPAXI@Z 10027790 f i NpBatchQuery.obj
 0001:000267c0       ??_G?$PxHitBuffer@UPxSweepHit@physx@@@physx@@UAEPAXI@Z 100277c0 f i NpBatchQuery.obj
 0001:000267c0       ??_E?$PxHitBuffer@UPxSweepHit@physx@@@physx@@UAEPAXI@Z 100277c0 f i NpBatchQuery.obj
 0001:000267f0       ??_E?$PxHitCallback@UPxOverlapHit@physx@@@physx@@UAEPAXI@Z 100277f0 f i NpBatchQuery.obj
 0001:000267f0       ??_G?$PxHitCallback@UPxOverlapHit@physx@@@physx@@UAEPAXI@Z 100277f0 f i NpBatchQuery.obj
 0001:00026820       ??_E?$PxHitCallback@UPxRaycastHit@physx@@@physx@@UAEPAXI@Z 10027820 f i NpBatchQuery.obj
 0001:00026820       ??_G?$PxHitCallback@UPxRaycastHit@physx@@@physx@@UAEPAXI@Z 10027820 f i NpBatchQuery.obj
 0001:00026850       ??_G?$PxHitCallback@UPxSweepHit@physx@@@physx@@UAEPAXI@Z 10027850 f i NpBatchQuery.obj
 0001:00026850       ??_E?$PxHitCallback@UPxSweepHit@physx@@@physx@@UAEPAXI@Z 10027850 f i NpBatchQuery.obj
 0001:00026880       ??_E?$PxOverflowBuffer@UPxOverlapHit@physx@@@@UAEPAXI@Z 10027880 f i NpBatchQuery.obj
 0001:00026880       ??_G?$PxOverflowBuffer@UPxOverlapHit@physx@@@@UAEPAXI@Z 10027880 f i NpBatchQuery.obj
 0001:000268b0       ??_G?$PxOverflowBuffer@UPxRaycastHit@physx@@@@UAEPAXI@Z 100278b0 f i NpBatchQuery.obj
 0001:000268b0       ??_E?$PxOverflowBuffer@UPxRaycastHit@physx@@@@UAEPAXI@Z 100278b0 f i NpBatchQuery.obj
 0001:000268e0       ??_E?$PxOverflowBuffer@UPxSweepHit@physx@@@@UAEPAXI@Z 100278e0 f i NpBatchQuery.obj
 0001:000268e0       ??_G?$PxOverflowBuffer@UPxSweepHit@physx@@@@UAEPAXI@Z 100278e0 f i NpBatchQuery.obj
 0001:00026910       ??_GNpBatchQuery@physx@@UAEPAXI@Z 10027910 f i NpBatchQuery.obj
 0001:00026910       ??_ENpBatchQuery@physx@@UAEPAXI@Z 10027910 f i NpBatchQuery.obj
 0001:000269a0       ??_GPxBatchQuery@physx@@MAEPAXI@Z 100279a0 f i NpBatchQuery.obj
 0001:000269a0       ??_EPxBatchQuery@physx@@MAEPAXI@Z 100279a0 f i NpBatchQuery.obj
 0001:000269d0       ?allocate@?$Array@DV?$ReflectionAllocator@D@shdfnd@physx@@@shdfnd@physx@@IAEPADI@Z 100279d0 f i NpBatchQuery.obj
 0001:00026a30       ?finalizeQuery@?$PxHitCallback@UPxOverlapHit@physx@@@physx@@UAEXXZ 10027a30 f i NpBatchQuery.obj
 0001:00026a40       ?finalizeQuery@?$PxHitCallback@UPxRaycastHit@physx@@@physx@@UAEXXZ 10027a40 f i NpBatchQuery.obj
 0001:00026a50       ?finalizeQuery@?$PxHitCallback@UPxSweepHit@physx@@@physx@@UAEXXZ 10027a50 f i NpBatchQuery.obj
 0001:00026a60       ?finalizeQuery@?$PxOverflowBuffer@UPxOverlapHit@physx@@@@UAEXXZ 10027a60 f i NpBatchQuery.obj
 0001:00026a80       ?finalizeQuery@?$PxOverflowBuffer@UPxRaycastHit@physx@@@@UAEXXZ 10027a80 f i NpBatchQuery.obj
 0001:00026ab0       ?finalizeQuery@?$PxOverflowBuffer@UPxSweepHit@physx@@@@UAEXXZ 10027ab0 f i NpBatchQuery.obj
 0001:00026ad0       ?getDesc@NpBatchQuery@physx@@UBEABVPxBatchQueryDesc@2@XZ 10027ad0 f i NpBatchQuery.obj
 0001:00026ae0       ?processTouches@?$PxHitBuffer@UPxOverlapHit@physx@@@physx@@MAE_NPBUPxOverlapHit@2@I@Z 10027ae0 f i NpBatchQuery.obj
 0001:00026af0       ?processTouches@?$PxHitBuffer@UPxRaycastHit@physx@@@physx@@MAE_NPBUPxRaycastHit@2@I@Z 10027af0 f i NpBatchQuery.obj
 0001:00026b00       ?processTouches@?$PxHitBuffer@UPxSweepHit@physx@@@physx@@MAE_NPBUPxSweepHit@2@I@Z 10027b00 f i NpBatchQuery.obj
 0001:00026b10       ?processTouches@?$PxOverflowBuffer@UPxOverlapHit@physx@@@@UAE_NPBUPxOverlapHit@physx@@I@Z 10027b10 f i NpBatchQuery.obj
 0001:00026b40       ?processTouches@?$PxOverflowBuffer@UPxRaycastHit@physx@@@@UAE_NPBUPxRaycastHit@physx@@I@Z 10027b40 f i NpBatchQuery.obj
 0001:00026b80       ?processTouches@?$PxOverflowBuffer@UPxSweepHit@physx@@@@UAE_NPBUPxSweepHit@physx@@I@Z 10027b80 f i NpBatchQuery.obj
 0001:00026cb0       ?recreate@?$Array@DV?$ReflectionAllocator@D@shdfnd@physx@@@shdfnd@physx@@IAEXI@Z 10027cb0 f i NpBatchQuery.obj
 0001:00026d10       ?resizeUninitialized@?$Array@DV?$ReflectionAllocator@D@shdfnd@physx@@@shdfnd@physx@@QAEXI@Z 10027d10 f i NpBatchQuery.obj
 0001:00027060       ?NpConstraintGetRigidObjectsFromScb@physx@@YAXABVConstraint@Scb@1@AAPAVRigidObject@31@1@Z 10028060 f   NpConstraint.obj
 0001:000270b0       ?setConstraintFunctions@NpConstraint@physx@@UAEXAAVPxConstraintConnector@2@ABUPxConstraintShaderTable@2@@Z 100280b0 f   NpConstraint.obj
 0001:00027250       ?createObject@NpConstraint@physx@@SAPAV12@AAPAEAAVPxDeserializationContext@2@@Z 10028250 f   NpConstraint.obj
 0001:000272d0       ?resolveReferences@NpConstraint@physx@@QAEXAAVPxDeserializationContext@2@@Z 100282d0 f   NpConstraint.obj
 0001:00027310       ??0NpConstraint@physx@@QAE@PAVPxRigidActor@1@0AAVPxConstraintConnector@1@ABUPxConstraintShaderTable@1@I@Z 10028310 f   NpConstraint.obj
 0001:00027440       ??1NpConstraint@physx@@UAE@XZ 10028440 f   NpConstraint.obj
 0001:00027480       ?release@NpConstraint@physx@@UAEXXZ 10028480 f   NpConstraint.obj
 0001:00027550       ?getScene@NpConstraint@physx@@UBEPAVPxScene@2@XZ 10028550 f   NpConstraint.obj
 0001:00027590       ?getActors@NpConstraint@physx@@UBEXAAPAVPxRigidActor@2@0@Z 10028590 f   NpConstraint.obj
 0001:000275b0       ?setActors@NpConstraint@physx@@UAEXPAVPxRigidActor@2@0@Z 100285b0 f   NpConstraint.obj
 0001:00027800       ?getFlags@NpConstraint@physx@@UBE?AV?$PxFlags@W4Enum@PxConstraintFlag@physx@@G@2@XZ 10028800 f   NpConstraint.obj
 0001:00027840       ?setFlags@NpConstraint@physx@@UAEXV?$PxFlags@W4Enum@PxConstraintFlag@physx@@G@2@@Z 10028840 f   NpConstraint.obj
 0001:00027880       ?setFlag@NpConstraint@physx@@UAEXW4Enum@PxConstraintFlag@2@_N@Z 10028880 f   NpConstraint.obj
 0001:00027920       ?getForce@NpConstraint@physx@@UBEXAAVPxVec3@2@0@Z 10028920 f   NpConstraint.obj
 0001:00027960       ?markDirty@NpConstraint@physx@@UAEXXZ 10028960 f   NpConstraint.obj
 0001:00027970       ?setBreakForce@NpConstraint@physx@@UAEXMM@Z 10028970 f   NpConstraint.obj
 0001:000279c0       ?getBreakForce@NpConstraint@physx@@UBEXAAM0@Z 100289c0 f   NpConstraint.obj
 0001:00027a20       ?setMinResponseThreshold@NpConstraint@physx@@UAEXM@Z 10028a20 f   NpConstraint.obj
 0001:00027ac0       ?getMinResponseThreshold@NpConstraint@physx@@UBEMXZ 10028ac0 f   NpConstraint.obj
 0001:00027b10       ?isValid@NpConstraint@physx@@UBE_NXZ 10028b10 f   NpConstraint.obj
 0001:00027b60       ?getExternalReference@NpConstraint@physx@@UAEPAXAAI@Z 10028b60 f   NpConstraint.obj
 0001:00027b70       ?updateConstants@NpConstraint@physx@@QAEXXZ 10028b70 f   NpConstraint.obj
 0001:00027ba0       ?comShift@NpConstraint@physx@@QAEXPAVPxRigidActor@2@@Z 10028ba0 f   NpConstraint.obj
 0001:00027be0       ?actorDeleted@NpConstraint@physx@@QAEXPAVPxRigidActor@2@@Z 10028be0 f   NpConstraint.obj
 0001:00027c10       ?getNpScene@NpConstraint@physx@@QBEPAVNpScene@2@XZ 10028c10 f   NpConstraint.obj
 0001:00027c50       ?getSceneFromActors@NpConstraint@physx@@QBEPAVNpScene@2@XZ 10028c50 f   NpConstraint.obj
 0001:00027cd0       ?getScbRigidObject@NpConstraint@physx@@SAPAVRigidObject@Scb@2@PAVPxRigidActor@2@@Z 10028cd0 f   NpConstraint.obj
 0001:00027cf0       ??0Constraint@Scb@physx@@QAE@AAVPxConstraintConnector@2@ABUPxConstraintShaderTable@2@I@Z 10028cf0 f i NpConstraint.obj
 0001:00027d70       ??1PxConstraint@physx@@MAE@XZ 10028d70 f i NpConstraint.obj
 0001:00027d80       ??_ENpConstraint@physx@@UAEPAXI@Z 10028d80 f i NpConstraint.obj
 0001:00027d80       ??_GNpConstraint@physx@@UAEPAXI@Z 10028d80 f i NpConstraint.obj
 0001:00027df0       ??_EPxConstraint@physx@@MAEPAXI@Z 10028df0 f i NpConstraint.obj
 0001:00027df0       ??_GPxConstraint@physx@@MAEPAXI@Z 10028df0 f i NpConstraint.obj
 0001:00027e20       ?getConcreteTypeName@PxConstraint@physx@@UBEPBDXZ 10028e20 f i NpConstraint.obj
 0001:00027e30       ?isKindOf@PxConstraint@physx@@MBE_NPBD@Z 10028e30 f i NpConstraint.obj
 0001:00027eb0       ?isSubordinate@NpConstraint@physx@@UBE_NXZ 10028eb0 f i NpConstraint.obj
 0001:00027ec0       ?requires@NpConstraint@physx@@UAEXAAVPxProcessPxBaseCallback@2@@Z 10028ec0 f i NpConstraint.obj
 0001:00027ed0       ?setBodies@Constraint@Scb@physx@@QAEXPAVRigidObject@23@0@Z 10028ed0 f i NpConstraint.obj
 0001:00027fa0       ?setBreakForce@Constraint@Scb@physx@@QAEXMM@Z 10028fa0 f i NpConstraint.obj
 0001:00028030       ?setFlags@Constraint@Scb@physx@@QAEXV?$PxFlags@W4Enum@PxConstraintFlag@physx@@G@3@@Z 10029030 f i NpConstraint.obj
 0001:000280a0       ??0NpFactory@physx@@QAE@XZ 100290a0 f   NpFactory.obj
 0001:000284e0       ??1NpFactory@physx@@EAE@XZ 100294e0 f   NpFactory.obj
 0001:00028830       ?createInstance@NpFactory@physx@@SAXXZ 10029830 f   NpFactory.obj
 0001:000288a0       ?destroyInstance@NpFactory@physx@@SAXXZ 100298a0 f   NpFactory.obj
 0001:000288c0       ?registerArticulations@NpFactory@physx@@SAXXZ 100298c0 f   NpFactory.obj
 0001:000288e0       ?registerCloth@NpFactory@physx@@SAXXZ 100298e0 f   NpFactory.obj
 0001:00028910       ?registerParticles@NpFactory@physx@@SAXXZ 10029910 f   NpFactory.obj
 0001:00028930       ?release@NpFactory@physx@@QAEXXZ 10029930 f   NpFactory.obj
 0001:000289b0       ?addCollection@NpFactory@physx@@QAEXABVCollection@Cm@2@@Z 100299b0 f   NpFactory.obj
 0001:00028c50       ?createRigidDynamic@NpFactory@physx@@QAEPAVPxRigidDynamic@2@ABVPxTransform@2@@Z 10029c50 f   NpFactory.obj
 0001:00028cf0       ?addRigidDynamic@NpFactory@physx@@QAEXPAVPxRigidDynamic@2@_N@Z 10029cf0 f   NpFactory.obj
 0001:00028d50       ?releaseRigidDynamicToPool@NpFactory@physx@@QAEXAAVNpRigidDynamic@2@@Z 10029d50 f   NpFactory.obj
 0001:00028da0       ?createRigidStatic@NpFactory@physx@@QAEPAVPxRigidStatic@2@ABVPxTransform@2@@Z 10029da0 f   NpFactory.obj
 0001:00028e40       ?addRigidStatic@NpFactory@physx@@QAEXPAVPxRigidStatic@2@_N@Z 10029e40 f   NpFactory.obj
 0001:00028ea0       ?releaseRigidStaticToPool@NpFactory@physx@@QAEXAAVNpRigidStatic@2@@Z 10029ea0 f   NpFactory.obj
 0001:00028ef0       ?createShape@NpFactory@physx@@QAEPAVNpShape@2@ABVPxGeometry@2@V?$PxFlags@W4Enum@PxShapeFlag@physx@@E@2@PBQAVPxMaterial@2@G_N@Z 10029ef0 f   NpFactory.obj
 0001:000290d0       ?addShape@NpFactory@physx@@QAEXPAVPxShape@2@_N@Z 1002a0d0 f   NpFactory.obj
 0001:00029130       ?releaseShapeToPool@NpFactory@physx@@QAEXAAVNpShape@2@@Z 1002a130 f   NpFactory.obj
 0001:00029180       ?getNbShapes@NpFactory@physx@@QBEIXZ 1002a180 f   NpFactory.obj
 0001:00029190       ?getShapes@NpFactory@physx@@QBEIPAPAVPxShape@2@II@Z 1002a190 f   NpFactory.obj
 0001:000291e0       ?addConstraint@NpFactory@physx@@QAEXPAVPxConstraint@2@_N@Z 1002a1e0 f   NpFactory.obj
 0001:00029240       ?createConstraint@NpFactory@physx@@QAEPAVPxConstraint@2@PAVPxRigidActor@2@0AAVPxConstraintConnector@2@ABUPxConstraintShaderTable@2@I@Z 1002a240 f   NpFactory.obj
 0001:000292f0       ?releaseConstraintToPool@NpFactory@physx@@QAEXAAVNpConstraint@2@@Z 1002a2f0 f   NpFactory.obj
 0001:00029340       ?addArticulation@NpFactory@physx@@QAEXPAVPxArticulation@2@_N@Z 1002a340 f   NpFactory.obj
 0001:000293a0       ?createArticulation@NpFactory@physx@@QAEPAVPxArticulation@2@XZ 1002a3a0 f   NpFactory.obj
 0001:00029420       ?createNpArticulation@NpFactory@physx@@QAEPAVNpArticulation@2@XZ 1002a420 f   NpFactory.obj
 0001:00029490       ?releaseArticulationToPool@NpFactory@physx@@QAEXAAVNpArticulation@2@@Z 1002a490 f   NpFactory.obj
 0001:000294e0       ?createNpArticulationLink@NpFactory@physx@@QAEPAVNpArticulationLink@2@AAVNpArticulation@2@PAV32@ABVPxTransform@2@@Z 1002a4e0 f   NpFactory.obj
 0001:00029560       ?releaseArticulationLinkToPool@NpFactory@physx@@QAEXAAVNpArticulationLink@2@@Z 1002a560 f   NpFactory.obj
 0001:000295b0       ?createArticulationLink@NpFactory@physx@@QAEPAVPxArticulationLink@2@AAVNpArticulation@2@PAVNpArticulationLink@2@ABVPxTransform@2@@Z 1002a5b0 f   NpFactory.obj
 0001:00029600       ?createNpArticulationJoint@NpFactory@physx@@QAEPAVNpArticulationJoint@2@AAVNpArticulationLink@2@ABVPxTransform@2@01@Z 1002a600 f   NpFactory.obj
 0001:00029680       ?releaseArticulationJointToPool@NpFactory@physx@@QAEXAAVNpArticulationJoint@2@@Z 1002a680 f   NpFactory.obj
 0001:000296d0       ?addAggregate@NpFactory@physx@@QAEXPAVPxAggregate@2@_N@Z 1002a6d0 f   NpFactory.obj
 0001:00029730       ?createAggregate@NpFactory@physx@@QAEPAVPxAggregate@2@I_N@Z 1002a730 f   NpFactory.obj
 0001:000297d0       ?releaseAggregateToPool@NpFactory@physx@@QAEXAAVNpAggregate@2@@Z 1002a7d0 f   NpFactory.obj
 0001:00029820       ?createNpParticleSystem@NpFactory@physx@@QAEPAVNpParticleSystem@2@I_N@Z 1002a820 f   NpFactory.obj
 0001:000298a0       ?releaseParticleSystemToPool@NpFactory@physx@@QAEXAAVNpParticleSystem@2@@Z 1002a8a0 f   NpFactory.obj
 0001:000298f0       ?createNpParticleFluid@NpFactory@physx@@QAEPAVNpParticleFluid@2@I_N@Z 1002a8f0 f   NpFactory.obj
 0001:00029970       ?releaseParticleFluidToPool@NpFactory@physx@@QAEXAAVNpParticleFluid@2@@Z 1002a970 f   NpFactory.obj
 0001:000299c0       ?addParticleSystem@NpFactory@physx@@QAEXPAVPxParticleSystem@2@_N@Z 1002a9c0 f   NpFactory.obj
 0001:00029a20       ?createParticleSystem@NpFactory@physx@@QAEPAVPxParticleSystem@2@I_N@Z 1002aa20 f   NpFactory.obj
 0001:00029ad0       ?addParticleFluid@NpFactory@physx@@QAEXPAVPxParticleFluid@2@_N@Z 1002aad0 f   NpFactory.obj
 0001:00029b30       ?createParticleFluid@NpFactory@physx@@QAEPAVPxParticleFluid@2@I_N@Z 1002ab30 f   NpFactory.obj
 0001:00029be0       ?createNpCloth@NpFactory@physx@@QAEPAVNpCloth@2@ABVPxTransform@2@AAVPxClothFabric@2@PBUPxClothParticle@2@V?$PxFlags@W4Enum@PxClothFlag@physx@@G@2@@Z 1002abe0 f   NpFactory.obj
 0001:00029c70       ?releaseClothToPool@NpFactory@physx@@QAEXAAVNpCloth@2@@Z 1002ac70 f   NpFactory.obj
 0001:00029cc0       ?addCloth@NpFactory@physx@@QAEXPAVPxCloth@2@_N@Z 1002acc0 f   NpFactory.obj
 0001:00029d20       ?addClothFabric@NpFactory@physx@@QAEXPAVNpClothFabric@2@_N@Z 1002ad20 f   NpFactory.obj
 0001:00029e10       ?createClothFabric@NpFactory@physx@@QAEPAVPxClothFabric@2@AAVPxInputStream@2@@Z 1002ae10 f   NpFactory.obj
 0001:00029e70       ?createClothFabric@NpFactory@physx@@QAEPAVPxClothFabric@2@ABVPxClothFabricDesc@2@@Z 1002ae70 f   NpFactory.obj
 0001:00029ed0       ?createNpClothFabric@NpFactory@physx@@QAEPAVNpClothFabric@2@XZ 1002aed0 f   NpFactory.obj
 0001:00029f40       ?releaseClothFabricToPool@NpFactory@physx@@QAEXAAVNpClothFabric@2@@Z 1002af40 f   NpFactory.obj
 0001:00029f90       ?removeClothFabric@NpFactory@physx@@QAE_NAAVPxClothFabric@2@@Z 1002af90 f   NpFactory.obj
 0001:0002a010       ?getNbClothFabrics@NpFactory@physx@@QBEIXZ 1002b010 f   NpFactory.obj
 0001:0002a020       ?getClothFabrics@NpFactory@physx@@QBEIPAPAVPxClothFabric@2@I@Z 1002b020 f   NpFactory.obj
 0001:0002a060       ?createCloth@NpFactory@physx@@QAEPAVPxCloth@2@ABVPxTransform@2@AAVPxClothFabric@2@PBUPxClothParticle@2@V?$PxFlags@W4Enum@PxClothFlag@physx@@G@2@@Z 1002b060 f   NpFactory.obj
 0001:0002a110       ?createMaterial@NpFactory@physx@@QAEPAVPxMaterial@2@MMM@Z 1002b110 f   NpFactory.obj
 0001:0002a190       ?releaseMaterialToPool@NpFactory@physx@@QAEXAAVNpMaterial@2@@Z 1002b190 f   NpFactory.obj
 0001:0002a1e0       ?onActorRelease@NpFactory@physx@@QAEXPAVPxActor@2@@Z 1002b1e0 f   NpFactory.obj
 0001:0002a210       ?onConstraintRelease@NpFactory@physx@@QAEXPAVPxConstraint@2@@Z 1002b210 f   NpFactory.obj
 0001:0002a240       ?onAggregateRelease@NpFactory@physx@@QAEXPAVPxAggregate@2@@Z 1002b240 f   NpFactory.obj
 0001:0002a270       ?onArticulationRelease@NpFactory@physx@@QAEXPAVPxArticulation@2@@Z 1002b270 f   NpFactory.obj
 0001:0002a2a0       ?onShapeRelease@NpFactory@physx@@QAEXPAVPxShape@2@@Z 1002b2a0 f   NpFactory.obj
 0001:0002a2d0       ?acquireConnectorArray@NpFactory@physx@@QAEPAVNpConnectorArray@2@XZ 1002b2d0 f   NpFactory.obj
 0001:0002a300       ?releaseConnectorArray@NpFactory@physx@@QAEXPAVNpConnectorArray@2@@Z 1002b300 f   NpFactory.obj
 0001:0002a370       ?notifyReleaseTriangleMesh@NpFactory@physx@@EAEXABVPxTriangleMesh@2@@Z 1002b370 f   NpFactory.obj
 0001:0002a3a0       ?notifyReleaseHeightField@NpFactory@physx@@EAEXABVPxHeightField@2@@Z 1002b3a0 f   NpFactory.obj
 0001:0002a3d0       ?notifyReleaseConvexMesh@NpFactory@physx@@EAEXABVPxConvexMesh@2@@Z 1002b3d0 f   NpFactory.obj
 0001:0002a400       ?NpDestroy@physx@@YAXAAVBase@Scb@1@@Z 1002b400 f   NpFactory.obj
 0001:0002a920       ??$construct@UPxsMaterialData@physx@@@?$PoolBase@VNpMaterial@physx@@V?$ReflectionAllocator@VNpMaterial@physx@@@shdfnd@2@@shdfnd@physx@@QAEPAVNpMaterial@2@AAUPxsMaterialData@2@@Z 1002b920 f i NpFactory.obj
 0001:0002ad70       ??$sort@PAXU?$Less@PAX@shdfnd@physx@@V?$ReflectionAllocator@V?$PtrBlock@$03@NpPtrTableStorageManager@physx@@@23@@shdfnd@physx@@YAXPAPAXIABU?$Less@PAX@01@ABV?$ReflectionAllocator@V?$PtrBlock@$03@NpPtrTableStorageManager@physx@@@01@I@Z 1002bd70 f i NpFactory.obj
 0001:0002aee0       ??$sort@PAXU?$Less@PAX@shdfnd@physx@@V?$ReflectionAllocator@V?$PtrBlock@$0BA@@NpPtrTableStorageManager@physx@@@23@@shdfnd@physx@@YAXPAPAXIABU?$Less@PAX@01@ABV?$ReflectionAllocator@V?$PtrBlock@$0BA@@NpPtrTableStorageManager@physx@@@01@I@Z 1002bee0 f i NpFactory.obj
 0001:0002b050       ??$sort@PAXU?$Less@PAX@shdfnd@physx@@V?$ReflectionAllocator@V?$PtrBlock@$0EA@@NpPtrTableStorageManager@physx@@@23@@shdfnd@physx@@YAXPAPAXIABU?$Less@PAX@01@ABV?$ReflectionAllocator@V?$PtrBlock@$0EA@@NpPtrTableStorageManager@physx@@@01@I@Z 1002c050 f i NpFactory.obj
 0001:0002b1c0       ??$sort@PAXU?$Less@PAX@shdfnd@physx@@V?$ReflectionAllocator@VNpAggregate@physx@@@23@@shdfnd@physx@@YAXPAPAXIABU?$Less@PAX@01@ABV?$ReflectionAllocator@VNpAggregate@physx@@@01@I@Z 1002c1c0 f i NpFactory.obj
 0001:0002b330       ??$sort@PAXU?$Less@PAX@shdfnd@physx@@V?$ReflectionAllocator@VNpArticulation@physx@@@23@@shdfnd@physx@@YAXPAPAXIABU?$Less@PAX@01@ABV?$ReflectionAllocator@VNpArticulation@physx@@@01@I@Z 1002c330 f i NpFactory.obj
 0001:0002b4a0       ??$sort@PAXU?$Less@PAX@shdfnd@physx@@V?$ReflectionAllocator@VNpArticulationJoint@physx@@@23@@shdfnd@physx@@YAXPAPAXIABU?$Less@PAX@01@ABV?$ReflectionAllocator@VNpArticulationJoint@physx@@@01@I@Z 1002c4a0 f i NpFactory.obj
 0001:0002b610       ??$sort@PAXU?$Less@PAX@shdfnd@physx@@V?$ReflectionAllocator@VNpArticulationLink@physx@@@23@@shdfnd@physx@@YAXPAPAXIABU?$Less@PAX@01@ABV?$ReflectionAllocator@VNpArticulationLink@physx@@@01@I@Z 1002c610 f i NpFactory.obj
 0001:0002b780       ??$sort@PAXU?$Less@PAX@shdfnd@physx@@V?$ReflectionAllocator@VNpCloth@physx@@@23@@shdfnd@physx@@YAXPAPAXIABU?$Less@PAX@01@ABV?$ReflectionAllocator@VNpCloth@physx@@@01@I@Z 1002c780 f i NpFactory.obj
 0001:0002b8f0       ??$sort@PAXU?$Less@PAX@shdfnd@physx@@V?$ReflectionAllocator@VNpClothFabric@physx@@@23@@shdfnd@physx@@YAXPAPAXIABU?$Less@PAX@01@ABV?$ReflectionAllocator@VNpClothFabric@physx@@@01@I@Z 1002c8f0 f i NpFactory.obj
 0001:0002ba60       ??$sort@PAXU?$Less@PAX@shdfnd@physx@@V?$ReflectionAllocator@VNpConnectorArray@physx@@@23@@shdfnd@physx@@YAXPAPAXIABU?$Less@PAX@01@ABV?$ReflectionAllocator@VNpConnectorArray@physx@@@01@I@Z 1002ca60 f i NpFactory.obj
 0001:0002bbd0       ??$sort@PAXU?$Less@PAX@shdfnd@physx@@V?$ReflectionAllocator@VNpConstraint@physx@@@23@@shdfnd@physx@@YAXPAPAXIABU?$Less@PAX@01@ABV?$ReflectionAllocator@VNpConstraint@physx@@@01@I@Z 1002cbd0 f i NpFactory.obj
 0001:0002bd40       ??$sort@PAXU?$Less@PAX@shdfnd@physx@@V?$ReflectionAllocator@VNpMaterial@physx@@@23@@shdfnd@physx@@YAXPAPAXIABU?$Less@PAX@01@ABV?$ReflectionAllocator@VNpMaterial@physx@@@01@I@Z 1002cd40 f i NpFactory.obj
 0001:0002beb0       ??$sort@PAXU?$Less@PAX@shdfnd@physx@@V?$ReflectionAllocator@VNpParticleFluid@physx@@@23@@shdfnd@physx@@YAXPAPAXIABU?$Less@PAX@01@ABV?$ReflectionAllocator@VNpParticleFluid@physx@@@01@I@Z 1002ceb0 f i NpFactory.obj
 0001:0002c020       ??$sort@PAXU?$Less@PAX@shdfnd@physx@@V?$ReflectionAllocator@VNpParticleSystem@physx@@@23@@shdfnd@physx@@YAXPAPAXIABU?$Less@PAX@01@ABV?$ReflectionAllocator@VNpParticleSystem@physx@@@01@I@Z 1002d020 f i NpFactory.obj
 0001:0002c190       ??$sort@PAXU?$Less@PAX@shdfnd@physx@@V?$ReflectionAllocator@VNpRigidDynamic@physx@@@23@@shdfnd@physx@@YAXPAPAXIABU?$Less@PAX@01@ABV?$ReflectionAllocator@VNpRigidDynamic@physx@@@01@I@Z 1002d190 f i NpFactory.obj
 0001:0002c300       ??$sort@PAXU?$Less@PAX@shdfnd@physx@@V?$ReflectionAllocator@VNpRigidStatic@physx@@@23@@shdfnd@physx@@YAXPAPAXIABU?$Less@PAX@01@ABV?$ReflectionAllocator@VNpRigidStatic@physx@@@01@I@Z 1002d300 f i NpFactory.obj
 0001:0002c470       ??$sort@PAXU?$Less@PAX@shdfnd@physx@@V?$ReflectionAllocator@VNpShape@physx@@@23@@shdfnd@physx@@YAXPAPAXIABU?$Less@PAX@01@ABV?$ReflectionAllocator@VNpShape@physx@@@01@I@Z 1002d470 f i NpFactory.obj
 0001:0002c5e0       ??0?$PoolBase@V?$PtrBlock@$03@NpPtrTableStorageManager@physx@@V?$ReflectionAllocator@V?$PtrBlock@$03@NpPtrTableStorageManager@physx@@@shdfnd@3@@shdfnd@physx@@IAE@ABV?$ReflectionAllocator@V?$PtrBlock@$03@NpPtrTableStorageManager@physx@@@12@II@Z 1002d5e0 f i NpFactory.obj
 0001:0002c670       ??0?$PoolBase@V?$PtrBlock@$0BA@@NpPtrTableStorageManager@physx@@V?$ReflectionAllocator@V?$PtrBlock@$0BA@@NpPtrTableStorageManager@physx@@@shdfnd@3@@shdfnd@physx@@IAE@ABV?$ReflectionAllocator@V?$PtrBlock@$0BA@@NpPtrTableStorageManager@physx@@@12@II@Z 1002d670 f i NpFactory.obj
 0001:0002c700       ??0?$PoolBase@V?$PtrBlock@$0EA@@NpPtrTableStorageManager@physx@@V?$ReflectionAllocator@V?$PtrBlock@$0EA@@NpPtrTableStorageManager@physx@@@shdfnd@3@@shdfnd@physx@@IAE@ABV?$ReflectionAllocator@V?$PtrBlock@$0EA@@NpPtrTableStorageManager@physx@@@12@II@Z 1002d700 f i NpFactory.obj
 0001:0002c790       ??0?$PoolBase@VNpAggregate@physx@@V?$ReflectionAllocator@VNpAggregate@physx@@@shdfnd@2@@shdfnd@physx@@IAE@ABV?$ReflectionAllocator@VNpAggregate@physx@@@12@II@Z 1002d790 f i NpFactory.obj
 0001:0002c820       ??0?$PoolBase@VNpArticulation@physx@@V?$ReflectionAllocator@VNpArticulation@physx@@@shdfnd@2@@shdfnd@physx@@IAE@ABV?$ReflectionAllocator@VNpArticulation@physx@@@12@II@Z 1002d820 f i NpFactory.obj
 0001:0002c8b0       ??0?$PoolBase@VNpArticulationJoint@physx@@V?$ReflectionAllocator@VNpArticulationJoint@physx@@@shdfnd@2@@shdfnd@physx@@IAE@ABV?$ReflectionAllocator@VNpArticulationJoint@physx@@@12@II@Z 1002d8b0 f i NpFactory.obj
 0001:0002c940       ??0?$PoolBase@VNpArticulationLink@physx@@V?$ReflectionAllocator@VNpArticulationLink@physx@@@shdfnd@2@@shdfnd@physx@@IAE@ABV?$ReflectionAllocator@VNpArticulationLink@physx@@@12@II@Z 1002d940 f i NpFactory.obj
 0001:0002c9d0       ??0?$PoolBase@VNpCloth@physx@@V?$ReflectionAllocator@VNpCloth@physx@@@shdfnd@2@@shdfnd@physx@@IAE@ABV?$ReflectionAllocator@VNpCloth@physx@@@12@II@Z 1002d9d0 f i NpFactory.obj
 0001:0002ca60       ??0?$PoolBase@VNpClothFabric@physx@@V?$ReflectionAllocator@VNpClothFabric@physx@@@shdfnd@2@@shdfnd@physx@@IAE@ABV?$ReflectionAllocator@VNpClothFabric@physx@@@12@II@Z 1002da60 f i NpFactory.obj
 0001:0002caf0       ??0?$PoolBase@VNpConnectorArray@physx@@V?$ReflectionAllocator@VNpConnectorArray@physx@@@shdfnd@2@@shdfnd@physx@@IAE@ABV?$ReflectionAllocator@VNpConnectorArray@physx@@@12@II@Z 1002daf0 f i NpFactory.obj
 0001:0002cb80       ??0?$PoolBase@VNpConstraint@physx@@V?$ReflectionAllocator@VNpConstraint@physx@@@shdfnd@2@@shdfnd@physx@@IAE@ABV?$ReflectionAllocator@VNpConstraint@physx@@@12@II@Z 1002db80 f i NpFactory.obj
 0001:0002cc10       ??0?$PoolBase@VNpMaterial@physx@@V?$ReflectionAllocator@VNpMaterial@physx@@@shdfnd@2@@shdfnd@physx@@IAE@ABV?$ReflectionAllocator@VNpMaterial@physx@@@12@II@Z 1002dc10 f i NpFactory.obj
 0001:0002cca0       ??0?$PoolBase@VNpParticleFluid@physx@@V?$ReflectionAllocator@VNpParticleFluid@physx@@@shdfnd@2@@shdfnd@physx@@IAE@ABV?$ReflectionAllocator@VNpParticleFluid@physx@@@12@II@Z 1002dca0 f i NpFactory.obj
 0001:0002cd30       ??0?$PoolBase@VNpParticleSystem@physx@@V?$ReflectionAllocator@VNpParticleSystem@physx@@@shdfnd@2@@shdfnd@physx@@IAE@ABV?$ReflectionAllocator@VNpParticleSystem@physx@@@12@II@Z 1002dd30 f i NpFactory.obj
 0001:0002cdc0       ??0?$PoolBase@VNpRigidDynamic@physx@@V?$ReflectionAllocator@VNpRigidDynamic@physx@@@shdfnd@2@@shdfnd@physx@@IAE@ABV?$ReflectionAllocator@VNpRigidDynamic@physx@@@12@II@Z 1002ddc0 f i NpFactory.obj
 0001:0002ce50       ??0?$PoolBase@VNpRigidStatic@physx@@V?$ReflectionAllocator@VNpRigidStatic@physx@@@shdfnd@2@@shdfnd@physx@@IAE@ABV?$ReflectionAllocator@VNpRigidStatic@physx@@@12@II@Z 1002de50 f i NpFactory.obj
 0001:0002cee0       ??0?$PoolBase@VNpShape@physx@@V?$ReflectionAllocator@VNpShape@physx@@@shdfnd@2@@shdfnd@physx@@IAE@ABV?$ReflectionAllocator@VNpShape@physx@@@12@II@Z 1002dee0 f i NpFactory.obj
 0001:0002cf70       ??0Iter@?$HashBase@PAVPxActor@physx@@PAV12@U?$Hash@PAVPxActor@physx@@@shdfnd@2@UGetKey@?$HashSetBase@PAVPxActor@physx@@U?$Hash@PAVPxActor@physx@@@shdfnd@2@VNonTrackingAllocator@42@$0A@@internal@42@VNonTrackingAllocator@42@$0A@@internal@shdfnd@physx@@QAE@AAV1234@@Z 1002df70 f i NpFactory.obj
 0001:0002cfd0       ??0Iter@?$HashBase@PAVPxAggregate@physx@@PAV12@U?$Hash@PAVPxAggregate@physx@@@shdfnd@2@UGetKey@?$HashSetBase@PAVPxAggregate@physx@@U?$Hash@PAVPxAggregate@physx@@@shdfnd@2@VNonTrackingAllocator@42@$0A@@internal@42@VNonTrackingAllocator@42@$0A@@internal@shdfnd@physx@@QAE@AAV1234@@Z 1002dfd0 f i NpFactory.obj
 0001:0002d030       ??0Iter@?$HashBase@PAVPxArticulation@physx@@PAV12@U?$Hash@PAVPxArticulation@physx@@@shdfnd@2@UGetKey@?$HashSetBase@PAVPxArticulation@physx@@U?$Hash@PAVPxArticulation@physx@@@shdfnd@2@VNonTrackingAllocator@42@$0A@@internal@42@VNonTrackingAllocator@42@$0A@@internal@shdfnd@physx@@QAE@AAV1234@@Z 1002e030 f i NpFactory.obj
 0001:0002d090       ??0Iter@?$HashBase@PAVPxConstraint@physx@@PAV12@U?$Hash@PAVPxConstraint@physx@@@shdfnd@2@UGetKey@?$HashSetBase@PAVPxConstraint@physx@@U?$Hash@PAVPxConstraint@physx@@@shdfnd@2@VNonTrackingAllocator@42@$0A@@internal@42@VNonTrackingAllocator@42@$0A@@internal@shdfnd@physx@@QAE@AAV1234@@Z 1002e090 f i NpFactory.obj
 0001:0002d0f0       ??0NpPtrTableStorageManager@physx@@QAE@XZ 1002e0f0 f i NpFactory.obj
 0001:0002d160       ??1?$PoolBase@V?$PtrBlock@$03@NpPtrTableStorageManager@physx@@V?$ReflectionAllocator@V?$PtrBlock@$03@NpPtrTableStorageManager@physx@@@shdfnd@3@@shdfnd@physx@@QAE@XZ 1002e160 f i NpFactory.obj
 0001:0002d220       ??1?$PoolBase@V?$PtrBlock@$0BA@@NpPtrTableStorageManager@physx@@V?$ReflectionAllocator@V?$PtrBlock@$0BA@@NpPtrTableStorageManager@physx@@@shdfnd@3@@shdfnd@physx@@QAE@XZ 1002e220 f i NpFactory.obj
 0001:0002d2e0       ??1?$PoolBase@V?$PtrBlock@$0EA@@NpPtrTableStorageManager@physx@@V?$ReflectionAllocator@V?$PtrBlock@$0EA@@NpPtrTableStorageManager@physx@@@shdfnd@3@@shdfnd@physx@@QAE@XZ 1002e2e0 f i NpFactory.obj
 0001:0002d3a0       ??1?$PoolBase@VNpAggregate@physx@@V?$ReflectionAllocator@VNpAggregate@physx@@@shdfnd@2@@shdfnd@physx@@QAE@XZ 1002e3a0 f i NpFactory.obj
 0001:0002d460       ??1?$PoolBase@VNpArticulation@physx@@V?$ReflectionAllocator@VNpArticulation@physx@@@shdfnd@2@@shdfnd@physx@@QAE@XZ 1002e460 f i NpFactory.obj
 0001:0002d520       ??1?$PoolBase@VNpArticulationJoint@physx@@V?$ReflectionAllocator@VNpArticulationJoint@physx@@@shdfnd@2@@shdfnd@physx@@QAE@XZ 1002e520 f i NpFactory.obj
 0001:0002d5e0       ??1?$PoolBase@VNpArticulationLink@physx@@V?$ReflectionAllocator@VNpArticulationLink@physx@@@shdfnd@2@@shdfnd@physx@@QAE@XZ 1002e5e0 f i NpFactory.obj
 0001:0002d6a0       ??1?$PoolBase@VNpCloth@physx@@V?$ReflectionAllocator@VNpCloth@physx@@@shdfnd@2@@shdfnd@physx@@QAE@XZ 1002e6a0 f i NpFactory.obj
 0001:0002d760       ??1?$PoolBase@VNpClothFabric@physx@@V?$ReflectionAllocator@VNpClothFabric@physx@@@shdfnd@2@@shdfnd@physx@@QAE@XZ 1002e760 f i NpFactory.obj
 0001:0002d820       ??1?$PoolBase@VNpConnectorArray@physx@@V?$ReflectionAllocator@VNpConnectorArray@physx@@@shdfnd@2@@shdfnd@physx@@QAE@XZ 1002e820 f i NpFactory.obj
 0001:0002d8e0       ??1?$PoolBase@VNpConstraint@physx@@V?$ReflectionAllocator@VNpConstraint@physx@@@shdfnd@2@@shdfnd@physx@@QAE@XZ 1002e8e0 f i NpFactory.obj
 0001:0002d9a0       ??1?$PoolBase@VNpMaterial@physx@@V?$ReflectionAllocator@VNpMaterial@physx@@@shdfnd@2@@shdfnd@physx@@QAE@XZ 1002e9a0 f i NpFactory.obj
 0001:0002da60       ??1?$PoolBase@VNpParticleFluid@physx@@V?$ReflectionAllocator@VNpParticleFluid@physx@@@shdfnd@2@@shdfnd@physx@@QAE@XZ 1002ea60 f i NpFactory.obj
 0001:0002db20       ??1?$PoolBase@VNpParticleSystem@physx@@V?$ReflectionAllocator@VNpParticleSystem@physx@@@shdfnd@2@@shdfnd@physx@@QAE@XZ 1002eb20 f i NpFactory.obj
 0001:0002dbe0       ??1?$PoolBase@VNpRigidDynamic@physx@@V?$ReflectionAllocator@VNpRigidDynamic@physx@@@shdfnd@2@@shdfnd@physx@@QAE@XZ 1002ebe0 f i NpFactory.obj
 0001:0002dca0       ??1?$PoolBase@VNpRigidStatic@physx@@V?$ReflectionAllocator@VNpRigidStatic@physx@@@shdfnd@2@@shdfnd@physx@@QAE@XZ 1002eca0 f i NpFactory.obj
 0001:0002dd60       ??1?$PoolBase@VNpShape@physx@@V?$ReflectionAllocator@VNpShape@physx@@@shdfnd@2@@shdfnd@physx@@QAE@XZ 1002ed60 f i NpFactory.obj
 0001:0002de20       ??1PtrTableStorageManager@Cm@physx@@MAE@XZ 1002ee20 f i NpFactory.obj
 0001:0002de30       ??_ENpFactory@physx@@EAEPAXI@Z 1002ee30 f i NpFactory.obj
 0001:0002de30       ??_GNpFactory@physx@@EAEPAXI@Z 1002ee30 f i NpFactory.obj
 0001:0002de80       ??_ENpPtrTableStorageManager@physx@@UAEPAXI@Z 1002ee80 f i NpFactory.obj
 0001:0002de80       ??_GNpPtrTableStorageManager@physx@@UAEPAXI@Z 1002ee80 f i NpFactory.obj
 0001:0002df10       ??_GPtrTableStorageManager@Cm@physx@@MAEPAXI@Z 1002ef10 f i NpFactory.obj
 0001:0002df10       ??_EPtrTableStorageManager@Cm@physx@@MAEPAXI@Z 1002ef10 f i NpFactory.obj
 0001:0002e450       ?allocate@?$Array@PAVNpClothFabric@physx@@V?$ReflectionAllocator@PAVNpClothFabric@physx@@@shdfnd@2@@shdfnd@physx@@IAEPAPAVNpClothFabric@3@I@Z 1002f450 f i NpFactory.obj
 0001:0002e4d0       ?allocate@?$Array@PAVPxActor@physx@@V?$ReflectionAllocator@PAVPxActor@physx@@@shdfnd@2@@shdfnd@physx@@IAEPAPAVPxActor@3@I@Z 1002f4d0 f i NpFactory.obj
 0001:0002e550       ?allocate@?$Array@PAVPxAggregate@physx@@V?$ReflectionAllocator@PAVPxAggregate@physx@@@shdfnd@2@@shdfnd@physx@@IAEPAPAVPxAggregate@3@I@Z 1002f550 f i NpFactory.obj
 0001:0002e5d0       ?allocate@?$Array@PAVPxArticulation@physx@@V?$ReflectionAllocator@PAVPxArticulation@physx@@@shdfnd@2@@shdfnd@physx@@IAEPAPAVPxArticulation@3@I@Z 1002f5d0 f i NpFactory.obj
 0001:0002e650       ?allocate@?$Array@PAVPxConstraint@physx@@V?$ReflectionAllocator@PAVPxConstraint@physx@@@shdfnd@2@@shdfnd@physx@@IAEPAPAVPxConstraint@3@I@Z 1002f650 f i NpFactory.obj
 0001:0002e6d0       ?allocate@?$Array@PAXV?$ReflectionAllocator@V?$PtrBlock@$03@NpPtrTableStorageManager@physx@@@shdfnd@physx@@@shdfnd@physx@@IAEPAPAXI@Z 1002f6d0 f i NpFactory.obj
 0001:0002e750       ?allocate@?$Array@PAXV?$ReflectionAllocator@V?$PtrBlock@$0BA@@NpPtrTableStorageManager@physx@@@shdfnd@physx@@@shdfnd@physx@@IAEPAPAXI@Z 1002f750 f i NpFactory.obj
 0001:0002e7d0       ?allocate@?$Array@PAXV?$ReflectionAllocator@V?$PtrBlock@$0EA@@NpPtrTableStorageManager@physx@@@shdfnd@physx@@@shdfnd@physx@@IAEPAPAXI@Z 1002f7d0 f i NpFactory.obj
 0001:0002e850       ?allocate@?$Array@PAXV?$ReflectionAllocator@VNpAggregate@physx@@@shdfnd@physx@@@shdfnd@physx@@IAEPAPAXI@Z 1002f850 f i NpFactory.obj
 0001:0002e8d0       ?allocate@?$Array@PAXV?$ReflectionAllocator@VNpArticulation@physx@@@shdfnd@physx@@@shdfnd@physx@@IAEPAPAXI@Z 1002f8d0 f i NpFactory.obj
 0001:0002e950       ?allocate@?$Array@PAXV?$ReflectionAllocator@VNpArticulationJoint@physx@@@shdfnd@physx@@@shdfnd@physx@@IAEPAPAXI@Z 1002f950 f i NpFactory.obj
 0001:0002e9d0       ?allocate@?$Array@PAXV?$ReflectionAllocator@VNpArticulationLink@physx@@@shdfnd@physx@@@shdfnd@physx@@IAEPAPAXI@Z 1002f9d0 f i NpFactory.obj
 0001:0002ea50       ?allocate@?$Array@PAXV?$ReflectionAllocator@VNpCloth@physx@@@shdfnd@physx@@@shdfnd@physx@@IAEPAPAXI@Z 1002fa50 f i NpFactory.obj
 0001:0002ead0       ?allocate@?$Array@PAXV?$ReflectionAllocator@VNpClothFabric@physx@@@shdfnd@physx@@@shdfnd@physx@@IAEPAPAXI@Z 1002fad0 f i NpFactory.obj
 0001:0002eb50       ?allocate@?$Array@PAXV?$ReflectionAllocator@VNpConnectorArray@physx@@@shdfnd@physx@@@shdfnd@physx@@IAEPAPAXI@Z 1002fb50 f i NpFactory.obj
 0001:0002ebd0       ?allocate@?$Array@PAXV?$ReflectionAllocator@VNpConstraint@physx@@@shdfnd@physx@@@shdfnd@physx@@IAEPAPAXI@Z 1002fbd0 f i NpFactory.obj
 0001:0002ec50       ?allocate@?$Array@PAXV?$ReflectionAllocator@VNpMaterial@physx@@@shdfnd@physx@@@shdfnd@physx@@IAEPAPAXI@Z 1002fc50 f i NpFactory.obj
 0001:0002ecd0       ?allocate@?$Array@PAXV?$ReflectionAllocator@VNpParticleFluid@physx@@@shdfnd@physx@@@shdfnd@physx@@IAEPAPAXI@Z 1002fcd0 f i NpFactory.obj
 0001:0002ed50       ?allocate@?$Array@PAXV?$ReflectionAllocator@VNpParticleSystem@physx@@@shdfnd@physx@@@shdfnd@physx@@IAEPAPAXI@Z 1002fd50 f i NpFactory.obj
 0001:0002edd0       ?allocate@?$Array@PAXV?$ReflectionAllocator@VNpRigidDynamic@physx@@@shdfnd@physx@@@shdfnd@physx@@IAEPAPAXI@Z 1002fdd0 f i NpFactory.obj
 0001:0002ee50       ?allocate@?$Array@PAXV?$ReflectionAllocator@VNpRigidStatic@physx@@@shdfnd@physx@@@shdfnd@physx@@IAEPAPAXI@Z 1002fe50 f i NpFactory.obj
 0001:0002eed0       ?allocate@?$Array@PAXV?$ReflectionAllocator@VNpShape@physx@@@shdfnd@physx@@@shdfnd@physx@@IAEPAPAXI@Z 1002fed0 f i NpFactory.obj
 0001:0002ef50       ?allocate@?$InlineAllocator@$07V?$ReflectionAllocator@G@shdfnd@physx@@@shdfnd@physx@@QAEPAXIPBDH@Z 1002ff50 f i NpFactory.obj
 0001:0002efe0       ?allocate@?$InlineAllocator@$0BAA@V?$ReflectionAllocator@V?$PtrBlock@$03@NpPtrTableStorageManager@physx@@@shdfnd@physx@@@shdfnd@physx@@QAEPAXIPBDH@Z 1002ffe0 f i NpFactory.obj
 0001:0002f060       ?allocate@?$InlineAllocator@$0BAA@V?$ReflectionAllocator@V?$PtrBlock@$0BA@@NpPtrTableStorageManager@physx@@@shdfnd@physx@@@shdfnd@physx@@QAEPAXIPBDH@Z 10030060 f i NpFactory.obj
 0001:0002f0e0       ?allocate@?$InlineAllocator@$0BAA@V?$ReflectionAllocator@V?$PtrBlock@$0EA@@NpPtrTableStorageManager@physx@@@shdfnd@physx@@@shdfnd@physx@@QAEPAXIPBDH@Z 100300e0 f i NpFactory.obj
 0001:0002f160       ?allocate@?$InlineAllocator@$0BAA@V?$ReflectionAllocator@VNpAggregate@physx@@@shdfnd@physx@@@shdfnd@physx@@QAEPAXIPBDH@Z 10030160 f i NpFactory.obj
 0001:0002f1e0       ?allocate@?$InlineAllocator@$0BAA@V?$ReflectionAllocator@VNpArticulation@physx@@@shdfnd@physx@@@shdfnd@physx@@QAEPAXIPBDH@Z 100301e0 f i NpFactory.obj
 0001:0002f260       ?allocate@?$InlineAllocator@$0BAA@V?$ReflectionAllocator@VNpArticulationJoint@physx@@@shdfnd@physx@@@shdfnd@physx@@QAEPAXIPBDH@Z 10030260 f i NpFactory.obj
 0001:0002f2e0       ?allocate@?$InlineAllocator@$0BAA@V?$ReflectionAllocator@VNpArticulationLink@physx@@@shdfnd@physx@@@shdfnd@physx@@QAEPAXIPBDH@Z 100302e0 f i NpFactory.obj
 0001:0002f360       ?allocate@?$InlineAllocator@$0BAA@V?$ReflectionAllocator@VNpCloth@physx@@@shdfnd@physx@@@shdfnd@physx@@QAEPAXIPBDH@Z 10030360 f i NpFactory.obj
 0001:0002f3e0       ?allocate@?$InlineAllocator@$0BAA@V?$ReflectionAllocator@VNpClothFabric@physx@@@shdfnd@physx@@@shdfnd@physx@@QAEPAXIPBDH@Z 100303e0 f i NpFactory.obj
 0001:0002f460       ?allocate@?$InlineAllocator@$0BAA@V?$ReflectionAllocator@VNpConnectorArray@physx@@@shdfnd@physx@@@shdfnd@physx@@QAEPAXIPBDH@Z 10030460 f i NpFactory.obj
 0001:0002f4e0       ?allocate@?$InlineAllocator@$0BAA@V?$ReflectionAllocator@VNpConstraint@physx@@@shdfnd@physx@@@shdfnd@physx@@QAEPAXIPBDH@Z 100304e0 f i NpFactory.obj
 0001:0002f560       ?allocate@?$InlineAllocator@$0BAA@V?$ReflectionAllocator@VNpMaterial@physx@@@shdfnd@physx@@@shdfnd@physx@@QAEPAXIPBDH@Z 10030560 f i NpFactory.obj
 0001:0002f5e0       ?allocate@?$InlineAllocator@$0BAA@V?$ReflectionAllocator@VNpParticleFluid@physx@@@shdfnd@physx@@@shdfnd@physx@@QAEPAXIPBDH@Z 100305e0 f i NpFactory.obj
 0001:0002f660       ?allocate@?$InlineAllocator@$0BAA@V?$ReflectionAllocator@VNpParticleSystem@physx@@@shdfnd@physx@@@shdfnd@physx@@QAEPAXIPBDH@Z 10030660 f i NpFactory.obj
 0001:0002f6e0       ?allocate@?$InlineAllocator@$0BAA@V?$ReflectionAllocator@VNpRigidDynamic@physx@@@shdfnd@physx@@@shdfnd@physx@@QAEPAXIPBDH@Z 100306e0 f i NpFactory.obj
 0001:0002f760       ?allocate@?$InlineAllocator@$0BAA@V?$ReflectionAllocator@VNpRigidStatic@physx@@@shdfnd@physx@@@shdfnd@physx@@QAEPAXIPBDH@Z 10030760 f i NpFactory.obj
 0001:0002f7e0       ?allocate@?$InlineAllocator@$0BAA@V?$ReflectionAllocator@VNpShape@physx@@@shdfnd@physx@@@shdfnd@physx@@QAEPAXIPBDH@Z 100307e0 f i NpFactory.obj
 0001:0002f860       ?allocate@NpPtrTableStorageManager@physx@@UAEPAPAXI@Z 10030860 f i NpFactory.obj
 0001:0002f950       ?allocateSlab@?$PoolBase@V?$PtrBlock@$03@NpPtrTableStorageManager@physx@@V?$ReflectionAllocator@V?$PtrBlock@$03@NpPtrTableStorageManager@physx@@@shdfnd@3@@shdfnd@physx@@IAEXXZ 10030950 f i NpFactory.obj
 0001:0002fa20       ?allocateSlab@?$PoolBase@V?$PtrBlock@$0BA@@NpPtrTableStorageManager@physx@@V?$ReflectionAllocator@V?$PtrBlock@$0BA@@NpPtrTableStorageManager@physx@@@shdfnd@3@@shdfnd@physx@@IAEXXZ 10030a20 f i NpFactory.obj
 0001:0002faf0       ?allocateSlab@?$PoolBase@V?$PtrBlock@$0EA@@NpPtrTableStorageManager@physx@@V?$ReflectionAllocator@V?$PtrBlock@$0EA@@NpPtrTableStorageManager@physx@@@shdfnd@3@@shdfnd@physx@@IAEXXZ 10030af0 f i NpFactory.obj
 0001:0002fbc0       ?allocateSlab@?$PoolBase@VNpAggregate@physx@@V?$ReflectionAllocator@VNpAggregate@physx@@@shdfnd@2@@shdfnd@physx@@IAEXXZ 10030bc0 f i NpFactory.obj
 0001:0002fc90       ?allocateSlab@?$PoolBase@VNpArticulation@physx@@V?$ReflectionAllocator@VNpArticulation@physx@@@shdfnd@2@@shdfnd@physx@@IAEXXZ 10030c90 f i NpFactory.obj
 0001:0002fd60       ?allocateSlab@?$PoolBase@VNpArticulationJoint@physx@@V?$ReflectionAllocator@VNpArticulationJoint@physx@@@shdfnd@2@@shdfnd@physx@@IAEXXZ 10030d60 f i NpFactory.obj
 0001:0002fe30       ?allocateSlab@?$PoolBase@VNpArticulationLink@physx@@V?$ReflectionAllocator@VNpArticulationLink@physx@@@shdfnd@2@@shdfnd@physx@@IAEXXZ 10030e30 f i NpFactory.obj
 0001:0002ff00       ?allocateSlab@?$PoolBase@VNpCloth@physx@@V?$ReflectionAllocator@VNpCloth@physx@@@shdfnd@2@@shdfnd@physx@@IAEXXZ 10030f00 f i NpFactory.obj
 0001:0002fff0       ?allocateSlab@?$PoolBase@VNpClothFabric@physx@@V?$ReflectionAllocator@VNpClothFabric@physx@@@shdfnd@2@@shdfnd@physx@@IAEXXZ 10030ff0 f i NpFactory.obj
 0001:000300c0       ?allocateSlab@?$PoolBase@VNpConnectorArray@physx@@V?$ReflectionAllocator@VNpConnectorArray@physx@@@shdfnd@2@@shdfnd@physx@@IAEXXZ 100310c0 f i NpFactory.obj
 0001:00030190       ?allocateSlab@?$PoolBase@VNpConstraint@physx@@V?$ReflectionAllocator@VNpConstraint@physx@@@shdfnd@2@@shdfnd@physx@@IAEXXZ 10031190 f i NpFactory.obj
 0001:00030260       ?allocateSlab@?$PoolBase@VNpMaterial@physx@@V?$ReflectionAllocator@VNpMaterial@physx@@@shdfnd@2@@shdfnd@physx@@IAEXXZ 10031260 f i NpFactory.obj
 0001:00030330       ?allocateSlab@?$PoolBase@VNpParticleFluid@physx@@V?$ReflectionAllocator@VNpParticleFluid@physx@@@shdfnd@2@@shdfnd@physx@@IAEXXZ 10031330 f i NpFactory.obj
 0001:00030400       ?allocateSlab@?$PoolBase@VNpParticleSystem@physx@@V?$ReflectionAllocator@VNpParticleSystem@physx@@@shdfnd@2@@shdfnd@physx@@IAEXXZ 10031400 f i NpFactory.obj
 0001:000304d0       ?allocateSlab@?$PoolBase@VNpRigidDynamic@physx@@V?$ReflectionAllocator@VNpRigidDynamic@physx@@@shdfnd@2@@shdfnd@physx@@IAEXXZ 100314d0 f i NpFactory.obj
 0001:000305b0       ?allocateSlab@?$PoolBase@VNpRigidStatic@physx@@V?$ReflectionAllocator@VNpRigidStatic@physx@@@shdfnd@2@@shdfnd@physx@@IAEXXZ 100315b0 f i NpFactory.obj
 0001:00030680       ?allocateSlab@?$PoolBase@VNpShape@physx@@V?$ReflectionAllocator@VNpShape@physx@@@shdfnd@2@@shdfnd@physx@@IAEXXZ 10031680 f i NpFactory.obj
 0001:00030750       ?canReuse@NpPtrTableStorageManager@physx@@UAE_NII@Z 10031750 f i NpFactory.obj
 0001:000307b0       ?construct@?$PoolBase@V?$PtrBlock@$0BA@@NpPtrTableStorageManager@physx@@V?$ReflectionAllocator@V?$PtrBlock@$0BA@@NpPtrTableStorageManager@physx@@@shdfnd@3@@shdfnd@physx@@QAEPAV?$PtrBlock@$0BA@@NpPtrTableStorageManager@3@XZ 100317b0 f i NpFactory.obj
 0001:00030800       ?construct@?$PoolBase@V?$PtrBlock@$0EA@@NpPtrTableStorageManager@physx@@V?$ReflectionAllocator@V?$PtrBlock@$0EA@@NpPtrTableStorageManager@physx@@@shdfnd@3@@shdfnd@physx@@QAEPAV?$PtrBlock@$0EA@@NpPtrTableStorageManager@3@XZ 10031800 f i NpFactory.obj
 0001:00030850       ?construct@?$PoolBase@VNpConnectorArray@physx@@V?$ReflectionAllocator@VNpConnectorArray@physx@@@shdfnd@2@@shdfnd@physx@@QAEPAVNpConnectorArray@3@XZ 10031850 f i NpFactory.obj
 0001:000308c0       ?create@?$Array@GV?$InlineAllocator@$07V?$ReflectionAllocator@G@shdfnd@physx@@@shdfnd@physx@@@shdfnd@physx@@KAXPAG0ABG@Z 100318c0 f i NpFactory.obj
 0001:00030920       ?create@?$HashBase@PAVPxActor@physx@@PAV12@U?$Hash@PAVPxActor@physx@@@shdfnd@2@UGetKey@?$HashSetBase@PAVPxActor@physx@@U?$Hash@PAVPxActor@physx@@@shdfnd@2@VNonTrackingAllocator@42@$0A@@internal@42@VNonTrackingAllocator@42@$0A@@internal@shdfnd@physx@@QAEPAPAVPxActor@4@ABQAV54@AA_N@Z 10031920 f i NpFactory.obj
 0001:00030a50       ?create@?$HashBase@PAVPxAggregate@physx@@PAV12@U?$Hash@PAVPxAggregate@physx@@@shdfnd@2@UGetKey@?$HashSetBase@PAVPxAggregate@physx@@U?$Hash@PAVPxAggregate@physx@@@shdfnd@2@VNonTrackingAllocator@42@$0A@@internal@42@VNonTrackingAllocator@42@$0A@@internal@shdfnd@physx@@QAEPAPAVPxAggregate@4@ABQAV54@AA_N@Z 10031a50 f i NpFactory.obj
 0001:00030b80       ?create@?$HashBase@PAVPxArticulation@physx@@PAV12@U?$Hash@PAVPxArticulation@physx@@@shdfnd@2@UGetKey@?$HashSetBase@PAVPxArticulation@physx@@U?$Hash@PAVPxArticulation@physx@@@shdfnd@2@VNonTrackingAllocator@42@$0A@@internal@42@VNonTrackingAllocator@42@$0A@@internal@shdfnd@physx@@QAEPAPAVPxArticulation@4@ABQAV54@AA_N@Z 10031b80 f i NpFactory.obj
 0001:00030cb0       ?create@?$HashBase@PAVPxConstraint@physx@@PAV12@U?$Hash@PAVPxConstraint@physx@@@shdfnd@2@UGetKey@?$HashSetBase@PAVPxConstraint@physx@@U?$Hash@PAVPxConstraint@physx@@@shdfnd@2@VNonTrackingAllocator@42@$0A@@internal@42@VNonTrackingAllocator@42@$0A@@internal@shdfnd@physx@@QAEPAPAVPxConstraint@4@ABQAV54@AA_N@Z 10031cb0 f i NpFactory.obj
 0001:00030de0       ?create@?$HashBase@PAVPxShape@physx@@PAV12@U?$Hash@PAVPxShape@physx@@@shdfnd@2@UGetKey@?$HashSetBase@PAVPxShape@physx@@U?$Hash@PAVPxShape@physx@@@shdfnd@2@VNonTrackingAllocator@42@$00@internal@42@VNonTrackingAllocator@42@$00@internal@shdfnd@physx@@QAEPAPAVPxShape@4@ABQAV54@AA_N@Z 10031de0 f i NpFactory.obj
 0001:00030f10       ?deallocate@NpPtrTableStorageManager@physx@@UAEXPAPAXI@Z 10031f10 f i NpFactory.obj
 0001:00030fe0       ?disposeElements@?$PoolBase@V?$PtrBlock@$03@NpPtrTableStorageManager@physx@@V?$ReflectionAllocator@V?$PtrBlock@$03@NpPtrTableStorageManager@physx@@@shdfnd@3@@shdfnd@physx@@IAEXXZ 10031fe0 f i NpFactory.obj
 0001:00031100       ?disposeElements@?$PoolBase@V?$PtrBlock@$0BA@@NpPtrTableStorageManager@physx@@V?$ReflectionAllocator@V?$PtrBlock@$0BA@@NpPtrTableStorageManager@physx@@@shdfnd@3@@shdfnd@physx@@IAEXXZ 10032100 f i NpFactory.obj
 0001:00031220       ?disposeElements@?$PoolBase@V?$PtrBlock@$0EA@@NpPtrTableStorageManager@physx@@V?$ReflectionAllocator@V?$PtrBlock@$0EA@@NpPtrTableStorageManager@physx@@@shdfnd@3@@shdfnd@physx@@IAEXXZ 10032220 f i NpFactory.obj
 0001:00031340       ?disposeElements@?$PoolBase@VNpAggregate@physx@@V?$ReflectionAllocator@VNpAggregate@physx@@@shdfnd@2@@shdfnd@physx@@IAEXXZ 10032340 f i NpFactory.obj
 0001:00031490       ?disposeElements@?$PoolBase@VNpArticulation@physx@@V?$ReflectionAllocator@VNpArticulation@physx@@@shdfnd@2@@shdfnd@physx@@IAEXXZ 10032490 f i NpFactory.obj
 0001:000315e0       ?disposeElements@?$PoolBase@VNpArticulationJoint@physx@@V?$ReflectionAllocator@VNpArticulationJoint@physx@@@shdfnd@2@@shdfnd@physx@@IAEXXZ 100325e0 f i NpFactory.obj
 0001:00031740       ?disposeElements@?$PoolBase@VNpArticulationLink@physx@@V?$ReflectionAllocator@VNpArticulationLink@physx@@@shdfnd@2@@shdfnd@physx@@IAEXXZ 10032740 f i NpFactory.obj
 0001:000318a0       ?disposeElements@?$PoolBase@VNpCloth@physx@@V?$ReflectionAllocator@VNpCloth@physx@@@shdfnd@2@@shdfnd@physx@@IAEXXZ 100328a0 f i NpFactory.obj
 0001:00031a00       ?disposeElements@?$PoolBase@VNpClothFabric@physx@@V?$ReflectionAllocator@VNpClothFabric@physx@@@shdfnd@2@@shdfnd@physx@@IAEXXZ 10032a00 f i NpFactory.obj
 0001:00031b50       ?disposeElements@?$PoolBase@VNpConnectorArray@physx@@V?$ReflectionAllocator@VNpConnectorArray@physx@@@shdfnd@2@@shdfnd@physx@@IAEXXZ 10032b50 f i NpFactory.obj
 0001:00031cd0       ?disposeElements@?$PoolBase@VNpConstraint@physx@@V?$ReflectionAllocator@VNpConstraint@physx@@@shdfnd@2@@shdfnd@physx@@IAEXXZ 10032cd0 f i NpFactory.obj
 0001:00031e20       ?disposeElements@?$PoolBase@VNpMaterial@physx@@V?$ReflectionAllocator@VNpMaterial@physx@@@shdfnd@2@@shdfnd@physx@@IAEXXZ 10032e20 f i NpFactory.obj
 0001:00031f60       ?disposeElements@?$PoolBase@VNpParticleFluid@physx@@V?$ReflectionAllocator@VNpParticleFluid@physx@@@shdfnd@2@@shdfnd@physx@@IAEXXZ 10032f60 f i NpFactory.obj
 0001:000320c0       ?disposeElements@?$PoolBase@VNpParticleSystem@physx@@V?$ReflectionAllocator@VNpParticleSystem@physx@@@shdfnd@2@@shdfnd@physx@@IAEXXZ 100330c0 f i NpFactory.obj
 0001:00032220       ?disposeElements@?$PoolBase@VNpRigidDynamic@physx@@V?$ReflectionAllocator@VNpRigidDynamic@physx@@@shdfnd@2@@shdfnd@physx@@IAEXXZ 10033220 f i NpFactory.obj
 0001:00032360       ?disposeElements@?$PoolBase@VNpRigidStatic@physx@@V?$ReflectionAllocator@VNpRigidStatic@physx@@@shdfnd@2@@shdfnd@physx@@IAEXXZ 10033360 f i NpFactory.obj
 0001:000324b0       ?disposeElements@?$PoolBase@VNpShape@physx@@V?$ReflectionAllocator@VNpShape@physx@@@shdfnd@2@@shdfnd@physx@@IAEXXZ 100334b0 f i NpFactory.obj
 0001:00032610       ?erase@?$HashBase@PAVPxActor@physx@@PAV12@U?$Hash@PAVPxActor@physx@@@shdfnd@2@UGetKey@?$HashSetBase@PAVPxActor@physx@@U?$Hash@PAVPxActor@physx@@@shdfnd@2@VNonTrackingAllocator@42@$0A@@internal@42@VNonTrackingAllocator@42@$0A@@internal@shdfnd@physx@@QAE_NABQAVPxActor@4@@Z 10033610 f i NpFactory.obj
 0001:000326c0       ?erase@?$HashBase@PAVPxAggregate@physx@@PAV12@U?$Hash@PAVPxAggregate@physx@@@shdfnd@2@UGetKey@?$HashSetBase@PAVPxAggregate@physx@@U?$Hash@PAVPxAggregate@physx@@@shdfnd@2@VNonTrackingAllocator@42@$0A@@internal@42@VNonTrackingAllocator@42@$0A@@internal@shdfnd@physx@@QAE_NABQAVPxAggregate@4@@Z 100336c0 f i NpFactory.obj
 0001:00032770       ?erase@?$HashBase@PAVPxArticulation@physx@@PAV12@U?$Hash@PAVPxArticulation@physx@@@shdfnd@2@UGetKey@?$HashSetBase@PAVPxArticulation@physx@@U?$Hash@PAVPxArticulation@physx@@@shdfnd@2@VNonTrackingAllocator@42@$0A@@internal@42@VNonTrackingAllocator@42@$0A@@internal@shdfnd@physx@@QAE_NABQAVPxArticulation@4@@Z 10033770 f i NpFactory.obj
 0001:00032820       ?erase@?$HashBase@PAVPxConstraint@physx@@PAV12@U?$Hash@PAVPxConstraint@physx@@@shdfnd@2@UGetKey@?$HashSetBase@PAVPxConstraint@physx@@U?$Hash@PAVPxConstraint@physx@@@shdfnd@2@VNonTrackingAllocator@42@$0A@@internal@42@VNonTrackingAllocator@42@$0A@@internal@shdfnd@physx@@QAE_NABQAVPxConstraint@4@@Z 10033820 f i NpFactory.obj
 0001:000328d0       ?erase@?$HashBase@PAVPxShape@physx@@PAV12@U?$Hash@PAVPxShape@physx@@@shdfnd@2@UGetKey@?$HashSetBase@PAVPxShape@physx@@U?$Hash@PAVPxShape@physx@@@shdfnd@2@VNonTrackingAllocator@42@$00@internal@42@VNonTrackingAllocator@42@$00@internal@shdfnd@physx@@QAE_NABQAVPxShape@4@@Z 100338d0 f i NpFactory.obj
 0001:00032980       ?freeListAdd@?$HashBase@PAVPxActor@physx@@PAV12@U?$Hash@PAVPxActor@physx@@@shdfnd@2@UGetKey@?$HashSetBase@PAVPxActor@physx@@U?$Hash@PAVPxActor@physx@@@shdfnd@2@VNonTrackingAllocator@42@$0A@@internal@42@VNonTrackingAllocator@42@$0A@@internal@shdfnd@physx@@AAEXII@Z 10033980 f i NpFactory.obj
 0001:00032a50       ?freeListAdd@?$HashBase@PAVPxAggregate@physx@@PAV12@U?$Hash@PAVPxAggregate@physx@@@shdfnd@2@UGetKey@?$HashSetBase@PAVPxAggregate@physx@@U?$Hash@PAVPxAggregate@physx@@@shdfnd@2@VNonTrackingAllocator@42@$0A@@internal@42@VNonTrackingAllocator@42@$0A@@internal@shdfnd@physx@@AAEXII@Z 10033a50 f i NpFactory.obj
 0001:00032b20       ?freeListAdd@?$HashBase@PAVPxArticulation@physx@@PAV12@U?$Hash@PAVPxArticulation@physx@@@shdfnd@2@UGetKey@?$HashSetBase@PAVPxArticulation@physx@@U?$Hash@PAVPxArticulation@physx@@@shdfnd@2@VNonTrackingAllocator@42@$0A@@internal@42@VNonTrackingAllocator@42@$0A@@internal@shdfnd@physx@@AAEXII@Z 10033b20 f i NpFactory.obj
 0001:00032bf0       ?freeListAdd@?$HashBase@PAVPxConstraint@physx@@PAV12@U?$Hash@PAVPxConstraint@physx@@@shdfnd@2@UGetKey@?$HashSetBase@PAVPxConstraint@physx@@U?$Hash@PAVPxConstraint@physx@@@shdfnd@2@VNonTrackingAllocator@42@$0A@@internal@42@VNonTrackingAllocator@42@$0A@@internal@shdfnd@physx@@AAEXII@Z 10033bf0 f i NpFactory.obj
 0001:00032cc0       ?grow@?$Stack@V?$ReflectionAllocator@V?$PtrBlock@$03@NpPtrTableStorageManager@physx@@@shdfnd@physx@@@internal@shdfnd@physx@@QAEXXZ 10033cc0 f i NpFactory.obj
 0001:00032d60       ?grow@?$Stack@V?$ReflectionAllocator@V?$PtrBlock@$0BA@@NpPtrTableStorageManager@physx@@@shdfnd@physx@@@internal@shdfnd@physx@@QAEXXZ 10033d60 f i NpFactory.obj
 0001:00032e00       ?grow@?$Stack@V?$ReflectionAllocator@V?$PtrBlock@$0EA@@NpPtrTableStorageManager@physx@@@shdfnd@physx@@@internal@shdfnd@physx@@QAEXXZ 10033e00 f i NpFactory.obj
 0001:00032ea0       ?grow@?$Stack@V?$ReflectionAllocator@VNpAggregate@physx@@@shdfnd@physx@@@internal@shdfnd@physx@@QAEXXZ 10033ea0 f i NpFactory.obj
 0001:00032f40       ?grow@?$Stack@V?$ReflectionAllocator@VNpArticulation@physx@@@shdfnd@physx@@@internal@shdfnd@physx@@QAEXXZ 10033f40 f i NpFactory.obj
 0001:00032fe0       ?grow@?$Stack@V?$ReflectionAllocator@VNpArticulationJoint@physx@@@shdfnd@physx@@@internal@shdfnd@physx@@QAEXXZ 10033fe0 f i NpFactory.obj
 0001:00033080       ?grow@?$Stack@V?$ReflectionAllocator@VNpArticulationLink@physx@@@shdfnd@physx@@@internal@shdfnd@physx@@QAEXXZ 10034080 f i NpFactory.obj
 0001:00033120       ?grow@?$Stack@V?$ReflectionAllocator@VNpCloth@physx@@@shdfnd@physx@@@internal@shdfnd@physx@@QAEXXZ 10034120 f i NpFactory.obj
 0001:000331c0       ?grow@?$Stack@V?$ReflectionAllocator@VNpClothFabric@physx@@@shdfnd@physx@@@internal@shdfnd@physx@@QAEXXZ 100341c0 f i NpFactory.obj
 0001:00033260       ?grow@?$Stack@V?$ReflectionAllocator@VNpConnectorArray@physx@@@shdfnd@physx@@@internal@shdfnd@physx@@QAEXXZ 10034260 f i NpFactory.obj
 0001:00033300       ?grow@?$Stack@V?$ReflectionAllocator@VNpConstraint@physx@@@shdfnd@physx@@@internal@shdfnd@physx@@QAEXXZ 10034300 f i NpFactory.obj
 0001:000333a0       ?grow@?$Stack@V?$ReflectionAllocator@VNpMaterial@physx@@@shdfnd@physx@@@internal@shdfnd@physx@@QAEXXZ 100343a0 f i NpFactory.obj
 0001:00033440       ?grow@?$Stack@V?$ReflectionAllocator@VNpParticleFluid@physx@@@shdfnd@physx@@@internal@shdfnd@physx@@QAEXXZ 10034440 f i NpFactory.obj
 0001:000334e0       ?grow@?$Stack@V?$ReflectionAllocator@VNpParticleSystem@physx@@@shdfnd@physx@@@internal@shdfnd@physx@@QAEXXZ 100344e0 f i NpFactory.obj
 0001:00033580       ?grow@?$Stack@V?$ReflectionAllocator@VNpRigidDynamic@physx@@@shdfnd@physx@@@internal@shdfnd@physx@@QAEXXZ 10034580 f i NpFactory.obj
 0001:00033620       ?grow@?$Stack@V?$ReflectionAllocator@VNpRigidStatic@physx@@@shdfnd@physx@@@internal@shdfnd@physx@@QAEXXZ 10034620 f i NpFactory.obj
 0001:000336c0       ?grow@?$Stack@V?$ReflectionAllocator@VNpShape@physx@@@shdfnd@physx@@@internal@shdfnd@physx@@QAEXXZ 100346c0 f i NpFactory.obj
 0001:00033760       ?growAndPushBack@?$Array@PAVNpClothFabric@physx@@V?$ReflectionAllocator@PAVNpClothFabric@physx@@@shdfnd@2@@shdfnd@physx@@IAEAAPAVNpClothFabric@3@ABQAV43@@Z 10034760 f i NpFactory.obj
 0001:000337f0       ?growAndPushBack@?$Array@PAVPxActor@physx@@V?$ReflectionAllocator@PAVPxActor@physx@@@shdfnd@2@@shdfnd@physx@@IAEAAPAVPxActor@3@ABQAV43@@Z 100347f0 f i NpFactory.obj
 0001:00033880       ?growAndPushBack@?$Array@PAVPxAggregate@physx@@V?$ReflectionAllocator@PAVPxAggregate@physx@@@shdfnd@2@@shdfnd@physx@@IAEAAPAVPxAggregate@3@ABQAV43@@Z 10034880 f i NpFactory.obj
 0001:00033910       ?growAndPushBack@?$Array@PAVPxArticulation@physx@@V?$ReflectionAllocator@PAVPxArticulation@physx@@@shdfnd@2@@shdfnd@physx@@IAEAAPAVPxArticulation@3@ABQAV43@@Z 10034910 f i NpFactory.obj
 0001:000339a0       ?growAndPushBack@?$Array@PAVPxConstraint@physx@@V?$ReflectionAllocator@PAVPxConstraint@physx@@@shdfnd@2@@shdfnd@physx@@IAEAAPAVPxConstraint@3@ABQAV43@@Z 100349a0 f i NpFactory.obj
 0001:00033a30       ?growAndPushBack@?$Array@PAXV?$InlineAllocator@$0BAA@V?$ReflectionAllocator@V?$PtrBlock@$03@NpPtrTableStorageManager@physx@@@shdfnd@physx@@@shdfnd@physx@@@shdfnd@physx@@IAEAAPAXABQAX@Z 10034a30 f i NpFactory.obj
 0001:00033b00       ?growAndPushBack@?$Array@PAXV?$InlineAllocator@$0BAA@V?$ReflectionAllocator@V?$PtrBlock@$0BA@@NpPtrTableStorageManager@physx@@@shdfnd@physx@@@shdfnd@physx@@@shdfnd@physx@@IAEAAPAXABQAX@Z 10034b00 f i NpFactory.obj
 0001:00033bd0       ?growAndPushBack@?$Array@PAXV?$InlineAllocator@$0BAA@V?$ReflectionAllocator@V?$PtrBlock@$0EA@@NpPtrTableStorageManager@physx@@@shdfnd@physx@@@shdfnd@physx@@@shdfnd@physx@@IAEAAPAXABQAX@Z 10034bd0 f i NpFactory.obj
 0001:00033ca0       ?growAndPushBack@?$Array@PAXV?$InlineAllocator@$0BAA@V?$ReflectionAllocator@VNpAggregate@physx@@@shdfnd@physx@@@shdfnd@physx@@@shdfnd@physx@@IAEAAPAXABQAX@Z 10034ca0 f i NpFactory.obj
 0001:00033d70       ?growAndPushBack@?$Array@PAXV?$InlineAllocator@$0BAA@V?$ReflectionAllocator@VNpArticulation@physx@@@shdfnd@physx@@@shdfnd@physx@@@shdfnd@physx@@IAEAAPAXABQAX@Z 10034d70 f i NpFactory.obj
 0001:00033e40       ?growAndPushBack@?$Array@PAXV?$InlineAllocator@$0BAA@V?$ReflectionAllocator@VNpArticulationJoint@physx@@@shdfnd@physx@@@shdfnd@physx@@@shdfnd@physx@@IAEAAPAXABQAX@Z 10034e40 f i NpFactory.obj
 0001:00033f10       ?growAndPushBack@?$Array@PAXV?$InlineAllocator@$0BAA@V?$ReflectionAllocator@VNpArticulationLink@physx@@@shdfnd@physx@@@shdfnd@physx@@@shdfnd@physx@@IAEAAPAXABQAX@Z 10034f10 f i NpFactory.obj
 0001:00033fe0       ?growAndPushBack@?$Array@PAXV?$InlineAllocator@$0BAA@V?$ReflectionAllocator@VNpCloth@physx@@@shdfnd@physx@@@shdfnd@physx@@@shdfnd@physx@@IAEAAPAXABQAX@Z 10034fe0 f i NpFactory.obj
 0001:000340b0       ?growAndPushBack@?$Array@PAXV?$InlineAllocator@$0BAA@V?$ReflectionAllocator@VNpClothFabric@physx@@@shdfnd@physx@@@shdfnd@physx@@@shdfnd@physx@@IAEAAPAXABQAX@Z 100350b0 f i NpFactory.obj
 0001:00034180       ?growAndPushBack@?$Array@PAXV?$InlineAllocator@$0BAA@V?$ReflectionAllocator@VNpConnectorArray@physx@@@shdfnd@physx@@@shdfnd@physx@@@shdfnd@physx@@IAEAAPAXABQAX@Z 10035180 f i NpFactory.obj
 0001:00034250       ?growAndPushBack@?$Array@PAXV?$InlineAllocator@$0BAA@V?$ReflectionAllocator@VNpConstraint@physx@@@shdfnd@physx@@@shdfnd@physx@@@shdfnd@physx@@IAEAAPAXABQAX@Z 10035250 f i NpFactory.obj
 0001:00034320       ?growAndPushBack@?$Array@PAXV?$InlineAllocator@$0BAA@V?$ReflectionAllocator@VNpMaterial@physx@@@shdfnd@physx@@@shdfnd@physx@@@shdfnd@physx@@IAEAAPAXABQAX@Z 10035320 f i NpFactory.obj
 0001:000343f0       ?growAndPushBack@?$Array@PAXV?$InlineAllocator@$0BAA@V?$ReflectionAllocator@VNpParticleFluid@physx@@@shdfnd@physx@@@shdfnd@physx@@@shdfnd@physx@@IAEAAPAXABQAX@Z 100353f0 f i NpFactory.obj
 0001:000344c0       ?growAndPushBack@?$Array@PAXV?$InlineAllocator@$0BAA@V?$ReflectionAllocator@VNpParticleSystem@physx@@@shdfnd@physx@@@shdfnd@physx@@@shdfnd@physx@@IAEAAPAXABQAX@Z 100354c0 f i NpFactory.obj
 0001:00034590       ?growAndPushBack@?$Array@PAXV?$InlineAllocator@$0BAA@V?$ReflectionAllocator@VNpRigidDynamic@physx@@@shdfnd@physx@@@shdfnd@physx@@@shdfnd@physx@@IAEAAPAXABQAX@Z 10035590 f i NpFactory.obj
 0001:00034660       ?growAndPushBack@?$Array@PAXV?$InlineAllocator@$0BAA@V?$ReflectionAllocator@VNpRigidStatic@physx@@@shdfnd@physx@@@shdfnd@physx@@@shdfnd@physx@@IAEAAPAXABQAX@Z 10035660 f i NpFactory.obj
 0001:00034730       ?growAndPushBack@?$Array@PAXV?$InlineAllocator@$0BAA@V?$ReflectionAllocator@VNpShape@physx@@@shdfnd@physx@@@shdfnd@physx@@@shdfnd@physx@@IAEAAPAXABQAX@Z 10035730 f i NpFactory.obj
 0001:00034800       ?growAndPushBack@?$Array@PAXV?$ReflectionAllocator@V?$PtrBlock@$03@NpPtrTableStorageManager@physx@@@shdfnd@physx@@@shdfnd@physx@@IAEAAPAXABQAX@Z 10035800 f i NpFactory.obj
 0001:00034890       ?growAndPushBack@?$Array@PAXV?$ReflectionAllocator@V?$PtrBlock@$0BA@@NpPtrTableStorageManager@physx@@@shdfnd@physx@@@shdfnd@physx@@IAEAAPAXABQAX@Z 10035890 f i NpFactory.obj
 0001:00034920       ?growAndPushBack@?$Array@PAXV?$ReflectionAllocator@V?$PtrBlock@$0EA@@NpPtrTableStorageManager@physx@@@shdfnd@physx@@@shdfnd@physx@@IAEAAPAXABQAX@Z 10035920 f i NpFactory.obj
 0001:000349b0       ?growAndPushBack@?$Array@PAXV?$ReflectionAllocator@VNpAggregate@physx@@@shdfnd@physx@@@shdfnd@physx@@IAEAAPAXABQAX@Z 100359b0 f i NpFactory.obj
 0001:00034a40       ?growAndPushBack@?$Array@PAXV?$ReflectionAllocator@VNpArticulation@physx@@@shdfnd@physx@@@shdfnd@physx@@IAEAAPAXABQAX@Z 10035a40 f i NpFactory.obj
 0001:00034ad0       ?growAndPushBack@?$Array@PAXV?$ReflectionAllocator@VNpArticulationJoint@physx@@@shdfnd@physx@@@shdfnd@physx@@IAEAAPAXABQAX@Z 10035ad0 f i NpFactory.obj
 0001:00034b60       ?growAndPushBack@?$Array@PAXV?$ReflectionAllocator@VNpArticulationLink@physx@@@shdfnd@physx@@@shdfnd@physx@@IAEAAPAXABQAX@Z 10035b60 f i NpFactory.obj
 0001:00034bf0       ?growAndPushBack@?$Array@PAXV?$ReflectionAllocator@VNpCloth@physx@@@shdfnd@physx@@@shdfnd@physx@@IAEAAPAXABQAX@Z 10035bf0 f i NpFactory.obj
 0001:00034c80       ?growAndPushBack@?$Array@PAXV?$ReflectionAllocator@VNpClothFabric@physx@@@shdfnd@physx@@@shdfnd@physx@@IAEAAPAXABQAX@Z 10035c80 f i NpFactory.obj
 0001:00034d10       ?growAndPushBack@?$Array@PAXV?$ReflectionAllocator@VNpConnectorArray@physx@@@shdfnd@physx@@@shdfnd@physx@@IAEAAPAXABQAX@Z 10035d10 f i NpFactory.obj
 0001:00034da0       ?growAndPushBack@?$Array@PAXV?$ReflectionAllocator@VNpConstraint@physx@@@shdfnd@physx@@@shdfnd@physx@@IAEAAPAXABQAX@Z 10035da0 f i NpFactory.obj
 0001:00034e30       ?growAndPushBack@?$Array@PAXV?$ReflectionAllocator@VNpMaterial@physx@@@shdfnd@physx@@@shdfnd@physx@@IAEAAPAXABQAX@Z 10035e30 f i NpFactory.obj
 0001:00034ec0       ?growAndPushBack@?$Array@PAXV?$ReflectionAllocator@VNpParticleFluid@physx@@@shdfnd@physx@@@shdfnd@physx@@IAEAAPAXABQAX@Z 10035ec0 f i NpFactory.obj
 0001:00034f50       ?growAndPushBack@?$Array@PAXV?$ReflectionAllocator@VNpParticleSystem@physx@@@shdfnd@physx@@@shdfnd@physx@@IAEAAPAXABQAX@Z 10035f50 f i NpFactory.obj
 0001:00034fe0       ?growAndPushBack@?$Array@PAXV?$ReflectionAllocator@VNpRigidDynamic@physx@@@shdfnd@physx@@@shdfnd@physx@@IAEAAPAXABQAX@Z 10035fe0 f i NpFactory.obj
 0001:00035070       ?growAndPushBack@?$Array@PAXV?$ReflectionAllocator@VNpRigidStatic@physx@@@shdfnd@physx@@@shdfnd@physx@@IAEAAPAXABQAX@Z 10036070 f i NpFactory.obj
 0001:00035100       ?growAndPushBack@?$Array@PAXV?$ReflectionAllocator@VNpShape@physx@@@shdfnd@physx@@@shdfnd@physx@@IAEAAPAXABQAX@Z 10036100 f i NpFactory.obj
 0001:00035190       ?recreate@?$Array@GV?$InlineAllocator@$07V?$ReflectionAllocator@G@shdfnd@physx@@@shdfnd@physx@@@shdfnd@physx@@IAEXI@Z 10036190 f i NpFactory.obj
 0001:00035220       ?recreate@?$Array@PAVNpClothFabric@physx@@V?$ReflectionAllocator@PAVNpClothFabric@physx@@@shdfnd@2@@shdfnd@physx@@IAEXI@Z 10036220 f i NpFactory.obj
 0001:00035280       ?recreate@?$Array@PAVPxActor@physx@@V?$ReflectionAllocator@PAVPxActor@physx@@@shdfnd@2@@shdfnd@physx@@IAEXI@Z 10036280 f i NpFactory.obj
 0001:000352e0       ?recreate@?$Array@PAVPxAggregate@physx@@V?$ReflectionAllocator@PAVPxAggregate@physx@@@shdfnd@2@@shdfnd@physx@@IAEXI@Z 100362e0 f i NpFactory.obj
 0001:00035340       ?recreate@?$Array@PAVPxArticulation@physx@@V?$ReflectionAllocator@PAVPxArticulation@physx@@@shdfnd@2@@shdfnd@physx@@IAEXI@Z 10036340 f i NpFactory.obj
 0001:000353a0       ?recreate@?$Array@PAVPxConstraint@physx@@V?$ReflectionAllocator@PAVPxConstraint@physx@@@shdfnd@2@@shdfnd@physx@@IAEXI@Z 100363a0 f i NpFactory.obj
 0001:00035400       ?replaceWithLast@?$HashBase@PAVPxShape@physx@@PAV12@U?$Hash@PAVPxShape@physx@@@shdfnd@2@UGetKey@?$HashSetBase@PAVPxShape@physx@@U?$Hash@PAVPxShape@physx@@@shdfnd@2@VNonTrackingAllocator@42@$00@internal@42@VNonTrackingAllocator@42@$00@internal@shdfnd@physx@@AAEXI@Z 10036400 f i NpFactory.obj
 0001:00035490       ?reserveInternal@?$HashBase@PAVPxActor@physx@@PAV12@U?$Hash@PAVPxActor@physx@@@shdfnd@2@UGetKey@?$HashSetBase@PAVPxActor@physx@@U?$Hash@PAVPxActor@physx@@@shdfnd@2@VNonTrackingAllocator@42@$0A@@internal@42@VNonTrackingAllocator@42@$0A@@internal@shdfnd@physx@@AAEXI@Z 10036490 f i NpFactory.obj
 0001:000356f0       ?reserveInternal@?$HashBase@PAVPxAggregate@physx@@PAV12@U?$Hash@PAVPxAggregate@physx@@@shdfnd@2@UGetKey@?$HashSetBase@PAVPxAggregate@physx@@U?$Hash@PAVPxAggregate@physx@@@shdfnd@2@VNonTrackingAllocator@42@$0A@@internal@42@VNonTrackingAllocator@42@$0A@@internal@shdfnd@physx@@AAEXI@Z 100366f0 f i NpFactory.obj
 0001:00035950       ?reserveInternal@?$HashBase@PAVPxArticulation@physx@@PAV12@U?$Hash@PAVPxArticulation@physx@@@shdfnd@2@UGetKey@?$HashSetBase@PAVPxArticulation@physx@@U?$Hash@PAVPxArticulation@physx@@@shdfnd@2@VNonTrackingAllocator@42@$0A@@internal@42@VNonTrackingAllocator@42@$0A@@internal@shdfnd@physx@@AAEXI@Z 10036950 f i NpFactory.obj
 0001:00035bb0       ?reserveInternal@?$HashBase@PAVPxConstraint@physx@@PAV12@U?$Hash@PAVPxConstraint@physx@@@shdfnd@2@UGetKey@?$HashSetBase@PAVPxConstraint@physx@@U?$Hash@PAVPxConstraint@physx@@@shdfnd@2@VNonTrackingAllocator@42@$0A@@internal@42@VNonTrackingAllocator@42@$0A@@internal@shdfnd@physx@@AAEXI@Z 10036bb0 f i NpFactory.obj
 0001:00035e10       ?reserveInternal@?$HashBase@PAVPxShape@physx@@PAV12@U?$Hash@PAVPxShape@physx@@@shdfnd@2@UGetKey@?$HashSetBase@PAVPxShape@physx@@U?$Hash@PAVPxShape@physx@@@shdfnd@2@VNonTrackingAllocator@42@$00@internal@42@VNonTrackingAllocator@42@$00@internal@shdfnd@physx@@AAEXI@Z 10036e10 f i NpFactory.obj
 0001:00035fa0       ?resize@?$Array@GV?$InlineAllocator@$07V?$ReflectionAllocator@G@shdfnd@physx@@@shdfnd@physx@@@shdfnd@physx@@QAEXIABG@Z 10036fa0 f i NpFactory.obj
 0001:00035fe0       ?onRefCountZero@NpMaterial@physx@@UAEXXZ 10036fe0 f   NpMaterial.obj
 0001:00036030       ?resolveReferences@NpMaterial@physx@@UAEXAAVPxDeserializationContext@2@@Z 10037030 f   NpMaterial.obj
 0001:00036050       ?createObject@NpMaterial@physx@@SAPAV12@AAPAEAAVPxDeserializationContext@2@@Z 10037050 f   NpMaterial.obj
 0001:000360d0       ??0NpMaterial@physx@@QAE@ABVMaterialCore@Sc@1@@Z 100370d0 f   NpMaterial.obj
 0001:00036160       ??1NpMaterial@physx@@UAE@XZ 10037160 f   NpMaterial.obj
 0001:000361a0       ?release@NpMaterial@physx@@UAEXXZ 100371a0 f   NpMaterial.obj
 0001:000361c0       ?acquireReference@NpMaterial@physx@@UAEXXZ 100371c0 f   NpMaterial.obj
 0001:000361d0       ?getReferenceCount@NpMaterial@physx@@UBEIXZ 100371d0 f   NpMaterial.obj
 0001:000361e0       ?setDynamicFriction@NpMaterial@physx@@UAEXM@Z 100371e0 f   NpMaterial.obj
 0001:00036200       ?getDynamicFriction@NpMaterial@physx@@UBEMXZ 10037200 f   NpMaterial.obj
 0001:00036210       ?setStaticFriction@NpMaterial@physx@@UAEXM@Z 10037210 f   NpMaterial.obj
 0001:00036230       ?getStaticFriction@NpMaterial@physx@@UBEMXZ 10037230 f   NpMaterial.obj
 0001:00036240       ?setRestitution@NpMaterial@physx@@UAEXM@Z 10037240 f   NpMaterial.obj
 0001:000362b0       ?getRestitution@NpMaterial@physx@@UBEMXZ 100372b0 f   NpMaterial.obj
 0001:000362c0       ?setFlag@NpMaterial@physx@@UAEXW4Enum@PxMaterialFlag@2@_N@Z 100372c0 f   NpMaterial.obj
 0001:00036300       ?setFlags@NpMaterial@physx@@UAEXV?$PxFlags@W4Enum@PxMaterialFlag@physx@@G@2@@Z 10037300 f   NpMaterial.obj
 0001:00036320       ?getFlags@NpMaterial@physx@@UBE?AV?$PxFlags@W4Enum@PxMaterialFlag@physx@@G@2@XZ 10037320 f   NpMaterial.obj
 0001:00036340       ?setFrictionCombineMode@NpMaterial@physx@@UAEXW4Enum@PxCombineMode@2@@Z 10037340 f   NpMaterial.obj
 0001:00036370       ?getFrictionCombineMode@NpMaterial@physx@@UBE?AW4Enum@PxCombineMode@2@XZ 10037370 f   NpMaterial.obj
 0001:00036380       ?setRestitutionCombineMode@NpMaterial@physx@@UAEXW4Enum@PxCombineMode@2@@Z 10037380 f   NpMaterial.obj
 0001:000363a0       ?getRestitutionCombineMode@NpMaterial@physx@@UBE?AW4Enum@PxCombineMode@2@XZ 100373a0 f   NpMaterial.obj
 0001:000363b0       ??1PxMaterial@physx@@MAE@XZ 100373b0 f i NpMaterial.obj
 0001:000363b7       ??_ENpMaterial@physx@@WM@AEPAXI@Z 100373b7 f i NpMaterial.obj
 0001:000363c0       ??_GNpMaterial@physx@@UAEPAXI@Z 100373c0 f i NpMaterial.obj
 0001:000363c0       ??_ENpMaterial@physx@@UAEPAXI@Z 100373c0 f i NpMaterial.obj
 0001:00036430       ??_EPxMaterial@physx@@MAEPAXI@Z 10037430 f i NpMaterial.obj
 0001:00036430       ??_GPxMaterial@physx@@MAEPAXI@Z 10037430 f i NpMaterial.obj
 0001:00036460       ?getConcreteTypeName@PxMaterial@physx@@UBEPBDXZ 10037460 f i NpMaterial.obj
 0001:00036470       ?isKindOf@PxMaterial@physx@@MBE_NPBD@Z 10037470 f i NpMaterial.obj
 0001:000364f0       ?requires@NpMaterial@physx@@UAEXAAVPxProcessPxBaseCallback@2@@Z 100374f0 f i NpMaterial.obj
 0001:00036500       _PxGetPhysicsBinaryMetaData 10037500 f   NpMetaData.obj
 0001:00036660       ?getBinaryMetaData_PxBase@physx@@YAXAAVPxOutputStream@1@@Z 10037660 f   NpMetaData.obj
 0001:000367d0       ?getBinaryMetaData@RefCountable@Cm@physx@@SAXAAVPxOutputStream@3@@Z 100377d0 f   NpMetaData.obj
 0001:00036870       ?getBinaryMetaData@NpMaterial@physx@@SAXAAVPxOutputStream@2@@Z 10037870 f   NpMetaData.obj
 0001:000369e0       ?getBinaryMetaData@NpShape@physx@@SAXAAVPxOutputStream@2@@Z 100379e0 f   NpMetaData.obj
 0001:00036ca0       ?getBinaryMetaData@NpShapeManager@physx@@SAXAAVPxOutputStream@2@@Z 10037ca0 f   NpMetaData.obj
 0001:00036dc0       ?getBinaryMetaData@NpConstraint@physx@@SAXAAVPxOutputStream@2@@Z 10037dc0 f   NpMetaData.obj
 0001:00036fb0       ?getBinaryMetaData@NpConnector@physx@@SAXAAVPxOutputStream@2@@Z 10037fb0 f   NpMetaData.obj
 0001:000370d0       ?getBinaryMetaData@NpConnectorArray@physx@@SAXAAVPxOutputStream@2@@Z 100380d0 f   NpMetaData.obj
 0001:00037300       ?getBinaryMetaData@NpActor@physx@@SAXAAVPxOutputStream@2@@Z 10038300 f   NpMetaData.obj
 0001:000373e0       ?getBinaryMetaData@NpRigidStatic@physx@@SAXAAVPxOutputStream@2@@Z 100383e0 f   NpMetaData.obj
 0001:00037660       ?getBinaryMetaData@NpRigidDynamic@physx@@SAXAAVPxOutputStream@2@@Z 10038660 f   NpMetaData.obj
 0001:000378e0       ?getBinaryMetaData@NpArticulationLinkArray@physx@@SAXAAVPxOutputStream@2@@Z 100388e0 f   NpMetaData.obj
 0001:00037b10       ?getBinaryMetaData@NpArticulationLink@physx@@SAXAAVPxOutputStream@2@@Z 10038b10 f   NpMetaData.obj
 0001:00037ea0       ?getBinaryMetaData@NpArticulation@physx@@SAXAAVPxOutputStream@2@@Z 10038ea0 f   NpMetaData.obj
 0001:000380d0       ?getBinaryMetaData@NpArticulationJoint@physx@@SAXAAVPxOutputStream@2@@Z 100390d0 f   NpMetaData.obj
 0001:00038240       ?getBinaryMetaData@NpClothFabric@physx@@SAXAAVPxOutputStream@2@@Z 10039240 f   NpMetaData.obj
 0001:00038360       ?getBinaryMetaData@NpCloth@physx@@SAXAAVPxOutputStream@2@@Z 10039360 f   NpMetaData.obj
 0001:00038550       ?getBinaryMetaData@NpAggregate@physx@@SAXAAVPxOutputStream@2@@Z 10039550 f   NpMetaData.obj
 0001:00038700       ?getBinaryMetaData@NpParticleSystem@physx@@SAXAAVPxOutputStream@2@@Z 10039700 f   NpMetaData.obj
 0001:00038870       ?getBinaryMetaData@NpParticleFluid@physx@@SAXAAVPxOutputStream@2@@Z 10039870 f   NpMetaData.obj
 0001:00039df0       _PxRegisterArticulations   1003adf0 f   NpPhysics.obj
 0001:00039e00       _PxRegisterHeightFields    1003ae00 f   NpPhysics.obj
 0001:00039e10       _PxRegisterLegacyHeightFields 1003ae10 f   NpPhysics.obj
 0001:00039e20       _PxRegisterCloth           1003ae20 f   NpPhysics.obj
 0001:00039e60       _PxRegisterParticles       1003ae60 f   NpPhysics.obj
 0001:00039e70       _PxCreateBasePhysics       1003ae70 f   NpPhysics.obj
 0001:00039e80       _PxGetPhysics              1003ae80 f   NpPhysics.obj
 0001:00039e90       ??0NpPhysics@physx@@AAE@ABVPxTolerancesScale@1@ABUPxvOffsetTable@1@_NPAVPsPvd@pvdsdk@1@@Z 1003ae90 f   NpPhysics.obj
 0001:00039f90       ??1NpPhysics@physx@@EAE@XZ 1003af90 f   NpPhysics.obj
 0001:0003a130       ?createInstance@NpPhysics@physx@@SAPAV12@IAAVPxFoundation@2@ABVPxTolerancesScale@2@_NPAVPsPvd@pvdsdk@2@@Z 1003b130 f   NpPhysics.obj
 0001:0003a2a0       ?releaseInstance@NpPhysics@physx@@SAIXZ 1003b2a0 f   NpPhysics.obj
 0001:0003a2e0       ?release@NpPhysics@physx@@UAEXXZ 1003b2e0 f   NpPhysics.obj
 0001:0003a310       ?createScene@NpPhysics@physx@@UAEPAVPxScene@2@ABVPxSceneDesc@2@@Z 1003b310 f   NpPhysics.obj
 0001:0003a470       ?releaseSceneInternal@NpPhysics@physx@@QAEXAAVPxScene@2@@Z 1003b470 f   NpPhysics.obj
 0001:0003a4e0       ?getNbScenes@NpPhysics@physx@@UBEIXZ 1003b4e0 f   NpPhysics.obj
 0001:0003a500       ?getScenes@NpPhysics@physx@@UBEIPAPAVPxScene@2@II@Z 1003b500 f   NpPhysics.obj
 0001:0003a570       ?createRigidStatic@NpPhysics@physx@@UAEPAVPxRigidStatic@2@ABVPxTransform@2@@Z 1003b570 f   NpPhysics.obj
 0001:0003a620       ?createRigidDynamic@NpPhysics@physx@@UAEPAVPxRigidDynamic@2@ABVPxTransform@2@@Z 1003b620 f   NpPhysics.obj
 0001:0003a6d0       ?createArticulation@NpPhysics@physx@@UAEPAVPxArticulation@2@XZ 1003b6d0 f   NpPhysics.obj
 0001:0003a6e0       ?createConstraint@NpPhysics@physx@@UAEPAVPxConstraint@2@PAVPxRigidActor@2@0AAVPxConstraintConnector@2@ABUPxConstraintShaderTable@2@I@Z 1003b6e0 f   NpPhysics.obj
 0001:0003a6f0       ?createAggregate@NpPhysics@physx@@UAEPAVPxAggregate@2@I_N@Z 1003b6f0 f   NpPhysics.obj
 0001:0003a700       ?createShape@NpPhysics@physx@@UAEPAVPxShape@2@ABVPxGeometry@2@PBQAVPxMaterial@2@G_NV?$PxFlags@W4Enum@PxShapeFlag@physx@@E@2@@Z 1003b700 f   NpPhysics.obj
 0001:0003a730       ?getNbShapes@NpPhysics@physx@@UBEIXZ 1003b730 f   NpPhysics.obj
 0001:0003a740       ?getShapes@NpPhysics@physx@@UBEIPAPAVPxShape@2@II@Z 1003b740 f   NpPhysics.obj
 0001:0003a750       ?createParticleSystem@NpPhysics@physx@@UAEPAVPxParticleSystem@2@I_N@Z 1003b750 f   NpPhysics.obj
 0001:0003a760       ?createParticleFluid@NpPhysics@physx@@UAEPAVPxParticleFluid@2@I_N@Z 1003b760 f   NpPhysics.obj
 0001:0003a770       ?createCloth@NpPhysics@physx@@UAEPAVPxCloth@2@ABVPxTransform@2@AAVPxClothFabric@2@PBUPxClothParticle@2@V?$PxFlags@W4Enum@PxClothFlag@physx@@G@2@@Z 1003b770 f   NpPhysics.obj
 0001:0003a830       ?createMaterial@NpPhysics@physx@@UAEPAVPxMaterial@2@MMM@Z 1003b830 f   NpPhysics.obj
 0001:0003a880       ?getNbMaterials@NpPhysics@physx@@UBEIXZ 1003b880 f   NpPhysics.obj
 0001:0003a8b0       ?getMaterials@NpPhysics@physx@@UBEIPAPAVPxMaterial@2@II@Z 1003b8b0 f   NpPhysics.obj
 0001:0003a930       ?createTriangleMesh@NpPhysics@physx@@UAEPAVPxTriangleMesh@2@AAVPxInputStream@2@@Z 1003b930 f   NpPhysics.obj
 0001:0003a940       ?getNbTriangleMeshes@NpPhysics@physx@@UBEIXZ 1003b940 f   NpPhysics.obj
 0001:0003a950       ?getTriangleMeshes@NpPhysics@physx@@UBEIPAPAVPxTriangleMesh@2@II@Z 1003b950 f   NpPhysics.obj
 0001:0003a960       ?createHeightField@NpPhysics@physx@@UAEPAVPxHeightField@2@AAVPxInputStream@2@@Z 1003b960 f   NpPhysics.obj
 0001:0003a970       ?getNbHeightFields@NpPhysics@physx@@UBEIXZ 1003b970 f   NpPhysics.obj
 0001:0003a980       ?getHeightFields@NpPhysics@physx@@UBEIPAPAVPxHeightField@2@II@Z 1003b980 f   NpPhysics.obj
 0001:0003a990       ?createConvexMesh@NpPhysics@physx@@UAEPAVPxConvexMesh@2@AAVPxInputStream@2@@Z 1003b990 f   NpPhysics.obj
 0001:0003a9a0       ?getNbConvexMeshes@NpPhysics@physx@@UBEIXZ 1003b9a0 f   NpPhysics.obj
 0001:0003a9b0       ?getConvexMeshes@NpPhysics@physx@@UBEIPAPAVPxConvexMesh@2@II@Z 1003b9b0 f   NpPhysics.obj
 0001:0003a9c0       ?createClothFabric@NpPhysics@physx@@UAEPAVPxClothFabric@2@AAVPxInputStream@2@@Z 1003b9c0 f   NpPhysics.obj
 0001:0003a9d0       ?createClothFabric@NpPhysics@physx@@UAEPAVPxClothFabric@2@ABVPxClothFabricDesc@2@@Z 1003b9d0 f   NpPhysics.obj
 0001:0003a9e0       ?getNbClothFabrics@NpPhysics@physx@@UBEIXZ 1003b9e0 f   NpPhysics.obj
 0001:0003a9f0       ?getClothFabrics@NpPhysics@physx@@UBEIPAPAVPxClothFabric@2@I@Z 1003b9f0 f   NpPhysics.obj
 0001:0003aa00       ?registerCloth@NpPhysics@physx@@QAEXXZ 1003ba00 f   NpPhysics.obj
 0001:0003aa40       ?registerPhysXIndicatorGpuClient@NpPhysics@physx@@QAEXXZ 1003ba40 f   NpPhysics.obj
 0001:0003aa80       ?unregisterPhysXIndicatorGpuClient@NpPhysics@physx@@QAEXXZ 1003ba80 f   NpPhysics.obj
 0001:0003aad0       ?createPruningStructure@NpPhysics@physx@@UAEPAVPxPruningStructure@2@PBQAVPxRigidActor@2@I@Z 1003bad0 f   NpPhysics.obj
 0001:0003ab80       ?getTolerancesScale@NpPhysics@physx@@UBEABVPxTolerancesScale@2@XZ 1003bb80 f   NpPhysics.obj
 0001:0003ab90       ?getFoundation@NpPhysics@physx@@UAEAAVPxFoundation@2@XZ 1003bb90 f   NpPhysics.obj
 0001:0003aba0       ?lockScene@NpPhysics@physx@@QAE_NXZ 1003bba0 f   NpPhysics.obj
 0001:0003abb0       ?unlockScene@NpPhysics@physx@@QAE_NXZ 1003bbb0 f   NpPhysics.obj
 0001:0003abc0       ?registerDeletionListener@NpPhysics@physx@@UAEXAAVPxDeletionListener@2@ABV?$PxFlags@W4Enum@PxDeletionEventFlag@physx@@E@2@_N@Z 1003bbc0 f   NpPhysics.obj
 0001:0003acc0       ?unregisterDeletionListener@NpPhysics@physx@@UAEXAAVPxDeletionListener@2@@Z 1003bcc0 f   NpPhysics.obj
 0001:0003ad40       ?registerDeletionListenerObjects@NpPhysics@physx@@UAEXAAVPxDeletionListener@2@PBQBVPxBase@2@I@Z 1003bd40 f   NpPhysics.obj
 0001:0003add0       ?unregisterDeletionListenerObjects@NpPhysics@physx@@UAEXAAVPxDeletionListener@2@PBQBVPxBase@2@I@Z 1003bdd0 f   NpPhysics.obj
 0001:0003ae40       ?notifyDeletionListeners@NpPhysics@physx@@QAEXPBVPxBase@2@PAXW4Enum@PxDeletionEventFlag@2@@Z 1003be40 f   NpPhysics.obj
 0001:0003aec0       ?removeMaterialFromTable@NpPhysics@physx@@QAEXAAVNpMaterial@2@@Z 1003bec0 f   NpPhysics.obj
 0001:0003af70       ?updateMaterial@NpPhysics@physx@@QAEXAAVNpMaterial@2@@Z 1003bf70 f   NpPhysics.obj
 0001:0003afc0       ?sendMaterialTable@NpPhysics@physx@@QAE_NAAVNpScene@2@@Z 1003bfc0 f   NpPhysics.obj
 0001:0003b020       ?addMaterial@NpPhysics@physx@@QAEPAVNpMaterial@2@PAV32@@Z 1003c020 f   NpPhysics.obj
 0001:0003b0b0       ?initOffsetTables@NpPhysics@physx@@SAXAAUPxvOffsetTable@2@@Z 1003c0b0 f   NpPhysics.obj
 0001:0003b220       _PxAddCollectionToPhysics  1003c220 f   NpPhysics.obj
 0001:0003b240       ??0NpDelListenerEntry@NpPhysics@physx@@QAE@ABV?$PxFlags@W4Enum@PxDeletionEventFlag@physx@@E@2@_N@Z 1003c240 f i NpPhysics.obj
 0001:0003b2b0       ??0NpMaterialManager@physx@@QAE@XZ 1003c2b0 f i NpPhysics.obj
 0001:0003b310       ??1GuMeshFactoryListener@physx@@MAE@XZ 1003c310 f i NpPhysics.obj
 0001:0003b320       ??1PxPhysics@physx@@UAE@XZ 1003c320 f i NpPhysics.obj
 0001:0003b330       ??1PxPhysicsInsertionCallback@physx@@MAE@XZ 1003c330 f i NpPhysics.obj
 0001:0003b340       ??_GGuMeshFactoryListener@physx@@MAEPAXI@Z 1003c340 f i NpPhysics.obj
 0001:0003b340       ??_EGuMeshFactoryListener@physx@@MAEPAXI@Z 1003c340 f i NpPhysics.obj
 0001:0003b370       ??_GMeshDeletionListener@NpPhysics@physx@@UAEPAXI@Z 1003c370 f i NpPhysics.obj
 0001:0003b370       ??_EMeshDeletionListener@NpPhysics@physx@@UAEPAXI@Z 1003c370 f i NpPhysics.obj
 0001:0003b3a0       ??_GNpPhysics@physx@@EAEPAXI@Z 1003c3a0 f i NpPhysics.obj
 0001:0003b3a0       ??_ENpPhysics@physx@@EAEPAXI@Z 1003c3a0 f i NpPhysics.obj
 0001:0003b3f0       ??_ENpPhysicsInsertionCallback@physx@@UAEPAXI@Z 1003c3f0 f i NpPhysics.obj
 0001:0003b3f0       ??_GNpPhysicsInsertionCallback@physx@@UAEPAXI@Z 1003c3f0 f i NpPhysics.obj
 0001:0003b420       ??_EPxPhysics@physx@@UAEPAXI@Z 1003c420 f i NpPhysics.obj
 0001:0003b420       ??_GPxPhysics@physx@@UAEPAXI@Z 1003c420 f i NpPhysics.obj
 0001:0003b450       ??_EPxPhysicsInsertionCallback@physx@@MAEPAXI@Z 1003c450 f i NpPhysics.obj
 0001:0003b450       ??_GPxPhysicsInsertionCallback@physx@@MAEPAXI@Z 1003c450 f i NpPhysics.obj
 0001:0003b480       ?allocate@?$Array@PAVNpScene@physx@@V?$ReflectionAllocator@PAVNpScene@physx@@@shdfnd@2@@shdfnd@physx@@IAEPAPAVNpScene@3@I@Z 1003c480 f i NpPhysics.obj
 0001:0003b500       ?buildObjectFromData@NpPhysicsInsertionCallback@physx@@UAEPAVPxBase@2@W4Enum@PxConcreteType@2@PAX@Z 1003c500 f i NpPhysics.obj
 0001:0003b580       ?clear@?$HashBase@V?$Pair@QAVPxDeletionListener@physx@@PAUNpDelListenerEntry@NpPhysics@2@@shdfnd@physx@@PAVPxDeletionListener@3@U?$Hash@PAVPxDeletionListener@physx@@@23@UGetKey@?$HashMapBase@PAVPxDeletionListener@physx@@PAUNpDelListenerEntry@NpPhysics@2@U?$Hash@PAVPxDeletionListener@physx@@@shdfnd@2@VNonTrackingAllocator@62@@internal@23@VNonTrackingAllocator@23@$00@internal@shdfnd@physx@@QAEXXZ 1003c580 f i NpPhysics.obj
 0001:0003b5f0       ?create@?$HashBase@PBVPxBase@physx@@PBV12@U?$Hash@PBVPxBase@physx@@@shdfnd@2@UGetKey@?$HashSetBase@PBVPxBase@physx@@U?$Hash@PBVPxBase@physx@@@shdfnd@2@VNonTrackingAllocator@42@$0A@@internal@42@VNonTrackingAllocator@42@$0A@@internal@shdfnd@physx@@QAEPAPBVPxBase@4@ABQBV54@AA_N@Z 1003c5f0 f i NpPhysics.obj
 0001:0003b720       ?create@?$HashBase@V?$Pair@QAVPxDeletionListener@physx@@PAUNpDelListenerEntry@NpPhysics@2@@shdfnd@physx@@PAVPxDeletionListener@3@U?$Hash@PAVPxDeletionListener@physx@@@23@UGetKey@?$HashMapBase@PAVPxDeletionListener@physx@@PAUNpDelListenerEntry@NpPhysics@2@U?$Hash@PAVPxDeletionListener@physx@@@shdfnd@2@VNonTrackingAllocator@62@@internal@23@VNonTrackingAllocator@23@$00@internal@shdfnd@physx@@QAEPAV?$Pair@QAVPxDeletionListener@physx@@PAUNpDelListenerEntry@NpPhysics@2@@34@ABQAVPxDeletionListener@4@AA_N@Z 1003c720 f i NpPhysics.obj
 0001:0003b830       ?erase@?$HashBase@PBVPxBase@physx@@PBV12@U?$Hash@PBVPxBase@physx@@@shdfnd@2@UGetKey@?$HashSetBase@PBVPxBase@physx@@U?$Hash@PBVPxBase@physx@@@shdfnd@2@VNonTrackingAllocator@42@$0A@@internal@42@VNonTrackingAllocator@42@$0A@@internal@shdfnd@physx@@QAE_NABQBVPxBase@4@@Z 1003c830 f i NpPhysics.obj
 0001:0003b8e0       ?erase@?$HashBase@V?$Pair@QAVPxDeletionListener@physx@@PAUNpDelListenerEntry@NpPhysics@2@@shdfnd@physx@@PAVPxDeletionListener@3@U?$Hash@PAVPxDeletionListener@physx@@@23@UGetKey@?$HashMapBase@PAVPxDeletionListener@physx@@PAUNpDelListenerEntry@NpPhysics@2@U?$Hash@PAVPxDeletionListener@physx@@@shdfnd@2@VNonTrackingAllocator@62@@internal@23@VNonTrackingAllocator@23@$00@internal@shdfnd@physx@@QAE_NABQAVPxDeletionListener@4@@Z 1003c8e0 f i NpPhysics.obj
 0001:0003b990       ?find@?$HashBase@PBVPxBase@physx@@PBV12@U?$Hash@PBVPxBase@physx@@@shdfnd@2@UGetKey@?$HashSetBase@PBVPxBase@physx@@U?$Hash@PBVPxBase@physx@@@shdfnd@2@VNonTrackingAllocator@42@$0A@@internal@42@VNonTrackingAllocator@42@$0A@@internal@shdfnd@physx@@QBEPBQBVPxBase@4@ABQBV54@@Z 1003c990 f i NpPhysics.obj
 0001:0003ba20       ?find@?$HashBase@V?$Pair@QAVPxDeletionListener@physx@@PAUNpDelListenerEntry@NpPhysics@2@@shdfnd@physx@@PAVPxDeletionListener@3@U?$Hash@PAVPxDeletionListener@physx@@@23@UGetKey@?$HashMapBase@PAVPxDeletionListener@physx@@PAUNpDelListenerEntry@NpPhysics@2@U?$Hash@PAVPxDeletionListener@physx@@@shdfnd@2@VNonTrackingAllocator@62@@internal@23@VNonTrackingAllocator@23@$00@internal@shdfnd@physx@@QBEPBV?$Pair@QAVPxDeletionListener@physx@@PAUNpDelListenerEntry@NpPhysics@2@@34@ABQAVPxDeletionListener@4@@Z 1003ca20 f i NpPhysics.obj
 0001:0003bab0       ?freeListAdd@?$HashBase@PBVPxBase@physx@@PBV12@U?$Hash@PBVPxBase@physx@@@shdfnd@2@UGetKey@?$HashSetBase@PBVPxBase@physx@@U?$Hash@PBVPxBase@physx@@@shdfnd@2@VNonTrackingAllocator@42@$0A@@internal@42@VNonTrackingAllocator@42@$0A@@internal@shdfnd@physx@@AAEXII@Z 1003cab0 f i NpPhysics.obj
 0001:0003bb80       ?getNpPhysicsGpu@NpPhysics@physx@@UAEAAVNpPhysicsGpu@2@XZ 1003cb80 f i NpPhysics.obj
 0001:0003bb90       ?getPhysicsInsertionCallback@NpPhysics@physx@@UAEAAVPxPhysicsInsertionCallback@2@XZ 1003cb90 f i NpPhysics.obj
 0001:0003bba0       ?growAndPushBack@?$Array@IV?$ReflectionAllocator@I@shdfnd@physx@@@shdfnd@physx@@IAEAAIABI@Z 1003cba0 f i NpPhysics.obj
 0001:0003bc30       ?growAndPushBack@?$Array@PAVNpScene@physx@@V?$ReflectionAllocator@PAVNpScene@physx@@@shdfnd@2@@shdfnd@physx@@IAEAAPAVNpScene@3@ABQAV43@@Z 1003cc30 f i NpPhysics.obj
 0001:0003bcc0       ?onGuMeshFactoryBufferRelease@MeshDeletionListener@NpPhysics@physx@@UAEXPBVPxBase@3@G@Z 1003ccc0 f i NpPhysics.obj
 0001:0003bce0       ?releaseMaterials@NpMaterialManager@physx@@QAEXXZ 1003cce0 f i NpPhysics.obj
 0001:0003bd70       ?replaceWithLast@?$HashBase@V?$Pair@QAVPxDeletionListener@physx@@PAUNpDelListenerEntry@NpPhysics@2@@shdfnd@physx@@PAVPxDeletionListener@3@U?$Hash@PAVPxDeletionListener@physx@@@23@UGetKey@?$HashMapBase@PAVPxDeletionListener@physx@@PAUNpDelListenerEntry@NpPhysics@2@U?$Hash@PAVPxDeletionListener@physx@@@shdfnd@2@VNonTrackingAllocator@62@@internal@23@VNonTrackingAllocator@23@$00@internal@shdfnd@physx@@AAEXI@Z 1003cd70 f i NpPhysics.obj
 0001:0003be10       ?reserveInternal@?$HashBase@PBVPxBase@physx@@PBV12@U?$Hash@PBVPxBase@physx@@@shdfnd@2@UGetKey@?$HashSetBase@PBVPxBase@physx@@U?$Hash@PBVPxBase@physx@@@shdfnd@2@VNonTrackingAllocator@42@$0A@@internal@42@VNonTrackingAllocator@42@$0A@@internal@shdfnd@physx@@AAEXI@Z 1003ce10 f i NpPhysics.obj
 0001:0003c070       ?reserveInternal@?$HashBase@V?$Pair@QAVPxDeletionListener@physx@@PAUNpDelListenerEntry@NpPhysics@2@@shdfnd@physx@@PAVPxDeletionListener@3@U?$Hash@PAVPxDeletionListener@physx@@@23@UGetKey@?$HashMapBase@PAVPxDeletionListener@physx@@PAUNpDelListenerEntry@NpPhysics@2@U?$Hash@PAVPxDeletionListener@physx@@@shdfnd@2@VNonTrackingAllocator@62@@internal@23@VNonTrackingAllocator@23@$00@internal@shdfnd@physx@@AAEXI@Z 1003d070 f i NpPhysics.obj
 0001:0003c210       ?resize@NpMaterialManager@physx@@AAEXXZ 1003d210 f i NpPhysics.obj
 0001:0003c290       ??0NpReadCheck@physx@@QAE@PBVNpScene@1@PBD@Z 1003d290 f   NpReadCheck.obj
 0001:0003c330       ??1NpReadCheck@physx@@QAE@XZ 1003d330 f   NpReadCheck.obj
 0001:0003c3a0       ?NpRigidDynamicGetShapes@physx@@YAIAAVBody@Scb@1@AAPBQAX@Z 1003d3a0 f   NpRigidDynamic.obj
 0001:0003c3d0       ?requires@NpRigidDynamic@physx@@UAEXAAVPxProcessPxBaseCallback@2@@Z 1003d3d0 f   NpRigidDynamic.obj
 0001:0003c420       ?createObject@NpRigidDynamic@physx@@SAPAV12@AAPAEAAVPxDeserializationContext@2@@Z 1003d420 f   NpRigidDynamic.obj
 0001:0003c480       ??1NpRigidDynamic@physx@@UAE@XZ 1003d480 f   NpRigidDynamic.obj
 0001:0003c4c0       ?release@NpRigidDynamic@physx@@UAEXXZ 1003d4c0 f   NpRigidDynamic.obj
 0001:0003c560       ?setGlobalPose@NpRigidDynamic@physx@@UAEXABVPxTransform@2@_N@Z 1003d560 f   NpRigidDynamic.obj
 0001:0003c900       ?setKinematicTarget@NpRigidDynamic@physx@@UAEXABVPxTransform@2@@Z 1003d900 f   NpRigidDynamic.obj
 0001:0003cbe0       ?getKinematicTarget@NpRigidDynamic@physx@@UBE_NAAVPxTransform@2@@Z 1003dbe0 f   NpRigidDynamic.obj
 0001:0003cfb0       ?setCMassLocalPose@NpRigidDynamic@physx@@UAEXABVPxTransform@2@@Z 1003dfb0 f   NpRigidDynamic.obj
 0001:0003d690       ?setLinearDamping@NpRigidDynamic@physx@@UAEXM@Z 1003e690 f   NpRigidDynamic.obj
 0001:0003d6b0       ?getLinearDamping@NpRigidDynamic@physx@@UBEMXZ 1003e6b0 f   NpRigidDynamic.obj
 0001:0003d6e0       ?setAngularDamping@NpRigidDynamic@physx@@UAEXM@Z 1003e6e0 f   NpRigidDynamic.obj
 0001:0003d700       ?getAngularDamping@NpRigidDynamic@physx@@UBEMXZ 1003e700 f   NpRigidDynamic.obj
 0001:0003d730       ?setLinearVelocity@NpRigidDynamic@physx@@UAEXABVPxVec3@2@_N@Z 1003e730 f   NpRigidDynamic.obj
 0001:0003d7b0       ?setAngularVelocity@NpRigidDynamic@physx@@UAEXABVPxVec3@2@_N@Z 1003e7b0 f   NpRigidDynamic.obj
 0001:0003d830       ?setMaxAngularVelocity@NpRigidDynamic@physx@@UAEXM@Z 1003e830 f   NpRigidDynamic.obj
 0001:0003d850       ?getMaxAngularVelocity@NpRigidDynamic@physx@@UBEMXZ 1003e850 f   NpRigidDynamic.obj
 0001:0003d8a0       ?addForce@NpRigidDynamic@physx@@UAEXABVPxVec3@2@W4Enum@PxForceMode@2@_N@Z 1003e8a0 f   NpRigidDynamic.obj
 0001:0003d950       ?clearForce@NpRigidDynamic@physx@@UAEXW4Enum@PxForceMode@2@@Z 1003e950 f   NpRigidDynamic.obj
 0001:0003d9a0       ?addTorque@NpRigidDynamic@physx@@UAEXABVPxVec3@2@W4Enum@PxForceMode@2@_N@Z 1003e9a0 f   NpRigidDynamic.obj
 0001:0003da50       ?clearTorque@NpRigidDynamic@physx@@UAEXW4Enum@PxForceMode@2@@Z 1003ea50 f   NpRigidDynamic.obj
 0001:0003daa0       ?isSleeping@NpRigidDynamic@physx@@UBE_NXZ 1003eaa0 f   NpRigidDynamic.obj
 0001:0003dab0       ?getSleepThreshold@NpRigidDynamic@physx@@UBEMXZ 1003eab0 f   NpRigidDynamic.obj
 0001:0003daf0       ?setSleepThreshold@NpRigidDynamic@physx@@UAEXM@Z 1003eaf0 f   NpRigidDynamic.obj
 0001:0003db10       ?getStabilizationThreshold@NpRigidDynamic@physx@@UBEMXZ 1003eb10 f   NpRigidDynamic.obj
 0001:0003db50       ?setStabilizationThreshold@NpRigidDynamic@physx@@UAEXM@Z 1003eb50 f   NpRigidDynamic.obj
 0001:0003db70       ?setWakeCounter@NpRigidDynamic@physx@@UAEXM@Z 1003eb70 f   NpRigidDynamic.obj
 0001:0003db90       ?getWakeCounter@NpRigidDynamic@physx@@UBEMXZ 1003eb90 f   NpRigidDynamic.obj
 0001:0003dba0       ?wakeUp@NpRigidDynamic@physx@@UAEXXZ 1003eba0 f   NpRigidDynamic.obj
 0001:0003dbc0       ?putToSleep@NpRigidDynamic@physx@@UAEXXZ 1003ebc0 f   NpRigidDynamic.obj
 0001:0003dbd0       ?setSolverIterationCounts@NpRigidDynamic@physx@@UAEXII@Z 1003ebd0 f   NpRigidDynamic.obj
 0001:0003dbf0       ?getSolverIterationCounts@NpRigidDynamic@physx@@UBEXAAI0@Z 1003ebf0 f   NpRigidDynamic.obj
 0001:0003dc30       ?setContactReportThreshold@NpRigidDynamic@physx@@UAEXM@Z 1003ec30 f   NpRigidDynamic.obj
 0001:0003dcb0       ?getContactReportThreshold@NpRigidDynamic@physx@@UBEMXZ 1003ecb0 f   NpRigidDynamic.obj
 0001:0003dcf0       ?getRigidDynamicLockFlags@NpRigidDynamic@physx@@UBE?AV?$PxFlags@W4Enum@PxRigidDynamicLockFlag@physx@@G@2@XZ 1003ecf0 f   NpRigidDynamic.obj
 0001:0003dd30       ?setRigidDynamicLockFlags@NpRigidDynamic@physx@@UAEXV?$PxFlags@W4Enum@PxRigidDynamicLockFlag@physx@@G@2@@Z 1003ed30 f   NpRigidDynamic.obj
 0001:0003dd50       ?setRigidDynamicLockFlag@NpRigidDynamic@physx@@UAEXW4Enum@PxRigidDynamicLockFlag@2@_N@Z 1003ed50 f   NpRigidDynamic.obj
 0001:0003ddc0       ??0NpRigidDynamic@physx@@QAE@ABVPxTransform@1@@Z 1003edc0 f   NpRigidDynamic.obj
 0001:0003de20       ?switchToNoSim@NpRigidDynamic@physx@@UAEXXZ 1003ee20 f   NpRigidDynamic.obj
 0001:0003df30       ?switchFromNoSim@NpRigidDynamic@physx@@UAEXXZ 1003ef30 f   NpRigidDynamic.obj
 0001:0003df50       ?wakeUpInternalNoKinematicTest@NpRigidDynamic@physx@@QAEXAAVBody@Scb@2@_N1@Z 1003ef50 f   NpRigidDynamic.obj
 0001:0003dfc0       ?visualize@NpRigidDynamic@physx@@QAEXAAVRenderOutput@Cm@2@PAVNpScene@2@@Z 1003efc0 f   NpRigidDynamic.obj
 0001:0003e220       ??0?$NpActorTemplate@VPxRigidDynamic@physx@@@physx@@QAE@GV?$PxFlags@W4Enum@PxBaseFlag@physx@@G@1@PBDPAX@Z 1003f220 f i NpRigidDynamic.obj
 0001:0003e270       ??0?$NpRigidActorTemplate@VPxRigidDynamic@physx@@@physx@@QAE@GV?$PxFlags@W4Enum@PxBaseFlag@physx@@G@1@@Z 1003f270 f i NpRigidDynamic.obj
 0001:0003e2c0       ??0?$NpRigidBodyTemplate@VPxRigidDynamic@physx@@@physx@@QAE@GV?$PxFlags@W4Enum@PxBaseFlag@physx@@G@1@W4Enum@PxActorType@1@ABVPxTransform@1@@Z 1003f2c0 f i NpRigidDynamic.obj
 0001:0003e320       ??0?$NpRigidBodyTemplate@VPxRigidDynamic@physx@@@physx@@QAE@V?$PxFlags@W4Enum@PxBaseFlag@physx@@G@1@@Z 1003f320 f i NpRigidDynamic.obj
 0001:0003e390       ??1?$NpActorTemplate@VPxRigidDynamic@physx@@@physx@@UAE@XZ 1003f390 f i NpRigidDynamic.obj
 0001:0003e3c0       ??1?$NpRigidActorTemplate@VPxRigidDynamic@physx@@@physx@@UAE@XZ 1003f3c0 f i NpRigidDynamic.obj
 0001:0003e3f0       ??1?$NpRigidBodyTemplate@VPxRigidDynamic@physx@@@physx@@UAE@XZ 1003f3f0 f i NpRigidDynamic.obj
 0001:0003e430       ??1PxRigidDynamic@physx@@MAE@XZ 1003f430 f i NpRigidDynamic.obj
 0001:0003e440       ??_G?$NpActorTemplate@VPxRigidDynamic@physx@@@physx@@UAEPAXI@Z 1003f440 f i NpRigidDynamic.obj
 0001:0003e440       ??_E?$NpActorTemplate@VPxRigidDynamic@physx@@@physx@@UAEPAXI@Z 1003f440 f i NpRigidDynamic.obj
 0001:0003e4a0       ??_E?$NpRigidActorTemplate@VPxRigidDynamic@physx@@@physx@@UAEPAXI@Z 1003f4a0 f i NpRigidDynamic.obj
 0001:0003e4a0       ??_G?$NpRigidActorTemplate@VPxRigidDynamic@physx@@@physx@@UAEPAXI@Z 1003f4a0 f i NpRigidDynamic.obj
 0001:0003e510       ??_E?$NpRigidBodyTemplate@VPxRigidDynamic@physx@@@physx@@UAEPAXI@Z 1003f510 f i NpRigidDynamic.obj
 0001:0003e510       ??_G?$NpRigidBodyTemplate@VPxRigidDynamic@physx@@@physx@@UAEPAXI@Z 1003f510 f i NpRigidDynamic.obj
 0001:0003e590       ??_ENpRigidDynamic@physx@@UAEPAXI@Z 1003f590 f i NpRigidDynamic.obj
 0001:0003e590       ??_GNpRigidDynamic@physx@@UAEPAXI@Z 1003f590 f i NpRigidDynamic.obj
 0001:0003e610       ??_GPxRigidDynamic@physx@@MAEPAXI@Z 1003f610 f i NpRigidDynamic.obj
 0001:0003e610       ??_EPxRigidDynamic@physx@@MAEPAXI@Z 1003f610 f i NpRigidDynamic.obj
 0001:0003e640       ?addSpatialForce@?$NpRigidBodyTemplate@VPxRigidDynamic@physx@@@physx@@IAEXPBVPxVec3@2@0W4Enum@PxForceMode@2@@Z 1003f640 f i NpRigidDynamic.obj
 0001:0003e8b0       ?attachShape@?$NpRigidActorTemplate@VPxRigidDynamic@physx@@@physx@@UAEXAAVPxShape@2@@Z 1003f8b0 f i NpRigidDynamic.obj
 0001:0003e920       ?attachShape@?$NpRigidBodyTemplate@VPxRigidDynamic@physx@@@physx@@UAEXAAVPxShape@2@@Z 1003f920 f i NpRigidDynamic.obj
 0001:0003e990       ?clearSpatialForce@?$NpRigidBodyTemplate@VPxRigidDynamic@physx@@@physx@@IAEXW4Enum@PxForceMode@2@_N1@Z 1003f990 f i NpRigidDynamic.obj
 0001:0003e9e0       ?createShape@?$NpRigidBodyTemplate@VPxRigidDynamic@physx@@@physx@@UAEPAVPxShape@2@ABVPxGeometry@2@PBQAVPxMaterial@2@GV?$PxFlags@W4Enum@PxShapeFlag@physx@@E@2@@Z 1003f9e0 f i NpRigidDynamic.obj
 0001:0003ea30       ?detachShape@?$NpRigidActorTemplate@VPxRigidDynamic@physx@@@physx@@UAEXAAVPxShape@2@_N@Z 1003fa30 f i NpRigidDynamic.obj
 0001:0003ea80       ?exportExtraData@?$NpActorTemplate@VPxRigidDynamic@physx@@@physx@@UAEXAAVPxSerializationContext@2@@Z 1003fa80 f i NpRigidDynamic.obj
 0001:0003ea90       ?exportExtraData@?$NpRigidActorTemplate@VPxRigidDynamic@physx@@@physx@@UAEXAAVPxSerializationContext@2@@Z 1003fa90 f i NpRigidDynamic.obj
 0001:0003eac0       ?getActorFlags@?$NpActorTemplate@VPxRigidDynamic@physx@@@physx@@UBE?AV?$PxFlags@W4Enum@PxActorFlag@physx@@E@2@XZ 1003fac0 f i NpRigidDynamic.obj
 0001:0003eb00       ?getAggregate@?$NpActorTemplate@VPxRigidDynamic@physx@@@physx@@UBEPAVPxAggregate@2@XZ 1003fb00 f i NpRigidDynamic.obj
 0001:0003eb10       ?getAngularVelocity@?$NpRigidBodyTemplate@VPxRigidDynamic@physx@@@physx@@UBE?AVPxVec3@2@XZ 1003fb10 f i NpRigidDynamic.obj
 0001:0003eb40       ?getCMassLocalPose@?$NpRigidBodyTemplate@VPxRigidDynamic@physx@@@physx@@UBE?AVPxTransform@2@XZ 1003fb40 f i NpRigidDynamic.obj
 0001:0003eb90       ?getClientBehaviorFlags@?$NpActorTemplate@VPxRigidDynamic@physx@@@physx@@UBE?AV?$PxFlags@W4Enum@PxActorClientBehaviorFlag@physx@@E@2@XZ 1003fb90 f i NpRigidDynamic.obj
 0001:0003ebe0       ?getConcreteTypeName@PxRigidDynamic@physx@@UBEPBDXZ 1003fbe0 f i NpRigidDynamic.obj
 0001:0003ebf0       ?getConstraints@?$NpRigidActorTemplate@VPxRigidDynamic@physx@@@physx@@UBEIPAPAVPxConstraint@2@II@Z 1003fbf0 f i NpRigidDynamic.obj
 0001:0003ec10       ?getDominanceGroup@?$NpActorTemplate@VPxRigidDynamic@physx@@@physx@@UBEEXZ 1003fc10 f i NpRigidDynamic.obj
 0001:0003ec40       ?getGlobalPose@NpRigidDynamic@physx@@UBE?AVPxTransform@2@XZ 1003fc40 f i NpRigidDynamic.obj
 0001:0003f010       ?getInvMass@?$NpRigidBodyTemplate@VPxRigidDynamic@physx@@@physx@@UBEMXZ 10040010 f i NpRigidDynamic.obj
 0001:0003f040       ?getLinearVelocity@?$NpRigidBodyTemplate@VPxRigidDynamic@physx@@@physx@@UBE?AVPxVec3@2@XZ 10040040 f i NpRigidDynamic.obj
 0001:0003f070       ?getMass@?$NpRigidBodyTemplate@VPxRigidDynamic@physx@@@physx@@UBEMXZ 10040070 f i NpRigidDynamic.obj
 0001:0003f0d0       ?getMassSpaceInertiaTensor@?$NpRigidBodyTemplate@VPxRigidDynamic@physx@@@physx@@UBE?AVPxVec3@2@XZ 100400d0 f i NpRigidDynamic.obj
 0001:0003f160       ?getMassSpaceInvInertiaTensor@?$NpRigidBodyTemplate@VPxRigidDynamic@physx@@@physx@@UBE?AVPxVec3@2@XZ 10040160 f i NpRigidDynamic.obj
 0001:0003f1a0       ?getMaxContactImpulse@?$NpRigidBodyTemplate@VPxRigidDynamic@physx@@@physx@@UBEMXZ 100401a0 f i NpRigidDynamic.obj
 0001:0003f1e0       ?getMaxDepenetrationVelocity@?$NpRigidBodyTemplate@VPxRigidDynamic@physx@@@physx@@UBEMXZ 100401e0 f i NpRigidDynamic.obj
 0001:0003f230       ?getMinCCDAdvanceCoefficient@?$NpRigidBodyTemplate@VPxRigidDynamic@physx@@@physx@@UBEMXZ 10040230 f i NpRigidDynamic.obj
 0001:0003f270       ?getName@?$NpActorTemplate@VPxRigidDynamic@physx@@@physx@@UBEPBDXZ 10040270 f i NpRigidDynamic.obj
 0001:0003f280       ?getNbConstraints@?$NpRigidActorTemplate@VPxRigidDynamic@physx@@@physx@@UBEIXZ 10040280 f i NpRigidDynamic.obj
 0001:0003f290       ?getNbShapes@?$NpRigidActorTemplate@VPxRigidDynamic@physx@@@physx@@UBEIXZ 10040290 f i NpRigidDynamic.obj
 0001:0003f2a0       ?getOwnerClient@?$NpActorTemplate@VPxRigidDynamic@physx@@@physx@@UBEEXZ 100402a0 f i NpRigidDynamic.obj
 0001:0003f2d0       ?getRigidBodyFlags@?$NpRigidBodyTemplate@VPxRigidDynamic@physx@@@physx@@UBE?AV?$PxFlags@W4Enum@PxRigidBodyFlag@physx@@E@2@XZ 100402d0 f i NpRigidDynamic.obj
 0001:0003f300       ?getScene@?$NpActorTemplate@VPxRigidDynamic@physx@@@physx@@UBEPAVPxScene@2@XZ 10040300 f i NpRigidDynamic.obj
 0001:0003f310       ?getShapes@?$NpRigidActorTemplate@VPxRigidDynamic@physx@@@physx@@UBEIPAPAVPxShape@2@II@Z 10040310 f i NpRigidDynamic.obj
 0001:0003f320       ?getType@NpRigidDynamic@physx@@UBE?AW4Enum@PxActorType@2@XZ 10040320 f i NpRigidDynamic.obj
 0001:0003f330       ?getWorldBounds@?$NpRigidActorTemplate@VPxRigidDynamic@physx@@@physx@@UBE?AVPxBounds3@2@M@Z 10040330 f i NpRigidDynamic.obj
 0001:0003f440       ?importExtraData@?$NpRigidActorTemplate@VPxRigidDynamic@physx@@@physx@@QAEXAAVPxDeserializationContext@2@@Z 10040440 f i NpRigidDynamic.obj
 0001:0003f470       ?isKindOf@PxRigidDynamic@physx@@MBE_NPBD@Z 10040470 f i NpRigidDynamic.obj
 0001:0003f4d0       ?release@?$NpActorTemplate@VPxRigidDynamic@physx@@@physx@@UAEXXZ 100404d0 f i NpRigidDynamic.obj
 0001:0003f4e0       ?release@?$NpRigidActorTemplate@VPxRigidDynamic@physx@@@physx@@UAEXXZ 100404e0 f i NpRigidDynamic.obj
 0001:0003f540       ?requires@?$NpRigidActorTemplate@VPxRigidDynamic@physx@@@physx@@UAEXAAVPxProcessPxBaseCallback@2@@Z 10040540 f i NpRigidDynamic.obj
 0001:0003f590       ?resolveReferences@?$NpActorTemplate@VPxRigidDynamic@physx@@@physx@@UAEXAAVPxDeserializationContext@2@@Z 10040590 f i NpRigidDynamic.obj
 0001:0003f5a0       ?resolveReferences@?$NpRigidActorTemplate@VPxRigidDynamic@physx@@@physx@@UAEXAAVPxDeserializationContext@2@@Z 100405a0 f i NpRigidDynamic.obj
 0001:0003f600       ?setActorFlag@?$NpActorTemplate@VPxRigidDynamic@physx@@@physx@@UAEXW4Enum@PxActorFlag@2@_N@Z 10040600 f i NpRigidDynamic.obj
 0001:0003f6b0       ?setActorFlag@?$NpRigidActorTemplate@VPxRigidDynamic@physx@@@physx@@UAEXW4Enum@PxActorFlag@2@_N@Z 100406b0 f i NpRigidDynamic.obj
 0001:0003f820       ?setActorFlags@?$NpActorTemplate@VPxRigidDynamic@physx@@@physx@@UAEXV?$PxFlags@W4Enum@PxActorFlag@physx@@E@2@@Z 10040820 f i NpRigidDynamic.obj
 0001:0003f850       ?setActorFlags@?$NpRigidActorTemplate@VPxRigidDynamic@physx@@@physx@@UAEXV?$PxFlags@W4Enum@PxActorFlag@physx@@E@2@@Z 10040850 f i NpRigidDynamic.obj
 0001:0003f940       ?setAngularDamping@Body@Scb@physx@@QAEXM@Z 10040940 f i NpRigidDynamic.obj
 0001:0003f9c0       ?setCMassLocalPoseInternal@?$NpRigidBodyTemplate@VPxRigidDynamic@physx@@@physx@@IAEXABVPxTransform@2@@Z 100409c0 f i NpRigidDynamic.obj
 0001:0003fc10       ?setClientBehaviorFlags@?$NpActorTemplate@VPxRigidDynamic@physx@@@physx@@UAEXV?$PxFlags@W4Enum@PxActorClientBehaviorFlag@physx@@E@2@@Z 10040c10 f i NpRigidDynamic.obj
 0001:0003fc40       ?setClientBehaviorFlags@?$NpRigidActorTemplate@VPxRigidDynamic@physx@@@physx@@UAEXV?$PxFlags@W4Enum@PxActorClientBehaviorFlag@physx@@E@2@@Z 10040c40 f i NpRigidDynamic.obj
 0001:0003fc90       ?setDominanceGroup@?$NpActorTemplate@VPxRigidDynamic@physx@@@physx@@UAEXE@Z 10040c90 f i NpRigidDynamic.obj
 0001:0003fcb0       ?setFreezeThreshold@Body@Scb@physx@@QAEXM@Z 10040cb0 f i NpRigidDynamic.obj
 0001:0003fd30       ?setKinematicTarget@Body@Scb@physx@@QAEXABVPxTransform@3@@Z 10040d30 f i NpRigidDynamic.obj
 0001:0003fe20       ?setLinearDamping@Body@Scb@physx@@QAEXM@Z 10040e20 f i NpRigidDynamic.obj
 0001:0003fea0       ?setLockFlags@Body@Scb@physx@@QAEXV?$PxFlags@W4Enum@PxRigidDynamicLockFlag@physx@@G@3@@Z 10040ea0 f i NpRigidDynamic.obj
 0001:0003ff10       ?setMass@?$NpRigidBodyTemplate@VPxRigidDynamic@physx@@@physx@@UAEXM@Z 10040f10 f i NpRigidDynamic.obj
 0001:0003ff40       ?setMassSpaceInertiaTensor@?$NpRigidBodyTemplate@VPxRigidDynamic@physx@@@physx@@UAEXABVPxVec3@2@@Z 10040f40 f i NpRigidDynamic.obj
 0001:0003ffc0       ?setMaxAngVelSq@Body@Scb@physx@@QAEXM@Z 10040fc0 f i NpRigidDynamic.obj
 0001:00040040       ?setMaxContactImpulse@?$NpRigidBodyTemplate@VPxRigidDynamic@physx@@@physx@@UAEXM@Z 10041040 f i NpRigidDynamic.obj
 0001:00040060       ?setMaxDepenetrationVelocity@?$NpRigidBodyTemplate@VPxRigidDynamic@physx@@@physx@@UAEXM@Z 10041060 f i NpRigidDynamic.obj
 0001:000400e0       ?setMinCCDAdvanceCoefficient@?$NpRigidBodyTemplate@VPxRigidDynamic@physx@@@physx@@UAEXM@Z 100410e0 f i NpRigidDynamic.obj
 0001:00040150       ?setName@?$NpActorTemplate@VPxRigidDynamic@physx@@@physx@@UAEXPBD@Z 10041150 f i NpRigidDynamic.obj
 0001:00040160       ?setOwnerClient@?$NpActorTemplate@VPxRigidDynamic@physx@@@physx@@UAEXE@Z 10041160 f i NpRigidDynamic.obj
 0001:000401c0       ?setRigidBodyFlag@?$NpRigidBodyTemplate@VPxRigidDynamic@physx@@@physx@@UAEXW4Enum@PxRigidBodyFlag@2@_N@Z 100411c0 f i NpRigidDynamic.obj
 0001:000404b0       ?setRigidBodyFlags@?$NpRigidBodyTemplate@VPxRigidDynamic@physx@@@physx@@UAEXV?$PxFlags@W4Enum@PxRigidBodyFlag@physx@@E@2@@Z 100414b0 f i NpRigidDynamic.obj
 0001:00040780       ?setSleepThreshold@Body@Scb@physx@@QAEXM@Z 10041780 f i NpRigidDynamic.obj
 0001:00040800       ?setSolverIterationCounts@Body@Scb@physx@@QAEXG@Z 10041800 f i NpRigidDynamic.obj
 0001:00040870       ?setWakeCounter@Body@Scb@physx@@QAEXM@Z 10041870 f i NpRigidDynamic.obj
 0001:00040900       ?switchFromNoSim@?$NpRigidActorTemplate@VPxRigidDynamic@physx@@@physx@@UAEXXZ 10041900 f i NpRigidDynamic.obj
 0001:00040910       ?switchToNoSim@?$NpRigidActorTemplate@VPxRigidDynamic@physx@@@physx@@UAEXXZ 10041910 f i NpRigidDynamic.obj
 0001:00040920       ?updateShaderComs@?$NpRigidActorTemplate@VPxRigidDynamic@physx@@@physx@@QAEXXZ 10041920 f i NpRigidDynamic.obj
 0001:00040970       ?visualize@?$NpRigidActorTemplate@VPxRigidDynamic@physx@@@physx@@QAEXAAVRenderOutput@Cm@2@PAVNpScene@2@@Z 10041970 f i NpRigidDynamic.obj
 0001:00040990       ?visualize@?$NpRigidBodyTemplate@VPxRigidDynamic@physx@@@physx@@QAEXAAVRenderOutput@Cm@2@PAVNpScene@2@@Z 10041990 f i NpRigidDynamic.obj
 0001:00040ce0       ?NpRigidStaticGetShapes@physx@@YAIAAVRigidStatic@Scb@1@AAPBQAX@Z 10041ce0 f   NpRigidStatic.obj
 0001:00040d20       ?requires@NpRigidStatic@physx@@UAEXAAVPxProcessPxBaseCallback@2@@Z 10041d20 f   NpRigidStatic.obj
 0001:00040d70       ?createObject@NpRigidStatic@physx@@SAPAV12@AAPAEAAVPxDeserializationContext@2@@Z 10041d70 f   NpRigidStatic.obj
 0001:00040df0       ??1NpRigidStatic@physx@@UAE@XZ 10041df0 f   NpRigidStatic.obj
 0001:00040e30       ?release@NpRigidStatic@physx@@UAEXXZ 10041e30 f   NpRigidStatic.obj
 0001:00040ed0       ?createShape@NpRigidStatic@physx@@UAEPAVPxShape@2@ABVPxGeometry@2@PBQAVPxMaterial@2@GV?$PxFlags@W4Enum@PxShapeFlag@physx@@E@2@@Z 10041ed0 f   NpRigidStatic.obj
 0001:00040f20       ?setGlobalPose@NpRigidStatic@physx@@UAEXABVPxTransform@2@_N@Z 10041f20 f   NpRigidStatic.obj
 0001:00041030       ?getGlobalPose@NpRigidStatic@physx@@UBE?AVPxTransform@2@XZ 10042030 f   NpRigidStatic.obj
 0001:00041080       ??0NpRigidStatic@physx@@QAE@ABVPxTransform@1@@Z 10042080 f   NpRigidStatic.obj
 0001:000410e0       ?switchToNoSim@NpRigidStatic@physx@@UAEXXZ 100420e0 f   NpRigidStatic.obj
 0001:00041100       ?switchFromNoSim@NpRigidStatic@physx@@UAEXXZ 10042100 f   NpRigidStatic.obj
 0001:00041120       ?visualize@NpRigidStatic@physx@@QAEXAAVRenderOutput@Cm@2@PAVNpScene@2@@Z 10042120 f   NpRigidStatic.obj
 0001:00041230       ??0?$NpActorTemplate@VPxRigidStatic@physx@@@physx@@QAE@GV?$PxFlags@W4Enum@PxBaseFlag@physx@@G@1@PBDPAX@Z 10042230 f i NpRigidStatic.obj
 0001:00041280       ??0?$NpRigidActorTemplate@VPxRigidStatic@physx@@@physx@@QAE@GV?$PxFlags@W4Enum@PxBaseFlag@physx@@G@1@@Z 10042280 f i NpRigidStatic.obj
 0001:000412d0       ??0RigidStatic@Scb@physx@@QAE@ABVPxTransform@2@@Z 100422d0 f i NpRigidStatic.obj
 0001:00041350       ??1?$NpActorTemplate@VPxRigidStatic@physx@@@physx@@UAE@XZ 10042350 f i NpRigidStatic.obj
 0001:00041380       ??1?$NpRigidActorTemplate@VPxRigidStatic@physx@@@physx@@UAE@XZ 10042380 f i NpRigidStatic.obj
 0001:000413b0       ??1PxRigidStatic@physx@@MAE@XZ 100423b0 f i NpRigidStatic.obj
 0001:000413c0       ??_G?$NpActorTemplate@VPxRigidStatic@physx@@@physx@@UAEPAXI@Z 100423c0 f i NpRigidStatic.obj
 0001:000413c0       ??_E?$NpActorTemplate@VPxRigidStatic@physx@@@physx@@UAEPAXI@Z 100423c0 f i NpRigidStatic.obj
 0001:00041420       ??_E?$NpRigidActorTemplate@VPxRigidStatic@physx@@@physx@@UAEPAXI@Z 10042420 f i NpRigidStatic.obj
 0001:00041420       ??_G?$NpRigidActorTemplate@VPxRigidStatic@physx@@@physx@@UAEPAXI@Z 10042420 f i NpRigidStatic.obj
 0001:00041490       ??_GNpRigidStatic@physx@@UAEPAXI@Z 10042490 f i NpRigidStatic.obj
 0001:00041490       ??_ENpRigidStatic@physx@@UAEPAXI@Z 10042490 f i NpRigidStatic.obj
 0001:00041510       ??_EPxRigidStatic@physx@@MAEPAXI@Z 10042510 f i NpRigidStatic.obj
 0001:00041510       ??_GPxRigidStatic@physx@@MAEPAXI@Z 10042510 f i NpRigidStatic.obj
 0001:00041540       ?attachShape@?$NpRigidActorTemplate@VPxRigidStatic@physx@@@physx@@UAEXAAVPxShape@2@@Z 10042540 f i NpRigidStatic.obj
 0001:000415b0       ?detachShape@?$NpRigidActorTemplate@VPxRigidStatic@physx@@@physx@@UAEXAAVPxShape@2@_N@Z 100425b0 f i NpRigidStatic.obj
 0001:00041600       ?exportExtraData@?$NpActorTemplate@VPxRigidStatic@physx@@@physx@@UAEXAAVPxSerializationContext@2@@Z 10042600 f i NpRigidStatic.obj
 0001:00041610       ?exportExtraData@?$NpRigidActorTemplate@VPxRigidStatic@physx@@@physx@@UAEXAAVPxSerializationContext@2@@Z 10042610 f i NpRigidStatic.obj
 0001:00041640       ?getActorFlags@?$NpActorTemplate@VPxRigidStatic@physx@@@physx@@UBE?AV?$PxFlags@W4Enum@PxActorFlag@physx@@E@2@XZ 10042640 f i NpRigidStatic.obj
 0001:00041680       ?getAggregate@?$NpActorTemplate@VPxRigidStatic@physx@@@physx@@UBEPAVPxAggregate@2@XZ 10042680 f i NpRigidStatic.obj
 0001:00041690       ?getClientBehaviorFlags@?$NpActorTemplate@VPxRigidStatic@physx@@@physx@@UBE?AV?$PxFlags@W4Enum@PxActorClientBehaviorFlag@physx@@E@2@XZ 10042690 f i NpRigidStatic.obj
 0001:000416e0       ?getConcreteTypeName@PxRigidStatic@physx@@UBEPBDXZ 100426e0 f i NpRigidStatic.obj
 0001:000416f0       ?getConstraints@?$NpRigidActorTemplate@VPxRigidStatic@physx@@@physx@@UBEIPAPAVPxConstraint@2@II@Z 100426f0 f i NpRigidStatic.obj
 0001:00041710       ?getDominanceGroup@?$NpActorTemplate@VPxRigidStatic@physx@@@physx@@UBEEXZ 10042710 f i NpRigidStatic.obj
 0001:00041740       ?getName@?$NpActorTemplate@VPxRigidStatic@physx@@@physx@@UBEPBDXZ 10042740 f i NpRigidStatic.obj
 0001:00041750       ?getNbConstraints@?$NpRigidActorTemplate@VPxRigidStatic@physx@@@physx@@UBEIXZ 10042750 f i NpRigidStatic.obj
 0001:00041760       ?getNbShapes@?$NpRigidActorTemplate@VPxRigidStatic@physx@@@physx@@UBEIXZ 10042760 f i NpRigidStatic.obj
 0001:00041770       ?getOwnerClient@?$NpActorTemplate@VPxRigidStatic@physx@@@physx@@UBEEXZ 10042770 f i NpRigidStatic.obj
 0001:000417a0       ?getScene@?$NpActorTemplate@VPxRigidStatic@physx@@@physx@@UBEPAVPxScene@2@XZ 100427a0 f i NpRigidStatic.obj
 0001:000417b0       ?getShapes@?$NpRigidActorTemplate@VPxRigidStatic@physx@@@physx@@UBEIPAPAVPxShape@2@II@Z 100427b0 f i NpRigidStatic.obj
 0001:000417c0       ?getType@NpRigidStatic@physx@@UBE?AW4Enum@PxActorType@2@XZ 100427c0 f i NpRigidStatic.obj
 0001:000417d0       ?getWorldBounds@?$NpRigidActorTemplate@VPxRigidStatic@physx@@@physx@@UBE?AVPxBounds3@2@M@Z 100427d0 f i NpRigidStatic.obj
 0001:000418e0       ?importExtraData@?$NpRigidActorTemplate@VPxRigidStatic@physx@@@physx@@QAEXAAVPxDeserializationContext@2@@Z 100428e0 f i NpRigidStatic.obj
 0001:00041910       ?isKindOf@PxRigidStatic@physx@@MBE_NPBD@Z 10042910 f i NpRigidStatic.obj
 0001:000419a0       ?release@?$NpActorTemplate@VPxRigidStatic@physx@@@physx@@UAEXXZ 100429a0 f i NpRigidStatic.obj
 0001:000419b0       ?release@?$NpRigidActorTemplate@VPxRigidStatic@physx@@@physx@@UAEXXZ 100429b0 f i NpRigidStatic.obj
 0001:00041a10       ?requires@?$NpRigidActorTemplate@VPxRigidStatic@physx@@@physx@@UAEXAAVPxProcessPxBaseCallback@2@@Z 10042a10 f i NpRigidStatic.obj
 0001:00041a60       ?resolveReferences@?$NpActorTemplate@VPxRigidStatic@physx@@@physx@@UAEXAAVPxDeserializationContext@2@@Z 10042a60 f i NpRigidStatic.obj
 0001:00041a70       ?resolveReferences@?$NpRigidActorTemplate@VPxRigidStatic@physx@@@physx@@UAEXAAVPxDeserializationContext@2@@Z 10042a70 f i NpRigidStatic.obj
 0001:00041ad0       ?setActor2World@RigidStatic@Scb@physx@@QAEXABVPxTransform@3@@Z 10042ad0 f i NpRigidStatic.obj
 0001:00041b60       ?setActorFlag@?$NpActorTemplate@VPxRigidStatic@physx@@@physx@@UAEXW4Enum@PxActorFlag@2@_N@Z 10042b60 f i NpRigidStatic.obj
 0001:00041c10       ?setActorFlag@?$NpRigidActorTemplate@VPxRigidStatic@physx@@@physx@@UAEXW4Enum@PxActorFlag@2@_N@Z 10042c10 f i NpRigidStatic.obj
 0001:00041d80       ?setActorFlags@?$NpActorTemplate@VPxRigidStatic@physx@@@physx@@UAEXV?$PxFlags@W4Enum@PxActorFlag@physx@@E@2@@Z 10042d80 f i NpRigidStatic.obj
 0001:00041db0       ?setActorFlags@?$NpRigidActorTemplate@VPxRigidStatic@physx@@@physx@@UAEXV?$PxFlags@W4Enum@PxActorFlag@physx@@E@2@@Z 10042db0 f i NpRigidStatic.obj
 0001:00041ea0       ?setClientBehaviorFlags@?$NpActorTemplate@VPxRigidStatic@physx@@@physx@@UAEXV?$PxFlags@W4Enum@PxActorClientBehaviorFlag@physx@@E@2@@Z 10042ea0 f i NpRigidStatic.obj
 0001:00041ed0       ?setClientBehaviorFlags@?$NpRigidActorTemplate@VPxRigidStatic@physx@@@physx@@UAEXV?$PxFlags@W4Enum@PxActorClientBehaviorFlag@physx@@E@2@@Z 10042ed0 f i NpRigidStatic.obj
 0001:00041f20       ?setDominanceGroup@?$NpActorTemplate@VPxRigidStatic@physx@@@physx@@UAEXE@Z 10042f20 f i NpRigidStatic.obj
 0001:00041f40       ?setName@?$NpActorTemplate@VPxRigidStatic@physx@@@physx@@UAEXPBD@Z 10042f40 f i NpRigidStatic.obj
 0001:00041f50       ?setOwnerClient@?$NpActorTemplate@VPxRigidStatic@physx@@@physx@@UAEXE@Z 10042f50 f i NpRigidStatic.obj
 0001:00041fb0       ?switchFromNoSim@?$NpRigidActorTemplate@VPxRigidStatic@physx@@@physx@@UAEXXZ 10042fb0 f i NpRigidStatic.obj
 0001:00041fc0       ?switchToNoSim@?$NpRigidActorTemplate@VPxRigidStatic@physx@@@physx@@UAEXXZ 10042fc0 f i NpRigidStatic.obj
 0001:00041fd0       ?updateShaderComs@?$NpRigidActorTemplate@VPxRigidStatic@physx@@@physx@@QAEXXZ 10042fd0 f i NpRigidStatic.obj
 0001:00042020       ?visualize@?$NpRigidActorTemplate@VPxRigidStatic@physx@@@physx@@QAEXAAVRenderOutput@Cm@2@PAVNpScene@2@@Z 10043020 f i NpRigidStatic.obj
 0001:00042040       ??0NpSceneQueries@physx@@QAE@ABVPxSceneDesc@1@@Z 10043040 f   NpScene.obj
 0001:000420b0       ??1NpSceneQueries@physx@@UAE@XZ 100430b0 f   NpScene.obj
 0001:000420e0       ?setData@NpContactCallbackTask@physx@@QAEXPAVNpScene@2@PBUPxContactPairHeader@2@I@Z 100430e0 f   NpScene.obj
 0001:00042100       ?run@NpContactCallbackTask@physx@@UAEXXZ 10043100 f   NpScene.obj
 0001:00042220       ?release@NpScene@physx@@UAEXXZ 10043220 f   NpScene.obj
 0001:000422d0       ?setFlag@NpScene@physx@@UAEXW4Enum@PxSceneFlag@2@_N@Z 100432d0 f   NpScene.obj
 0001:00042350       ?getFlags@NpScene@physx@@UBE?AV?$PxFlags@W4Enum@PxSceneFlag@physx@@I@2@XZ 10043350 f   NpScene.obj
 0001:00042380       ?setGravity@NpScene@physx@@UAEXABVPxVec3@2@@Z 10043380 f   NpScene.obj
 0001:00042390       ?getGravity@NpScene@physx@@UBE?AVPxVec3@2@XZ 10043390 f   NpScene.obj
 0001:000423e0       ?setBounceThresholdVelocity@NpScene@physx@@UAEXM@Z 100433e0 f   NpScene.obj
 0001:00042420       ?getBounceThresholdVelocity@NpScene@physx@@UBEMXZ 10043420 f   NpScene.obj
 0001:00042450       ?getFrictionOffsetThreshold@NpScene@physx@@UBEMXZ 10043450 f   NpScene.obj
 0001:00042460       ?setLimits@NpScene@physx@@UAEXABVPxSceneLimits@2@@Z 10043460 f   NpScene.obj
 0001:000424e0       ?getLimits@NpScene@physx@@UBE?AVPxSceneLimits@2@XZ 100434e0 f   NpScene.obj
 0001:00042510       ?addActor@NpScene@physx@@UAEXAAVPxActor@2@@Z 10043510 f   NpScene.obj
 0001:00042640       ?removeActor@NpScene@physx@@UAEXAAVPxActor@2@_N@Z 10043640 f   NpScene.obj
 0001:000426a0       ?getNbConstraints@NpScene@physx@@UBEIXZ 100436a0 f   NpScene.obj
 0001:000426b0       ?getConstraints@NpScene@physx@@UBEIPAPAVPxConstraint@2@II@Z 100436b0 f   NpScene.obj
 0001:00042700       ?addArticulation@NpScene@physx@@UAEXAAVPxArticulation@2@@Z 10043700 f   NpScene.obj
 0001:000427e0       ?removeArticulation@NpScene@physx@@UAEXAAVPxArticulation@2@_N@Z 100437e0 f   NpScene.obj
 0001:00042840       ?getNbArticulations@NpScene@physx@@UBEIXZ 10043840 f   NpScene.obj
 0001:00042850       ?getArticulations@NpScene@physx@@UBEIPAPAVPxArticulation@2@II@Z 10043850 f   NpScene.obj
 0001:000428a0       ?addAggregate@NpScene@physx@@UAEXAAVPxAggregate@2@@Z 100438a0 f   NpScene.obj
 0001:00042990       ?removeAggregate@NpScene@physx@@UAEXAAVPxAggregate@2@_N@Z 10043990 f   NpScene.obj
 0001:00042ad0       ?getNbAggregates@NpScene@physx@@UBEIXZ 10043ad0 f   NpScene.obj
 0001:00042ae0       ?getAggregates@NpScene@physx@@UBEIPAPAVPxAggregate@2@II@Z 10043ae0 f   NpScene.obj
 0001:00042b30       ?addCollection@NpScene@physx@@UAEXABVPxCollection@2@@Z 10043b30 f   NpScene.obj
 0001:00042cd0       ?setDominanceGroupPair@NpScene@physx@@UAEXEEABUPxDominanceGroupPair@2@@Z 10043cd0 f   NpScene.obj
 0001:00042d20       ?getDominanceGroupPair@NpScene@physx@@UBE?AUPxDominanceGroupPair@2@EE@Z 10043d20 f   NpScene.obj
 0001:00042d80       ?getNbActors@NpScene@physx@@UBEIV?$PxFlags@W4Enum@PxActorTypeFlag@physx@@G@2@@Z 10043d80 f   NpScene.obj
 0001:00042ea0       ?getActors@NpScene@physx@@UBEIV?$PxFlags@W4Enum@PxActorTypeFlag@physx@@G@2@PAPAVPxActor@2@II@Z 10043ea0 f   NpScene.obj
 0001:00042fe0       ?getActiveTransforms@NpScene@physx@@UAEPBUPxActiveTransform@2@AAIE@Z 10043fe0 f   NpScene.obj
 0001:00043030       ?getActiveActors@NpScene@physx@@UAEPAPAVPxActor@2@AAIE@Z 10044030 f   NpScene.obj
 0001:00043080       ?getSimulationStatistics@NpScene@physx@@UBEXAAVPxSimulationStatistics@2@@Z 10044080 f   NpScene.obj
 0001:000430c0       ?createClient@NpScene@physx@@UAEEXZ 100440c0 f   NpScene.obj
 0001:000430d0       ?setClientBehaviorFlags@NpScene@physx@@UAEXEV?$PxFlags@W4Enum@PxClientBehaviorFlag@physx@@E@2@@Z 100440d0 f   NpScene.obj
 0001:00043110       ?getClientBehaviorFlags@NpScene@physx@@UBE?AV?$PxFlags@W4Enum@PxClientBehaviorFlag@physx@@E@2@E@Z 10044110 f   NpScene.obj
 0001:00043160       ?setFrictionType@NpScene@physx@@UAEXW4Enum@PxFrictionType@2@@Z 10044160 f   NpScene.obj
 0001:00043170       ?getFrictionType@NpScene@physx@@UBE?AW4Enum@PxFrictionType@2@XZ 10044170 f   NpScene.obj
 0001:00043180       ?setClothInterCollisionDistance@NpScene@physx@@UAEXM@Z 10044180 f   NpScene.obj
 0001:000431d0       ?getClothInterCollisionDistance@NpScene@physx@@UBEMXZ 100441d0 f   NpScene.obj
 0001:000431e0       ?setClothInterCollisionStiffness@NpScene@physx@@UAEXM@Z 100441e0 f   NpScene.obj
 0001:00043230       ?getClothInterCollisionStiffness@NpScene@physx@@UBEMXZ 10044230 f   NpScene.obj
 0001:00043240       ?setClothInterCollisionNbIterations@NpScene@physx@@UAEXI@Z 10044240 f   NpScene.obj
 0001:00043280       ?getClothInterCollisionNbIterations@NpScene@physx@@UBEIXZ 10044280 f   NpScene.obj
 0001:00043290       ?setSimulationEventCallback@NpScene@physx@@UAEXPAVPxSimulationEventCallback@2@E@Z 10044290 f   NpScene.obj
 0001:000432d0       ?getSimulationEventCallback@NpScene@physx@@UBEPAVPxSimulationEventCallback@2@E@Z 100442d0 f   NpScene.obj
 0001:000432e0       ?setContactModifyCallback@NpScene@physx@@UAEXPAVPxContactModifyCallback@2@@Z 100442e0 f   NpScene.obj
 0001:00043320       ?getContactModifyCallback@NpScene@physx@@UBEPAVPxContactModifyCallback@2@XZ 10044320 f   NpScene.obj
 0001:00043330       ?setCCDContactModifyCallback@NpScene@physx@@UAEXPAVPxCCDContactModifyCallback@2@@Z 10044330 f   NpScene.obj
 0001:00043370       ?getCCDContactModifyCallback@NpScene@physx@@UBEPAVPxCCDContactModifyCallback@2@XZ 10044370 f   NpScene.obj
 0001:00043380       ?setBroadPhaseCallback@NpScene@physx@@UAEXPAVPxBroadPhaseCallback@2@E@Z 10044380 f   NpScene.obj
 0001:000433c0       ?getBroadPhaseCallback@NpScene@physx@@UBEPAVPxBroadPhaseCallback@2@E@Z 100443c0 f   NpScene.obj
 0001:000433d0       ?setCCDMaxPasses@NpScene@physx@@UAEXI@Z 100443d0 f   NpScene.obj
 0001:00043410       ?getCCDMaxPasses@NpScene@physx@@UBEIXZ 10044410 f   NpScene.obj
 0001:00043420       ?setFilterShaderData@NpScene@physx@@UAEXPBXI@Z 10044420 f   NpScene.obj
 0001:00043460       ?getFilterShaderData@NpScene@physx@@UBEPBXXZ 10044460 f   NpScene.obj
 0001:00043470       ?getFilterShaderDataSize@NpScene@physx@@UBEIXZ 10044470 f   NpScene.obj
 0001:00043480       ?getFilterShader@NpScene@physx@@UBEP6A?AV?$PxFlags@W4Enum@PxFilterFlag@physx@@G@2@IUPxFilterData@2@I0AAV?$PxFlags@W4Enum@PxPairFlag@physx@@G@2@PBXI@ZXZ 10044480 f   NpScene.obj
 0001:00043490       ?getFilterCallback@NpScene@physx@@UBEPAVPxSimulationFilterCallback@2@XZ 10044490 f   NpScene.obj
 0001:000434a0       ?resetFiltering@NpScene@physx@@UAEXAAVPxActor@2@@Z 100444a0 f   NpScene.obj
 0001:000435a0       ?resetFiltering@NpScene@physx@@UAEXAAVPxRigidActor@2@PBQAVPxShape@2@I@Z 100445a0 f   NpScene.obj
 0001:00043690       ?getPhysics@NpScene@physx@@UAEAAVPxPhysics@2@XZ 10044690 f   NpScene.obj
 0001:000436a0       ?simulate@NpScene@physx@@UAEXMPAVPxBaseTask@2@PAXI_N@Z 100446a0 f   NpScene.obj
 0001:000436d0       ?advance@NpScene@physx@@UAEXPAVPxBaseTask@2@@Z 100446d0 f   NpScene.obj
 0001:00043770       ?collide@NpScene@physx@@UAEXMPAVPxBaseTask@2@PAXI_N@Z 10044770 f   NpScene.obj
 0001:000437a0       ?checkResults@NpScene@physx@@UAE_N_N@Z 100447a0 f   NpScene.obj
 0001:000437c0       ?checkCollision@NpScene@physx@@UAE_N_N@Z 100447c0 f   NpScene.obj
 0001:000437e0       ?fetchCollision@NpScene@physx@@UAE_N_N@Z 100447e0 f   NpScene.obj
 0001:00043850       ?fetchResults@NpScene@physx@@UAE_N_NPAI@Z 10044850 f   NpScene.obj
 0001:00043920       ?fetchResultsStart@NpScene@physx@@UAE_NAAPBUPxContactPairHeader@2@AAI_N@Z 10044920 f   NpScene.obj
 0001:000439f0       ?processCallbacks@NpScene@physx@@UAEXPAVPxBaseTask@2@@Z 100449f0 f   NpScene.obj
 0001:00043af0       ?fetchResultsFinish@NpScene@physx@@UAEXPAI@Z 10044af0 f   NpScene.obj
 0001:00043b40       ?flushSimulation@NpScene@physx@@UAEX_N@Z 10044b40 f   NpScene.obj
 0001:00043bc0       ?flushQueryUpdates@NpScene@physx@@UAEXXZ 10044bc0 f   NpScene.obj
 0001:00043c30       ?getRenderBuffer@NpScene@physx@@UAEABVPxRenderBuffer@2@XZ 10044c30 f   NpScene.obj
 0001:00043c70       ?createBatchQuery@NpScene@physx@@UAEPAVPxBatchQuery@2@ABVPxBatchQueryDesc@2@@Z 10044c70 f   NpScene.obj
 0001:00043d20       ?releaseBatchQuery@NpScene@physx@@QAEXPAVPxBatchQuery@2@@Z 10044d20 f   NpScene.obj
 0001:00043d80       ?createVolumeCache@NpScene@physx@@UAEPAVPxVolumeCache@2@II@Z 10044d80 f   NpScene.obj
 0001:00043e20       ?releaseVolumeCache@NpScene@physx@@QAEXPAVNpVolumeCache@2@@Z 10044e20 f   NpScene.obj
 0001:00043e50       ?setDynamicTreeRebuildRateHint@NpScene@physx@@UAEXI@Z 10044e50 f   NpScene.obj
 0001:00043e60       ?getDynamicTreeRebuildRateHint@NpScene@physx@@UBEIXZ 10044e60 f   NpScene.obj
 0001:00043e70       ?forceDynamicTreeRebuild@NpScene@physx@@UAEX_N0@Z 10044e70 f   NpScene.obj
 0001:00043eb0       ?setSolverBatchSize@NpScene@physx@@UAEXI@Z 10044eb0 f   NpScene.obj
 0001:00043ee0       ?getSolverBatchSize@NpScene@physx@@UBEIXZ 10044ee0 f   NpScene.obj
 0001:00043f00       ?setVisualizationParameter@NpScene@physx@@UAE_NW4Enum@PxVisualizationParameter@2@M@Z 10044f00 f   NpScene.obj
 0001:00043fb0       ?getVisualizationParameter@NpScene@physx@@UBEMW4Enum@PxVisualizationParameter@2@@Z 10044fb0 f   NpScene.obj
 0001:00044020       ?setVisualizationCullingBox@NpScene@physx@@UAEXABVPxBounds3@2@@Z 10045020 f   NpScene.obj
 0001:00044080       ?getVisualizationCullingBox@NpScene@physx@@UBE?AVPxBounds3@2@XZ 10045080 f   NpScene.obj
 0001:000440d0       ?setNbContactDataBlocks@NpScene@physx@@UAEXI@Z 100450d0 f   NpScene.obj
 0001:000440e0       ?getNbContactDataBlocksUsed@NpScene@physx@@UBEIXZ 100450e0 f   NpScene.obj
 0001:000440f0       ?getMaxNbContactDataBlocksUsed@NpScene@physx@@UBEIXZ 100450f0 f   NpScene.obj
 0001:00044100       ?getContactReportStreamBufferSize@NpScene@physx@@UBEIXZ 10045100 f   NpScene.obj
 0001:00044110       ?getTimestamp@NpScene@physx@@UBEIXZ 10045110 f   NpScene.obj
 0001:00044120       ?getSceneQueryStaticTimestamp@NpScene@physx@@UBEIXZ 10045120 f   NpScene.obj
 0001:00044130       ?getCpuDispatcher@NpScene@physx@@UBEPAVPxCpuDispatcher@2@XZ 10045130 f   NpScene.obj
 0001:00044140       ?getGpuDispatcher@NpScene@physx@@UBEPAVPxGpuDispatcher@2@XZ 10045140 f   NpScene.obj
 0001:00044150       ?getStaticStructure@NpScene@physx@@UBE?AW4Enum@PxPruningStructureType@2@XZ 10045150 f   NpScene.obj
 0001:00044160       ?getDynamicStructure@NpScene@physx@@UBE?AW4Enum@PxPruningStructureType@2@XZ 10045160 f   NpScene.obj
 0001:00044170       ?getBroadPhaseType@NpScene@physx@@UBE?AW4Enum@PxBroadPhaseType@2@XZ 10045170 f   NpScene.obj
 0001:00044180       ?getBroadPhaseCaps@NpScene@physx@@UBE_NAAUPxBroadPhaseCaps@2@@Z 10045180 f   NpScene.obj
 0001:00044190       ?getNbBroadPhaseRegions@NpScene@physx@@UBEIXZ 10045190 f   NpScene.obj
 0001:000441a0       ?getBroadPhaseRegions@NpScene@physx@@UBEIPAUPxBroadPhaseRegionInfo@2@II@Z 100451a0 f   NpScene.obj
 0001:000441b0       ?addBroadPhaseRegion@NpScene@physx@@UAEIABUPxBroadPhaseRegion@2@_N@Z 100451b0 f   NpScene.obj
 0001:00044200       ?removeBroadPhaseRegion@NpScene@physx@@UAE_NI@Z 10045200 f   NpScene.obj
 0001:00044210       ?addActors@NpScene@physx@@UAEXPBQAVPxActor@2@I@Z 10045210 f   NpScene.obj
 0001:00044230       ?addActors@NpScene@physx@@UAEXABVPxPruningStructure@2@@Z 10045230 f   NpScene.obj
 0001:00044280       ?removeActors@NpScene@physx@@UAEXPBQAVPxActor@2@I_N@Z 10045280 f   NpScene.obj
 0001:000446f0       ?lockRead@NpScene@physx@@UAEXPBDI@Z 100456f0 f   NpScene.obj
 0001:00044750       ?unlockRead@NpScene@physx@@UAEXXZ 10045750 f   NpScene.obj
 0001:000447e0       ?lockWrite@NpScene@physx@@UAEXPBDI@Z 100457e0 f   NpScene.obj
 0001:00044880       ?unlockWrite@NpScene@physx@@UAEXXZ 10045880 f   NpScene.obj
 0001:00044910       ?getWakeCounterResetValue@NpScene@physx@@UBEMXZ 10045910 f   NpScene.obj
 0001:00044920       ?shiftOrigin@NpScene@physx@@UAEXABVPxVec3@2@@Z 10045920 f   NpScene.obj
 0001:00044dd0       ?getScenePvdClient@NpScene@physx@@UAEPAVPxPvdSceneClient@2@XZ 10045dd0 f   NpScene.obj
 0001:00044de0       ??0NpScene@physx@@QAE@ABVPxSceneDesc@1@@Z 10045de0 f   NpScene.obj
 0001:000452d0       ??1NpScene@physx@@UAE@XZ   100462d0 f   NpScene.obj
 0001:00045820       ?addActorInternal@NpScene@physx@@QAEXAAVPxActor@2@@Z 10046820 f   NpScene.obj
 0001:000458c0       ?removeActorInternal@NpScene@physx@@QAEXAAVPxActor@2@_N1@Z 100468c0 f   NpScene.obj
 0001:00045970       ?addActorsInternal@NpScene@physx@@QAEXPIBQAVPxActor@2@IPBVPruningStructure@Sq@2@@Z 10046970 f   NpScene.obj
 0001:00045e90       ?addArticulationInternal@NpScene@physx@@QAEXAAVPxArticulation@2@@Z 10046e90 f   NpScene.obj
 0001:00046310       ?removeArticulationInternal@NpScene@physx@@QAEXAAVPxArticulation@2@_N1@Z 10047310 f   NpScene.obj
 0001:00046500       ?addMaterial@NpScene@physx@@QAEXABVNpMaterial@2@@Z 10047500 f   NpScene.obj
 0001:00046510       ?updateMaterial@NpScene@physx@@QAEXABVNpMaterial@2@@Z 10047510 f   NpScene.obj
 0001:00046520       ?removeMaterial@NpScene@physx@@QAEXABVNpMaterial@2@@Z 10047520 f   NpScene.obj
 0001:00046530       ?executeScene@NpScene@physx@@QAEXPAVPxBaseTask@2@@Z 10047530 f   NpScene.obj
 0001:00046550       ?executeCollide@NpScene@physx@@QAEXPAVPxBaseTask@2@@Z 10047550 f   NpScene.obj
 0001:00046570       ?executeAdvance@NpScene@physx@@QAEXPAVPxBaseTask@2@@Z 10047570 f   NpScene.obj
 0001:00046590       ?loadFromDesc@NpScene@physx@@QAE_NABVPxSceneDesc@2@@Z 10047590 f   NpScene.obj
 0001:000465e0       ?removeFromRigidActorList@NpScene@physx@@QAEXABI@Z 100475e0 f   NpScene.obj
 0001:00046650       ?addArticulationLink@NpScene@physx@@QAEXAAVNpArticulationLink@2@@Z 10047650 f   NpScene.obj
 0001:000466b0       ?addArticulationLinkBody@NpScene@physx@@QAEXAAVNpArticulationLink@2@@Z 100476b0 f   NpScene.obj
 0001:000466e0       ?addArticulationLinkConstraint@NpScene@physx@@QAEXAAVNpArticulationLink@2@@Z 100476e0 f   NpScene.obj
 0001:00046720       ?removeArticulationLink@NpScene@physx@@QAEXAAVNpArticulationLink@2@_N@Z 10047720 f   NpScene.obj
 0001:00046780       ?startWrite@NpScene@physx@@QAE?AW4Enum@StartWriteResult@12@_N@Z 10047780 f   NpScene.obj
 0001:00046790       ?stopWrite@NpScene@physx@@QAEX_N@Z 10047790 f   NpScene.obj
 0001:000467a0       ?startRead@NpScene@physx@@QBE_NXZ 100477a0 f   NpScene.obj
 0001:000467b0       ?stopRead@NpScene@physx@@QBEXXZ 100477b0 f   NpScene.obj
 0001:000467c0       ?addCloth@NpScene@physx@@QAEXAAVNpCloth@2@@Z 100477c0 f   NpScene.obj
 0001:00046810       ?removeCloth@NpScene@physx@@QAEXAAVNpCloth@2@@Z 10047810 f   NpScene.obj
 0001:00046850       ?updatePhysXIndicator@NpScene@physx@@QAEXXZ 10047850 f   NpScene.obj
 0001:00046920       ?checkResultsInternal@NpScene@physx@@AAE_N_N@Z 10047920 f   NpScene.obj
 0001:00046940       ?checkCollisionInternal@NpScene@physx@@AAE_N_N@Z 10047940 f   NpScene.obj
 0001:00046960       ?simulateOrCollide@NpScene@physx@@AAEXMPAVPxBaseTask@2@PAXI_NPBDW4Enum@SimulationStage@Sc@2@@Z 10047960 f   NpScene.obj
 0001:00046ba0       ?addRigidStatic@NpScene@physx@@AAEXAAVNpRigidStatic@2@_N@Z 10047ba0 f   NpScene.obj
 0001:00046c80       ?removeRigidStatic@NpScene@physx@@AAEXAAVNpRigidStatic@2@_N1@Z 10047c80 f   NpScene.obj
 0001:00046d70       ?addRigidDynamic@NpScene@physx@@AAEXAAVNpRigidDynamic@2@_N@Z 10047d70 f   NpScene.obj
 0001:00046e50       ?removeRigidDynamic@NpScene@physx@@AAEXAAVNpRigidDynamic@2@_N1@Z 10047e50 f   NpScene.obj
 0001:00046f40       ?addParticleSystem@NpScene@physx@@AAEXAAVNpParticleSystem@2@@Z 10047f40 f   NpScene.obj
 0001:00046f90       ?removeParticleSystem@NpScene@physx@@AAEXAAVNpParticleSystem@2@@Z 10047f90 f   NpScene.obj
 0001:00046fd0       ?addParticleFluid@NpScene@physx@@AAEXAAVNpParticleFluid@2@@Z 10047fd0 f   NpScene.obj
 0001:00047020       ?removeParticleFluid@NpScene@physx@@AAEXAAVNpParticleFluid@2@@Z 10048020 f   NpScene.obj
 0001:00047060       ?visualize@NpScene@physx@@AAEXXZ 10048060 f   NpScene.obj
 0001:00047330       ?updateDirtyShaders@NpScene@physx@@AAEXXZ 10048330 f   NpScene.obj
 0001:00047360       ?fireOutOfBoundsCallbacks@NpScene@physx@@AAEXXZ 10048360 f   NpScene.obj
 0001:00047470       ?fetchResultsPreContactCallbacks@NpScene@physx@@AAEXXZ 10048470 f   NpScene.obj
 0001:000474b0       ?fetchResultsPostContactCallbacks@NpScene@physx@@AAEXXZ 100484b0 f   NpScene.obj
 0001:000475c0       ?updateScbStateAndSetupSq@NpScene@physx@@AAEXABVPxRigidActor@2@AAVActor@Scb@2@AAVNpShapeManager@2@_NPBVPxBounds3@2@3@Z 100485c0 f   NpScene.obj
 0001:00047690       ??$allocArrayBuffer@PAVShape@Scb@physx@@@Scene@Scb@physx@@AAEPAPAVShape@12@AAV?$Array@PAVShape@Scb@physx@@V?$ReflectionAllocator@PAVShape@Scb@physx@@@shdfnd@3@@shdfnd@2@IAAI@Z 10048690 f i NpScene.obj
 0001:000476d0       ??$append@UPxDebugLine@physx@@@RenderBuffer@Cm@physx@@AAEXAAV?$Array@UPxDebugLine@physx@@V?$ReflectionAllocator@UPxDebugLine@physx@@@shdfnd@2@@shdfnd@2@PBUPxDebugLine@2@I@Z 100486d0 f i NpScene.obj
 0001:00047780       ??$append@UPxDebugPoint@physx@@@RenderBuffer@Cm@physx@@AAEXAAV?$Array@UPxDebugPoint@physx@@V?$ReflectionAllocator@UPxDebugPoint@physx@@@shdfnd@2@@shdfnd@2@PBUPxDebugPoint@2@I@Z 10048780 f i NpScene.obj
 0001:00047800       ??$append@UPxDebugText@physx@@@RenderBuffer@Cm@physx@@AAEXAAV?$Array@UPxDebugText@physx@@V?$ReflectionAllocator@UPxDebugText@physx@@@shdfnd@2@@shdfnd@2@PBUPxDebugText@2@I@Z 10048800 f i NpScene.obj
 0001:000478b0       ??$append@UPxDebugTriangle@physx@@@RenderBuffer@Cm@physx@@AAEXAAV?$Array@UPxDebugTriangle@physx@@V?$ReflectionAllocator@UPxDebugTriangle@physx@@@shdfnd@2@@shdfnd@2@PBUPxDebugTriangle@2@I@Z 100488b0 f i NpScene.obj
 0001:00047980       ??0BatchRemoveState@Sc@physx@@QAE@XZ 10048980 f i NpScene.obj
 0001:00047a30       ??0Iter@?$HashBase@PAVNpVolumeCache@physx@@PAV12@U?$Hash@PAVNpVolumeCache@physx@@@shdfnd@2@UGetKey@?$HashSetBase@PAVNpVolumeCache@physx@@U?$Hash@PAVNpVolumeCache@physx@@@shdfnd@2@VNonTrackingAllocator@42@$0A@@internal@42@VNonTrackingAllocator@42@$0A@@internal@shdfnd@physx@@QAE@AAV1234@@Z 10048a30 f i NpScene.obj
 0001:00047a90       ??0PxBounds3@physx@@QAE@XZ 10048a90 f i NpScene.obj
 0001:00047aa0       ??0RenderBuffer@Cm@physx@@QAE@XZ 10048aa0 f i NpScene.obj
 0001:00047b20       ??1?$Array@IV?$ReflectionAllocator@I@shdfnd@physx@@@shdfnd@physx@@QAE@XZ 10048b20 f i NpScene.obj
 0001:00047b50       ??1?$Array@V?$DelegateTask@VScene@Sc@physx@@$1?ccdBroadPhase@123@AAEXPAVPxBaseTask@3@@Z@Cm@physx@@V?$ReflectionAllocator@V?$DelegateTask@VScene@Sc@physx@@$1?ccdBroadPhase@123@AAEXPAVPxBaseTask@3@@Z@Cm@physx@@@shdfnd@3@@shdfnd@physx@@QAE@XZ 10048b50 f i NpScene.obj
 0001:00047bb0       ??1?$Array@V?$DelegateTask@VScene@Sc@physx@@$1?ccdBroadPhaseAABB@123@AAEXPAVPxBaseTask@3@@Z@Cm@physx@@V?$ReflectionAllocator@V?$DelegateTask@VScene@Sc@physx@@$1?ccdBroadPhaseAABB@123@AAEXPAVPxBaseTask@3@@Z@Cm@physx@@@shdfnd@3@@shdfnd@physx@@QAE@XZ 10048bb0 f i NpScene.obj
 0001:00047c10       ??1?$Array@V?$DelegateTask@VScene@Sc@physx@@$1?postCCDPass@123@AAEXPAVPxBaseTask@3@@Z@Cm@physx@@V?$ReflectionAllocator@V?$DelegateTask@VScene@Sc@physx@@$1?postCCDPass@123@AAEXPAVPxBaseTask@3@@Z@Cm@physx@@@shdfnd@3@@shdfnd@physx@@QAE@XZ 10048c10 f i NpScene.obj
 0001:00047c70       ??1?$Array@V?$DelegateTask@VScene@Sc@physx@@$1?updateCCDSinglePass@123@AAEXPAVPxBaseTask@3@@Z@Cm@physx@@V?$ReflectionAllocator@V?$DelegateTask@VScene@Sc@physx@@$1?updateCCDSinglePass@123@AAEXPAVPxBaseTask@3@@Z@Cm@physx@@@shdfnd@3@@shdfnd@physx@@QAE@XZ 10048c70 f i NpScene.obj
 0001:00047cd0       ??1?$Array@V?$DelegateTask@VScene@Sc@physx@@$1?updateCCDSinglePassStage2@123@AAEXPAVPxBaseTask@3@@Z@Cm@physx@@V?$ReflectionAllocator@V?$DelegateTask@VScene@Sc@physx@@$1?updateCCDSinglePassStage2@123@AAEXPAVPxBaseTask@3@@Z@Cm@physx@@@shdfnd@3@@shdfnd@physx@@QAE@XZ 10048cd0 f i NpScene.obj
 0001:00047d30       ??1?$Array@V?$DelegateTask@VScene@Sc@physx@@$1?updateCCDSinglePassStage3@123@AAEXPAVPxBaseTask@3@@Z@Cm@physx@@V?$ReflectionAllocator@V?$DelegateTask@VScene@Sc@physx@@$1?updateCCDSinglePassStage3@123@AAEXPAVPxBaseTask@3@@Z@Cm@physx@@@shdfnd@3@@shdfnd@physx@@QAE@XZ 10048d30 f i NpScene.obj
 0001:00047d90       ??1?$PoolBase@U?$Block@E$0BAA@@Scene@Sc@physx@@V?$ReflectionAllocator@U?$Block@E$0BAA@@Scene@Sc@physx@@@shdfnd@4@@shdfnd@physx@@QAE@XZ 10048d90 f i NpScene.obj
 0001:00047e50       ??1?$PoolBase@U?$Block@E$0BIA@@Scene@Sc@physx@@V?$ReflectionAllocator@U?$Block@E$0BIA@@Scene@Sc@physx@@@shdfnd@4@@shdfnd@physx@@QAE@XZ 10048e50 f i NpScene.obj
 0001:00047f10       ??1?$PoolBase@U?$Block@E$0IA@@Scene@Sc@physx@@V?$ReflectionAllocator@U?$Block@E$0IA@@Scene@Sc@physx@@@shdfnd@4@@shdfnd@physx@@QAE@XZ 10048f10 f i NpScene.obj
 0001:00047fd0       ??1?$PoolBase@U?$Block@PAX$07@Scene@Sc@physx@@V?$ReflectionAllocator@U?$Block@PAX$07@Scene@Sc@physx@@@shdfnd@4@@shdfnd@physx@@QAE@XZ 10048fd0 f i NpScene.obj
 0001:00048090       ??1?$PoolBase@U?$Block@PAX$0BA@@Scene@Sc@physx@@V?$ReflectionAllocator@U?$Block@PAX$0BA@@Scene@Sc@physx@@@shdfnd@4@@shdfnd@physx@@QAE@XZ 10049090 f i NpScene.obj
 0001:00048150       ??1?$PoolBase@U?$Block@PAX$0CA@@Scene@Sc@physx@@V?$ReflectionAllocator@U?$Block@PAX$0CA@@Scene@Sc@physx@@@shdfnd@4@@shdfnd@physx@@QAE@XZ 10049150 f i NpScene.obj
 0001:00048210       ??1FanoutTask@Cm@physx@@UAE@XZ 10049210 f i NpScene.obj
 0001:000482b0       ??1FlushPool@Cm@physx@@QAE@XZ 100492b0 f i NpScene.obj
 0001:00048330       ??1PxRenderBuffer@physx@@UAE@XZ 10049330 f i NpScene.obj
 0001:00048340       ??1PxScene@physx@@MAE@XZ   10049340 f i NpScene.obj
 0001:00048350       ??1RenderBuffer@Cm@physx@@UAE@XZ 10049350 f i NpScene.obj
 0001:00048400       ??1Scene@Sc@physx@@QAE@XZ  10049400 f i NpScene.obj
 0001:00048c30       ??1Scene@Scb@physx@@QAE@XZ 10049c30 f i NpScene.obj
 0001:00048de0       ??1SqRefFinder@Sc@physx@@UAE@XZ 10049de0 f i NpScene.obj
 0001:00048df0       ??_E?$DelegateTask@VNpScene@physx@@$H?executeAdvance@12@QAEXPAVPxBaseTask@2@@ZA@@Cm@physx@@UAEPAXI@Z 10049df0 f i NpScene.obj
 0001:00048df0       ??_G?$DelegateTask@VNpScene@physx@@$H?executeAdvance@12@QAEXPAVPxBaseTask@2@@ZA@@Cm@physx@@UAEPAXI@Z 10049df0 f i NpScene.obj
 0001:00048e40       ??_G?$DelegateTask@VNpScene@physx@@$H?executeCollide@12@QAEXPAVPxBaseTask@2@@ZA@@Cm@physx@@UAEPAXI@Z 10049e40 f i NpScene.obj
 0001:00048e40       ??_E?$DelegateTask@VNpScene@physx@@$H?executeCollide@12@QAEXPAVPxBaseTask@2@@ZA@@Cm@physx@@UAEPAXI@Z 10049e40 f i NpScene.obj
 0001:00048e90       ??_E?$DelegateTask@VNpScene@physx@@$H?executeScene@12@QAEXPAVPxBaseTask@2@@ZA@@Cm@physx@@UAEPAXI@Z 10049e90 f i NpScene.obj
 0001:00048e90       ??_G?$DelegateTask@VNpScene@physx@@$H?executeScene@12@QAEXPAVPxBaseTask@2@@ZA@@Cm@physx@@UAEPAXI@Z 10049e90 f i NpScene.obj
 0001:00048ee0       ??_GNpContactCallbackTask@physx@@UAEPAXI@Z 10049ee0 f i NpScene.obj
 0001:00048ee0       ??_ENpContactCallbackTask@physx@@UAEPAXI@Z 10049ee0 f i NpScene.obj
 0001:00048f10       ??_GNpScene@physx@@UAEPAXI@Z 10049f10 f i NpScene.obj
 0001:00048f10       ??_ENpScene@physx@@UAEPAXI@Z 10049f10 f i NpScene.obj
 0001:00048f60       ??_ENpSceneQueries@physx@@UAEPAXI@Z 10049f60 f i NpScene.obj
 0001:00048f60       ??_GNpSceneQueries@physx@@UAEPAXI@Z 10049f60 f i NpScene.obj
 0001:00048fa0       ??_EPxLightCpuTask@physx@@UAEPAXI@Z 10049fa0 f i NpScene.obj
 0001:00048fa0       ??_GPxLightCpuTask@physx@@UAEPAXI@Z 10049fa0 f i NpScene.obj
 0001:00048fd0       ??_GPxRenderBuffer@physx@@UAEPAXI@Z 10049fd0 f i NpScene.obj
 0001:00048fd0       ??_EPxRenderBuffer@physx@@UAEPAXI@Z 10049fd0 f i NpScene.obj
 0001:00049000       ??_GPxScene@physx@@MAEPAXI@Z 1004a000 f i NpScene.obj
 0001:00049000       ??_EPxScene@physx@@MAEPAXI@Z 1004a000 f i NpScene.obj
 0001:00049030       ??_ERenderBuffer@Cm@physx@@UAEPAXI@Z 1004a030 f i NpScene.obj
 0001:00049030       ??_GRenderBuffer@Cm@physx@@UAEPAXI@Z 1004a030 f i NpScene.obj
 0001:00049080       ??_GSceneCompletion@NpScene@physx@@UAEPAXI@Z 1004a080 f i NpScene.obj
 0001:00049080       ??_ESceneCompletion@NpScene@physx@@UAEPAXI@Z 1004a080 f i NpScene.obj
 0001:000490b0       ??_ESqRefFinder@@UAEPAXI@Z 1004a0b0 f i NpScene.obj
 0001:000490b0       ??_GSqRefFinder@@UAEPAXI@Z 1004a0b0 f i NpScene.obj
 0001:000490e0       ??_GSqRefFinder@Sc@physx@@UAEPAXI@Z 1004a0e0 f i NpScene.obj
 0001:000490e0       ??_ESqRefFinder@Sc@physx@@UAEPAXI@Z 1004a0e0 f i NpScene.obj
 0001:00049110       ??_ETask@Cm@physx@@UAEPAXI@Z 1004a110 f i NpScene.obj
 0001:00049110       ??_GTask@Cm@physx@@UAEPAXI@Z 1004a110 f i NpScene.obj
 0001:00049190       ?addReference@PxLightCpuTask@physx@@UAEXXZ 1004a190 f i NpScene.obj
 0001:000491a0       ?allocate@?$Array@GV?$ReflectionAllocator@G@shdfnd@physx@@@shdfnd@physx@@IAEPAGI@Z 1004a1a0 f i NpScene.obj
 0001:00049210       ?allocate@?$Array@PAVNpBatchQuery@physx@@V?$ReflectionAllocator@PAVNpBatchQuery@physx@@@shdfnd@2@@shdfnd@physx@@IAEPAPAVNpBatchQuery@3@I@Z 1004a210 f i NpScene.obj
 0001:00049290       ?allocate@?$Array@PAVNpVolumeCache@physx@@V?$ReflectionAllocator@PAVNpVolumeCache@physx@@@shdfnd@2@@shdfnd@physx@@IAEPAPAVNpVolumeCache@3@I@Z 1004a290 f i NpScene.obj
 0001:00049310       ?allocate@?$Array@PAVPxRigidActor@physx@@V?$ReflectionAllocator@PAVPxRigidActor@physx@@@shdfnd@2@@shdfnd@physx@@IAEPAPAVPxRigidActor@3@I@Z 1004a310 f i NpScene.obj
 0001:00049390       ?allocate@?$Array@PAVShape@Scb@physx@@V?$ReflectionAllocator@PAVShape@Scb@physx@@@shdfnd@3@@shdfnd@physx@@IAEPAPAVShape@Scb@3@I@Z 1004a390 f i NpScene.obj
 0001:00049410       ?allocate@?$Array@UPxDebugLine@physx@@V?$ReflectionAllocator@UPxDebugLine@physx@@@shdfnd@2@@shdfnd@physx@@IAEPAUPxDebugLine@3@I@Z 1004a410 f i NpScene.obj
 0001:00049480       ?allocate@?$Array@UPxDebugPoint@physx@@V?$ReflectionAllocator@UPxDebugPoint@physx@@@shdfnd@2@@shdfnd@physx@@IAEPAUPxDebugPoint@3@I@Z 1004a480 f i NpScene.obj
 0001:000494f0       ?allocate@?$Array@UPxDebugText@physx@@V?$ReflectionAllocator@UPxDebugText@physx@@@shdfnd@2@@shdfnd@physx@@IAEPAUPxDebugText@3@I@Z 1004a4f0 f i NpScene.obj
 0001:00049560       ?allocate@?$Array@UPxDebugTriangle@physx@@V?$ReflectionAllocator@UPxDebugTriangle@physx@@@shdfnd@2@@shdfnd@physx@@IAEPAUPxDebugTriangle@3@I@Z 1004a560 f i NpScene.obj
 0001:000495d0       ?allocate@?$InlineAllocator@$0BAA@V?$ReflectionAllocator@PAVShapeSim@Sc@physx@@@shdfnd@physx@@@shdfnd@physx@@QAEPAXIPBDH@Z 1004a5d0 f i NpScene.obj
 0001:00049650       ?allocate@?$InlineAllocator@$0MA@V?$ReflectionAllocator@VPxBounds3@physx@@@shdfnd@physx@@@shdfnd@physx@@QAEPAXIPBDH@Z 1004a650 f i NpScene.obj
 0001:000496d0       ?append@RenderBuffer@Cm@physx@@UAEXABVPxRenderBuffer@3@@Z 1004a6d0 f i NpScene.obj
 0001:00049750       ?clear@RenderBuffer@Cm@physx@@UAEXXZ 1004a750 f i NpScene.obj
 0001:00049780       ?copy@?$Array@UPxDebugLine@physx@@V?$ReflectionAllocator@UPxDebugLine@physx@@@shdfnd@2@@shdfnd@physx@@KAXPAUPxDebugLine@3@0PBU43@@Z 1004a780 f i NpScene.obj
 0001:000497f0       ?copy@?$Array@UPxDebugPoint@physx@@V?$ReflectionAllocator@UPxDebugPoint@physx@@@shdfnd@2@@shdfnd@physx@@KAXPAUPxDebugPoint@3@0PBU43@@Z 1004a7f0 f i NpScene.obj
 0001:00049840       ?copy@?$Array@UPxDebugText@physx@@V?$ReflectionAllocator@UPxDebugText@physx@@@shdfnd@2@@shdfnd@physx@@KAXPAUPxDebugText@3@0PBU43@@Z 1004a840 f i NpScene.obj
 0001:000498a0       ?copy@?$Array@UPxDebugTriangle@physx@@V?$ReflectionAllocator@UPxDebugTriangle@physx@@@shdfnd@2@@shdfnd@physx@@KAXPAUPxDebugTriangle@3@0PBU43@@Z 1004a8a0 f i NpScene.obj
 0001:00049920       ?copy@?$Array@VPxBounds3@physx@@V?$InlineAllocator@$0MA@V?$ReflectionAllocator@VPxBounds3@physx@@@shdfnd@physx@@@shdfnd@2@@shdfnd@physx@@KAXPAVPxBounds3@3@0PBV43@@Z 1004a920 f i NpScene.obj
 0001:00049980       ?create@?$Array@GV?$ReflectionAllocator@G@shdfnd@physx@@@shdfnd@physx@@KAXPAG0ABG@Z 1004a980 f i NpScene.obj
 0001:000499e0       ?create@?$Array@PAVShape@Scb@physx@@V?$ReflectionAllocator@PAVShape@Scb@physx@@@shdfnd@3@@shdfnd@physx@@KAXPAPAVShape@Scb@3@0ABQAV453@@Z 1004a9e0 f i NpScene.obj
 0001:00049a40       ?create@?$HashBase@PAVNpVolumeCache@physx@@PAV12@U?$Hash@PAVNpVolumeCache@physx@@@shdfnd@2@UGetKey@?$HashSetBase@PAVNpVolumeCache@physx@@U?$Hash@PAVNpVolumeCache@physx@@@shdfnd@2@VNonTrackingAllocator@42@$0A@@internal@42@VNonTrackingAllocator@42@$0A@@internal@shdfnd@physx@@QAEPAPAVNpVolumeCache@4@ABQAV54@AA_N@Z 1004aa40 f i NpScene.obj
 0001:00049b70       ?create@?$HashBase@PAVPxAggregate@physx@@PAV12@U?$Hash@PAVPxAggregate@physx@@@shdfnd@2@UGetKey@?$HashSetBase@PAVPxAggregate@physx@@U?$Hash@PAVPxAggregate@physx@@@shdfnd@2@VNonTrackingAllocator@42@$00@internal@42@VNonTrackingAllocator@42@$00@internal@shdfnd@physx@@QAEPAPAVPxAggregate@4@ABQAV54@AA_N@Z 1004ab70 f i NpScene.obj
 0001:00049ca0       ?create@?$HashBase@PAVPxArticulation@physx@@PAV12@U?$Hash@PAVPxArticulation@physx@@@shdfnd@2@UGetKey@?$HashSetBase@PAVPxArticulation@physx@@U?$Hash@PAVPxArticulation@physx@@@shdfnd@2@VNonTrackingAllocator@42@$00@internal@42@VNonTrackingAllocator@42@$00@internal@shdfnd@physx@@QAEPAPAVPxArticulation@4@ABQAV54@AA_N@Z 1004aca0 f i NpScene.obj
 0001:00049dd0       ?create@?$HashBase@PAVPxCloth@physx@@PAV12@U?$Hash@PAVPxCloth@physx@@@shdfnd@2@UGetKey@?$HashSetBase@PAVPxCloth@physx@@U?$Hash@PAVPxCloth@physx@@@shdfnd@2@VNonTrackingAllocator@42@$00@internal@42@VNonTrackingAllocator@42@$00@internal@shdfnd@physx@@QAEPAPAVPxCloth@4@ABQAV54@AA_N@Z 1004add0 f i NpScene.obj
 0001:00049f00       ?create@?$HashBase@PAVPxParticleBase@physx@@PAV12@U?$Hash@PAVPxParticleBase@physx@@@shdfnd@2@UGetKey@?$HashSetBase@PAVPxParticleBase@physx@@U?$Hash@PAVPxParticleBase@physx@@@shdfnd@2@VNonTrackingAllocator@42@$00@internal@42@VNonTrackingAllocator@42@$00@internal@shdfnd@physx@@QAEPAPAVPxParticleBase@4@ABQAV54@AA_N@Z 1004af00 f i NpScene.obj
 0001:0004a030       ?createClient@Scene@Scb@physx@@QAEEXZ 1004b030 f i NpScene.obj
 0001:0004a0a0       ?disposeElements@?$PoolBase@U?$Block@E$0BAA@@Scene@Sc@physx@@V?$ReflectionAllocator@U?$Block@E$0BAA@@Scene@Sc@physx@@@shdfnd@4@@shdfnd@physx@@IAEXXZ 1004b0a0 f i NpScene.obj
 0001:0004a1c0       ?disposeElements@?$PoolBase@U?$Block@E$0BIA@@Scene@Sc@physx@@V?$ReflectionAllocator@U?$Block@E$0BIA@@Scene@Sc@physx@@@shdfnd@4@@shdfnd@physx@@IAEXXZ 1004b1c0 f i NpScene.obj
 0001:0004a2e0       ?disposeElements@?$PoolBase@U?$Block@E$0IA@@Scene@Sc@physx@@V?$ReflectionAllocator@U?$Block@E$0IA@@Scene@Sc@physx@@@shdfnd@4@@shdfnd@physx@@IAEXXZ 1004b2e0 f i NpScene.obj
 0001:0004a400       ?disposeElements@?$PoolBase@U?$Block@PAX$07@Scene@Sc@physx@@V?$ReflectionAllocator@U?$Block@PAX$07@Scene@Sc@physx@@@shdfnd@4@@shdfnd@physx@@IAEXXZ 1004b400 f i NpScene.obj
 0001:0004a520       ?disposeElements@?$PoolBase@U?$Block@PAX$0BA@@Scene@Sc@physx@@V?$ReflectionAllocator@U?$Block@PAX$0BA@@Scene@Sc@physx@@@shdfnd@4@@shdfnd@physx@@IAEXXZ 1004b520 f i NpScene.obj
 0001:0004a640       ?disposeElements@?$PoolBase@U?$Block@PAX$0CA@@Scene@Sc@physx@@V?$ReflectionAllocator@U?$Block@PAX$0CA@@Scene@Sc@physx@@@shdfnd@4@@shdfnd@physx@@IAEXXZ 1004b640 f i NpScene.obj
 0001:0004a760       ?erase@?$HashBase@PAVNpVolumeCache@physx@@PAV12@U?$Hash@PAVNpVolumeCache@physx@@@shdfnd@2@UGetKey@?$HashSetBase@PAVNpVolumeCache@physx@@U?$Hash@PAVNpVolumeCache@physx@@@shdfnd@2@VNonTrackingAllocator@42@$0A@@internal@42@VNonTrackingAllocator@42@$0A@@internal@shdfnd@physx@@QAE_NABQAVNpVolumeCache@4@@Z 1004b760 f i NpScene.obj
 0001:0004a810       ?erase@?$HashBase@PAVPxCloth@physx@@PAV12@U?$Hash@PAVPxCloth@physx@@@shdfnd@2@UGetKey@?$HashSetBase@PAVPxCloth@physx@@U?$Hash@PAVPxCloth@physx@@@shdfnd@2@VNonTrackingAllocator@42@$00@internal@42@VNonTrackingAllocator@42@$00@internal@shdfnd@physx@@QAE_NABQAVPxCloth@4@@Z 1004b810 f i NpScene.obj
 0001:0004a8c0       ?find@SqRefFinder@@UAEIPBVPxRigidBody@physx@@PBVPxShape@3@@Z 1004b8c0 f i NpScene.obj
 0001:0004a8e0       ?flush@NpScene@physx@@UAEX_N@Z 1004b8e0 f i NpScene.obj
 0001:0004a8f0       ?flush@Scene@Scb@physx@@QAEX_N@Z 1004b8f0 f i NpScene.obj
 0001:0004a990       ?freeListAdd@?$HashBase@PAVNpVolumeCache@physx@@PAV12@U?$Hash@PAVNpVolumeCache@physx@@@shdfnd@2@UGetKey@?$HashSetBase@PAVNpVolumeCache@physx@@U?$Hash@PAVNpVolumeCache@physx@@@shdfnd@2@VNonTrackingAllocator@42@$0A@@internal@42@VNonTrackingAllocator@42@$0A@@internal@shdfnd@physx@@AAEXII@Z 1004b990 f i NpScene.obj
 0001:0004aa60       ?getDominancePair@SceneBuffer@Scb@physx@@QBE_NIIAAUPxDominanceGroupPair@3@@Z 1004ba60 f i NpScene.obj
 0001:0004aaf0       ?getLines@RenderBuffer@Cm@physx@@UBEPBUPxDebugLine@3@XZ 1004baf0 f i NpScene.obj
 0001:0004ab00       ?getName@?$DelegateTask@VNpScene@physx@@$H?executeAdvance@12@QAEXPAVPxBaseTask@2@@ZA@@Cm@physx@@UBEPBDXZ 1004bb00 f i NpScene.obj
 0001:0004ab10       ?getName@?$DelegateTask@VNpScene@physx@@$H?executeCollide@12@QAEXPAVPxBaseTask@2@@ZA@@Cm@physx@@UBEPBDXZ 1004bb10 f i NpScene.obj
 0001:0004ab20       ?getName@?$DelegateTask@VNpScene@physx@@$H?executeScene@12@QAEXPAVPxBaseTask@2@@ZA@@Cm@physx@@UBEPBDXZ 1004bb20 f i NpScene.obj
 0001:0004ab30       ?getName@NpContactCallbackTask@physx@@UBEPBDXZ 1004bb30 f i NpScene.obj
 0001:0004ab40       ?getName@SceneCompletion@NpScene@physx@@UBEPBDXZ 1004bb40 f i NpScene.obj
 0001:0004ab50       ?getNbLines@RenderBuffer@Cm@physx@@UBEIXZ 1004bb50 f i NpScene.obj
 0001:0004ab60       ?getNbPoints@RenderBuffer@Cm@physx@@UBEIXZ 1004bb60 f i NpScene.obj
 0001:0004ab70       ?getNbTexts@RenderBuffer@Cm@physx@@UBEIXZ 1004bb70 f i NpScene.obj
 0001:0004ab80       ?getNbTriangles@RenderBuffer@Cm@physx@@UBEIXZ 1004bb80 f i NpScene.obj
 0001:0004ab90       ?getPoints@RenderBuffer@Cm@physx@@UBEPBUPxDebugPoint@3@XZ 1004bb90 f i NpScene.obj
 0001:0004aba0       ?getReference@PxLightCpuTask@physx@@UBEHXZ 1004bba0 f i NpScene.obj
 0001:0004abb0       ?getTaskManager@NpScene@physx@@UAEPAVPxTaskManager@2@XZ 1004bbb0 f i NpScene.obj
 0001:0004abc0       ?getTaskManager@NpScene@physx@@UBEPAVPxTaskManager@2@XZ 1004bbc0 f i NpScene.obj
 0001:0004abd0       ?getTexts@RenderBuffer@Cm@physx@@UBEPBUPxDebugText@3@XZ 1004bbd0 f i NpScene.obj
 0001:0004abe0       ?getTriangles@RenderBuffer@Cm@physx@@UBEPBUPxDebugTriangle@3@XZ 1004bbe0 f i NpScene.obj
 0001:0004abf0       ?growAndPushBack@?$Array@PAVNpBatchQuery@physx@@V?$ReflectionAllocator@PAVNpBatchQuery@physx@@@shdfnd@2@@shdfnd@physx@@IAEAAPAVNpBatchQuery@3@ABQAV43@@Z 1004bbf0 f i NpScene.obj
 0001:0004ac80       ?growAndPushBack@?$Array@PAVNpVolumeCache@physx@@V?$ReflectionAllocator@PAVNpVolumeCache@physx@@@shdfnd@2@@shdfnd@physx@@IAEAAPAVNpVolumeCache@3@ABQAV43@@Z 1004bc80 f i NpScene.obj
 0001:0004ad10       ?growAndPushBack@?$Array@PAVPxRigidActor@physx@@V?$ReflectionAllocator@PAVPxRigidActor@physx@@@shdfnd@2@@shdfnd@physx@@IAEAAPAVPxRigidActor@3@ABQAV43@@Z 1004bd10 f i NpScene.obj
 0001:0004ada0       ?growAndPushBack@?$Array@UPxDebugLine@physx@@V?$ReflectionAllocator@UPxDebugLine@physx@@@shdfnd@2@@shdfnd@physx@@IAEAAUPxDebugLine@3@ABU43@@Z 1004bda0 f i NpScene.obj
 0001:0004ae50       ?growAndPushBack@?$Array@UPxDebugPoint@physx@@V?$ReflectionAllocator@UPxDebugPoint@physx@@@shdfnd@2@@shdfnd@physx@@IAEAAUPxDebugPoint@3@ABU43@@Z 1004be50 f i NpScene.obj
 0001:0004aef0       ?growAndPushBack@?$Array@UPxDebugText@physx@@V?$ReflectionAllocator@UPxDebugText@physx@@@shdfnd@2@@shdfnd@physx@@IAEAAUPxDebugText@3@ABU43@@Z 1004bef0 f i NpScene.obj
 0001:0004afa0       ?growAndPushBack@?$Array@UPxDebugTriangle@physx@@V?$ReflectionAllocator@UPxDebugTriangle@physx@@@shdfnd@2@@shdfnd@physx@@IAEAAUPxDebugTriangle@3@ABU43@@Z 1004bfa0 f i NpScene.obj
 0001:0004b070       ?isAddedShape@RigidObject@Scb@physx@@QAE_NAAVShape@23@@Z 1004c070 f i NpScene.obj
 0001:0004b0f0       ?recreate@?$Array@GV?$ReflectionAllocator@G@shdfnd@physx@@@shdfnd@physx@@IAEXI@Z 1004c0f0 f i NpScene.obj
 0001:0004b150       ?recreate@?$Array@PAVNpVolumeCache@physx@@V?$ReflectionAllocator@PAVNpVolumeCache@physx@@@shdfnd@2@@shdfnd@physx@@IAEXI@Z 1004c150 f i NpScene.obj
 0001:0004b1b0       ?recreate@?$Array@PAVPxRigidActor@physx@@V?$ReflectionAllocator@PAVPxRigidActor@physx@@@shdfnd@2@@shdfnd@physx@@IAEXI@Z 1004c1b0 f i NpScene.obj
 0001:0004b210       ?recreate@?$Array@PAVShape@Scb@physx@@V?$ReflectionAllocator@PAVShape@Scb@physx@@@shdfnd@3@@shdfnd@physx@@IAEXI@Z 1004c210 f i NpScene.obj
 0001:0004b270       ?recreate@?$Array@UPxDebugLine@physx@@V?$ReflectionAllocator@UPxDebugLine@physx@@@shdfnd@2@@shdfnd@physx@@IAEXI@Z 1004c270 f i NpScene.obj
 0001:0004b2d0       ?recreate@?$Array@UPxDebugPoint@physx@@V?$ReflectionAllocator@UPxDebugPoint@physx@@@shdfnd@2@@shdfnd@physx@@IAEXI@Z 1004c2d0 f i NpScene.obj
 0001:0004b330       ?recreate@?$Array@UPxDebugText@physx@@V?$ReflectionAllocator@UPxDebugText@physx@@@shdfnd@2@@shdfnd@physx@@IAEXI@Z 1004c330 f i NpScene.obj
 0001:0004b390       ?recreate@?$Array@UPxDebugTriangle@physx@@V?$ReflectionAllocator@UPxDebugTriangle@physx@@@shdfnd@2@@shdfnd@physx@@IAEXI@Z 1004c390 f i NpScene.obj
 0001:0004b3f0       ?recreate@?$Array@VPxBounds3@physx@@V?$InlineAllocator@$0MA@V?$ReflectionAllocator@VPxBounds3@physx@@@shdfnd@physx@@@shdfnd@2@@shdfnd@physx@@IAEXI@Z 1004c3f0 f i NpScene.obj
 0001:0004b490       ?release@PxLightCpuTask@physx@@UAEXXZ 1004c490 f i NpScene.obj
 0001:0004b4a0       ?release@SceneCompletion@NpScene@physx@@UAEXXZ 1004c4a0 f i NpScene.obj
 0001:0004b4c0       ?removeReference@PxLightCpuTask@physx@@UAEXXZ 1004c4c0 f i NpScene.obj
 0001:0004b4d0       ?replaceWithLast@?$HashBase@PAVPxCloth@physx@@PAV12@U?$Hash@PAVPxCloth@physx@@@shdfnd@2@UGetKey@?$HashSetBase@PAVPxCloth@physx@@U?$Hash@PAVPxCloth@physx@@@shdfnd@2@VNonTrackingAllocator@42@$00@internal@42@VNonTrackingAllocator@42@$00@internal@shdfnd@physx@@AAEXI@Z 1004c4d0 f i NpScene.obj
 0001:0004b560       ?reserveInternal@?$HashBase@PAVNpVolumeCache@physx@@PAV12@U?$Hash@PAVNpVolumeCache@physx@@@shdfnd@2@UGetKey@?$HashSetBase@PAVNpVolumeCache@physx@@U?$Hash@PAVNpVolumeCache@physx@@@shdfnd@2@VNonTrackingAllocator@42@$0A@@internal@42@VNonTrackingAllocator@42@$0A@@internal@shdfnd@physx@@AAEXI@Z 1004c560 f i NpScene.obj
 0001:0004b7c0       ?reserveInternal@?$HashBase@PAVPxAggregate@physx@@PAV12@U?$Hash@PAVPxAggregate@physx@@@shdfnd@2@UGetKey@?$HashSetBase@PAVPxAggregate@physx@@U?$Hash@PAVPxAggregate@physx@@@shdfnd@2@VNonTrackingAllocator@42@$00@internal@42@VNonTrackingAllocator@42@$00@internal@shdfnd@physx@@AAEXI@Z 1004c7c0 f i NpScene.obj
 0001:0004b950       ?reserveInternal@?$HashBase@PAVPxArticulation@physx@@PAV12@U?$Hash@PAVPxArticulation@physx@@@shdfnd@2@UGetKey@?$HashSetBase@PAVPxArticulation@physx@@U?$Hash@PAVPxArticulation@physx@@@shdfnd@2@VNonTrackingAllocator@42@$00@internal@42@VNonTrackingAllocator@42@$00@internal@shdfnd@physx@@AAEXI@Z 1004c950 f i NpScene.obj
 0001:0004bae0       ?reserveInternal@?$HashBase@PAVPxCloth@physx@@PAV12@U?$Hash@PAVPxCloth@physx@@@shdfnd@2@UGetKey@?$HashSetBase@PAVPxCloth@physx@@U?$Hash@PAVPxCloth@physx@@@shdfnd@2@VNonTrackingAllocator@42@$00@internal@42@VNonTrackingAllocator@42@$00@internal@shdfnd@physx@@AAEXI@Z 1004cae0 f i NpScene.obj
 0001:0004bc70       ?reserveInternal@?$HashBase@PAVPxParticleBase@physx@@PAV12@U?$Hash@PAVPxParticleBase@physx@@@shdfnd@2@UGetKey@?$HashSetBase@PAVPxParticleBase@physx@@U?$Hash@PAVPxParticleBase@physx@@@shdfnd@2@VNonTrackingAllocator@42@$00@internal@42@VNonTrackingAllocator@42@$00@internal@shdfnd@physx@@AAEXI@Z 1004cc70 f i NpScene.obj
 0001:0004be00       ?resetFiltering@?$NpRigidActorTemplate@VPxArticulationLink@physx@@@physx@@QAE_NAAVRigidObject@Scb@2@PBQAVPxShape@2@I@Z 1004ce00 f i NpScene.obj
 0001:0004bf40       ?resetFiltering@?$NpRigidActorTemplate@VPxRigidDynamic@physx@@@physx@@QAE_NAAVRigidObject@Scb@2@PBQAVPxShape@2@I@Z 1004cf40 f i NpScene.obj
 0001:0004c080       ?resetFiltering@?$NpRigidActorTemplate@VPxRigidStatic@physx@@@physx@@QAE_NAAVRigidObject@Scb@2@PBQAVPxShape@2@I@Z 1004d080 f i NpScene.obj
 0001:0004c1c0       ?resetFiltering@ParticleSystem@Scb@physx@@QAEXXZ 1004d1c0 f i NpScene.obj
 0001:0004c200       ?resetFiltering@RigidObject@Scb@physx@@QAEXPBQAVShape@23@I@Z 1004d200 f i NpScene.obj
 0001:0004c410       ?resize@?$Array@GV?$ReflectionAllocator@G@shdfnd@physx@@@shdfnd@physx@@QAEXIABG@Z 1004d410 f i NpScene.obj
 0001:0004c450       ?resize@?$Array@PAVShape@Scb@physx@@V?$ReflectionAllocator@PAVShape@Scb@physx@@@shdfnd@3@@shdfnd@physx@@QAEXIABQAVShape@Scb@3@@Z 1004d450 f i NpScene.obj
 0001:0004c490       ?resizeUninitialized@?$Array@VPxBounds3@physx@@V?$InlineAllocator@$0MA@V?$ReflectionAllocator@VPxBounds3@physx@@@shdfnd@physx@@@shdfnd@2@@shdfnd@physx@@QAEXI@Z 1004d490 f i NpScene.obj
 0001:0004c4c0       ?run@Task@Cm@physx@@UAEXXZ 1004d4c0 f i NpScene.obj
 0001:0004c4f0       ?runInternal@?$DelegateTask@VNpScene@physx@@$H?executeAdvance@12@QAEXPAVPxBaseTask@2@@ZA@@Cm@physx@@UAEXXZ 1004d4f0 f i NpScene.obj
 0001:0004c500       ?runInternal@?$DelegateTask@VNpScene@physx@@$H?executeCollide@12@QAEXPAVPxBaseTask@2@@ZA@@Cm@physx@@UAEXXZ 1004d500 f i NpScene.obj
 0001:0004c510       ?runInternal@?$DelegateTask@VNpScene@physx@@$H?executeScene@12@QAEXPAVPxBaseTask@2@@ZA@@Cm@physx@@UAEXXZ 1004d510 f i NpScene.obj
 0001:0004c520       ?runInternal@SceneCompletion@NpScene@physx@@UAEXXZ 1004d520 f i NpScene.obj
 0001:0004c530       ?setDominancePair@SceneBuffer@Scb@physx@@QAEXIIABUPxDominanceGroupPair@3@@Z 1004d530 f i NpScene.obj
 0001:0004c5d0       ?setGravity@Scene@Scb@physx@@QAEXABVPxVec3@3@@Z 1004d5d0 f i NpScene.obj
 0001:0004c640       ?shift@RenderBuffer@Cm@physx@@QAEXABVPxVec3@3@@Z 1004d640 f i NpScene.obj
 0001:0004c800       ?raycast@NpSceneQueries@physx@@UBE_NABVPxVec3@2@0MAAU?$PxHitCallback@UPxRaycastHit@physx@@@2@V?$PxFlags@W4Enum@PxHitFlag@physx@@G@2@ABUPxQueryFilterData@2@PAVPxQueryFilterCallback@2@PBUPxQueryCache@2@@Z 1004d800 f   NpSceneQueries.obj
 0001:0004c890       ?sweep@NpSceneQueries@physx@@UBE_NABVPxGeometry@2@ABVPxTransform@2@ABVPxVec3@2@MAAU?$PxHitCallback@UPxSweepHit@physx@@@2@V?$PxFlags@W4Enum@PxHitFlag@physx@@G@2@ABUPxQueryFilterData@2@PAVPxQueryFilterCallback@2@PBUPxQueryCache@2@M@Z 1004d890 f   NpSceneQueries.obj
 0001:0004c9d0       ?overlap@NpSceneQueries@physx@@UBE_NABVPxGeometry@2@ABVPxTransform@2@AAU?$PxHitCallback@UPxOverlapHit@physx@@@2@ABUPxQueryFilterData@2@PAVPxQueryFilterCallback@2@@Z 1004d9d0 f   NpSceneQueries.obj
 0001:0004cbd0       ??$multiQuery@UPxOverlapHit@physx@@@NpSceneQueries@physx@@QBE_NABUMultiQueryInput@1@AAU?$PxHitCallback@UPxOverlapHit@physx@@@1@V?$PxFlags@W4Enum@PxHitFlag@physx@@G@1@PBUPxQueryCache@1@ABUPxQueryFilterData@1@PAVPxQueryFilterCallback@1@PAUBatchQueryFilterData@1@@Z 1004dbd0 f i NpSceneQueries.obj
 0001:0004cdb0       ??$multiQuery@UPxRaycastHit@physx@@@NpSceneQueries@physx@@QBE_NABUMultiQueryInput@1@AAU?$PxHitCallback@UPxRaycastHit@physx@@@1@V?$PxFlags@W4Enum@PxHitFlag@physx@@G@1@PBUPxQueryCache@1@ABUPxQueryFilterData@1@PAVPxQueryFilterCallback@1@PAUBatchQueryFilterData@1@@Z 1004ddb0 f i NpSceneQueries.obj
 0001:0004cf60       ??$multiQuery@UPxSweepHit@physx@@@NpSceneQueries@physx@@QBE_NABUMultiQueryInput@1@AAU?$PxHitCallback@UPxSweepHit@physx@@@1@V?$PxFlags@W4Enum@PxHitFlag@physx@@G@1@PBUPxQueryCache@1@ABUPxQueryFilterData@1@PAVPxQueryFilterCallback@1@PAUBatchQueryFilterData@1@@Z 1004df60 f i NpSceneQueries.obj
 0001:0004d1f0       ??0?$MultiQueryCallback@UPxOverlapHit@physx@@@@QAE@ABVNpSceneQueries@physx@@ABUMultiQueryInput@2@_NAAU?$PxHitCallback@UPxOverlapHit@physx@@@2@V?$PxFlags@W4Enum@PxHitFlag@physx@@G@2@ABUPxQueryFilterData@2@PAVPxQueryFilterCallback@2@MPAUBatchQueryFilterData@2@@Z 1004e1f0 f i NpSceneQueries.obj
 0001:0004d290       ??0?$MultiQueryCallback@UPxRaycastHit@physx@@@@QAE@ABVNpSceneQueries@physx@@ABUMultiQueryInput@2@_NAAU?$PxHitCallback@UPxRaycastHit@physx@@@2@V?$PxFlags@W4Enum@PxHitFlag@physx@@G@2@ABUPxQueryFilterData@2@PAVPxQueryFilterCallback@2@MPAUBatchQueryFilterData@2@@Z 1004e290 f i NpSceneQueries.obj
 0001:0004d330       ??0?$MultiQueryCallback@UPxSweepHit@physx@@@@QAE@ABVNpSceneQueries@physx@@ABUMultiQueryInput@2@_NAAU?$PxHitCallback@UPxSweepHit@physx@@@2@V?$PxFlags@W4Enum@PxHitFlag@physx@@G@2@ABUPxQueryFilterData@2@PAVPxQueryFilterCallback@2@MPAUBatchQueryFilterData@2@@Z 1004e330 f i NpSceneQueries.obj
 0001:0004d3d0       ??0?$PxHitBuffer@UPxRaycastHit@physx@@@physx@@QAE@PAUPxRaycastHit@1@I@Z 1004e3d0 f i NpSceneQueries.obj
 0001:0004d430       ??0?$PxHitBuffer@UPxSweepHit@physx@@@physx@@QAE@PAUPxSweepHit@1@I@Z 1004e430 f i NpSceneQueries.obj
 0001:0004d490       ??0Capsule@Gu@physx@@QAE@ABVPxVec3@2@0M@Z 1004e490 f i NpSceneQueries.obj
 0001:0004d4d0       ??0PxOverlapHit@physx@@QAE@XZ 1004e4d0 f i NpSceneQueries.obj
 0001:0004d4f0       ??0PxRaycastHit@physx@@QAE@XZ 1004e4f0 f i NpSceneQueries.obj
 0001:0004d530       ??0PxSweepHit@physx@@QAE@XZ 1004e530 f i NpSceneQueries.obj
 0001:0004d570       ??1PrunerCallback@Sq@physx@@UAE@XZ 1004e570 f i NpSceneQueries.obj
 0001:0004d580       ??4PxSweepHit@physx@@QAEAAU01@ABU01@@Z 1004e580 f i NpSceneQueries.obj
 0001:0004d5e0       ??_E?$MultiQueryCallback@UPxOverlapHit@physx@@@@UAEPAXI@Z 1004e5e0 f i NpSceneQueries.obj
 0001:0004d5e0       ??_G?$MultiQueryCallback@UPxOverlapHit@physx@@@@UAEPAXI@Z 1004e5e0 f i NpSceneQueries.obj
 0001:0004d610       ??_E?$MultiQueryCallback@UPxRaycastHit@physx@@@@UAEPAXI@Z 1004e610 f i NpSceneQueries.obj
 0001:0004d610       ??_G?$MultiQueryCallback@UPxRaycastHit@physx@@@@UAEPAXI@Z 1004e610 f i NpSceneQueries.obj
 0001:0004d640       ??_E?$MultiQueryCallback@UPxSweepHit@physx@@@@UAEPAXI@Z 1004e640 f i NpSceneQueries.obj
 0001:0004d640       ??_G?$MultiQueryCallback@UPxSweepHit@physx@@@@UAEPAXI@Z 1004e640 f i NpSceneQueries.obj
 0001:0004d670       ??_EPrunerCallback@Sq@physx@@UAEPAXI@Z 1004e670 f i NpSceneQueries.obj
 0001:0004d670       ??_GPrunerCallback@Sq@physx@@UAEPAXI@Z 1004e670 f i NpSceneQueries.obj
 0001:0004d6a0       ?invoke@?$MultiQueryCallback@UPxOverlapHit@physx@@@@UAE_NAAMABUPrunerPayload@Sq@physx@@@Z 1004e6a0 f i NpSceneQueries.obj
 0001:0004da90       ?invoke@?$MultiQueryCallback@UPxRaycastHit@physx@@@@UAE_NAAMABUPrunerPayload@Sq@physx@@@Z 1004ea90 f i NpSceneQueries.obj
 0001:0004dfe0       ?invoke@?$MultiQueryCallback@UPxSweepHit@physx@@@@UAE_NAAMABUPrunerPayload@Sq@physx@@@Z 1004efe0 f i NpSceneQueries.obj
 0001:0004eac0       _PxRegisterPhysicsSerializers 1004fac0 f   NpSerializerAdapter.obj
 0001:0004ef70       _PxUnregisterPhysicsSerializers 1004ff70 f   NpSerializerAdapter.obj
 0001:0004f270       ??1PxProcessPxBaseCallback@physx@@UAE@XZ 10050270 f i NpSerializerAdapter.obj
 0001:0004f280       ??1PxSerializer@physx@@UAE@XZ 10050280 f i NpSerializerAdapter.obj
 0001:0004f290       ??_G?$PxSerializerDefaultAdapter@VBV4TriangleMesh@Gu@physx@@@physx@@UAEPAXI@Z 10050290 f i NpSerializerAdapter.obj
 0001:0004f290       ??_E?$PxSerializerDefaultAdapter@VBV4TriangleMesh@Gu@physx@@@physx@@UAEPAXI@Z 10050290 f i NpSerializerAdapter.obj
 0001:0004f2c0       ??_G?$PxSerializerDefaultAdapter@VConvexMesh@Gu@physx@@@physx@@UAEPAXI@Z 100502c0 f i NpSerializerAdapter.obj
 0001:0004f2c0       ??_E?$PxSerializerDefaultAdapter@VConvexMesh@Gu@physx@@@physx@@UAEPAXI@Z 100502c0 f i NpSerializerAdapter.obj
 0001:0004f2f0       ??_E?$PxSerializerDefaultAdapter@VHeightField@Gu@physx@@@physx@@UAEPAXI@Z 100502f0 f i NpSerializerAdapter.obj
 0001:0004f2f0       ??_G?$PxSerializerDefaultAdapter@VHeightField@Gu@physx@@@physx@@UAEPAXI@Z 100502f0 f i NpSerializerAdapter.obj
 0001:0004f320       ??_E?$PxSerializerDefaultAdapter@VNpAggregate@physx@@@physx@@UAEPAXI@Z 10050320 f i NpSerializerAdapter.obj
 0001:0004f320       ??_G?$PxSerializerDefaultAdapter@VNpAggregate@physx@@@physx@@UAEPAXI@Z 10050320 f i NpSerializerAdapter.obj
 0001:0004f350       ??_G?$PxSerializerDefaultAdapter@VNpArticulation@physx@@@physx@@UAEPAXI@Z 10050350 f i NpSerializerAdapter.obj
 0001:0004f350       ??_E?$PxSerializerDefaultAdapter@VNpArticulation@physx@@@physx@@UAEPAXI@Z 10050350 f i NpSerializerAdapter.obj
 0001:0004f380       ??_E?$PxSerializerDefaultAdapter@VNpArticulationJoint@physx@@@physx@@UAEPAXI@Z 10050380 f i NpSerializerAdapter.obj
 0001:0004f380       ??_G?$PxSerializerDefaultAdapter@VNpArticulationJoint@physx@@@physx@@UAEPAXI@Z 10050380 f i NpSerializerAdapter.obj
 0001:0004f3b0       ??_E?$PxSerializerDefaultAdapter@VNpArticulationLink@physx@@@physx@@UAEPAXI@Z 100503b0 f i NpSerializerAdapter.obj
 0001:0004f3b0       ??_G?$PxSerializerDefaultAdapter@VNpArticulationLink@physx@@@physx@@UAEPAXI@Z 100503b0 f i NpSerializerAdapter.obj
 0001:0004f3e0       ??_G?$PxSerializerDefaultAdapter@VNpCloth@physx@@@physx@@UAEPAXI@Z 100503e0 f i NpSerializerAdapter.obj
 0001:0004f3e0       ??_E?$PxSerializerDefaultAdapter@VNpCloth@physx@@@physx@@UAEPAXI@Z 100503e0 f i NpSerializerAdapter.obj
 0001:0004f410       ??_E?$PxSerializerDefaultAdapter@VNpClothFabric@physx@@@physx@@UAEPAXI@Z 10050410 f i NpSerializerAdapter.obj
 0001:0004f410       ??_G?$PxSerializerDefaultAdapter@VNpClothFabric@physx@@@physx@@UAEPAXI@Z 10050410 f i NpSerializerAdapter.obj
 0001:0004f440       ??_E?$PxSerializerDefaultAdapter@VNpConstraint@physx@@@physx@@UAEPAXI@Z 10050440 f i NpSerializerAdapter.obj
 0001:0004f440       ??_G?$PxSerializerDefaultAdapter@VNpConstraint@physx@@@physx@@UAEPAXI@Z 10050440 f i NpSerializerAdapter.obj
 0001:0004f470       ??_G?$PxSerializerDefaultAdapter@VNpMaterial@physx@@@physx@@UAEPAXI@Z 10050470 f i NpSerializerAdapter.obj
 0001:0004f470       ??_E?$PxSerializerDefaultAdapter@VNpMaterial@physx@@@physx@@UAEPAXI@Z 10050470 f i NpSerializerAdapter.obj
 0001:0004f4a0       ??_G?$PxSerializerDefaultAdapter@VNpParticleFluid@physx@@@physx@@UAEPAXI@Z 100504a0 f i NpSerializerAdapter.obj
 0001:0004f4a0       ??_E?$PxSerializerDefaultAdapter@VNpParticleFluid@physx@@@physx@@UAEPAXI@Z 100504a0 f i NpSerializerAdapter.obj
 0001:0004f4d0       ??_G?$PxSerializerDefaultAdapter@VNpParticleSystem@physx@@@physx@@UAEPAXI@Z 100504d0 f i NpSerializerAdapter.obj
 0001:0004f4d0       ??_E?$PxSerializerDefaultAdapter@VNpParticleSystem@physx@@@physx@@UAEPAXI@Z 100504d0 f i NpSerializerAdapter.obj
 0001:0004f500       ??_G?$PxSerializerDefaultAdapter@VNpRigidDynamic@physx@@@physx@@UAEPAXI@Z 10050500 f i NpSerializerAdapter.obj
 0001:0004f500       ??_E?$PxSerializerDefaultAdapter@VNpRigidDynamic@physx@@@physx@@UAEPAXI@Z 10050500 f i NpSerializerAdapter.obj
 0001:0004f530       ??_E?$PxSerializerDefaultAdapter@VNpRigidStatic@physx@@@physx@@UAEPAXI@Z 10050530 f i NpSerializerAdapter.obj
 0001:0004f530       ??_G?$PxSerializerDefaultAdapter@VNpRigidStatic@physx@@@physx@@UAEPAXI@Z 10050530 f i NpSerializerAdapter.obj
 0001:0004f560       ??_E?$PxSerializerDefaultAdapter@VNpShape@physx@@@physx@@UAEPAXI@Z 10050560 f i NpSerializerAdapter.obj
 0001:0004f560       ??_G?$PxSerializerDefaultAdapter@VNpShape@physx@@@physx@@UAEPAXI@Z 10050560 f i NpSerializerAdapter.obj
 0001:0004f590       ??_E?$PxSerializerDefaultAdapter@VPruningStructure@Sq@physx@@@physx@@UAEPAXI@Z 10050590 f i NpSerializerAdapter.obj
 0001:0004f590       ??_G?$PxSerializerDefaultAdapter@VPruningStructure@Sq@physx@@@physx@@UAEPAXI@Z 10050590 f i NpSerializerAdapter.obj
 0001:0004f5c0       ??_E?$PxSerializerDefaultAdapter@VRTreeTriangleMesh@Gu@physx@@@physx@@UAEPAXI@Z 100505c0 f i NpSerializerAdapter.obj
 0001:0004f5c0       ??_G?$PxSerializerDefaultAdapter@VRTreeTriangleMesh@Gu@physx@@@physx@@UAEPAXI@Z 100505c0 f i NpSerializerAdapter.obj
 0001:0004f5f0       ??_EPxProcessPxBaseCallback@physx@@UAEPAXI@Z 100505f0 f i NpSerializerAdapter.obj
 0001:0004f5f0       ??_GPxProcessPxBaseCallback@physx@@UAEPAXI@Z 100505f0 f i NpSerializerAdapter.obj
 0001:0004f620       ??_EPxSerializer@physx@@UAEPAXI@Z 10050620 f i NpSerializerAdapter.obj
 0001:0004f620       ??_GPxSerializer@physx@@UAEPAXI@Z 10050620 f i NpSerializerAdapter.obj
 0001:0004f650       ??_GRequiresCallback@?1??registerReferences@?$PxSerializerDefaultAdapter@VBV4TriangleMesh@Gu@physx@@@physx@@UBEXAAVPxBase@3@AAVPxSerializationContext@3@@Z@UAEPAXI@Z 10050650 f i NpSerializerAdapter.obj
 0001:0004f650       ??_ERequiresCallback@?1??registerReferences@?$PxSerializerDefaultAdapter@VBV4TriangleMesh@Gu@physx@@@physx@@UBEXAAVPxBase@3@AAVPxSerializationContext@3@@Z@UAEPAXI@Z 10050650 f i NpSerializerAdapter.obj
 0001:0004f680       ??_GRequiresCallback@?1??registerReferences@?$PxSerializerDefaultAdapter@VConvexMesh@Gu@physx@@@physx@@UBEXAAVPxBase@3@AAVPxSerializationContext@3@@Z@UAEPAXI@Z 10050680 f i NpSerializerAdapter.obj
 0001:0004f680       ??_ERequiresCallback@?1??registerReferences@?$PxSerializerDefaultAdapter@VConvexMesh@Gu@physx@@@physx@@UBEXAAVPxBase@3@AAVPxSerializationContext@3@@Z@UAEPAXI@Z 10050680 f i NpSerializerAdapter.obj
 0001:0004f6b0       ??_GRequiresCallback@?1??registerReferences@?$PxSerializerDefaultAdapter@VHeightField@Gu@physx@@@physx@@UBEXAAVPxBase@3@AAVPxSerializationContext@3@@Z@UAEPAXI@Z 100506b0 f i NpSerializerAdapter.obj
 0001:0004f6b0       ??_ERequiresCallback@?1??registerReferences@?$PxSerializerDefaultAdapter@VHeightField@Gu@physx@@@physx@@UBEXAAVPxBase@3@AAVPxSerializationContext@3@@Z@UAEPAXI@Z 100506b0 f i NpSerializerAdapter.obj
 0001:0004f6e0       ??_GRequiresCallback@?1??registerReferences@?$PxSerializerDefaultAdapter@VNpAggregate@physx@@@physx@@UBEXAAVPxBase@3@AAVPxSerializationContext@3@@Z@UAEPAXI@Z 100506e0 f i NpSerializerAdapter.obj
 0001:0004f6e0       ??_ERequiresCallback@?1??registerReferences@?$PxSerializerDefaultAdapter@VNpAggregate@physx@@@physx@@UBEXAAVPxBase@3@AAVPxSerializationContext@3@@Z@UAEPAXI@Z 100506e0 f i NpSerializerAdapter.obj
 0001:0004f710       ??_GRequiresCallback@?1??registerReferences@?$PxSerializerDefaultAdapter@VNpArticulation@physx@@@physx@@UBEXAAVPxBase@3@AAVPxSerializationContext@3@@Z@UAEPAXI@Z 10050710 f i NpSerializerAdapter.obj
 0001:0004f710       ??_ERequiresCallback@?1??registerReferences@?$PxSerializerDefaultAdapter@VNpArticulation@physx@@@physx@@UBEXAAVPxBase@3@AAVPxSerializationContext@3@@Z@UAEPAXI@Z 10050710 f i NpSerializerAdapter.obj
 0001:0004f740       ??_GRequiresCallback@?1??registerReferences@?$PxSerializerDefaultAdapter@VNpArticulationJoint@physx@@@physx@@UBEXAAVPxBase@3@AAVPxSerializationContext@3@@Z@UAEPAXI@Z 10050740 f i NpSerializerAdapter.obj
 0001:0004f740       ??_ERequiresCallback@?1??registerReferences@?$PxSerializerDefaultAdapter@VNpArticulationJoint@physx@@@physx@@UBEXAAVPxBase@3@AAVPxSerializationContext@3@@Z@UAEPAXI@Z 10050740 f i NpSerializerAdapter.obj
 0001:0004f770       ??_GRequiresCallback@?1??registerReferences@?$PxSerializerDefaultAdapter@VNpArticulationLink@physx@@@physx@@UBEXAAVPxBase@3@AAVPxSerializationContext@3@@Z@UAEPAXI@Z 10050770 f i NpSerializerAdapter.obj
 0001:0004f770       ??_ERequiresCallback@?1??registerReferences@?$PxSerializerDefaultAdapter@VNpArticulationLink@physx@@@physx@@UBEXAAVPxBase@3@AAVPxSerializationContext@3@@Z@UAEPAXI@Z 10050770 f i NpSerializerAdapter.obj
 0001:0004f7a0       ??_ERequiresCallback@?1??registerReferences@?$PxSerializerDefaultAdapter@VNpCloth@physx@@@physx@@UBEXAAVPxBase@3@AAVPxSerializationContext@3@@Z@UAEPAXI@Z 100507a0 f i NpSerializerAdapter.obj
 0001:0004f7a0       ??_GRequiresCallback@?1??registerReferences@?$PxSerializerDefaultAdapter@VNpCloth@physx@@@physx@@UBEXAAVPxBase@3@AAVPxSerializationContext@3@@Z@UAEPAXI@Z 100507a0 f i NpSerializerAdapter.obj
 0001:0004f7d0       ??_GRequiresCallback@?1??registerReferences@?$PxSerializerDefaultAdapter@VNpClothFabric@physx@@@physx@@UBEXAAVPxBase@3@AAVPxSerializationContext@3@@Z@UAEPAXI@Z 100507d0 f i NpSerializerAdapter.obj
 0001:0004f7d0       ??_ERequiresCallback@?1??registerReferences@?$PxSerializerDefaultAdapter@VNpClothFabric@physx@@@physx@@UBEXAAVPxBase@3@AAVPxSerializationContext@3@@Z@UAEPAXI@Z 100507d0 f i NpSerializerAdapter.obj
 0001:0004f800       ??_ERequiresCallback@?1??registerReferences@?$PxSerializerDefaultAdapter@VNpConstraint@physx@@@physx@@UBEXAAVPxBase@3@AAVPxSerializationContext@3@@Z@UAEPAXI@Z 10050800 f i NpSerializerAdapter.obj
 0001:0004f800       ??_GRequiresCallback@?1??registerReferences@?$PxSerializerDefaultAdapter@VNpConstraint@physx@@@physx@@UBEXAAVPxBase@3@AAVPxSerializationContext@3@@Z@UAEPAXI@Z 10050800 f i NpSerializerAdapter.obj
 0001:0004f830       ??_ERequiresCallback@?1??registerReferences@?$PxSerializerDefaultAdapter@VNpMaterial@physx@@@physx@@UBEXAAVPxBase@3@AAVPxSerializationContext@3@@Z@UAEPAXI@Z 10050830 f i NpSerializerAdapter.obj
 0001:0004f830       ??_GRequiresCallback@?1??registerReferences@?$PxSerializerDefaultAdapter@VNpMaterial@physx@@@physx@@UBEXAAVPxBase@3@AAVPxSerializationContext@3@@Z@UAEPAXI@Z 10050830 f i NpSerializerAdapter.obj
 0001:0004f860       ??_GRequiresCallback@?1??registerReferences@?$PxSerializerDefaultAdapter@VNpParticleFluid@physx@@@physx@@UBEXAAVPxBase@3@AAVPxSerializationContext@3@@Z@UAEPAXI@Z 10050860 f i NpSerializerAdapter.obj
 0001:0004f860       ??_ERequiresCallback@?1??registerReferences@?$PxSerializerDefaultAdapter@VNpParticleFluid@physx@@@physx@@UBEXAAVPxBase@3@AAVPxSerializationContext@3@@Z@UAEPAXI@Z 10050860 f i NpSerializerAdapter.obj
 0001:0004f890       ??_GRequiresCallback@?1??registerReferences@?$PxSerializerDefaultAdapter@VNpParticleSystem@physx@@@physx@@UBEXAAVPxBase@3@AAVPxSerializationContext@3@@Z@UAEPAXI@Z 10050890 f i NpSerializerAdapter.obj
 0001:0004f890       ??_ERequiresCallback@?1??registerReferences@?$PxSerializerDefaultAdapter@VNpParticleSystem@physx@@@physx@@UBEXAAVPxBase@3@AAVPxSerializationContext@3@@Z@UAEPAXI@Z 10050890 f i NpSerializerAdapter.obj
 0001:0004f8c0       ??_ERequiresCallback@?1??registerReferences@?$PxSerializerDefaultAdapter@VNpRigidDynamic@physx@@@physx@@UBEXAAVPxBase@3@AAVPxSerializationContext@3@@Z@UAEPAXI@Z 100508c0 f i NpSerializerAdapter.obj
 0001:0004f8c0       ??_GRequiresCallback@?1??registerReferences@?$PxSerializerDefaultAdapter@VNpRigidDynamic@physx@@@physx@@UBEXAAVPxBase@3@AAVPxSerializationContext@3@@Z@UAEPAXI@Z 100508c0 f i NpSerializerAdapter.obj
 0001:0004f8f0       ??_ERequiresCallback@?1??registerReferences@?$PxSerializerDefaultAdapter@VNpRigidStatic@physx@@@physx@@UBEXAAVPxBase@3@AAVPxSerializationContext@3@@Z@UAEPAXI@Z 100508f0 f i NpSerializerAdapter.obj
 0001:0004f8f0       ??_GRequiresCallback@?1??registerReferences@?$PxSerializerDefaultAdapter@VNpRigidStatic@physx@@@physx@@UBEXAAVPxBase@3@AAVPxSerializationContext@3@@Z@UAEPAXI@Z 100508f0 f i NpSerializerAdapter.obj
 0001:0004f920       ??_GRequiresCallback@?1??registerReferences@?$PxSerializerDefaultAdapter@VNpShape@physx@@@physx@@UBEXAAVPxBase@3@AAVPxSerializationContext@3@@Z@UAEPAXI@Z 10050920 f i NpSerializerAdapter.obj
 0001:0004f920       ??_ERequiresCallback@?1??registerReferences@?$PxSerializerDefaultAdapter@VNpShape@physx@@@physx@@UBEXAAVPxBase@3@AAVPxSerializationContext@3@@Z@UAEPAXI@Z 10050920 f i NpSerializerAdapter.obj
 0001:0004f950       ??_ERequiresCallback@?1??registerReferences@?$PxSerializerDefaultAdapter@VPruningStructure@Sq@physx@@@physx@@UBEXAAVPxBase@3@AAVPxSerializationContext@3@@Z@UAEPAXI@Z 10050950 f i NpSerializerAdapter.obj
 0001:0004f950       ??_GRequiresCallback@?1??registerReferences@?$PxSerializerDefaultAdapter@VPruningStructure@Sq@physx@@@physx@@UBEXAAVPxBase@3@AAVPxSerializationContext@3@@Z@UAEPAXI@Z 10050950 f i NpSerializerAdapter.obj
 0001:0004f980       ??_GRequiresCallback@?1??registerReferences@?$PxSerializerDefaultAdapter@VRTreeTriangleMesh@Gu@physx@@@physx@@UBEXAAVPxBase@3@AAVPxSerializationContext@3@@Z@UAEPAXI@Z 10050980 f i NpSerializerAdapter.obj
 0001:0004f980       ??_ERequiresCallback@?1??registerReferences@?$PxSerializerDefaultAdapter@VRTreeTriangleMesh@Gu@physx@@@physx@@UBEXAAVPxBase@3@AAVPxSerializationContext@3@@Z@UAEPAXI@Z 10050980 f i NpSerializerAdapter.obj
 0001:0004f9b0       ?createObject@?$PxSerializerDefaultAdapter@VBV4TriangleMesh@Gu@physx@@@physx@@UBEPAVPxBase@2@AAPAEAAVPxDeserializationContext@2@@Z 100509b0 f i NpSerializerAdapter.obj
 0001:0004f9d0       ?createObject@?$PxSerializerDefaultAdapter@VConvexMesh@Gu@physx@@@physx@@UBEPAVPxBase@2@AAPAEAAVPxDeserializationContext@2@@Z 100509d0 f i NpSerializerAdapter.obj
 0001:0004f9f0       ?createObject@?$PxSerializerDefaultAdapter@VHeightField@Gu@physx@@@physx@@UBEPAVPxBase@2@AAPAEAAVPxDeserializationContext@2@@Z 100509f0 f i NpSerializerAdapter.obj
 0001:0004fa10       ?createObject@?$PxSerializerDefaultAdapter@VNpAggregate@physx@@@physx@@UBEPAVPxBase@2@AAPAEAAVPxDeserializationContext@2@@Z 10050a10 f i NpSerializerAdapter.obj
 0001:0004fa30       ?createObject@?$PxSerializerDefaultAdapter@VNpArticulation@physx@@@physx@@UBEPAVPxBase@2@AAPAEAAVPxDeserializationContext@2@@Z 10050a30 f i NpSerializerAdapter.obj
 0001:0004fa50       ?createObject@?$PxSerializerDefaultAdapter@VNpArticulationJoint@physx@@@physx@@UBEPAVPxBase@2@AAPAEAAVPxDeserializationContext@2@@Z 10050a50 f i NpSerializerAdapter.obj
 0001:0004fa70       ?createObject@?$PxSerializerDefaultAdapter@VNpArticulationLink@physx@@@physx@@UBEPAVPxBase@2@AAPAEAAVPxDeserializationContext@2@@Z 10050a70 f i NpSerializerAdapter.obj
 0001:0004fa90       ?createObject@?$PxSerializerDefaultAdapter@VNpCloth@physx@@@physx@@UBEPAVPxBase@2@AAPAEAAVPxDeserializationContext@2@@Z 10050a90 f i NpSerializerAdapter.obj
 0001:0004fab0       ?createObject@?$PxSerializerDefaultAdapter@VNpClothFabric@physx@@@physx@@UBEPAVPxBase@2@AAPAEAAVPxDeserializationContext@2@@Z 10050ab0 f i NpSerializerAdapter.obj
 0001:0004fad0       ?createObject@?$PxSerializerDefaultAdapter@VNpConstraint@physx@@@physx@@UBEPAVPxBase@2@AAPAEAAVPxDeserializationContext@2@@Z 10050ad0 f i NpSerializerAdapter.obj
 0001:0004faf0       ?createObject@?$PxSerializerDefaultAdapter@VNpMaterial@physx@@@physx@@UBEPAVPxBase@2@AAPAEAAVPxDeserializationContext@2@@Z 10050af0 f i NpSerializerAdapter.obj
 0001:0004fb10       ?createObject@?$PxSerializerDefaultAdapter@VNpParticleFluid@physx@@@physx@@UBEPAVPxBase@2@AAPAEAAVPxDeserializationContext@2@@Z 10050b10 f i NpSerializerAdapter.obj
 0001:0004fb30       ?createObject@?$PxSerializerDefaultAdapter@VNpParticleSystem@physx@@@physx@@UBEPAVPxBase@2@AAPAEAAVPxDeserializationContext@2@@Z 10050b30 f i NpSerializerAdapter.obj
 0001:0004fb50       ?createObject@?$PxSerializerDefaultAdapter@VNpRigidDynamic@physx@@@physx@@UBEPAVPxBase@2@AAPAEAAVPxDeserializationContext@2@@Z 10050b50 f i NpSerializerAdapter.obj
 0001:0004fb70       ?createObject@?$PxSerializerDefaultAdapter@VNpRigidStatic@physx@@@physx@@UBEPAVPxBase@2@AAPAEAAVPxDeserializationContext@2@@Z 10050b70 f i NpSerializerAdapter.obj
 0001:0004fb90       ?createObject@?$PxSerializerDefaultAdapter@VNpShape@physx@@@physx@@UBEPAVPxBase@2@AAPAEAAVPxDeserializationContext@2@@Z 10050b90 f i NpSerializerAdapter.obj
 0001:0004fbb0       ?createObject@?$PxSerializerDefaultAdapter@VPruningStructure@Sq@physx@@@physx@@UBEPAVPxBase@2@AAPAEAAVPxDeserializationContext@2@@Z 10050bb0 f i NpSerializerAdapter.obj
 0001:0004fbd0       ?createObject@?$PxSerializerDefaultAdapter@VRTreeTriangleMesh@Gu@physx@@@physx@@UBEPAVPxBase@2@AAPAEAAVPxDeserializationContext@2@@Z 10050bd0 f i NpSerializerAdapter.obj
 0001:0004fbf0       ?exportData@?$PxSerializerDefaultAdapter@VBV4TriangleMesh@Gu@physx@@@physx@@UBEXAAVPxBase@2@AAVPxSerializationContext@2@@Z 10050bf0 f i NpSerializerAdapter.obj
 0001:0004fc10       ?exportData@?$PxSerializerDefaultAdapter@VConvexMesh@Gu@physx@@@physx@@UBEXAAVPxBase@2@AAVPxSerializationContext@2@@Z 10050c10 f i NpSerializerAdapter.obj
 0001:0004fc30       ?exportData@?$PxSerializerDefaultAdapter@VHeightField@Gu@physx@@@physx@@UBEXAAVPxBase@2@AAVPxSerializationContext@2@@Z 10050c30 f i NpSerializerAdapter.obj
 0001:0004fc50       ?exportData@?$PxSerializerDefaultAdapter@VNpAggregate@physx@@@physx@@UBEXAAVPxBase@2@AAVPxSerializationContext@2@@Z 10050c50 f i NpSerializerAdapter.obj
 0001:0004fc70       ?exportData@?$PxSerializerDefaultAdapter@VNpArticulation@physx@@@physx@@UBEXAAVPxBase@2@AAVPxSerializationContext@2@@Z 10050c70 f i NpSerializerAdapter.obj
 0001:0004fc90       ?exportData@?$PxSerializerDefaultAdapter@VNpArticulationJoint@physx@@@physx@@UBEXAAVPxBase@2@AAVPxSerializationContext@2@@Z 10050c90 f i NpSerializerAdapter.obj
 0001:0004fcb0       ?exportData@?$PxSerializerDefaultAdapter@VNpArticulationLink@physx@@@physx@@UBEXAAVPxBase@2@AAVPxSerializationContext@2@@Z 10050cb0 f i NpSerializerAdapter.obj
 0001:0004fcd0       ?exportData@?$PxSerializerDefaultAdapter@VNpCloth@physx@@@physx@@UBEXAAVPxBase@2@AAVPxSerializationContext@2@@Z 10050cd0 f i NpSerializerAdapter.obj
 0001:0004fcf0       ?exportData@?$PxSerializerDefaultAdapter@VNpClothFabric@physx@@@physx@@UBEXAAVPxBase@2@AAVPxSerializationContext@2@@Z 10050cf0 f i NpSerializerAdapter.obj
 0001:0004fd10       ?exportData@?$PxSerializerDefaultAdapter@VNpConstraint@physx@@@physx@@UBEXAAVPxBase@2@AAVPxSerializationContext@2@@Z 10050d10 f i NpSerializerAdapter.obj
 0001:0004fd30       ?exportData@?$PxSerializerDefaultAdapter@VNpMaterial@physx@@@physx@@UBEXAAVPxBase@2@AAVPxSerializationContext@2@@Z 10050d30 f i NpSerializerAdapter.obj
 0001:0004fd50       ?exportData@?$PxSerializerDefaultAdapter@VNpParticleFluid@physx@@@physx@@UBEXAAVPxBase@2@AAVPxSerializationContext@2@@Z 10050d50 f i NpSerializerAdapter.obj
 0001:0004fd70       ?exportData@?$PxSerializerDefaultAdapter@VNpParticleSystem@physx@@@physx@@UBEXAAVPxBase@2@AAVPxSerializationContext@2@@Z 10050d70 f i NpSerializerAdapter.obj
 0001:0004fd90       ?exportData@?$PxSerializerDefaultAdapter@VNpRigidDynamic@physx@@@physx@@UBEXAAVPxBase@2@AAVPxSerializationContext@2@@Z 10050d90 f i NpSerializerAdapter.obj
 0001:0004fe20       ?exportData@?$PxSerializerDefaultAdapter@VNpRigidStatic@physx@@@physx@@UBEXAAVPxBase@2@AAVPxSerializationContext@2@@Z 10050e20 f i NpSerializerAdapter.obj
 0001:0004fe40       ?exportData@?$PxSerializerDefaultAdapter@VNpShape@physx@@@physx@@UBEXAAVPxBase@2@AAVPxSerializationContext@2@@Z 10050e40 f i NpSerializerAdapter.obj
 0001:0004fe60       ?exportData@?$PxSerializerDefaultAdapter@VPruningStructure@Sq@physx@@@physx@@UBEXAAVPxBase@2@AAVPxSerializationContext@2@@Z 10050e60 f i NpSerializerAdapter.obj
 0001:0004fe80       ?exportData@?$PxSerializerDefaultAdapter@VRTreeTriangleMesh@Gu@physx@@@physx@@UBEXAAVPxBase@2@AAVPxSerializationContext@2@@Z 10050e80 f i NpSerializerAdapter.obj
 0001:0004fea0       ?exportExtraData@?$PxSerializerDefaultAdapter@VBV4TriangleMesh@Gu@physx@@@physx@@UBEXAAVPxBase@2@AAVPxSerializationContext@2@@Z 10050ea0 f i NpSerializerAdapter.obj
 0001:0004fec0       ?exportExtraData@?$PxSerializerDefaultAdapter@VConvexMesh@Gu@physx@@@physx@@UBEXAAVPxBase@2@AAVPxSerializationContext@2@@Z 10050ec0 f i NpSerializerAdapter.obj
 0001:0004fee0       ?exportExtraData@?$PxSerializerDefaultAdapter@VHeightField@Gu@physx@@@physx@@UBEXAAVPxBase@2@AAVPxSerializationContext@2@@Z 10050ee0 f i NpSerializerAdapter.obj
 0001:0004ff00       ?exportExtraData@?$PxSerializerDefaultAdapter@VNpAggregate@physx@@@physx@@UBEXAAVPxBase@2@AAVPxSerializationContext@2@@Z 10050f00 f i NpSerializerAdapter.obj
 0001:0004ff20       ?exportExtraData@?$PxSerializerDefaultAdapter@VNpArticulation@physx@@@physx@@UBEXAAVPxBase@2@AAVPxSerializationContext@2@@Z 10050f20 f i NpSerializerAdapter.obj
 0001:0004ff40       ?exportExtraData@?$PxSerializerDefaultAdapter@VNpArticulationJoint@physx@@@physx@@UBEXAAVPxBase@2@AAVPxSerializationContext@2@@Z 10050f40 f i NpSerializerAdapter.obj
 0001:0004ff50       ?exportExtraData@?$PxSerializerDefaultAdapter@VNpArticulationLink@physx@@@physx@@UBEXAAVPxBase@2@AAVPxSerializationContext@2@@Z 10050f50 f i NpSerializerAdapter.obj
 0001:0004ff70       ?exportExtraData@?$PxSerializerDefaultAdapter@VNpCloth@physx@@@physx@@UBEXAAVPxBase@2@AAVPxSerializationContext@2@@Z 10050f70 f i NpSerializerAdapter.obj
 0001:0004ff90       ?exportExtraData@?$PxSerializerDefaultAdapter@VNpClothFabric@physx@@@physx@@UBEXAAVPxBase@2@AAVPxSerializationContext@2@@Z 10050f90 f i NpSerializerAdapter.obj
 0001:0004ffb0       ?exportExtraData@?$PxSerializerDefaultAdapter@VNpConstraint@physx@@@physx@@UBEXAAVPxBase@2@AAVPxSerializationContext@2@@Z 10050fb0 f i NpSerializerAdapter.obj
 0001:0004ffc0       ?exportExtraData@?$PxSerializerDefaultAdapter@VNpMaterial@physx@@@physx@@UBEXAAVPxBase@2@AAVPxSerializationContext@2@@Z 10050fc0 f i NpSerializerAdapter.obj
 0001:0004ffd0       ?exportExtraData@?$PxSerializerDefaultAdapter@VNpParticleFluid@physx@@@physx@@UBEXAAVPxBase@2@AAVPxSerializationContext@2@@Z 10050fd0 f i NpSerializerAdapter.obj
 0001:0004fff0       ?exportExtraData@?$PxSerializerDefaultAdapter@VNpParticleSystem@physx@@@physx@@UBEXAAVPxBase@2@AAVPxSerializationContext@2@@Z 10050ff0 f i NpSerializerAdapter.obj
 0001:00050010       ?exportExtraData@?$PxSerializerDefaultAdapter@VNpRigidDynamic@physx@@@physx@@UBEXAAVPxBase@2@AAVPxSerializationContext@2@@Z 10051010 f i NpSerializerAdapter.obj
 0001:00050030       ?exportExtraData@?$PxSerializerDefaultAdapter@VNpRigidStatic@physx@@@physx@@UBEXAAVPxBase@2@AAVPxSerializationContext@2@@Z 10051030 f i NpSerializerAdapter.obj
 0001:00050050       ?exportExtraData@?$PxSerializerDefaultAdapter@VNpShape@physx@@@physx@@UBEXAAVPxBase@2@AAVPxSerializationContext@2@@Z 10051050 f i NpSerializerAdapter.obj
 0001:00050070       ?exportExtraData@?$PxSerializerDefaultAdapter@VPruningStructure@Sq@physx@@@physx@@UBEXAAVPxBase@2@AAVPxSerializationContext@2@@Z 10051070 f i NpSerializerAdapter.obj
 0001:00050090       ?exportExtraData@?$PxSerializerDefaultAdapter@VRTreeTriangleMesh@Gu@physx@@@physx@@UBEXAAVPxBase@2@AAVPxSerializationContext@2@@Z 10051090 f i NpSerializerAdapter.obj
 0001:000500b0       ?getClassSize@?$PxSerializerDefaultAdapter@VBV4TriangleMesh@Gu@physx@@@physx@@UBEIXZ 100510b0 f i NpSerializerAdapter.obj
 0001:000500c0       ?getClassSize@?$PxSerializerDefaultAdapter@VConvexMesh@Gu@physx@@@physx@@UBEIXZ 100510c0 f i NpSerializerAdapter.obj
 0001:000500d0       ?getClassSize@?$PxSerializerDefaultAdapter@VHeightField@Gu@physx@@@physx@@UBEIXZ 100510d0 f i NpSerializerAdapter.obj
 0001:000500e0       ?getClassSize@?$PxSerializerDefaultAdapter@VNpAggregate@physx@@@physx@@UBEIXZ 100510e0 f i NpSerializerAdapter.obj
 0001:000500f0       ?getClassSize@?$PxSerializerDefaultAdapter@VNpArticulation@physx@@@physx@@UBEIXZ 100510f0 f i NpSerializerAdapter.obj
 0001:00050100       ?getClassSize@?$PxSerializerDefaultAdapter@VNpArticulationJoint@physx@@@physx@@UBEIXZ 10051100 f i NpSerializerAdapter.obj
 0001:00050110       ?getClassSize@?$PxSerializerDefaultAdapter@VNpArticulationLink@physx@@@physx@@UBEIXZ 10051110 f i NpSerializerAdapter.obj
 0001:00050120       ?getClassSize@?$PxSerializerDefaultAdapter@VNpCloth@physx@@@physx@@UBEIXZ 10051120 f i NpSerializerAdapter.obj
 0001:00050130       ?getClassSize@?$PxSerializerDefaultAdapter@VNpClothFabric@physx@@@physx@@UBEIXZ 10051130 f i NpSerializerAdapter.obj
 0001:00050140       ?getClassSize@?$PxSerializerDefaultAdapter@VNpConstraint@physx@@@physx@@UBEIXZ 10051140 f i NpSerializerAdapter.obj
 0001:00050150       ?getClassSize@?$PxSerializerDefaultAdapter@VNpMaterial@physx@@@physx@@UBEIXZ 10051150 f i NpSerializerAdapter.obj
 0001:00050160       ?getClassSize@?$PxSerializerDefaultAdapter@VNpParticleFluid@physx@@@physx@@UBEIXZ 10051160 f i NpSerializerAdapter.obj
 0001:00050170       ?getClassSize@?$PxSerializerDefaultAdapter@VNpParticleSystem@physx@@@physx@@UBEIXZ 10051170 f i NpSerializerAdapter.obj
 0001:00050180       ?getClassSize@?$PxSerializerDefaultAdapter@VNpRigidDynamic@physx@@@physx@@UBEIXZ 10051180 f i NpSerializerAdapter.obj
 0001:00050190       ?getClassSize@?$PxSerializerDefaultAdapter@VNpRigidStatic@physx@@@physx@@UBEIXZ 10051190 f i NpSerializerAdapter.obj
 0001:000501a0       ?getClassSize@?$PxSerializerDefaultAdapter@VNpShape@physx@@@physx@@UBEIXZ 100511a0 f i NpSerializerAdapter.obj
 0001:000501b0       ?getClassSize@?$PxSerializerDefaultAdapter@VPruningStructure@Sq@physx@@@physx@@UBEIXZ 100511b0 f i NpSerializerAdapter.obj
 0001:000501c0       ?getClassSize@?$PxSerializerDefaultAdapter@VRTreeTriangleMesh@Gu@physx@@@physx@@UBEIXZ 100511c0 f i NpSerializerAdapter.obj
 0001:000501d0       ?getConcreteTypeName@?$PxSerializerDefaultAdapter@VBV4TriangleMesh@Gu@physx@@@physx@@UBEPBDXZ 100511d0 f i NpSerializerAdapter.obj
 0001:000501e0       ?getConcreteTypeName@?$PxSerializerDefaultAdapter@VConvexMesh@Gu@physx@@@physx@@UBEPBDXZ 100511e0 f i NpSerializerAdapter.obj
 0001:000501f0       ?getConcreteTypeName@?$PxSerializerDefaultAdapter@VHeightField@Gu@physx@@@physx@@UBEPBDXZ 100511f0 f i NpSerializerAdapter.obj
 0001:00050200       ?getConcreteTypeName@?$PxSerializerDefaultAdapter@VNpAggregate@physx@@@physx@@UBEPBDXZ 10051200 f i NpSerializerAdapter.obj
 0001:00050210       ?getConcreteTypeName@?$PxSerializerDefaultAdapter@VNpArticulation@physx@@@physx@@UBEPBDXZ 10051210 f i NpSerializerAdapter.obj
 0001:00050220       ?getConcreteTypeName@?$PxSerializerDefaultAdapter@VNpArticulationJoint@physx@@@physx@@UBEPBDXZ 10051220 f i NpSerializerAdapter.obj
 0001:00050230       ?getConcreteTypeName@?$PxSerializerDefaultAdapter@VNpArticulationLink@physx@@@physx@@UBEPBDXZ 10051230 f i NpSerializerAdapter.obj
 0001:00050240       ?getConcreteTypeName@?$PxSerializerDefaultAdapter@VNpCloth@physx@@@physx@@UBEPBDXZ 10051240 f i NpSerializerAdapter.obj
 0001:00050250       ?getConcreteTypeName@?$PxSerializerDefaultAdapter@VNpClothFabric@physx@@@physx@@UBEPBDXZ 10051250 f i NpSerializerAdapter.obj
 0001:00050260       ?getConcreteTypeName@?$PxSerializerDefaultAdapter@VNpConstraint@physx@@@physx@@UBEPBDXZ 10051260 f i NpSerializerAdapter.obj
 0001:00050270       ?getConcreteTypeName@?$PxSerializerDefaultAdapter@VNpMaterial@physx@@@physx@@UBEPBDXZ 10051270 f i NpSerializerAdapter.obj
 0001:00050280       ?getConcreteTypeName@?$PxSerializerDefaultAdapter@VNpParticleFluid@physx@@@physx@@UBEPBDXZ 10051280 f i NpSerializerAdapter.obj
 0001:00050290       ?getConcreteTypeName@?$PxSerializerDefaultAdapter@VNpParticleSystem@physx@@@physx@@UBEPBDXZ 10051290 f i NpSerializerAdapter.obj
 0001:000502a0       ?getConcreteTypeName@?$PxSerializerDefaultAdapter@VNpRigidDynamic@physx@@@physx@@UBEPBDXZ 100512a0 f i NpSerializerAdapter.obj
 0001:000502b0       ?getConcreteTypeName@?$PxSerializerDefaultAdapter@VNpRigidStatic@physx@@@physx@@UBEPBDXZ 100512b0 f i NpSerializerAdapter.obj
 0001:000502c0       ?getConcreteTypeName@?$PxSerializerDefaultAdapter@VNpShape@physx@@@physx@@UBEPBDXZ 100512c0 f i NpSerializerAdapter.obj
 0001:000502d0       ?getConcreteTypeName@?$PxSerializerDefaultAdapter@VPruningStructure@Sq@physx@@@physx@@UBEPBDXZ 100512d0 f i NpSerializerAdapter.obj
 0001:000502e0       ?getConcreteTypeName@?$PxSerializerDefaultAdapter@VRTreeTriangleMesh@Gu@physx@@@physx@@UBEPBDXZ 100512e0 f i NpSerializerAdapter.obj
 0001:000502f0       ?isSubordinate@?$PxSerializerDefaultAdapter@VBV4TriangleMesh@Gu@physx@@@physx@@UBE_NXZ 100512f0 f i NpSerializerAdapter.obj
 0001:00050300       ?isSubordinate@?$PxSerializerDefaultAdapter@VConvexMesh@Gu@physx@@@physx@@UBE_NXZ 10051300 f i NpSerializerAdapter.obj
 0001:00050310       ?isSubordinate@?$PxSerializerDefaultAdapter@VHeightField@Gu@physx@@@physx@@UBE_NXZ 10051310 f i NpSerializerAdapter.obj
 0001:00050320       ?isSubordinate@?$PxSerializerDefaultAdapter@VNpAggregate@physx@@@physx@@UBE_NXZ 10051320 f i NpSerializerAdapter.obj
 0001:00050330       ?isSubordinate@?$PxSerializerDefaultAdapter@VNpArticulation@physx@@@physx@@UBE_NXZ 10051330 f i NpSerializerAdapter.obj
 0001:00050340       ?isSubordinate@?$PxSerializerDefaultAdapter@VNpArticulationJoint@physx@@@physx@@UBE_NXZ 10051340 f i NpSerializerAdapter.obj
 0001:00050350       ?isSubordinate@?$PxSerializerDefaultAdapter@VNpArticulationLink@physx@@@physx@@UBE_NXZ 10051350 f i NpSerializerAdapter.obj
 0001:00050360       ?isSubordinate@?$PxSerializerDefaultAdapter@VNpCloth@physx@@@physx@@UBE_NXZ 10051360 f i NpSerializerAdapter.obj
 0001:00050370       ?isSubordinate@?$PxSerializerDefaultAdapter@VNpClothFabric@physx@@@physx@@UBE_NXZ 10051370 f i NpSerializerAdapter.obj
 0001:00050380       ?isSubordinate@?$PxSerializerDefaultAdapter@VNpConstraint@physx@@@physx@@UBE_NXZ 10051380 f i NpSerializerAdapter.obj
 0001:00050390       ?isSubordinate@?$PxSerializerDefaultAdapter@VNpMaterial@physx@@@physx@@UBE_NXZ 10051390 f i NpSerializerAdapter.obj
 0001:000503a0       ?isSubordinate@?$PxSerializerDefaultAdapter@VNpParticleFluid@physx@@@physx@@UBE_NXZ 100513a0 f i NpSerializerAdapter.obj
 0001:000503b0       ?isSubordinate@?$PxSerializerDefaultAdapter@VNpParticleSystem@physx@@@physx@@UBE_NXZ 100513b0 f i NpSerializerAdapter.obj
 0001:000503c0       ?isSubordinate@?$PxSerializerDefaultAdapter@VNpRigidDynamic@physx@@@physx@@UBE_NXZ 100513c0 f i NpSerializerAdapter.obj
 0001:000503d0       ?isSubordinate@?$PxSerializerDefaultAdapter@VNpRigidStatic@physx@@@physx@@UBE_NXZ 100513d0 f i NpSerializerAdapter.obj
 0001:000503e0       ?isSubordinate@?$PxSerializerDefaultAdapter@VNpShape@physx@@@physx@@UBE_NXZ 100513e0 f i NpSerializerAdapter.obj
 0001:000503f0       ?isSubordinate@?$PxSerializerDefaultAdapter@VPruningStructure@Sq@physx@@@physx@@UBE_NXZ 100513f0 f i NpSerializerAdapter.obj
 0001:00050400       ?isSubordinate@?$PxSerializerDefaultAdapter@VRTreeTriangleMesh@Gu@physx@@@physx@@UBE_NXZ 10051400 f i NpSerializerAdapter.obj
 0001:00050670       ?registerReferences@?$PxSerializerDefaultAdapter@VBV4TriangleMesh@Gu@physx@@@physx@@UBEXAAVPxBase@2@AAVPxSerializationContext@2@@Z 10051670 f i NpSerializerAdapter.obj
 0001:000506b0       ?registerReferences@?$PxSerializerDefaultAdapter@VConvexMesh@Gu@physx@@@physx@@UBEXAAVPxBase@2@AAVPxSerializationContext@2@@Z 100516b0 f i NpSerializerAdapter.obj
 0001:000506f0       ?registerReferences@?$PxSerializerDefaultAdapter@VHeightField@Gu@physx@@@physx@@UBEXAAVPxBase@2@AAVPxSerializationContext@2@@Z 100516f0 f i NpSerializerAdapter.obj
 0001:00050730       ?registerReferences@?$PxSerializerDefaultAdapter@VNpAggregate@physx@@@physx@@UBEXAAVPxBase@2@AAVPxSerializationContext@2@@Z 10051730 f i NpSerializerAdapter.obj
 0001:00050770       ?registerReferences@?$PxSerializerDefaultAdapter@VNpArticulation@physx@@@physx@@UBEXAAVPxBase@2@AAVPxSerializationContext@2@@Z 10051770 f i NpSerializerAdapter.obj
 0001:000507b0       ?registerReferences@?$PxSerializerDefaultAdapter@VNpArticulationJoint@physx@@@physx@@UBEXAAVPxBase@2@AAVPxSerializationContext@2@@Z 100517b0 f i NpSerializerAdapter.obj
 0001:000507f0       ?registerReferences@?$PxSerializerDefaultAdapter@VNpArticulationLink@physx@@@physx@@UBEXAAVPxBase@2@AAVPxSerializationContext@2@@Z 100517f0 f i NpSerializerAdapter.obj
 0001:00050830       ?registerReferences@?$PxSerializerDefaultAdapter@VNpCloth@physx@@@physx@@UBEXAAVPxBase@2@AAVPxSerializationContext@2@@Z 10051830 f i NpSerializerAdapter.obj
 0001:00050870       ?registerReferences@?$PxSerializerDefaultAdapter@VNpClothFabric@physx@@@physx@@UBEXAAVPxBase@2@AAVPxSerializationContext@2@@Z 10051870 f i NpSerializerAdapter.obj
 0001:000508b0       ?registerReferences@?$PxSerializerDefaultAdapter@VNpConstraint@physx@@@physx@@UBEXAAVPxBase@2@AAVPxSerializationContext@2@@Z 100518b0 f i NpSerializerAdapter.obj
 0001:000508f0       ?registerReferences@?$PxSerializerDefaultAdapter@VNpMaterial@physx@@@physx@@UBEXAAVPxBase@2@AAVPxSerializationContext@2@@Z 100518f0 f i NpSerializerAdapter.obj
 0001:00050930       ?registerReferences@?$PxSerializerDefaultAdapter@VNpParticleFluid@physx@@@physx@@UBEXAAVPxBase@2@AAVPxSerializationContext@2@@Z 10051930 f i NpSerializerAdapter.obj
 0001:00050970       ?registerReferences@?$PxSerializerDefaultAdapter@VNpParticleSystem@physx@@@physx@@UBEXAAVPxBase@2@AAVPxSerializationContext@2@@Z 10051970 f i NpSerializerAdapter.obj
 0001:000509b0       ?registerReferences@?$PxSerializerDefaultAdapter@VNpRigidDynamic@physx@@@physx@@UBEXAAVPxBase@2@AAVPxSerializationContext@2@@Z 100519b0 f i NpSerializerAdapter.obj
 0001:000509f0       ?registerReferences@?$PxSerializerDefaultAdapter@VNpRigidStatic@physx@@@physx@@UBEXAAVPxBase@2@AAVPxSerializationContext@2@@Z 100519f0 f i NpSerializerAdapter.obj
 0001:00050a30       ?registerReferences@?$PxSerializerDefaultAdapter@VNpShape@physx@@@physx@@UBEXAAVPxBase@2@AAVPxSerializationContext@2@@Z 10051a30 f i NpSerializerAdapter.obj
 0001:00050a70       ?registerReferences@?$PxSerializerDefaultAdapter@VPruningStructure@Sq@physx@@@physx@@UBEXAAVPxBase@2@AAVPxSerializationContext@2@@Z 10051a70 f i NpSerializerAdapter.obj
 0001:00050ab0       ?registerReferences@?$PxSerializerDefaultAdapter@VRTreeTriangleMesh@Gu@physx@@@physx@@UBEXAAVPxBase@2@AAVPxSerializationContext@2@@Z 10051ab0 f i NpSerializerAdapter.obj
 0001:00050af0       ?requires@?$PxSerializerDefaultAdapter@VBV4TriangleMesh@Gu@physx@@@physx@@UBEXAAVPxBase@2@AAVPxProcessPxBaseCallback@2@@Z 10051af0 f i NpSerializerAdapter.obj
 0001:00050b10       ?requires@?$PxSerializerDefaultAdapter@VConvexMesh@Gu@physx@@@physx@@UBEXAAVPxBase@2@AAVPxProcessPxBaseCallback@2@@Z 10051b10 f i NpSerializerAdapter.obj
 0001:00050b30       ?requires@?$PxSerializerDefaultAdapter@VHeightField@Gu@physx@@@physx@@UBEXAAVPxBase@2@AAVPxProcessPxBaseCallback@2@@Z 10051b30 f i NpSerializerAdapter.obj
 0001:00050b50       ?requires@?$PxSerializerDefaultAdapter@VNpAggregate@physx@@@physx@@UBEXAAVPxBase@2@AAVPxProcessPxBaseCallback@2@@Z 10051b50 f i NpSerializerAdapter.obj
 0001:00050b70       ?requires@?$PxSerializerDefaultAdapter@VNpArticulation@physx@@@physx@@UBEXAAVPxBase@2@AAVPxProcessPxBaseCallback@2@@Z 10051b70 f i NpSerializerAdapter.obj
 0001:00050b90       ?requires@?$PxSerializerDefaultAdapter@VNpArticulationJoint@physx@@@physx@@UBEXAAVPxBase@2@AAVPxProcessPxBaseCallback@2@@Z 10051b90 f i NpSerializerAdapter.obj
 0001:00050bb0       ?requires@?$PxSerializerDefaultAdapter@VNpArticulationLink@physx@@@physx@@UBEXAAVPxBase@2@AAVPxProcessPxBaseCallback@2@@Z 10051bb0 f i NpSerializerAdapter.obj
 0001:00050bd0       ?requires@?$PxSerializerDefaultAdapter@VNpCloth@physx@@@physx@@UBEXAAVPxBase@2@AAVPxProcessPxBaseCallback@2@@Z 10051bd0 f i NpSerializerAdapter.obj
 0001:00050bf0       ?requires@?$PxSerializerDefaultAdapter@VNpClothFabric@physx@@@physx@@UBEXAAVPxBase@2@AAVPxProcessPxBaseCallback@2@@Z 10051bf0 f i NpSerializerAdapter.obj
 0001:00050c10       ?requires@?$PxSerializerDefaultAdapter@VNpConstraint@physx@@@physx@@UBEXAAVPxBase@2@AAVPxProcessPxBaseCallback@2@@Z 10051c10 f i NpSerializerAdapter.obj
 0001:00050c30       ?requires@?$PxSerializerDefaultAdapter@VNpMaterial@physx@@@physx@@UBEXAAVPxBase@2@AAVPxProcessPxBaseCallback@2@@Z 10051c30 f i NpSerializerAdapter.obj
 0001:00050c50       ?requires@?$PxSerializerDefaultAdapter@VNpParticleFluid@physx@@@physx@@UBEXAAVPxBase@2@AAVPxProcessPxBaseCallback@2@@Z 10051c50 f i NpSerializerAdapter.obj
 0001:00050c70       ?requires@?$PxSerializerDefaultAdapter@VNpParticleSystem@physx@@@physx@@UBEXAAVPxBase@2@AAVPxProcessPxBaseCallback@2@@Z 10051c70 f i NpSerializerAdapter.obj
 0001:00050c90       ?requires@?$PxSerializerDefaultAdapter@VNpRigidDynamic@physx@@@physx@@UBEXAAVPxBase@2@AAVPxProcessPxBaseCallback@2@@Z 10051c90 f i NpSerializerAdapter.obj
 0001:00050cb0       ?requires@?$PxSerializerDefaultAdapter@VNpRigidStatic@physx@@@physx@@UBEXAAVPxBase@2@AAVPxProcessPxBaseCallback@2@@Z 10051cb0 f i NpSerializerAdapter.obj
 0001:00050cd0       ?requires@?$PxSerializerDefaultAdapter@VNpShape@physx@@@physx@@UBEXAAVPxBase@2@AAVPxProcessPxBaseCallback@2@@Z 10051cd0 f i NpSerializerAdapter.obj
 0001:00050cf0       ?requires@?$PxSerializerDefaultAdapter@VPruningStructure@Sq@physx@@@physx@@UBEXAAVPxBase@2@AAVPxProcessPxBaseCallback@2@@Z 10051cf0 f i NpSerializerAdapter.obj
 0001:00050d10       ?requires@?$PxSerializerDefaultAdapter@VRTreeTriangleMesh@Gu@physx@@@physx@@UBEXAAVPxBase@2@AAVPxProcessPxBaseCallback@2@@Z 10051d10 f i NpSerializerAdapter.obj
 0001:00050d30       ?NpShapeGetScPtrOffset@physx@@YAIXZ 10051d30 f   NpShape.obj
 0001:00050d40       ?NpShapeIncRefCount@physx@@YAXAAVShape@Scb@1@@Z 10051d40 f   NpShape.obj
 0001:00050d50       ?NpShapeDecRefCount@physx@@YAXAAVShape@Scb@1@@Z 10051d50 f   NpShape.obj
 0001:00050d80       ?NpShapeGetScRigidObjectFromScbSLOW@physx@@YAPAVRigidCore@Sc@1@ABVShape@Scb@1@@Z 10051d80 f   NpShape.obj
 0001:00050da0       ??0NpShape@physx@@QAE@V?$PxFlags@W4Enum@PxBaseFlag@physx@@G@1@@Z 10051da0 f   NpShape.obj
 0001:00050e10       ?exportExtraData@NpShape@physx@@UAEXAAVPxSerializationContext@2@@Z 10051e10 f   NpShape.obj
 0001:00050e40       ?importExtraData@NpShape@physx@@QAEXAAVPxDeserializationContext@2@@Z 10051e40 f   NpShape.obj
 0001:00050e80       ?requires@NpShape@physx@@UAEXAAVPxProcessPxBaseCallback@2@@Z 10051e80 f   NpShape.obj
 0001:00050f80       ?resolveReferences@NpShape@physx@@QAEXAAVPxDeserializationContext@2@@Z 10051f80 f   NpShape.obj
 0001:000510b0       ?createObject@NpShape@physx@@SAPAV12@AAPAEAAVPxDeserializationContext@2@@Z 100520b0 f   NpShape.obj
 0001:00051110       ??0NpShape@physx@@QAE@ABVPxGeometry@1@V?$PxFlags@W4Enum@PxShapeFlag@physx@@E@1@PBGG_N@Z 10052110 f   NpShape.obj
 0001:00051200       ??1NpShape@physx@@UAE@XZ   10052200 f   NpShape.obj
 0001:000512f0       ?release@NpShape@physx@@UAEXXZ 100522f0 f   NpShape.obj
 0001:00051310       ?acquireReference@NpShape@physx@@UAEXXZ 10052310 f   NpShape.obj
 0001:00051320       ?getGeometryType@NpShape@physx@@UBE?AW4Enum@PxGeometryType@2@XZ 10052320 f   NpShape.obj
 0001:00051330       ?setGeometry@NpShape@physx@@UAEXABVPxGeometry@2@@Z 10052330 f   NpShape.obj
 0001:000513f0       ?getGeometry@NpShape@physx@@UBE?AVPxGeometryHolder@2@XZ 100523f0 f   NpShape.obj
 0001:00051430       ?getBoxGeometry@NpShape@physx@@UBE_NAAVPxBoxGeometry@2@@Z 10052430 f   NpShape.obj
 0001:00051470       ?getSphereGeometry@NpShape@physx@@UBE_NAAVPxSphereGeometry@2@@Z 10052470 f   NpShape.obj
 0001:000514c0       ?getCapsuleGeometry@NpShape@physx@@UBE_NAAVPxCapsuleGeometry@2@@Z 100524c0 f   NpShape.obj
 0001:00051500       ?getPlaneGeometry@NpShape@physx@@UBE_NAAVPxPlaneGeometry@2@@Z 10052500 f   NpShape.obj
 0001:00051540       ?getConvexMeshGeometry@NpShape@physx@@UBE_NAAVPxConvexMeshGeometry@2@@Z 10052540 f   NpShape.obj
 0001:000515c0       ?getTriangleMeshGeometry@NpShape@physx@@UBE_NAAVPxTriangleMeshGeometry@2@@Z 100525c0 f   NpShape.obj
 0001:00051640       ?getHeightFieldGeometry@NpShape@physx@@UBE_NAAVPxHeightFieldGeometry@2@@Z 10052640 f   NpShape.obj
 0001:000516a0       ?getActor@NpShape@physx@@UBEPAVPxRigidActor@2@XZ 100526a0 f   NpShape.obj
 0001:000516b0       ?setLocalPose@NpShape@physx@@UAEXABVPxTransform@2@@Z 100526b0 f   NpShape.obj
 0001:00051770       ?getLocalPose@NpShape@physx@@UBE?AVPxTransform@2@XZ 10052770 f   NpShape.obj
 0001:000517c0       ?setSimulationFilterData@NpShape@physx@@UAEXABUPxFilterData@2@@Z 100527c0 f   NpShape.obj
 0001:000517d0       ?getSimulationFilterData@NpShape@physx@@UBE?AUPxFilterData@2@XZ 100527d0 f   NpShape.obj
 0001:00051800       ?setQueryFilterData@NpShape@physx@@UAEXABUPxFilterData@2@@Z 10052800 f   NpShape.obj
 0001:00051820       ?getQueryFilterData@NpShape@physx@@UBE?AUPxFilterData@2@XZ 10052820 f   NpShape.obj
 0001:00051840       ?setMaterials@NpShape@physx@@UAEXPBQAVPxMaterial@2@G@Z 10052840 f   NpShape.obj
 0001:00051940       ?getNbMaterials@NpShape@physx@@UBEGXZ 10052940 f   NpShape.obj
 0001:00051960       ?getMaterials@NpShape@physx@@UBEIPAPAVPxMaterial@2@II@Z 10052960 f   NpShape.obj
 0001:00051970       ?getMaterialFromInternalFaceIndex@NpShape@physx@@UBEPAVPxMaterial@2@I@Z 10052970 f   NpShape.obj
 0001:00051a60       ?setContactOffset@NpShape@physx@@UAEXM@Z 10052a60 f   NpShape.obj
 0001:00051a80       ?getContactOffset@NpShape@physx@@UBEMXZ 10052a80 f   NpShape.obj
 0001:00051ab0       ?setRestOffset@NpShape@physx@@UAEXM@Z 10052ab0 f   NpShape.obj
 0001:00051ad0       ?getRestOffset@NpShape@physx@@UBEMXZ 10052ad0 f   NpShape.obj
 0001:00051b10       ?setFlag@NpShape@physx@@UAEXW4Enum@PxShapeFlag@2@_N@Z 10052b10 f   NpShape.obj
 0001:00051b70       ?setFlags@NpShape@physx@@UAEXV?$PxFlags@W4Enum@PxShapeFlag@physx@@E@2@@Z 10052b70 f   NpShape.obj
 0001:00051bb0       ?getFlags@NpShape@physx@@UBE?AV?$PxFlags@W4Enum@PxShapeFlag@physx@@E@2@XZ 10052bb0 f   NpShape.obj
 0001:00051be0       ?isExclusive@NpShape@physx@@UBE_NXZ 10052be0 f   NpShape.obj
 0001:00051bf0       ?setName@NpShape@physx@@UAEXPBD@Z 10052bf0 f   NpShape.obj
 0001:00051c00       ?getName@NpShape@physx@@UBEPBDXZ 10052c00 f   NpShape.obj
 0001:00051c10       ?onRefCountZero@NpShape@physx@@UAEXXZ 10052c10 f   NpShape.obj
 0001:00051c30       ?setFlagsInternal@NpShape@physx@@QAEXV?$PxFlags@W4Enum@PxShapeFlag@physx@@E@2@@Z 10052c30 f   NpShape.obj
 0001:00051de0       ?checkMaterialSetup@NpShape@physx@@SA_NABVPxGeometry@2@PBDPBQAVPxMaterial@2@G@Z 10052de0 f   NpShape.obj
 0001:00051f60       ?onActorAttach@NpShape@physx@@QAEXAAVPxRigidActor@2@@Z 10052f60 f   NpShape.obj
 0001:00051fa0       ?onActorDetach@NpShape@physx@@QAEXXZ 10052fa0 f   NpShape.obj
 0001:00051fe0       ?getScRigidObjectExclusive@NpShape@physx@@QBEAAVRigidCore@Sc@2@XZ 10052fe0 f   NpShape.obj
 0001:00051ff0       ?releaseInternal@NpShape@physx@@QAEXXZ 10052ff0 f   NpShape.obj
 0001:00052010       ?getOwnerScene@NpShape@physx@@QBEPAVNpScene@2@XZ 10053010 f   NpShape.obj
 0001:00052030       ?getAPIScene@NpShape@physx@@ABEPAVNpScene@2@XZ 10053030 f   NpShape.obj
 0001:00052040       ?incMeshRefCount@NpShape@physx@@AAEXXZ 10053040 f   NpShape.obj
 0001:00052060       ?decMeshRefCount@NpShape@physx@@AAEXXZ 10053060 f   NpShape.obj
 0001:00052090       ?getMeshRefCountable@NpShape@physx@@AAEPAVRefCountable@Cm@2@XZ 10053090 f   NpShape.obj
 0001:00052120       ?isWritable@NpShape@physx@@AAE_NXZ 10053120 f   NpShape.obj
 0001:00052140       ?updateSQ@NpShape@physx@@AAEXPBD@Z 10053140 f   NpShape.obj
 0001:000521d0       ??$allocArrayBuffer@G@Scene@Scb@physx@@AAEPAGAAV?$Array@GV?$ReflectionAllocator@G@shdfnd@physx@@@shdfnd@2@IAAI@Z 100531d0 f i NpShape.obj
 0001:00052210       ??0PxTriangleMeshGeometry@physx@@QAE@XZ 10053210 f i NpShape.obj
 0001:00052260       ??1PxShape@physx@@MAE@XZ   10053260 f i NpShape.obj
 0001:00052267       ??_ENpShape@physx@@WM@AEPAXI@Z 10053267 f i NpShape.obj
 0001:00052270       ??_ENpShape@physx@@UAEPAXI@Z 10053270 f i NpShape.obj
 0001:00052270       ??_GNpShape@physx@@UAEPAXI@Z 10053270 f i NpShape.obj
 0001:000522c0       ??_GPxShape@physx@@MAEPAXI@Z 100532c0 f i NpShape.obj
 0001:000522c0       ??_EPxShape@physx@@MAEPAXI@Z 100532c0 f i NpShape.obj
 0001:000522f0       ?getConcreteTypeName@PxShape@physx@@UBEPBDXZ 100532f0 f i NpShape.obj
 0001:00052300       ?getMaterial@Shape@Scb@physx@@QBEPAVPxMaterial@3@I@Z 10053300 f i NpShape.obj
 0001:00052370       ?getMaterials@Shape@Scb@physx@@QBEIPAPAVPxMaterial@3@II@Z 10053370 f i NpShape.obj
 0001:00052400       ?isKindOf@PxShape@physx@@MBE_NPBD@Z 10053400 f i NpShape.obj
 0001:00052480       ?setContactOffset@Shape@Scb@physx@@QAEXM@Z 10053480 f i NpShape.obj
 0001:00052530       ?setFlags@Shape@Scb@physx@@QAEXV?$PxFlags@W4Enum@PxShapeFlag@physx@@E@3@@Z 10053530 f i NpShape.obj
 0001:000525f0       ?setGeometry@Shape@Scb@physx@@QAEPAUShapeBuffer@23@ABVPxGeometry@3@@Z 100535f0 f i NpShape.obj
 0001:000526b0       ?setMaterials@Shape@Scb@physx@@QAE_NPBQAVPxMaterial@3@G@Z 100536b0 f i NpShape.obj
 0001:00052790       ?setRestOffset@Shape@Scb@physx@@QAEXM@Z 10053790 f i NpShape.obj
 0001:00052840       ?setShape2Actor@Shape@Scb@physx@@QAEXABVPxTransform@3@@Z 10053840 f i NpShape.obj
 0001:00052950       ?setSimulationFilterData@Shape@Scb@physx@@QAEXABUPxFilterData@3@@Z 10053950 f i NpShape.obj
 0001:00052a00       ??0NpShapeManager@physx@@QAE@W4PxEMPTY@1@@Z 10053a00 f   NpShapeManager.obj
 0001:00052a40       ?exportExtraData@NpShapeManager@physx@@QAEXAAVPxSerializationContext@2@@Z 10053a40 f   NpShapeManager.obj
 0001:00052a60       ?importExtraData@NpShapeManager@physx@@QAEXAAVPxDeserializationContext@2@@Z 10053a60 f   NpShapeManager.obj
 0001:00052a80       ??0NpShapeManager@physx@@QAE@XZ 10053a80 f   NpShapeManager.obj
 0001:00052aa0       ??1NpShapeManager@physx@@QAE@XZ 10053aa0 f   NpShapeManager.obj
 0001:00052ae0       ?getShapes@NpShapeManager@physx@@QBEIPAPAVPxShape@2@II@Z 10053ae0 f   NpShapeManager.obj
 0001:00052b30       ?attachShape@NpShapeManager@physx@@QAEXAAVNpShape@2@AAVPxRigidActor@2@@Z 10053b30 f   NpShapeManager.obj
 0001:00052bd0       ?detachShape@NpShapeManager@physx@@QAEXAAVNpShape@2@AAVPxRigidActor@2@_N@Z 10053bd0 f   NpShapeManager.obj
 0001:00052c90       ?shapeIsAttached@NpShapeManager@physx@@QBE_NAAVNpShape@2@@Z 10053c90 f   NpShapeManager.obj
 0001:00052cb0       ?detachAll@NpShapeManager@physx@@QAEXPAVNpScene@2@@Z 10053cb0 f   NpShapeManager.obj
 0001:00052d30       ?teardownSceneQuery@NpShapeManager@physx@@QAEXAAVSceneQueryManager@Sq@2@ABVNpShape@2@@Z 10053d30 f   NpShapeManager.obj
 0001:00052d80       ?setupSceneQuery@NpShapeManager@physx@@QAEXAAVSceneQueryManager@Sq@2@ABVPxRigidActor@2@ABVNpShape@2@@Z 10053d80 f   NpShapeManager.obj
 0001:00052df0       ?setupAllSceneQuery@NpShapeManager@physx@@QAEXPAVNpScene@2@ABVPxRigidActor@2@_NPBVPxBounds3@2@@Z 10053df0 f   NpShapeManager.obj
 0001:00052ea0       ?teardownAllSceneQuery@NpShapeManager@physx@@QAEXAAVSceneQueryManager@Sq@2@@Z 10053ea0 f   NpShapeManager.obj
 0001:00052f30       ?markAllSceneQueryForUpdate@NpShapeManager@physx@@QAEXAAVSceneQueryManager@Sq@2@@Z 10053f30 f   NpShapeManager.obj
 0001:00052f70       ?findSceneQueryData@NpShapeManager@physx@@QBEIABVNpShape@2@@Z 10053f70 f   NpShapeManager.obj
 0001:00052fa0       ?getWorldBounds@NpShapeManager@physx@@QBE?AVPxBounds3@2@ABVPxRigidActor@2@@Z 10053fa0 f   NpShapeManager.obj
 0001:000532e0       ?clearShapesOnRelease@NpShapeManager@physx@@QAEXAAVScene@Scb@2@AAVPxRigidActor@2@@Z 100542e0 f   NpShapeManager.obj
 0001:00053340       ?releaseExclusiveUserReferences@NpShapeManager@physx@@QAEXXZ 10054340 f   NpShapeManager.obj
 0001:00053390       ?visualize@NpShapeManager@physx@@QAEXAAVRenderOutput@Cm@2@PAVNpScene@2@ABVPxRigidActor@2@@Z 10054390 f   NpShapeManager.obj
 0001:00053ba0       ?setupSceneQuery@NpShapeManager@physx@@IAEXAAVSceneQueryManager@Sq@2@ABVPxRigidActor@2@I@Z 10054ba0 f   NpShapeManager.obj
 0001:00053c10       ?teardownSceneQuery@NpShapeManager@physx@@IAEXAAVSceneQueryManager@Sq@2@I@Z 10054c10 f   NpShapeManager.obj
 0001:00053cb0       ??0PxMat44@physx@@QAE@ABVPxTransform@1@@Z 10054cb0 f i NpShapeManager.obj
 0001:00053e40       ??0PxVec4@physx@@QAE@XZ    10054e40 f i NpShapeManager.obj
 0001:00053e50       ?findAndReplaceWithLast@?$Array@PAVShape@Scb@physx@@V?$InlineAllocator@$0BA@V?$ReflectionAllocator@PAVShape@Scb@physx@@@shdfnd@physx@@@shdfnd@3@@shdfnd@physx@@QAE_NABQAVShape@Scb@3@@Z 10054e50 f i NpShapeManager.obj
 0001:00053ea0       ?findAndReplaceWithLast@?$Array@URemovedShape@Scb@physx@@V?$InlineAllocator@$0CA@V?$ReflectionAllocator@URemovedShape@Scb@physx@@@shdfnd@physx@@@shdfnd@3@@shdfnd@physx@@QAE_NABURemovedShape@Scb@3@@Z 10054ea0 f i NpShapeManager.obj
 0001:00054180       ?getTriangleVertexIndices@HeightField@Gu@physx@@QBEXIAAI00@Z 10055180 f i NpShapeManager.obj
 0001:00054220       ?growAndPushBack@?$Array@PAVShape@Scb@physx@@V?$InlineAllocator@$0BA@V?$ReflectionAllocator@PAVShape@Scb@physx@@@shdfnd@physx@@@shdfnd@3@@shdfnd@physx@@IAEAAPAVShape@Scb@3@ABQAV453@@Z 10055220 f i NpShapeManager.obj
 0001:000542d0       ?growAndPushBack@?$Array@URemovedShape@Scb@physx@@V?$InlineAllocator@$0CA@V?$ReflectionAllocator@URemovedShape@Scb@physx@@@shdfnd@physx@@@shdfnd@3@@shdfnd@physx@@IAEAAURemovedShape@Scb@3@ABU453@@Z 100552d0 f i NpShapeManager.obj
 0001:00054380       ?onShapeAttach@RigidObject@Scb@physx@@QAEXAAVShape@23@@Z 10055380 f i NpShapeManager.obj
 0001:00054500       ?onShapeDetach@RigidObject@Scb@physx@@QAEXAAVShape@23@_N1@Z 10055500 f i NpShapeManager.obj
 0001:000570d0       ?PxCreateSpatialIndex@physx@@YAPAVPxSpatialIndex@1@XZ 100580d0 f   NpSpatialIndex.obj
 0001:00057140       ??0NpSpatialIndex@physx@@QAE@XZ 10058140 f   NpSpatialIndex.obj
 0001:00057160       ??1NpSpatialIndex@physx@@UAE@XZ 10058160 f   NpSpatialIndex.obj
 0001:00057180       ?insert@NpSpatialIndex@physx@@UAEIAAVPxSpatialIndexItem@2@ABVPxBounds3@2@@Z 10058180 f   NpSpatialIndex.obj
 0001:000571e0       ?update@NpSpatialIndex@physx@@UAEXIABVPxBounds3@2@@Z 100581e0 f   NpSpatialIndex.obj
 0001:00057260       ?remove@NpSpatialIndex@physx@@UAEXI@Z 10058260 f   NpSpatialIndex.obj
 0001:000572a0       ?overlap@NpSpatialIndex@physx@@UBEXABVPxBounds3@2@AAUPxSpatialOverlapCallback@2@@Z 100582a0 f   NpSpatialIndex.obj
 0001:000573b0       ?raycast@NpSpatialIndex@physx@@UBEXABVPxVec3@2@0MAAUPxSpatialLocationCallback@2@@Z 100583b0 f   NpSpatialIndex.obj
 0001:00057420       ?sweep@NpSpatialIndex@physx@@UBEXABVPxBounds3@2@ABVPxVec3@2@MAAUPxSpatialLocationCallback@2@@Z 10058420 f   NpSpatialIndex.obj
 0001:00057540       ?rebuildFull@NpSpatialIndex@physx@@UAEXXZ 10058540 f   NpSpatialIndex.obj
 0001:00057580       ?setIncrementalRebuildRate@NpSpatialIndex@physx@@UAEXI@Z 10058580 f   NpSpatialIndex.obj
 0001:00057590       ?rebuildStep@NpSpatialIndex@physx@@UAEXXZ 10058590 f   NpSpatialIndex.obj
 0001:000575d0       ?release@NpSpatialIndex@physx@@UAEXXZ 100585d0 f   NpSpatialIndex.obj
 0001:000575e0       ?flushUpdates@NpSpatialIndex@physx@@ABEXXZ 100585e0 f   NpSpatialIndex.obj
 0001:00057600       ??1PxSpatialIndex@physx@@MAE@XZ 10058600 f i NpSpatialIndex.obj
 0001:00057610       ??_GLocationCallback@?A0x8e23a517@@UAEPAXI@Z 10058610 f i NpSpatialIndex.obj
 0001:00057610       ??_ELocationCallback@?A0x8e23a517@@UAEPAXI@Z 10058610 f i NpSpatialIndex.obj
 0001:00057640       ??_GNpSpatialIndex@physx@@UAEPAXI@Z 10058640 f i NpSpatialIndex.obj
 0001:00057640       ??_ENpSpatialIndex@physx@@UAEPAXI@Z 10058640 f i NpSpatialIndex.obj
 0001:000576a0       ??_EOverlapCallback@?A0x8e23a517@@UAEPAXI@Z 100586a0 f i NpSpatialIndex.obj
 0001:000576a0       ??_GOverlapCallback@?A0x8e23a517@@UAEPAXI@Z 100586a0 f i NpSpatialIndex.obj
 0001:000576d0       ??_GPxSpatialIndex@physx@@MAEPAXI@Z 100586d0 f i NpSpatialIndex.obj
 0001:000576d0       ??_EPxSpatialIndex@physx@@MAEPAXI@Z 100586d0 f i NpSpatialIndex.obj
 0001:00057700       ?flush@NpSpatialIndex@physx@@UAEXXZ 10058700 f i NpSpatialIndex.obj
 0001:000577d0       ??0NpVolumeCache@physx@@QAE@PAVSceneQueryManager@Sq@1@II@Z 100587d0 f   NpVolumeCache.obj
 0001:00057860       ??1NpVolumeCache@physx@@UAE@XZ 10058860 f   NpVolumeCache.obj
 0001:000578c0       ?isValid@NpVolumeCache@physx@@UBE_NXZ 100588c0 f   NpVolumeCache.obj
 0001:000578f0       ?isValid@NpVolumeCache@physx@@QBE_NI@Z 100588f0 f   NpVolumeCache.obj
 0001:00057930       ?fill@NpVolumeCache@physx@@UAE?AW4FillStatus@PxVolumeCache@2@ABVPxGeometry@2@ABVPxTransform@2@@Z 10058930 f   NpVolumeCache.obj
 0001:000579e0       ?fillInternal@NpVolumeCache@physx@@QAE?AW4FillStatus@PxVolumeCache@2@IPBUPxOverlapHit@2@H@Z 100589e0 f   NpVolumeCache.obj
 0001:00057c20       ?getCacheVolume@NpVolumeCache@physx@@UAE_NAAVPxGeometryHolder@2@AAVPxTransform@2@@Z 10058c20 f   NpVolumeCache.obj
 0001:00057c80       ?getNbCachedShapes@NpVolumeCache@physx@@UAEHXZ 10058c80 f   NpVolumeCache.obj
 0001:00057ca0       ?invalidate@NpVolumeCache@physx@@UAEXXZ 10058ca0 f   NpVolumeCache.obj
 0001:00057cc0       ?release@NpVolumeCache@physx@@UAEXXZ 10058cc0 f   NpVolumeCache.obj
 0001:00057cd0       ?forEach@NpVolumeCache@physx@@UAEXAAUIterator@PxVolumeCache@2@@Z 10058cd0 f   NpVolumeCache.obj
 0001:00057e60       ?setMaxNbStaticShapes@NpVolumeCache@physx@@UAEXI@Z 10058e60 f   NpVolumeCache.obj
 0001:00057ea0       ?getMaxNbStaticShapes@NpVolumeCache@physx@@UAEIXZ 10058ea0 f   NpVolumeCache.obj
 0001:00057eb0       ?setMaxNbDynamicShapes@NpVolumeCache@physx@@UAEXI@Z 10058eb0 f   NpVolumeCache.obj
 0001:00057ef0       ?getMaxNbDynamicShapes@NpVolumeCache@physx@@UAEIXZ 10058ef0 f   NpVolumeCache.obj
 0001:00057f00       ?raycast@NpVolumeCache@physx@@UBE_NABVPxVec3@2@0MAAU?$PxHitCallback@UPxRaycastHit@physx@@@2@V?$PxFlags@W4Enum@PxHitFlag@physx@@G@2@ABUPxQueryFilterData@2@PAVPxQueryFilterCallback@2@@Z 10058f00 f   NpVolumeCache.obj
 0001:00057f90       ?sweep@NpVolumeCache@physx@@UBE_NABVPxGeometry@2@ABVPxTransform@2@ABVPxVec3@2@MAAU?$PxHitCallback@UPxSweepHit@physx@@@2@V?$PxFlags@W4Enum@PxHitFlag@physx@@G@2@ABUPxQueryFilterData@2@PAVPxQueryFilterCallback@2@M@Z 10058f90 f   NpVolumeCache.obj
 0001:00058020       ?overlap@NpVolumeCache@physx@@UBE_NABVPxGeometry@2@ABVPxTransform@2@AAU?$PxHitCallback@UPxOverlapHit@physx@@@2@ABUPxQueryFilterData@2@PAVPxQueryFilterCallback@2@@Z 10059020 f   NpVolumeCache.obj
 0001:000580a0       ?onOriginShift@NpVolumeCache@physx@@QAEXABVPxVec3@2@@Z 100590a0 f   NpVolumeCache.obj
 0001:00058220       ??$multiQuery@UPxOverlapHit@physx@@@NpVolumeCache@physx@@QBE_NABUMultiQueryInput@1@AAU?$PxHitCallback@UPxOverlapHit@physx@@@1@V?$PxFlags@W4Enum@PxHitFlag@physx@@G@1@ABUPxQueryFilterData@1@PAVPxQueryFilterCallback@1@M@Z 10059220 f i NpVolumeCache.obj
 0001:000587a0       ??$multiQuery@UPxRaycastHit@physx@@@NpVolumeCache@physx@@QBE_NABUMultiQueryInput@1@AAU?$PxHitCallback@UPxRaycastHit@physx@@@1@V?$PxFlags@W4Enum@PxHitFlag@physx@@G@1@ABUPxQueryFilterData@1@PAVPxQueryFilterCallback@1@M@Z 100597a0 f i NpVolumeCache.obj
 0001:00058fd0       ??$multiQuery@UPxSweepHit@physx@@@NpVolumeCache@physx@@QBE_NABUMultiQueryInput@1@AAU?$PxHitCallback@UPxSweepHit@physx@@@1@V?$PxFlags@W4Enum@PxHitFlag@physx@@G@1@ABUPxQueryFilterData@1@PAVPxQueryFilterCallback@1@M@Z 10059fd0 f i NpVolumeCache.obj
 0001:000597b0       ??1?$Array@UPxActorShape@physx@@V?$ReflectionAllocator@UPxActorShape@physx@@@shdfnd@2@@shdfnd@physx@@QAE@XZ 1005a7b0 f i NpVolumeCache.obj
 0001:000597e0       ??1PxVolumeCache@physx@@MAE@XZ 1005a7e0 f i NpVolumeCache.obj
 0001:000597f0       ??_F?$Array@UPxActorShape@physx@@V?$ReflectionAllocator@UPxActorShape@physx@@@shdfnd@2@@shdfnd@physx@@QAEXXZ 1005a7f0 f i NpVolumeCache.obj
 0001:00059810       ??_GNpVolumeCache@physx@@UAEPAXI@Z 1005a810 f i NpVolumeCache.obj
 0001:00059810       ??_ENpVolumeCache@physx@@UAEPAXI@Z 1005a810 f i NpVolumeCache.obj
 0001:00059860       ??_ENpVolumeCacheSqCallback@physx@@UAEPAXI@Z 1005a860 f i NpVolumeCache.obj
 0001:00059860       ??_GNpVolumeCacheSqCallback@physx@@UAEPAXI@Z 1005a860 f i NpVolumeCache.obj
 0001:00059890       ??_GPxVolumeCache@physx@@MAEPAXI@Z 1005a890 f i NpVolumeCache.obj
 0001:00059890       ??_EPxVolumeCache@physx@@MAEPAXI@Z 1005a890 f i NpVolumeCache.obj
 0001:000598c0       ?allocate@?$Array@UPxActorShape@physx@@V?$ReflectionAllocator@UPxActorShape@physx@@@shdfnd@2@@shdfnd@physx@@IAEPAUPxActorShape@3@I@Z 1005a8c0 f i NpVolumeCache.obj
 0001:00059940       ?create@?$Array@UPxActorShape@physx@@V?$ReflectionAllocator@UPxActorShape@physx@@@shdfnd@2@@shdfnd@physx@@KAXPAUPxActorShape@3@0ABU43@@Z 1005a940 f i NpVolumeCache.obj
 0001:00059a40       ?growAndPushBack@?$Array@UPxActorShape@physx@@V?$ReflectionAllocator@UPxActorShape@physx@@@shdfnd@2@@shdfnd@physx@@IAEAAUPxActorShape@3@ABU43@@Z 1005aa40 f i NpVolumeCache.obj
 0001:00059ad0       ?processTouches@NpVolumeCacheSqCallback@physx@@UAE_NPBUPxOverlapHit@2@I@Z 1005aad0 f i NpVolumeCache.obj
 0001:00059b50       ?recreate@?$Array@UPxActorShape@physx@@V?$ReflectionAllocator@UPxActorShape@physx@@@shdfnd@2@@shdfnd@physx@@IAEXI@Z 1005ab50 f i NpVolumeCache.obj
 0001:00059bb0       ?resize@?$Array@UPxActorShape@physx@@V?$ReflectionAllocator@UPxActorShape@physx@@@shdfnd@2@@shdfnd@physx@@QAEXIABUPxActorShape@3@@Z 1005abb0 f i NpVolumeCache.obj
 0001:00059bf0       ??0NpWriteCheck@physx@@QAE@PAVNpScene@1@PBD_N@Z 1005abf0 f   NpWriteCheck.obj
 0001:00059ca0       ??1NpWriteCheck@physx@@QAE@XZ 1005aca0 f   NpWriteCheck.obj
 0001:00059d20       ??0PxPhysicsGeneratedValues@physx@@QAE@PBVPxPhysics@1@@Z 1005ad20 f   PxAutoGeneratedMetaDataObjects.obj
 0001:00059d50       ??0PxPhysicsGeneratedInfo@physx@@QAE@XZ 1005ad50 f   PxAutoGeneratedMetaDataObjects.obj
 0001:00059e50       ??0PxMaterialGeneratedValues@physx@@QAE@PBVPxMaterial@1@@Z 1005ae50 f   PxAutoGeneratedMetaDataObjects.obj
 0001:00059ec0       ??0PxMaterialGeneratedInfo@physx@@QAE@XZ 1005aec0 f   PxAutoGeneratedMetaDataObjects.obj
 0001:00059fc0       ??0PxActorGeneratedValues@physx@@QAE@PBVPxActor@1@@Z 1005afc0 f   PxAutoGeneratedMetaDataObjects.obj
 0001:0005a030       ??0PxActorGeneratedInfo@physx@@QAE@XZ 1005b030 f   PxAutoGeneratedMetaDataObjects.obj
 0001:0005a110       ??0PxRigidActorGeneratedValues@physx@@QAE@PBVPxRigidActor@1@@Z 1005b110 f   PxAutoGeneratedMetaDataObjects.obj
 0001:0005a180       ??0PxRigidActorGeneratedInfo@physx@@QAE@XZ 1005b180 f   PxAutoGeneratedMetaDataObjects.obj
 0001:0005a200       ??0PxRigidBodyGeneratedValues@physx@@QAE@PBVPxRigidBody@1@@Z 1005b200 f   PxAutoGeneratedMetaDataObjects.obj
 0001:0005a2c0       ??0PxRigidBodyGeneratedInfo@physx@@QAE@XZ 1005b2c0 f   PxAutoGeneratedMetaDataObjects.obj
 0001:0005a470       ??0PxRigidDynamicGeneratedValues@physx@@QAE@PBVPxRigidDynamic@1@@Z 1005b470 f   PxAutoGeneratedMetaDataObjects.obj
 0001:0005a550       ??0PxRigidDynamicGeneratedInfo@physx@@QAE@XZ 1005b550 f   PxAutoGeneratedMetaDataObjects.obj
 0001:0005a720       ??0PxRigidStaticGeneratedValues@physx@@QAE@PBVPxRigidStatic@1@@Z 1005b720 f   PxAutoGeneratedMetaDataObjects.obj
 0001:0005a750       ??0PxRigidStaticGeneratedInfo@physx@@QAE@XZ 1005b750 f   PxAutoGeneratedMetaDataObjects.obj
 0001:0005a780       ??0PxArticulationLinkGeneratedValues@physx@@QAE@PBVPxArticulationLink@1@@Z 1005b780 f   PxAutoGeneratedMetaDataObjects.obj
 0001:0005a7c0       ??0PxArticulationLinkGeneratedInfo@physx@@QAE@XZ 1005b7c0 f   PxAutoGeneratedMetaDataObjects.obj
 0001:0005a830       ??0PxArticulationJointGeneratedValues@physx@@QAE@PBVPxArticulationJoint@1@@Z 1005b830 f   PxAutoGeneratedMetaDataObjects.obj
 0001:0005a930       ??0PxArticulationJointGeneratedInfo@physx@@QAE@XZ 1005b930 f   PxAutoGeneratedMetaDataObjects.obj
 0001:0005abc0       ??0PxArticulationGeneratedValues@physx@@QAE@PBVPxArticulation@1@@Z 1005bbc0 f   PxAutoGeneratedMetaDataObjects.obj
 0001:0005ac70       ??0PxArticulationGeneratedInfo@physx@@QAE@XZ 1005bc70 f   PxAutoGeneratedMetaDataObjects.obj
 0001:0005ae60       ??0PxAggregateGeneratedValues@physx@@QAE@PBVPxAggregate@1@@Z 1005be60 f   PxAutoGeneratedMetaDataObjects.obj
 0001:0005aea0       ??0PxAggregateGeneratedInfo@physx@@QAE@XZ 1005bea0 f   PxAutoGeneratedMetaDataObjects.obj
 0001:0005af00       ??0PxConstraintGeneratedValues@physx@@QAE@PBVPxConstraint@1@@Z 1005bf00 f   PxAutoGeneratedMetaDataObjects.obj
 0001:0005af70       ??0PxConstraintGeneratedInfo@physx@@QAE@XZ 1005bf70 f   PxAutoGeneratedMetaDataObjects.obj
 0001:0005b040       ??0PxShapeGeneratedValues@physx@@QAE@PBVPxShape@1@@Z 1005c040 f   PxAutoGeneratedMetaDataObjects.obj
 0001:0005b0e0       ??0PxShapeGeneratedInfo@physx@@QAE@XZ 1005c0e0 f   PxAutoGeneratedMetaDataObjects.obj
 0001:0005b270       ??0PxClothFabricGeneratedValues@physx@@QAE@PBVPxClothFabric@1@@Z 1005c270 f   PxAutoGeneratedMetaDataObjects.obj
 0001:0005b2a0       ??0PxClothFabricGeneratedInfo@physx@@QAE@XZ 1005c2a0 f   PxAutoGeneratedMetaDataObjects.obj
 0001:0005b360       ??0PxClothGeneratedValues@physx@@QAE@PBVPxCloth@1@@Z 1005c360 f   PxAutoGeneratedMetaDataObjects.obj
 0001:0005b650       ??0PxClothGeneratedInfo@physx@@QAE@XZ 1005c650 f   PxAutoGeneratedMetaDataObjects.obj
 0001:0005bb40       ??0PxParticleBaseGeneratedValues@physx@@QAE@PBVPxParticleBase@1@@Z 1005cb40 f   PxAutoGeneratedMetaDataObjects.obj
 0001:0005bca0       ??0PxParticleBaseGeneratedInfo@physx@@QAE@XZ 1005cca0 f   PxAutoGeneratedMetaDataObjects.obj
 0001:0005bed0       ??0PxParticleFluidGeneratedValues@physx@@QAE@PBVPxParticleFluid@1@@Z 1005ced0 f   PxAutoGeneratedMetaDataObjects.obj
 0001:0005bf20       ??0PxParticleFluidGeneratedInfo@physx@@QAE@XZ 1005cf20 f   PxAutoGeneratedMetaDataObjects.obj
 0001:0005bfd0       ??0PxParticleSystemGeneratedValues@physx@@QAE@PBVPxParticleSystem@1@@Z 1005cfd0 f   PxAutoGeneratedMetaDataObjects.obj
 0001:0005c000       ??0PxParticleSystemGeneratedInfo@physx@@QAE@XZ 1005d000 f   PxAutoGeneratedMetaDataObjects.obj
 0001:0005c030       ??0PxPruningStructureGeneratedValues@physx@@QAE@PBVPxPruningStructure@1@@Z 1005d030 f   PxAutoGeneratedMetaDataObjects.obj
 0001:0005c050       ??0PxPruningStructureGeneratedInfo@physx@@QAE@XZ 1005d050 f   PxAutoGeneratedMetaDataObjects.obj
 0001:0005c090       ??0PxTolerancesScaleGeneratedValues@physx@@QAE@PBVPxTolerancesScale@1@@Z 1005d090 f   PxAutoGeneratedMetaDataObjects.obj
 0001:0005c0d0       ??0PxTolerancesScaleGeneratedInfo@physx@@QAE@XZ 1005d0d0 f   PxAutoGeneratedMetaDataObjects.obj
 0001:0005c140       ??0PxGeometryGeneratedValues@physx@@QAE@PBVPxGeometry@1@@Z 1005d140 f   PxAutoGeneratedMetaDataObjects.obj
 0001:0005c150       ??0PxGeometryGeneratedInfo@physx@@QAE@XZ 1005d150 f   PxAutoGeneratedMetaDataObjects.obj
 0001:0005c160       ??0PxBoxGeometryGeneratedValues@physx@@QAE@PBVPxBoxGeometry@1@@Z 1005d160 f   PxAutoGeneratedMetaDataObjects.obj
 0001:0005c180       ??0PxBoxGeometryGeneratedInfo@physx@@QAE@XZ 1005d180 f   PxAutoGeneratedMetaDataObjects.obj
 0001:0005c1a0       ??0PxCapsuleGeometryGeneratedValues@physx@@QAE@PBVPxCapsuleGeometry@1@@Z 1005d1a0 f   PxAutoGeneratedMetaDataObjects.obj
 0001:0005c1c0       ??0PxCapsuleGeometryGeneratedInfo@physx@@QAE@XZ 1005d1c0 f   PxAutoGeneratedMetaDataObjects.obj
 0001:0005c200       ??0PxMeshScaleGeneratedValues@physx@@QAE@PBVPxMeshScale@1@@Z 1005d200 f   PxAutoGeneratedMetaDataObjects.obj
 0001:0005c240       ??0PxMeshScaleGeneratedInfo@physx@@QAE@XZ 1005d240 f   PxAutoGeneratedMetaDataObjects.obj
 0001:0005c280       ??0PxConvexMeshGeometryGeneratedValues@physx@@QAE@PBVPxConvexMeshGeometry@1@@Z 1005d280 f   PxAutoGeneratedMetaDataObjects.obj
 0001:0005c2d0       ??0PxConvexMeshGeometryGeneratedInfo@physx@@QAE@XZ 1005d2d0 f   PxAutoGeneratedMetaDataObjects.obj
 0001:0005c330       ??0PxSphereGeometryGeneratedValues@physx@@QAE@PBVPxSphereGeometry@1@@Z 1005d330 f   PxAutoGeneratedMetaDataObjects.obj
 0001:0005c390       ??0PxSphereGeometryGeneratedInfo@physx@@QAE@XZ 1005d390 f   PxAutoGeneratedMetaDataObjects.obj
 0001:0005c3d0       ??0PxPlaneGeometryGeneratedValues@physx@@QAE@PBVPxPlaneGeometry@1@@Z 1005d3d0 f   PxAutoGeneratedMetaDataObjects.obj
 0001:0005c3e0       ??0PxPlaneGeometryGeneratedInfo@physx@@QAE@XZ 1005d3e0 f   PxAutoGeneratedMetaDataObjects.obj
 0001:0005c3f0       ??0PxTriangleMeshGeometryGeneratedValues@physx@@QAE@PBVPxTriangleMeshGeometry@1@@Z 1005d3f0 f   PxAutoGeneratedMetaDataObjects.obj
 0001:0005c440       ??0PxTriangleMeshGeometryGeneratedInfo@physx@@QAE@XZ 1005d440 f   PxAutoGeneratedMetaDataObjects.obj
 0001:0005c4a0       ??0PxHeightFieldGeometryGeneratedValues@physx@@QAE@PBVPxHeightFieldGeometry@1@@Z 1005d4a0 f   PxAutoGeneratedMetaDataObjects.obj
 0001:0005c4d0       ??0PxHeightFieldGeometryGeneratedInfo@physx@@QAE@XZ 1005d4d0 f   PxAutoGeneratedMetaDataObjects.obj
 0001:0005c560       ??0PxHeightFieldDescGeneratedValues@physx@@QAE@PBVPxHeightFieldDesc@1@@Z 1005d560 f   PxAutoGeneratedMetaDataObjects.obj
 0001:0005c600       ??0PxHeightFieldDescGeneratedInfo@physx@@QAE@XZ 1005d600 f   PxAutoGeneratedMetaDataObjects.obj
 0001:0005c6e0       ??0PxSceneGeneratedValues@physx@@QAE@PBVPxScene@1@@Z 1005d6e0 f   PxAutoGeneratedMetaDataObjects.obj
 0001:0005c8b0       ??0PxSceneGeneratedInfo@physx@@QAE@XZ 1005d8b0 f   PxAutoGeneratedMetaDataObjects.obj
 0001:0005cd60       ??0PxClothParticleGeneratedValues@physx@@QAE@PBUPxClothParticle@1@@Z 1005dd60 f   PxAutoGeneratedMetaDataObjects.obj
 0001:0005cd90       ??0PxClothParticleGeneratedInfo@physx@@QAE@XZ 1005dd90 f   PxAutoGeneratedMetaDataObjects.obj
 0001:0005cdd0       ??0PxClothFabricPhaseGeneratedValues@physx@@QAE@PBUPxClothFabricPhase@1@@Z 1005ddd0 f   PxAutoGeneratedMetaDataObjects.obj
 0001:0005cdf0       ??0PxClothFabricPhaseGeneratedInfo@physx@@QAE@XZ 1005ddf0 f   PxAutoGeneratedMetaDataObjects.obj
 0001:0005ce30       ??0PxSceneLimitsGeneratedValues@physx@@QAE@PBVPxSceneLimits@1@@Z 1005de30 f   PxAutoGeneratedMetaDataObjects.obj
 0001:0005ce70       ??0PxSceneLimitsGeneratedInfo@physx@@QAE@XZ 1005de70 f   PxAutoGeneratedMetaDataObjects.obj
 0001:0005cf80       ??0PxgDynamicsMemoryConfigGeneratedValues@physx@@QAE@PBUPxgDynamicsMemoryConfig@1@@Z 1005df80 f   PxAutoGeneratedMetaDataObjects.obj
 0001:0005cfc0       ??0PxgDynamicsMemoryConfigGeneratedInfo@physx@@QAE@XZ 1005dfc0 f   PxAutoGeneratedMetaDataObjects.obj
 0001:0005d0b0       ??0PxSceneDescGeneratedValues@physx@@QAE@PBVPxSceneDesc@1@@Z 1005e0b0 f   PxAutoGeneratedMetaDataObjects.obj
 0001:0005d240       ??0PxSceneDescGeneratedInfo@physx@@QAE@XZ 1005e240 f   PxAutoGeneratedMetaDataObjects.obj
 0001:0005d720       ??0PxSimulationStatisticsGeneratedValues@physx@@QAE@PBVPxSimulationStatistics@1@@Z 1005e720 f   PxAutoGeneratedMetaDataObjects.obj
 0001:0005d860       ??0PxSimulationStatisticsGeneratedInfo@physx@@QAE@XZ 1005e860 f   PxAutoGeneratedMetaDataObjects.obj
 0001:0005dbd0       ??0PxLockedDataGeneratedValues@physx@@QAE@PBVPxLockedData@1@@Z 1005ebd0 f   PxAutoGeneratedMetaDataObjects.obj
 0001:0005dbe0       ??0PxLockedDataGeneratedInfo@physx@@QAE@XZ 1005ebe0 f   PxAutoGeneratedMetaDataObjects.obj
 0001:0005dbf0       ??0PxParticleReadDataGeneratedValues@physx@@QAE@PBVPxParticleReadData@1@@Z 1005ebf0 f   PxAutoGeneratedMetaDataObjects.obj
 0001:0005dc60       ??0PxParticleReadDataGeneratedInfo@physx@@QAE@XZ 1005ec60 f   PxAutoGeneratedMetaDataObjects.obj
 0001:0005dd70       ??0PxClothStretchConfigGeneratedValues@physx@@QAE@PBUPxClothStretchConfig@1@@Z 1005ed70 f   PxAutoGeneratedMetaDataObjects.obj
 0001:0005dda0       ??0PxClothStretchConfigGeneratedInfo@physx@@QAE@XZ 1005eda0 f   PxAutoGeneratedMetaDataObjects.obj
 0001:0005de20       ??0PxClothTetherConfigGeneratedValues@physx@@QAE@PBUPxClothTetherConfig@1@@Z 1005ee20 f   PxAutoGeneratedMetaDataObjects.obj
 0001:0005de40       ??0PxClothTetherConfigGeneratedInfo@physx@@QAE@XZ 1005ee40 f   PxAutoGeneratedMetaDataObjects.obj
 0001:0005de80       ??0PxClothMotionConstraintConfigGeneratedValues@physx@@QAE@PBUPxClothMotionConstraintConfig@1@@Z 1005ee80 f   PxAutoGeneratedMetaDataObjects.obj
 0001:0005dea0       ??0PxClothMotionConstraintConfigGeneratedInfo@physx@@QAE@XZ 1005eea0 f   PxAutoGeneratedMetaDataObjects.obj
 0001:0005df00       ??0PxClothParticleDataGeneratedValues@physx@@QAE@PBVPxClothParticleData@1@@Z 1005ef00 f   PxAutoGeneratedMetaDataObjects.obj
 0001:0005df20       ??0PxClothParticleDataGeneratedInfo@physx@@QAE@XZ 1005ef20 f   PxAutoGeneratedMetaDataObjects.obj
 0001:0005df60       ?getPxPhysics_TolerancesScale@@YAABVPxTolerancesScale@physx@@PBVPxPhysics@2@@Z 1005ef60 f   PxAutoGeneratedMetaDataObjects.obj
 0001:0005df70       ?getPxPhysics_TriangleMeshes@@YAIPBVPxPhysics@physx@@PAPAVPxTriangleMesh@2@I@Z 1005ef70 f   PxAutoGeneratedMetaDataObjects.obj
 0001:0005df90       ?getNbPxPhysics_TriangleMeshes@@YAIPBVPxPhysics@physx@@@Z 1005ef90 f   PxAutoGeneratedMetaDataObjects.obj
 0001:0005dfa0       ?createPxPhysics_TriangleMeshes@@YAPAVPxTriangleMesh@physx@@PAVPxPhysics@2@AAVPxInputStream@2@@Z 1005efa0 f   PxAutoGeneratedMetaDataObjects.obj
 0001:0005dfb0       ?getPxPhysics_HeightFields@@YAIPBVPxPhysics@physx@@PAPAVPxHeightField@2@I@Z 1005efb0 f   PxAutoGeneratedMetaDataObjects.obj
 0001:0005dfd0       ?getNbPxPhysics_HeightFields@@YAIPBVPxPhysics@physx@@@Z 1005efd0 f   PxAutoGeneratedMetaDataObjects.obj
 0001:0005dfe0       ?createPxPhysics_HeightFields@@YAPAVPxHeightField@physx@@PAVPxPhysics@2@AAVPxInputStream@2@@Z 1005efe0 f   PxAutoGeneratedMetaDataObjects.obj
 0001:0005dff0       ?getPxPhysics_ConvexMeshes@@YAIPBVPxPhysics@physx@@PAPAVPxConvexMesh@2@I@Z 1005eff0 f   PxAutoGeneratedMetaDataObjects.obj
 0001:0005e010       ?getNbPxPhysics_ConvexMeshes@@YAIPBVPxPhysics@physx@@@Z 1005f010 f   PxAutoGeneratedMetaDataObjects.obj
 0001:0005e020       ?createPxPhysics_ConvexMeshes@@YAPAVPxConvexMesh@physx@@PAVPxPhysics@2@AAVPxInputStream@2@@Z 1005f020 f   PxAutoGeneratedMetaDataObjects.obj
 0001:0005e030       ?getPxPhysics_ClothFabrics@@YAIPBVPxPhysics@physx@@PAPAVPxClothFabric@2@I@Z 1005f030 f   PxAutoGeneratedMetaDataObjects.obj
 0001:0005e050       ?getNbPxPhysics_ClothFabrics@@YAIPBVPxPhysics@physx@@@Z 1005f050 f   PxAutoGeneratedMetaDataObjects.obj
 0001:0005e060       ?getPxPhysics_Scenes@@YAIPBVPxPhysics@physx@@PAPAVPxScene@2@I@Z 1005f060 f   PxAutoGeneratedMetaDataObjects.obj
 0001:0005e080       ?getNbPxPhysics_Scenes@@YAIPBVPxPhysics@physx@@@Z 1005f080 f   PxAutoGeneratedMetaDataObjects.obj
 0001:0005e090       ?createPxPhysics_Scenes@@YAPAVPxScene@physx@@PAVPxPhysics@2@ABVPxSceneDesc@2@@Z 1005f090 f   PxAutoGeneratedMetaDataObjects.obj
 0001:0005e0a0       ?getPxPhysics_Shapes@@YAIPBVPxPhysics@physx@@PAPAVPxShape@2@I@Z 1005f0a0 f   PxAutoGeneratedMetaDataObjects.obj
 0001:0005e0c0       ?getNbPxPhysics_Shapes@@YAIPBVPxPhysics@physx@@@Z 1005f0c0 f   PxAutoGeneratedMetaDataObjects.obj
 0001:0005e0d0       ?getPxPhysics_Materials@@YAIPBVPxPhysics@physx@@PAPAVPxMaterial@2@I@Z 1005f0d0 f   PxAutoGeneratedMetaDataObjects.obj
 0001:0005e0f0       ?getNbPxPhysics_Materials@@YAIPBVPxPhysics@physx@@@Z 1005f0f0 f   PxAutoGeneratedMetaDataObjects.obj
 0001:0005e100       ?getPxMaterial_ReferenceCount@@YAIPBVPxMaterial@physx@@@Z 1005f100 f   PxAutoGeneratedMetaDataObjects.obj
 0001:0005e110       ?setPxMaterial_DynamicFriction@@YAXPAVPxMaterial@physx@@M@Z 1005f110 f   PxAutoGeneratedMetaDataObjects.obj
 0001:0005e130       ?getPxMaterial_DynamicFriction@@YAMPBVPxMaterial@physx@@@Z 1005f130 f   PxAutoGeneratedMetaDataObjects.obj
 0001:0005e140       ?setPxMaterial_StaticFriction@@YAXPAVPxMaterial@physx@@M@Z 1005f140 f   PxAutoGeneratedMetaDataObjects.obj
 0001:0005e160       ?getPxMaterial_StaticFriction@@YAMPBVPxMaterial@physx@@@Z 1005f160 f   PxAutoGeneratedMetaDataObjects.obj
 0001:0005e170       ?setPxMaterial_Restitution@@YAXPAVPxMaterial@physx@@M@Z 1005f170 f   PxAutoGeneratedMetaDataObjects.obj
 0001:0005e190       ?getPxMaterial_Restitution@@YAMPBVPxMaterial@physx@@@Z 1005f190 f   PxAutoGeneratedMetaDataObjects.obj
 0001:0005e1a0       ?setPxMaterial_Flags@@YAXPAVPxMaterial@physx@@V?$PxFlags@W4Enum@PxMaterialFlag@physx@@G@2@@Z 1005f1a0 f   PxAutoGeneratedMetaDataObjects.obj
 0001:0005e1c0       ?getPxMaterial_Flags@@YA?AV?$PxFlags@W4Enum@PxMaterialFlag@physx@@G@physx@@PBVPxMaterial@2@@Z 1005f1c0 f   PxAutoGeneratedMetaDataObjects.obj
 0001:0005e1e0       ?setPxMaterial_FrictionCombineMode@@YAXPAVPxMaterial@physx@@W4Enum@PxCombineMode@2@@Z 1005f1e0 f   PxAutoGeneratedMetaDataObjects.obj
 0001:0005e1f0       ?getPxMaterial_FrictionCombineMode@@YA?AW4Enum@PxCombineMode@physx@@PBVPxMaterial@3@@Z 1005f1f0 f   PxAutoGeneratedMetaDataObjects.obj
 0001:0005e200       ?setPxMaterial_RestitutionCombineMode@@YAXPAVPxMaterial@physx@@W4Enum@PxCombineMode@2@@Z 1005f200 f   PxAutoGeneratedMetaDataObjects.obj
 0001:0005e210       ?getPxMaterial_RestitutionCombineMode@@YA?AW4Enum@PxCombineMode@physx@@PBVPxMaterial@3@@Z 1005f210 f   PxAutoGeneratedMetaDataObjects.obj
 0001:0005e220       ?getPxMaterial_ConcreteTypeName@@YAPBDPBVPxMaterial@physx@@@Z 1005f220 f   PxAutoGeneratedMetaDataObjects.obj
 0001:0005e230       ?getPxActor_Scene@@YAPAVPxScene@physx@@PBVPxActor@2@@Z 1005f230 f   PxAutoGeneratedMetaDataObjects.obj
 0001:0005e240       ?setPxActor_Name@@YAXPAVPxActor@physx@@PBD@Z 1005f240 f   PxAutoGeneratedMetaDataObjects.obj
 0001:0005e250       ?getPxActor_Name@@YAPBDPBVPxActor@physx@@@Z 1005f250 f   PxAutoGeneratedMetaDataObjects.obj
 0001:0005e260       ?setPxActor_ActorFlags@@YAXPAVPxActor@physx@@V?$PxFlags@W4Enum@PxActorFlag@physx@@E@2@@Z 1005f260 f   PxAutoGeneratedMetaDataObjects.obj
 0001:0005e280       ?getPxActor_ActorFlags@@YA?AV?$PxFlags@W4Enum@PxActorFlag@physx@@E@physx@@PBVPxActor@2@@Z 1005f280 f   PxAutoGeneratedMetaDataObjects.obj
 0001:0005e2a0       ?setPxActor_DominanceGroup@@YAXPAVPxActor@physx@@E@Z 1005f2a0 f   PxAutoGeneratedMetaDataObjects.obj
 0001:0005e2b0       ?getPxActor_DominanceGroup@@YAEPBVPxActor@physx@@@Z 1005f2b0 f   PxAutoGeneratedMetaDataObjects.obj
 0001:0005e2c0       ?setPxActor_OwnerClient@@YAXPAVPxActor@physx@@E@Z 1005f2c0 f   PxAutoGeneratedMetaDataObjects.obj
 0001:0005e2d0       ?getPxActor_OwnerClient@@YAEPBVPxActor@physx@@@Z 1005f2d0 f   PxAutoGeneratedMetaDataObjects.obj
 0001:0005e2e0       ?setPxActor_ClientBehaviorFlags@@YAXPAVPxActor@physx@@V?$PxFlags@W4Enum@PxActorClientBehaviorFlag@physx@@E@2@@Z 1005f2e0 f   PxAutoGeneratedMetaDataObjects.obj
 0001:0005e300       ?getPxActor_ClientBehaviorFlags@@YA?AV?$PxFlags@W4Enum@PxActorClientBehaviorFlag@physx@@E@physx@@PBVPxActor@2@@Z 1005f300 f   PxAutoGeneratedMetaDataObjects.obj
 0001:0005e320       ?getPxActor_Aggregate@@YAPAVPxAggregate@physx@@PBVPxActor@2@@Z 1005f320 f   PxAutoGeneratedMetaDataObjects.obj
 0001:0005e330       ?setPxRigidActor_GlobalPose@@YAXPAVPxRigidActor@physx@@ABVPxTransform@2@@Z 1005f330 f   PxAutoGeneratedMetaDataObjects.obj
 0001:0005e350       ?getPxRigidActor_GlobalPose@@YA?AVPxTransform@physx@@PBVPxRigidActor@2@@Z 1005f350 f   PxAutoGeneratedMetaDataObjects.obj
 0001:0005e370       ?getPxRigidActor_Shapes@@YAIPBVPxRigidActor@physx@@PAPAVPxShape@2@I@Z 1005f370 f   PxAutoGeneratedMetaDataObjects.obj
 0001:0005e390       ?getNbPxRigidActor_Shapes@@YAIPBVPxRigidActor@physx@@@Z 1005f390 f   PxAutoGeneratedMetaDataObjects.obj
 0001:0005e3a0       ?getPxRigidActor_Constraints@@YAIPBVPxRigidActor@physx@@PAPAVPxConstraint@2@I@Z 1005f3a0 f   PxAutoGeneratedMetaDataObjects.obj
 0001:0005e3c0       ?getNbPxRigidActor_Constraints@@YAIPBVPxRigidActor@physx@@@Z 1005f3c0 f   PxAutoGeneratedMetaDataObjects.obj
 0001:0005e3d0       ?setPxRigidBody_CMassLocalPose@@YAXPAVPxRigidBody@physx@@ABVPxTransform@2@@Z 1005f3d0 f   PxAutoGeneratedMetaDataObjects.obj
 0001:0005e3e0       ?getPxRigidBody_CMassLocalPose@@YA?AVPxTransform@physx@@PBVPxRigidBody@2@@Z 1005f3e0 f   PxAutoGeneratedMetaDataObjects.obj
 0001:0005e400       ?setPxRigidBody_Mass@@YAXPAVPxRigidBody@physx@@M@Z 1005f400 f   PxAutoGeneratedMetaDataObjects.obj
 0001:0005e420       ?getPxRigidBody_Mass@@YAMPBVPxRigidBody@physx@@@Z 1005f420 f   PxAutoGeneratedMetaDataObjects.obj
 0001:0005e440       ?getPxRigidBody_InvMass@@YAMPBVPxRigidBody@physx@@@Z 1005f440 f   PxAutoGeneratedMetaDataObjects.obj
 0001:0005e460       ?setPxRigidBody_MassSpaceInertiaTensor@@YAXPAVPxRigidBody@physx@@ABVPxVec3@2@@Z 1005f460 f   PxAutoGeneratedMetaDataObjects.obj
 0001:0005e480       ?getPxRigidBody_MassSpaceInertiaTensor@@YA?AVPxVec3@physx@@PBVPxRigidBody@2@@Z 1005f480 f   PxAutoGeneratedMetaDataObjects.obj
 0001:0005e4a0       ?getPxRigidBody_MassSpaceInvInertiaTensor@@YA?AVPxVec3@physx@@PBVPxRigidBody@2@@Z 1005f4a0 f   PxAutoGeneratedMetaDataObjects.obj
 0001:0005e4c0       ?setPxRigidBody_LinearVelocity@@YAXPAVPxRigidBody@physx@@ABVPxVec3@2@@Z 1005f4c0 f   PxAutoGeneratedMetaDataObjects.obj
 0001:0005e4e0       ?getPxRigidBody_LinearVelocity@@YA?AVPxVec3@physx@@PBVPxRigidBody@2@@Z 1005f4e0 f   PxAutoGeneratedMetaDataObjects.obj
 0001:0005e500       ?setPxRigidBody_AngularVelocity@@YAXPAVPxRigidBody@physx@@ABVPxVec3@2@@Z 1005f500 f   PxAutoGeneratedMetaDataObjects.obj
 0001:0005e520       ?getPxRigidBody_AngularVelocity@@YA?AVPxVec3@physx@@PBVPxRigidBody@2@@Z 1005f520 f   PxAutoGeneratedMetaDataObjects.obj
 0001:0005e540       ?setPxRigidBody_RigidBodyFlags@@YAXPAVPxRigidBody@physx@@V?$PxFlags@W4Enum@PxRigidBodyFlag@physx@@E@2@@Z 1005f540 f   PxAutoGeneratedMetaDataObjects.obj
 0001:0005e560       ?getPxRigidBody_RigidBodyFlags@@YA?AV?$PxFlags@W4Enum@PxRigidBodyFlag@physx@@E@physx@@PBVPxRigidBody@2@@Z 1005f560 f   PxAutoGeneratedMetaDataObjects.obj
 0001:0005e580       ?setPxRigidBody_MinCCDAdvanceCoefficient@@YAXPAVPxRigidBody@physx@@M@Z 1005f580 f   PxAutoGeneratedMetaDataObjects.obj
 0001:0005e5a0       ?getPxRigidBody_MinCCDAdvanceCoefficient@@YAMPBVPxRigidBody@physx@@@Z 1005f5a0 f   PxAutoGeneratedMetaDataObjects.obj
 0001:0005e5c0       ?setPxRigidBody_MaxDepenetrationVelocity@@YAXPAVPxRigidBody@physx@@M@Z 1005f5c0 f   PxAutoGeneratedMetaDataObjects.obj
 0001:0005e5e0       ?getPxRigidBody_MaxDepenetrationVelocity@@YAMPBVPxRigidBody@physx@@@Z 1005f5e0 f   PxAutoGeneratedMetaDataObjects.obj
 0001:0005e600       ?setPxRigidBody_MaxContactImpulse@@YAXPAVPxRigidBody@physx@@M@Z 1005f600 f   PxAutoGeneratedMetaDataObjects.obj
 0001:0005e620       ?getPxRigidBody_MaxContactImpulse@@YAMPBVPxRigidBody@physx@@@Z 1005f620 f   PxAutoGeneratedMetaDataObjects.obj
 0001:0005e640       ?setPxRigidDynamic_LinearDamping@@YAXPAVPxRigidDynamic@physx@@M@Z 1005f640 f   PxAutoGeneratedMetaDataObjects.obj
 0001:0005e660       ?getPxRigidDynamic_LinearDamping@@YAMPBVPxRigidDynamic@physx@@@Z 1005f660 f   PxAutoGeneratedMetaDataObjects.obj
 0001:0005e680       ?setPxRigidDynamic_AngularDamping@@YAXPAVPxRigidDynamic@physx@@M@Z 1005f680 f   PxAutoGeneratedMetaDataObjects.obj
 0001:0005e6a0       ?getPxRigidDynamic_AngularDamping@@YAMPBVPxRigidDynamic@physx@@@Z 1005f6a0 f   PxAutoGeneratedMetaDataObjects.obj
 0001:0005e6c0       ?setPxRigidDynamic_MaxAngularVelocity@@YAXPAVPxRigidDynamic@physx@@M@Z 1005f6c0 f   PxAutoGeneratedMetaDataObjects.obj
 0001:0005e6e0       ?getPxRigidDynamic_MaxAngularVelocity@@YAMPBVPxRigidDynamic@physx@@@Z 1005f6e0 f   PxAutoGeneratedMetaDataObjects.obj
 0001:0005e700       ?getPxRigidDynamic_IsSleeping@@YA_NPBVPxRigidDynamic@physx@@@Z 1005f700 f   PxAutoGeneratedMetaDataObjects.obj
 0001:0005e720       ?setPxRigidDynamic_SleepThreshold@@YAXPAVPxRigidDynamic@physx@@M@Z 1005f720 f   PxAutoGeneratedMetaDataObjects.obj
 0001:0005e740       ?getPxRigidDynamic_SleepThreshold@@YAMPBVPxRigidDynamic@physx@@@Z 1005f740 f   PxAutoGeneratedMetaDataObjects.obj
 0001:0005e760       ?setPxRigidDynamic_StabilizationThreshold@@YAXPAVPxRigidDynamic@physx@@M@Z 1005f760 f   PxAutoGeneratedMetaDataObjects.obj
 0001:0005e780       ?getPxRigidDynamic_StabilizationThreshold@@YAMPBVPxRigidDynamic@physx@@@Z 1005f780 f   PxAutoGeneratedMetaDataObjects.obj
 0001:0005e7a0       ?setPxRigidDynamic_RigidDynamicLockFlags@@YAXPAVPxRigidDynamic@physx@@V?$PxFlags@W4Enum@PxRigidDynamicLockFlag@physx@@G@2@@Z 1005f7a0 f   PxAutoGeneratedMetaDataObjects.obj
 0001:0005e7c0       ?getPxRigidDynamic_RigidDynamicLockFlags@@YA?AV?$PxFlags@W4Enum@PxRigidDynamicLockFlag@physx@@G@physx@@PBVPxRigidDynamic@2@@Z 1005f7c0 f   PxAutoGeneratedMetaDataObjects.obj
 0001:0005e7e0       ?setPxRigidDynamic_WakeCounter@@YAXPAVPxRigidDynamic@physx@@M@Z 1005f7e0 f   PxAutoGeneratedMetaDataObjects.obj
 0001:0005e800       ?getPxRigidDynamic_WakeCounter@@YAMPBVPxRigidDynamic@physx@@@Z 1005f800 f   PxAutoGeneratedMetaDataObjects.obj
 0001:0005e820       ?setPxRigidDynamic_SolverIterationCounts@@YAXPAVPxRigidDynamic@physx@@II@Z 1005f820 f   PxAutoGeneratedMetaDataObjects.obj
 0001:0005e840       ?getPxRigidDynamic_SolverIterationCounts@@YAXPBVPxRigidDynamic@physx@@AAI1@Z 1005f840 f   PxAutoGeneratedMetaDataObjects.obj
 0001:0005e860       ?setPxRigidDynamic_ContactReportThreshold@@YAXPAVPxRigidDynamic@physx@@M@Z 1005f860 f   PxAutoGeneratedMetaDataObjects.obj
 0001:0005e880       ?getPxRigidDynamic_ContactReportThreshold@@YAMPBVPxRigidDynamic@physx@@@Z 1005f880 f   PxAutoGeneratedMetaDataObjects.obj
 0001:0005e8a0       ?getPxRigidDynamic_ConcreteTypeName@@YAPBDPBVPxRigidDynamic@physx@@@Z 1005f8a0 f   PxAutoGeneratedMetaDataObjects.obj
 0001:0005e8b0       ?getPxRigidStatic_ConcreteTypeName@@YAPBDPBVPxRigidStatic@physx@@@Z 1005f8b0 f   PxAutoGeneratedMetaDataObjects.obj
 0001:0005e8c0       ?getPxArticulationLink_InboundJoint@@YAPAVPxArticulationJoint@physx@@PBVPxArticulationLink@2@@Z 1005f8c0 f   PxAutoGeneratedMetaDataObjects.obj
 0001:0005e8d0       ?getPxArticulationLink_Children@@YAIPBVPxArticulationLink@physx@@PAPAV12@I@Z 1005f8d0 f   PxAutoGeneratedMetaDataObjects.obj
 0001:0005e8f0       ?getNbPxArticulationLink_Children@@YAIPBVPxArticulationLink@physx@@@Z 1005f8f0 f   PxAutoGeneratedMetaDataObjects.obj
 0001:0005e900       ?getPxArticulationLink_ConcreteTypeName@@YAPBDPBVPxArticulationLink@physx@@@Z 1005f900 f   PxAutoGeneratedMetaDataObjects.obj
 0001:0005e910       ?setPxArticulationJoint_ParentPose@@YAXPAVPxArticulationJoint@physx@@ABVPxTransform@2@@Z 1005f910 f   PxAutoGeneratedMetaDataObjects.obj
 0001:0005e920       ?getPxArticulationJoint_ParentPose@@YA?AVPxTransform@physx@@PBVPxArticulationJoint@2@@Z 1005f920 f   PxAutoGeneratedMetaDataObjects.obj
 0001:0005e940       ?setPxArticulationJoint_ChildPose@@YAXPAVPxArticulationJoint@physx@@ABVPxTransform@2@@Z 1005f940 f   PxAutoGeneratedMetaDataObjects.obj
 0001:0005e950       ?getPxArticulationJoint_ChildPose@@YA?AVPxTransform@physx@@PBVPxArticulationJoint@2@@Z 1005f950 f   PxAutoGeneratedMetaDataObjects.obj
 0001:0005e970       ?setPxArticulationJoint_TargetOrientation@@YAXPAVPxArticulationJoint@physx@@ABVPxQuat@2@@Z 1005f970 f   PxAutoGeneratedMetaDataObjects.obj
 0001:0005e980       ?getPxArticulationJoint_TargetOrientation@@YA?AVPxQuat@physx@@PBVPxArticulationJoint@2@@Z 1005f980 f   PxAutoGeneratedMetaDataObjects.obj
 0001:0005e9a0       ?setPxArticulationJoint_TargetVelocity@@YAXPAVPxArticulationJoint@physx@@ABVPxVec3@2@@Z 1005f9a0 f   PxAutoGeneratedMetaDataObjects.obj
 0001:0005e9b0       ?getPxArticulationJoint_TargetVelocity@@YA?AVPxVec3@physx@@PBVPxArticulationJoint@2@@Z 1005f9b0 f   PxAutoGeneratedMetaDataObjects.obj
 0001:0005e9d0       ?setPxArticulationJoint_DriveType@@YAXPAVPxArticulationJoint@physx@@W4Enum@PxArticulationJointDriveType@2@@Z 1005f9d0 f   PxAutoGeneratedMetaDataObjects.obj
 0001:0005e9e0       ?getPxArticulationJoint_DriveType@@YA?AW4Enum@PxArticulationJointDriveType@physx@@PBVPxArticulationJoint@3@@Z 1005f9e0 f   PxAutoGeneratedMetaDataObjects.obj
 0001:0005e9f0       ?setPxArticulationJoint_Stiffness@@YAXPAVPxArticulationJoint@physx@@M@Z 1005f9f0 f   PxAutoGeneratedMetaDataObjects.obj
 0001:0005ea10       ?getPxArticulationJoint_Stiffness@@YAMPBVPxArticulationJoint@physx@@@Z 1005fa10 f   PxAutoGeneratedMetaDataObjects.obj
 0001:0005ea20       ?setPxArticulationJoint_Damping@@YAXPAVPxArticulationJoint@physx@@M@Z 1005fa20 f   PxAutoGeneratedMetaDataObjects.obj
 0001:0005ea40       ?getPxArticulationJoint_Damping@@YAMPBVPxArticulationJoint@physx@@@Z 1005fa40 f   PxAutoGeneratedMetaDataObjects.obj
 0001:0005ea50       ?setPxArticulationJoint_InternalCompliance@@YAXPAVPxArticulationJoint@physx@@M@Z 1005fa50 f   PxAutoGeneratedMetaDataObjects.obj
 0001:0005ea70       ?getPxArticulationJoint_InternalCompliance@@YAMPBVPxArticulationJoint@physx@@@Z 1005fa70 f   PxAutoGeneratedMetaDataObjects.obj
 0001:0005ea80       ?setPxArticulationJoint_ExternalCompliance@@YAXPAVPxArticulationJoint@physx@@M@Z 1005fa80 f   PxAutoGeneratedMetaDataObjects.obj
 0001:0005eaa0       ?getPxArticulationJoint_ExternalCompliance@@YAMPBVPxArticulationJoint@physx@@@Z 1005faa0 f   PxAutoGeneratedMetaDataObjects.obj
 0001:0005eab0       ?setPxArticulationJoint_SwingLimit@@YAXPAVPxArticulationJoint@physx@@MM@Z 1005fab0 f   PxAutoGeneratedMetaDataObjects.obj
 0001:0005eae0       ?getPxArticulationJoint_SwingLimit@@YAXPBVPxArticulationJoint@physx@@AAM1@Z 1005fae0 f   PxAutoGeneratedMetaDataObjects.obj
 0001:0005eb00       ?setPxArticulationJoint_TangentialStiffness@@YAXPAVPxArticulationJoint@physx@@M@Z 1005fb00 f   PxAutoGeneratedMetaDataObjects.obj
 0001:0005eb20       ?getPxArticulationJoint_TangentialStiffness@@YAMPBVPxArticulationJoint@physx@@@Z 1005fb20 f   PxAutoGeneratedMetaDataObjects.obj
 0001:0005eb30       ?setPxArticulationJoint_TangentialDamping@@YAXPAVPxArticulationJoint@physx@@M@Z 1005fb30 f   PxAutoGeneratedMetaDataObjects.obj
 0001:0005eb50       ?getPxArticulationJoint_TangentialDamping@@YAMPBVPxArticulationJoint@physx@@@Z 1005fb50 f   PxAutoGeneratedMetaDataObjects.obj
 0001:0005eb60       ?setPxArticulationJoint_SwingLimitContactDistance@@YAXPAVPxArticulationJoint@physx@@M@Z 1005fb60 f   PxAutoGeneratedMetaDataObjects.obj
 0001:0005eb80       ?getPxArticulationJoint_SwingLimitContactDistance@@YAMPBVPxArticulationJoint@physx@@@Z 1005fb80 f   PxAutoGeneratedMetaDataObjects.obj
 0001:0005eb90       ?setPxArticulationJoint_SwingLimitEnabled@@YAXPAVPxArticulationJoint@physx@@_N@Z 1005fb90 f   PxAutoGeneratedMetaDataObjects.obj
 0001:0005eba0       ?getPxArticulationJoint_SwingLimitEnabled@@YA_NPBVPxArticulationJoint@physx@@@Z 1005fba0 f   PxAutoGeneratedMetaDataObjects.obj
 0001:0005ebc0       ?setPxArticulationJoint_TwistLimit@@YAXPAVPxArticulationJoint@physx@@MM@Z 1005fbc0 f   PxAutoGeneratedMetaDataObjects.obj
 0001:0005ebf0       ?getPxArticulationJoint_TwistLimit@@YAXPBVPxArticulationJoint@physx@@AAM1@Z 1005fbf0 f   PxAutoGeneratedMetaDataObjects.obj
 0001:0005ec10       ?setPxArticulationJoint_TwistLimitEnabled@@YAXPAVPxArticulationJoint@physx@@_N@Z 1005fc10 f   PxAutoGeneratedMetaDataObjects.obj
 0001:0005ec30       ?getPxArticulationJoint_TwistLimitEnabled@@YA_NPBVPxArticulationJoint@physx@@@Z 1005fc30 f   PxAutoGeneratedMetaDataObjects.obj
 0001:0005ec50       ?setPxArticulationJoint_TwistLimitContactDistance@@YAXPAVPxArticulationJoint@physx@@M@Z 1005fc50 f   PxAutoGeneratedMetaDataObjects.obj
 0001:0005ec70       ?getPxArticulationJoint_TwistLimitContactDistance@@YAMPBVPxArticulationJoint@physx@@@Z 1005fc70 f   PxAutoGeneratedMetaDataObjects.obj
 0001:0005ec90       ?getPxArticulationJoint_ConcreteTypeName@@YAPBDPBVPxArticulationJoint@physx@@@Z 1005fc90 f   PxAutoGeneratedMetaDataObjects.obj
 0001:0005eca0       ?getPxArticulation_Scene@@YAPAVPxScene@physx@@PBVPxArticulation@2@@Z 1005fca0 f   PxAutoGeneratedMetaDataObjects.obj
 0001:0005ecb0       ?setPxArticulation_MaxProjectionIterations@@YAXPAVPxArticulation@physx@@I@Z 1005fcb0 f   PxAutoGeneratedMetaDataObjects.obj
 0001:0005ecc0       ?getPxArticulation_MaxProjectionIterations@@YAIPBVPxArticulation@physx@@@Z 1005fcc0 f   PxAutoGeneratedMetaDataObjects.obj
 0001:0005ecd0       ?setPxArticulation_SeparationTolerance@@YAXPAVPxArticulation@physx@@M@Z 1005fcd0 f   PxAutoGeneratedMetaDataObjects.obj
 0001:0005ecf0       ?getPxArticulation_SeparationTolerance@@YAMPBVPxArticulation@physx@@@Z 1005fcf0 f   PxAutoGeneratedMetaDataObjects.obj
 0001:0005ed00       ?setPxArticulation_InternalDriveIterations@@YAXPAVPxArticulation@physx@@I@Z 1005fd00 f   PxAutoGeneratedMetaDataObjects.obj
 0001:0005ed10       ?getPxArticulation_InternalDriveIterations@@YAIPBVPxArticulation@physx@@@Z 1005fd10 f   PxAutoGeneratedMetaDataObjects.obj
 0001:0005ed20       ?setPxArticulation_ExternalDriveIterations@@YAXPAVPxArticulation@physx@@I@Z 1005fd20 f   PxAutoGeneratedMetaDataObjects.obj
 0001:0005ed30       ?getPxArticulation_ExternalDriveIterations@@YAIPBVPxArticulation@physx@@@Z 1005fd30 f   PxAutoGeneratedMetaDataObjects.obj
 0001:0005ed40       ?setPxArticulation_SolverIterationCounts@@YAXPAVPxArticulation@physx@@II@Z 1005fd40 f   PxAutoGeneratedMetaDataObjects.obj
 0001:0005ed60       ?getPxArticulation_SolverIterationCounts@@YAXPBVPxArticulation@physx@@AAI1@Z 1005fd60 f   PxAutoGeneratedMetaDataObjects.obj
 0001:0005ed80       ?getPxArticulation_IsSleeping@@YA_NPBVPxArticulation@physx@@@Z 1005fd80 f   PxAutoGeneratedMetaDataObjects.obj
 0001:0005ed90       ?setPxArticulation_SleepThreshold@@YAXPAVPxArticulation@physx@@M@Z 1005fd90 f   PxAutoGeneratedMetaDataObjects.obj
 0001:0005edb0       ?getPxArticulation_SleepThreshold@@YAMPBVPxArticulation@physx@@@Z 1005fdb0 f   PxAutoGeneratedMetaDataObjects.obj
 0001:0005edc0       ?setPxArticulation_StabilizationThreshold@@YAXPAVPxArticulation@physx@@M@Z 1005fdc0 f   PxAutoGeneratedMetaDataObjects.obj
 0001:0005ede0       ?getPxArticulation_StabilizationThreshold@@YAMPBVPxArticulation@physx@@@Z 1005fde0 f   PxAutoGeneratedMetaDataObjects.obj
 0001:0005edf0       ?setPxArticulation_WakeCounter@@YAXPAVPxArticulation@physx@@M@Z 1005fdf0 f   PxAutoGeneratedMetaDataObjects.obj
 0001:0005ee10       ?getPxArticulation_WakeCounter@@YAMPBVPxArticulation@physx@@@Z 1005fe10 f   PxAutoGeneratedMetaDataObjects.obj
 0001:0005ee20       ?getPxArticulation_Links@@YAIPBVPxArticulation@physx@@PAPAVPxArticulationLink@2@I@Z 1005fe20 f   PxAutoGeneratedMetaDataObjects.obj
 0001:0005ee40       ?getNbPxArticulation_Links@@YAIPBVPxArticulation@physx@@@Z 1005fe40 f   PxAutoGeneratedMetaDataObjects.obj
 0001:0005ee50       ?setPxArticulation_Name@@YAXPAVPxArticulation@physx@@PBD@Z 1005fe50 f   PxAutoGeneratedMetaDataObjects.obj
 0001:0005ee60       ?getPxArticulation_Name@@YAPBDPBVPxArticulation@physx@@@Z 1005fe60 f   PxAutoGeneratedMetaDataObjects.obj
 0001:0005ee70       ?getPxArticulation_Aggregate@@YAPAVPxAggregate@physx@@PBVPxArticulation@2@@Z 1005fe70 f   PxAutoGeneratedMetaDataObjects.obj
 0001:0005ee80       ?getPxArticulation_ConcreteTypeName@@YAPBDPBVPxArticulation@physx@@@Z 1005fe80 f   PxAutoGeneratedMetaDataObjects.obj
 0001:0005ee90       ?getPxAggregate_MaxNbActors@@YAIPBVPxAggregate@physx@@@Z 1005fe90 f   PxAutoGeneratedMetaDataObjects.obj
 0001:0005eea0       ?getPxAggregate_Actors@@YAIPBVPxAggregate@physx@@PAPAVPxActor@2@I@Z 1005fea0 f   PxAutoGeneratedMetaDataObjects.obj
 0001:0005eec0       ?getNbPxAggregate_Actors@@YAIPBVPxAggregate@physx@@@Z 1005fec0 f   PxAutoGeneratedMetaDataObjects.obj
 0001:0005eed0       ?getPxAggregate_SelfCollision@@YA_NPBVPxAggregate@physx@@@Z 1005fed0 f   PxAutoGeneratedMetaDataObjects.obj
 0001:0005eee0       ?getPxAggregate_ConcreteTypeName@@YAPBDPBVPxAggregate@physx@@@Z 1005fee0 f   PxAutoGeneratedMetaDataObjects.obj
 0001:0005eef0       ?getPxConstraint_Scene@@YAPAVPxScene@physx@@PBVPxConstraint@2@@Z 1005fef0 f   PxAutoGeneratedMetaDataObjects.obj
 0001:0005ef00       ?setPxConstraint_Actors@@YAXPAVPxConstraint@physx@@PAVPxRigidActor@2@1@Z 1005ff00 f   PxAutoGeneratedMetaDataObjects.obj
 0001:0005ef20       ?getPxConstraint_Actors@@YAXPBVPxConstraint@physx@@AAPAVPxRigidActor@2@1@Z 1005ff20 f   PxAutoGeneratedMetaDataObjects.obj
 0001:0005ef40       ?setPxConstraint_Flags@@YAXPAVPxConstraint@physx@@V?$PxFlags@W4Enum@PxConstraintFlag@physx@@G@2@@Z 1005ff40 f   PxAutoGeneratedMetaDataObjects.obj
 0001:0005ef60       ?getPxConstraint_Flags@@YA?AV?$PxFlags@W4Enum@PxConstraintFlag@physx@@G@physx@@PBVPxConstraint@2@@Z 1005ff60 f   PxAutoGeneratedMetaDataObjects.obj
 0001:0005ef80       ?getPxConstraint_IsValid@@YA_NPBVPxConstraint@physx@@@Z 1005ff80 f   PxAutoGeneratedMetaDataObjects.obj
 0001:0005ef90       ?setPxConstraint_BreakForce@@YAXPAVPxConstraint@physx@@MM@Z 1005ff90 f   PxAutoGeneratedMetaDataObjects.obj
 0001:0005efc0       ?getPxConstraint_BreakForce@@YAXPBVPxConstraint@physx@@AAM1@Z 1005ffc0 f   PxAutoGeneratedMetaDataObjects.obj
 0001:0005efe0       ?setPxConstraint_MinResponseThreshold@@YAXPAVPxConstraint@physx@@M@Z 1005ffe0 f   PxAutoGeneratedMetaDataObjects.obj
 0001:0005f000       ?getPxConstraint_MinResponseThreshold@@YAMPBVPxConstraint@physx@@@Z 10060000 f   PxAutoGeneratedMetaDataObjects.obj
 0001:0005f010       ?getPxConstraint_ConcreteTypeName@@YAPBDPBVPxConstraint@physx@@@Z 10060010 f   PxAutoGeneratedMetaDataObjects.obj
 0001:0005f020       ?getPxShape_GeometryType@@YA?AW4Enum@PxGeometryType@physx@@PBVPxShape@3@@Z 10060020 f   PxAutoGeneratedMetaDataObjects.obj
 0001:0005f030       ?setPxShape_Geometry@@YAXPAVPxShape@physx@@ABVPxGeometry@2@@Z 10060030 f   PxAutoGeneratedMetaDataObjects.obj
 0001:0005f040       ?getPxShape_Geometry@@YA?AVPxGeometryHolder@physx@@PBVPxShape@2@@Z 10060040 f   PxAutoGeneratedMetaDataObjects.obj
 0001:0005f060       ?setPxShape_LocalPose@@YAXPAVPxShape@physx@@ABVPxTransform@2@@Z 10060060 f   PxAutoGeneratedMetaDataObjects.obj
 0001:0005f070       ?getPxShape_LocalPose@@YA?AVPxTransform@physx@@PBVPxShape@2@@Z 10060070 f   PxAutoGeneratedMetaDataObjects.obj
 0001:0005f090       ?setPxShape_SimulationFilterData@@YAXPAVPxShape@physx@@ABUPxFilterData@2@@Z 10060090 f   PxAutoGeneratedMetaDataObjects.obj
 0001:0005f0a0       ?getPxShape_SimulationFilterData@@YA?AUPxFilterData@physx@@PBVPxShape@2@@Z 100600a0 f   PxAutoGeneratedMetaDataObjects.obj
 0001:0005f0c0       ?setPxShape_QueryFilterData@@YAXPAVPxShape@physx@@ABUPxFilterData@2@@Z 100600c0 f   PxAutoGeneratedMetaDataObjects.obj
 0001:0005f0d0       ?getPxShape_QueryFilterData@@YA?AUPxFilterData@physx@@PBVPxShape@2@@Z 100600d0 f   PxAutoGeneratedMetaDataObjects.obj
 0001:0005f0f0       ?getPxShape_Materials@@YAIPBVPxShape@physx@@PAPAVPxMaterial@2@I@Z 100600f0 f   PxAutoGeneratedMetaDataObjects.obj
 0001:0005f110       ?getNbPxShape_Materials@@YAIPBVPxShape@physx@@@Z 10060110 f   PxAutoGeneratedMetaDataObjects.obj
 0001:0005f120       ?setPxShape_ContactOffset@@YAXPAVPxShape@physx@@M@Z 10060120 f   PxAutoGeneratedMetaDataObjects.obj
 0001:0005f140       ?getPxShape_ContactOffset@@YAMPBVPxShape@physx@@@Z 10060140 f   PxAutoGeneratedMetaDataObjects.obj
 0001:0005f150       ?setPxShape_RestOffset@@YAXPAVPxShape@physx@@M@Z 10060150 f   PxAutoGeneratedMetaDataObjects.obj
 0001:0005f170       ?getPxShape_RestOffset@@YAMPBVPxShape@physx@@@Z 10060170 f   PxAutoGeneratedMetaDataObjects.obj
 0001:0005f180       ?setPxShape_Flags@@YAXPAVPxShape@physx@@V?$PxFlags@W4Enum@PxShapeFlag@physx@@E@2@@Z 10060180 f   PxAutoGeneratedMetaDataObjects.obj
 0001:0005f1a0       ?getPxShape_Flags@@YA?AV?$PxFlags@W4Enum@PxShapeFlag@physx@@E@physx@@PBVPxShape@2@@Z 100601a0 f   PxAutoGeneratedMetaDataObjects.obj
 0001:0005f1c0       ?getPxShape_IsExclusive@@YA_NPBVPxShape@physx@@@Z 100601c0 f   PxAutoGeneratedMetaDataObjects.obj
 0001:0005f1e0       ?setPxShape_Name@@YAXPAVPxShape@physx@@PBD@Z 100601e0 f   PxAutoGeneratedMetaDataObjects.obj
 0001:0005f200       ?getPxShape_Name@@YAPBDPBVPxShape@physx@@@Z 10060200 f   PxAutoGeneratedMetaDataObjects.obj
 0001:0005f210       ?getPxShape_ConcreteTypeName@@YAPBDPBVPxShape@physx@@@Z 10060210 f   PxAutoGeneratedMetaDataObjects.obj
 0001:0005f220       ?getPxClothFabric_NbParticles@@YAIPBVPxClothFabric@physx@@@Z 10060220 f   PxAutoGeneratedMetaDataObjects.obj
 0001:0005f230       ?getPxClothFabric_Phases@@YAIPBVPxClothFabric@physx@@PAUPxClothFabricPhase@2@I@Z 10060230 f   PxAutoGeneratedMetaDataObjects.obj
 0001:0005f250       ?getNbPxClothFabric_Phases@@YAIPBVPxClothFabric@physx@@@Z 10060250 f   PxAutoGeneratedMetaDataObjects.obj
 0001:0005f260       ?getPxClothFabric_Sets@@YAIPBVPxClothFabric@physx@@PAII@Z 10060260 f   PxAutoGeneratedMetaDataObjects.obj
 0001:0005f280       ?getNbPxClothFabric_Sets@@YAIPBVPxClothFabric@physx@@@Z 10060280 f   PxAutoGeneratedMetaDataObjects.obj
 0001:0005f290       ?getPxClothFabric_ParticleIndices@@YAIPBVPxClothFabric@physx@@PAII@Z 10060290 f   PxAutoGeneratedMetaDataObjects.obj
 0001:0005f2b0       ?getNbPxClothFabric_ParticleIndices@@YAIPBVPxClothFabric@physx@@@Z 100602b0 f   PxAutoGeneratedMetaDataObjects.obj
 0001:0005f2c0       ?getPxClothFabric_Restvalues@@YAIPBVPxClothFabric@physx@@PAMI@Z 100602c0 f   PxAutoGeneratedMetaDataObjects.obj
 0001:0005f2e0       ?getNbPxClothFabric_Restvalues@@YAIPBVPxClothFabric@physx@@@Z 100602e0 f   PxAutoGeneratedMetaDataObjects.obj
 0001:0005f2f0       ?getPxClothFabric_ReferenceCount@@YAIPBVPxClothFabric@physx@@@Z 100602f0 f   PxAutoGeneratedMetaDataObjects.obj
 0001:0005f300       ?getPxClothFabric_ConcreteTypeName@@YAPBDPBVPxClothFabric@physx@@@Z 10060300 f   PxAutoGeneratedMetaDataObjects.obj
 0001:0005f310       ?getPxCloth_NbParticles@@YAIPBVPxCloth@physx@@@Z 10060310 f   PxAutoGeneratedMetaDataObjects.obj
 0001:0005f320       ?setPxCloth_ClothFlags@@YAXPAVPxCloth@physx@@V?$PxFlags@W4Enum@PxClothFlag@physx@@G@2@@Z 10060320 f   PxAutoGeneratedMetaDataObjects.obj
 0001:0005f340       ?getPxCloth_ClothFlags@@YA?AV?$PxFlags@W4Enum@PxClothFlag@physx@@G@physx@@PBVPxCloth@2@@Z 10060340 f   PxAutoGeneratedMetaDataObjects.obj
 0001:0005f360       ?setPxCloth_TargetPose@@YAXPAVPxCloth@physx@@ABVPxTransform@2@@Z 10060360 f   PxAutoGeneratedMetaDataObjects.obj
 0001:0005f370       ?setPxCloth_GlobalPose@@YAXPAVPxCloth@physx@@ABVPxTransform@2@@Z 10060370 f   PxAutoGeneratedMetaDataObjects.obj
 0001:0005f380       ?getPxCloth_GlobalPose@@YA?AVPxTransform@physx@@PBVPxCloth@2@@Z 10060380 f   PxAutoGeneratedMetaDataObjects.obj
 0001:0005f3a0       ?setPxCloth_SolverFrequency@@YAXPAVPxCloth@physx@@M@Z 100603a0 f   PxAutoGeneratedMetaDataObjects.obj
 0001:0005f3c0       ?getPxCloth_SolverFrequency@@YAMPBVPxCloth@physx@@@Z 100603c0 f   PxAutoGeneratedMetaDataObjects.obj
 0001:0005f3e0       ?getPxCloth_PreviousTimeStep@@YAMPBVPxCloth@physx@@@Z 100603e0 f   PxAutoGeneratedMetaDataObjects.obj
 0001:0005f400       ?setPxCloth_StiffnessFrequency@@YAXPAVPxCloth@physx@@M@Z 10060400 f   PxAutoGeneratedMetaDataObjects.obj
 0001:0005f420       ?getPxCloth_StiffnessFrequency@@YAMPBVPxCloth@physx@@@Z 10060420 f   PxAutoGeneratedMetaDataObjects.obj
 0001:0005f440       ?setPxCloth_LinearInertiaScale@@YAXPAVPxCloth@physx@@VPxVec3@2@@Z 10060440 f   PxAutoGeneratedMetaDataObjects.obj
 0001:0005f480       ?getPxCloth_LinearInertiaScale@@YA?AVPxVec3@physx@@PBVPxCloth@2@@Z 10060480 f   PxAutoGeneratedMetaDataObjects.obj
 0001:0005f4a0       ?setPxCloth_AngularInertiaScale@@YAXPAVPxCloth@physx@@VPxVec3@2@@Z 100604a0 f   PxAutoGeneratedMetaDataObjects.obj
 0001:0005f4e0       ?getPxCloth_AngularInertiaScale@@YA?AVPxVec3@physx@@PBVPxCloth@2@@Z 100604e0 f   PxAutoGeneratedMetaDataObjects.obj
 0001:0005f500       ?setPxCloth_CentrifugalInertiaScale@@YAXPAVPxCloth@physx@@VPxVec3@2@@Z 10060500 f   PxAutoGeneratedMetaDataObjects.obj
 0001:0005f540       ?getPxCloth_CentrifugalInertiaScale@@YA?AVPxVec3@physx@@PBVPxCloth@2@@Z 10060540 f   PxAutoGeneratedMetaDataObjects.obj
 0001:0005f560       ?setPxCloth_InertiaScale@@YAXPAVPxCloth@physx@@M@Z 10060560 f   PxAutoGeneratedMetaDataObjects.obj
 0001:0005f580       ?setPxCloth_DampingCoefficient@@YAXPAVPxCloth@physx@@VPxVec3@2@@Z 10060580 f   PxAutoGeneratedMetaDataObjects.obj
 0001:0005f5c0       ?getPxCloth_DampingCoefficient@@YA?AVPxVec3@physx@@PBVPxCloth@2@@Z 100605c0 f   PxAutoGeneratedMetaDataObjects.obj
 0001:0005f5e0       ?setPxCloth_LinearDragCoefficient@@YAXPAVPxCloth@physx@@VPxVec3@2@@Z 100605e0 f   PxAutoGeneratedMetaDataObjects.obj
 0001:0005f620       ?getPxCloth_LinearDragCoefficient@@YA?AVPxVec3@physx@@PBVPxCloth@2@@Z 10060620 f   PxAutoGeneratedMetaDataObjects.obj
 0001:0005f640       ?setPxCloth_AngularDragCoefficient@@YAXPAVPxCloth@physx@@VPxVec3@2@@Z 10060640 f   PxAutoGeneratedMetaDataObjects.obj
 0001:0005f680       ?getPxCloth_AngularDragCoefficient@@YA?AVPxVec3@physx@@PBVPxCloth@2@@Z 10060680 f   PxAutoGeneratedMetaDataObjects.obj
 0001:0005f6a0       ?setPxCloth_DragCoefficient@@YAXPAVPxCloth@physx@@M@Z 100606a0 f   PxAutoGeneratedMetaDataObjects.obj
 0001:0005f6c0       ?setPxCloth_ExternalAcceleration@@YAXPAVPxCloth@physx@@VPxVec3@2@@Z 100606c0 f   PxAutoGeneratedMetaDataObjects.obj
 0001:0005f700       ?getPxCloth_ExternalAcceleration@@YA?AVPxVec3@physx@@PBVPxCloth@2@@Z 10060700 f   PxAutoGeneratedMetaDataObjects.obj
 0001:0005f720       ?setPxCloth_WindVelocity@@YAXPAVPxCloth@physx@@VPxVec3@2@@Z 10060720 f   PxAutoGeneratedMetaDataObjects.obj
 0001:0005f760       ?getPxCloth_WindVelocity@@YA?AVPxVec3@physx@@PBVPxCloth@2@@Z 10060760 f   PxAutoGeneratedMetaDataObjects.obj
 0001:0005f780       ?setPxCloth_WindDrag@@YAXPAVPxCloth@physx@@M@Z 10060780 f   PxAutoGeneratedMetaDataObjects.obj
 0001:0005f7a0       ?getPxCloth_WindDrag@@YAMPBVPxCloth@physx@@@Z 100607a0 f   PxAutoGeneratedMetaDataObjects.obj
 0001:0005f7c0       ?setPxCloth_WindLift@@YAXPAVPxCloth@physx@@M@Z 100607c0 f   PxAutoGeneratedMetaDataObjects.obj
 0001:0005f7e0       ?getPxCloth_WindLift@@YAMPBVPxCloth@physx@@@Z 100607e0 f   PxAutoGeneratedMetaDataObjects.obj
 0001:0005f800       ?setPxCloth_MotionConstraintConfig@@YAXPAVPxCloth@physx@@ABUPxClothMotionConstraintConfig@2@@Z 10060800 f   PxAutoGeneratedMetaDataObjects.obj
 0001:0005f820       ?getPxCloth_MotionConstraintConfig@@YA?AUPxClothMotionConstraintConfig@physx@@PBVPxCloth@2@@Z 10060820 f   PxAutoGeneratedMetaDataObjects.obj
 0001:0005f840       ?setPxCloth_StretchConfig@@YAXPAVPxCloth@physx@@W4Enum@PxClothFabricPhaseType@2@UPxClothStretchConfig@2@@Z 10060840 f   PxAutoGeneratedMetaDataObjects.obj
 0001:0005f860       ?getPxCloth_StretchConfig@@YA?AUPxClothStretchConfig@physx@@PBVPxCloth@2@W4Enum@PxClothFabricPhaseType@2@@Z 10060860 f   PxAutoGeneratedMetaDataObjects.obj
 0001:0005f880       ?setPxCloth_TetherConfig@@YAXPAVPxCloth@physx@@ABUPxClothTetherConfig@2@@Z 10060880 f   PxAutoGeneratedMetaDataObjects.obj
 0001:0005f8a0       ?getPxCloth_TetherConfig@@YA?AUPxClothTetherConfig@physx@@PBVPxCloth@2@@Z 100608a0 f   PxAutoGeneratedMetaDataObjects.obj
 0001:0005f8c0       ?setPxCloth_FrictionCoefficient@@YAXPAVPxCloth@physx@@M@Z 100608c0 f   PxAutoGeneratedMetaDataObjects.obj
 0001:0005f8e0       ?getPxCloth_FrictionCoefficient@@YAMPBVPxCloth@physx@@@Z 100608e0 f   PxAutoGeneratedMetaDataObjects.obj
 0001:0005f900       ?setPxCloth_CollisionMassScale@@YAXPAVPxCloth@physx@@M@Z 10060900 f   PxAutoGeneratedMetaDataObjects.obj
 0001:0005f920       ?getPxCloth_CollisionMassScale@@YAMPBVPxCloth@physx@@@Z 10060920 f   PxAutoGeneratedMetaDataObjects.obj
 0001:0005f940       ?setPxCloth_SelfCollisionDistance@@YAXPAVPxCloth@physx@@M@Z 10060940 f   PxAutoGeneratedMetaDataObjects.obj
 0001:0005f960       ?getPxCloth_SelfCollisionDistance@@YAMPBVPxCloth@physx@@@Z 10060960 f   PxAutoGeneratedMetaDataObjects.obj
 0001:0005f980       ?setPxCloth_SelfCollisionStiffness@@YAXPAVPxCloth@physx@@M@Z 10060980 f   PxAutoGeneratedMetaDataObjects.obj
 0001:0005f9a0       ?getPxCloth_SelfCollisionStiffness@@YAMPBVPxCloth@physx@@@Z 100609a0 f   PxAutoGeneratedMetaDataObjects.obj
 0001:0005f9c0       ?setPxCloth_SimulationFilterData@@YAXPAVPxCloth@physx@@ABUPxFilterData@2@@Z 100609c0 f   PxAutoGeneratedMetaDataObjects.obj
 0001:0005f9e0       ?getPxCloth_SimulationFilterData@@YA?AUPxFilterData@physx@@PBVPxCloth@2@@Z 100609e0 f   PxAutoGeneratedMetaDataObjects.obj
 0001:0005fa00       ?setPxCloth_ContactOffset@@YAXPAVPxCloth@physx@@M@Z 10060a00 f   PxAutoGeneratedMetaDataObjects.obj
 0001:0005fa20       ?getPxCloth_ContactOffset@@YAMPBVPxCloth@physx@@@Z 10060a20 f   PxAutoGeneratedMetaDataObjects.obj
 0001:0005fa40       ?setPxCloth_RestOffset@@YAXPAVPxCloth@physx@@M@Z 10060a40 f   PxAutoGeneratedMetaDataObjects.obj
 0001:0005fa60       ?getPxCloth_RestOffset@@YAMPBVPxCloth@physx@@@Z 10060a60 f   PxAutoGeneratedMetaDataObjects.obj
 0001:0005fa80       ?setPxCloth_SleepLinearVelocity@@YAXPAVPxCloth@physx@@M@Z 10060a80 f   PxAutoGeneratedMetaDataObjects.obj
 0001:0005faa0       ?getPxCloth_SleepLinearVelocity@@YAMPBVPxCloth@physx@@@Z 10060aa0 f   PxAutoGeneratedMetaDataObjects.obj
 0001:0005fac0       ?setPxCloth_WakeCounter@@YAXPAVPxCloth@physx@@M@Z 10060ac0 f   PxAutoGeneratedMetaDataObjects.obj
 0001:0005fae0       ?getPxCloth_WakeCounter@@YAMPBVPxCloth@physx@@@Z 10060ae0 f   PxAutoGeneratedMetaDataObjects.obj
 0001:0005fb00       ?getPxCloth_IsSleeping@@YA_NPBVPxCloth@physx@@@Z 10060b00 f   PxAutoGeneratedMetaDataObjects.obj
 0001:0005fb20       ?getPxCloth_ConcreteTypeName@@YAPBDPBVPxCloth@physx@@@Z 10060b20 f   PxAutoGeneratedMetaDataObjects.obj
 0001:0005fb30       ?setPxParticleBase_Damping@@YAXPAVPxParticleBase@physx@@M@Z 10060b30 f   PxAutoGeneratedMetaDataObjects.obj
 0001:0005fb50       ?getPxParticleBase_Damping@@YAMPBVPxParticleBase@physx@@@Z 10060b50 f   PxAutoGeneratedMetaDataObjects.obj
 0001:0005fb60       ?setPxParticleBase_ExternalAcceleration@@YAXPAVPxParticleBase@physx@@ABVPxVec3@2@@Z 10060b60 f   PxAutoGeneratedMetaDataObjects.obj
 0001:0005fb80       ?getPxParticleBase_ExternalAcceleration@@YA?AVPxVec3@physx@@PBVPxParticleBase@2@@Z 10060b80 f   PxAutoGeneratedMetaDataObjects.obj
 0001:0005fba0       ?setPxParticleBase_ParticleMass@@YAXPAVPxParticleBase@physx@@M@Z 10060ba0 f   PxAutoGeneratedMetaDataObjects.obj
 0001:0005fbc0       ?getPxParticleBase_ParticleMass@@YAMPBVPxParticleBase@physx@@@Z 10060bc0 f   PxAutoGeneratedMetaDataObjects.obj
 0001:0005fbe0       ?setPxParticleBase_Restitution@@YAXPAVPxParticleBase@physx@@M@Z 10060be0 f   PxAutoGeneratedMetaDataObjects.obj
 0001:0005fc00       ?getPxParticleBase_Restitution@@YAMPBVPxParticleBase@physx@@@Z 10060c00 f   PxAutoGeneratedMetaDataObjects.obj
 0001:0005fc20       ?setPxParticleBase_DynamicFriction@@YAXPAVPxParticleBase@physx@@M@Z 10060c20 f   PxAutoGeneratedMetaDataObjects.obj
 0001:0005fc40       ?getPxParticleBase_DynamicFriction@@YAMPBVPxParticleBase@physx@@@Z 10060c40 f   PxAutoGeneratedMetaDataObjects.obj
 0001:0005fc60       ?setPxParticleBase_StaticFriction@@YAXPAVPxParticleBase@physx@@M@Z 10060c60 f   PxAutoGeneratedMetaDataObjects.obj
 0001:0005fc80       ?getPxParticleBase_StaticFriction@@YAMPBVPxParticleBase@physx@@@Z 10060c80 f   PxAutoGeneratedMetaDataObjects.obj
 0001:0005fca0       ?setPxParticleBase_SimulationFilterData@@YAXPAVPxParticleBase@physx@@ABUPxFilterData@2@@Z 10060ca0 f   PxAutoGeneratedMetaDataObjects.obj
 0001:0005fcc0       ?getPxParticleBase_SimulationFilterData@@YA?AUPxFilterData@physx@@PBVPxParticleBase@2@@Z 10060cc0 f   PxAutoGeneratedMetaDataObjects.obj
 0001:0005fce0       ?getPxParticleBase_ParticleBaseFlags@@YA?AV?$PxFlags@W4Enum@PxParticleBaseFlag@physx@@G@physx@@PBVPxParticleBase@2@@Z 10060ce0 f   PxAutoGeneratedMetaDataObjects.obj
 0001:0005fd00       ?getPxParticleBase_MaxParticles@@YAIPBVPxParticleBase@physx@@@Z 10060d00 f   PxAutoGeneratedMetaDataObjects.obj
 0001:0005fd10       ?setPxParticleBase_MaxMotionDistance@@YAXPAVPxParticleBase@physx@@M@Z 10060d10 f   PxAutoGeneratedMetaDataObjects.obj
 0001:0005fd30       ?getPxParticleBase_MaxMotionDistance@@YAMPBVPxParticleBase@physx@@@Z 10060d30 f   PxAutoGeneratedMetaDataObjects.obj
 0001:0005fd50       ?setPxParticleBase_RestOffset@@YAXPAVPxParticleBase@physx@@M@Z 10060d50 f   PxAutoGeneratedMetaDataObjects.obj
 0001:0005fd70       ?getPxParticleBase_RestOffset@@YAMPBVPxParticleBase@physx@@@Z 10060d70 f   PxAutoGeneratedMetaDataObjects.obj
 0001:0005fd90       ?setPxParticleBase_ContactOffset@@YAXPAVPxParticleBase@physx@@M@Z 10060d90 f   PxAutoGeneratedMetaDataObjects.obj
 0001:0005fdb0       ?getPxParticleBase_ContactOffset@@YAMPBVPxParticleBase@physx@@@Z 10060db0 f   PxAutoGeneratedMetaDataObjects.obj
 0001:0005fdd0       ?setPxParticleBase_GridSize@@YAXPAVPxParticleBase@physx@@M@Z 10060dd0 f   PxAutoGeneratedMetaDataObjects.obj
 0001:0005fdf0       ?getPxParticleBase_GridSize@@YAMPBVPxParticleBase@physx@@@Z 10060df0 f   PxAutoGeneratedMetaDataObjects.obj
 0001:0005fe10       ?getPxParticleBase_ParticleReadDataFlags@@YA?AV?$PxFlags@W4Enum@PxParticleReadDataFlag@physx@@G@physx@@PBVPxParticleBase@2@@Z 10060e10 f   PxAutoGeneratedMetaDataObjects.obj
 0001:0005fe30       ?setPxParticleFluid_Stiffness@@YAXPAVPxParticleFluid@physx@@M@Z 10060e30 f   PxAutoGeneratedMetaDataObjects.obj
 0001:0005fe50       ?getPxParticleFluid_Stiffness@@YAMPBVPxParticleFluid@physx@@@Z 10060e50 f   PxAutoGeneratedMetaDataObjects.obj
 0001:0005fe70       ?setPxParticleFluid_Viscosity@@YAXPAVPxParticleFluid@physx@@M@Z 10060e70 f   PxAutoGeneratedMetaDataObjects.obj
 0001:0005fe90       ?getPxParticleFluid_Viscosity@@YAMPBVPxParticleFluid@physx@@@Z 10060e90 f   PxAutoGeneratedMetaDataObjects.obj
 0001:0005feb0       ?setPxParticleFluid_RestParticleDistance@@YAXPAVPxParticleFluid@physx@@M@Z 10060eb0 f   PxAutoGeneratedMetaDataObjects.obj
 0001:0005fed0       ?getPxParticleFluid_RestParticleDistance@@YAMPBVPxParticleFluid@physx@@@Z 10060ed0 f   PxAutoGeneratedMetaDataObjects.obj
 0001:0005fef0       ?getPxParticleFluid_ConcreteTypeName@@YAPBDPBVPxParticleFluid@physx@@@Z 10060ef0 f   PxAutoGeneratedMetaDataObjects.obj
 0001:0005ff00       ?getPxParticleSystem_ConcreteTypeName@@YAPBDPBVPxParticleSystem@physx@@@Z 10060f00 f   PxAutoGeneratedMetaDataObjects.obj
 0001:0005ff10       ?getPxPruningStructure_RigidActors@@YAIPBVPxPruningStructure@physx@@PAPAVPxRigidActor@2@I@Z 10060f10 f   PxAutoGeneratedMetaDataObjects.obj
 0001:0005ff30       ?getNbPxPruningStructure_RigidActors@@YAIPBVPxPruningStructure@physx@@@Z 10060f30 f   PxAutoGeneratedMetaDataObjects.obj
 0001:0005ff40       ?getPxPruningStructure_ConcreteTypeName@@YAPBDPBVPxPruningStructure@physx@@@Z 10060f40 f   PxAutoGeneratedMetaDataObjects.obj
 0001:0005ff50       ?getPxTolerancesScale_IsValid@@YA_NPBVPxTolerancesScale@physx@@@Z 10060f50 f   PxAutoGeneratedMetaDataObjects.obj
 0001:0005ff80       ?getPxSphereGeometry_IsValid@@YA_NPBVPxSphereGeometry@physx@@@Z 10060f80 f   PxAutoGeneratedMetaDataObjects.obj
 0001:0005ffc0       ?getPxHeightFieldDesc_IsValid@@YA_NPBVPxHeightFieldDesc@physx@@@Z 10060fc0 f   PxAutoGeneratedMetaDataObjects.obj
 0001:00060020       ?getPxScene_Flags@@YA?AV?$PxFlags@W4Enum@PxSceneFlag@physx@@I@physx@@PBVPxScene@2@@Z 10061020 f   PxAutoGeneratedMetaDataObjects.obj
 0001:00060040       ?setPxScene_Limits@@YAXPAVPxScene@physx@@ABVPxSceneLimits@2@@Z 10061040 f   PxAutoGeneratedMetaDataObjects.obj
 0001:00060050       ?getPxScene_Limits@@YA?AVPxSceneLimits@physx@@PBVPxScene@2@@Z 10061050 f   PxAutoGeneratedMetaDataObjects.obj
 0001:00060070       ?getPxScene_Timestamp@@YAIPBVPxScene@physx@@@Z 10061070 f   PxAutoGeneratedMetaDataObjects.obj
 0001:00060080       ?getPxScene_Actors@@YAIPBVPxScene@physx@@V?$PxFlags@W4Enum@PxActorTypeFlag@physx@@G@2@PAPAVPxActor@2@I@Z 10061080 f   PxAutoGeneratedMetaDataObjects.obj
 0001:000600a0       ?getNbPxScene_Actors@@YAIPBVPxScene@physx@@V?$PxFlags@W4Enum@PxActorTypeFlag@physx@@G@2@@Z 100610a0 f   PxAutoGeneratedMetaDataObjects.obj
 0001:000600c0       ?getPxScene_Articulations@@YAIPBVPxScene@physx@@PAPAVPxArticulation@2@I@Z 100610c0 f   PxAutoGeneratedMetaDataObjects.obj
 0001:000600e0       ?getNbPxScene_Articulations@@YAIPBVPxScene@physx@@@Z 100610e0 f   PxAutoGeneratedMetaDataObjects.obj
 0001:000600f0       ?getPxScene_Constraints@@YAIPBVPxScene@physx@@PAPAVPxConstraint@2@I@Z 100610f0 f   PxAutoGeneratedMetaDataObjects.obj
 0001:00060110       ?getNbPxScene_Constraints@@YAIPBVPxScene@physx@@@Z 10061110 f   PxAutoGeneratedMetaDataObjects.obj
 0001:00060120       ?getPxScene_Aggregates@@YAIPBVPxScene@physx@@PAPAVPxAggregate@2@I@Z 10061120 f   PxAutoGeneratedMetaDataObjects.obj
 0001:00060140       ?getNbPxScene_Aggregates@@YAIPBVPxScene@physx@@@Z 10061140 f   PxAutoGeneratedMetaDataObjects.obj
 0001:00060150       ?getPxScene_CpuDispatcher@@YAPAVPxCpuDispatcher@physx@@PBVPxScene@2@@Z 10061150 f   PxAutoGeneratedMetaDataObjects.obj
 0001:00060160       ?getPxScene_GpuDispatcher@@YAPAVPxGpuDispatcher@physx@@PBVPxScene@2@@Z 10061160 f   PxAutoGeneratedMetaDataObjects.obj
 0001:00060170       ?setPxScene_ClothInterCollisionDistance@@YAXPAVPxScene@physx@@M@Z 10061170 f   PxAutoGeneratedMetaDataObjects.obj
 0001:00060190       ?getPxScene_ClothInterCollisionDistance@@YAMPBVPxScene@physx@@@Z 10061190 f   PxAutoGeneratedMetaDataObjects.obj
 0001:000601b0       ?setPxScene_ClothInterCollisionStiffness@@YAXPAVPxScene@physx@@M@Z 100611b0 f   PxAutoGeneratedMetaDataObjects.obj
 0001:000601d0       ?getPxScene_ClothInterCollisionStiffness@@YAMPBVPxScene@physx@@@Z 100611d0 f   PxAutoGeneratedMetaDataObjects.obj
 0001:000601f0       ?setPxScene_ClothInterCollisionNbIterations@@YAXPAVPxScene@physx@@I@Z 100611f0 f   PxAutoGeneratedMetaDataObjects.obj
 0001:00060210       ?getPxScene_ClothInterCollisionNbIterations@@YAIPBVPxScene@physx@@@Z 10061210 f   PxAutoGeneratedMetaDataObjects.obj
 0001:00060220       ?setPxScene_ContactModifyCallback@@YAXPAVPxScene@physx@@PAVPxContactModifyCallback@2@@Z 10061220 f   PxAutoGeneratedMetaDataObjects.obj
 0001:00060240       ?getPxScene_ContactModifyCallback@@YAPAVPxContactModifyCallback@physx@@PBVPxScene@2@@Z 10061240 f   PxAutoGeneratedMetaDataObjects.obj
 0001:00060250       ?setPxScene_CCDContactModifyCallback@@YAXPAVPxScene@physx@@PAVPxCCDContactModifyCallback@2@@Z 10061250 f   PxAutoGeneratedMetaDataObjects.obj
 0001:00060270       ?getPxScene_CCDContactModifyCallback@@YAPAVPxCCDContactModifyCallback@physx@@PBVPxScene@2@@Z 10061270 f   PxAutoGeneratedMetaDataObjects.obj
 0001:00060280       ?getPxScene_FilterShaderDataSize@@YAIPBVPxScene@physx@@@Z 10061280 f   PxAutoGeneratedMetaDataObjects.obj
 0001:00060290       ?getPxScene_FilterShader@@YAP6A?AV?$PxFlags@W4Enum@PxFilterFlag@physx@@G@physx@@IUPxFilterData@2@I0AAV?$PxFlags@W4Enum@PxPairFlag@physx@@G@2@PBXI@ZPBVPxScene@2@@Z 10061290 f   PxAutoGeneratedMetaDataObjects.obj
 0001:000602a0       ?getPxScene_FilterCallback@@YAPAVPxSimulationFilterCallback@physx@@PBVPxScene@2@@Z 100612a0 f   PxAutoGeneratedMetaDataObjects.obj
 0001:000602b0       ?setPxScene_Gravity@@YAXPAVPxScene@physx@@ABVPxVec3@2@@Z 100612b0 f   PxAutoGeneratedMetaDataObjects.obj
 0001:000602d0       ?getPxScene_Gravity@@YA?AVPxVec3@physx@@PBVPxScene@2@@Z 100612d0 f   PxAutoGeneratedMetaDataObjects.obj
 0001:000602f0       ?setPxScene_BounceThresholdVelocity@@YAXPAVPxScene@physx@@M@Z 100612f0 f   PxAutoGeneratedMetaDataObjects.obj
 0001:00060310       ?getPxScene_BounceThresholdVelocity@@YAMPBVPxScene@physx@@@Z 10061310 f   PxAutoGeneratedMetaDataObjects.obj
 0001:00060330       ?setPxScene_CCDMaxPasses@@YAXPAVPxScene@physx@@I@Z 10061330 f   PxAutoGeneratedMetaDataObjects.obj
 0001:00060350       ?getPxScene_CCDMaxPasses@@YAIPBVPxScene@physx@@@Z 10061350 f   PxAutoGeneratedMetaDataObjects.obj
 0001:00060360       ?getPxScene_FrictionOffsetThreshold@@YAMPBVPxScene@physx@@@Z 10061360 f   PxAutoGeneratedMetaDataObjects.obj
 0001:00060380       ?setPxScene_FrictionType@@YAXPAVPxScene@physx@@W4Enum@PxFrictionType@2@@Z 10061380 f   PxAutoGeneratedMetaDataObjects.obj
 0001:000603a0       ?getPxScene_FrictionType@@YA?AW4Enum@PxFrictionType@physx@@PBVPxScene@3@@Z 100613a0 f   PxAutoGeneratedMetaDataObjects.obj
 0001:000603b0       ?setPxScene_VisualizationCullingBox@@YAXPAVPxScene@physx@@ABVPxBounds3@2@@Z 100613b0 f   PxAutoGeneratedMetaDataObjects.obj
 0001:000603d0       ?getPxScene_VisualizationCullingBox@@YA?AVPxBounds3@physx@@PBVPxScene@2@@Z 100613d0 f   PxAutoGeneratedMetaDataObjects.obj
 0001:000603f0       ?getPxScene_StaticStructure@@YA?AW4Enum@PxPruningStructureType@physx@@PBVPxScene@3@@Z 100613f0 f   PxAutoGeneratedMetaDataObjects.obj
 0001:00060400       ?getPxScene_DynamicStructure@@YA?AW4Enum@PxPruningStructureType@physx@@PBVPxScene@3@@Z 10061400 f   PxAutoGeneratedMetaDataObjects.obj
 0001:00060410       ?setPxScene_DynamicTreeRebuildRateHint@@YAXPAVPxScene@physx@@I@Z 10061410 f   PxAutoGeneratedMetaDataObjects.obj
 0001:00060430       ?getPxScene_DynamicTreeRebuildRateHint@@YAIPBVPxScene@physx@@@Z 10061430 f   PxAutoGeneratedMetaDataObjects.obj
 0001:00060440       ?getPxScene_SceneQueryStaticTimestamp@@YAIPBVPxScene@physx@@@Z 10061440 f   PxAutoGeneratedMetaDataObjects.obj
 0001:00060450       ?getPxScene_BroadPhaseType@@YA?AW4Enum@PxBroadPhaseType@physx@@PBVPxScene@3@@Z 10061450 f   PxAutoGeneratedMetaDataObjects.obj
 0001:00060460       ?getPxScene_BroadPhaseRegions@@YAIPBVPxScene@physx@@PAUPxBroadPhaseRegionInfo@2@I@Z 10061460 f   PxAutoGeneratedMetaDataObjects.obj
 0001:00060480       ?getNbPxScene_BroadPhaseRegions@@YAIPBVPxScene@physx@@@Z 10061480 f   PxAutoGeneratedMetaDataObjects.obj
 0001:00060490       ?getPxScene_TaskManager@@YAPAVPxTaskManager@physx@@PBVPxScene@2@@Z 10061490 f   PxAutoGeneratedMetaDataObjects.obj
 0001:000604a0       ?setPxScene_NbContactDataBlocks@@YAXPAVPxScene@physx@@I@Z 100614a0 f   PxAutoGeneratedMetaDataObjects.obj
 0001:000604c0       ?getPxScene_MaxNbContactDataBlocksUsed@@YAIPBVPxScene@physx@@@Z 100614c0 f   PxAutoGeneratedMetaDataObjects.obj
 0001:000604d0       ?getPxScene_ContactReportStreamBufferSize@@YAIPBVPxScene@physx@@@Z 100614d0 f   PxAutoGeneratedMetaDataObjects.obj
 0001:000604e0       ?setPxScene_SolverBatchSize@@YAXPAVPxScene@physx@@I@Z 100614e0 f   PxAutoGeneratedMetaDataObjects.obj
 0001:00060500       ?getPxScene_SolverBatchSize@@YAIPBVPxScene@physx@@@Z 10061500 f   PxAutoGeneratedMetaDataObjects.obj
 0001:00060510       ?getPxScene_WakeCounterResetValue@@YAMPBVPxScene@physx@@@Z 10061510 f   PxAutoGeneratedMetaDataObjects.obj
 0001:00060530       ?setPxSceneDesc_ToDefault@@YAXPAVPxSceneDesc@physx@@ABVPxTolerancesScale@2@@Z 10061530 f   PxAutoGeneratedMetaDataObjects.obj
 0001:00060560       ?getPxSceneDesc_IsValid@@YA_NPBVPxSceneDesc@physx@@@Z 10061560 f   PxAutoGeneratedMetaDataObjects.obj
 0001:00060570       ??0PxSceneDesc@physx@@QAE@ABVPxTolerancesScale@1@@Z 10061570 f i PxAutoGeneratedMetaDataObjects.obj
 0001:00060770       ??0PxSimulationStatistics@physx@@QAE@XZ 10061770 f i PxAutoGeneratedMetaDataObjects.obj
 0001:000608b0       ??4PxSceneDesc@physx@@QAEAAV01@$$QAV01@@Z 100618b0 f i PxAutoGeneratedMetaDataObjects.obj
 0001:00060a40       ??_FPxClothStretchConfig@physx@@QAEXXZ 10061a40 f i PxAutoGeneratedMetaDataObjects.obj
 0001:00060a60       ?getPxActorUserData@@YAPAXPBVPxActor@physx@@@Z 10061a60 f i PxAutoGeneratedMetaDataObjects.obj
 0001:00060a70       ?getPxArticulationUserData@@YAPAXPBVPxArticulation@physx@@@Z 10061a70 f i PxAutoGeneratedMetaDataObjects.obj
 0001:00060a80       ?getPxBoxGeometryHalfExtents@@YA?AVPxVec3@physx@@PBVPxBoxGeometry@2@@Z 10061a80 f i PxAutoGeneratedMetaDataObjects.obj
 0001:00060aa0       ?getPxCapsuleGeometryHalfHeight@@YAMPBVPxCapsuleGeometry@physx@@@Z 10061aa0 f i PxAutoGeneratedMetaDataObjects.obj
 0001:00060ab0       ?getPxCapsuleGeometryRadius@@YAMPBVPxCapsuleGeometry@physx@@@Z 10061ab0 f i PxAutoGeneratedMetaDataObjects.obj
 0001:00060ac0       ?getPxClothFabricPhasePhaseType@@YA?AW4Enum@PxClothFabricPhaseType@physx@@PBUPxClothFabricPhase@3@@Z 10061ac0 f i PxAutoGeneratedMetaDataObjects.obj
 0001:00060ad0       ?getPxClothFabricPhaseSetIndex@@YAIPBUPxClothFabricPhase@physx@@@Z 10061ad0 f i PxAutoGeneratedMetaDataObjects.obj
 0001:00060ae0       ?getPxClothMotionConstraintConfigBias@@YAMPBUPxClothMotionConstraintConfig@physx@@@Z 10061ae0 f i PxAutoGeneratedMetaDataObjects.obj
 0001:00060af0       ?getPxClothMotionConstraintConfigScale@@YAMPBUPxClothMotionConstraintConfig@physx@@@Z 10061af0 f i PxAutoGeneratedMetaDataObjects.obj
 0001:00060b00       ?getPxClothMotionConstraintConfigStiffness@@YAMPBUPxClothMotionConstraintConfig@physx@@@Z 10061b00 f i PxAutoGeneratedMetaDataObjects.obj
 0001:00060b10       ?getPxClothParticleDataParticles@@YAPAUPxClothParticle@physx@@PBVPxClothParticleData@2@@Z 10061b10 f i PxAutoGeneratedMetaDataObjects.obj
 0001:00060b20       ?getPxClothParticleDataPreviousParticles@@YAPAUPxClothParticle@physx@@PBVPxClothParticleData@2@@Z 10061b20 f i PxAutoGeneratedMetaDataObjects.obj
 0001:00060b30       ?getPxClothParticleInvWeight@@YAMPBUPxClothParticle@physx@@@Z 10061b30 f i PxAutoGeneratedMetaDataObjects.obj
 0001:00060b40       ?getPxClothParticlePos@@YA?AVPxVec3@physx@@PBUPxClothParticle@2@@Z 10061b40 f i PxAutoGeneratedMetaDataObjects.obj
 0001:00060b60       ?getPxClothStretchConfigCompressionLimit@@YAMPBUPxClothStretchConfig@physx@@@Z 10061b60 f i PxAutoGeneratedMetaDataObjects.obj
 0001:00060b70       ?getPxClothStretchConfigStiffness@@YAMPBUPxClothStretchConfig@physx@@@Z 10061b70 f i PxAutoGeneratedMetaDataObjects.obj
 0001:00060b80       ?getPxClothStretchConfigStiffnessMultiplier@@YAMPBUPxClothStretchConfig@physx@@@Z 10061b80 f i PxAutoGeneratedMetaDataObjects.obj
 0001:00060b90       ?getPxClothStretchConfigStretchLimit@@YAMPBUPxClothStretchConfig@physx@@@Z 10061b90 f i PxAutoGeneratedMetaDataObjects.obj
 0001:00060ba0       ?getPxClothTetherConfigStiffness@@YAMPBUPxClothTetherConfig@physx@@@Z 10061ba0 f i PxAutoGeneratedMetaDataObjects.obj
 0001:00060bb0       ?getPxClothTetherConfigStretchLimit@@YAMPBUPxClothTetherConfig@physx@@@Z 10061bb0 f i PxAutoGeneratedMetaDataObjects.obj
 0001:00060bc0       ?getPxConvexMeshGeometryConvexMesh@@YAPAVPxConvexMesh@physx@@PBVPxConvexMeshGeometry@2@@Z 10061bc0 f i PxAutoGeneratedMetaDataObjects.obj
 0001:00060bd0       ?getPxConvexMeshGeometryMeshFlags@@YA?AV?$PxFlags@W4Enum@PxConvexMeshGeometryFlag@physx@@E@physx@@PBVPxConvexMeshGeometry@2@@Z 10061bd0 f i PxAutoGeneratedMetaDataObjects.obj
 0001:00060be0       ?getPxConvexMeshGeometryScale@@YA?AVPxMeshScale@physx@@PBVPxConvexMeshGeometry@2@@Z 10061be0 f i PxAutoGeneratedMetaDataObjects.obj
 0001:00060c20       ?getPxHeightFieldDescConvexEdgeThreshold@@YAMPBVPxHeightFieldDesc@physx@@@Z 10061c20 f i PxAutoGeneratedMetaDataObjects.obj
 0001:00060c30       ?getPxHeightFieldDescFlags@@YA?AV?$PxFlags@W4Enum@PxHeightFieldFlag@physx@@G@physx@@PBVPxHeightFieldDesc@2@@Z 10061c30 f i PxAutoGeneratedMetaDataObjects.obj
 0001:00060c50       ?getPxHeightFieldDescFormat@@YA?AW4Enum@PxHeightFieldFormat@physx@@PBVPxHeightFieldDesc@3@@Z 10061c50 f i PxAutoGeneratedMetaDataObjects.obj
 0001:00060c60       ?getPxHeightFieldDescNbColumns@@YAIPBVPxHeightFieldDesc@physx@@@Z 10061c60 f i PxAutoGeneratedMetaDataObjects.obj
 0001:00060c70       ?getPxHeightFieldDescNbRows@@YAIPBVPxHeightFieldDesc@physx@@@Z 10061c70 f i PxAutoGeneratedMetaDataObjects.obj
 0001:00060c80       ?getPxHeightFieldDescSamples@@YA?AUPxStridedData@physx@@PBVPxHeightFieldDesc@2@@Z 10061c80 f i PxAutoGeneratedMetaDataObjects.obj
 0001:00060ca0       ?getPxHeightFieldDescThickness@@YAMPBVPxHeightFieldDesc@physx@@@Z 10061ca0 f i PxAutoGeneratedMetaDataObjects.obj
 0001:00060cb0       ?getPxHeightFieldGeometryColumnScale@@YAMPBVPxHeightFieldGeometry@physx@@@Z 10061cb0 f i PxAutoGeneratedMetaDataObjects.obj
 0001:00060cc0       ?getPxHeightFieldGeometryHeightField@@YAPAVPxHeightField@physx@@PBVPxHeightFieldGeometry@2@@Z 10061cc0 f i PxAutoGeneratedMetaDataObjects.obj
 0001:00060cd0       ?getPxHeightFieldGeometryHeightFieldFlags@@YA?AV?$PxFlags@W4Enum@PxMeshGeometryFlag@physx@@E@physx@@PBVPxHeightFieldGeometry@2@@Z 10061cd0 f i PxAutoGeneratedMetaDataObjects.obj
 0001:00060ce0       ?getPxHeightFieldGeometryHeightScale@@YAMPBVPxHeightFieldGeometry@physx@@@Z 10061ce0 f i PxAutoGeneratedMetaDataObjects.obj
 0001:00060cf0       ?getPxHeightFieldGeometryRowScale@@YAMPBVPxHeightFieldGeometry@physx@@@Z 10061cf0 f i PxAutoGeneratedMetaDataObjects.obj
 0001:00060d00       ?getPxMaterialUserData@@YAPAXPBVPxMaterial@physx@@@Z 10061d00 f i PxAutoGeneratedMetaDataObjects.obj
 0001:00060d10       ?getPxMeshScaleRotation@@YA?AVPxQuat@physx@@PBVPxMeshScale@2@@Z 10061d10 f i PxAutoGeneratedMetaDataObjects.obj
 0001:00060d40       ?getPxMeshScaleScale@@YA?AVPxVec3@physx@@PBVPxMeshScale@2@@Z 10061d40 f i PxAutoGeneratedMetaDataObjects.obj
 0001:00060d60       ?getPxParticleReadDataCollisionNormalBuffer@@YA?AV?$PxStrideIterator@$$CBVPxVec3@physx@@@physx@@PBVPxParticleReadData@2@@Z 10061d60 f i PxAutoGeneratedMetaDataObjects.obj
 0001:00060d80       ?getPxParticleReadDataCollisionVelocityBuffer@@YA?AV?$PxStrideIterator@$$CBVPxVec3@physx@@@physx@@PBVPxParticleReadData@2@@Z 10061d80 f i PxAutoGeneratedMetaDataObjects.obj
 0001:00060da0       ?getPxParticleReadDataFlagsBuffer@@YA?AV?$PxStrideIterator@$$CBV?$PxFlags@W4Enum@PxParticleFlag@physx@@G@physx@@@physx@@PBVPxParticleReadData@2@@Z 10061da0 f i PxAutoGeneratedMetaDataObjects.obj
 0001:00060dc0       ?getPxParticleReadDataNbValidParticles@@YAIPBVPxParticleReadData@physx@@@Z 10061dc0 f i PxAutoGeneratedMetaDataObjects.obj
 0001:00060dd0       ?getPxParticleReadDataPositionBuffer@@YA?AV?$PxStrideIterator@$$CBVPxVec3@physx@@@physx@@PBVPxParticleReadData@2@@Z 10061dd0 f i PxAutoGeneratedMetaDataObjects.obj
 0001:00060df0       ?getPxParticleReadDataRestOffsetBuffer@@YA?AV?$PxStrideIterator@$$CBM@physx@@PBVPxParticleReadData@2@@Z 10061df0 f i PxAutoGeneratedMetaDataObjects.obj
 0001:00060e10       ?getPxParticleReadDataValidParticleBitmap@@YAPBIPBVPxParticleReadData@physx@@@Z 10061e10 f i PxAutoGeneratedMetaDataObjects.obj
 0001:00060e20       ?getPxParticleReadDataValidParticleRange@@YAIPBVPxParticleReadData@physx@@@Z 10061e20 f i PxAutoGeneratedMetaDataObjects.obj
 0001:00060e30       ?getPxParticleReadDataVelocityBuffer@@YA?AV?$PxStrideIterator@$$CBVPxVec3@physx@@@physx@@PBVPxParticleReadData@2@@Z 10061e30 f i PxAutoGeneratedMetaDataObjects.obj
 0001:00060e50       ?getPxSceneDescBounceThresholdVelocity@@YAMPBVPxSceneDesc@physx@@@Z 10061e50 f i PxAutoGeneratedMetaDataObjects.obj
 0001:00060e60       ?getPxSceneDescBroadPhaseCallback@@YAPAVPxBroadPhaseCallback@physx@@PBVPxSceneDesc@2@@Z 10061e60 f i PxAutoGeneratedMetaDataObjects.obj
 0001:00060e70       ?getPxSceneDescBroadPhaseType@@YA?AW4Enum@PxBroadPhaseType@physx@@PBVPxSceneDesc@3@@Z 10061e70 f i PxAutoGeneratedMetaDataObjects.obj
 0001:00060e80       ?getPxSceneDescCcdContactModifyCallback@@YAPAVPxCCDContactModifyCallback@physx@@PBVPxSceneDesc@2@@Z 10061e80 f i PxAutoGeneratedMetaDataObjects.obj
 0001:00060e90       ?getPxSceneDescCcdMaxPasses@@YAIPBVPxSceneDesc@physx@@@Z 10061e90 f i PxAutoGeneratedMetaDataObjects.obj
 0001:00060ea0       ?getPxSceneDescCcdMaxSeparation@@YAMPBVPxSceneDesc@physx@@@Z 10061ea0 f i PxAutoGeneratedMetaDataObjects.obj
 0001:00060eb0       ?getPxSceneDescContactModifyCallback@@YAPAVPxContactModifyCallback@physx@@PBVPxSceneDesc@2@@Z 10061eb0 f i PxAutoGeneratedMetaDataObjects.obj
 0001:00060ec0       ?getPxSceneDescContactReportStreamBufferSize@@YAIPBVPxSceneDesc@physx@@@Z 10061ec0 f i PxAutoGeneratedMetaDataObjects.obj
 0001:00060ed0       ?getPxSceneDescCpuDispatcher@@YAPAVPxCpuDispatcher@physx@@PBVPxSceneDesc@2@@Z 10061ed0 f i PxAutoGeneratedMetaDataObjects.obj
 0001:00060ee0       ?getPxSceneDescDynamicStructure@@YA?AW4Enum@PxPruningStructureType@physx@@PBVPxSceneDesc@3@@Z 10061ee0 f i PxAutoGeneratedMetaDataObjects.obj
 0001:00060ef0       ?getPxSceneDescDynamicTreeRebuildRateHint@@YAIPBVPxSceneDesc@physx@@@Z 10061ef0 f i PxAutoGeneratedMetaDataObjects.obj
 0001:00060f00       ?getPxSceneDescFilterCallback@@YAPAVPxSimulationFilterCallback@physx@@PBVPxSceneDesc@2@@Z 10061f00 f i PxAutoGeneratedMetaDataObjects.obj
 0001:00060f10       ?getPxSceneDescFilterShader@@YAP6A?AV?$PxFlags@W4Enum@PxFilterFlag@physx@@G@physx@@IUPxFilterData@2@I0AAV?$PxFlags@W4Enum@PxPairFlag@physx@@G@2@PBXI@ZPBVPxSceneDesc@2@@Z 10061f10 f i PxAutoGeneratedMetaDataObjects.obj
 0001:00060f20       ?getPxSceneDescFilterShaderData@@YAPBXPBVPxSceneDesc@physx@@@Z 10061f20 f i PxAutoGeneratedMetaDataObjects.obj
 0001:00060f30       ?getPxSceneDescFilterShaderDataSize@@YAIPBVPxSceneDesc@physx@@@Z 10061f30 f i PxAutoGeneratedMetaDataObjects.obj
 0001:00060f40       ?getPxSceneDescFlags@@YA?AV?$PxFlags@W4Enum@PxSceneFlag@physx@@I@physx@@PBVPxSceneDesc@2@@Z 10061f40 f i PxAutoGeneratedMetaDataObjects.obj
 0001:00060f50       ?getPxSceneDescFrictionOffsetThreshold@@YAMPBVPxSceneDesc@physx@@@Z 10061f50 f i PxAutoGeneratedMetaDataObjects.obj
 0001:00060f60       ?getPxSceneDescFrictionType@@YA?AW4Enum@PxFrictionType@physx@@PBVPxSceneDesc@3@@Z 10061f60 f i PxAutoGeneratedMetaDataObjects.obj
 0001:00060f70       ?getPxSceneDescGpuComputeVersion@@YAIPBVPxSceneDesc@physx@@@Z 10061f70 f i PxAutoGeneratedMetaDataObjects.obj
 0001:00060f80       ?getPxSceneDescGpuDispatcher@@YAPAVPxGpuDispatcher@physx@@PBVPxSceneDesc@2@@Z 10061f80 f i PxAutoGeneratedMetaDataObjects.obj
 0001:00060f90       ?getPxSceneDescGpuDynamicsConfig@@YA?AUPxgDynamicsMemoryConfig@physx@@PBVPxSceneDesc@2@@Z 10061f90 f i PxAutoGeneratedMetaDataObjects.obj
 0001:00060fb0       ?getPxSceneDescGpuMaxNumPartitions@@YAIPBVPxSceneDesc@physx@@@Z 10061fb0 f i PxAutoGeneratedMetaDataObjects.obj
 0001:00060fc0       ?getPxSceneDescGravity@@YA?AVPxVec3@physx@@PBVPxSceneDesc@2@@Z 10061fc0 f i PxAutoGeneratedMetaDataObjects.obj
 0001:00060fe0       ?getPxSceneDescLimits@@YA?AVPxSceneLimits@physx@@PBVPxSceneDesc@2@@Z 10061fe0 f i PxAutoGeneratedMetaDataObjects.obj
 0001:00061000       ?getPxSceneDescMaxNbContactDataBlocks@@YAIPBVPxSceneDesc@physx@@@Z 10062000 f i PxAutoGeneratedMetaDataObjects.obj
 0001:00061010       ?getPxSceneDescNbContactDataBlocks@@YAIPBVPxSceneDesc@physx@@@Z 10062010 f i PxAutoGeneratedMetaDataObjects.obj
 0001:00061020       ?getPxSceneDescSanityBounds@@YA?AVPxBounds3@physx@@PBVPxSceneDesc@2@@Z 10062020 f i PxAutoGeneratedMetaDataObjects.obj
 0001:00061070       ?getPxSceneDescSimulationEventCallback@@YAPAVPxSimulationEventCallback@physx@@PBVPxSceneDesc@2@@Z 10062070 f i PxAutoGeneratedMetaDataObjects.obj
 0001:00061080       ?getPxSceneDescSolverBatchSize@@YAIPBVPxSceneDesc@physx@@@Z 10062080 f i PxAutoGeneratedMetaDataObjects.obj
 0001:00061090       ?getPxSceneDescStaticStructure@@YA?AW4Enum@PxPruningStructureType@physx@@PBVPxSceneDesc@3@@Z 10062090 f i PxAutoGeneratedMetaDataObjects.obj
 0001:000610a0       ?getPxSceneDescUserData@@YAPAXPBVPxSceneDesc@physx@@@Z 100620a0 f i PxAutoGeneratedMetaDataObjects.obj
 0001:000610b0       ?getPxSceneDescWakeCounterResetValue@@YAMPBVPxSceneDesc@physx@@@Z 100620b0 f i PxAutoGeneratedMetaDataObjects.obj
 0001:000610c0       ?getPxSceneLimitsMaxNbActors@@YAIPBVPxSceneLimits@physx@@@Z 100620c0 f i PxAutoGeneratedMetaDataObjects.obj
 0001:000610d0       ?getPxSceneLimitsMaxNbAggregates@@YAIPBVPxSceneLimits@physx@@@Z 100620d0 f i PxAutoGeneratedMetaDataObjects.obj
 0001:000610e0       ?getPxSceneLimitsMaxNbBodies@@YAIPBVPxSceneLimits@physx@@@Z 100620e0 f i PxAutoGeneratedMetaDataObjects.obj
 0001:000610f0       ?getPxSceneLimitsMaxNbBroadPhaseOverlaps@@YAIPBVPxSceneLimits@physx@@@Z 100620f0 f i PxAutoGeneratedMetaDataObjects.obj
 0001:00061100       ?getPxSceneLimitsMaxNbConstraints@@YAIPBVPxSceneLimits@physx@@@Z 10062100 f i PxAutoGeneratedMetaDataObjects.obj
 0001:00061110       ?getPxSceneLimitsMaxNbDynamicShapes@@YAIPBVPxSceneLimits@physx@@@Z 10062110 f i PxAutoGeneratedMetaDataObjects.obj
 0001:00061120       ?getPxSceneLimitsMaxNbObjectsPerRegion@@YAIPBVPxSceneLimits@physx@@@Z 10062120 f i PxAutoGeneratedMetaDataObjects.obj
 0001:00061130       ?getPxSceneLimitsMaxNbRegions@@YAIPBVPxSceneLimits@physx@@@Z 10062130 f i PxAutoGeneratedMetaDataObjects.obj
 0001:00061140       ?getPxSceneLimitsMaxNbStaticShapes@@YAIPBVPxSceneLimits@physx@@@Z 10062140 f i PxAutoGeneratedMetaDataObjects.obj
 0001:00061150       ?getPxSceneUserData@@YAPAXPBVPxScene@physx@@@Z 10062150 f i PxAutoGeneratedMetaDataObjects.obj
 0001:00061160       ?getPxShapeUserData@@YAPAXPBVPxShape@physx@@@Z 10062160 f i PxAutoGeneratedMetaDataObjects.obj
 0001:00061170       ?getPxSimulationStatisticsCompressedContactSize@@YAIPBVPxSimulationStatistics@physx@@@Z 10062170 f i PxAutoGeneratedMetaDataObjects.obj
 0001:00061180       ?getPxSimulationStatisticsNbActiveConstraints@@YAIPBVPxSimulationStatistics@physx@@@Z 10062180 f i PxAutoGeneratedMetaDataObjects.obj
 0001:00061190       ?getPxSimulationStatisticsNbActiveDynamicBodies@@YAIPBVPxSimulationStatistics@physx@@@Z 10062190 f i PxAutoGeneratedMetaDataObjects.obj
 0001:000611a0       ?getPxSimulationStatisticsNbActiveKinematicBodies@@YAIPBVPxSimulationStatistics@physx@@@Z 100621a0 f i PxAutoGeneratedMetaDataObjects.obj
 0001:000611b0       ?getPxSimulationStatisticsNbAggregates@@YAIPBVPxSimulationStatistics@physx@@@Z 100621b0 f i PxAutoGeneratedMetaDataObjects.obj
 0001:000611c0       ?getPxSimulationStatisticsNbArticulations@@YAIPBVPxSimulationStatistics@physx@@@Z 100621c0 f i PxAutoGeneratedMetaDataObjects.obj
 0001:000611d0       ?getPxSimulationStatisticsNbAxisSolverConstraints@@YAIPBVPxSimulationStatistics@physx@@@Z 100621d0 f i PxAutoGeneratedMetaDataObjects.obj
 0001:000611e0       ?getPxSimulationStatisticsNbDiscreteContactPairsTotal@@YAIPBVPxSimulationStatistics@physx@@@Z 100621e0 f i PxAutoGeneratedMetaDataObjects.obj
 0001:000611f0       ?getPxSimulationStatisticsNbDiscreteContactPairsWithCacheHits@@YAIPBVPxSimulationStatistics@physx@@@Z 100621f0 f i PxAutoGeneratedMetaDataObjects.obj
 0001:00061200       ?getPxSimulationStatisticsNbDiscreteContactPairsWithContacts@@YAIPBVPxSimulationStatistics@physx@@@Z 10062200 f i PxAutoGeneratedMetaDataObjects.obj
 0001:00061210       ?getPxSimulationStatisticsNbDynamicBodies@@YAIPBVPxSimulationStatistics@physx@@@Z 10062210 f i PxAutoGeneratedMetaDataObjects.obj
 0001:00061220       ?getPxSimulationStatisticsNbLostPairs@@YAIPBVPxSimulationStatistics@physx@@@Z 10062220 f i PxAutoGeneratedMetaDataObjects.obj
 0001:00061230       ?getPxSimulationStatisticsNbLostTouches@@YAIPBVPxSimulationStatistics@physx@@@Z 10062230 f i PxAutoGeneratedMetaDataObjects.obj
 0001:00061240       ?getPxSimulationStatisticsNbNewPairs@@YAIPBVPxSimulationStatistics@physx@@@Z 10062240 f i PxAutoGeneratedMetaDataObjects.obj
 0001:00061250       ?getPxSimulationStatisticsNbNewTouches@@YAIPBVPxSimulationStatistics@physx@@@Z 10062250 f i PxAutoGeneratedMetaDataObjects.obj
 0001:00061260       ?getPxSimulationStatisticsNbPartitions@@YAIPBVPxSimulationStatistics@physx@@@Z 10062260 f i PxAutoGeneratedMetaDataObjects.obj
 0001:00061270       ?getPxSimulationStatisticsNbStaticBodies@@YAIPBVPxSimulationStatistics@physx@@@Z 10062270 f i PxAutoGeneratedMetaDataObjects.obj
 0001:00061280       ?getPxSimulationStatisticsParticlesGpuMeshCacheHitrate@@YAMPBVPxSimulationStatistics@physx@@@Z 10062280 f i PxAutoGeneratedMetaDataObjects.obj
 0001:00061290       ?getPxSimulationStatisticsParticlesGpuMeshCacheSize@@YAIPBVPxSimulationStatistics@physx@@@Z 10062290 f i PxAutoGeneratedMetaDataObjects.obj
 0001:000612a0       ?getPxSimulationStatisticsParticlesGpuMeshCacheUsed@@YAIPBVPxSimulationStatistics@physx@@@Z 100622a0 f i PxAutoGeneratedMetaDataObjects.obj
 0001:000612b0       ?getPxSimulationStatisticsPeakConstraintMemory@@YAIPBVPxSimulationStatistics@physx@@@Z 100622b0 f i PxAutoGeneratedMetaDataObjects.obj
 0001:000612c0       ?getPxSimulationStatisticsRequiredContactConstraintMemory@@YAIPBVPxSimulationStatistics@physx@@@Z 100622c0 f i PxAutoGeneratedMetaDataObjects.obj
 0001:000612d0       ?getPxSphereGeometryRadius@@YAMPBVPxSphereGeometry@physx@@@Z 100622d0 f i PxAutoGeneratedMetaDataObjects.obj
 0001:000612e0       ?getPxTolerancesScaleLength@@YAMPBVPxTolerancesScale@physx@@@Z 100622e0 f i PxAutoGeneratedMetaDataObjects.obj
 0001:000612f0       ?getPxTolerancesScaleMass@@YAMPBVPxTolerancesScale@physx@@@Z 100622f0 f i PxAutoGeneratedMetaDataObjects.obj
 0001:00061300       ?getPxTolerancesScaleSpeed@@YAMPBVPxTolerancesScale@physx@@@Z 10062300 f i PxAutoGeneratedMetaDataObjects.obj
 0001:00061310       ?getPxTriangleMeshGeometryMeshFlags@@YA?AV?$PxFlags@W4Enum@PxMeshGeometryFlag@physx@@E@physx@@PBVPxTriangleMeshGeometry@2@@Z 10062310 f i PxAutoGeneratedMetaDataObjects.obj
 0001:00061320       ?getPxTriangleMeshGeometryScale@@YA?AVPxMeshScale@physx@@PBVPxTriangleMeshGeometry@2@@Z 10062320 f i PxAutoGeneratedMetaDataObjects.obj
 0001:00061360       ?getPxTriangleMeshGeometryTriangleMesh@@YAPAVPxTriangleMesh@physx@@PBVPxTriangleMeshGeometry@2@@Z 10062360 f i PxAutoGeneratedMetaDataObjects.obj
 0001:00061370       ?getPxgDynamicsMemoryConfigConstraintBufferCapacity@@YAIPBUPxgDynamicsMemoryConfig@physx@@@Z 10062370 f i PxAutoGeneratedMetaDataObjects.obj
 0001:00061380       ?getPxgDynamicsMemoryConfigContactBufferCapacity@@YAIPBUPxgDynamicsMemoryConfig@physx@@@Z 10062380 f i PxAutoGeneratedMetaDataObjects.obj
 0001:00061390       ?getPxgDynamicsMemoryConfigContactStreamSize@@YAIPBUPxgDynamicsMemoryConfig@physx@@@Z 10062390 f i PxAutoGeneratedMetaDataObjects.obj
 0001:000613a0       ?getPxgDynamicsMemoryConfigForceStreamCapacity@@YAIPBUPxgDynamicsMemoryConfig@physx@@@Z 100623a0 f i PxAutoGeneratedMetaDataObjects.obj
 0001:000613b0       ?getPxgDynamicsMemoryConfigFoundLostPairsCapacity@@YAIPBUPxgDynamicsMemoryConfig@physx@@@Z 100623b0 f i PxAutoGeneratedMetaDataObjects.obj
 0001:000613c0       ?getPxgDynamicsMemoryConfigHeapCapacity@@YAIPBUPxgDynamicsMemoryConfig@physx@@@Z 100623c0 f i PxAutoGeneratedMetaDataObjects.obj
 0001:000613d0       ?getPxgDynamicsMemoryConfigPatchStreamSize@@YAIPBUPxgDynamicsMemoryConfig@physx@@@Z 100623d0 f i PxAutoGeneratedMetaDataObjects.obj
 0001:000613e0       ?getPxgDynamicsMemoryConfigTempBufferCapacity@@YAIPBUPxgDynamicsMemoryConfig@physx@@@Z 100623e0 f i PxAutoGeneratedMetaDataObjects.obj
 0001:000613f0       ?isValid@PxSceneDesc@physx@@QBE_NXZ 100623f0 f i PxAutoGeneratedMetaDataObjects.obj
 0001:00061650       ?setPxActorUserData@@YAXPAVPxActor@physx@@PAX@Z 10062650 f i PxAutoGeneratedMetaDataObjects.obj
 0001:00061660       ?setPxArticulationUserData@@YAXPAVPxArticulation@physx@@PAX@Z 10062660 f i PxAutoGeneratedMetaDataObjects.obj
 0001:00061670       ?setPxBoxGeometryHalfExtents@@YAXPAVPxBoxGeometry@physx@@VPxVec3@2@@Z 10062670 f i PxAutoGeneratedMetaDataObjects.obj
 0001:000616a0       ?setPxCapsuleGeometryHalfHeight@@YAXPAVPxCapsuleGeometry@physx@@M@Z 100626a0 f i PxAutoGeneratedMetaDataObjects.obj
 0001:000616c0       ?setPxCapsuleGeometryRadius@@YAXPAVPxCapsuleGeometry@physx@@M@Z 100626c0 f i PxAutoGeneratedMetaDataObjects.obj
 0001:000616e0       ?setPxClothFabricPhasePhaseType@@YAXPAUPxClothFabricPhase@physx@@W4Enum@PxClothFabricPhaseType@2@@Z 100626e0 f i PxAutoGeneratedMetaDataObjects.obj
 0001:000616f0       ?setPxClothFabricPhaseSetIndex@@YAXPAUPxClothFabricPhase@physx@@I@Z 100626f0 f i PxAutoGeneratedMetaDataObjects.obj
 0001:00061700       ?setPxClothMotionConstraintConfigBias@@YAXPAUPxClothMotionConstraintConfig@physx@@M@Z 10062700 f i PxAutoGeneratedMetaDataObjects.obj
 0001:00061720       ?setPxClothMotionConstraintConfigScale@@YAXPAUPxClothMotionConstraintConfig@physx@@M@Z 10062720 f i PxAutoGeneratedMetaDataObjects.obj
 0001:00061740       ?setPxClothMotionConstraintConfigStiffness@@YAXPAUPxClothMotionConstraintConfig@physx@@M@Z 10062740 f i PxAutoGeneratedMetaDataObjects.obj
 0001:00061760       ?setPxClothParticleDataParticles@@YAXPAVPxClothParticleData@physx@@PAUPxClothParticle@2@@Z 10062760 f i PxAutoGeneratedMetaDataObjects.obj
 0001:00061770       ?setPxClothParticleDataPreviousParticles@@YAXPAVPxClothParticleData@physx@@PAUPxClothParticle@2@@Z 10062770 f i PxAutoGeneratedMetaDataObjects.obj
 0001:00061780       ?setPxClothParticleInvWeight@@YAXPAUPxClothParticle@physx@@M@Z 10062780 f i PxAutoGeneratedMetaDataObjects.obj
 0001:000617a0       ?setPxClothParticlePos@@YAXPAUPxClothParticle@physx@@VPxVec3@2@@Z 100627a0 f i PxAutoGeneratedMetaDataObjects.obj
 0001:000617d0       ?setPxClothStretchConfigCompressionLimit@@YAXPAUPxClothStretchConfig@physx@@M@Z 100627d0 f i PxAutoGeneratedMetaDataObjects.obj
 0001:000617f0       ?setPxClothStretchConfigStiffness@@YAXPAUPxClothStretchConfig@physx@@M@Z 100627f0 f i PxAutoGeneratedMetaDataObjects.obj
 0001:00061810       ?setPxClothStretchConfigStiffnessMultiplier@@YAXPAUPxClothStretchConfig@physx@@M@Z 10062810 f i PxAutoGeneratedMetaDataObjects.obj
 0001:00061830       ?setPxClothStretchConfigStretchLimit@@YAXPAUPxClothStretchConfig@physx@@M@Z 10062830 f i PxAutoGeneratedMetaDataObjects.obj
 0001:00061850       ?setPxClothTetherConfigStiffness@@YAXPAUPxClothTetherConfig@physx@@M@Z 10062850 f i PxAutoGeneratedMetaDataObjects.obj
 0001:00061870       ?setPxClothTetherConfigStretchLimit@@YAXPAUPxClothTetherConfig@physx@@M@Z 10062870 f i PxAutoGeneratedMetaDataObjects.obj
 0001:00061890       ?setPxConvexMeshGeometryConvexMesh@@YAXPAVPxConvexMeshGeometry@physx@@PAVPxConvexMesh@2@@Z 10062890 f i PxAutoGeneratedMetaDataObjects.obj
 0001:000618a0       ?setPxConvexMeshGeometryMeshFlags@@YAXPAVPxConvexMeshGeometry@physx@@V?$PxFlags@W4Enum@PxConvexMeshGeometryFlag@physx@@E@2@@Z 100628a0 f i PxAutoGeneratedMetaDataObjects.obj
 0001:000618b0       ?setPxConvexMeshGeometryScale@@YAXPAVPxConvexMeshGeometry@physx@@VPxMeshScale@2@@Z 100628b0 f i PxAutoGeneratedMetaDataObjects.obj
 0001:000618e0       ?setPxHeightFieldDescConvexEdgeThreshold@@YAXPAVPxHeightFieldDesc@physx@@M@Z 100628e0 f i PxAutoGeneratedMetaDataObjects.obj
 0001:00061900       ?setPxHeightFieldDescFlags@@YAXPAVPxHeightFieldDesc@physx@@V?$PxFlags@W4Enum@PxHeightFieldFlag@physx@@G@2@@Z 10062900 f i PxAutoGeneratedMetaDataObjects.obj
 0001:00061910       ?setPxHeightFieldDescFormat@@YAXPAVPxHeightFieldDesc@physx@@W4Enum@PxHeightFieldFormat@2@@Z 10062910 f i PxAutoGeneratedMetaDataObjects.obj
 0001:00061920       ?setPxHeightFieldDescNbColumns@@YAXPAVPxHeightFieldDesc@physx@@I@Z 10062920 f i PxAutoGeneratedMetaDataObjects.obj
 0001:00061930       ?setPxHeightFieldDescNbRows@@YAXPAVPxHeightFieldDesc@physx@@I@Z 10062930 f i PxAutoGeneratedMetaDataObjects.obj
 0001:00061940       ?setPxHeightFieldDescSamples@@YAXPAVPxHeightFieldDesc@physx@@UPxStridedData@2@@Z 10062940 f i PxAutoGeneratedMetaDataObjects.obj
 0001:00061960       ?setPxHeightFieldDescThickness@@YAXPAVPxHeightFieldDesc@physx@@M@Z 10062960 f i PxAutoGeneratedMetaDataObjects.obj
 0001:00061980       ?setPxHeightFieldGeometryColumnScale@@YAXPAVPxHeightFieldGeometry@physx@@M@Z 10062980 f i PxAutoGeneratedMetaDataObjects.obj
 0001:000619a0       ?setPxHeightFieldGeometryHeightField@@YAXPAVPxHeightFieldGeometry@physx@@PAVPxHeightField@2@@Z 100629a0 f i PxAutoGeneratedMetaDataObjects.obj
 0001:000619b0       ?setPxHeightFieldGeometryHeightFieldFlags@@YAXPAVPxHeightFieldGeometry@physx@@V?$PxFlags@W4Enum@PxMeshGeometryFlag@physx@@E@2@@Z 100629b0 f i PxAutoGeneratedMetaDataObjects.obj
 0001:000619c0       ?setPxHeightFieldGeometryHeightScale@@YAXPAVPxHeightFieldGeometry@physx@@M@Z 100629c0 f i PxAutoGeneratedMetaDataObjects.obj
 0001:000619e0       ?setPxHeightFieldGeometryRowScale@@YAXPAVPxHeightFieldGeometry@physx@@M@Z 100629e0 f i PxAutoGeneratedMetaDataObjects.obj
 0001:00061a00       ?setPxMaterialUserData@@YAXPAVPxMaterial@physx@@PAX@Z 10062a00 f i PxAutoGeneratedMetaDataObjects.obj
 0001:00061a10       ?setPxMeshScaleRotation@@YAXPAVPxMeshScale@physx@@VPxQuat@2@@Z 10062a10 f i PxAutoGeneratedMetaDataObjects.obj
 0001:00061a20       ?setPxMeshScaleScale@@YAXPAVPxMeshScale@physx@@VPxVec3@2@@Z 10062a20 f i PxAutoGeneratedMetaDataObjects.obj
 0001:00061a50       ?setPxParticleReadDataCollisionNormalBuffer@@YAXPAVPxParticleReadData@physx@@V?$PxStrideIterator@$$CBVPxVec3@physx@@@2@@Z 10062a50 f i PxAutoGeneratedMetaDataObjects.obj
 0001:00061a70       ?setPxParticleReadDataCollisionVelocityBuffer@@YAXPAVPxParticleReadData@physx@@V?$PxStrideIterator@$$CBVPxVec3@physx@@@2@@Z 10062a70 f i PxAutoGeneratedMetaDataObjects.obj
 0001:00061a90       ?setPxParticleReadDataFlagsBuffer@@YAXPAVPxParticleReadData@physx@@V?$PxStrideIterator@$$CBV?$PxFlags@W4Enum@PxParticleFlag@physx@@G@physx@@@2@@Z 10062a90 f i PxAutoGeneratedMetaDataObjects.obj
 0001:00061ab0       ?setPxParticleReadDataNbValidParticles@@YAXPAVPxParticleReadData@physx@@I@Z 10062ab0 f i PxAutoGeneratedMetaDataObjects.obj
 0001:00061ac0       ?setPxParticleReadDataPositionBuffer@@YAXPAVPxParticleReadData@physx@@V?$PxStrideIterator@$$CBVPxVec3@physx@@@2@@Z 10062ac0 f i PxAutoGeneratedMetaDataObjects.obj
 0001:00061ae0       ?setPxParticleReadDataRestOffsetBuffer@@YAXPAVPxParticleReadData@physx@@V?$PxStrideIterator@$$CBM@2@@Z 10062ae0 f i PxAutoGeneratedMetaDataObjects.obj
 0001:00061b00       ?setPxParticleReadDataValidParticleBitmap@@YAXPAVPxParticleReadData@physx@@PBI@Z 10062b00 f i PxAutoGeneratedMetaDataObjects.obj
 0001:00061b10       ?setPxParticleReadDataValidParticleRange@@YAXPAVPxParticleReadData@physx@@I@Z 10062b10 f i PxAutoGeneratedMetaDataObjects.obj
 0001:00061b20       ?setPxParticleReadDataVelocityBuffer@@YAXPAVPxParticleReadData@physx@@V?$PxStrideIterator@$$CBVPxVec3@physx@@@2@@Z 10062b20 f i PxAutoGeneratedMetaDataObjects.obj
 0001:00061b40       ?setPxSceneDescBounceThresholdVelocity@@YAXPAVPxSceneDesc@physx@@M@Z 10062b40 f i PxAutoGeneratedMetaDataObjects.obj
 0001:00061b60       ?setPxSceneDescBroadPhaseCallback@@YAXPAVPxSceneDesc@physx@@PAVPxBroadPhaseCallback@2@@Z 10062b60 f i PxAutoGeneratedMetaDataObjects.obj
 0001:00061b70       ?setPxSceneDescBroadPhaseType@@YAXPAVPxSceneDesc@physx@@W4Enum@PxBroadPhaseType@2@@Z 10062b70 f i PxAutoGeneratedMetaDataObjects.obj
 0001:00061b80       ?setPxSceneDescCcdContactModifyCallback@@YAXPAVPxSceneDesc@physx@@PAVPxCCDContactModifyCallback@2@@Z 10062b80 f i PxAutoGeneratedMetaDataObjects.obj
 0001:00061b90       ?setPxSceneDescCcdMaxPasses@@YAXPAVPxSceneDesc@physx@@I@Z 10062b90 f i PxAutoGeneratedMetaDataObjects.obj
 0001:00061bb0       ?setPxSceneDescCcdMaxSeparation@@YAXPAVPxSceneDesc@physx@@M@Z 10062bb0 f i PxAutoGeneratedMetaDataObjects.obj
 0001:00061bd0       ?setPxSceneDescContactModifyCallback@@YAXPAVPxSceneDesc@physx@@PAVPxContactModifyCallback@2@@Z 10062bd0 f i PxAutoGeneratedMetaDataObjects.obj
 0001:00061be0       ?setPxSceneDescContactReportStreamBufferSize@@YAXPAVPxSceneDesc@physx@@I@Z 10062be0 f i PxAutoGeneratedMetaDataObjects.obj
 0001:00061c00       ?setPxSceneDescCpuDispatcher@@YAXPAVPxSceneDesc@physx@@PAVPxCpuDispatcher@2@@Z 10062c00 f i PxAutoGeneratedMetaDataObjects.obj
 0001:00061c10       ?setPxSceneDescDynamicStructure@@YAXPAVPxSceneDesc@physx@@W4Enum@PxPruningStructureType@2@@Z 10062c10 f i PxAutoGeneratedMetaDataObjects.obj
 0001:00061c20       ?setPxSceneDescDynamicTreeRebuildRateHint@@YAXPAVPxSceneDesc@physx@@I@Z 10062c20 f i PxAutoGeneratedMetaDataObjects.obj
 0001:00061c30       ?setPxSceneDescFilterCallback@@YAXPAVPxSceneDesc@physx@@PAVPxSimulationFilterCallback@2@@Z 10062c30 f i PxAutoGeneratedMetaDataObjects.obj
 0001:00061c40       ?setPxSceneDescFilterShader@@YAXPAVPxSceneDesc@physx@@P6A?AV?$PxFlags@W4Enum@PxFilterFlag@physx@@G@2@IUPxFilterData@2@I1AAV?$PxFlags@W4Enum@PxPairFlag@physx@@G@2@PBXI@Z@Z 10062c40 f i PxAutoGeneratedMetaDataObjects.obj
 0001:00061c50       ?setPxSceneDescFilterShaderData@@YAXPAVPxSceneDesc@physx@@PBX@Z 10062c50 f i PxAutoGeneratedMetaDataObjects.obj
 0001:00061c60       ?setPxSceneDescFilterShaderDataSize@@YAXPAVPxSceneDesc@physx@@I@Z 10062c60 f i PxAutoGeneratedMetaDataObjects.obj
 0001:00061c70       ?setPxSceneDescFlags@@YAXPAVPxSceneDesc@physx@@V?$PxFlags@W4Enum@PxSceneFlag@physx@@I@2@@Z 10062c70 f i PxAutoGeneratedMetaDataObjects.obj
 0001:00061c80       ?setPxSceneDescFrictionOffsetThreshold@@YAXPAVPxSceneDesc@physx@@M@Z 10062c80 f i PxAutoGeneratedMetaDataObjects.obj
 0001:00061ca0       ?setPxSceneDescFrictionType@@YAXPAVPxSceneDesc@physx@@W4Enum@PxFrictionType@2@@Z 10062ca0 f i PxAutoGeneratedMetaDataObjects.obj
 0001:00061cb0       ?setPxSceneDescGpuComputeVersion@@YAXPAVPxSceneDesc@physx@@I@Z 10062cb0 f i PxAutoGeneratedMetaDataObjects.obj
 0001:00061cd0       ?setPxSceneDescGpuDispatcher@@YAXPAVPxSceneDesc@physx@@PAVPxGpuDispatcher@2@@Z 10062cd0 f i PxAutoGeneratedMetaDataObjects.obj
 0001:00061ce0       ?setPxSceneDescGpuDynamicsConfig@@YAXPAVPxSceneDesc@physx@@UPxgDynamicsMemoryConfig@2@@Z 10062ce0 f i PxAutoGeneratedMetaDataObjects.obj
 0001:00061d00       ?setPxSceneDescGpuMaxNumPartitions@@YAXPAVPxSceneDesc@physx@@I@Z 10062d00 f i PxAutoGeneratedMetaDataObjects.obj
 0001:00061d20       ?setPxSceneDescGravity@@YAXPAVPxSceneDesc@physx@@VPxVec3@2@@Z 10062d20 f i PxAutoGeneratedMetaDataObjects.obj
 0001:00061d50       ?setPxSceneDescLimits@@YAXPAVPxSceneDesc@physx@@VPxSceneLimits@2@@Z 10062d50 f i PxAutoGeneratedMetaDataObjects.obj
 0001:00061d70       ?setPxSceneDescMaxNbContactDataBlocks@@YAXPAVPxSceneDesc@physx@@I@Z 10062d70 f i PxAutoGeneratedMetaDataObjects.obj
 0001:00061d90       ?setPxSceneDescNbContactDataBlocks@@YAXPAVPxSceneDesc@physx@@I@Z 10062d90 f i PxAutoGeneratedMetaDataObjects.obj
 0001:00061db0       ?setPxSceneDescSanityBounds@@YAXPAVPxSceneDesc@physx@@VPxBounds3@2@@Z 10062db0 f i PxAutoGeneratedMetaDataObjects.obj
 0001:00061de0       ?setPxSceneDescSimulationEventCallback@@YAXPAVPxSceneDesc@physx@@PAVPxSimulationEventCallback@2@@Z 10062de0 f i PxAutoGeneratedMetaDataObjects.obj
 0001:00061df0       ?setPxSceneDescSolverBatchSize@@YAXPAVPxSceneDesc@physx@@I@Z 10062df0 f i PxAutoGeneratedMetaDataObjects.obj
 0001:00061e10       ?setPxSceneDescStaticStructure@@YAXPAVPxSceneDesc@physx@@W4Enum@PxPruningStructureType@2@@Z 10062e10 f i PxAutoGeneratedMetaDataObjects.obj
 0001:00061e20       ?setPxSceneDescUserData@@YAXPAVPxSceneDesc@physx@@PAX@Z 10062e20 f i PxAutoGeneratedMetaDataObjects.obj
 0001:00061e30       ?setPxSceneDescWakeCounterResetValue@@YAXPAVPxSceneDesc@physx@@M@Z 10062e30 f i PxAutoGeneratedMetaDataObjects.obj
 0001:00061e50       ?setPxSceneLimitsMaxNbActors@@YAXPAVPxSceneLimits@physx@@I@Z 10062e50 f i PxAutoGeneratedMetaDataObjects.obj
 0001:00061e60       ?setPxSceneLimitsMaxNbAggregates@@YAXPAVPxSceneLimits@physx@@I@Z 10062e60 f i PxAutoGeneratedMetaDataObjects.obj
 0001:00061e70       ?setPxSceneLimitsMaxNbBodies@@YAXPAVPxSceneLimits@physx@@I@Z 10062e70 f i PxAutoGeneratedMetaDataObjects.obj
 0001:00061e80       ?setPxSceneLimitsMaxNbBroadPhaseOverlaps@@YAXPAVPxSceneLimits@physx@@I@Z 10062e80 f i PxAutoGeneratedMetaDataObjects.obj
 0001:00061e90       ?setPxSceneLimitsMaxNbConstraints@@YAXPAVPxSceneLimits@physx@@I@Z 10062e90 f i PxAutoGeneratedMetaDataObjects.obj
 0001:00061ea0       ?setPxSceneLimitsMaxNbDynamicShapes@@YAXPAVPxSceneLimits@physx@@I@Z 10062ea0 f i PxAutoGeneratedMetaDataObjects.obj
 0001:00061eb0       ?setPxSceneLimitsMaxNbObjectsPerRegion@@YAXPAVPxSceneLimits@physx@@I@Z 10062eb0 f i PxAutoGeneratedMetaDataObjects.obj
 0001:00061ec0       ?setPxSceneLimitsMaxNbRegions@@YAXPAVPxSceneLimits@physx@@I@Z 10062ec0 f i PxAutoGeneratedMetaDataObjects.obj
 0001:00061ed0       ?setPxSceneLimitsMaxNbStaticShapes@@YAXPAVPxSceneLimits@physx@@I@Z 10062ed0 f i PxAutoGeneratedMetaDataObjects.obj
 0001:00061ee0       ?setPxSceneUserData@@YAXPAVPxScene@physx@@PAX@Z 10062ee0 f i PxAutoGeneratedMetaDataObjects.obj
 0001:00061ef0       ?setPxShapeUserData@@YAXPAVPxShape@physx@@PAX@Z 10062ef0 f i PxAutoGeneratedMetaDataObjects.obj
 0001:00061f00       ?setPxSimulationStatisticsCompressedContactSize@@YAXPAVPxSimulationStatistics@physx@@I@Z 10062f00 f i PxAutoGeneratedMetaDataObjects.obj
 0001:00061f10       ?setPxSimulationStatisticsNbActiveConstraints@@YAXPAVPxSimulationStatistics@physx@@I@Z 10062f10 f i PxAutoGeneratedMetaDataObjects.obj
 0001:00061f20       ?setPxSimulationStatisticsNbActiveDynamicBodies@@YAXPAVPxSimulationStatistics@physx@@I@Z 10062f20 f i PxAutoGeneratedMetaDataObjects.obj
 0001:00061f30       ?setPxSimulationStatisticsNbActiveKinematicBodies@@YAXPAVPxSimulationStatistics@physx@@I@Z 10062f30 f i PxAutoGeneratedMetaDataObjects.obj
 0001:00061f40       ?setPxSimulationStatisticsNbAggregates@@YAXPAVPxSimulationStatistics@physx@@I@Z 10062f40 f i PxAutoGeneratedMetaDataObjects.obj
 0001:00061f50       ?setPxSimulationStatisticsNbArticulations@@YAXPAVPxSimulationStatistics@physx@@I@Z 10062f50 f i PxAutoGeneratedMetaDataObjects.obj
 0001:00061f60       ?setPxSimulationStatisticsNbAxisSolverConstraints@@YAXPAVPxSimulationStatistics@physx@@I@Z 10062f60 f i PxAutoGeneratedMetaDataObjects.obj
 0001:00061f70       ?setPxSimulationStatisticsNbDiscreteContactPairsTotal@@YAXPAVPxSimulationStatistics@physx@@I@Z 10062f70 f i PxAutoGeneratedMetaDataObjects.obj
 0001:00061f80       ?setPxSimulationStatisticsNbDiscreteContactPairsWithCacheHits@@YAXPAVPxSimulationStatistics@physx@@I@Z 10062f80 f i PxAutoGeneratedMetaDataObjects.obj
 0001:00061f90       ?setPxSimulationStatisticsNbDiscreteContactPairsWithContacts@@YAXPAVPxSimulationStatistics@physx@@I@Z 10062f90 f i PxAutoGeneratedMetaDataObjects.obj
 0001:00061fa0       ?setPxSimulationStatisticsNbDynamicBodies@@YAXPAVPxSimulationStatistics@physx@@I@Z 10062fa0 f i PxAutoGeneratedMetaDataObjects.obj
 0001:00061fb0       ?setPxSimulationStatisticsNbLostPairs@@YAXPAVPxSimulationStatistics@physx@@I@Z 10062fb0 f i PxAutoGeneratedMetaDataObjects.obj
 0001:00061fc0       ?setPxSimulationStatisticsNbLostTouches@@YAXPAVPxSimulationStatistics@physx@@I@Z 10062fc0 f i PxAutoGeneratedMetaDataObjects.obj
 0001:00061fd0       ?setPxSimulationStatisticsNbNewPairs@@YAXPAVPxSimulationStatistics@physx@@I@Z 10062fd0 f i PxAutoGeneratedMetaDataObjects.obj
 0001:00061fe0       ?setPxSimulationStatisticsNbNewTouches@@YAXPAVPxSimulationStatistics@physx@@I@Z 10062fe0 f i PxAutoGeneratedMetaDataObjects.obj
 0001:00061ff0       ?setPxSimulationStatisticsNbPartitions@@YAXPAVPxSimulationStatistics@physx@@I@Z 10062ff0 f i PxAutoGeneratedMetaDataObjects.obj
 0001:00062000       ?setPxSimulationStatisticsNbStaticBodies@@YAXPAVPxSimulationStatistics@physx@@I@Z 10063000 f i PxAutoGeneratedMetaDataObjects.obj
 0001:00062010       ?setPxSimulationStatisticsParticlesGpuMeshCacheHitrate@@YAXPAVPxSimulationStatistics@physx@@M@Z 10063010 f i PxAutoGeneratedMetaDataObjects.obj
 0001:00062030       ?setPxSimulationStatisticsParticlesGpuMeshCacheSize@@YAXPAVPxSimulationStatistics@physx@@I@Z 10063030 f i PxAutoGeneratedMetaDataObjects.obj
 0001:00062050       ?setPxSimulationStatisticsParticlesGpuMeshCacheUsed@@YAXPAVPxSimulationStatistics@physx@@I@Z 10063050 f i PxAutoGeneratedMetaDataObjects.obj
 0001:00062070       ?setPxSimulationStatisticsPeakConstraintMemory@@YAXPAVPxSimulationStatistics@physx@@I@Z 10063070 f i PxAutoGeneratedMetaDataObjects.obj
 0001:00062080       ?setPxSimulationStatisticsRequiredContactConstraintMemory@@YAXPAVPxSimulationStatistics@physx@@I@Z 10063080 f i PxAutoGeneratedMetaDataObjects.obj
 0001:00062090       ?setPxSphereGeometryRadius@@YAXPAVPxSphereGeometry@physx@@M@Z 10063090 f i PxAutoGeneratedMetaDataObjects.obj
 0001:000620b0       ?setPxTolerancesScaleLength@@YAXPAVPxTolerancesScale@physx@@M@Z 100630b0 f i PxAutoGeneratedMetaDataObjects.obj
 0001:000620d0       ?setPxTolerancesScaleMass@@YAXPAVPxTolerancesScale@physx@@M@Z 100630d0 f i PxAutoGeneratedMetaDataObjects.obj
 0001:000620f0       ?setPxTolerancesScaleSpeed@@YAXPAVPxTolerancesScale@physx@@M@Z 100630f0 f i PxAutoGeneratedMetaDataObjects.obj
 0001:00062110       ?setPxTriangleMeshGeometryMeshFlags@@YAXPAVPxTriangleMeshGeometry@physx@@V?$PxFlags@W4Enum@PxMeshGeometryFlag@physx@@E@2@@Z 10063110 f i PxAutoGeneratedMetaDataObjects.obj
 0001:00062120       ?setPxTriangleMeshGeometryScale@@YAXPAVPxTriangleMeshGeometry@physx@@VPxMeshScale@2@@Z 10063120 f i PxAutoGeneratedMetaDataObjects.obj
 0001:00062150       ?setPxTriangleMeshGeometryTriangleMesh@@YAXPAVPxTriangleMeshGeometry@physx@@PAVPxTriangleMesh@2@@Z 10063150 f i PxAutoGeneratedMetaDataObjects.obj
 0001:00062160       ?setPxgDynamicsMemoryConfigConstraintBufferCapacity@@YAXPAUPxgDynamicsMemoryConfig@physx@@I@Z 10063160 f i PxAutoGeneratedMetaDataObjects.obj
 0001:00062170       ?setPxgDynamicsMemoryConfigContactBufferCapacity@@YAXPAUPxgDynamicsMemoryConfig@physx@@I@Z 10063170 f i PxAutoGeneratedMetaDataObjects.obj
 0001:00062180       ?setPxgDynamicsMemoryConfigContactStreamSize@@YAXPAUPxgDynamicsMemoryConfig@physx@@I@Z 10063180 f i PxAutoGeneratedMetaDataObjects.obj
 0001:00062190       ?setPxgDynamicsMemoryConfigForceStreamCapacity@@YAXPAUPxgDynamicsMemoryConfig@physx@@I@Z 10063190 f i PxAutoGeneratedMetaDataObjects.obj
 0001:000621a0       ?setPxgDynamicsMemoryConfigFoundLostPairsCapacity@@YAXPAUPxgDynamicsMemoryConfig@physx@@I@Z 100631a0 f i PxAutoGeneratedMetaDataObjects.obj
 0001:000621b0       ?setPxgDynamicsMemoryConfigHeapCapacity@@YAXPAUPxgDynamicsMemoryConfig@physx@@I@Z 100631b0 f i PxAutoGeneratedMetaDataObjects.obj
 0001:000621c0       ?setPxgDynamicsMemoryConfigPatchStreamSize@@YAXPAUPxgDynamicsMemoryConfig@physx@@I@Z 100631c0 f i PxAutoGeneratedMetaDataObjects.obj
 0001:000621d0       ?setPxgDynamicsMemoryConfigTempBufferCapacity@@YAXPAUPxgDynamicsMemoryConfig@physx@@I@Z 100631d0 f i PxAutoGeneratedMetaDataObjects.obj
 0001:000621e0       ?getGeometryType@PxShapeGeometryPropertyHelper@physx@@QBE?AW4Enum@PxGeometryType@2@PBVPxShape@2@@Z 100631e0 f   PxMetaDataObjects.obj
 0001:000621f0       ?getGeometry@PxShapeGeometryPropertyHelper@physx@@QBE_NPBVPxShape@2@AAVPxBoxGeometry@2@@Z 100631f0 f   PxMetaDataObjects.obj
 0001:00062210       ?getGeometry@PxShapeGeometryPropertyHelper@physx@@QBE_NPBVPxShape@2@AAVPxSphereGeometry@2@@Z 10063210 f   PxMetaDataObjects.obj
 0001:00062230       ?getGeometry@PxShapeGeometryPropertyHelper@physx@@QBE_NPBVPxShape@2@AAVPxCapsuleGeometry@2@@Z 10063230 f   PxMetaDataObjects.obj
 0001:00062250       ?getGeometry@PxShapeGeometryPropertyHelper@physx@@QBE_NPBVPxShape@2@AAVPxPlaneGeometry@2@@Z 10063250 f   PxMetaDataObjects.obj
 0001:00062270       ?getGeometry@PxShapeGeometryPropertyHelper@physx@@QBE_NPBVPxShape@2@AAVPxConvexMeshGeometry@2@@Z 10063270 f   PxMetaDataObjects.obj
 0001:00062290       ?getGeometry@PxShapeGeometryPropertyHelper@physx@@QBE_NPBVPxShape@2@AAVPxTriangleMeshGeometry@2@@Z 10063290 f   PxMetaDataObjects.obj
 0001:000622b0       ?getGeometry@PxShapeGeometryPropertyHelper@physx@@QBE_NPBVPxShape@2@AAVPxHeightFieldGeometry@2@@Z 100632b0 f   PxMetaDataObjects.obj
 0001:000622d0       ?setMaterials@PxShapeMaterialsPropertyHelper@physx@@QBEXPAVPxShape@2@PBQAVPxMaterial@2@G@Z 100632d0 f   PxMetaDataObjects.obj
 0001:000622f0       ?createShape@PxRigidActorShapeCollectionHelper@physx@@QBEPAVPxShape@2@PAVPxRigidActor@2@ABVPxGeometry@2@AAVPxMaterial@2@V?$PxFlags@W4Enum@PxShapeFlag@physx@@E@2@@Z 100632f0 f   PxMetaDataObjects.obj
 0001:00062340       ?createShape@PxRigidActorShapeCollectionHelper@physx@@QBEPAVPxShape@2@PAVPxRigidActor@2@ABVPxGeometry@2@PBQAVPxMaterial@2@GV?$PxFlags@W4Enum@PxShapeFlag@physx@@E@2@@Z 10063340 f   PxMetaDataObjects.obj
 0001:00062390       ?createLink@PxArticulationLinkCollectionPropHelper@physx@@QBEPAVPxArticulationLink@2@PAVPxArticulation@2@PAV32@ABVPxTransform@2@@Z 10063390 f   PxMetaDataObjects.obj
 0001:000623b0       ??0RestvaluesProperty@physx@@QAE@XZ 100633b0 f   PxMetaDataObjects.obj
 0001:000623d0       ??0NbBroadPhaseAddsProperty@physx@@QAE@XZ 100633d0 f   PxMetaDataObjects.obj
 0001:000623f0       ??0NbBroadPhaseRemovesProperty@physx@@QAE@XZ 100633f0 f   PxMetaDataObjects.obj
 0001:00062410       ??0NbShapesProperty@physx@@QAE@XZ 10063410 f   PxMetaDataObjects.obj
 0001:00062430       ??0NbDiscreteContactPairsProperty@physx@@QAE@XZ 10063430 f   PxMetaDataObjects.obj
 0001:00062450       ??0NbModifiedContactPairsProperty@physx@@QAE@XZ 10063450 f   PxMetaDataObjects.obj
 0001:00062470       ??0NbCCDPairsProperty@physx@@QAE@XZ 10063470 f   PxMetaDataObjects.obj
 0001:00062490       ??0NbTriggerPairsProperty@physx@@QAE@XZ 10063490 f   PxMetaDataObjects.obj
 0001:000624b0       ??0SimulationStatisticsProperty@physx@@QAE@XZ 100634b0 f   PxMetaDataObjects.obj
 0001:000624d0       ??0ProjectionPlaneProperty@physx@@QAE@XZ 100634d0 f   PxMetaDataObjects.obj
 0001:000624f0       ?GetNbBroadPhaseAdd@@YAIPBVPxSimulationStatistics@physx@@W4VolumeType@12@@Z 100634f0 f i PxMetaDataObjects.obj
 0001:00062500       ?GetNbBroadPhaseRemove@@YAIPBVPxSimulationStatistics@physx@@W4VolumeType@12@@Z 10063500 f i PxMetaDataObjects.obj
 0001:00062510       ?GetNbCCDPairs@@YAIPBVPxSimulationStatistics@physx@@W4Enum@PxGeometryType@2@1@Z 10063510 f i PxMetaDataObjects.obj
 0001:00062530       ?GetNbDiscreteContactPairs@@YAIPBVPxSimulationStatistics@physx@@W4Enum@PxGeometryType@2@1@Z 10063530 f i PxMetaDataObjects.obj
 0001:00062550       ?GetNbModifiedContactPairs@@YAIPBVPxSimulationStatistics@physx@@W4Enum@PxGeometryType@2@1@Z 10063550 f i PxMetaDataObjects.obj
 0001:00062570       ?GetNbPxClothFabric_Restvalues@@YAIPBVPxClothFabric@physx@@@Z 10063570 f i PxMetaDataObjects.obj
 0001:00062580       ?GetNbShape@@YAIPBVPxSimulationStatistics@physx@@W4Enum@PxGeometryType@2@@Z 10063580 f i PxMetaDataObjects.obj
 0001:00062590       ?GetNbTriggerPairs@@YAIPBVPxSimulationStatistics@physx@@W4Enum@PxGeometryType@2@1@Z 10063590 f i PxMetaDataObjects.obj
 0001:000625b0       ?GetProjectionPlane@@YA?AUPxMetaDataPlane@physx@@PBVPxParticleBase@2@@Z 100635b0 f i PxMetaDataObjects.obj
 0001:000625f0       ?GetPxClothFabric_Restvalues@@YAIPBVPxClothFabric@physx@@PAMI@Z 100635f0 f i PxMetaDataObjects.obj
 0001:00062610       ?GetStats@@YA?AVPxSimulationStatistics@physx@@PBVPxScene@2@@Z 10063610 f i PxMetaDataObjects.obj
 0001:00062630       ?SetNbBroadPhaseAdd@@YAXPAVPxSimulationStatistics@physx@@W4VolumeType@12@I@Z 10063630 f i PxMetaDataObjects.obj
 0001:00062650       ?SetNbBroadPhaseRemove@@YAXPAVPxSimulationStatistics@physx@@W4VolumeType@12@I@Z 10063650 f i PxMetaDataObjects.obj
 0001:00062670       ?SetNbCCDPairs@@YAXPAVPxSimulationStatistics@physx@@W4Enum@PxGeometryType@2@1I@Z 10063670 f i PxMetaDataObjects.obj
 0001:000626a0       ?SetNbDiscreteContactPairs@@YAXPAVPxSimulationStatistics@physx@@W4Enum@PxGeometryType@2@1I@Z 100636a0 f i PxMetaDataObjects.obj
 0001:000626d0       ?SetNbModifiedContactPairs@@YAXPAVPxSimulationStatistics@physx@@W4Enum@PxGeometryType@2@1I@Z 100636d0 f i PxMetaDataObjects.obj
 0001:00062700       ?SetNbShape@@YAXPAVPxSimulationStatistics@physx@@W4Enum@PxGeometryType@2@I@Z 10063700 f i PxMetaDataObjects.obj
 0001:00062720       ?SetNbTriggerPairs@@YAXPAVPxSimulationStatistics@physx@@W4Enum@PxGeometryType@2@1I@Z 10063720 f i PxMetaDataObjects.obj
 0001:00062750       ?SetProjectionPlane@@YAXPAVPxParticleBase@physx@@UPxMetaDataPlane@2@@Z 10063750 f i PxMetaDataObjects.obj
 0001:00062770       _LoadLibraryA@4            10063770 f   kernel32:KERNEL32.dll
 0001:00062776       _GetModuleHandleA@4        10063776 f   kernel32:KERNEL32.dll
 0001:0006277c       _GetProcAddress@8          1006377c f   kernel32:KERNEL32.dll
 0001:00062782       _VerSetConditionMask@16    10063782 f   kernel32:KERNEL32.dll
 0001:00062788       _CloseHandle@4             10063788 f   kernel32:KERNEL32.dll
 0001:0006278e       _GetLastError@0            1006378e f   kernel32:KERNEL32.dll
 0001:00062794       _GetCurrentProcessId@0     10063794 f   kernel32:KERNEL32.dll
 0001:0006279a       _MapViewOfFile@20          1006379a f   kernel32:KERNEL32.dll
 0001:000627a0       _UnmapViewOfFile@4         100637a0 f   kernel32:KERNEL32.dll
 0001:000627a6       _CreateFileMappingA@24     100637a6 f   kernel32:KERNEL32.dll
 0001:000627ac       _VerifyVersionInfoW@16     100637ac f   kernel32:KERNEL32.dll
 0001:000627b2       __imp_load__PxGetFoundation 100637b2 f   PxFoundation_x86:PxFoundation_x86.dll
 0001:000627bc       __tailMerge_PxFoundation_x86_dll 100637bc f i PxFoundation_x86:PxFoundation_x86.dll
 0001:000627cd       _PxGetFoundation           100637cd f   PxFoundation_x86:PxFoundation_x86.dll
 0001:000627d3       __imp_load_?getAllocator@shdfnd@physx@@YAAAVPxAllocatorCallback@2@XZ 100637d3 f   PxFoundation_x86:PxFoundation_x86.dll
 0001:000627dd       ?getAllocator@shdfnd@physx@@YAAAVPxAllocatorCallback@2@XZ 100637dd f   PxFoundation_x86:PxFoundation_x86.dll
 0001:000627e3       __imp_load_?getInstance@Foundation@shdfnd@physx@@SAAAV123@XZ 100637e3 f   PxFoundation_x86:PxFoundation_x86.dll
 0001:000627ed       ?getInstance@Foundation@shdfnd@physx@@SAAAV123@XZ 100637ed f   PxFoundation_x86:PxFoundation_x86.dll
 0001:000627f3       __imp_load_?error@Foundation@shdfnd@physx@@QAAXW4Enum@PxErrorCode@3@PBDH1ZZ 100637f3 f   PxFoundation_x86:PxFoundation_x86.dll
 0001:000627fd       ?error@Foundation@shdfnd@physx@@QAAXW4Enum@PxErrorCode@3@PBDH1ZZ 100637fd f   PxFoundation_x86:PxFoundation_x86.dll
 0001:00062803       __imp_load_??0MutexImpl@shdfnd@physx@@QAE@XZ 10063803 f   PxFoundation_x86:PxFoundation_x86.dll
 0001:0006280d       ??0MutexImpl@shdfnd@physx@@QAE@XZ 1006380d f   PxFoundation_x86:PxFoundation_x86.dll
 0001:00062813       __imp_load_??1MutexImpl@shdfnd@physx@@QAE@XZ 10063813 f   PxFoundation_x86:PxFoundation_x86.dll
 0001:0006281d       ??1MutexImpl@shdfnd@physx@@QAE@XZ 1006381d f   PxFoundation_x86:PxFoundation_x86.dll
 0001:00062823       __imp_load_?lock@MutexImpl@shdfnd@physx@@QAEXXZ 10063823 f   PxFoundation_x86:PxFoundation_x86.dll
 0001:0006282d       ?lock@MutexImpl@shdfnd@physx@@QAEXXZ 1006382d f   PxFoundation_x86:PxFoundation_x86.dll
 0001:00062833       __imp_load_?unlock@MutexImpl@shdfnd@physx@@QAEXXZ 10063833 f   PxFoundation_x86:PxFoundation_x86.dll
 0001:0006283d       ?unlock@MutexImpl@shdfnd@physx@@QAEXXZ 1006383d f   PxFoundation_x86:PxFoundation_x86.dll
 0001:00062843       __imp_load_?getSize@MutexImpl@shdfnd@physx@@SAABIXZ 10063843 f   PxFoundation_x86:PxFoundation_x86.dll
 0001:0006284d       ?getSize@MutexImpl@shdfnd@physx@@SAABIXZ 1006384d f   PxFoundation_x86:PxFoundation_x86.dll
 0001:00062853       __imp_load_?allocate@TempAllocator@shdfnd@physx@@QAEPAXIPBDH@Z 10063853 f   PxFoundation_x86:PxFoundation_x86.dll
 0001:0006285d       ?allocate@TempAllocator@shdfnd@physx@@QAEPAXIPBDH@Z 1006385d f   PxFoundation_x86:PxFoundation_x86.dll
 0001:00062863       __imp_load_?deallocate@TempAllocator@shdfnd@physx@@QAEXPAX@Z 10063863 f   PxFoundation_x86:PxFoundation_x86.dll
 0001:0006286d       ?deallocate@TempAllocator@shdfnd@physx@@QAEXPAX@Z 1006386d f   PxFoundation_x86:PxFoundation_x86.dll
 0001:00062873       __imp_load_?atomicIncrement@shdfnd@physx@@YAHPCH@Z 10063873 f   PxFoundation_x86:PxFoundation_x86.dll
 0001:0006287d       ?atomicIncrement@shdfnd@physx@@YAHPCH@Z 1006387d f   PxFoundation_x86:PxFoundation_x86.dll
 0001:00062883       __imp_load_?atomicDecrement@shdfnd@physx@@YAHPCH@Z 10063883 f   PxFoundation_x86:PxFoundation_x86.dll
 0001:0006288d       ?atomicDecrement@shdfnd@physx@@YAHPCH@Z 1006388d f   PxFoundation_x86:PxFoundation_x86.dll
 0001:00062893       __imp_load_??0SyncImpl@shdfnd@physx@@QAE@XZ 10063893 f   PxFoundation_x86:PxFoundation_x86.dll
 0001:0006289d       ??0SyncImpl@shdfnd@physx@@QAE@XZ 1006389d f   PxFoundation_x86:PxFoundation_x86.dll
 0001:000628a3       __imp_load_??1SyncImpl@shdfnd@physx@@QAE@XZ 100638a3 f   PxFoundation_x86:PxFoundation_x86.dll
 0001:000628ad       ??1SyncImpl@shdfnd@physx@@QAE@XZ 100638ad f   PxFoundation_x86:PxFoundation_x86.dll
 0001:000628b3       __imp_load_?getSize@SyncImpl@shdfnd@physx@@SAABIXZ 100638b3 f   PxFoundation_x86:PxFoundation_x86.dll
 0001:000628bd       ?getSize@SyncImpl@shdfnd@physx@@SAABIXZ 100638bd f   PxFoundation_x86:PxFoundation_x86.dll
 0001:000628c3       __imp_load_?atomicExchange@shdfnd@physx@@YAHPCHH@Z 100638c3 f   PxFoundation_x86:PxFoundation_x86.dll
 0001:000628cd       ?atomicExchange@shdfnd@physx@@YAHPCHH@Z 100638cd f   PxFoundation_x86:PxFoundation_x86.dll
 0001:000628d3       __imp_load_?atomicCompareExchange@shdfnd@physx@@YAHPCHHH@Z 100638d3 f   PxFoundation_x86:PxFoundation_x86.dll
 0001:000628dd       ?atomicCompareExchange@shdfnd@physx@@YAHPCHHH@Z 100638dd f   PxFoundation_x86:PxFoundation_x86.dll
 0001:000628e3       __imp_load_?incRefCount@Foundation@shdfnd@physx@@SAXXZ 100638e3 f   PxFoundation_x86:PxFoundation_x86.dll
 0001:000628ed       ?incRefCount@Foundation@shdfnd@physx@@SAXXZ 100638ed f   PxFoundation_x86:PxFoundation_x86.dll
 0001:000628f3       __imp_load_?decRefCount@Foundation@shdfnd@physx@@SAXXZ 100638f3 f   PxFoundation_x86:PxFoundation_x86.dll
 0001:000628fd       ?decRefCount@Foundation@shdfnd@physx@@SAXXZ 100638fd f   PxFoundation_x86:PxFoundation_x86.dll
 0001:00062903       __imp_load_?snprintf@shdfnd@physx@@YAHPADIPBDZZ 10063903 f   PxFoundation_x86:PxFoundation_x86.dll
 0001:0006290d       ?snprintf@shdfnd@physx@@YAHPADIPBDZZ 1006390d f   PxFoundation_x86:PxFoundation_x86.dll
 0001:00062913       __imp_load_?getId@ThreadImpl@shdfnd@physx@@SAIXZ 10063913 f   PxFoundation_x86:PxFoundation_x86.dll
 0001:0006291d       ?getId@ThreadImpl@shdfnd@physx@@SAIXZ 1006391d f   PxFoundation_x86:PxFoundation_x86.dll
 0001:00062923       __imp_load_?wait@SyncImpl@shdfnd@physx@@QAE_NI@Z 10063923 f   PxFoundation_x86:PxFoundation_x86.dll
 0001:0006292d       ?wait@SyncImpl@shdfnd@physx@@QAE_NI@Z 1006392d f   PxFoundation_x86:PxFoundation_x86.dll
 0001:00062933       __imp_load_?set@SyncImpl@shdfnd@physx@@QAEXXZ 10063933 f   PxFoundation_x86:PxFoundation_x86.dll
 0001:0006293d       ?set@SyncImpl@shdfnd@physx@@QAEXXZ 1006393d f   PxFoundation_x86:PxFoundation_x86.dll
 0001:00062943       __imp_load_?reset@SyncImpl@shdfnd@physx@@QAEXXZ 10063943 f   PxFoundation_x86:PxFoundation_x86.dll
 0001:0006294d       ?reset@SyncImpl@shdfnd@physx@@QAEXXZ 1006394d f   PxFoundation_x86:PxFoundation_x86.dll
 0001:00062953       __imp_load_?TlsAlloc@shdfnd@physx@@YAIXZ 10063953 f   PxFoundation_x86:PxFoundation_x86.dll
 0001:0006295d       ?TlsAlloc@shdfnd@physx@@YAIXZ 1006395d f   PxFoundation_x86:PxFoundation_x86.dll
 0001:00062963       __imp_load_?TlsFree@shdfnd@physx@@YAXI@Z 10063963 f   PxFoundation_x86:PxFoundation_x86.dll
 0001:0006296d       ?TlsFree@shdfnd@physx@@YAXI@Z 1006396d f   PxFoundation_x86:PxFoundation_x86.dll
 0001:00062973       __imp_load_?TlsGet@shdfnd@physx@@YAPAXI@Z 10063973 f   PxFoundation_x86:PxFoundation_x86.dll
 0001:0006297d       ?TlsGet@shdfnd@physx@@YAPAXI@Z 1006397d f   PxFoundation_x86:PxFoundation_x86.dll
 0001:00062983       __imp_load_?TlsSet@shdfnd@physx@@YAIIPAX@Z 10063983 f   PxFoundation_x86:PxFoundation_x86.dll
 0001:0006298d       ?TlsSet@shdfnd@physx@@YAIIPAX@Z 1006398d f   PxFoundation_x86:PxFoundation_x86.dll
 0001:00062993       __imp_load_??0ReadWriteLock@shdfnd@physx@@QAE@XZ 10063993 f   PxFoundation_x86:PxFoundation_x86.dll
 0001:0006299d       ??0ReadWriteLock@shdfnd@physx@@QAE@XZ 1006399d f   PxFoundation_x86:PxFoundation_x86.dll
 0001:000629a3       __imp_load_??1ReadWriteLock@shdfnd@physx@@QAE@XZ 100639a3 f   PxFoundation_x86:PxFoundation_x86.dll
 0001:000629ad       ??1ReadWriteLock@shdfnd@physx@@QAE@XZ 100639ad f   PxFoundation_x86:PxFoundation_x86.dll
 0001:000629b3       __imp_load_?lockReader@ReadWriteLock@shdfnd@physx@@QAEXXZ 100639b3 f   PxFoundation_x86:PxFoundation_x86.dll
 0001:000629bd       ?lockReader@ReadWriteLock@shdfnd@physx@@QAEXXZ 100639bd f   PxFoundation_x86:PxFoundation_x86.dll
 0001:000629c3       __imp_load_?lockWriter@ReadWriteLock@shdfnd@physx@@QAEXXZ 100639c3 f   PxFoundation_x86:PxFoundation_x86.dll
 0001:000629cd       ?lockWriter@ReadWriteLock@shdfnd@physx@@QAEXXZ 100639cd f   PxFoundation_x86:PxFoundation_x86.dll
 0001:000629d3       __imp_load_?unlockReader@ReadWriteLock@shdfnd@physx@@QAEXXZ 100639d3 f   PxFoundation_x86:PxFoundation_x86.dll
 0001:000629dd       ?unlockReader@ReadWriteLock@shdfnd@physx@@QAEXXZ 100639dd f   PxFoundation_x86:PxFoundation_x86.dll
 0001:000629e3       __imp_load_?unlockWriter@ReadWriteLock@shdfnd@physx@@QAEXXZ 100639e3 f   PxFoundation_x86:PxFoundation_x86.dll
 0001:000629ed       ?unlockWriter@ReadWriteLock@shdfnd@physx@@QAEXXZ 100639ed f   PxFoundation_x86:PxFoundation_x86.dll
 0001:000629f3       __imp_load_??0CmModuleUpdateLoader@Cm@physx@@QAE@PBD@Z 100639f3 f   PhysX3Common_x86:PhysX3Common_x86.dll
 0001:000629fd       __tailMerge_PhysX3Common_x86_dll 100639fd f i PhysX3Common_x86:PhysX3Common_x86.dll
 0001:00062a0e       ??0CmModuleUpdateLoader@Cm@physx@@QAE@PBD@Z 10063a0e f   PhysX3Common_x86:PhysX3Common_x86.dll
 0001:00062a14       __imp_load_??1CmModuleUpdateLoader@Cm@physx@@QAE@XZ 10063a14 f   PhysX3Common_x86:PhysX3Common_x86.dll
 0001:00062a1e       ??1CmModuleUpdateLoader@Cm@physx@@QAE@XZ 10063a1e f   PhysX3Common_x86:PhysX3Common_x86.dll
 0001:00062a24       __imp_load_?LoadModule@CmModuleUpdateLoader@Cm@physx@@QAEPAUHINSTANCE__@@PBD0@Z 10063a24 f   PhysX3Common_x86:PhysX3Common_x86.dll
 0001:00062a2e       ?LoadModule@CmModuleUpdateLoader@Cm@physx@@QAEPAUHINSTANCE__@@PBD0@Z 10063a2e f   PhysX3Common_x86:PhysX3Common_x86.dll
 0001:00062a34       __imp_load_??6RenderOutput@Cm@physx@@QAEAAV012@W4Primitive@012@@Z 10063a34 f   PhysX3Common_x86:PhysX3Common_x86.dll
 0001:00062a3e       ??6RenderOutput@Cm@physx@@QAEAAV012@W4Primitive@012@@Z 10063a3e f   PhysX3Common_x86:PhysX3Common_x86.dll
 0001:00062a44       __imp_load_??6RenderOutput@Cm@physx@@QAEAAV012@I@Z 10063a44 f   PhysX3Common_x86:PhysX3Common_x86.dll
 0001:00062a4e       ??6RenderOutput@Cm@physx@@QAEAAV012@I@Z 10063a4e f   PhysX3Common_x86:PhysX3Common_x86.dll
 0001:00062a54       __imp_load_??6RenderOutput@Cm@physx@@QAEAAV012@VPxVec3@2@@Z 10063a54 f   PhysX3Common_x86:PhysX3Common_x86.dll
 0001:00062a5e       ??6RenderOutput@Cm@physx@@QAEAAV012@VPxVec3@2@@Z 10063a5e f   PhysX3Common_x86:PhysX3Common_x86.dll
 0001:00062a64       __imp_load_?set@GeometryUnion@Gu@physx@@QAEXABVPxGeometry@3@@Z 10063a64 f   PhysX3Common_x86:PhysX3Common_x86.dll
 0001:00062a6e       ?set@GeometryUnion@Gu@physx@@QAEXABVPxGeometry@3@@Z 10063a6e f   PhysX3Common_x86:PhysX3Common_x86.dll
 0001:00062a74       __imp_load_??0MultiplePersistentContactManifold@Gu@physx@@QAE@XZ 10063a74 f   PhysX3Common_x86:PhysX3Common_x86.dll
 0001:00062a7e       ??0MultiplePersistentContactManifold@Gu@physx@@QAE@XZ 10063a7e f   PhysX3Common_x86:PhysX3Common_x86.dll
 0001:00062a84       __imp_load_?fromBuffer@MultiplePersistentContactManifold@Gu@physx@@QAEXPIAE@Z 10063a84 f   PhysX3Common_x86:PhysX3Common_x86.dll
 0001:00062a8e       ?fromBuffer@MultiplePersistentContactManifold@Gu@physx@@QAEXPIAE@Z 10063a8e f   PhysX3Common_x86:PhysX3Common_x86.dll
 0001:00062a94       __imp_load_?toBuffer@MultiplePersistentContactManifold@Gu@physx@@QAEXPIAE@Z 10063a94 f   PhysX3Common_x86:PhysX3Common_x86.dll
 0001:00062a9e       ?toBuffer@MultiplePersistentContactManifold@Gu@physx@@QAEXPIAE@Z 10063a9e f   PhysX3Common_x86:PhysX3Common_x86.dll
 0001:00062aa4       __imp_load_??6RenderOutput@Cm@physx@@QAEAAV012@ABVPxMat44@2@@Z 10063aa4 f   PhysX3Common_x86:PhysX3Common_x86.dll
 0001:00062aae       ??6RenderOutput@Cm@physx@@QAEAAV012@ABVPxMat44@2@@Z 10063aae f   PhysX3Common_x86:PhysX3Common_x86.dll
 0001:00062ab4       __imp_load_??6RenderOutput@Cm@physx@@QAEAAV012@ABVPxTransform@2@@Z 10063ab4 f   PhysX3Common_x86:PhysX3Common_x86.dll
 0001:00062abe       ??6RenderOutput@Cm@physx@@QAEAAV012@ABVPxTransform@2@@Z 10063abe f   PhysX3Common_x86:PhysX3Common_x86.dll
 0001:00062ac4       __imp_load_??6Cm@physx@@YAAAVRenderOutput@01@AAV201@ABUDebugBox@01@@Z 10063ac4 f   PhysX3Common_x86:PhysX3Common_x86.dll
 0001:00062ace       ??6Cm@physx@@YAAAVRenderOutput@01@AAV201@ABUDebugBox@01@@Z 10063ace f   PhysX3Common_x86:PhysX3Common_x86.dll
 0001:00062ad4       __imp_load_??6Cm@physx@@YAAAVRenderOutput@01@AAV201@ABUDebugArrow@01@@Z 10063ad4 f   PhysX3Common_x86:PhysX3Common_x86.dll
 0001:00062ade       ??6Cm@physx@@YAAAVRenderOutput@01@AAV201@ABUDebugArrow@01@@Z 10063ade f   PhysX3Common_x86:PhysX3Common_x86.dll
 0001:00062ae4       __imp_load_??6Cm@physx@@YAAAVRenderOutput@01@AAV201@ABUDebugBasis@01@@Z 10063ae4 f   PhysX3Common_x86:PhysX3Common_x86.dll
 0001:00062aee       ??6Cm@physx@@YAAAVRenderOutput@01@AAV201@ABUDebugBasis@01@@Z 10063aee f   PhysX3Common_x86:PhysX3Common_x86.dll
 0001:00062af4       __imp_load_?visualizeJointFrames@Cm@physx@@YAXAAVRenderOutput@12@MABVPxTransform@2@1@Z 10063af4 f   PhysX3Common_x86:PhysX3Common_x86.dll
 0001:00062afe       ?visualizeJointFrames@Cm@physx@@YAXAAVRenderOutput@12@MABVPxTransform@2@1@Z 10063afe f   PhysX3Common_x86:PhysX3Common_x86.dll
 0001:00062b04       __imp_load_?visualizeLinearLimit@Cm@physx@@YAXAAVRenderOutput@12@MABVPxTransform@2@1M_N@Z 10063b04 f   PhysX3Common_x86:PhysX3Common_x86.dll
 0001:00062b0e       ?visualizeLinearLimit@Cm@physx@@YAXAAVRenderOutput@12@MABVPxTransform@2@1M_N@Z 10063b0e f   PhysX3Common_x86:PhysX3Common_x86.dll
 0001:00062b14       __imp_load_?visualizeAngularLimit@Cm@physx@@YAXAAVRenderOutput@12@MABVPxTransform@2@MM_N@Z 10063b14 f   PhysX3Common_x86:PhysX3Common_x86.dll
 0001:00062b1e       ?visualizeAngularLimit@Cm@physx@@YAXAAVRenderOutput@12@MABVPxTransform@2@MM_N@Z 10063b1e f   PhysX3Common_x86:PhysX3Common_x86.dll
 0001:00062b24       __imp_load_?visualizeLimitCone@Cm@physx@@YAXAAVRenderOutput@12@MABVPxTransform@2@MM_N@Z 10063b24 f   PhysX3Common_x86:PhysX3Common_x86.dll
 0001:00062b2e       ?visualizeLimitCone@Cm@physx@@YAXAAVRenderOutput@12@MABVPxTransform@2@MM_N@Z 10063b2e f   PhysX3Common_x86:PhysX3Common_x86.dll
 0001:00062b34       __imp_load_?visualizeDoubleCone@Cm@physx@@YAXAAVRenderOutput@12@MABVPxTransform@2@M_N@Z 10063b34 f   PhysX3Common_x86:PhysX3Common_x86.dll
 0001:00062b3e       ?visualizeDoubleCone@Cm@physx@@YAXAAVRenderOutput@12@MABVPxTransform@2@M_N@Z 10063b3e f   PhysX3Common_x86:PhysX3Common_x86.dll
 0001:00062b44       __imp_load_??0GuMeshFactory@physx@@QAE@XZ 10063b44 f   PhysX3Common_x86:PhysX3Common_x86.dll
 0001:00062b4e       ??0GuMeshFactory@physx@@QAE@XZ 10063b4e f   PhysX3Common_x86:PhysX3Common_x86.dll
 0001:00062b54       __imp_load_??1GuMeshFactory@physx@@MAE@XZ 10063b54 f   PhysX3Common_x86:PhysX3Common_x86.dll
 0001:00062b5e       ??1GuMeshFactory@physx@@MAE@XZ 10063b5e f   PhysX3Common_x86:PhysX3Common_x86.dll
 0001:00062b64       __imp_load_?release@GuMeshFactory@physx@@QAEXXZ 10063b64 f   PhysX3Common_x86:PhysX3Common_x86.dll
 0001:00062b6e       ?release@GuMeshFactory@physx@@QAEXXZ 10063b6e f   PhysX3Common_x86:PhysX3Common_x86.dll
 0001:00062b74       __imp_load_?addTriangleMesh@GuMeshFactory@physx@@QAEXPAVTriangleMesh@Gu@2@_N@Z 10063b74 f   PhysX3Common_x86:PhysX3Common_x86.dll
 0001:00062b7e       ?addTriangleMesh@GuMeshFactory@physx@@QAEXPAVTriangleMesh@Gu@2@_N@Z 10063b7e f   PhysX3Common_x86:PhysX3Common_x86.dll
 0001:00062b84       __imp_load_?addConvexMesh@GuMeshFactory@physx@@QAEXPAVConvexMesh@Gu@2@_N@Z 10063b84 f   PhysX3Common_x86:PhysX3Common_x86.dll
 0001:00062b8e       ?addConvexMesh@GuMeshFactory@physx@@QAEXPAVConvexMesh@Gu@2@_N@Z 10063b8e f   PhysX3Common_x86:PhysX3Common_x86.dll
 0001:00062b94       __imp_load_?addHeightField@GuMeshFactory@physx@@QAEXPAVHeightField@Gu@2@_N@Z 10063b94 f   PhysX3Common_x86:PhysX3Common_x86.dll
 0001:00062b9e       ?addHeightField@GuMeshFactory@physx@@QAEXPAVHeightField@Gu@2@_N@Z 10063b9e f   PhysX3Common_x86:PhysX3Common_x86.dll
 0001:00062ba4       __imp_load_?getBinaryMetaData@TriangleMesh@Gu@physx@@SAXAAVPxOutputStream@3@@Z 10063ba4 f   PhysX3Common_x86:PhysX3Common_x86.dll
 0001:00062bae       ?getBinaryMetaData@TriangleMesh@Gu@physx@@SAXAAVPxOutputStream@3@@Z 10063bae f   PhysX3Common_x86:PhysX3Common_x86.dll
 0001:00062bb4       __imp_load_?getBinaryMetaData@HeightField@Gu@physx@@SAXAAVPxOutputStream@3@@Z 10063bb4 f   PhysX3Common_x86:PhysX3Common_x86.dll
 0001:00062bbe       ?getBinaryMetaData@HeightField@Gu@physx@@SAXAAVPxOutputStream@3@@Z 10063bbe f   PhysX3Common_x86:PhysX3Common_x86.dll
 0001:00062bc4       __imp_load_?getBinaryMetaData@ConvexMesh@Gu@physx@@SAXAAVPxOutputStream@3@@Z 10063bc4 f   PhysX3Common_x86:PhysX3Common_x86.dll
 0001:00062bce       ?getBinaryMetaData@ConvexMesh@Gu@physx@@SAXAAVPxOutputStream@3@@Z 10063bce f   PhysX3Common_x86:PhysX3Common_x86.dll
 0001:00062bd4       __imp_load_?getBinaryMetaData@MaterialIndicesStruct@physx@@SAXAAVPxOutputStream@2@@Z 10063bd4 f   PhysX3Common_x86:PhysX3Common_x86.dll
 0001:00062bde       ?getBinaryMetaData@MaterialIndicesStruct@physx@@SAXAAVPxOutputStream@2@@Z 10063bde f   PhysX3Common_x86:PhysX3Common_x86.dll
 0001:00062be4       __imp_load_?getBinaryMetaData@GeometryUnion@Gu@physx@@SAXAAVPxOutputStream@3@@Z 10063be4 f   PhysX3Common_x86:PhysX3Common_x86.dll
 0001:00062bee       ?getBinaryMetaData@GeometryUnion@Gu@physx@@SAXAAVPxOutputStream@3@@Z 10063bee f   PhysX3Common_x86:PhysX3Common_x86.dll
 0001:00062bf4       __imp_load_?getBinaryMetaData@PtrTable@Cm@physx@@SAXAAVPxOutputStream@3@@Z 10063bf4 f   PhysX3Common_x86:PhysX3Common_x86.dll
 0001:00062bfe       ?getBinaryMetaData@PtrTable@Cm@physx@@SAXAAVPxOutputStream@3@@Z 10063bfe f   PhysX3Common_x86:PhysX3Common_x86.dll
 0001:00062c04       __imp_load_?getBinaryMetaData@BV4TriangleMesh@Gu@physx@@SAXAAVPxOutputStream@3@@Z 10063c04 f   PhysX3Common_x86:PhysX3Common_x86.dll
 0001:00062c0e       ?getBinaryMetaData@BV4TriangleMesh@Gu@physx@@SAXAAVPxOutputStream@3@@Z 10063c0e f   PhysX3Common_x86:PhysX3Common_x86.dll
 0001:00062c14       __imp_load_?getBinaryMetaData@RTreeTriangleMesh@Gu@physx@@SAXAAVPxOutputStream@3@@Z 10063c14 f   PhysX3Common_x86:PhysX3Common_x86.dll
 0001:00062c1e       ?getBinaryMetaData@RTreeTriangleMesh@Gu@physx@@SAXAAVPxOutputStream@3@@Z 10063c1e f   PhysX3Common_x86:PhysX3Common_x86.dll
 0001:00062c24       __imp_load_?createTriangleMesh@GuMeshFactory@physx@@QAEPAVPxTriangleMesh@2@AAVPxInputStream@2@@Z 10063c24 f   PhysX3Common_x86:PhysX3Common_x86.dll
 0001:00062c2e       ?createTriangleMesh@GuMeshFactory@physx@@QAEPAVPxTriangleMesh@2@AAVPxInputStream@2@@Z 10063c2e f   PhysX3Common_x86:PhysX3Common_x86.dll
 0001:00062c34       __imp_load_?createTriangleMesh@GuMeshFactory@physx@@QAEPAVPxTriangleMesh@2@PAX@Z 10063c34 f   PhysX3Common_x86:PhysX3Common_x86.dll
 0001:00062c3e       ?createTriangleMesh@GuMeshFactory@physx@@QAEPAVPxTriangleMesh@2@PAX@Z 10063c3e f   PhysX3Common_x86:PhysX3Common_x86.dll
 0001:00062c44       __imp_load_?getNbTriangleMeshes@GuMeshFactory@physx@@QBEIXZ 10063c44 f   PhysX3Common_x86:PhysX3Common_x86.dll
 0001:00062c4e       ?getNbTriangleMeshes@GuMeshFactory@physx@@QBEIXZ 10063c4e f   PhysX3Common_x86:PhysX3Common_x86.dll
 0001:00062c54       __imp_load_?getTriangleMeshes@GuMeshFactory@physx@@QBEIPAPAVPxTriangleMesh@2@II@Z 10063c54 f   PhysX3Common_x86:PhysX3Common_x86.dll
 0001:00062c5e       ?getTriangleMeshes@GuMeshFactory@physx@@QBEIPAPAVPxTriangleMesh@2@II@Z 10063c5e f   PhysX3Common_x86:PhysX3Common_x86.dll
 0001:00062c64       __imp_load_?createConvexMesh@GuMeshFactory@physx@@QAEPAVPxConvexMesh@2@AAVPxInputStream@2@@Z 10063c64 f   PhysX3Common_x86:PhysX3Common_x86.dll
 0001:00062c6e       ?createConvexMesh@GuMeshFactory@physx@@QAEPAVPxConvexMesh@2@AAVPxInputStream@2@@Z 10063c6e f   PhysX3Common_x86:PhysX3Common_x86.dll
 0001:00062c74       __imp_load_?createConvexMesh@GuMeshFactory@physx@@QAEPAVPxConvexMesh@2@PAX@Z 10063c74 f   PhysX3Common_x86:PhysX3Common_x86.dll
 0001:00062c7e       ?createConvexMesh@GuMeshFactory@physx@@QAEPAVPxConvexMesh@2@PAX@Z 10063c7e f   PhysX3Common_x86:PhysX3Common_x86.dll
 0001:00062c84       __imp_load_?getNbConvexMeshes@GuMeshFactory@physx@@QBEIXZ 10063c84 f   PhysX3Common_x86:PhysX3Common_x86.dll
 0001:00062c8e       ?getNbConvexMeshes@GuMeshFactory@physx@@QBEIXZ 10063c8e f   PhysX3Common_x86:PhysX3Common_x86.dll
 0001:00062c94       __imp_load_?getConvexMeshes@GuMeshFactory@physx@@QBEIPAPAVPxConvexMesh@2@II@Z 10063c94 f   PhysX3Common_x86:PhysX3Common_x86.dll
 0001:00062c9e       ?getConvexMeshes@GuMeshFactory@physx@@QBEIPAPAVPxConvexMesh@2@II@Z 10063c9e f   PhysX3Common_x86:PhysX3Common_x86.dll
 0001:00062ca4       __imp_load_?createHeightField@GuMeshFactory@physx@@QAEPAVPxHeightField@2@PAX@Z 10063ca4 f   PhysX3Common_x86:PhysX3Common_x86.dll
 0001:00062cae       ?createHeightField@GuMeshFactory@physx@@QAEPAVPxHeightField@2@PAX@Z 10063cae f   PhysX3Common_x86:PhysX3Common_x86.dll
 0001:00062cb4       __imp_load_?createHeightField@GuMeshFactory@physx@@QAEPAVPxHeightField@2@AAVPxInputStream@2@@Z 10063cb4 f   PhysX3Common_x86:PhysX3Common_x86.dll
 0001:00062cbe       ?createHeightField@GuMeshFactory@physx@@QAEPAVPxHeightField@2@AAVPxInputStream@2@@Z 10063cbe f   PhysX3Common_x86:PhysX3Common_x86.dll
 0001:00062cc4       __imp_load_?getNbHeightFields@GuMeshFactory@physx@@QBEIXZ 10063cc4 f   PhysX3Common_x86:PhysX3Common_x86.dll
 0001:00062cce       ?getNbHeightFields@GuMeshFactory@physx@@QBEIXZ 10063cce f   PhysX3Common_x86:PhysX3Common_x86.dll
 0001:00062cd4       __imp_load_?getHeightFields@GuMeshFactory@physx@@QBEIPAPAVPxHeightField@2@II@Z 10063cd4 f   PhysX3Common_x86:PhysX3Common_x86.dll
 0001:00062cde       ?getHeightFields@GuMeshFactory@physx@@QBEIPAPAVPxHeightField@2@II@Z 10063cde f   PhysX3Common_x86:PhysX3Common_x86.dll
 0001:00062ce4       __imp_load_?addFactoryListener@GuMeshFactory@physx@@QAEXAAVGuMeshFactoryListener@2@@Z 10063ce4 f   PhysX3Common_x86:PhysX3Common_x86.dll
 0001:00062cee       ?addFactoryListener@GuMeshFactory@physx@@QAEXAAVGuMeshFactoryListener@2@@Z 10063cee f   PhysX3Common_x86:PhysX3Common_x86.dll
 0001:00062cf4       __imp_load_?registerHeightFields@Gu@physx@@YAXXZ 10063cf4 f   PhysX3Common_x86:PhysX3Common_x86.dll
 0001:00062cfe       ?registerHeightFields@Gu@physx@@YAXXZ 10063cfe f   PhysX3Common_x86:PhysX3Common_x86.dll
 0001:00062d04       __imp_load_??0RenderOutput@Cm@physx@@QAE@AAVRenderBuffer@12@@Z 10063d04 f   PhysX3Common_x86:PhysX3Common_x86.dll
 0001:00062d0e       ??0RenderOutput@Cm@physx@@QAE@AAVRenderBuffer@12@@Z 10063d0e f   PhysX3Common_x86:PhysX3Common_x86.dll
 0001:00062d14       __imp_load_?getRaycastFuncTable@Gu@physx@@YAAAY06Q6AIABVPxGeometry@2@ABVPxTransform@2@ABVPxVec3@2@2MV?$PxFlags@W4Enum@PxHitFlag@physx@@G@2@IPIAUPxRaycastHit@2@@ZXZ 10063d14 f   PhysX3Common_x86:PhysX3Common_x86.dll
 0001:00062d1e       ?getRaycastFuncTable@Gu@physx@@YAAAY06Q6AIABVPxGeometry@2@ABVPxTransform@2@ABVPxVec3@2@2MV?$PxFlags@W4Enum@PxHitFlag@physx@@G@2@IPIAUPxRaycastHit@2@@ZXZ 10063d1e f   PhysX3Common_x86:PhysX3Common_x86.dll
 0001:00062d24       __imp_load_?getSweepFuncTable@Gu@physx@@YAABUGeomSweepFuncs@12@XZ 10063d24 f   PhysX3Common_x86:PhysX3Common_x86.dll
 0001:00062d2e       ?getSweepFuncTable@Gu@physx@@YAABUGeomSweepFuncs@12@XZ 10063d2e f   PhysX3Common_x86:PhysX3Common_x86.dll
 0001:00062d34       __imp_load_?getOverlapFuncTable@Gu@physx@@YAPAY06Q6A_NABVPxGeometry@2@ABVPxTransform@2@01PAUTriggerCache@12@@ZXZ 10063d34 f   PhysX3Common_x86:PhysX3Common_x86.dll
 0001:00062d3e       ?getOverlapFuncTable@Gu@physx@@YAPAY06Q6A_NABVPxGeometry@2@ABVPxTransform@2@01PAUTriggerCache@12@@ZXZ 10063d3e f   PhysX3Common_x86:PhysX3Common_x86.dll
 0001:00062d44       __imp_load_?intersectRayAABB2@Gu@physx@@YA_NABVPxVec3@2@000MAAM1@Z 10063d44 f   PhysX3Common_x86:PhysX3Common_x86.dll
 0001:00062d4e       ?intersectRayAABB2@Gu@physx@@YA_NABVPxVec3@2@000MAAM1@Z 10063d4e f   PhysX3Common_x86:PhysX3Common_x86.dll
 0001:00062d54       __imp_load_?computeBounds@Gu@physx@@YAXAAVPxBounds3@2@ABVPxGeometry@2@ABVPxTransform@2@MPIBVCenterExtentsPadded@12@M_N@Z 10063d54 f   PhysX3Common_x86:PhysX3Common_x86.dll
 0001:00062d5e       ?computeBounds@Gu@physx@@YAXAAVPxBounds3@2@ABVPxGeometry@2@ABVPxTransform@2@MPIBVCenterExtentsPadded@12@M_N@Z 10063d5e f   PhysX3Common_x86:PhysX3Common_x86.dll
 0001:00062d64       __imp_load_??0ShapeData@Gu@physx@@QAE@ABVPxGeometry@2@ABVPxTransform@2@M@Z 10063d64 f   PhysX3Common_x86:PhysX3Common_x86.dll
 0001:00062d6e       ??0ShapeData@Gu@physx@@QAE@ABVPxGeometry@2@ABVPxTransform@2@M@Z 10063d6e f   PhysX3Common_x86:PhysX3Common_x86.dll
 0001:00062d74       __imp_load_?createObject@HeightField@Gu@physx@@SAPAV123@AAPAEAAVPxDeserializationContext@3@@Z 10063d74 f   PhysX3Common_x86:PhysX3Common_x86.dll
 0001:00062d7e       ?createObject@HeightField@Gu@physx@@SAPAV123@AAPAEAAVPxDeserializationContext@3@@Z 10063d7e f   PhysX3Common_x86:PhysX3Common_x86.dll
 0001:00062d84       __imp_load_?createObject@ConvexMesh@Gu@physx@@SAPAV123@AAPAEAAVPxDeserializationContext@3@@Z 10063d84 f   PhysX3Common_x86:PhysX3Common_x86.dll
 0001:00062d8e       ?createObject@ConvexMesh@Gu@physx@@SAPAV123@AAPAEAAVPxDeserializationContext@3@@Z 10063d8e f   PhysX3Common_x86:PhysX3Common_x86.dll
 0001:00062d94       __imp_load_?createObject@BV4TriangleMesh@Gu@physx@@SAPAVTriangleMesh@23@AAPAEAAVPxDeserializationContext@3@@Z 10063d94 f   PhysX3Common_x86:PhysX3Common_x86.dll
 0001:00062d9e       ?createObject@BV4TriangleMesh@Gu@physx@@SAPAVTriangleMesh@23@AAPAEAAVPxDeserializationContext@3@@Z 10063d9e f   PhysX3Common_x86:PhysX3Common_x86.dll
 0001:00062da4       __imp_load_?createObject@RTreeTriangleMesh@Gu@physx@@SAPAVTriangleMesh@23@AAPAEAAVPxDeserializationContext@3@@Z 10063da4 f   PhysX3Common_x86:PhysX3Common_x86.dll
 0001:00062dae       ?createObject@RTreeTriangleMesh@Gu@physx@@SAPAVTriangleMesh@23@AAPAEAAVPxDeserializationContext@3@@Z 10063dae f   PhysX3Common_x86:PhysX3Common_x86.dll
 0001:00062db4       __imp_load_?outputCapsule@RenderOutput@Cm@physx@@QAEAAV123@MMABVPxMat44@3@@Z 10063db4 f   PhysX3Common_x86:PhysX3Common_x86.dll
 0001:00062dbe       ?outputCapsule@RenderOutput@Cm@physx@@QAEAAV123@MMABVPxMat44@3@@Z 10063dbe f   PhysX3Common_x86:PhysX3Common_x86.dll
 0001:00062dc4       __imp_load_??6Cm@physx@@YAAAVRenderOutput@01@AAV201@ABUDebugCircle@01@@Z 10063dc4 f   PhysX3Common_x86:PhysX3Common_x86.dll
 0001:00062dce       ??6Cm@physx@@YAAAVRenderOutput@01@AAV201@ABUDebugCircle@01@@Z 10063dce f   PhysX3Common_x86:PhysX3Common_x86.dll
 0001:00062dd4       __imp_load_??0PtrTable@Cm@physx@@QAE@XZ 10063dd4 f   PhysX3Common_x86:PhysX3Common_x86.dll
 0001:00062dde       ??0PtrTable@Cm@physx@@QAE@XZ 10063dde f   PhysX3Common_x86:PhysX3Common_x86.dll
 0001:00062de4       __imp_load_??1PtrTable@Cm@physx@@QAE@XZ 10063de4 f   PhysX3Common_x86:PhysX3Common_x86.dll
 0001:00062dee       ??1PtrTable@Cm@physx@@QAE@XZ 10063dee f   PhysX3Common_x86:PhysX3Common_x86.dll
 0001:00062df4       __imp_load_?add@PtrTable@Cm@physx@@QAEXPAXAAVPtrTableStorageManager@23@@Z 10063df4 f   PhysX3Common_x86:PhysX3Common_x86.dll
 0001:00062dfe       ?add@PtrTable@Cm@physx@@QAEXPAXAAVPtrTableStorageManager@23@@Z 10063dfe f   PhysX3Common_x86:PhysX3Common_x86.dll
 0001:00062e04       __imp_load_?replaceWithLast@PtrTable@Cm@physx@@QAEXIAAVPtrTableStorageManager@23@@Z 10063e04 f   PhysX3Common_x86:PhysX3Common_x86.dll
 0001:00062e0e       ?replaceWithLast@PtrTable@Cm@physx@@QAEXIAAVPtrTableStorageManager@23@@Z 10063e0e f   PhysX3Common_x86:PhysX3Common_x86.dll
 0001:00062e14       __imp_load_?clear@PtrTable@Cm@physx@@QAEXAAVPtrTableStorageManager@23@@Z 10063e14 f   PhysX3Common_x86:PhysX3Common_x86.dll
 0001:00062e1e       ?clear@PtrTable@Cm@physx@@QAEXAAVPtrTableStorageManager@23@@Z 10063e1e f   PhysX3Common_x86:PhysX3Common_x86.dll
 0001:00062e24       __imp_load_?find@PtrTable@Cm@physx@@QBEIPBX@Z 10063e24 f   PhysX3Common_x86:PhysX3Common_x86.dll
 0001:00062e2e       ?find@PtrTable@Cm@physx@@QBEIPBX@Z 10063e2e f   PhysX3Common_x86:PhysX3Common_x86.dll
 0001:00062e34       __imp_load_?exportExtraData@PtrTable@Cm@physx@@QAEXAAVPxSerializationContext@3@@Z 10063e34 f   PhysX3Common_x86:PhysX3Common_x86.dll
 0001:00062e3e       ?exportExtraData@PtrTable@Cm@physx@@QAEXAAVPxSerializationContext@3@@Z 10063e3e f   PhysX3Common_x86:PhysX3Common_x86.dll
 0001:00062e44       __imp_load_?importExtraData@PtrTable@Cm@physx@@QAEXAAVPxDeserializationContext@3@@Z 10063e44 f   PhysX3Common_x86:PhysX3Common_x86.dll
 0001:00062e4e       ?importExtraData@PtrTable@Cm@physx@@QAEXAAVPxDeserializationContext@3@@Z 10063e4e f   PhysX3Common_x86:PhysX3Common_x86.dll
 0001:00062e54       __imp_load_?getTriangle@PxMeshQuery@physx@@SAXABVPxHeightFieldGeometry@2@ABVPxTransform@2@IAAVPxTriangle@2@PAI3@Z 10063e54 f   PhysX3Common_x86:PhysX3Common_x86.dll
 0001:00062e5e       ?getTriangle@PxMeshQuery@physx@@SAXABVPxHeightFieldGeometry@2@ABVPxTransform@2@IAAVPxTriangle@2@PAI3@Z 10063e5e f   PhysX3Common_x86:PhysX3Common_x86.dll
 0001:00062e64       __imp_load_?findOverlapHeightField@PxMeshQuery@physx@@SAIABVPxGeometry@2@ABVPxTransform@2@ABVPxHeightFieldGeometry@2@1PAIIIAA_N@Z 10063e64 f   PhysX3Common_x86:PhysX3Common_x86.dll
 0001:00062e6e       ?findOverlapHeightField@PxMeshQuery@physx@@SAIABVPxGeometry@2@ABVPxTransform@2@ABVPxHeightFieldGeometry@2@1PAIIIAA_N@Z 10063e6e f   PhysX3Common_x86:PhysX3Common_x86.dll
 0001:00062e74       __imp_load_?raycast_triangleMesh_RTREE@Gu@physx@@YAIPBVTriangleMesh@12@ABVPxTriangleMeshGeometry@2@ABVPxTransform@2@ABVPxVec3@2@3MV?$PxFlags@W4Enum@PxHitFlag@physx@@G@2@IPIAUPxRaycastHit@2@@Z 10063e74 f   PhysX3Common_x86:PhysX3Common_x86.dll
 0001:00062e7e       ?raycast_triangleMesh_RTREE@Gu@physx@@YAIPBVTriangleMesh@12@ABVPxTriangleMeshGeometry@2@ABVPxTransform@2@ABVPxVec3@2@3MV?$PxFlags@W4Enum@PxHitFlag@physx@@G@2@IPIAUPxRaycastHit@2@@Z 10063e7e f   PhysX3Common_x86:PhysX3Common_x86.dll
 0001:00062e84       __imp_load_?intersectSphereVsMesh_RTREE@Gu@physx@@YA_NABVSphere@12@ABVTriangleMesh@12@ABVPxTransform@2@ABVPxMeshScale@2@PAULimitedResults@12@@Z 10063e84 f   PhysX3Common_x86:PhysX3Common_x86.dll
 0001:00062e8e       ?intersectSphereVsMesh_RTREE@Gu@physx@@YA_NABVSphere@12@ABVTriangleMesh@12@ABVPxTransform@2@ABVPxMeshScale@2@PAULimitedResults@12@@Z 10063e8e f   PhysX3Common_x86:PhysX3Common_x86.dll
 0001:00062e94       __imp_load_?intersectBoxVsMesh_RTREE@Gu@physx@@YA_NABVBox@12@ABVTriangleMesh@12@ABVPxTransform@2@ABVPxMeshScale@2@PAULimitedResults@12@@Z 10063e94 f   PhysX3Common_x86:PhysX3Common_x86.dll
 0001:00062e9e       ?intersectBoxVsMesh_RTREE@Gu@physx@@YA_NABVBox@12@ABVTriangleMesh@12@ABVPxTransform@2@ABVPxMeshScale@2@PAULimitedResults@12@@Z 10063e9e f   PhysX3Common_x86:PhysX3Common_x86.dll
 0001:00062ea4       __imp_load_?intersectCapsuleVsMesh_RTREE@Gu@physx@@YA_NABVCapsule@12@ABVTriangleMesh@12@ABVPxTransform@2@ABVPxMeshScale@2@PAULimitedResults@12@@Z 10063ea4 f   PhysX3Common_x86:PhysX3Common_x86.dll
 0001:00062eae       ?intersectCapsuleVsMesh_RTREE@Gu@physx@@YA_NABVCapsule@12@ABVTriangleMesh@12@ABVPxTransform@2@ABVPxMeshScale@2@PAULimitedResults@12@@Z 10063eae f   PhysX3Common_x86:PhysX3Common_x86.dll
 0001:00062eb4       __imp_load_?intersectOBB_RTREE@Gu@physx@@YAXPBVTriangleMesh@12@ABVBox@12@AAU?$MeshHitCallback@UPxRaycastHit@physx@@@12@_N3@Z 10063eb4 f   PhysX3Common_x86:PhysX3Common_x86.dll
 0001:00062ebe       ?intersectOBB_RTREE@Gu@physx@@YAXPBVTriangleMesh@12@ABVBox@12@AAU?$MeshHitCallback@UPxRaycastHit@physx@@@12@_N3@Z 10063ebe f   PhysX3Common_x86:PhysX3Common_x86.dll
 0001:00062ec4       __imp_load_?sweepCapsule_MeshGeom_RTREE@Gu@physx@@YA_NPBVTriangleMesh@12@ABVPxTriangleMeshGeometry@2@ABVPxTransform@2@ABVCapsule@12@ABVPxVec3@2@MAAUPxSweepHit@2@V?$PxFlags@W4Enum@PxHitFlag@physx@@G@2@M@Z 10063ec4 f   PhysX3Common_x86:PhysX3Common_x86.dll
 0001:00062ece       ?sweepCapsule_MeshGeom_RTREE@Gu@physx@@YA_NPBVTriangleMesh@12@ABVPxTriangleMeshGeometry@2@ABVPxTransform@2@ABVCapsule@12@ABVPxVec3@2@MAAUPxSweepHit@2@V?$PxFlags@W4Enum@PxHitFlag@physx@@G@2@M@Z 10063ece f   PhysX3Common_x86:PhysX3Common_x86.dll
 0001:00062ed4       __imp_load_?sweepBox_MeshGeom_RTREE@Gu@physx@@YA_NPBVTriangleMesh@12@ABVPxTriangleMeshGeometry@2@ABVPxTransform@2@ABVBox@12@ABVPxVec3@2@MAAUPxSweepHit@2@V?$PxFlags@W4Enum@PxHitFlag@physx@@G@2@M@Z 10063ed4 f   PhysX3Common_x86:PhysX3Common_x86.dll
 0001:00062ede       ?sweepBox_MeshGeom_RTREE@Gu@physx@@YA_NPBVTriangleMesh@12@ABVPxTriangleMeshGeometry@2@ABVPxTransform@2@ABVBox@12@ABVPxVec3@2@MAAUPxSweepHit@2@V?$PxFlags@W4Enum@PxHitFlag@physx@@G@2@M@Z 10063ede f   PhysX3Common_x86:PhysX3Common_x86.dll
 0001:00062ee4       __imp_load_?sweepConvex_MeshGeom_RTREE@Gu@physx@@YAXPBVTriangleMesh@12@ABVBox@12@ABVPxVec3@2@MAAUSweepConvexMeshHitCallback@12@_N@Z 10063ee4 f   PhysX3Common_x86:PhysX3Common_x86.dll
 0001:00062eee       ?sweepConvex_MeshGeom_RTREE@Gu@physx@@YAXPBVTriangleMesh@12@ABVBox@12@ABVPxVec3@2@MAAUSweepConvexMeshHitCallback@12@_N@Z 10063eee f   PhysX3Common_x86:PhysX3Common_x86.dll
 0001:00062ef4       __imp_load_?raycast_triangleMesh_BV4@Gu@physx@@YAIPBVTriangleMesh@12@ABVPxTriangleMeshGeometry@2@ABVPxTransform@2@ABVPxVec3@2@3MV?$PxFlags@W4Enum@PxHitFlag@physx@@G@2@IPIAUPxRaycastHit@2@@Z 10063ef4 f   PhysX3Common_x86:PhysX3Common_x86.dll
 0001:00062efe       ?raycast_triangleMesh_BV4@Gu@physx@@YAIPBVTriangleMesh@12@ABVPxTriangleMeshGeometry@2@ABVPxTransform@2@ABVPxVec3@2@3MV?$PxFlags@W4Enum@PxHitFlag@physx@@G@2@IPIAUPxRaycastHit@2@@Z 10063efe f   PhysX3Common_x86:PhysX3Common_x86.dll
 0001:00062f04       __imp_load_?intersectSphereVsMesh_BV4@Gu@physx@@YA_NABVSphere@12@ABVTriangleMesh@12@ABVPxTransform@2@ABVPxMeshScale@2@PAULimitedResults@12@@Z 10063f04 f   PhysX3Common_x86:PhysX3Common_x86.dll
 0001:00062f0e       ?intersectSphereVsMesh_BV4@Gu@physx@@YA_NABVSphere@12@ABVTriangleMesh@12@ABVPxTransform@2@ABVPxMeshScale@2@PAULimitedResults@12@@Z 10063f0e f   PhysX3Common_x86:PhysX3Common_x86.dll
 0001:00062f14       __imp_load_?intersectBoxVsMesh_BV4@Gu@physx@@YA_NABVBox@12@ABVTriangleMesh@12@ABVPxTransform@2@ABVPxMeshScale@2@PAULimitedResults@12@@Z 10063f14 f   PhysX3Common_x86:PhysX3Common_x86.dll
 0001:00062f1e       ?intersectBoxVsMesh_BV4@Gu@physx@@YA_NABVBox@12@ABVTriangleMesh@12@ABVPxTransform@2@ABVPxMeshScale@2@PAULimitedResults@12@@Z 10063f1e f   PhysX3Common_x86:PhysX3Common_x86.dll
 0001:00062f24       __imp_load_?intersectCapsuleVsMesh_BV4@Gu@physx@@YA_NABVCapsule@12@ABVTriangleMesh@12@ABVPxTransform@2@ABVPxMeshScale@2@PAULimitedResults@12@@Z 10063f24 f   PhysX3Common_x86:PhysX3Common_x86.dll
 0001:00062f2e       ?intersectCapsuleVsMesh_BV4@Gu@physx@@YA_NABVCapsule@12@ABVTriangleMesh@12@ABVPxTransform@2@ABVPxMeshScale@2@PAULimitedResults@12@@Z 10063f2e f   PhysX3Common_x86:PhysX3Common_x86.dll
 0001:00062f34       __imp_load_?intersectOBB_BV4@Gu@physx@@YAXPBVTriangleMesh@12@ABVBox@12@AAU?$MeshHitCallback@UPxRaycastHit@physx@@@12@_N3@Z 10063f34 f   PhysX3Common_x86:PhysX3Common_x86.dll
 0001:00062f3e       ?intersectOBB_BV4@Gu@physx@@YAXPBVTriangleMesh@12@ABVBox@12@AAU?$MeshHitCallback@UPxRaycastHit@physx@@@12@_N3@Z 10063f3e f   PhysX3Common_x86:PhysX3Common_x86.dll
 0001:00062f44       __imp_load_?sweepCapsule_MeshGeom_BV4@Gu@physx@@YA_NPBVTriangleMesh@12@ABVPxTriangleMeshGeometry@2@ABVPxTransform@2@ABVCapsule@12@ABVPxVec3@2@MAAUPxSweepHit@2@V?$PxFlags@W4Enum@PxHitFlag@physx@@G@2@M@Z 10063f44 f   PhysX3Common_x86:PhysX3Common_x86.dll
