 PhysX3CookingDEBUG_x86

 Timestamp is 58ca8083 (Thu Mar 16 12:09:39 2017)

 Preferred load address is 10000000

 Start         Length     Name                   Class
 0001:00000000 0000a390H .text$di                CODE
 0001:0000a390 000dc460H .text$mn                CODE
 0001:000e67f0 000010e8H .text$x                 CODE
 0002:00000000 00000104H .CRT$XCA                DATA
 0002:00000104 000001f4H .CRT$XCU                DATA
 0002:000002f8 00000104H .CRT$XCZ                DATA
 0002:000003fc 00000104H .CRT$XIA                DATA
 0002:00000500 00000110H .CRT$XIC                DATA
 0002:00000610 00000104H .CRT$XIZ                DATA
 0002:00000714 00000104H .CRT$XPA                DATA
 0002:00000818 0000010cH .CRT$XPX                DATA
 0002:00000924 00000104H .CRT$XPXA               DATA
 0002:00000a28 00000104H .CRT$XPZ                DATA
 0002:00000b2c 00000104H .CRT$XTA                DATA
 0002:00000c30 00000110H .CRT$XTZ                DATA
 0002:00000d40 00029c94H .rdata                  DATA
 0002:0002a9d4 0000050cH .rdata$r                DATA
 0002:0002aee0 0000012cH .rdata$sxdata           DATA
 0002:0002b00c 00000194H .rdata$zzzdbg           DATA
 0002:0002b1a0 00000104H .rtc$IAA                DATA
 0002:0002b2a4 0000015cH .rtc$IMZ                DATA
 0002:0002b400 00000104H .rtc$IZZ                DATA
 0002:0002b504 00000104H .rtc$TAA                DATA
 0002:0002b608 0000015cH .rtc$TMZ                DATA
 0002:0002b764 00000104H .rtc$TZZ                DATA
 0002:0002b868 00000ed8H .xdata$x                DATA
 0002:0002c740 000001a0H .edata                  DATA
 0003:00000000 00000ab0H .data                   DATA
 0003:00000ab0 000005e0H .data$r                 DATA
 0003:00001090 00001ca8H .bss                    DATA
 0004:00000000 000001e0H .idata$5                DATA
 0004:000001e0 00000014H .idata$2                DATA
 0004:000001f4 00000014H .idata$3                DATA
 0004:00000208 000001e0H .idata$4                DATA
 0004:000003e8 00000875H .idata$6                DATA
 0005:00000000 00000040H .didat$2                DATA
 0005:00000040 00000020H .didat$3                DATA
 0005:00000060 00000150H .didat$4                DATA
 0005:000001b0 00000150H .didat$5                DATA
 0005:00000300 00000be8H .didat$6                DATA
 0005:00000ee8 000001edH .didat$7                DATA
 0006:00000000 00000208H .gfids$x                DATA
 0006:00000208 00000202H .gfids$y                DATA
 0007:00000000 00000104H .00cfg                  DATA
 0008:00000000 000001c0H .rsrc$01                DATA
 0008:000001c0 000006a9H .rsrc$02                DATA

  Address         Publics by Value              Rva+Base       Lib:Object

 0000:00000000       ___dynamic_value_reloc_table 00000000     <absolute>
 0000:00000000       ___guard_iat_table         00000000     <absolute>
 0000:00000000       ___guard_fids_table        00000000     <absolute>
 0000:00000000       ___guard_iat_count         00000000     <absolute>
 0000:00000000       ___guard_longjmp_count     00000000     <absolute>
 0000:00000000       ___guard_fids_count        00000000     <absolute>
 0000:00000000       __except_list              00000000     <absolute>
 0000:00000000       ___guard_longjmp_table     00000000     <absolute>
 0000:00000009       ___safe_se_handler_count   00000009     <absolute>
 0000:00000100       ___guard_flags             00000100     <absolute>
 0000:00000000       ___ImageBase               10000000     <linker-defined>
 0001:0000a390       _PxSetPhysXCookingDelayLoadHook 1000b390 f   WindowsCookingDelayLoadHook.obj
 0001:0000a3a0       ?delayHook@@YGP6GHXZIPAUDelayLoadInfo@@@Z 1000b3a0 f   WindowsCookingDelayLoadHook.obj
 0001:0000a420       ?foundationDliNotePreLoadLibrary@shdfnd@physx@@YGP6GHXZPBDPBVPxFoundationDelayLoadHook@2@@Z 1000b420 f i WindowsCookingDelayLoadHook.obj
 0001:0000a530       ?loadLibrary@Cm@physx@@YGPAUHINSTANCE__@@PBD@Z 1000b530 f i WindowsCookingDelayLoadHook.obj
 0001:0000a550       ?physXCommonDliNotePreLoadLibrary@Cm@physx@@YGP6GHXZPBDPBVPxDelayLoadHook@2@@Z 1000b550 f i WindowsCookingDelayLoadHook.obj
 0001:0000a770       ?saveHeightField@physx@@YA_NABVHeightField@Gu@1@AAVPxOutputStream@1@_N@Z 1000b770 f   HeightFieldCooking.obj
 0001:0000ab20       ??APxVec3@physx@@QBEABMI@Z 1000bb20 f i HeightFieldCooking.obj
 0001:0000ab90       ??B?$PxFlags@W4Enum@PxHeightFieldFlag@physx@@G@physx@@QBEGXZ 1000bb90 f i HeightFieldCooking.obj
 0001:0000abb0       ?__empty_global_delete@@YAXPAX@Z 1000bbb0 f i HeightFieldCooking.obj
 0001:0000abc0       ?__empty_global_delete@@YAXPAXI@Z 1000bbc0 f i HeightFieldCooking.obj
 0001:0000abc0       ?__global_delete@@YAXPAXI@Z 1000bbc0 f i HeightFieldCooking.obj
 0001:0000abc0       ?__global_array_delete@@YAXPAXI@Z 1000bbc0 f i HeightFieldCooking.obj
 0001:0000abd0       ?getData@HeightField@Gu@physx@@QBEABUHeightFieldData@23@XZ 1000bbd0 f i HeightFieldCooking.obj
 0001:0000abf0       ?getMax@CenterExtents@Gu@physx@@QBEMI@Z 1000bbf0 f i HeightFieldCooking.obj
 0001:0000ac40       ?getMin@CenterExtents@Gu@physx@@QBEMI@Z 1000bc40 f i HeightFieldCooking.obj
 0001:0000ac90       ?buildFromTriangles@RTreeCooker@physx@@SAXAAURTree@Gu@2@PBVPxVec3@2@IPBGPBIIAAV?$Array@IVNamedAllocator@shdfnd@physx@@@shdfnd@2@PAURemapCallback@12@MW4Enum@PxMeshCookingHint@2@@Z 1000bc90 f   RTreeCooking.obj
 0001:0000c010       ??$PX_UNUSED@I@@YAXABI@Z   1000d010 f i RTreeCooking.obj
 0001:0000c020       ??$PX_UNUSED@M@@YAXABM@Z   1000d020 f i RTreeCooking.obj
 0001:0000c030       ??$PX_UNUSED@PAURTreeNodeNQ@physx@@@@YAXABQAURTreeNodeNQ@physx@@@Z 1000d030 f i RTreeCooking.obj
 0001:0000c040       ??$PX_UNUSED@URTreeNodeNQ@physx@@@@YAXABURTreeNodeNQ@physx@@@Z 1000d040 f i RTreeCooking.obj
 0001:0000c050       ??$PxMax@H@physx@@YAHHH@Z  1000d050 f i RTreeCooking.obj
 0001:0000c080       ??$PxMax@I@physx@@YAIII@Z  1000d080 f i RTreeCooking.obj
 0001:0000c0b0       ??$PxMax@M@physx@@YAMMM@Z  1000d0b0 f i RTreeCooking.obj
 0001:0000c0e0       ??$PxMin@I@physx@@YAIII@Z  1000d0e0 f i RTreeCooking.obj
 0001:0000c110       ??$PxMin@M@physx@@YAMMM@Z  1000d110 f i RTreeCooking.obj
 0001:0000c140       ??$median3@I$$CBU?$Less@I@shdfnd@physx@@@internal@shdfnd@physx@@YAXPAIHHABU?$Less@I@12@@Z 1000d140 f i RTreeCooking.obj
 0001:0000c270       ??$median3@I$$CBUSortBoundsPredicate@physx@@@internal@shdfnd@physx@@YAXPAIHHABUSortBoundsPredicate@2@@Z 1000d270 f i RTreeCooking.obj
 0001:0000c3a0       ??$partition@I$$CBU?$Less@I@shdfnd@physx@@@internal@shdfnd@physx@@YAHPAIHHABU?$Less@I@12@@Z 1000d3a0 f i RTreeCooking.obj
 0001:0000c560       ??$partition@I$$CBUSortBoundsPredicate@physx@@@internal@shdfnd@physx@@YAHPAIHHABUSortBoundsPredicate@2@@Z 1000d560 f i RTreeCooking.obj
 0001:0000c720       ??$partition@UBoundsLTE@physx@@@quickSelect@physx@@YAIPIAIIIIABUBoundsLTE@1@@Z 1000d720 f i RTreeCooking.obj
 0001:0000c9b0       ??$quickSelectFirstK@UBoundsLTE@physx@@@quickSelect@physx@@YAXPIAIIIIABUBoundsLTE@1@@Z 1000d9b0 f i RTreeCooking.obj
 0001:0000cae0       ??$smallSort@I$$CBU?$Less@I@shdfnd@physx@@@internal@shdfnd@physx@@YAXPAIHHABU?$Less@I@12@@Z 1000dae0 f i RTreeCooking.obj
 0001:0000cba0       ??$smallSort@I$$CBUSortBoundsPredicate@physx@@@internal@shdfnd@physx@@YAXPAIHHABUSortBoundsPredicate@2@@Z 1000dba0 f i RTreeCooking.obj
 0001:0000cc60       ??$sort@I@shdfnd@physx@@YAXPAII@Z 1000dc60 f i RTreeCooking.obj
 0001:0000cca0       ??$sort@IU?$Less@I@shdfnd@physx@@VNamedAllocator@23@@shdfnd@physx@@YAXPAIIABU?$Less@I@01@ABVNamedAllocator@01@I@Z 1000dca0 f i RTreeCooking.obj
 0001:0000cf60       ??$sort@IUSortBoundsPredicate@physx@@@shdfnd@physx@@YAXPAIIABUSortBoundsPredicate@1@@Z 1000df60 f i RTreeCooking.obj
 0001:0000cfa0       ??$sort@IUSortBoundsPredicate@physx@@VNamedAllocator@shdfnd@2@@shdfnd@physx@@YAXPAIIABUSortBoundsPredicate@1@ABVNamedAllocator@01@I@Z 1000dfa0 f i RTreeCooking.obj
 0001:0000d260       ??$swap@I@shdfnd@physx@@YAXAAI0@Z 1000e260 f i RTreeCooking.obj
 0001:0000d290       ??0?$AlignedAllocator@$0IA@VNonTrackingAllocator@shdfnd@physx@@@shdfnd@physx@@QAE@ABVNonTrackingAllocator@12@@Z 1000e290 f i RTreeCooking.obj
 0001:0000d2b0       ??0?$Array@IVNamedAllocator@shdfnd@physx@@@shdfnd@physx@@QAE@IABIABVNamedAllocator@12@@Z 1000e2b0 f i RTreeCooking.obj
 0001:0000d310       ??0?$Array@UInterval@physx@@V?$InlineAllocator@$0CA@VNamedAllocator@shdfnd@physx@@@shdfnd@2@@shdfnd@physx@@QAE@ABV?$InlineAllocator@$0CA@VNamedAllocator@shdfnd@physx@@@12@@Z 1000e310 f i RTreeCooking.obj
 0001:0000d360       ??0?$Array@UPxBounds3V@physx@@VNamedAllocator@shdfnd@2@@shdfnd@physx@@QAE@ABVNamedAllocator@12@@Z 1000e360 f i RTreeCooking.obj
 0001:0000d3b0       ??0?$Array@URTreeNodeNQ@physx@@VNamedAllocator@shdfnd@2@@shdfnd@physx@@QAE@ABVNamedAllocator@12@@Z 1000e3b0 f i RTreeCooking.obj
 0001:0000d400       ??0?$Array@URTreeNodeQ@Gu@physx@@VNamedAllocator@shdfnd@3@@shdfnd@physx@@QAE@ABVNamedAllocator@12@@Z 1000e400 f i RTreeCooking.obj
 0001:0000d450       ??0?$Array@VPxVec3@physx@@VNamedAllocator@shdfnd@2@@shdfnd@physx@@QAE@ABVNamedAllocator@12@@Z 1000e450 f i RTreeCooking.obj
 0001:0000d4a0       ??0?$InlineAllocator@$0CA@VNamedAllocator@shdfnd@physx@@@shdfnd@physx@@QAE@ABV012@@Z 1000e4a0 f i RTreeCooking.obj
 0001:0000d4d0       ??0?$InlineAllocator@$0CA@VNamedAllocator@shdfnd@physx@@@shdfnd@physx@@QAE@ABVNamedAllocator@12@@Z 1000e4d0 f i RTreeCooking.obj
 0001:0000d500       ??0?$InlineArray@UInterval@physx@@$03VNamedAllocator@shdfnd@2@@shdfnd@physx@@QAE@ABVNamedAllocator@12@@Z 1000e500 f i RTreeCooking.obj
 0001:0000d560       ??0?$ScopedPointer@HVTempAllocator@shdfnd@physx@@@shdfnd@physx@@QAE@XZ 1000e560 f i RTreeCooking.obj
 0001:0000d580       ??0?$Stack@VNamedAllocator@shdfnd@physx@@@internal@shdfnd@physx@@QAE@PAHIABVNamedAllocator@23@@Z 1000e580 f i RTreeCooking.obj
 0001:0000d5d0       ??0BoundsLTE@physx@@QAE@IPBVPxVec3@1@@Z 1000e5d0 f i RTreeCooking.obj
 0001:0000d600       ??0Interval@physx@@QAE@II@Z 1000e600 f i RTreeCooking.obj
 0001:0000d630       ??0NonTrackingAllocator@shdfnd@physx@@QAE@PBD@Z 1000e630 f i RTreeCooking.obj
 0001:0000d650       ??0PxBounds3@physx@@QAE@ABV01@@Z 1000e650 f i RTreeCooking.obj
 0001:0000d690       ??0PxBounds3@physx@@QAE@ABVPxVec3@1@0@Z 1000e690 f i RTreeCooking.obj
 0001:0000d6d0       ??0PxBounds3V@physx@@QAE@AAT__m128@@0@Z 1000e6d0 f i RTreeCooking.obj
 0001:0000d710       ??0PxBounds3V@physx@@QAE@UU@01@@Z 1000e710 f i RTreeCooking.obj
 0001:0000d730       ??0PxVec3@physx@@QAE@ABV01@@Z 1000e730 f i RTreeCooking.obj
 0001:0000d770       ??0PxVec3@physx@@QAE@M@Z   1000e770 f i RTreeCooking.obj
 0001:0000d7c0       ??0PxVec3@physx@@QAE@MMM@Z 1000e7c0 f i RTreeCooking.obj
 0001:0000d810       ??0PxVec3@physx@@QAE@XZ    1000e810 f i RTreeCooking.obj
 0001:0000d830       ??0PxVec4@physx@@QAE@ABVPxVec3@1@M@Z 1000e830 f i RTreeCooking.obj
 0001:0000d880       ??0PxVec4@physx@@QAE@M@Z   1000e880 f i RTreeCooking.obj
 0001:0000d8e0       ??0PxVec4@physx@@QAE@MMMM@Z 1000e8e0 f i RTreeCooking.obj
 0001:0000d940       ??0RTreeNodeNQ@physx@@QAE@ABU01@@Z 1000e940 f i RTreeCooking.obj
 0001:0000d990       ??0RTreeNodeNQ@physx@@QAE@XZ 1000e990 f i RTreeCooking.obj
 0001:0000d9d0       ??0SortBoundsPredicate@physx@@QAE@IPBUPxBounds3V@1@@Z 1000e9d0 f i RTreeCooking.obj
 0001:0000da00       ??0SubSortQuick@physx@@QAE@PAIPBUPxBounds3V@1@IM@Z 1000ea00 f i RTreeCooking.obj
 0001:0000db60       ??0SubSortSAH@physx@@QAE@PAIPBUPxBounds3V@1@IPBI22222M@Z 1000eb60 f i RTreeCooking.obj
 0001:0000dd00       ??0TempAllocator@shdfnd@physx@@QAE@PBD@Z 1000ed00 f i RTreeCooking.obj
 0001:0000dd20       ??1?$Array@IVNamedAllocator@shdfnd@physx@@@shdfnd@physx@@QAE@XZ 1000ed20 f i RTreeCooking.obj
 0001:0000dd90       ??1?$Array@UInterval@physx@@V?$InlineAllocator@$0CA@VNamedAllocator@shdfnd@physx@@@shdfnd@2@@shdfnd@physx@@QAE@XZ 1000ed90 f i RTreeCooking.obj
 0001:0000de00       ??1?$Array@UPxBounds3V@physx@@VNamedAllocator@shdfnd@2@@shdfnd@physx@@QAE@XZ 1000ee00 f i RTreeCooking.obj
 0001:0000de70       ??1?$Array@URTreeNodeNQ@physx@@VNamedAllocator@shdfnd@2@@shdfnd@physx@@QAE@XZ 1000ee70 f i RTreeCooking.obj
 0001:0000dee0       ??1?$Array@URTreeNodeQ@Gu@physx@@VNamedAllocator@shdfnd@3@@shdfnd@physx@@QAE@XZ 1000eee0 f i RTreeCooking.obj
 0001:0000df50       ??1?$Array@VPxVec3@physx@@VNamedAllocator@shdfnd@2@@shdfnd@physx@@QAE@XZ 1000ef50 f i RTreeCooking.obj
 0001:0000dfc0       ??1?$InlineAllocator@$0CA@VNamedAllocator@shdfnd@physx@@@shdfnd@physx@@QAE@XZ 1000efc0 f i RTreeCooking.obj
 0001:0000dfe0       ??1?$InlineArray@UInterval@physx@@$03VNamedAllocator@shdfnd@2@@shdfnd@physx@@QAE@XZ 1000efe0 f i RTreeCooking.obj
 0001:0000e000       ??1?$ScopedPointer@HVTempAllocator@shdfnd@physx@@@shdfnd@physx@@QAE@XZ 1000f000 f i RTreeCooking.obj
 0001:0000e030       ??1?$Stack@VNamedAllocator@shdfnd@physx@@@internal@shdfnd@physx@@QAE@XZ 1000f030 f i RTreeCooking.obj
 0001:0000e070       ??1SubSortQuick@physx@@QAE@XZ 1000f070 f i RTreeCooking.obj
 0001:0000e090       ??1SubSortSAH@physx@@QAE@XZ 1000f090 f i RTreeCooking.obj
 0001:0000e140       ??2@YAPAXIPAX@Z            1000f140 f i RTreeCooking.obj
 0001:0000e150       ??4PxVec3@physx@@QAEAAV01@ABV01@@Z 1000f150 f i RTreeCooking.obj
 0001:0000e190       ??4PxVec4@physx@@QAEAAV01@ABV01@@Z 1000f190 f i RTreeCooking.obj
 0001:0000e1e0       ??A?$Array@IVNamedAllocator@shdfnd@physx@@@shdfnd@physx@@QAEAAII@Z 1000f1e0 f i RTreeCooking.obj
 0001:0000e250       ??A?$Array@UInterval@physx@@V?$InlineAllocator@$0CA@VNamedAllocator@shdfnd@physx@@@shdfnd@2@@shdfnd@physx@@QAEAAUInterval@2@I@Z 1000f250 f i RTreeCooking.obj
 0001:0000e2d0       ??A?$Array@URTreeNodeNQ@physx@@VNamedAllocator@shdfnd@2@@shdfnd@physx@@QAEAAURTreeNodeNQ@2@I@Z 1000f2d0 f i RTreeCooking.obj
 0001:0000e340       ??A?$Array@URTreeNodeQ@Gu@physx@@VNamedAllocator@shdfnd@3@@shdfnd@physx@@QAEAAURTreeNodeQ@Gu@2@I@Z 1000f340 f i RTreeCooking.obj
 0001:0000e3b0       ??B?$ScopedPointer@HVTempAllocator@shdfnd@physx@@@shdfnd@physx@@QBEPAHXZ 1000f3b0 f i RTreeCooking.obj
 0001:0000e3d0       ??GPxVec4@physx@@QBE?AV01@ABV01@@Z 1000f3d0 f i RTreeCooking.obj
 0001:0000e460       ??HPxVec3@physx@@QBE?AV01@ABV01@@Z 1000f460 f i RTreeCooking.obj
 0001:0000e4d0       ??KPxVec4@physx@@QBE?AV01@M@Z 1000f4d0 f i RTreeCooking.obj
 0001:0000e570       ??R?$Less@I@shdfnd@physx@@QBE_NABI0@Z 1000f570 f i RTreeCooking.obj
 0001:0000e5b0       ??RBoundsLTE@physx@@QBE_NABI0@Z 1000f5b0 f i RTreeCooking.obj
 0001:0000e640       ??RSortBoundsPredicate@physx@@QBE_NABI0@Z 1000f640 f i RTreeCooking.obj
 0001:0000e770       ??_H@YGXPAXIIP6EPAX0@Z@Z   1000f770 f i RTreeCooking.obj
 0001:0000e7d0       ?FLoad@aos@shdfnd@physx@@YA?AT__m128@@M@Z 1000f7d0 f i RTreeCooking.obj
 0001:0000e810       ?FMax@aos@shdfnd@physx@@YA?AT__m128@@XZ 1000f810 f i RTreeCooking.obj
 0001:0000e860       ?FNegMax@aos@shdfnd@physx@@YA?AT__m128@@XZ 1000f860 f i RTreeCooking.obj
 0001:0000e8b0       ?FStore@aos@shdfnd@physx@@YAXT__m128@@PIAM@Z 1000f8b0 f i RTreeCooking.obj
 0001:0000e950       ?PxAbs@physx@@YAHH@Z       1000f950 f i RTreeCooking.obj
 0001:0000e970       ?PxAbs@physx@@YAMM@Z       1000f970 f i RTreeCooking.obj
 0001:0000e990       ?PxIsFinite@physx@@YA_NM@Z 1000f990 f i RTreeCooking.obj
 0001:0000e9b0       ?PxMemCopy@physx@@YAPAXPIAXPIBXI@Z 1000f9b0 f i RTreeCooking.obj
 0001:0000e9d0       ?V3Add@aos@shdfnd@physx@@YA?AT__m128@@T4@0@Z 1000f9d0 f i RTreeCooking.obj
 0001:0000ead0       ?V3Dot@aos@shdfnd@physx@@YA?AT__m128@@T4@0@Z 1000fad0 f i RTreeCooking.obj
 0001:0000ec50       ?V3Load@aos@shdfnd@physx@@YA?AT__m128@@M@Z 1000fc50 f i RTreeCooking.obj
 0001:0000ecb0       ?V3LoadU@aos@shdfnd@physx@@YA?AT__m128@@ABVPxVec3@3@@Z 1000fcb0 f i RTreeCooking.obj
 0001:0000ed10       ?V3Max@aos@shdfnd@physx@@YA?AT__m128@@T4@0@Z 1000fd10 f i RTreeCooking.obj
 0001:0000ee10       ?V3Min@aos@shdfnd@physx@@YA?AT__m128@@T4@0@Z 1000fe10 f i RTreeCooking.obj
 0001:0000ef10       ?V3PermZXY@aos@shdfnd@physx@@YA?AT__m128@@T4@@Z 1000ff10 f i RTreeCooking.obj
 0001:0000efb0       ?V3ReadXYZ@aos@shdfnd@physx@@YAABVPxVec3@3@ABT__m128@@@Z 1000ffb0 f i RTreeCooking.obj
 0001:0000efc0       ?V3Splat@aos@shdfnd@physx@@YA?AT__m128@@T4@@Z 1000ffc0 f i RTreeCooking.obj
 0001:0000f090       ?V3StoreA@aos@shdfnd@physx@@YAXT__m128@@AAVPxVec3@3@@Z 10010090 f i RTreeCooking.obj
 0001:0000f180       ?V3StoreU@aos@shdfnd@physx@@YAXT__m128@@AAVPxVec3@3@@Z 10010180 f i RTreeCooking.obj
 0001:0000f220       ?V3Sub@aos@shdfnd@physx@@YA?AT__m128@@T4@0@Z 10010220 f i RTreeCooking.obj
 0001:0000f320       ?V3Zero@aos@shdfnd@physx@@YA?AT__m128@@XZ 10010320 f i RTreeCooking.obj
 0001:0000f360       ?V4ClearW@aos@shdfnd@physx@@YA?AT__m128@@T4@@Z 10010360 f i RTreeCooking.obj
 0001:0000f3b0       ?V4Load@aos@shdfnd@physx@@YA?AT__m128@@M@Z 100103b0 f i RTreeCooking.obj
 0001:0000f3f0       ?V4ReadW@aos@shdfnd@physx@@YAMABT__m128@@@Z 100103f0 f i RTreeCooking.obj
 0001:0000f400       ?V4ReadX@aos@shdfnd@physx@@YAMABT__m128@@@Z 10010400 f i RTreeCooking.obj
 0001:0000f410       ?V4ReadY@aos@shdfnd@physx@@YAMABT__m128@@@Z 10010410 f i RTreeCooking.obj
 0001:0000f420       ?V4ReadZ@aos@shdfnd@physx@@YAMABT__m128@@@Z 10010420 f i RTreeCooking.obj
 0001:0000f430       ?V4StoreA@aos@shdfnd@physx@@YAXT__m128@@PAM@Z 10010430 f i RTreeCooking.obj
 0001:0000f4d0       ?Vec3V_From_FloatV@aos@shdfnd@physx@@YA?AT__m128@@T4@@Z 100104d0 f i RTreeCooking.obj
 0001:0000f530       ?Vec3V_From_Vec4V@aos@shdfnd@physx@@YA?AT__m128@@T4@@Z 10010530 f i RTreeCooking.obj
 0001:0000f580       ?Vec4V_From_FloatV@aos@shdfnd@physx@@YA?AT__m128@@T4@@Z 10010580 f i RTreeCooking.obj
 0001:0000f5c0       ?abs@intrinsics@physx@@YAMM@Z 100105c0 f i RTreeCooking.obj
 0001:0000f5e0       ?allocate@?$AlignedAllocator@$0IA@VNonTrackingAllocator@shdfnd@physx@@@shdfnd@physx@@QAEPAXIPBDH@Z 100105e0 f i RTreeCooking.obj
 0001:0000f660       ?allocate@?$Array@IVNamedAllocator@shdfnd@physx@@@shdfnd@physx@@IAEPAII@Z 10010660 f i RTreeCooking.obj
 0001:0000f6e0       ?allocate@?$Array@UInterval@physx@@V?$InlineAllocator@$0CA@VNamedAllocator@shdfnd@physx@@@shdfnd@2@@shdfnd@physx@@IAEPAUInterval@3@I@Z 100106e0 f i RTreeCooking.obj
 0001:0000f760       ?allocate@?$Array@UPxBounds3V@physx@@VNamedAllocator@shdfnd@2@@shdfnd@physx@@IAEPAUPxBounds3V@3@I@Z 10010760 f i RTreeCooking.obj
 0001:0000f7e0       ?allocate@?$Array@URTreeNodeNQ@physx@@VNamedAllocator@shdfnd@2@@shdfnd@physx@@IAEPAURTreeNodeNQ@3@I@Z 100107e0 f i RTreeCooking.obj
 0001:0000f860       ?allocate@?$Array@URTreeNodeQ@Gu@physx@@VNamedAllocator@shdfnd@3@@shdfnd@physx@@IAEPAURTreeNodeQ@Gu@3@I@Z 10010860 f i RTreeCooking.obj
 0001:0000f8e0       ?allocate@?$Array@VPxVec3@physx@@VNamedAllocator@shdfnd@2@@shdfnd@physx@@IAEPAVPxVec3@3@I@Z 100108e0 f i RTreeCooking.obj
 0001:0000f960       ?allocate@?$InlineAllocator@$0CA@VNamedAllocator@shdfnd@physx@@@shdfnd@physx@@QAEPAXIPBDH@Z 10010960 f i RTreeCooking.obj
 0001:0000f9b0       ?allocate@NonTrackingAllocator@shdfnd@physx@@QAEPAXIPBDH@Z 100109b0 f i RTreeCooking.obj
 0001:0000fa10       ?begin@?$Array@IVNamedAllocator@shdfnd@physx@@@shdfnd@physx@@QAEPAIXZ 10010a10 f i RTreeCooking.obj
 0001:0000fa30       ?begin@?$Array@UPxBounds3V@physx@@VNamedAllocator@shdfnd@2@@shdfnd@physx@@QAEPAUPxBounds3V@3@XZ 10010a30 f i RTreeCooking.obj
 0001:0000fa50       ?begin@?$Array@VPxVec3@physx@@VNamedAllocator@shdfnd@2@@shdfnd@physx@@QAEPAVPxVec3@3@XZ 10010a50 f i RTreeCooking.obj
 0001:0000fa70       ?capacity@?$Array@IVNamedAllocator@shdfnd@physx@@@shdfnd@physx@@QBEIXZ 10010a70 f i RTreeCooking.obj
 0001:0000fa90       ?capacity@?$Array@UInterval@physx@@V?$InlineAllocator@$0CA@VNamedAllocator@shdfnd@physx@@@shdfnd@2@@shdfnd@physx@@QBEIXZ 10010a90 f i RTreeCooking.obj
 0001:0000fab0       ?capacity@?$Array@UPxBounds3V@physx@@VNamedAllocator@shdfnd@2@@shdfnd@physx@@QBEIXZ 10010ab0 f i RTreeCooking.obj
 0001:0000fad0       ?capacity@?$Array@URTreeNodeNQ@physx@@VNamedAllocator@shdfnd@2@@shdfnd@physx@@QBEIXZ 10010ad0 f i RTreeCooking.obj
 0001:0000faf0       ?capacity@?$Array@URTreeNodeQ@Gu@physx@@VNamedAllocator@shdfnd@3@@shdfnd@physx@@QBEIXZ 10010af0 f i RTreeCooking.obj
 0001:0000fb10       ?capacity@?$Array@VPxVec3@physx@@VNamedAllocator@shdfnd@2@@shdfnd@physx@@QBEIXZ 10010b10 f i RTreeCooking.obj
 0001:0000fb30       ?capacityIncrement@?$Array@IVNamedAllocator@shdfnd@physx@@@shdfnd@physx@@IBEIXZ 10010b30 f i RTreeCooking.obj
 0001:0000fb70       ?capacityIncrement@?$Array@UInterval@physx@@V?$InlineAllocator@$0CA@VNamedAllocator@shdfnd@physx@@@shdfnd@2@@shdfnd@physx@@IBEIXZ 10010b70 f i RTreeCooking.obj
 0001:0000fbb0       ?capacityIncrement@?$Array@UPxBounds3V@physx@@VNamedAllocator@shdfnd@2@@shdfnd@physx@@IBEIXZ 10010bb0 f i RTreeCooking.obj
 0001:0000fbf0       ?capacityIncrement@?$Array@URTreeNodeNQ@physx@@VNamedAllocator@shdfnd@2@@shdfnd@physx@@IBEIXZ 10010bf0 f i RTreeCooking.obj
 0001:0000fc30       ?capacityIncrement@?$Array@URTreeNodeQ@Gu@physx@@VNamedAllocator@shdfnd@3@@shdfnd@physx@@IBEIXZ 10010c30 f i RTreeCooking.obj
 0001:0000fc70       ?capacityIncrement@?$Array@VPxVec3@physx@@VNamedAllocator@shdfnd@2@@shdfnd@physx@@IBEIXZ 10010c70 f i RTreeCooking.obj
 0001:0000fcb0       ?computeSA@SubSortSAH@physx@@QAEMPBIABUInterval@2@@Z 10010cb0 f i RTreeCooking.obj
 0001:0000fe30       ?copy@?$Array@IVNamedAllocator@shdfnd@physx@@@shdfnd@physx@@KAXPAI0PBI@Z 10010e30 f i RTreeCooking.obj
 0001:0000fee0       ?copy@?$Array@UInterval@physx@@V?$InlineAllocator@$0CA@VNamedAllocator@shdfnd@physx@@@shdfnd@2@@shdfnd@physx@@KAXPAUInterval@3@0PBU43@@Z 10010ee0 f i RTreeCooking.obj
 0001:0000ffa0       ?copy@?$Array@UPxBounds3V@physx@@VNamedAllocator@shdfnd@2@@shdfnd@physx@@KAXPAUPxBounds3V@3@0PBU43@@Z 10010fa0 f i RTreeCooking.obj
 0001:00010060       ?copy@?$Array@URTreeNodeNQ@physx@@VNamedAllocator@shdfnd@2@@shdfnd@physx@@KAXPAURTreeNodeNQ@3@0PBU43@@Z 10011060 f i RTreeCooking.obj
 0001:00010110       ?copy@?$Array@URTreeNodeQ@Gu@physx@@VNamedAllocator@shdfnd@3@@shdfnd@physx@@KAXPAURTreeNodeQ@Gu@3@0PBU453@@Z 10011110 f i RTreeCooking.obj
 0001:000101e0       ?copy@?$Array@VPxVec3@physx@@VNamedAllocator@shdfnd@2@@shdfnd@physx@@KAXPAVPxVec3@3@0PBV43@@Z 100111e0 f i RTreeCooking.obj
 0001:000102a0       ?create@?$Array@IVNamedAllocator@shdfnd@physx@@@shdfnd@physx@@KAXPAI0ABI@Z 100112a0 f i RTreeCooking.obj
 0001:00010350       ?deallocate@?$Array@IVNamedAllocator@shdfnd@physx@@@shdfnd@physx@@IAEXPAX@Z 10011350 f i RTreeCooking.obj
 0001:00010370       ?deallocate@?$Array@UInterval@physx@@V?$InlineAllocator@$0CA@VNamedAllocator@shdfnd@physx@@@shdfnd@2@@shdfnd@physx@@IAEXPAX@Z 10011370 f i RTreeCooking.obj
 0001:00010390       ?deallocate@?$Array@UPxBounds3V@physx@@VNamedAllocator@shdfnd@2@@shdfnd@physx@@IAEXPAX@Z 10011390 f i RTreeCooking.obj
 0001:000103b0       ?deallocate@?$Array@URTreeNodeNQ@physx@@VNamedAllocator@shdfnd@2@@shdfnd@physx@@IAEXPAX@Z 100113b0 f i RTreeCooking.obj
 0001:000103d0       ?deallocate@?$Array@URTreeNodeQ@Gu@physx@@VNamedAllocator@shdfnd@3@@shdfnd@physx@@IAEXPAX@Z 100113d0 f i RTreeCooking.obj
 0001:000103f0       ?deallocate@?$Array@VPxVec3@physx@@VNamedAllocator@shdfnd@2@@shdfnd@physx@@IAEXPAX@Z 100113f0 f i RTreeCooking.obj
 0001:00010410       ?deallocate@?$InlineAllocator@$0CA@VNamedAllocator@shdfnd@physx@@@shdfnd@physx@@QAEXPAX@Z 10011410 f i RTreeCooking.obj
 0001:00010450       ?destroy@?$Array@IVNamedAllocator@shdfnd@physx@@@shdfnd@physx@@KAXPAI0@Z 10011450 f i RTreeCooking.obj
 0001:00010480       ?destroy@?$Array@UInterval@physx@@V?$InlineAllocator@$0CA@VNamedAllocator@shdfnd@physx@@@shdfnd@2@@shdfnd@physx@@KAXPAUInterval@3@0@Z 10011480 f i RTreeCooking.obj
 0001:000104b0       ?destroy@?$Array@UPxBounds3V@physx@@VNamedAllocator@shdfnd@2@@shdfnd@physx@@KAXPAUPxBounds3V@3@0@Z 100114b0 f i RTreeCooking.obj
 0001:000104e0       ?destroy@?$Array@URTreeNodeNQ@physx@@VNamedAllocator@shdfnd@2@@shdfnd@physx@@KAXPAURTreeNodeNQ@3@0@Z 100114e0 f i RTreeCooking.obj
 0001:00010510       ?destroy@?$Array@URTreeNodeQ@Gu@physx@@VNamedAllocator@shdfnd@3@@shdfnd@physx@@KAXPAURTreeNodeQ@Gu@3@0@Z 10011510 f i RTreeCooking.obj
 0001:00010540       ?destroy@?$Array@VPxVec3@physx@@VNamedAllocator@shdfnd@2@@shdfnd@physx@@KAXPAVPxVec3@3@0@Z 10011540 f i RTreeCooking.obj
 0001:00010570       ?empty@?$Stack@VNamedAllocator@shdfnd@physx@@@internal@shdfnd@physx@@QAE_NXZ 10011570 f i RTreeCooking.obj
 0001:000105b0       ?empty@PxBounds3@physx@@SA?AV12@XZ 100115b0 f i RTreeCooking.obj
 0001:00010610       ?getExtents@PxBounds3V@physx@@QBE?AT__m128@@XZ 10011610 f i RTreeCooking.obj
 0001:00010670       ?getMaxVec3@PxBounds3V@physx@@QBE?BVPxVec3@2@XZ 10011670 f i RTreeCooking.obj
 0001:000106c0       ?getMinVec3@PxBounds3V@physx@@QBE?BVPxVec3@2@XZ 100116c0 f i RTreeCooking.obj
 0001:00010710       ?grow@?$Array@IVNamedAllocator@shdfnd@physx@@@shdfnd@physx@@IAEXI@Z 10011710 f i RTreeCooking.obj
 0001:00010790       ?grow@?$Array@UPxBounds3V@physx@@VNamedAllocator@shdfnd@2@@shdfnd@physx@@IAEXI@Z 10011790 f i RTreeCooking.obj
 0001:00010810       ?grow@?$Array@URTreeNodeNQ@physx@@VNamedAllocator@shdfnd@2@@shdfnd@physx@@IAEXI@Z 10011810 f i RTreeCooking.obj
 0001:00010890       ?grow@?$Array@URTreeNodeQ@Gu@physx@@VNamedAllocator@shdfnd@3@@shdfnd@physx@@IAEXI@Z 10011890 f i RTreeCooking.obj
 0001:00010910       ?grow@?$Array@VPxVec3@physx@@VNamedAllocator@shdfnd@2@@shdfnd@physx@@IAEXI@Z 10011910 f i RTreeCooking.obj
 0001:00010990       ?grow@?$Stack@VNamedAllocator@shdfnd@physx@@@internal@shdfnd@physx@@QAEXXZ 10011990 f i RTreeCooking.obj
 0001:00010a40       ?growAndPushBack@?$Array@IVNamedAllocator@shdfnd@physx@@@shdfnd@physx@@IAEAAIABI@Z 10011a40 f i RTreeCooking.obj
 0001:00010bd0       ?growAndPushBack@?$Array@UInterval@physx@@V?$InlineAllocator@$0CA@VNamedAllocator@shdfnd@physx@@@shdfnd@2@@shdfnd@physx@@IAEAAUInterval@3@ABU43@@Z 10011bd0 f i RTreeCooking.obj
 0001:00010d70       ?growAndPushBack@?$Array@UPxBounds3V@physx@@VNamedAllocator@shdfnd@2@@shdfnd@physx@@IAEAAUPxBounds3V@3@ABU43@@Z 10011d70 f i RTreeCooking.obj
 0001:00010f00       ?growAndPushBack@?$Array@URTreeNodeNQ@physx@@VNamedAllocator@shdfnd@2@@shdfnd@physx@@IAEAAURTreeNodeNQ@3@ABU43@@Z 10011f00 f i RTreeCooking.obj
 0001:00011090       ?growAndPushBack@?$Array@URTreeNodeQ@Gu@physx@@VNamedAllocator@shdfnd@3@@shdfnd@physx@@IAEAAURTreeNodeQ@Gu@3@ABU453@@Z 10012090 f i RTreeCooking.obj
 0001:00011220       ?growAndPushBack@?$Array@VPxVec3@physx@@VNamedAllocator@shdfnd@2@@shdfnd@physx@@IAEAAVPxVec3@3@ABV43@@Z 10012220 f i RTreeCooking.obj
 0001:000113a0       ?include@PxBounds3V@physx@@QAEXABU12@@Z 100123a0 f i RTreeCooking.obj
 0001:00011420       ?isAligned16@aos@shdfnd@physx@@YA_NPAX@Z 10012420 f i RTreeCooking.obj
 0001:00011450       ?isArrayOfPOD@?$Array@IVNamedAllocator@shdfnd@physx@@@shdfnd@physx@@SA_NXZ 10012450 f i RTreeCooking.obj
 0001:00011460       ?isArrayOfPOD@?$Array@UInterval@physx@@V?$InlineAllocator@$0CA@VNamedAllocator@shdfnd@physx@@@shdfnd@2@@shdfnd@physx@@SA_NXZ 10012460 f i RTreeCooking.obj
 0001:00011470       ?isArrayOfPOD@?$Array@UPxBounds3V@physx@@VNamedAllocator@shdfnd@2@@shdfnd@physx@@SA_NXZ 10012470 f i RTreeCooking.obj
 0001:00011480       ?isArrayOfPOD@?$Array@URTreeNodeNQ@physx@@VNamedAllocator@shdfnd@2@@shdfnd@physx@@SA_NXZ 10012480 f i RTreeCooking.obj
 0001:00011490       ?isArrayOfPOD@?$Array@URTreeNodeQ@Gu@physx@@VNamedAllocator@shdfnd@3@@shdfnd@physx@@SA_NXZ 10012490 f i RTreeCooking.obj
 0001:000114a0       ?isArrayOfPOD@?$Array@VPxVec3@physx@@VNamedAllocator@shdfnd@2@@shdfnd@physx@@SA_NXZ 100124a0 f i RTreeCooking.obj
 0001:000114b0       ?isFinite@PxBounds3@physx@@QBE_NXZ 100124b0 f i RTreeCooking.obj
 0001:00011510       ?isFinite@PxVec3@physx@@QBE_NXZ 10012510 f i RTreeCooking.obj
 0001:000115b0       ?isFinite@intrinsics@physx@@YA_NM@Z 100125b0 f i RTreeCooking.obj
 0001:00011600       ?isInUserMemory@?$Array@IVNamedAllocator@shdfnd@physx@@@shdfnd@physx@@QBEIXZ 10012600 f i RTreeCooking.obj
 0001:00011620       ?isInUserMemory@?$Array@UInterval@physx@@V?$InlineAllocator@$0CA@VNamedAllocator@shdfnd@physx@@@shdfnd@2@@shdfnd@physx@@QBEIXZ 10012620 f i RTreeCooking.obj
 0001:00011640       ?isInUserMemory@?$Array@UPxBounds3V@physx@@VNamedAllocator@shdfnd@2@@shdfnd@physx@@QBEIXZ 10012640 f i RTreeCooking.obj
 0001:00011660       ?isInUserMemory@?$Array@URTreeNodeNQ@physx@@VNamedAllocator@shdfnd@2@@shdfnd@physx@@QBEIXZ 10012660 f i RTreeCooking.obj
 0001:00011680       ?isInUserMemory@?$Array@URTreeNodeQ@Gu@physx@@VNamedAllocator@shdfnd@3@@shdfnd@physx@@QBEIXZ 10012680 f i RTreeCooking.obj
 0001:000116a0       ?isInUserMemory@?$Array@VPxVec3@physx@@VNamedAllocator@shdfnd@2@@shdfnd@physx@@QBEIXZ 100126a0 f i RTreeCooking.obj
 0001:000116c0       ?isInside@PxBounds3@physx@@QBE_NABV12@@Z 100126c0 f i RTreeCooking.obj
 0001:000117e0       ?isLeaf@RTreeNodeQ@Gu@physx@@QBEIXZ 100127e0 f i RTreeCooking.obj
 0001:00011800       ?isValid@PxBounds3@physx@@QBE_NXZ 10012800 f i RTreeCooking.obj
 0001:00011920       ?isValidFloatV@aos@shdfnd@physx@@YA_NT__m128@@@Z 10012920 f i RTreeCooking.obj
 0001:00011af0       ?isValidVec3V@aos@shdfnd@physx@@YA_NT__m128@@@Z 10012af0 f i RTreeCooking.obj
 0001:00011b70       ?isZeroInit@?$Array@IVNamedAllocator@shdfnd@physx@@@shdfnd@physx@@KA_NABI@Z 10012b70 f i RTreeCooking.obj
 0001:00011bd0       ?memCopy@intrinsics@physx@@YAPAXPIAXPIBXI@Z 10012bd0 f i RTreeCooking.obj
 0001:00011bf0       ?memZero@intrinsics@physx@@YAPAXPAXI@Z 10012bf0 f i RTreeCooking.obj
 0001:00011c10       ?pop@?$Stack@VNamedAllocator@shdfnd@physx@@@internal@shdfnd@physx@@QAEXAAH0@Z 10012c10 f i RTreeCooking.obj
 0001:00011ce0       ?popBack@?$Array@IVNamedAllocator@shdfnd@physx@@@shdfnd@physx@@QAEIXZ 10012ce0 f i RTreeCooking.obj
 0001:00011da0       ?push@?$Stack@VNamedAllocator@shdfnd@physx@@@internal@shdfnd@physx@@QAEXHH@Z 10012da0 f i RTreeCooking.obj
 0001:00011e30       ?pushBack@?$Array@IVNamedAllocator@shdfnd@physx@@@shdfnd@physx@@QAEAAIABI@Z 10012e30 f i RTreeCooking.obj
 0001:00011ee0       ?pushBack@?$Array@UInterval@physx@@V?$InlineAllocator@$0CA@VNamedAllocator@shdfnd@physx@@@shdfnd@2@@shdfnd@physx@@QAEAAUInterval@3@ABU43@@Z 10012ee0 f i RTreeCooking.obj
 0001:00011fa0       ?pushBack@?$Array@UPxBounds3V@physx@@VNamedAllocator@shdfnd@2@@shdfnd@physx@@QAEAAUPxBounds3V@3@ABU43@@Z 10012fa0 f i RTreeCooking.obj
 0001:00012060       ?pushBack@?$Array@URTreeNodeNQ@physx@@VNamedAllocator@shdfnd@2@@shdfnd@physx@@QAEAAURTreeNodeNQ@3@ABU43@@Z 10013060 f i RTreeCooking.obj
 0001:00012110       ?pushBack@?$Array@URTreeNodeQ@Gu@physx@@VNamedAllocator@shdfnd@3@@shdfnd@physx@@QAEAAURTreeNodeQ@Gu@3@ABU453@@Z 10013110 f i RTreeCooking.obj
 0001:000121d0       ?pushBack@?$Array@VPxVec3@physx@@VNamedAllocator@shdfnd@2@@shdfnd@physx@@QAEAAVPxVec3@3@ABV43@@Z 100131d0 f i RTreeCooking.obj
 0001:00012280       ?recreate@?$Array@IVNamedAllocator@shdfnd@physx@@@shdfnd@physx@@IAEXI@Z 10013280 f i RTreeCooking.obj
 0001:00012390       ?recreate@?$Array@UPxBounds3V@physx@@VNamedAllocator@shdfnd@2@@shdfnd@physx@@IAEXI@Z 10013390 f i RTreeCooking.obj
 0001:000124a0       ?recreate@?$Array@URTreeNodeNQ@physx@@VNamedAllocator@shdfnd@2@@shdfnd@physx@@IAEXI@Z 100134a0 f i RTreeCooking.obj
 0001:000125b0       ?recreate@?$Array@URTreeNodeQ@Gu@physx@@VNamedAllocator@shdfnd@3@@shdfnd@physx@@IAEXI@Z 100135b0 f i RTreeCooking.obj
 0001:000126b0       ?recreate@?$Array@VPxVec3@physx@@VNamedAllocator@shdfnd@2@@shdfnd@physx@@IAEXI@Z 100136b0 f i RTreeCooking.obj
 0001:000127b0       ?replaceWithLast@?$Array@UInterval@physx@@V?$InlineAllocator@$0CA@VNamedAllocator@shdfnd@physx@@@shdfnd@2@@shdfnd@physx@@QAEXI@Z 100137b0 f i RTreeCooking.obj
 0001:00012860       ?reserve@?$Array@IVNamedAllocator@shdfnd@physx@@@shdfnd@physx@@QAEXI@Z 10013860 f i RTreeCooking.obj
 0001:00012890       ?reserve@?$Array@UPxBounds3V@physx@@VNamedAllocator@shdfnd@2@@shdfnd@physx@@QAEXI@Z 10013890 f i RTreeCooking.obj
 0001:000128c0       ?reserve@?$Array@URTreeNodeNQ@physx@@VNamedAllocator@shdfnd@2@@shdfnd@physx@@QAEXI@Z 100138c0 f i RTreeCooking.obj
 0001:000128f0       ?reserve@?$Array@URTreeNodeQ@Gu@physx@@VNamedAllocator@shdfnd@3@@shdfnd@physx@@QAEXI@Z 100138f0 f i RTreeCooking.obj
 0001:00012920       ?reserve@?$Array@VPxVec3@physx@@VNamedAllocator@shdfnd@2@@shdfnd@physx@@QAEXI@Z 10013920 f i RTreeCooking.obj
 0001:00012950       ?resize@?$Array@IVNamedAllocator@shdfnd@physx@@@shdfnd@physx@@QAEXIABI@Z 10013950 f i RTreeCooking.obj
 0001:000129e0       ?resizeUninitialized@?$Array@URTreeNodeNQ@physx@@VNamedAllocator@shdfnd@2@@shdfnd@physx@@QAEXI@Z 100139e0 f i RTreeCooking.obj
 0001:00012a10       ?selectMax@intrinsics@physx@@YAMMM@Z 10013a10 f i RTreeCooking.obj
 0001:00012a50       ?selectMin@intrinsics@physx@@YAMMM@Z 10013a50 f i RTreeCooking.obj
 0001:00012a90       ?setEmpty@PxBounds3@physx@@QAEXXZ 10013a90 f i RTreeCooking.obj
 0001:00012b00       ?setLeaf@RTreeNodeQ@Gu@physx@@QAEX_N@Z 10013b00 f i RTreeCooking.obj
 0001:00012b50       ?size@?$Array@IVNamedAllocator@shdfnd@physx@@@shdfnd@physx@@QBEIXZ 10013b50 f i RTreeCooking.obj
 0001:00012b70       ?size@?$Array@UInterval@physx@@V?$InlineAllocator@$0CA@VNamedAllocator@shdfnd@physx@@@shdfnd@2@@shdfnd@physx@@QBEIXZ 10013b70 f i RTreeCooking.obj
 0001:00012b90       ?size@?$Array@URTreeNodeNQ@physx@@VNamedAllocator@shdfnd@2@@shdfnd@physx@@QBEIXZ 10013b90 f i RTreeCooking.obj
 0001:00012bb0       ?size@?$Array@URTreeNodeQ@Gu@physx@@VNamedAllocator@shdfnd@3@@shdfnd@physx@@QBEIXZ 10013bb0 f i RTreeCooking.obj
 0001:00012bd0       ?size@?$Array@VPxVec3@physx@@VNamedAllocator@shdfnd@2@@shdfnd@physx@@QBEIXZ 10013bd0 f i RTreeCooking.obj
 0001:00012bf0       ?sort4@SubSortQuick@physx@@QAEXPIAIIAAV?$Array@URTreeNodeNQ@physx@@VNamedAllocator@shdfnd@2@@shdfnd@2@AAIAAUPxBounds3V@2@I@Z 10013bf0 f i RTreeCooking.obj
 0001:00013460       ?sort4@SubSortSAH@physx@@QAEXPAIIAAV?$Array@URTreeNodeNQ@physx@@VNamedAllocator@shdfnd@2@@shdfnd@2@AAIIPAURTreeNodeNQ@2@@Z 10014460 f i RTreeCooking.obj
 0001:00014210       ?split@SubSortSAH@physx@@QAEIPAII@Z 10015210 f i RTreeCooking.obj
 0001:00014e90       _fabsf                     10015e90 f i RTreeCooking.obj
 0001:00014ec0       ??0TriangleMeshBuilder@physx@@QAE@AAVTriangleMeshData@Gu@1@ABUPxCookingParams@1@@Z 10015ec0 f   TriangleMeshBuilder.obj
 0001:00014f00       ??1TriangleMeshBuilder@physx@@UAE@XZ 10015f00 f   TriangleMeshBuilder.obj
 0001:00014f20       ?cleanMesh@TriangleMeshBuilder@physx@@QAE_N_NPAW4Enum@PxTriangleMeshCookingResult@2@@Z 10015f20 f   TriangleMeshBuilder.obj
 0001:000154c0       ?remapTopology@TriangleMeshBuilder@physx@@QAEXPBI@Z 100164c0 f   TriangleMeshBuilder.obj
 0001:00015760       ?createSharedEdgeData@TriangleMeshBuilder@physx@@QAEX_N0@Z 10016760 f   TriangleMeshBuilder.obj
 0001:00015d50       ?recordTriangleIndices@TriangleMeshBuilder@physx@@QAEXXZ 10016d50 f   TriangleMeshBuilder.obj
 0001:00015ea0       ?createGRBMidPhaseAndData@TriangleMeshBuilder@physx@@QAEXI@Z 10016ea0 f   TriangleMeshBuilder.obj
 0001:000160f0       ?createGRBData@TriangleMeshBuilder@physx@@QAEXXZ 100170f0 f   TriangleMeshBuilder.obj
 0001:000163a0       ?loadFromDesc@TriangleMeshBuilder@physx@@QAE_NABVPxTriangleMeshDesc@2@PAW4Enum@PxTriangleMeshCookingResult@2@_N@Z 100173a0 f   TriangleMeshBuilder.obj
 0001:000165a0       ?save@TriangleMeshBuilder@physx@@QBE_NAAVPxOutputStream@2@_NABUPxCookingParams@2@@Z 100175a0 f   TriangleMeshBuilder.obj
 0001:00016cb0       ?checkMeshIndicesSize@TriangleMeshBuilder@physx@@QAEXXZ 10017cb0 f   TriangleMeshBuilder.obj
 0001:00016e40       ?computeLocalBounds@TriangleMeshBuilder@physx@@IAEXXZ 10017e40 f   TriangleMeshBuilder.obj
 0001:00016f50       ?importMesh@TriangleMeshBuilder@physx@@IAE_NABVPxTriangleMeshDesc@2@ABUPxCookingParams@2@PAW4Enum@PxTriangleMeshCookingResult@2@_N@Z 10017f50 f   TriangleMeshBuilder.obj
 0001:000173c0       ?releaseEdgeList@TriangleMeshBuilder@physx@@IAEXXZ 100183c0 f   TriangleMeshBuilder.obj
 0001:00017410       ?createEdgeList@TriangleMeshBuilder@physx@@IAEXXZ 10018410 f   TriangleMeshBuilder.obj
 0001:00017520       ??0RTreeTriangleMeshBuilder@physx@@QAE@ABUPxCookingParams@1@@Z 10018520 f   TriangleMeshBuilder.obj
 0001:00017560       ??1RTreeTriangleMeshBuilder@physx@@UAE@XZ 10018560 f   TriangleMeshBuilder.obj
 0001:00017590       ?createMidPhaseStructure@RTreeTriangleMeshBuilder@physx@@UAEXXZ 10018590 f   TriangleMeshBuilder.obj
 0001:00017740       ?saveMidPhaseStructure@RTreeTriangleMeshBuilder@physx@@UBEXAAVPxOutputStream@2@@Z 10018740 f   TriangleMeshBuilder.obj
 0001:00017770       ??0BV4TriangleMeshBuilder@physx@@QAE@ABUPxCookingParams@1@@Z 10018770 f   TriangleMeshBuilder.obj
 0001:000177b0       ??1BV4TriangleMeshBuilder@physx@@UAE@XZ 100187b0 f   TriangleMeshBuilder.obj
 0001:000177e0       ?createMidPhaseStructure@BV4TriangleMeshBuilder@physx@@UAEXXZ 100187e0 f   TriangleMeshBuilder.obj
 0001:00017af0       ?saveMidPhaseStructure@BV4TriangleMeshBuilder@physx@@UBEXAAVPxOutputStream@2@@Z 10018af0 f   TriangleMeshBuilder.obj
 0001:00017d50       ?onMeshIndexFormatChange@BV4TriangleMeshBuilder@physx@@UAEXXZ 10018d50 f   TriangleMeshBuilder.obj
 0001:00017dc0       ?createMidPhaseStructure@BV32TriangleMeshBuilder@physx@@SAXABUPxCookingParams@2@AAVTriangleMeshData@Gu@2@AAVBV32Tree@52@@Z 10018dc0 f   TriangleMeshBuilder.obj
 0001:00017fc0       ?saveMidPhaseStructure@BV32TriangleMeshBuilder@physx@@SAXPAVBV32Tree@Gu@2@AAVPxOutputStream@2@@Z 10018fc0 f   TriangleMeshBuilder.obj
 0001:00018740       ?findSharpVertices@GrbTrimeshCookerHelper@physx@@YAXAAV?$Array@USortedNeighbor@GrbTrimeshCookerHelper@physx@@VNamedAllocator@shdfnd@3@@shdfnd@2@AAV?$Array@USharpEdgeRange@GrbTrimeshCookerHelper@physx@@VNamedAllocator@shdfnd@3@@42@PBUuint3@2@PBUuint4@2@II@Z 10019740 f   TriangleMeshBuilder.obj
 0001:00018ad0       ?buildVertexConnectionNew_p1@GrbTrimeshCookerHelper@physx@@YAIAAV?$Array@USortedNeighbor@GrbTrimeshCookerHelper@physx@@VNamedAllocator@shdfnd@3@@shdfnd@2@AAV?$Array@USharpEdgeRange@GrbTrimeshCookerHelper@physx@@VNamedAllocator@shdfnd@3@@42@PBUuint3@2@PBUuint4@2@II@Z 10019ad0 f   TriangleMeshBuilder.obj
 0001:00018b40       ?buildVertexConnectionNew_p2@GrbTrimeshCookerHelper@physx@@YAXPAI00AAV?$Array@USortedNeighbor@GrbTrimeshCookerHelper@physx@@VNamedAllocator@shdfnd@3@@shdfnd@2@AAV?$Array@USharpEdgeRange@GrbTrimeshCookerHelper@physx@@VNamedAllocator@shdfnd@3@@42@I@Z 10019b40 f   TriangleMeshBuilder.obj
 0001:00019e30       ??$?2V?$ReflectionAllocator@VBV32Tree@Gu@physx@@@shdfnd@physx@@@UserAllocated@shdfnd@physx@@SAPAXIV?$ReflectionAllocator@VBV32Tree@Gu@physx@@@12@PBDH@Z 1001ae30 f i TriangleMeshBuilder.obj
 0001:00019e50       ??$?2V?$ReflectionAllocator@VEdgeListBuilder@Gu@physx@@@shdfnd@physx@@@UserAllocated@shdfnd@physx@@SAPAXIV?$ReflectionAllocator@VEdgeListBuilder@Gu@physx@@@12@PBDH@Z 1001ae50 f i TriangleMeshBuilder.obj
 0001:00019e70       ??$?_UE@@YAPAXIV?$ReflectionAllocator@E@shdfnd@physx@@PBDH@Z 1001ae70 f i TriangleMeshBuilder.obj
 0001:00019e90       ??$?_UG@@YAPAXIV?$ReflectionAllocator@G@shdfnd@physx@@PBDH@Z 1001ae90 f i TriangleMeshBuilder.obj
 0001:00019eb0       ??$?_UI@@YAPAXIV?$ReflectionAllocator@I@shdfnd@physx@@PBDH@Z 1001aeb0 f i TriangleMeshBuilder.obj
 0001:00019ed0       ??$PX_UNUSED@U?$TriangleT@I@Gu@physx@@@@YAXABU?$TriangleT@I@Gu@physx@@@Z 1001aed0 f i TriangleMeshBuilder.obj
 0001:00019ee0       ??$median3@UEdgeTriLookup@physx@@$$CBU?$Less@UEdgeTriLookup@physx@@@shdfnd@2@@internal@shdfnd@physx@@YAXPAUEdgeTriLookup@2@HHABU?$Less@UEdgeTriLookup@physx@@@12@@Z 1001aee0 f i TriangleMeshBuilder.obj
 0001:00019ff0       ??$median3@USortedNeighbor@GrbTrimeshCookerHelper@physx@@$$CBU?$Less@USortedNeighbor@GrbTrimeshCookerHelper@physx@@@shdfnd@3@@internal@shdfnd@physx@@YAXPAUSortedNeighbor@GrbTrimeshCookerHelper@2@HHABU?$Less@USortedNeighbor@GrbTrimeshCookerHelper@physx@@@12@@Z 1001aff0 f i TriangleMeshBuilder.obj
 0001:0001a100       ??$partition@UEdgeTriLookup@physx@@$$CBU?$Less@UEdgeTriLookup@physx@@@shdfnd@2@@internal@shdfnd@physx@@YAHPAUEdgeTriLookup@2@HHABU?$Less@UEdgeTriLookup@physx@@@12@@Z 1001b100 f i TriangleMeshBuilder.obj
 0001:0001a2c0       ??$partition@USortedNeighbor@GrbTrimeshCookerHelper@physx@@$$CBU?$Less@USortedNeighbor@GrbTrimeshCookerHelper@physx@@@shdfnd@3@@internal@shdfnd@physx@@YAHPAUSortedNeighbor@GrbTrimeshCookerHelper@2@HHABU?$Less@USortedNeighbor@GrbTrimeshCookerHelper@physx@@@12@@Z 1001b2c0 f i TriangleMeshBuilder.obj
 0001:0001a480       ??$smallSort@UEdgeTriLookup@physx@@$$CBU?$Less@UEdgeTriLookup@physx@@@shdfnd@2@@internal@shdfnd@physx@@YAXPAUEdgeTriLookup@2@HHABU?$Less@UEdgeTriLookup@physx@@@12@@Z 1001b480 f i TriangleMeshBuilder.obj
 0001:0001a540       ??$smallSort@USortedNeighbor@GrbTrimeshCookerHelper@physx@@$$CBU?$Less@USortedNeighbor@GrbTrimeshCookerHelper@physx@@@shdfnd@3@@internal@shdfnd@physx@@YAXPAUSortedNeighbor@GrbTrimeshCookerHelper@2@HHABU?$Less@USortedNeighbor@GrbTrimeshCookerHelper@physx@@@12@@Z 1001b540 f i TriangleMeshBuilder.obj
 0001:0001a600       ??$sort@UEdgeTriLookup@physx@@@shdfnd@physx@@YAXPAUEdgeTriLookup@1@I@Z 1001b600 f i TriangleMeshBuilder.obj
 0001:0001a640       ??$sort@UEdgeTriLookup@physx@@U?$Less@UEdgeTriLookup@physx@@@shdfnd@2@VNamedAllocator@42@@shdfnd@physx@@YAXPAUEdgeTriLookup@1@IABU?$Less@UEdgeTriLookup@physx@@@01@ABVNamedAllocator@01@I@Z 1001b640 f i TriangleMeshBuilder.obj
 0001:0001a900       ??$sort@USortedNeighbor@GrbTrimeshCookerHelper@physx@@@shdfnd@physx@@YAXPAUSortedNeighbor@GrbTrimeshCookerHelper@1@I@Z 1001b900 f i TriangleMeshBuilder.obj
 0001:0001a940       ??$sort@USortedNeighbor@GrbTrimeshCookerHelper@physx@@U?$Less@USortedNeighbor@GrbTrimeshCookerHelper@physx@@@shdfnd@3@VNamedAllocator@53@@shdfnd@physx@@YAXPAUSortedNeighbor@GrbTrimeshCookerHelper@1@IABU?$Less@USortedNeighbor@GrbTrimeshCookerHelper@physx@@@01@ABVNamedAllocator@01@I@Z 1001b940 f i TriangleMeshBuilder.obj
 0001:0001ac00       ??$swap@UEdgeTriLookup@physx@@@shdfnd@physx@@YAXAAUEdgeTriLookup@1@0@Z 1001bc00 f i TriangleMeshBuilder.obj
 0001:0001ac60       ??$swap@USortedNeighbor@GrbTrimeshCookerHelper@physx@@@shdfnd@physx@@YAXAAUSortedNeighbor@GrbTrimeshCookerHelper@1@0@Z 1001bc60 f i TriangleMeshBuilder.obj
 0001:0001acc0       ??0?$Array@IVNamedAllocator@shdfnd@physx@@@shdfnd@physx@@QAE@ABVNamedAllocator@12@@Z 1001bcc0 f i TriangleMeshBuilder.obj
 0001:0001ad10       ??0?$Array@USharpEdgeRange@GrbTrimeshCookerHelper@physx@@VNamedAllocator@shdfnd@3@@shdfnd@physx@@QAE@ABVNamedAllocator@12@@Z 1001bd10 f i TriangleMeshBuilder.obj
 0001:0001ad60       ??0?$Array@USortedNeighbor@GrbTrimeshCookerHelper@physx@@VNamedAllocator@shdfnd@3@@shdfnd@physx@@QAE@ABVNamedAllocator@12@@Z 1001bd60 f i TriangleMeshBuilder.obj
 0001:0001adb0       ??0?$PxFlags@W4Enum@PxMeshFlag@physx@@G@physx@@QAE@ABV01@@Z 1001bdb0 f i TriangleMeshBuilder.obj
 0001:0001ade0       ??0?$PxFlags@W4Enum@PxMeshFlag@physx@@G@physx@@QAE@W4Enum@PxMeshFlag@1@@Z 1001bde0 f i TriangleMeshBuilder.obj
 0001:0001ae00       ??0?$PxFlags@W4Enum@PxMeshFlag@physx@@G@physx@@QAE@XZ 1001be00 f i TriangleMeshBuilder.obj
 0001:0001ae20       ??0?$PxFlags@W4Enum@PxMeshPreprocessingFlag@physx@@I@physx@@QAE@ABV01@@Z 1001be20 f i TriangleMeshBuilder.obj
 0001:0001ae40       ??0?$ReflectionAllocator@E@shdfnd@physx@@QAE@PBD@Z 1001be40 f i TriangleMeshBuilder.obj
 0001:0001ae60       ??0?$ReflectionAllocator@G@shdfnd@physx@@QAE@PBD@Z 1001be60 f i TriangleMeshBuilder.obj
 0001:0001ae80       ??0?$ReflectionAllocator@I@shdfnd@physx@@QAE@PBD@Z 1001be80 f i TriangleMeshBuilder.obj
 0001:0001aea0       ??0?$ReflectionAllocator@VBV32Tree@Gu@physx@@@shdfnd@physx@@QAE@PBD@Z 1001bea0 f i TriangleMeshBuilder.obj
 0001:0001aec0       ??0?$ReflectionAllocator@VEdgeListBuilder@Gu@physx@@@shdfnd@physx@@QAE@PBD@Z 1001bec0 f i TriangleMeshBuilder.obj
 0001:0001aee0       ??0BV4TriangleData@Gu@physx@@QAE@XZ 1001bee0 f i TriangleMeshBuilder.obj
 0001:0001af40       ??0EDGELISTCREATE@Gu@physx@@QAE@XZ 1001bf40 f i TriangleMeshBuilder.obj
 0001:0001afb0       ??0PxPlane@physx@@QAE@ABVPxVec3@1@0@Z 1001bfb0 f i TriangleMeshBuilder.obj
 0001:0001b010       ??0PxSimpleTriangleMesh@physx@@QAE@ABV01@@Z 1001c010 f i TriangleMeshBuilder.obj
 0001:0001b080       ??0PxTriangleMeshDesc@physx@@QAE@ABV01@@Z 1001c080 f i TriangleMeshBuilder.obj
 0001:0001b0c0       ??0PxVec4@physx@@QAE@XZ    1001c0c0 f i TriangleMeshBuilder.obj
 0001:0001b0e0       ??0RTree@Gu@physx@@QAE@XZ  1001c0e0 f i TriangleMeshBuilder.obj
 0001:0001b170       ??0RTreeCookerRemap@physx@@QAE@I@Z 1001c170 f i TriangleMeshBuilder.obj
 0001:0001b1b0       ??0RTreeTriangleData@Gu@physx@@QAE@XZ 1001c1b0 f i TriangleMeshBuilder.obj
 0001:0001b200       ??0RemapCallback@RTreeCooker@physx@@QAE@XZ 1001c200 f i TriangleMeshBuilder.obj
 0001:0001b220       ??0SharpEdgeRange@GrbTrimeshCookerHelper@physx@@QAE@II@Z 1001c220 f i TriangleMeshBuilder.obj
 0001:0001b250       ??0SharpEdgeRange@GrbTrimeshCookerHelper@physx@@QAE@XZ 1001c250 f i TriangleMeshBuilder.obj
 0001:0001b280       ??0SortedNeighbor@GrbTrimeshCookerHelper@physx@@QAE@II_N@Z 1001c280 f i TriangleMeshBuilder.obj
 0001:0001b2c0       ??0TriangleMeshData@Gu@physx@@QAE@XZ 1001c2c0 f i TriangleMeshBuilder.obj
 0001:0001b3d0       ??1?$Array@USharpEdgeRange@GrbTrimeshCookerHelper@physx@@VNamedAllocator@shdfnd@3@@shdfnd@physx@@QAE@XZ 1001c3d0 f i TriangleMeshBuilder.obj
 0001:0001b440       ??1?$Array@USortedNeighbor@GrbTrimeshCookerHelper@physx@@VNamedAllocator@shdfnd@3@@shdfnd@physx@@QAE@XZ 1001c440 f i TriangleMeshBuilder.obj
 0001:0001b4b0       ??1BV4TriangleData@Gu@physx@@UAE@XZ 1001c4b0 f i TriangleMeshBuilder.obj
 0001:0001b500       ??1RTree@Gu@physx@@QAE@XZ  1001c500 f i TriangleMeshBuilder.obj
 0001:0001b520       ??1RTreeCookerRemap@physx@@UAE@XZ 1001c520 f i TriangleMeshBuilder.obj
 0001:0001b540       ??1RTreeTriangleData@Gu@physx@@UAE@XZ 1001c540 f i TriangleMeshBuilder.obj
 0001:0001b570       ??1RemapCallback@RTreeCooker@physx@@UAE@XZ 1001c570 f i TriangleMeshBuilder.obj
 0001:0001b590       ??1TriangleMeshData@Gu@physx@@UAE@XZ 1001c590 f i TriangleMeshBuilder.obj
 0001:0001b860       ??3UserAllocated@shdfnd@physx@@SAXPAX@Z 1001c860 f i TriangleMeshBuilder.obj
 0001:0001b890       ??A?$Array@USharpEdgeRange@GrbTrimeshCookerHelper@physx@@VNamedAllocator@shdfnd@3@@shdfnd@physx@@QAEAAUSharpEdgeRange@GrbTrimeshCookerHelper@2@I@Z 1001c890 f i TriangleMeshBuilder.obj
 0001:0001b900       ??A?$Array@USortedNeighbor@GrbTrimeshCookerHelper@physx@@VNamedAllocator@shdfnd@3@@shdfnd@physx@@QAEAAUSortedNeighbor@GrbTrimeshCookerHelper@2@I@Z 1001c900 f i TriangleMeshBuilder.obj
 0001:0001b970       ??APxVec3@physx@@QAEAAMI@Z 1001c970 f i TriangleMeshBuilder.obj
 0001:0001b9e0       ??B?$PxFlags@W4Enum@PxMeshFlag@physx@@G@physx@@QBE_NXZ 1001c9e0 f i TriangleMeshBuilder.obj
 0001:0001ba10       ??B?$PxFlags@W4Enum@PxMeshPreprocessingFlag@physx@@I@physx@@QBE_NXZ 1001ca10 f i TriangleMeshBuilder.obj
 0001:0001ba40       ??DPxVec3@physx@@QBE?AV01@M@Z 1001ca40 f i TriangleMeshBuilder.obj
 0001:0001bab0       ??GPxVec3@physx@@QBE?AV01@ABV01@@Z 1001cab0 f i TriangleMeshBuilder.obj
 0001:0001bb20       ??I?$PxFlags@W4Enum@PxMeshFlag@physx@@G@physx@@QBE?AV01@W4Enum@PxMeshFlag@1@@Z 1001cb20 f i TriangleMeshBuilder.obj
 0001:0001bb70       ??I?$PxFlags@W4Enum@PxMeshPreprocessingFlag@physx@@I@physx@@QBE?AV01@W4Enum@PxMeshPreprocessingFlag@1@@Z 1001cb70 f i TriangleMeshBuilder.obj
 0001:0001bbb0       ??MEdgeTriLookup@physx@@QBE_NABU01@@Z 1001cbb0 f i TriangleMeshBuilder.obj
 0001:0001bc10       ??MSortedNeighbor@GrbTrimeshCookerHelper@physx@@QBE_NABU012@@Z 1001cc10 f i TriangleMeshBuilder.obj
 0001:0001bcb0       ??NEdgeTriLookup@physx@@QBE_NABU01@@Z 1001ccb0 f i TriangleMeshBuilder.obj
 0001:0001bd10       ??R?$Less@UEdgeTriLookup@physx@@@shdfnd@physx@@QBE_NABUEdgeTriLookup@2@0@Z 1001cd10 f i TriangleMeshBuilder.obj
 0001:0001bd30       ??R?$Less@USortedNeighbor@GrbTrimeshCookerHelper@physx@@@shdfnd@physx@@QBE_NABUSortedNeighbor@GrbTrimeshCookerHelper@2@0@Z 1001cd30 f i TriangleMeshBuilder.obj
 0001:0001bd50       ??S?$PxFlags@W4Enum@PxMeshFlag@physx@@G@physx@@QBE?AV01@XZ 1001cd50 f i TriangleMeshBuilder.obj
 0001:0001bd90       ??Sphysx@@YA?AV?$PxFlags@W4Enum@PxMeshFlag@physx@@G@0@W4Enum@PxMeshFlag@0@@Z 1001cd90 f i TriangleMeshBuilder.obj
 0001:0001bdc0       ??_4?$PxFlags@W4Enum@PxMeshFlag@physx@@G@physx@@QAEAAV01@ABV01@@Z 1001cdc0 f i TriangleMeshBuilder.obj
 0001:0001bdf0       ??_GBV32Tree@Gu@physx@@QAEPAXI@Z 1001cdf0 f i TriangleMeshBuilder.obj
 0001:0001be50       ??_EBV4TriangleData@Gu@physx@@UAEPAXI@Z 1001ce50 f i TriangleMeshBuilder.obj
 0001:0001be50       ??_GBV4TriangleData@Gu@physx@@UAEPAXI@Z 1001ce50 f i TriangleMeshBuilder.obj
 0001:0001beb0       ??_GBV4TriangleMeshBuilder@physx@@UAEPAXI@Z 1001ceb0 f i TriangleMeshBuilder.obj
 0001:0001beb0       ??_EBV4TriangleMeshBuilder@physx@@UAEPAXI@Z 1001ceb0 f i TriangleMeshBuilder.obj
 0001:0001bef0       ??_GEdgeListBuilder@Gu@physx@@QAEPAXI@Z 1001cef0 f i TriangleMeshBuilder.obj
 0001:0001bf50       ??_GRTreeCookerRemap@physx@@UAEPAXI@Z 1001cf50 f i TriangleMeshBuilder.obj
 0001:0001bf50       ??_ERTreeCookerRemap@physx@@UAEPAXI@Z 1001cf50 f i TriangleMeshBuilder.obj
 0001:0001bf90       ??_ERTreeTriangleData@Gu@physx@@UAEPAXI@Z 1001cf90 f i TriangleMeshBuilder.obj
 0001:0001bf90       ??_GRTreeTriangleData@Gu@physx@@UAEPAXI@Z 1001cf90 f i TriangleMeshBuilder.obj
 0001:0001bff0       ??_GRTreeTriangleMeshBuilder@physx@@UAEPAXI@Z 1001cff0 f i TriangleMeshBuilder.obj
 0001:0001bff0       ??_ERTreeTriangleMeshBuilder@physx@@UAEPAXI@Z 1001cff0 f i TriangleMeshBuilder.obj
 0001:0001c030       ??_ERemapCallback@RTreeCooker@physx@@UAEPAXI@Z 1001d030 f i TriangleMeshBuilder.obj
 0001:0001c030       ??_GRemapCallback@RTreeCooker@physx@@UAEPAXI@Z 1001d030 f i TriangleMeshBuilder.obj
 0001:0001c070       ??_GTriangleMeshBuilder@physx@@UAEPAXI@Z 1001d070 f i TriangleMeshBuilder.obj
 0001:0001c070       ??_ETriangleMeshBuilder@physx@@UAEPAXI@Z 1001d070 f i TriangleMeshBuilder.obj
 0001:0001c0b0       ??_GTriangleMeshData@Gu@physx@@UAEPAXI@Z 1001d0b0 f i TriangleMeshBuilder.obj
 0001:0001c0b0       ??_ETriangleMeshData@Gu@physx@@UAEPAXI@Z 1001d0b0 f i TriangleMeshBuilder.obj
 0001:0001c110       ?HasActiveEdge01@EdgeTriangleAC@Gu@physx@@SAHABUEdgeTriangleData@23@@Z 1001d110 f i TriangleMeshBuilder.obj
 0001:0001c130       ?HasActiveEdge12@EdgeTriangleAC@Gu@physx@@SAHABUEdgeTriangleData@23@@Z 1001d130 f i TriangleMeshBuilder.obj
 0001:0001c150       ?HasActiveEdge20@EdgeTriangleAC@Gu@physx@@SAHABUEdgeTriangleData@23@@Z 1001d150 f i TriangleMeshBuilder.obj
 0001:0001c170       ?LeafSetData@Gu@physx@@YAIII@Z 1001d170 f i TriangleMeshBuilder.obj
 0001:0001c240       ?PxRecipSqrt@physx@@YAMM@Z 1001d240 f i TriangleMeshBuilder.obj
 0001:0001c260       ?SetData@LeafTriangles@Gu@physx@@QAEXII@Z 1001d260 f i TriangleMeshBuilder.obj
 0001:0001c290       ?WriteDwordBuffer@physx@@YAXPBII_NAAVPxOutputStream@1@@Z 1001d290 f i TriangleMeshBuilder.obj
 0001:0001c2c0       ?allocate@?$Array@USharpEdgeRange@GrbTrimeshCookerHelper@physx@@VNamedAllocator@shdfnd@3@@shdfnd@physx@@IAEPAUSharpEdgeRange@GrbTrimeshCookerHelper@3@I@Z 1001d2c0 f i TriangleMeshBuilder.obj
 0001:0001c340       ?allocate@?$Array@USortedNeighbor@GrbTrimeshCookerHelper@physx@@VNamedAllocator@shdfnd@3@@shdfnd@physx@@IAEPAUSortedNeighbor@GrbTrimeshCookerHelper@3@I@Z 1001d340 f i TriangleMeshBuilder.obj
 0001:0001c3c0       ?allocate@?$ReflectionAllocator@E@shdfnd@physx@@QAEPAXIPBDH@Z 1001d3c0 f i TriangleMeshBuilder.obj
 0001:0001c420       ?allocate@?$ReflectionAllocator@G@shdfnd@physx@@QAEPAXIPBDH@Z 1001d420 f i TriangleMeshBuilder.obj
 0001:0001c480       ?allocate@?$ReflectionAllocator@I@shdfnd@physx@@QAEPAXIPBDH@Z 1001d480 f i TriangleMeshBuilder.obj
 0001:0001c4e0       ?allocate@?$ReflectionAllocator@VBV32Tree@Gu@physx@@@shdfnd@physx@@QAEPAXIPBDH@Z 1001d4e0 f i TriangleMeshBuilder.obj
 0001:0001c540       ?allocate@?$ReflectionAllocator@VEdgeListBuilder@Gu@physx@@@shdfnd@physx@@QAEPAXIPBDH@Z 1001d540 f i TriangleMeshBuilder.obj
 0001:0001c5a0       ?allocateMaterials@TriangleMeshData@Gu@physx@@QAEPAGXZ 1001d5a0 f i TriangleMeshBuilder.obj
 0001:0001c6b0       ?allocateTriangles@TriangleMeshData@Gu@physx@@QAEPAXI_NI@Z 1001d6b0 f i TriangleMeshBuilder.obj
 0001:0001c8a0       ?allocateVertices@TriangleMeshData@Gu@physx@@QAEPAVPxVec3@3@I@Z 1001d8a0 f i TriangleMeshBuilder.obj
 0001:0001c960       ?begin@?$Array@USortedNeighbor@GrbTrimeshCookerHelper@physx@@VNamedAllocator@shdfnd@3@@shdfnd@physx@@QAEPAUSortedNeighbor@GrbTrimeshCookerHelper@3@XZ 1001d960 f i TriangleMeshBuilder.obj
 0001:0001c980       ?capacity@?$Array@USharpEdgeRange@GrbTrimeshCookerHelper@physx@@VNamedAllocator@shdfnd@3@@shdfnd@physx@@QBEIXZ 1001d980 f i TriangleMeshBuilder.obj
 0001:0001c9a0       ?capacity@?$Array@USortedNeighbor@GrbTrimeshCookerHelper@physx@@VNamedAllocator@shdfnd@3@@shdfnd@physx@@QBEIXZ 1001d9a0 f i TriangleMeshBuilder.obj
 0001:0001c9c0       ?capacityIncrement@?$Array@USortedNeighbor@GrbTrimeshCookerHelper@physx@@VNamedAllocator@shdfnd@3@@shdfnd@physx@@IBEIXZ 1001d9c0 f i TriangleMeshBuilder.obj
 0001:0001ca00       ?copy@?$Array@USharpEdgeRange@GrbTrimeshCookerHelper@physx@@VNamedAllocator@shdfnd@3@@shdfnd@physx@@KAXPAUSharpEdgeRange@GrbTrimeshCookerHelper@3@0PBU453@@Z 1001da00 f i TriangleMeshBuilder.obj
 0001:0001cac0       ?copy@?$Array@USortedNeighbor@GrbTrimeshCookerHelper@physx@@VNamedAllocator@shdfnd@3@@shdfnd@physx@@KAXPAUSortedNeighbor@GrbTrimeshCookerHelper@3@0PBU453@@Z 1001dac0 f i TriangleMeshBuilder.obj
 0001:0001cb90       ?create@?$Array@USharpEdgeRange@GrbTrimeshCookerHelper@physx@@VNamedAllocator@shdfnd@3@@shdfnd@physx@@KAXPAUSharpEdgeRange@GrbTrimeshCookerHelper@3@0ABU453@@Z 1001db90 f i TriangleMeshBuilder.obj
 0001:0001cc40       ?cross@PxVec3@physx@@QBE?AV12@ABV12@@Z 1001dc40 f i TriangleMeshBuilder.obj
 0001:0001cd00       ?deallocate@?$AlignedAllocator@$0IA@VNonTrackingAllocator@shdfnd@physx@@@shdfnd@physx@@QAEXPAX@Z 1001dd00 f i TriangleMeshBuilder.obj
 0001:0001cd50       ?deallocate@?$Array@USharpEdgeRange@GrbTrimeshCookerHelper@physx@@VNamedAllocator@shdfnd@3@@shdfnd@physx@@IAEXPAX@Z 1001dd50 f i TriangleMeshBuilder.obj
 0001:0001cd70       ?deallocate@?$Array@USortedNeighbor@GrbTrimeshCookerHelper@physx@@VNamedAllocator@shdfnd@3@@shdfnd@physx@@IAEXPAX@Z 1001dd70 f i TriangleMeshBuilder.obj
 0001:0001cd90       ?deallocate@NonTrackingAllocator@shdfnd@physx@@QAEXPAX@Z 1001dd90 f i TriangleMeshBuilder.obj
 0001:0001cdd0       ?destroy@?$Array@USharpEdgeRange@GrbTrimeshCookerHelper@physx@@VNamedAllocator@shdfnd@3@@shdfnd@physx@@KAXPAUSharpEdgeRange@GrbTrimeshCookerHelper@3@0@Z 1001ddd0 f i TriangleMeshBuilder.obj
 0001:0001ce00       ?destroy@?$Array@USortedNeighbor@GrbTrimeshCookerHelper@physx@@VNamedAllocator@shdfnd@3@@shdfnd@physx@@KAXPAUSortedNeighbor@GrbTrimeshCookerHelper@3@0@Z 1001de00 f i TriangleMeshBuilder.obj
 0001:0001ce30       ?distance@PxPlane@physx@@QBEMABVPxVec3@2@@Z 1001de30 f i TriangleMeshBuilder.obj
 0001:0001ce70       ?dot@PxVec3@physx@@QBEMABV12@@Z 1001de70 f i TriangleMeshBuilder.obj
 0001:0001ced0       ?findEdgeCCW@?$TriangleT@I@Gu@physx@@QBEEII@Z 1001ded0 f i TriangleMeshBuilder.obj
 0001:0001d040       ?gatherStrided@Cooking@physx@@SAXPBXPAXIII@Z 1001e040 f i TriangleMeshBuilder.obj
 0001:0001d0b0       ?getEdgeToTriangles@EdgeList@Gu@physx@@QBEPBUEdgeDescData@23@XZ 1001e0b0 f i TriangleMeshBuilder.obj
 0001:0001d0d0       ?getEdgeTriangle@EdgeList@Gu@physx@@QBEABUEdgeTriangleData@23@I@Z 1001e0d0 f i TriangleMeshBuilder.obj
 0001:0001d0f0       ?getEdges@EdgeList@Gu@physx@@QBEPBUEdgeData@23@XZ 1001e0f0 f i TriangleMeshBuilder.obj
 0001:0001d110       ?getFacesByEdges@EdgeList@Gu@physx@@QBEPBIXZ 1001e110 f i TriangleMeshBuilder.obj
 0001:0001d130       ?getFoundation@shdfnd@physx@@YAAAVFoundation@12@XZ 1001e130 f i TriangleMeshBuilder.obj
 0001:0001d140       ?getMidphaseID@BV4TriangleMeshBuilder@physx@@UBE?AW4Enum@PxMeshMidPhase@2@XZ 1001e140 f i TriangleMeshBuilder.obj
 0001:0001d160       ?getMidphaseID@RTreeTriangleMeshBuilder@physx@@UBE?AW4Enum@PxMeshMidPhase@2@XZ 1001e160 f i TriangleMeshBuilder.obj
 0001:0001d170       ?getName@?$ReflectionAllocator@E@shdfnd@physx@@CAPBDXZ 1001e170 f i TriangleMeshBuilder.obj
 0001:0001d1c0       ?getName@?$ReflectionAllocator@G@shdfnd@physx@@CAPBDXZ 1001e1c0 f i TriangleMeshBuilder.obj
 0001:0001d210       ?getName@?$ReflectionAllocator@I@shdfnd@physx@@CAPBDXZ 1001e210 f i TriangleMeshBuilder.obj
 0001:0001d260       ?getName@?$ReflectionAllocator@VBV32Tree@Gu@physx@@@shdfnd@physx@@CAPBDXZ 1001e260 f i TriangleMeshBuilder.obj
 0001:0001d2b0       ?getName@?$ReflectionAllocator@VEdgeListBuilder@Gu@physx@@@shdfnd@physx@@CAPBDXZ 1001e2b0 f i TriangleMeshBuilder.obj
 0001:0001d300       ?getNbEdges@EdgeList@Gu@physx@@QBEIXZ 1001e300 f i TriangleMeshBuilder.obj
 0001:0001d320       ?getNbFaces@EdgeList@Gu@physx@@QBEIXZ 1001e320 f i TriangleMeshBuilder.obj
 0001:0001d340       ?getNormalized@PxVec3@physx@@QBE?AV12@XZ 1001e340 f i TriangleMeshBuilder.obj
 0001:0001d3f0       ?getRemap@SourceMesh@Gu@physx@@QBEPBIXZ 1001e3f0 f i TriangleMeshBuilder.obj
 0001:0001d410       ?getType@PxMidphaseDesc@physx@@QBE?AW4Enum@PxMeshMidPhase@2@XZ 1001e410 f i TriangleMeshBuilder.obj
 0001:0001d430       ?grow@?$Array@USharpEdgeRange@GrbTrimeshCookerHelper@physx@@VNamedAllocator@shdfnd@3@@shdfnd@physx@@IAEXI@Z 1001e430 f i TriangleMeshBuilder.obj
 0001:0001d4b0       ?grow@?$Array@USortedNeighbor@GrbTrimeshCookerHelper@physx@@VNamedAllocator@shdfnd@3@@shdfnd@physx@@IAEXI@Z 1001e4b0 f i TriangleMeshBuilder.obj
 0001:0001d530       ?growAndPushBack@?$Array@USortedNeighbor@GrbTrimeshCookerHelper@physx@@VNamedAllocator@shdfnd@3@@shdfnd@physx@@IAEAAUSortedNeighbor@GrbTrimeshCookerHelper@3@ABU453@@Z 1001e530 f i TriangleMeshBuilder.obj
 0001:0001d6c0       ?has16BitIndices@TriangleMeshData@Gu@physx@@QBE_NXZ 1001e6c0 f i TriangleMeshBuilder.obj
 0001:0001d6f0       ?initRemap@SourceMesh@Gu@physx@@QAEXXZ 1001e6f0 f i TriangleMeshBuilder.obj
 0001:0001d710       ?isArrayOfPOD@?$Array@USharpEdgeRange@GrbTrimeshCookerHelper@physx@@VNamedAllocator@shdfnd@3@@shdfnd@physx@@SA_NXZ 1001e710 f i TriangleMeshBuilder.obj
 0001:0001d720       ?isArrayOfPOD@?$Array@USortedNeighbor@GrbTrimeshCookerHelper@physx@@VNamedAllocator@shdfnd@3@@shdfnd@physx@@SA_NXZ 1001e720 f i TriangleMeshBuilder.obj
 0001:0001d730       ?isInUserMemory@?$Array@USharpEdgeRange@GrbTrimeshCookerHelper@physx@@VNamedAllocator@shdfnd@3@@shdfnd@physx@@QBEIXZ 1001e730 f i TriangleMeshBuilder.obj
 0001:0001d750       ?isInUserMemory@?$Array@USortedNeighbor@GrbTrimeshCookerHelper@physx@@VNamedAllocator@shdfnd@3@@shdfnd@physx@@QBEIXZ 1001e750 f i TriangleMeshBuilder.obj
 0001:0001d770       ?isValid@PxBVH33MidphaseDesc@physx@@QBE_NXZ 1001e770 f i TriangleMeshBuilder.obj
 0001:0001d7b0       ?isValid@PxBVH34MidphaseDesc@physx@@QBE_NXZ 1001e7b0 f i TriangleMeshBuilder.obj
 0001:0001d7e0       ?isValid@PxMidphaseDesc@physx@@QBE_NXZ 1001e7e0 f i TriangleMeshBuilder.obj
 0001:0001d830       ?isValid@PxSimpleTriangleMesh@physx@@QBE_NXZ 1001e830 f i TriangleMeshBuilder.obj
 0001:0001d900       ?isValid@PxTriangleMeshDesc@physx@@QBE_NXZ 1001e900 f i TriangleMeshBuilder.obj
 0001:0001d970       ?isZeroInit@?$Array@USharpEdgeRange@GrbTrimeshCookerHelper@physx@@VNamedAllocator@shdfnd@3@@shdfnd@physx@@KA_NABUSharpEdgeRange@GrbTrimeshCookerHelper@3@@Z 1001e970 f i TriangleMeshBuilder.obj
 0001:0001d9e0       ?littleEndian@shdfnd@physx@@YADXZ 1001e9e0 f i TriangleMeshBuilder.obj
 0001:0001da00       ?magnitudeSquared@PxVec3@physx@@QBEMXZ 1001ea00 f i TriangleMeshBuilder.obj
 0001:0001da60       ?name@type_info@@QBEPBDXZ  1001ea60 f i TriangleMeshBuilder.obj
 0001:0001da90       ?onMeshIndexFormatChange@TriangleMeshBuilder@physx@@UAEXXZ 1001ea90 f i TriangleMeshBuilder.obj
 0001:0001daa0       ?pushBack@?$Array@USortedNeighbor@GrbTrimeshCookerHelper@physx@@VNamedAllocator@shdfnd@3@@shdfnd@physx@@QAEAAUSortedNeighbor@GrbTrimeshCookerHelper@3@ABU453@@Z 1001eaa0 f i TriangleMeshBuilder.obj
 0001:0001db60       ?recipSqrt@intrinsics@physx@@YAMM@Z 1001eb60 f i TriangleMeshBuilder.obj
 0001:0001dbb0       ?recreate@?$Array@USharpEdgeRange@GrbTrimeshCookerHelper@physx@@VNamedAllocator@shdfnd@3@@shdfnd@physx@@IAEXI@Z 1001ebb0 f i TriangleMeshBuilder.obj
 0001:0001dcc0       ?recreate@?$Array@USortedNeighbor@GrbTrimeshCookerHelper@physx@@VNamedAllocator@shdfnd@3@@shdfnd@physx@@IAEXI@Z 1001ecc0 f i TriangleMeshBuilder.obj
 0001:0001ddc0       ?release@RTree@Gu@physx@@QAEXXZ 1001edc0 f i TriangleMeshBuilder.obj
 0001:0001de20       ?releaseRemap@SourceMesh@Gu@physx@@QAEXXZ 1001ee20 f i TriangleMeshBuilder.obj
 0001:0001de60       ?remap@RTreeCookerRemap@physx@@UAEXPAIII@Z 1001ee60 f i TriangleMeshBuilder.obj
 0001:0001e020       ?reserve@?$Array@USharpEdgeRange@GrbTrimeshCookerHelper@physx@@VNamedAllocator@shdfnd@3@@shdfnd@physx@@QAEXI@Z 1001f020 f i TriangleMeshBuilder.obj
 0001:0001e050       ?reserve@?$Array@USortedNeighbor@GrbTrimeshCookerHelper@physx@@VNamedAllocator@shdfnd@3@@shdfnd@physx@@QAEXI@Z 1001f050 f i TriangleMeshBuilder.obj
 0001:0001e080       ?resize@?$Array@USharpEdgeRange@GrbTrimeshCookerHelper@physx@@VNamedAllocator@shdfnd@3@@shdfnd@physx@@QAEXIABUSharpEdgeRange@GrbTrimeshCookerHelper@3@@Z 1001f080 f i TriangleMeshBuilder.obj
 0001:0001e110       ?resizeUninitialized@?$Array@USortedNeighbor@GrbTrimeshCookerHelper@physx@@VNamedAllocator@shdfnd@3@@shdfnd@physx@@QAEXI@Z 1001f110 f i TriangleMeshBuilder.obj
 0001:0001e140       ?setNbTriangles@SourceMesh@Gu@physx@@QAEXI@Z 1001f140 f i TriangleMeshBuilder.obj
 0001:0001e160       ?setNbVertices@SourceMesh@Gu@physx@@QAEXI@Z 1001f160 f i TriangleMeshBuilder.obj
 0001:0001e180       ?setPointers@SourceMesh@Gu@physx@@QAEXPAVIndTri32@23@PAVIndTri16@23@PBVPxVec3@3@@Z 1001f180 f i TriangleMeshBuilder.obj
 0001:0001e1c0       ?setTriangleAdjacency@TriangleMeshData@Gu@physx@@QAEXIII@Z 1001f1c0 f i TriangleMeshBuilder.obj
 0001:0001e240       ?size@?$Array@USortedNeighbor@GrbTrimeshCookerHelper@physx@@VNamedAllocator@shdfnd@3@@shdfnd@physx@@QBEIXZ 1001f240 f i TriangleMeshBuilder.obj
 0001:0001e260       ?to16@shdfnd@physx@@YAGI@Z 1001f260 f i TriangleMeshBuilder.obj
 0001:0001e2c0       ?writeChunk@physx@@YAXCCCCAAVPxOutputStream@1@@Z 1001f2c0 f i TriangleMeshBuilder.obj
 0001:0001e320       ?writeIntBuffer@physx@@YAXPBII_NAAVPxOutputStream@1@@Z 1001f320 f i TriangleMeshBuilder.obj
 0001:0001e350       _powf                      1001f350 f i TriangleMeshBuilder.obj
 0001:0001e390       _sqrtf                     1001f390 f i TriangleMeshBuilder.obj
 0001:0001e3c0       ??0BigConvexDataBuilder@physx@@QAE@PBUConvexHullData@Gu@1@PAVBigConvexData@1@PBVPxVec3@1@@Z 1001f3c0 f   BigConvexDataBuilder.obj
 0001:0001e3f0       ??1BigConvexDataBuilder@physx@@QAE@XZ 1001f3f0 f   BigConvexDataBuilder.obj
 0001:0001e400       ?precompute@BigConvexDataBuilder@physx@@QAE_NI@Z 1001f400 f   BigConvexDataBuilder.obj
 0001:0001e9d0       ?initialize@BigConvexDataBuilder@physx@@QAE_NXZ 1001f9d0 f   BigConvexDataBuilder.obj
 0001:0001ea20       ?save@BigConvexDataBuilder@physx@@QBE_NAAVPxOutputStream@2@_N@Z 1001fa20 f   BigConvexDataBuilder.obj
 0001:0001eb00       ?computeValencies@BigConvexDataBuilder@physx@@QAE_NABVConvexHullBuilder@2@@Z 1001fb00 f   BigConvexDataBuilder.obj
 0001:0001f0d0       ?saveValencies@BigConvexDataBuilder@physx@@QBE_NAAVPxOutputStream@2@_N@Z 100200d0 f   BigConvexDataBuilder.obj
 0001:0001f610       ??$?_UUValency@Gu@physx@@@@YAPAXIV?$ReflectionAllocator@UValency@Gu@physx@@@shdfnd@physx@@PBDH@Z 10020610 f i BigConvexDataBuilder.obj
 0001:0001f630       ??0?$ReflectionAllocator@UValency@Gu@physx@@@shdfnd@physx@@QAE@PBD@Z 10020630 f i BigConvexDataBuilder.obj
 0001:0001f650       ??B?$PxBitAndDataT@G$0IAAA@@physx@@QBEGXZ 10020650 f i BigConvexDataBuilder.obj
 0001:0001f670       ??_0PxVec3@physx@@QAEAAV01@M@Z 10020670 f i BigConvexDataBuilder.obj
 0001:0001f6f0       ?PxMemZero@physx@@YAPAXPAXI@Z 100206f0 f i BigConvexDataBuilder.obj
 0001:0001f710       ?PxSqrt@physx@@YAMM@Z      10020710 f i BigConvexDataBuilder.obj
 0001:0001f730       ?allocate@?$ReflectionAllocator@UValency@Gu@physx@@@shdfnd@physx@@QAEPAXIPBDH@Z 10020730 f i BigConvexDataBuilder.obj
 0001:0001f790       ?getName@?$ReflectionAllocator@UValency@Gu@physx@@@shdfnd@physx@@CAPBDXZ 10020790 f i BigConvexDataBuilder.obj
 0001:0001f7e0       ?magnitude@PxVec3@physx@@QBEMXZ 100207e0 f i BigConvexDataBuilder.obj
 0001:0001f810       ?normalize@PxVec3@physx@@QAEMXZ 10020810 f i BigConvexDataBuilder.obj
 0001:0001f860       ?precomputeSample@BigConvexDataBuilder@physx@@IAEXABVPxVec3@2@AAEM@Z 10020860 f i BigConvexDataBuilder.obj
 0001:0001fa40       ?sqrt@intrinsics@physx@@YAMM@Z 10020a40 f i BigConvexDataBuilder.obj
 0001:0001fab0       ??0ConvexHullBuilder@physx@@QAE@PAUConvexHullData@Gu@1@_N@Z 10020ab0 f   ConvexHullBuilder.obj
 0001:0001fb30       ??1ConvexHullBuilder@physx@@QAE@XZ 10020b30 f   ConvexHullBuilder.obj
 0001:0001fc50       ?init@ConvexHullBuilder@physx@@QAE_NIPBVPxVec3@2@PBIIIPBUPxHullPolygon@2@I_N3@Z 10020c50 f   ConvexHullBuilder.obj
 0001:000201c0       ?save@ConvexHullBuilder@physx@@QBE_NAAVPxOutputStream@2@_N@Z 100211c0 f   ConvexHullBuilder.obj
 0001:00020480       ?copy@ConvexHullBuilder@physx@@QAE_NAAUConvexHullData@Gu@2@AAI@Z 10021480 f   ConvexHullBuilder.obj
 0001:00020970       ?createEdgeList@ConvexHullBuilder@physx@@QAE_N_NI0@Z 10021970 f   ConvexHullBuilder.obj
 0001:00021460       ?checkHullPolygons@ConvexHullBuilder@physx@@QBE_NXZ 10022460 f   ConvexHullBuilder.obj
 0001:00021c10       ?calculateVertexMapTable@ConvexHullBuilder@physx@@QAE_NI_N@Z 10022c10 f   ConvexHullBuilder.obj
 0001:00021e20       ?computeGeomCenter@ConvexHullBuilder@physx@@IBE_NAAVPxVec3@2@IPAUHullTriangleData@2@@Z 10022e20 f   ConvexHullBuilder.obj
 0001:00022880       ??$?_UUEdgeDescData@Gu@physx@@@@YAPAXIV?$ReflectionAllocator@UEdgeDescData@Gu@physx@@@shdfnd@physx@@PBDH@Z 10023880 f i ConvexHullBuilder.obj
 0001:000228a0       ??$?_U_N@@YAPAXIV?$ReflectionAllocator@_N@shdfnd@physx@@PBDH@Z 100238a0 f i ConvexHullBuilder.obj
 0001:000228c0       ??0?$PxBitAndDataT@G$0IAAA@@physx@@QAE@G_N@Z 100238c0 f i ConvexHullBuilder.obj
 0001:00022910       ??0?$ReflectionAllocator@UEdgeDescData@Gu@physx@@@shdfnd@physx@@QAE@PBD@Z 10023910 f i ConvexHullBuilder.obj
 0001:00022930       ??0?$ReflectionAllocator@_N@shdfnd@physx@@QAE@PBD@Z 10023930 f i ConvexHullBuilder.obj
 0001:00022950       ??0?$TriangleT@I@Gu@physx@@QAE@III@Z 10023950 f i ConvexHullBuilder.obj
 0001:000229b0       ??0HullPolygonData@Gu@physx@@QAE@ABU012@@Z 100239b0 f i ConvexHullBuilder.obj
 0001:00022a10       ??0PxPlane@physx@@QAE@ABV01@@Z 10023a10 f i ConvexHullBuilder.obj
 0001:00022a50       ??0PxPlane@physx@@QAE@MMMM@Z 10023a50 f i ConvexHullBuilder.obj
 0001:00022ab0       ??4PxPlane@physx@@QAEAAV01@$$QAV01@@Z 10023ab0 f i ConvexHullBuilder.obj
 0001:00022af0       ??YPxVec3@physx@@QAEAAV01@ABV01@@Z 10023af0 f i ConvexHullBuilder.obj
 0001:00022b60       ?PxMemSet@physx@@YAPAXPAXHI@Z 10023b60 f i ConvexHullBuilder.obj
 0001:00022b80       ?allocate@?$ReflectionAllocator@UEdgeDescData@Gu@physx@@@shdfnd@physx@@QAEPAXIPBDH@Z 10023b80 f i ConvexHullBuilder.obj
 0001:00022be0       ?allocate@?$ReflectionAllocator@_N@shdfnd@physx@@QAEPAXIPBDH@Z 10023be0 f i ConvexHullBuilder.obj
 0001:00022c40       ?area@?$TriangleT@I@Gu@physx@@QBEMPBVPxVec3@3@@Z 10023c40 f i ConvexHullBuilder.obj
 0001:00022d00       ?center@?$TriangleT@I@Gu@physx@@QBEXPBVPxVec3@3@AAV43@@Z 10023d00 f i ConvexHullBuilder.obj
 0001:00022dc0       ?computeBufferSize@Gu@physx@@YAIABUConvexHullData@12@I@Z 10023dc0 f i ConvexHullBuilder.obj
 0001:00022eb0       ?computeNbPolygons@ConvexHullBuilder@physx@@QBEIXZ 10023eb0 f i ConvexHullBuilder.obj
 0001:00022f20       ?flip@physx@@YAXAAG@Z      10023f20 f i ConvexHullBuilder.obj
 0001:00022f90       ?flip@physx@@YAXAAM@Z      10023f90 f i ConvexHullBuilder.obj
 0001:00023040       ?flipData@Gu@physx@@YAXAAUHullPolygonData@12@@Z 10024040 f i ConvexHullBuilder.obj
 0001:000230a0       ?getName@?$ReflectionAllocator@UEdgeDescData@Gu@physx@@@shdfnd@physx@@CAPBDXZ 100240a0 f i ConvexHullBuilder.obj
 0001:000230f0       ?getName@?$ReflectionAllocator@_N@shdfnd@physx@@CAPBDXZ 100240f0 f i ConvexHullBuilder.obj
 0001:00023140       ?isBitSet@?$PxBitAndDataT@G$0IAAA@@physx@@QBEGXZ 10024140 f i ConvexHullBuilder.obj
 0001:00023160       ?memSet@intrinsics@physx@@YAPAXPAXHI@Z 10024160 f i ConvexHullBuilder.obj
 0001:00023180       ?to8@shdfnd@physx@@YAEI@Z  10024180 f i ConvexHullBuilder.obj
 0001:000231e0       ??1ConvexHullLib@physx@@UAE@XZ 100241e0 f   ConvexHullLib.obj
 0001:00023240       ?cleanupVertices@ConvexHullLib@physx@@IAE_NIPBVPxVec3@2@IAAIPAV32@AAV32@3@Z 10024240 f   ConvexHullLib.obj
 0001:00023690       ?shiftAndcleanupVertices@ConvexHullLib@physx@@IAE_NIPBVPxVec3@2@IAAIPAV32@AAV32@3@Z 10024690 f   ConvexHullLib.obj
 0001:000237c0       ?swapLargestFace@ConvexHullLib@physx@@IAEXAAVPxConvexMeshDesc@2@@Z 100247c0 f   ConvexHullLib.obj
 0001:00023a90       ?shiftConvexMeshDesc@ConvexHullLib@physx@@IAEXAAVPxConvexMeshDesc@2@@Z 10024a90 f   ConvexHullLib.obj
 0001:000243f0       ??0?$PxFlags@W4Enum@PxConvexFlag@physx@@G@physx@@QAE@ABV01@@Z 100253f0 f i ConvexHullLib.obj
 0001:00024420       ??0PxBounds3@physx@@QAE@XZ 10025420 f i ConvexHullLib.obj
 0001:00024450       ??B?$PxFlags@W4Enum@PxConvexFlag@physx@@G@physx@@QBE_NXZ 10025450 f i ConvexHullLib.obj
 0001:00024480       ??I?$PxFlags@W4Enum@PxConvexFlag@physx@@G@physx@@QBE?AV01@W4Enum@PxConvexFlag@1@@Z 10025480 f i ConvexHullLib.obj
 0001:000244d0       ??_GConvexHullLib@physx@@UAEPAXI@Z 100254d0 f i ConvexHullLib.obj
 0001:000244d0       ??_EConvexHullLib@physx@@UAEPAXI@Z 100254d0 f i ConvexHullLib.obj
 0001:00024510       ?getCenter@PxBounds3@physx@@QBE?AVPxVec3@2@XZ 10025510 f i ConvexHullLib.obj
 0001:000245c0       ?getDimensions@PxBounds3@physx@@QBE?AVPxVec3@2@XZ 100255c0 f i ConvexHullLib.obj
 0001:00024650       ?include@PxBounds3@physx@@QAEXABVPxVec3@2@@Z 10025650 f i ConvexHullLib.obj
 0001:00024700       ?maximum@PxVec3@physx@@QBE?AV12@ABV12@@Z 10025700 f i ConvexHullLib.obj
 0001:000247b0       ?minimum@PxVec3@physx@@QBE?AV12@ABV12@@Z 100257b0 f i ConvexHullLib.obj
 0001:00024860       ?multiply@PxVec3@physx@@QBE?AV12@ABV12@@Z 10025860 f i ConvexHullLib.obj
 0001:000248d0       ??0ConvexHull@physx@@QAE@ABVPxVec3@1@0ABV?$Array@VPxPlane@physx@@VNamedAllocator@shdfnd@2@@shdfnd@1@@Z 100258d0 f   ConvexHullUtils.obj
 0001:00024fa0       ??0ConvexHull@physx@@QAE@ABVPxVec3@1@ABVPxTransform@1@ABV?$Array@VPxPlane@physx@@VNamedAllocator@shdfnd@2@@shdfnd@1@@Z 10025fa0 f   ConvexHullUtils.obj
 0001:000257c0       ?findCandidatePlane@ConvexHull@physx@@QBEHMM@Z 100267c0 f   ConvexHullUtils.obj
 0001:00025ae0       ?assertIntact@ConvexHull@physx@@QBE_NM@Z 10026ae0 f   ConvexHullUtils.obj
 0001:00026060       ?maxNumVertsPerFace@ConvexHull@physx@@QBEIXZ 10027060 f   ConvexHullUtils.obj
 0001:00026100       ?convexHullCrop@physx@@YAPAVConvexHull@1@ABV21@ABVPxPlane@1@M@Z 10027100 f   ConvexHullUtils.obj
 0001:000271e0       ?computeOBBFromConvex@physx@@YA_NABVPxConvexMeshDesc@1@AAVPxVec3@1@AAVPxTransform@1@@Z 100281e0 f   ConvexHullUtils.obj
 0001:000278e0       ?computeOBBSIMD@local@@YAXIPBT__m128@@AAT2@ABT2@1@Z 100288e0 f   ConvexHullUtils.obj
 0001:00028940       ??$?2V?$ReflectionAllocator@VConvexHull@physx@@@shdfnd@physx@@@UserAllocated@shdfnd@physx@@SAPAXIV?$ReflectionAllocator@VConvexHull@physx@@@12@PBDH@Z 10029940 f i ConvexHullUtils.obj
 0001:00028960       ??$PX_UNUSED@W4PxIDENTITY@physx@@@@YAXABW4PxIDENTITY@physx@@@Z 10029960 f i ConvexHullUtils.obj
 0001:00028970       ??0?$Array@VHalfEdge@ConvexHull@physx@@VNamedAllocator@shdfnd@3@@shdfnd@physx@@QAE@ABVNamedAllocator@12@@Z 10029970 f i ConvexHullUtils.obj
 0001:000289c0       ??0?$Array@VPxPlane@physx@@VNamedAllocator@shdfnd@2@@shdfnd@physx@@QAE@ABVNamedAllocator@12@@Z 100299c0 f i ConvexHullUtils.obj
 0001:00028a10       ??0?$PxFlags@W4Enum@PxConvexFlag@physx@@G@physx@@QAE@XZ 10029a10 f i ConvexHullUtils.obj
 0001:00028a30       ??0?$ReflectionAllocator@VConvexHull@physx@@@shdfnd@physx@@QAE@PBD@Z 10029a30 f i ConvexHullUtils.obj
 0001:00028a50       ??0ConvexHull@physx@@QAE@ABV01@@Z 10029a50 f i ConvexHullUtils.obj
 0001:00028b00       ??0ConvexHull@physx@@QAE@ABV?$Array@VPxPlane@physx@@VNamedAllocator@shdfnd@2@@shdfnd@1@@Z 10029b00 f i ConvexHullUtils.obj
 0001:00028ba0       ??0HalfEdge@ConvexHull@physx@@QAE@FEE@Z 10029ba0 f i ConvexHullUtils.obj
 0001:00028be0       ??0HalfEdge@ConvexHull@physx@@QAE@XZ 10029be0 f i ConvexHullUtils.obj
 0001:00028c00       ??0Mat33V@aos@shdfnd@physx@@QAE@XZ 10029c00 f i ConvexHullUtils.obj
 0001:00028c20       ??0PxBoundedData@physx@@QAE@XZ 10029c20 f i ConvexHullUtils.obj
 0001:00028c50       ??0PxConvexMeshDesc@physx@@QAE@XZ 10029c50 f i ConvexHullUtils.obj
 0001:00028cc0       ??0PxIntegrals@physx@@QAE@XZ 10029cc0 f i ConvexHullUtils.obj
 0001:00028ce0       ??0PxMat33@physx@@QAE@ABV01@@Z 10029ce0 f i ConvexHullUtils.obj
 0001:00028d30       ??0PxMat33@physx@@QAE@ABVPxQuat@1@@Z 10029d30 f i ConvexHullUtils.obj
 0001:00028fb0       ??0PxMat33@physx@@QAE@ABVPxVec3@1@00@Z 10029fb0 f i ConvexHullUtils.obj
 0001:00029000       ??0PxMat33@physx@@QAE@W4PxIDENTITY@1@@Z 1002a000 f i ConvexHullUtils.obj
 0001:000290c0       ??0PxMat33@physx@@QAE@XZ   1002a0c0 f i ConvexHullUtils.obj
 0001:00029100       ??0PxPlane@physx@@QAE@ABVPxVec3@1@00@Z 1002a100 f i ConvexHullUtils.obj
 0001:000291a0       ??0PxPlane@physx@@QAE@ABVPxVec3@1@M@Z 1002a1a0 f i ConvexHullUtils.obj
 0001:000291e0       ??0PxPlane@physx@@QAE@XZ   1002a1e0 f i ConvexHullUtils.obj
 0001:00029200       ??0PxQuat@physx@@QAE@MABVPxVec3@1@@Z 1002a200 f i ConvexHullUtils.obj
 0001:00029340       ??0PxQuat@physx@@QAE@XZ    1002a340 f i ConvexHullUtils.obj
 0001:00029360       ??0PxStridedData@physx@@QAE@XZ 1002a360 f i ConvexHullUtils.obj
 0001:00029390       ??4PxPlane@physx@@QAEAAV01@ABV01@@Z 1002a390 f i ConvexHullUtils.obj
 0001:000293d0       ??8PxPlane@physx@@QBE_NABV01@@Z 1002a3d0 f i ConvexHullUtils.obj
 0001:00029430       ??8PxVec3@physx@@QBE_NABV01@@Z 1002a430 f i ConvexHullUtils.obj
 0001:000294b0       ??A?$Array@VHalfEdge@ConvexHull@physx@@VNamedAllocator@shdfnd@3@@shdfnd@physx@@QAEAAVHalfEdge@ConvexHull@2@I@Z 1002a4b0 f i ConvexHullUtils.obj
 0001:00029520       ??A?$Array@VHalfEdge@ConvexHull@physx@@VNamedAllocator@shdfnd@3@@shdfnd@physx@@QBEABVHalfEdge@ConvexHull@2@I@Z 1002a520 f i ConvexHullUtils.obj
 0001:00029590       ??A?$Array@VPxPlane@physx@@VNamedAllocator@shdfnd@2@@shdfnd@physx@@QBEABVPxPlane@2@I@Z 1002a590 f i ConvexHullUtils.obj
 0001:00029600       ??A?$Array@VPxVec3@physx@@VNamedAllocator@shdfnd@2@@shdfnd@physx@@QAEAAVPxVec3@2@I@Z 1002a600 f i ConvexHullUtils.obj
 0001:00029670       ??A?$Array@VPxVec3@physx@@VNamedAllocator@shdfnd@2@@shdfnd@physx@@QBEABVPxVec3@2@I@Z 1002a670 f i ConvexHullUtils.obj
 0001:000296e0       ??APxMat33@physx@@QAEAAVPxVec3@1@I@Z 1002a6e0 f i ConvexHullUtils.obj
 0001:00029700       ??GPxVec3@physx@@QBE?AV01@XZ 1002a700 f i ConvexHullUtils.obj
 0001:00029770       ??RPxMat33@physx@@QAEAAMII@Z 1002a770 f i ConvexHullUtils.obj
 0001:000297a0       ??XPxVec3@physx@@QAEAAV01@M@Z 1002a7a0 f i ConvexHullUtils.obj
 0001:00029800       ?FAdd@aos@shdfnd@physx@@YA?AT__m128@@T4@0@Z 1002a800 f i ConvexHullUtils.obj
 0001:00029900       ?FMul@aos@shdfnd@physx@@YA?AT__m128@@T4@0@Z 1002a900 f i ConvexHullUtils.obj
 0001:00029a00       ?FScaleAdd@aos@shdfnd@physx@@YA?AT__m128@@T4@00@Z 1002aa00 f i ConvexHullUtils.obj
 0001:00029b70       ?PxCos@physx@@YAMM@Z       1002ab70 f i ConvexHullUtils.obj
 0001:00029b90       ?PxSin@physx@@YAMM@Z       1002ab90 f i ConvexHullUtils.obj
 0001:00029bb0       ?QuatGetMat33V@aos@shdfnd@physx@@YAXABT__m128@@AAT4@11@Z 1002abb0 f i ConvexHullUtils.obj
 0001:00029e20       ?QuatRotateInv@aos@shdfnd@physx@@YA?AT__m128@@T4@0@Z 1002ae20 f i ConvexHullUtils.obj
 0001:0002a000       ?QuatVLoadU@aos@shdfnd@physx@@YA?AT__m128@@PBM@Z 1002b000 f i ConvexHullUtils.obj
 0001:0002a050       ?V3Cross@aos@shdfnd@physx@@YA?AT__m128@@T4@0@Z 1002b050 f i ConvexHullUtils.obj
 0001:0002a200       ?V3NegScaleSub@aos@shdfnd@physx@@YA?AT__m128@@T4@00@Z 1002b200 f i ConvexHullUtils.obj
 0001:0002a370       ?V3Scale@aos@shdfnd@physx@@YA?AT__m128@@T4@0@Z 1002b370 f i ConvexHullUtils.obj
 0001:0002a470       ?V3ScaleAdd@aos@shdfnd@physx@@YA?AT__m128@@T4@00@Z 1002b470 f i ConvexHullUtils.obj
 0001:0002a5e0       ?V4Add@aos@shdfnd@physx@@YA?AT__m128@@T4@0@Z 1002b5e0 f i ConvexHullUtils.obj
 0001:0002a630       ?V4GetW@aos@shdfnd@physx@@YA?AT__m128@@T4@@Z 1002b630 f i ConvexHullUtils.obj
 0001:0002a680       ?V4GetX@aos@shdfnd@physx@@YA?AT__m128@@T4@@Z 1002b680 f i ConvexHullUtils.obj
 0001:0002a6d0       ?V4GetY@aos@shdfnd@physx@@YA?AT__m128@@T4@@Z 1002b6d0 f i ConvexHullUtils.obj
 0001:0002a720       ?V4GetZ@aos@shdfnd@physx@@YA?AT__m128@@T4@@Z 1002b720 f i ConvexHullUtils.obj
 0001:0002a770       ?V4LoadU@aos@shdfnd@physx@@YA?AT__m128@@QBM@Z 1002b770 f i ConvexHullUtils.obj
 0001:0002a7b0       ?V4Max@aos@shdfnd@physx@@YA?AT__m128@@T4@0@Z 1002b7b0 f i ConvexHullUtils.obj
 0001:0002a800       ?V4Min@aos@shdfnd@physx@@YA?AT__m128@@T4@0@Z 1002b800 f i ConvexHullUtils.obj
 0001:0002a850       ?V4Mul@aos@shdfnd@physx@@YA?AT__m128@@T4@0@Z 1002b850 f i ConvexHullUtils.obj
 0001:0002a8a0       ?V4MulAdd@aos@shdfnd@physx@@YA?AT__m128@@T4@00@Z 1002b8a0 f i ConvexHullUtils.obj
 0001:0002a910       ?V4Neg@aos@shdfnd@physx@@YA?AT__m128@@T4@@Z 1002b910 f i ConvexHullUtils.obj
 0001:0002a960       ?V4Scale@aos@shdfnd@physx@@YA?AT__m128@@T4@0@Z 1002b960 f i ConvexHullUtils.obj
 0001:0002a9b0       ?V4StoreU@aos@shdfnd@physx@@YAXT__m128@@PAM@Z 1002b9b0 f i ConvexHullUtils.obj
 0001:0002a9f0       ?V4Sub@aos@shdfnd@physx@@YA?AT__m128@@T4@0@Z 1002b9f0 f i ConvexHullUtils.obj
 0001:0002aa40       ?Vec4V_From_Vec3V@aos@shdfnd@physx@@YA?AT__m128@@T4@@Z 1002ba40 f i ConvexHullUtils.obj
 0001:0002aa80       ?allocate@?$Array@VHalfEdge@ConvexHull@physx@@VNamedAllocator@shdfnd@3@@shdfnd@physx@@IAEPAVHalfEdge@ConvexHull@3@I@Z 1002ba80 f i ConvexHullUtils.obj
 0001:0002ab00       ?allocate@?$Array@VPxPlane@physx@@VNamedAllocator@shdfnd@2@@shdfnd@physx@@IAEPAVPxPlane@3@I@Z 1002bb00 f i ConvexHullUtils.obj
 0001:0002ab80       ?allocate@?$ReflectionAllocator@VConvexHull@physx@@@shdfnd@physx@@QAEPAXIPBDH@Z 1002bb80 f i ConvexHullUtils.obj
 0001:0002abe0       ?begin@?$Array@VHalfEdge@ConvexHull@physx@@VNamedAllocator@shdfnd@3@@shdfnd@physx@@QAEPAVHalfEdge@ConvexHull@3@XZ 1002bbe0 f i ConvexHullUtils.obj
 0001:0002ac00       ?begin@?$Array@VHalfEdge@ConvexHull@physx@@VNamedAllocator@shdfnd@3@@shdfnd@physx@@QBEPBVHalfEdge@ConvexHull@3@XZ 1002bc00 f i ConvexHullUtils.obj
 0001:0002ac20       ?begin@?$Array@VPxPlane@physx@@VNamedAllocator@shdfnd@2@@shdfnd@physx@@QAEPAVPxPlane@3@XZ 1002bc20 f i ConvexHullUtils.obj
 0001:0002ac40       ?begin@?$Array@VPxPlane@physx@@VNamedAllocator@shdfnd@2@@shdfnd@physx@@QBEPBVPxPlane@3@XZ 1002bc40 f i ConvexHullUtils.obj
 0001:0002ac60       ?begin@?$Array@VPxVec3@physx@@VNamedAllocator@shdfnd@2@@shdfnd@physx@@QBEPBVPxVec3@3@XZ 1002bc60 f i ConvexHullUtils.obj
 0001:0002ac80       ?capacity@?$Array@VHalfEdge@ConvexHull@physx@@VNamedAllocator@shdfnd@3@@shdfnd@physx@@QBEIXZ 1002bc80 f i ConvexHullUtils.obj
 0001:0002aca0       ?capacity@?$Array@VPxPlane@physx@@VNamedAllocator@shdfnd@2@@shdfnd@physx@@QBEIXZ 1002bca0 f i ConvexHullUtils.obj
 0001:0002acc0       ?capacityIncrement@?$Array@VHalfEdge@ConvexHull@physx@@VNamedAllocator@shdfnd@3@@shdfnd@physx@@IBEIXZ 1002bcc0 f i ConvexHullUtils.obj
 0001:0002ad00       ?capacityIncrement@?$Array@VPxPlane@physx@@VNamedAllocator@shdfnd@2@@shdfnd@physx@@IBEIXZ 1002bd00 f i ConvexHullUtils.obj
 0001:0002ad40       ?copy@?$Array@VHalfEdge@ConvexHull@physx@@VNamedAllocator@shdfnd@3@@shdfnd@physx@@KAXPAVHalfEdge@ConvexHull@3@0PBV453@@Z 1002bd40 f i ConvexHullUtils.obj
 0001:0002adf0       ?copy@?$Array@VPxPlane@physx@@VNamedAllocator@shdfnd@2@@shdfnd@physx@@KAXPAVPxPlane@3@0PBV43@@Z 1002bdf0 f i ConvexHullUtils.obj
 0001:0002aea0       ?copyHull@ConvexHull@physx@@QAEXABV12@@Z 1002bea0 f i ConvexHullUtils.obj
 0001:0002b000       ?cos@intrinsics@physx@@YAMM@Z 1002c000 f i ConvexHullUtils.obj
 0001:0002b020       ?create@?$Array@VHalfEdge@ConvexHull@physx@@VNamedAllocator@shdfnd@3@@shdfnd@physx@@KAXPAVHalfEdge@ConvexHull@3@0ABV453@@Z 1002c020 f i ConvexHullUtils.obj
 0001:0002b0d0       ?create@?$Array@VPxPlane@physx@@VNamedAllocator@shdfnd@2@@shdfnd@physx@@KAXPAVPxPlane@3@0ABV43@@Z 1002c0d0 f i ConvexHullUtils.obj
 0001:0002b180       ?create@?$Array@VPxVec3@physx@@VNamedAllocator@shdfnd@2@@shdfnd@physx@@KAXPAVPxVec3@3@0ABV43@@Z 1002c180 f i ConvexHullUtils.obj
 0001:0002b230       ?deallocate@?$Array@VHalfEdge@ConvexHull@physx@@VNamedAllocator@shdfnd@3@@shdfnd@physx@@IAEXPAX@Z 1002c230 f i ConvexHullUtils.obj
 0001:0002b250       ?deallocate@?$Array@VPxPlane@physx@@VNamedAllocator@shdfnd@2@@shdfnd@physx@@IAEXPAX@Z 1002c250 f i ConvexHullUtils.obj
 0001:0002b270       ?degToRad@shdfnd@physx@@YAMM@Z 1002c270 f i ConvexHullUtils.obj
 0001:0002b2a0       ?destroy@?$Array@VHalfEdge@ConvexHull@physx@@VNamedAllocator@shdfnd@3@@shdfnd@physx@@KAXPAVHalfEdge@ConvexHull@3@0@Z 1002c2a0 f i ConvexHullUtils.obj
 0001:0002b2d0       ?destroy@?$Array@VPxPlane@physx@@VNamedAllocator@shdfnd@2@@shdfnd@physx@@KAXPAVPxPlane@3@0@Z 1002c2d0 f i ConvexHullUtils.obj
 0001:0002b300       ?getDeterminant@PxMat33@physx@@QBEMXZ 1002c300 f i ConvexHullUtils.obj
 0001:0002b340       ?getEdges@ConvexHull@physx@@QAEAAV?$Array@VHalfEdge@ConvexHull@physx@@VNamedAllocator@shdfnd@3@@shdfnd@2@XZ 1002c340 f i ConvexHullUtils.obj
 0001:0002b360       ?getEdges@ConvexHull@physx@@QBEABV?$Array@VHalfEdge@ConvexHull@physx@@VNamedAllocator@shdfnd@3@@shdfnd@2@XZ 1002c360 f i ConvexHullUtils.obj
 0001:0002b380       ?getFacets@ConvexHull@physx@@QAEAAV?$Array@VPxPlane@physx@@VNamedAllocator@shdfnd@2@@shdfnd@2@XZ 1002c380 f i ConvexHullUtils.obj
 0001:0002b3a0       ?getFacets@ConvexHull@physx@@QBEABV?$Array@VPxPlane@physx@@VNamedAllocator@shdfnd@2@@shdfnd@2@XZ 1002c3a0 f i ConvexHullUtils.obj
 0001:0002b3c0       ?getInputPlanes@ConvexHull@physx@@QBEABV?$Array@VPxPlane@physx@@VNamedAllocator@shdfnd@2@@shdfnd@2@XZ 1002c3c0 f i ConvexHullUtils.obj
 0001:0002b3e0       ?getInverse@PxMat33@physx@@QBE?BV12@XZ 1002c3e0 f i ConvexHullUtils.obj
 0001:0002b690       ?getName@?$ReflectionAllocator@VConvexHull@physx@@@shdfnd@physx@@CAPBDXZ 1002c690 f i ConvexHullUtils.obj
 0001:0002b6e0       ?getOriginInertia@PxIntegrals@physx@@QAEXAAVPxMat33@2@@Z 1002c6e0 f i ConvexHullUtils.obj
 0001:0002b780       ?getTranspose@PxMat33@physx@@QBE?BV12@XZ 1002c780 f i ConvexHullUtils.obj
 0001:0002b870       ?getVertices@ConvexHull@physx@@QAEAAV?$Array@VPxVec3@physx@@VNamedAllocator@shdfnd@2@@shdfnd@2@XZ 1002c870 f i ConvexHullUtils.obj
 0001:0002b890       ?getVertices@ConvexHull@physx@@QBEABV?$Array@VPxVec3@physx@@VNamedAllocator@shdfnd@2@@shdfnd@2@XZ 1002c890 f i ConvexHullUtils.obj
 0001:0002b8b0       ?grow@?$Array@VHalfEdge@ConvexHull@physx@@VNamedAllocator@shdfnd@3@@shdfnd@physx@@IAEXI@Z 1002c8b0 f i ConvexHullUtils.obj
 0001:0002b930       ?grow@?$Array@VPxPlane@physx@@VNamedAllocator@shdfnd@2@@shdfnd@physx@@IAEXI@Z 1002c930 f i ConvexHullUtils.obj
 0001:0002b9b0       ?growAndPushBack@?$Array@VHalfEdge@ConvexHull@physx@@VNamedAllocator@shdfnd@3@@shdfnd@physx@@IAEAAVHalfEdge@ConvexHull@3@ABV453@@Z 1002c9b0 f i ConvexHullUtils.obj
 0001:0002bb40       ?growAndPushBack@?$Array@VPxPlane@physx@@VNamedAllocator@shdfnd@2@@shdfnd@physx@@IAEAAVPxPlane@3@ABV43@@Z 1002cb40 f i ConvexHullUtils.obj
 0001:0002bcd0       ?isArrayOfPOD@?$Array@VHalfEdge@ConvexHull@physx@@VNamedAllocator@shdfnd@3@@shdfnd@physx@@SA_NXZ 1002ccd0 f i ConvexHullUtils.obj
 0001:0002bce0       ?isArrayOfPOD@?$Array@VPxPlane@physx@@VNamedAllocator@shdfnd@2@@shdfnd@physx@@SA_NXZ 1002cce0 f i ConvexHullUtils.obj
 0001:0002bcf0       ?isInUserMemory@?$Array@VHalfEdge@ConvexHull@physx@@VNamedAllocator@shdfnd@3@@shdfnd@physx@@QBEIXZ 1002ccf0 f i ConvexHullUtils.obj
 0001:0002bd10       ?isInUserMemory@?$Array@VPxPlane@physx@@VNamedAllocator@shdfnd@2@@shdfnd@physx@@QBEIXZ 1002cd10 f i ConvexHullUtils.obj
 0001:0002bd30       ?isZeroInit@?$Array@VHalfEdge@ConvexHull@physx@@VNamedAllocator@shdfnd@3@@shdfnd@physx@@KA_NABVHalfEdge@ConvexHull@3@@Z 1002cd30 f i ConvexHullUtils.obj
 0001:0002bd90       ?isZeroInit@?$Array@VPxPlane@physx@@VNamedAllocator@shdfnd@2@@shdfnd@physx@@KA_NABVPxPlane@3@@Z 1002cd90 f i ConvexHullUtils.obj
 0001:0002be00       ?isZeroInit@?$Array@VPxVec3@physx@@VNamedAllocator@shdfnd@2@@shdfnd@physx@@KA_NABVPxVec3@3@@Z 1002ce00 f i ConvexHullUtils.obj
 0001:0002be70       ?pushBack@?$Array@VHalfEdge@ConvexHull@physx@@VNamedAllocator@shdfnd@3@@shdfnd@physx@@QAEAAVHalfEdge@ConvexHull@3@ABV453@@Z 1002ce70 f i ConvexHullUtils.obj
 0001:0002bf20       ?pushBack@?$Array@VPxPlane@physx@@VNamedAllocator@shdfnd@2@@shdfnd@physx@@QAEAAVPxPlane@3@ABV43@@Z 1002cf20 f i ConvexHullUtils.obj
 0001:0002bfd0       ?recreate@?$Array@VHalfEdge@ConvexHull@physx@@VNamedAllocator@shdfnd@3@@shdfnd@physx@@IAEXI@Z 1002cfd0 f i ConvexHullUtils.obj
 0001:0002c0e0       ?recreate@?$Array@VPxPlane@physx@@VNamedAllocator@shdfnd@2@@shdfnd@physx@@IAEXI@Z 1002d0e0 f i ConvexHullUtils.obj
 0001:0002c1f0       ?reserve@?$Array@VHalfEdge@ConvexHull@physx@@VNamedAllocator@shdfnd@3@@shdfnd@physx@@QAEXI@Z 1002d1f0 f i ConvexHullUtils.obj
 0001:0002c220       ?reserve@?$Array@VPxPlane@physx@@VNamedAllocator@shdfnd@2@@shdfnd@physx@@QAEXI@Z 1002d220 f i ConvexHullUtils.obj
 0001:0002c250       ?resize@?$Array@VHalfEdge@ConvexHull@physx@@VNamedAllocator@shdfnd@3@@shdfnd@physx@@QAEXIABVHalfEdge@ConvexHull@3@@Z 1002d250 f i ConvexHullUtils.obj
 0001:0002c2e0       ?resize@?$Array@VPxPlane@physx@@VNamedAllocator@shdfnd@2@@shdfnd@physx@@QAEXIABVPxPlane@3@@Z 1002d2e0 f i ConvexHullUtils.obj
 0001:0002c370       ?resize@?$Array@VPxVec3@physx@@VNamedAllocator@shdfnd@2@@shdfnd@physx@@QAEXIABVPxVec3@3@@Z 1002d370 f i ConvexHullUtils.obj
 0001:0002c3f0       ?sin@intrinsics@physx@@YAMM@Z 1002d3f0 f i ConvexHullUtils.obj
 0001:0002c410       ?size@?$Array@VHalfEdge@ConvexHull@physx@@VNamedAllocator@shdfnd@3@@shdfnd@physx@@QBEIXZ 1002d410 f i ConvexHullUtils.obj
 0001:0002c430       ?size@?$Array@VPxPlane@physx@@VNamedAllocator@shdfnd@2@@shdfnd@physx@@QBEIXZ 1002d430 f i ConvexHullUtils.obj
 0001:0002c450       ?threePlaneIntersection@physx@@YA?AVPxVec3@1@ABVPxPlane@1@00@Z 1002d450 f i ConvexHullUtils.obj
 0001:0002c500       ?to8@shdfnd@physx@@YAEG@Z  1002d500 f i ConvexHullUtils.obj
 0001:0002c560       ?transform@PxMat33@physx@@QBE?BVPxVec3@2@ABV32@@Z 1002d560 f i ConvexHullUtils.obj
 0001:0002c600       _cosf                      1002d600 f i ConvexHullUtils.obj
 0001:0002c630       _sinf                      1002d630 f i ConvexHullUtils.obj
 0001:0002c660       ??0ConvexMeshBuilder@physx@@QAE@_N@Z 1002d660 f   ConvexMeshBuilder.obj
 0001:0002c6c0       ??1ConvexMeshBuilder@physx@@QAE@XZ 1002d6c0 f   ConvexMeshBuilder.obj
 0001:0002c720       ?build@ConvexMeshBuilder@physx@@QAE_NABVPxConvexMeshDesc@2@I_N1@Z 1002d720 f   ConvexMeshBuilder.obj
 0001:0002c800       ?save@ConvexMeshBuilder@physx@@QBE_NAAVPxOutputStream@2@_N@Z 1002d800 f   ConvexMeshBuilder.obj
 0001:0002cae0       ?copy@ConvexMeshBuilder@physx@@QAE_NAAUConvexHullData@Gu@2@AAI@Z 1002dae0 f   ConvexMeshBuilder.obj
 0001:0002cbb0       ?loadConvexHull@ConvexMeshBuilder@physx@@QAE_NABVPxConvexMeshDesc@2@I_N@Z 1002dbb0 f   ConvexMeshBuilder.obj
 0001:0002cee0       ?computeHullPolygons@ConvexMeshBuilder@physx@@QAE_NABIPBVPxVec3@2@0PBIAAVPxAllocatorCallback@2@AAIAAPAV32@4AAPAI4AAPAUPxHullPolygon@2@@Z 1002dee0 f   ConvexMeshBuilder.obj
 0001:0002d190       ?computeGaussMaps@ConvexMeshBuilder@physx@@QAE_NXZ 1002e190 f   ConvexMeshBuilder.obj
 0001:0002d280       ?computeMassInfo@ConvexMeshBuilder@physx@@QAEX_N@Z 1002e280 f   ConvexMeshBuilder.obj
 0001:0002d500       ?computeInternalObjects@ConvexMeshBuilder@physx@@QAEXXZ 1002e500 f   ConvexMeshBuilder.obj
 0001:0002e170       ??0?$PxBitAndDataT@G$0IAAA@@physx@@QAE@XZ 1002f170 f i ConvexMeshBuilder.obj
 0001:0002e190       ??0?$ReflectionAllocator@VBigConvexData@physx@@@shdfnd@physx@@QAE@PBD@Z 1002f190 f i ConvexMeshBuilder.obj
 0001:0002e1b0       ??0CenterExtents@Gu@physx@@QAE@ABVPxBounds3@2@@Z 1002f1b0 f i ConvexMeshBuilder.obj
 0001:0002e220       ??0CenterExtents@Gu@physx@@QAE@XZ 1002f220 f i ConvexMeshBuilder.obj
 0001:0002e250       ??0ConvexHullData@Gu@physx@@QAE@XZ 1002f250 f i ConvexMeshBuilder.obj
 0001:0002e290       ??1CenterExtents@Gu@physx@@QAE@XZ 1002f290 f i ConvexMeshBuilder.obj
 0001:0002e2a0       ??1ConvexHullData@Gu@physx@@QAE@XZ 1002f2a0 f i ConvexMeshBuilder.obj
 0001:0002e2c0       ??2UserAllocated@shdfnd@physx@@SAPAXIPAX@Z 1002f2c0 f i ConvexMeshBuilder.obj
 0001:0002e2d0       ??4CenterExtents@Gu@physx@@QAEAAV012@ABV012@@Z 1002f2d0 f i ConvexMeshBuilder.obj
 0001:0002e310       ??4PxMat33@physx@@QAEAAV01@ABV01@@Z 1002f310 f i ConvexMeshBuilder.obj
 0001:0002e360       ??GPxMat33@physx@@QBE?BV01@XZ 1002f360 f i ConvexMeshBuilder.obj
 0001:0002e3c0       ??_GBigConvexData@physx@@QAEPAXI@Z 1002f3c0 f i ConvexMeshBuilder.obj
 0001:0002e420       ?allocate@?$ReflectionAllocator@VBigConvexData@physx@@@shdfnd@physx@@QAEPAXIPBDH@Z 1002f420 f i ConvexMeshBuilder.obj
 0001:0002e480       ?getExtents@PxBounds3@physx@@QBE?AVPxVec3@2@XZ 1002f480 f i ConvexMeshBuilder.obj
 0001:0002e520       ?getMax@CenterExtents@Gu@physx@@QBE?AVPxVec3@3@XZ 1002f520 f i ConvexMeshBuilder.obj
 0001:0002e550       ?getMin@CenterExtents@Gu@physx@@QBE?AVPxVec3@3@XZ 1002f550 f i ConvexMeshBuilder.obj
 0001:0002e580       ?getName@?$ReflectionAllocator@VBigConvexData@physx@@@shdfnd@physx@@CAPBDXZ 1002f580 f i ConvexMeshBuilder.obj
 0001:0002e5d0       ?getNextIndex3@shdfnd@physx@@YAII@Z 1002f5d0 f i ConvexMeshBuilder.obj
 0001:0002e5f0       ?isValid@PxConvexMeshDesc@physx@@QBE_NXZ 1002f5f0 f i ConvexMeshBuilder.obj
 0001:0002e800       ?largestAxis@shdfnd@physx@@YAIABVPxVec3@2@@Z 1002f800 f i ConvexMeshBuilder.obj
 0001:0002e880       ?markSerializedMem@Cm@physx@@YAXPAXI@Z 1002f880 f i ConvexMeshBuilder.obj
 0001:0002e8c0       ??0ConvexPolygonsBuilder@physx@@QAE@PAUConvexHullData@Gu@1@_N@Z 1002f8c0 f   ConvexPolygonsBuilder.obj
 0001:0002e900       ??1ConvexPolygonsBuilder@physx@@QAE@XZ 1002f900 f   ConvexPolygonsBuilder.obj
 0001:0002e940       ?computeHullPolygons@ConvexPolygonsBuilder@physx@@QAE_NABIPBVPxVec3@2@0PBI@Z 1002f940 f   ConvexPolygonsBuilder.obj
 0001:0002ecf0       ?createPolygonData@ConvexPolygonsBuilder@physx@@AAE_NXZ 1002fcf0 f   ConvexPolygonsBuilder.obj
 0001:0002f7c0       ?createTrianglesFromPolygons@ConvexPolygonsBuilder@physx@@AAE_NXZ 100307c0 f   ConvexPolygonsBuilder.obj
 0001:00031fe0       ??$?4VNamedAllocator@shdfnd@physx@@@?$Array@IVNamedAllocator@shdfnd@physx@@@shdfnd@physx@@QAEAAV012@ABV012@@Z 10032fe0 f i ConvexPolygonsBuilder.obj
 0001:00032060       ??$?_UUHullTriangleData@physx@@@@YAPAXIV?$ReflectionAllocator@UHullTriangleData@physx@@@shdfnd@physx@@PBDH@Z 10033060 f i ConvexPolygonsBuilder.obj
 0001:00032080       ??$PlaneEquation@U?$TriangleT@I@Gu@physx@@@@YA?AVPxPlane@physx@@ABU?$TriangleT@I@Gu@1@PBVPxVec3@1@@Z 10033080 f i ConvexPolygonsBuilder.obj
 0001:00032100       ??$copy@VNamedAllocator@shdfnd@physx@@@?$Array@VPair@@VNamedAllocator@shdfnd@physx@@@shdfnd@physx@@IAEXABV012@@Z 10033100 f i ConvexPolygonsBuilder.obj
 0001:000321c0       ??$swap@E@shdfnd@physx@@YAXAAE0@Z 100331c0 f i ConvexPolygonsBuilder.obj
 0001:000321f0       ??0?$Array@VPair@@VNamedAllocator@shdfnd@physx@@@shdfnd@physx@@QAE@ABV012@ABVNamedAllocator@12@@Z 100331f0 f i ConvexPolygonsBuilder.obj
 0001:00032230       ??0?$Array@VPair@@VNamedAllocator@shdfnd@physx@@@shdfnd@physx@@QAE@ABVNamedAllocator@12@@Z 10033230 f i ConvexPolygonsBuilder.obj
 0001:00032280       ??0?$ReflectionAllocator@UHullTriangleData@physx@@@shdfnd@physx@@QAE@PBD@Z 10033280 f i ConvexPolygonsBuilder.obj
 0001:000322a0       ??0ADJACENCIESCREATE@physx@@QAE@XZ 100332a0 f i ConvexPolygonsBuilder.obj
 0001:00032300       ??0Pair@@QAE@II@Z          10033300 f i ConvexPolygonsBuilder.obj
 0001:00032330       ??1?$Array@VPair@@VNamedAllocator@shdfnd@physx@@@shdfnd@physx@@QAE@XZ 10033330 f i ConvexPolygonsBuilder.obj
 0001:000323a0       ??1Pair@@QAE@XZ            100333a0 f i ConvexPolygonsBuilder.obj
 0001:000323b0       ??4?$Array@IVNamedAllocator@shdfnd@physx@@@shdfnd@physx@@QAEAAV012@ABV012@@Z 100333b0 f i ConvexPolygonsBuilder.obj
 0001:000323d0       ??A?$Array@VPair@@VNamedAllocator@shdfnd@physx@@@shdfnd@physx@@QAEAAVPair@@I@Z 100333d0 f i ConvexPolygonsBuilder.obj
 0001:00032440       ??_GPair@@QAEPAXI@Z        10033440 f i ConvexPolygonsBuilder.obj
 0001:00032a70       ?GetAdjTri@AdjTriangle@physx@@QBEIW4SharedEdgeIndex@2@@Z 10033a70 f i ConvexPolygonsBuilder.obj
 0001:00032dd0       ?HasActiveEdge01@AdjTriangle@physx@@QBEHXZ 10033dd0 f i ConvexPolygonsBuilder.obj
 0001:00032e00       ?HasActiveEdge12@AdjTriangle@physx@@QBEHXZ 10033e00 f i ConvexPolygonsBuilder.obj
 0001:00032e30       ?HasActiveEdge20@AdjTriangle@physx@@QBEHXZ 10033e30 f i ConvexPolygonsBuilder.obj
 0001:00032e60       ?HasActiveEdge@AdjTriangle@physx@@QBEHI@Z 10033e60 f i ConvexPolygonsBuilder.obj
 0001:00032e90       ?allocate@?$Array@VPair@@VNamedAllocator@shdfnd@physx@@@shdfnd@physx@@IAEPAVPair@@I@Z 10033e90 f i ConvexPolygonsBuilder.obj
 0001:00032f10       ?allocate@?$ReflectionAllocator@UHullTriangleData@physx@@@shdfnd@physx@@QAEPAXIPBDH@Z 10033f10 f i ConvexPolygonsBuilder.obj
 0001:00032f70       ?begin@?$Array@VPair@@VNamedAllocator@shdfnd@physx@@@shdfnd@physx@@QAEPAVPair@@XZ 10033f70 f i ConvexPolygonsBuilder.obj
 0001:00032f90       ?begin@?$Array@VPair@@VNamedAllocator@shdfnd@physx@@@shdfnd@physx@@QBEPBVPair@@XZ 10033f90 f i ConvexPolygonsBuilder.obj
 0001:00032fb0       ?capacity@?$Array@VPair@@VNamedAllocator@shdfnd@physx@@@shdfnd@physx@@QBEIXZ 10033fb0 f i ConvexPolygonsBuilder.obj
 0001:00032fd0       ?capacityIncrement@?$Array@VPair@@VNamedAllocator@shdfnd@physx@@@shdfnd@physx@@IBEIXZ 10033fd0 f i ConvexPolygonsBuilder.obj
 0001:00033010       ?clear@?$Array@IVNamedAllocator@shdfnd@physx@@@shdfnd@physx@@QAEXXZ 10034010 f i ConvexPolygonsBuilder.obj
 0001:00033050       ?copy@?$Array@VPair@@VNamedAllocator@shdfnd@physx@@@shdfnd@physx@@KAXPAVPair@@0PBV4@@Z 10034050 f i ConvexPolygonsBuilder.obj
 0001:00033110       ?deallocate@?$Array@VPair@@VNamedAllocator@shdfnd@physx@@@shdfnd@physx@@IAEXPAX@Z 10034110 f i ConvexPolygonsBuilder.obj
 0001:00033130       ?destroy@?$Array@VPair@@VNamedAllocator@shdfnd@physx@@@shdfnd@physx@@KAXPAVPair@@0@Z 10034130 f i ConvexPolygonsBuilder.obj
 0001:00033170       ?empty@?$Array@VPair@@VNamedAllocator@shdfnd@physx@@@shdfnd@physx@@QBE_NXZ 10034170 f i ConvexPolygonsBuilder.obj
 0001:000331b0       ?end@?$Array@IVNamedAllocator@shdfnd@physx@@@shdfnd@physx@@QAEPAIXZ 100341b0 f i ConvexPolygonsBuilder.obj
 0001:000331d0       ?find@?$Array@IVNamedAllocator@shdfnd@physx@@@shdfnd@physx@@QAEPAIABI@Z 100341d0 f i ConvexPolygonsBuilder.obj
 0001:00033230       ?flip@?$TriangleT@I@Gu@physx@@QAEXXZ 10034230 f i ConvexPolygonsBuilder.obj
 0001:00033270       ?forceSize_Unsafe@?$Array@IVNamedAllocator@shdfnd@physx@@@shdfnd@physx@@QAEXI@Z 10034270 f i ConvexPolygonsBuilder.obj
 0001:000332e0       ?getFaces@ConvexPolygonsBuilder@physx@@QBEPBUHullTriangleData@2@XZ 100342e0 f i ConvexPolygonsBuilder.obj
 0001:00033300       ?getName@?$ReflectionAllocator@UHullTriangleData@physx@@@shdfnd@physx@@CAPBDXZ 10034300 f i ConvexPolygonsBuilder.obj
 0001:00033350       ?getNbFaces@ConvexPolygonsBuilder@physx@@QBEIXZ 10034350 f i ConvexPolygonsBuilder.obj
 0001:00033370       ?growAndPushBack@?$Array@VPair@@VNamedAllocator@shdfnd@physx@@@shdfnd@physx@@IAEAAVPair@@ABV4@@Z 10034370 f i ConvexPolygonsBuilder.obj
 0001:00033500       ?isArrayOfPOD@?$Array@VPair@@VNamedAllocator@shdfnd@physx@@@shdfnd@physx@@SA_NXZ 10034500 f i ConvexPolygonsBuilder.obj
 0001:00033510       ?isInUserMemory@?$Array@VPair@@VNamedAllocator@shdfnd@physx@@@shdfnd@physx@@QBEIXZ 10034510 f i ConvexPolygonsBuilder.obj
 0001:00033530       ?memMove@intrinsics@physx@@YAPAXPAXPBXI@Z 10034530 f i ConvexPolygonsBuilder.obj
 0001:00033550       ?pushBack@?$Array@VPair@@VNamedAllocator@shdfnd@physx@@@shdfnd@physx@@QAEAAVPair@@ABV4@@Z 10034550 f i ConvexPolygonsBuilder.obj
 0001:00033610       ?remove@?$Array@IVNamedAllocator@shdfnd@physx@@@shdfnd@physx@@QAEXI@Z 10034610 f i ConvexPolygonsBuilder.obj
 0001:00033770       ?remove@?$Array@VPair@@VNamedAllocator@shdfnd@physx@@@shdfnd@physx@@QAEXI@Z 10034770 f i ConvexPolygonsBuilder.obj
 0001:000338f0       ?size@?$Array@VPair@@VNamedAllocator@shdfnd@physx@@@shdfnd@physx@@QBEIXZ 100348f0 f i ConvexPolygonsBuilder.obj
 0001:00033910       ??0InflationConvexHullLib@physx@@QAE@ABVPxConvexMeshDesc@1@ABUPxCookingParams@1@@Z 10034910 f   InflationConvexHullLib.obj
 0001:00033950       ??1InflationConvexHullLib@physx@@UAE@XZ 10034950 f   InflationConvexHullLib.obj
 0001:000339e0       ?createConvexHull@InflationConvexHullLib@physx@@UAE?AW4Enum@PxConvexMeshCookingResult@2@XZ 100349e0 f   InflationConvexHullLib.obj
 0001:00033bd0       ?fillConvexMeshDesc@InflationConvexHullLib@physx@@UAEXAAVPxConvexMeshDesc@2@@Z 10034bd0 f   InflationConvexHullLib.obj
 0001:00033cd0       ?computeHull@InflationConvexHullLib@physx@@IAE?AW4ErrorCode@ConvexHullLibResult@2@IPBVPxVec3@2@@Z 10034cd0 f   InflationConvexHullLib.obj
 0001:00034120       ?calchull@InflationConvexHullLib@physx@@IAE?AW4ErrorCode@ConvexHullLibResult@2@PBVPxVec3@2@IAAPAVConvexHull@2@@Z 10035120 f   InflationConvexHullLib.obj
 0001:000343c0       ?calchullgen@InflationConvexHullLib@physx@@IAE?AW4ErrorCode@ConvexHullLibResult@2@PBVPxVec3@2@IAAVHullTriangles@local@@@Z 100353c0 f   InflationConvexHullLib.obj
 0001:00034fe0       ?calchullplanes@InflationConvexHullLib@physx@@IAE_NPBVPxVec3@2@AAVHullTriangles@local@@AAV?$Array@VPxPlane@physx@@VNamedAllocator@shdfnd@2@@shdfnd@2@@Z 10035fe0 f   InflationConvexHullLib.obj
 0001:00035270       ?overhull@InflationConvexHullLib@physx@@IAE_NPBVPxVec3@2@IABV?$Array@VPxPlane@physx@@VNamedAllocator@shdfnd@2@@shdfnd@2@AAPAVConvexHull@2@@Z 10036270 f   InflationConvexHullLib.obj
 0001:000357b0       ?expandHull@InflationConvexHullLib@physx@@IAE?AW4ErrorCode@ConvexHullLibResult@2@PBVPxVec3@2@IABVHullTriangles@local@@AAPAVConvexHull@2@@Z 100367b0 f   InflationConvexHullLib.obj
 0001:00036590       ?expandHullOBB@InflationConvexHullLib@physx@@IAE?AW4ErrorCode@ConvexHullLibResult@2@PBVPxVec3@2@IABVHullTriangles@local@@AAPAVConvexHull@2@@Z 10037590 f   InflationConvexHullLib.obj
 0001:00036ba0       ?maxIndexInDirFiltered@local@@YAHPBVPxVec3@physx@@IABV23@PA_N@Z 10037ba0 f   InflationConvexHullLib.obj
 0001:00036d80       ?maxIndexInDirSterid@local@@YAHPBVPxVec3@physx@@IABV23@AAV?$Array@EVNamedAllocator@shdfnd@physx@@@shdfnd@3@@Z 10037d80 f   InflationConvexHullLib.obj
 0001:00038890       ??$?2V?$ReflectionAllocator@VTri@local@@@shdfnd@physx@@@UserAllocated@shdfnd@physx@@SAPAXIV?$ReflectionAllocator@VTri@local@@@12@PBDH@Z 10039890 f i InflationConvexHullLib.obj
 0001:000388b0       ??$?_UUPxHullPolygon@physx@@@@YAPAXIV?$ReflectionAllocator@UPxHullPolygon@physx@@@shdfnd@physx@@PBDH@Z 100398b0 f i InflationConvexHullLib.obj
 0001:000388d0       ??$PX_UNUSED@H@@YAXABH@Z   100398d0 f i InflationConvexHullLib.obj
 0001:000388e0       ??$swap@H@shdfnd@physx@@YAXAAH0@Z 100398e0 f i InflationConvexHullLib.obj
 0001:00038910       ??0?$Array@EVNamedAllocator@shdfnd@physx@@@shdfnd@physx@@QAE@ABVNamedAllocator@12@@Z 10039910 f i InflationConvexHullLib.obj
 0001:00038960       ??0?$Array@HVNamedAllocator@shdfnd@physx@@@shdfnd@physx@@QAE@ABVNamedAllocator@12@@Z 10039960 f i InflationConvexHullLib.obj
 0001:000389b0       ??0?$Array@PAVTri@local@@VNamedAllocator@shdfnd@physx@@@shdfnd@physx@@QAE@ABVNamedAllocator@12@@Z 100399b0 f i InflationConvexHullLib.obj
 0001:00038a00       ??0?$Array@UExpandPlane@local@@VNamedAllocator@shdfnd@physx@@@shdfnd@physx@@QAE@ABVNamedAllocator@12@@Z 10039a00 f i InflationConvexHullLib.obj
 0001:00038a50       ??0?$ReflectionAllocator@UPxHullPolygon@physx@@@shdfnd@physx@@QAE@PBD@Z 10039a50 f i InflationConvexHullLib.obj
 0001:00038a70       ??0?$ReflectionAllocator@VTri@local@@@shdfnd@physx@@QAE@PBD@Z 10039a70 f i InflationConvexHullLib.obj
 0001:00038a90       ??0?$ScopedPointer@_NVTempAllocator@shdfnd@physx@@@shdfnd@physx@@QAE@XZ 10039a90 f i InflationConvexHullLib.obj
 0001:00038ab0       ??0ConvexHullLib@physx@@QAE@ABVPxConvexMeshDesc@1@ABUPxCookingParams@1@@Z 10039ab0 f i InflationConvexHullLib.obj
 0001:00038b10       ??0ConvexHullLibResult@physx@@QAE@XZ 10039b10 f i InflationConvexHullLib.obj
 0001:00038b70       ??0ExpandPlane@local@@QAE@ABU01@@Z 10039b70 f i InflationConvexHullLib.obj
 0001:00038c10       ??0ExpandPlane@local@@QAE@XZ 10039c10 f i InflationConvexHullLib.obj
 0001:00038ca0       ??0HullSimplex@local@@QAE@HHHH@Z 10039ca0 f i InflationConvexHullLib.obj
 0001:00038ce0       ??0HullTriangles@local@@QAE@XZ 10039ce0 f i InflationConvexHullLib.obj
 0001:00038d30       ??0PxTransform@physx@@QAE@XZ 10039d30 f i InflationConvexHullLib.obj
 0001:00038d60       ??0Tri@local@@IAE@HHH@Z    10039d60 f i InflationConvexHullLib.obj
 0001:00038dc0       ??0int3@local@@QAE@HHH@Z   10039dc0 f i InflationConvexHullLib.obj
 0001:00038e00       ??1?$Array@EVNamedAllocator@shdfnd@physx@@@shdfnd@physx@@QAE@XZ 10039e00 f i InflationConvexHullLib.obj
 0001:00038e70       ??1?$Array@HVNamedAllocator@shdfnd@physx@@@shdfnd@physx@@QAE@XZ 10039e70 f i InflationConvexHullLib.obj
 0001:00038ee0       ??1?$Array@PAVTri@local@@VNamedAllocator@shdfnd@physx@@@shdfnd@physx@@QAE@XZ 10039ee0 f i InflationConvexHullLib.obj
 0001:00038f50       ??1?$Array@UExpandPlane@local@@VNamedAllocator@shdfnd@physx@@@shdfnd@physx@@QAE@XZ 10039f50 f i InflationConvexHullLib.obj
 0001:00038fc0       ??1?$Array@VHalfEdge@ConvexHull@physx@@VNamedAllocator@shdfnd@3@@shdfnd@physx@@QAE@XZ 10039fc0 f i InflationConvexHullLib.obj
 0001:00039030       ??1?$Array@VPxPlane@physx@@VNamedAllocator@shdfnd@2@@shdfnd@physx@@QAE@XZ 1003a030 f i InflationConvexHullLib.obj
 0001:000390a0       ??1?$ScopedPointer@_NVTempAllocator@shdfnd@physx@@@shdfnd@physx@@QAE@XZ 1003a0a0 f i InflationConvexHullLib.obj
 0001:000390d0       ??1ConvexHull@physx@@QAE@XZ 1003a0d0 f i InflationConvexHullLib.obj
 0001:00039110       ??1HullTriangles@local@@QAE@XZ 1003a110 f i InflationConvexHullLib.obj
 0001:000391c0       ??1Tri@local@@IAE@XZ       1003a1c0 f i InflationConvexHullLib.obj
 0001:000391d0       ??4?$PxFlags@W4Enum@PxConvexFlag@physx@@G@physx@@QAEAAV01@ABV01@@Z 1003a1d0 f i InflationConvexHullLib.obj
 0001:00039200       ??A?$Array@EVNamedAllocator@shdfnd@physx@@@shdfnd@physx@@QAEAAEI@Z 1003a200 f i InflationConvexHullLib.obj
 0001:00039270       ??A?$Array@HVNamedAllocator@shdfnd@physx@@@shdfnd@physx@@QAEAAHI@Z 1003a270 f i InflationConvexHullLib.obj
 0001:000392e0       ??A?$Array@PAVTri@local@@VNamedAllocator@shdfnd@physx@@@shdfnd@physx@@QAEAAPAVTri@local@@I@Z 1003a2e0 f i InflationConvexHullLib.obj
 0001:00039350       ??A?$Array@PAVTri@local@@VNamedAllocator@shdfnd@physx@@@shdfnd@physx@@QBEABQAVTri@local@@I@Z 1003a350 f i InflationConvexHullLib.obj
 0001:000393c0       ??A?$Array@UExpandPlane@local@@VNamedAllocator@shdfnd@physx@@@shdfnd@physx@@QAEAAUExpandPlane@local@@I@Z 1003a3c0 f i InflationConvexHullLib.obj
 0001:00039430       ??A?$Array@VPxPlane@physx@@VNamedAllocator@shdfnd@2@@shdfnd@physx@@QAEAAVPxPlane@2@I@Z 1003a430 f i InflationConvexHullLib.obj
 0001:000394a0       ??AHullSimplex@local@@QAEAAHH@Z 1003a4a0 f i InflationConvexHullLib.obj
 0001:000394c0       ??AHullTriangles@local@@QAEPAVTri@1@I@Z 1003a4c0 f i InflationConvexHullLib.obj
 0001:000394f0       ??AHullTriangles@local@@QBEPBVTri@1@I@Z 1003a4f0 f i InflationConvexHullLib.obj
 0001:00039520       ??Aint3@local@@QAEAAHH@Z   1003a520 f i InflationConvexHullLib.obj
 0001:00039540       ??Aint3@local@@QBEABHH@Z   1003a540 f i InflationConvexHullLib.obj
 0001:00039560       ??B?$ScopedPointer@_NVTempAllocator@shdfnd@physx@@@shdfnd@physx@@QBEPA_NXZ 1003a560 f i InflationConvexHullLib.obj
 0001:00039580       ??KPxVec3@physx@@QBE?AV01@M@Z 1003a580 f i InflationConvexHullLib.obj
 0001:00039600       ??_GConvexHull@physx@@QAEPAXI@Z 1003a600 f i InflationConvexHullLib.obj
 0001:00039660       ??_EInflationConvexHullLib@physx@@UAEPAXI@Z 1003a660 f i InflationConvexHullLib.obj
 0001:00039660       ??_GInflationConvexHullLib@physx@@UAEPAXI@Z 1003a660 f i InflationConvexHullLib.obj
 0001:000396c0       ??_GTri@local@@IAEPAXI@Z   1003a6c0 f i InflationConvexHullLib.obj
 0001:00039850       ?allocate@?$Array@EVNamedAllocator@shdfnd@physx@@@shdfnd@physx@@IAEPAEI@Z 1003a850 f i InflationConvexHullLib.obj
 0001:000398d0       ?allocate@?$Array@HVNamedAllocator@shdfnd@physx@@@shdfnd@physx@@IAEPAHI@Z 1003a8d0 f i InflationConvexHullLib.obj
 0001:00039950       ?allocate@?$Array@PAVTri@local@@VNamedAllocator@shdfnd@physx@@@shdfnd@physx@@IAEPAPAVTri@local@@I@Z 1003a950 f i InflationConvexHullLib.obj
 0001:000399d0       ?allocate@?$Array@UExpandPlane@local@@VNamedAllocator@shdfnd@physx@@@shdfnd@physx@@IAEPAUExpandPlane@local@@I@Z 1003a9d0 f i InflationConvexHullLib.obj
 0001:00039a50       ?allocate@?$ReflectionAllocator@UPxHullPolygon@physx@@@shdfnd@physx@@QAEPAXIPBDH@Z 1003aa50 f i InflationConvexHullLib.obj
 0001:00039ab0       ?allocate@?$ReflectionAllocator@VTri@local@@@shdfnd@physx@@QAEPAXIPBDH@Z 1003aab0 f i InflationConvexHullLib.obj
 0001:00039b10       ?b2bfix@HullTriangles@local@@IAEXPAVTri@2@0@Z 1003ab10 f i InflationConvexHullLib.obj
 0001:00039d50       ?capacity@?$Array@EVNamedAllocator@shdfnd@physx@@@shdfnd@physx@@QBEIXZ 1003ad50 f i InflationConvexHullLib.obj
 0001:00039d70       ?capacity@?$Array@HVNamedAllocator@shdfnd@physx@@@shdfnd@physx@@QBEIXZ 1003ad70 f i InflationConvexHullLib.obj
 0001:00039d90       ?capacity@?$Array@PAVTri@local@@VNamedAllocator@shdfnd@physx@@@shdfnd@physx@@QBEIXZ 1003ad90 f i InflationConvexHullLib.obj
 0001:00039db0       ?capacity@?$Array@UExpandPlane@local@@VNamedAllocator@shdfnd@physx@@@shdfnd@physx@@QBEIXZ 1003adb0 f i InflationConvexHullLib.obj
 0001:00039dd0       ?capacityIncrement@?$Array@EVNamedAllocator@shdfnd@physx@@@shdfnd@physx@@IBEIXZ 1003add0 f i InflationConvexHullLib.obj
 0001:00039e10       ?capacityIncrement@?$Array@HVNamedAllocator@shdfnd@physx@@@shdfnd@physx@@IBEIXZ 1003ae10 f i InflationConvexHullLib.obj
 0001:00039e50       ?capacityIncrement@?$Array@PAVTri@local@@VNamedAllocator@shdfnd@physx@@@shdfnd@physx@@IBEIXZ 1003ae50 f i InflationConvexHullLib.obj
 0001:00039e90       ?capacityIncrement@?$Array@UExpandPlane@local@@VNamedAllocator@shdfnd@physx@@@shdfnd@physx@@IBEIXZ 1003ae90 f i InflationConvexHullLib.obj
 0001:00039ed0       ?checkit@HullTriangles@local@@QBEXPAVTri@2@@Z 1003aed0 f i InflationConvexHullLib.obj
 0001:0003a0b0       ?clear@?$Array@HVNamedAllocator@shdfnd@physx@@@shdfnd@physx@@QAEXXZ 1003b0b0 f i InflationConvexHullLib.obj
 0001:0003a0f0       ?clear@?$Array@PAVTri@local@@VNamedAllocator@shdfnd@physx@@@shdfnd@physx@@QAEXXZ 1003b0f0 f i InflationConvexHullLib.obj
 0001:0003a130       ?copy@?$Array@EVNamedAllocator@shdfnd@physx@@@shdfnd@physx@@KAXPAE0PBE@Z 1003b130 f i InflationConvexHullLib.obj
 0001:0003a1e0       ?copy@?$Array@HVNamedAllocator@shdfnd@physx@@@shdfnd@physx@@KAXPAH0PBH@Z 1003b1e0 f i InflationConvexHullLib.obj
 0001:0003a290       ?copy@?$Array@PAVTri@local@@VNamedAllocator@shdfnd@physx@@@shdfnd@physx@@KAXPAPAVTri@local@@0PBQAV45@@Z 1003b290 f i InflationConvexHullLib.obj
 0001:0003a340       ?copy@?$Array@UExpandPlane@local@@VNamedAllocator@shdfnd@physx@@@shdfnd@physx@@KAXPAUExpandPlane@local@@0PBU45@@Z 1003b340 f i InflationConvexHullLib.obj
 0001:0003a400       ?create@?$Array@HVNamedAllocator@shdfnd@physx@@@shdfnd@physx@@KAXPAH0ABH@Z 1003b400 f i InflationConvexHullLib.obj
 0001:0003a4b0       ?createTri@HullTriangles@local@@QAEPAVTri@2@HHH@Z 1003b4b0 f i InflationConvexHullLib.obj
 0001:0003a550       ?deallocate@?$Array@EVNamedAllocator@shdfnd@physx@@@shdfnd@physx@@IAEXPAX@Z 1003b550 f i InflationConvexHullLib.obj
 0001:0003a570       ?deallocate@?$Array@HVNamedAllocator@shdfnd@physx@@@shdfnd@physx@@IAEXPAX@Z 1003b570 f i InflationConvexHullLib.obj
 0001:0003a590       ?deallocate@?$Array@PAVTri@local@@VNamedAllocator@shdfnd@physx@@@shdfnd@physx@@IAEXPAX@Z 1003b590 f i InflationConvexHullLib.obj
 0001:0003a5b0       ?deallocate@?$Array@UExpandPlane@local@@VNamedAllocator@shdfnd@physx@@@shdfnd@physx@@IAEXPAX@Z 1003b5b0 f i InflationConvexHullLib.obj
 0001:0003a5d0       ?deleteTri@HullTriangles@local@@QAEXPAVTri@2@@Z 1003b5d0 f i InflationConvexHullLib.obj
 0001:0003a690       ?destroy@?$Array@EVNamedAllocator@shdfnd@physx@@@shdfnd@physx@@KAXPAE0@Z 1003b690 f i InflationConvexHullLib.obj
 0001:0003a6c0       ?destroy@?$Array@HVNamedAllocator@shdfnd@physx@@@shdfnd@physx@@KAXPAH0@Z 1003b6c0 f i InflationConvexHullLib.obj
 0001:0003a6f0       ?destroy@?$Array@PAVTri@local@@VNamedAllocator@shdfnd@physx@@@shdfnd@physx@@KAXPAPAVTri@local@@0@Z 1003b6f0 f i InflationConvexHullLib.obj
 0001:0003a720       ?destroy@?$Array@UExpandPlane@local@@VNamedAllocator@shdfnd@physx@@@shdfnd@physx@@KAXPAUExpandPlane@local@@0@Z 1003b720 f i InflationConvexHullLib.obj
 0001:0003a750       ?extrude@HullTriangles@local@@QAEXPAVTri@2@H@Z 1003b750 f i InflationConvexHullLib.obj
 0001:0003ab60       ?findExtrudable@HullTriangles@local@@QBEPAVTri@2@M@Z 1003bb60 f i InflationConvexHullLib.obj
 0001:0003ac30       ?getArea2@Tri@local@@QBEMPBVPxVec3@physx@@@Z 1003bc30 f i InflationConvexHullLib.obj
 0001:0003acd0       ?getName@?$ReflectionAllocator@UPxHullPolygon@physx@@@shdfnd@physx@@CAPBDXZ 1003bcd0 f i InflationConvexHullLib.obj
 0001:0003ad20       ?getName@?$ReflectionAllocator@VTri@local@@@shdfnd@physx@@CAPBDXZ 1003bd20 f i InflationConvexHullLib.obj
 0001:0003ad70       ?getNormal@Tri@local@@QBE?AVPxVec3@physx@@PBV34@@Z 1003bd70 f i InflationConvexHullLib.obj
 0001:0003ae90       ?getTriangles@HullTriangles@local@@QAEAAV?$Array@PAVTri@local@@VNamedAllocator@shdfnd@physx@@@shdfnd@physx@@XZ 1003be90 f i InflationConvexHullLib.obj
 0001:0003aeb0       ?grow@?$Array@EVNamedAllocator@shdfnd@physx@@@shdfnd@physx@@IAEXI@Z 1003beb0 f i InflationConvexHullLib.obj
 0001:0003af30       ?grow@?$Array@HVNamedAllocator@shdfnd@physx@@@shdfnd@physx@@IAEXI@Z 1003bf30 f i InflationConvexHullLib.obj
 0001:0003afb0       ?grow@?$Array@PAVTri@local@@VNamedAllocator@shdfnd@physx@@@shdfnd@physx@@IAEXI@Z 1003bfb0 f i InflationConvexHullLib.obj
 0001:0003b030       ?growAndPushBack@?$Array@EVNamedAllocator@shdfnd@physx@@@shdfnd@physx@@IAEAAEABE@Z 1003c030 f i InflationConvexHullLib.obj
 0001:0003b1b0       ?growAndPushBack@?$Array@HVNamedAllocator@shdfnd@physx@@@shdfnd@physx@@IAEAAHABH@Z 1003c1b0 f i InflationConvexHullLib.obj
 0001:0003b340       ?growAndPushBack@?$Array@PAVTri@local@@VNamedAllocator@shdfnd@physx@@@shdfnd@physx@@IAEAAPAVTri@local@@ABQAV45@@Z 1003c340 f i InflationConvexHullLib.obj
 0001:0003b4d0       ?growAndPushBack@?$Array@UExpandPlane@local@@VNamedAllocator@shdfnd@physx@@@shdfnd@physx@@IAEAAUExpandPlane@local@@ABU45@@Z 1003c4d0 f i InflationConvexHullLib.obj
 0001:0003b650       ?hasVolume@HullSimplex@local@@SA_NPBVPxVec3@physx@@IIII@Z 1003c650 f i InflationConvexHullLib.obj
 0001:0003b760       ?isArrayOfPOD@?$Array@EVNamedAllocator@shdfnd@physx@@@shdfnd@physx@@SA_NXZ 1003c760 f i InflationConvexHullLib.obj
 0001:0003b770       ?isArrayOfPOD@?$Array@HVNamedAllocator@shdfnd@physx@@@shdfnd@physx@@SA_NXZ 1003c770 f i InflationConvexHullLib.obj
 0001:0003b780       ?isArrayOfPOD@?$Array@PAVTri@local@@VNamedAllocator@shdfnd@physx@@@shdfnd@physx@@SA_NXZ 1003c780 f i InflationConvexHullLib.obj
 0001:0003b790       ?isArrayOfPOD@?$Array@UExpandPlane@local@@VNamedAllocator@shdfnd@physx@@@shdfnd@physx@@SA_NXZ 1003c790 f i InflationConvexHullLib.obj
 0001:0003b7a0       ?isInUserMemory@?$Array@EVNamedAllocator@shdfnd@physx@@@shdfnd@physx@@QBEIXZ 1003c7a0 f i InflationConvexHullLib.obj
 0001:0003b7c0       ?isInUserMemory@?$Array@HVNamedAllocator@shdfnd@physx@@@shdfnd@physx@@QBEIXZ 1003c7c0 f i InflationConvexHullLib.obj
 0001:0003b7e0       ?isInUserMemory@?$Array@PAVTri@local@@VNamedAllocator@shdfnd@physx@@@shdfnd@physx@@QBEIXZ 1003c7e0 f i InflationConvexHullLib.obj
 0001:0003b800       ?isInUserMemory@?$Array@UExpandPlane@local@@VNamedAllocator@shdfnd@physx@@@shdfnd@physx@@QBEIXZ 1003c800 f i InflationConvexHullLib.obj
 0001:0003b820       ?isZeroInit@?$Array@HVNamedAllocator@shdfnd@physx@@@shdfnd@physx@@KA_NABH@Z 1003c820 f i InflationConvexHullLib.obj
 0001:0003b880       ?neib@Tri@local@@QAEAAHHH@Z 1003c880 f i InflationConvexHullLib.obj
 0001:0003b9c0       ?pushBack@?$Array@EVNamedAllocator@shdfnd@physx@@@shdfnd@physx@@QAEAAEABE@Z 1003c9c0 f i InflationConvexHullLib.obj
 0001:0003ba70       ?pushBack@?$Array@HVNamedAllocator@shdfnd@physx@@@shdfnd@physx@@QAEAAHABH@Z 1003ca70 f i InflationConvexHullLib.obj
 0001:0003bb20       ?pushBack@?$Array@PAVTri@local@@VNamedAllocator@shdfnd@physx@@@shdfnd@physx@@QAEAAPAVTri@local@@ABQAV45@@Z 1003cb20 f i InflationConvexHullLib.obj
 0001:0003bbd0       ?pushBack@?$Array@UExpandPlane@local@@VNamedAllocator@shdfnd@physx@@@shdfnd@physx@@QAEAAUExpandPlane@local@@ABU45@@Z 1003cbd0 f i InflationConvexHullLib.obj
 0001:0003bc80       ?recreate@?$Array@EVNamedAllocator@shdfnd@physx@@@shdfnd@physx@@IAEXI@Z 1003cc80 f i InflationConvexHullLib.obj
 0001:0003bd80       ?recreate@?$Array@HVNamedAllocator@shdfnd@physx@@@shdfnd@physx@@IAEXI@Z 1003cd80 f i InflationConvexHullLib.obj
 0001:0003be90       ?recreate@?$Array@PAVTri@local@@VNamedAllocator@shdfnd@physx@@@shdfnd@physx@@IAEXI@Z 1003ce90 f i InflationConvexHullLib.obj
 0001:0003bfa0       ?removeb2b@HullTriangles@local@@IAEXPAVTri@2@0@Z 1003cfa0 f i InflationConvexHullLib.obj
 0001:0003bff0       ?reserve@?$Array@EVNamedAllocator@shdfnd@physx@@@shdfnd@physx@@QAEXI@Z 1003cff0 f i InflationConvexHullLib.obj
 0001:0003c020       ?reserve@?$Array@HVNamedAllocator@shdfnd@physx@@@shdfnd@physx@@QAEXI@Z 1003d020 f i InflationConvexHullLib.obj
 0001:0003c050       ?reserve@?$Array@PAVTri@local@@VNamedAllocator@shdfnd@physx@@@shdfnd@physx@@QAEXI@Z 1003d050 f i InflationConvexHullLib.obj
 0001:0003c080       ?resize@?$Array@HVNamedAllocator@shdfnd@physx@@@shdfnd@physx@@QAEXIABH@Z 1003d080 f i InflationConvexHullLib.obj
 0001:0003c110       ?size@?$Array@HVNamedAllocator@shdfnd@physx@@@shdfnd@physx@@QBEIXZ 1003d110 f i InflationConvexHullLib.obj
 0001:0003c130       ?size@?$Array@PAVTri@local@@VNamedAllocator@shdfnd@physx@@@shdfnd@physx@@QBEIXZ 1003d130 f i InflationConvexHullLib.obj
 0001:0003c150       ?size@?$Array@UExpandPlane@local@@VNamedAllocator@shdfnd@physx@@@shdfnd@physx@@QBEIXZ 1003d150 f i InflationConvexHullLib.obj
 0001:0003c170       ?size@HullTriangles@local@@QBEIXZ 1003d170 f i InflationConvexHullLib.obj
 0001:0003c190       ?to8@shdfnd@physx@@YAEH@Z  1003d190 f i InflationConvexHullLib.obj
 0001:0003c280       ??0QuickHullConvexHullLib@physx@@QAE@ABVPxConvexMeshDesc@1@ABUPxCookingParams@1@@Z 1003d280 f   QuickHullConvexHullLib.obj
 0001:0003c350       ??1QuickHullConvexHullLib@physx@@UAE@XZ 1003d350 f   QuickHullConvexHullLib.obj
 0001:0003c420       ?createConvexHull@QuickHullConvexHullLib@physx@@UAE?AW4Enum@PxConvexMeshCookingResult@2@XZ 1003d420 f   QuickHullConvexHullLib.obj
 0001:0003c7f0       ?fillConvexMeshDesc@QuickHullConvexHullLib@physx@@UAEXAAVPxConvexMeshDesc@2@@Z 1003d7f0 f   QuickHullConvexHullLib.obj
 0001:0003c860       ?expandHullOBB@QuickHullConvexHullLib@physx@@IAE?AW4Enum@PxConvexMeshCookingResult@2@XZ 1003d860 f   QuickHullConvexHullLib.obj
 0001:0003cd10       ?expandHull@QuickHullConvexHullLib@physx@@IAE?AW4Enum@PxConvexMeshCookingResult@2@XZ 1003dd10 f   QuickHullConvexHullLib.obj
 0001:0003d310       ?cleanupForSimplex@QuickHullConvexHullLib@physx@@IAE_NPAVPxVec3@2@IPAUQuickHullVertex@local@@1AAM2@Z 1003e310 f   QuickHullConvexHullLib.obj
 0001:0003dc60       ?fillConvexMeshDescFromQuickHull@QuickHullConvexHullLib@physx@@IAEXAAVPxConvexMeshDesc@2@@Z 1003ec60 f   QuickHullConvexHullLib.obj
 0001:0003e160       ?fillConvexMeshDescFromCroppedHull@QuickHullConvexHullLib@physx@@IAEXAAVPxConvexMeshDesc@2@@Z 1003f160 f   QuickHullConvexHullLib.obj
 0001:0003e560       ?getOppositeFaceDistance@QuickHullHalfEdge@local@@QBEMXZ 1003f560 f   QuickHullConvexHullLib.obj
 0001:0003e610       ?mergeAdjacentFace@QuickHullFace@local@@QAEXPAUQuickHullHalfEdge@2@AAV?$Array@PAUQuickHullFace@local@@VNamedAllocator@shdfnd@physx@@@shdfnd@physx@@@Z 1003f610 f   QuickHullConvexHullLib.obj
 0001:0003e780       ?checkFaceConsistency@QuickHullFace@local@@QAE_NXZ 1003f780 f   QuickHullConvexHullLib.obj
 0001:0003e970       ?connectHalfEdges@QuickHullFace@local@@AAEPAU12@PAUQuickHullHalfEdge@2@0@Z 1003f970 f   QuickHullConvexHullLib.obj
 0001:0003ea80       ??0QuickHull@local@@QAE@ABUPxCookingParams@physx@@ABVPxConvexMeshDesc@3@@Z 1003fa80 f   QuickHullConvexHullLib.obj
 0001:0003ec10       ??1QuickHull@local@@QAE@XZ 1003fc10 f   QuickHullConvexHullLib.obj
 0001:0003ec90       ?preallocate@QuickHull@local@@QAEXI@Z 1003fc90 f   QuickHullConvexHullLib.obj
 0001:0003ede0       ?parseInputVertices@QuickHull@local@@QAEXPBVPxVec3@physx@@I@Z 1003fde0 f   QuickHullConvexHullLib.obj
 0001:0003eec0       ?releaseHull@QuickHull@local@@QAEXXZ 1003fec0 f   QuickHullConvexHullLib.obj
 0001:0003ef10       ?setPrecomputedMinMax@QuickHull@local@@QAEXPBUQuickHullVertex@2@0MM@Z 1003ff10 f   QuickHullConvexHullLib.obj
 0001:0003efa0       ?buildHull@QuickHull@local@@QAE?AW4Enum@QuickHullResult@2@XZ 1003ffa0 f   QuickHullConvexHullLib.obj
 0001:0003f160       ?maxNumVertsPerFace@QuickHull@local@@QBEIXZ 10040160 f   QuickHullConvexHullLib.obj
 0001:0003f1e0       ?computeMinMaxVerts@QuickHull@local@@IAEXXZ 100401e0 f   QuickHullConvexHullLib.obj
 0001:0003f5c0       ?findSimplex@QuickHull@local@@IAE_NXZ 100405c0 f   QuickHullConvexHullLib.obj
 0001:0003fa00       ?addSimplex@QuickHull@local@@IAEXPAUQuickHullVertex@2@_N@Z 10040a00 f   QuickHullConvexHullLib.obj
 0001:0003fef0       ?nextPointToAdd@QuickHull@local@@IAEPAUQuickHullVertex@2@AAPAUQuickHullFace@2@@Z 10040ef0 f   QuickHullConvexHullLib.obj
 0001:0003ffe0       ?addPointToHull@QuickHull@local@@IAE_NPBUQuickHullVertex@2@AAUQuickHullFace@2@@Z 10040fe0 f   QuickHullConvexHullLib.obj
 0001:00040210       ?createTriangle@QuickHull@local@@IAEPAUQuickHullFace@2@ABUQuickHullVertex@2@00@Z 10041210 f   QuickHullConvexHullLib.obj
 0001:000402e0       ?addPointToFace@QuickHull@local@@IAEXAAUQuickHullFace@2@PAUQuickHullVertex@2@M@Z 100412e0 f   QuickHullConvexHullLib.obj
 0001:000403b0       ?removeEyePointFromFace@QuickHull@local@@IAEXAAUQuickHullFace@2@PBUQuickHullVertex@2@@Z 100413b0 f   QuickHullConvexHullLib.obj
 0001:00040420       ?calculateHorizon@QuickHull@local@@IAEXABVPxVec3@physx@@PAUQuickHullHalfEdge@2@AAUQuickHullFace@2@AAV?$Array@PAUQuickHullHalfEdge@local@@VNamedAllocator@shdfnd@physx@@@shdfnd@4@AAV?$Array@PAUQuickHullFace@local@@VNamedAllocator@shdfnd@physx@@@84@@Z 10041420 f   QuickHullConvexHullLib.obj
 0001:00040510       ?addNewFacesFromHorizon@QuickHull@local@@IAEXPBUQuickHullVertex@2@ABV?$Array@PAUQuickHullHalfEdge@local@@VNamedAllocator@shdfnd@physx@@@shdfnd@physx@@AAV?$Array@PAUQuickHullFace@local@@VNamedAllocator@shdfnd@physx@@@56@@Z 10041510 f   QuickHullConvexHullLib.obj
 0001:00040610       ?doAdjacentMerge@QuickHull@local@@IAE_NAAUQuickHullFace@2@_N@Z 10041610 f   QuickHullConvexHullLib.obj
 0001:00040870       ?doPostAdjacentMerge@QuickHull@local@@IAE_NAAUQuickHullFace@2@M@Z 10041870 f   QuickHullConvexHullLib.obj
 0001:000409e0       ?deleteFacePoints@QuickHull@local@@IAEXAAUQuickHullFace@2@PAU32@@Z 100419e0 f   QuickHullConvexHullLib.obj
 0001:00040ac0       ?resolveUnclaimedPoints@QuickHull@local@@IAEXABV?$Array@PAUQuickHullFace@local@@VNamedAllocator@shdfnd@physx@@@shdfnd@physx@@@Z 10041ac0 f   QuickHullConvexHullLib.obj
 0001:00040be0       ?postMergeHull@QuickHull@local@@IAEXXZ 10041be0 f   QuickHullConvexHullLib.obj
 0001:00040ca0       ?canMergeFaces@QuickHull@local@@IAE_NABUQuickHullHalfEdge@2@@Z 10041ca0 f   QuickHullConvexHullLib.obj
 0001:00041110       ?getExpandPoint@local@@YAXABUQuickHullHalfEdge@1@AAUExpandPoint@1@PBV?$Array@IVNamedAllocator@shdfnd@physx@@@shdfnd@physx@@@Z 10042110 f   QuickHullConvexHullLib.obj
 0001:000412e0       ?addExpandPoint@local@@YAXABUExpandPoint@1@AAV?$Array@UExpandPoint@local@@VNamedAllocator@shdfnd@physx@@@shdfnd@physx@@@Z 100422e0 f   QuickHullConvexHullLib.obj
 0001:00042840       ??$?2V?$ReflectionAllocator@VQuickHull@local@@@shdfnd@physx@@@UserAllocated@shdfnd@physx@@SAPAXIV?$ReflectionAllocator@VQuickHull@local@@@12@PBDH@Z 10043840 f i QuickHullConvexHullLib.obj
 0001:00042860       ??$PX_UNUSED@PAUQuickHullFace@local@@@@YAXABQAUQuickHullFace@local@@@Z 10043860 f i QuickHullConvexHullLib.obj
 0001:00042870       ??$PX_UNUSED@PBUQuickHullVertex@local@@@@YAXABQBUQuickHullVertex@local@@@Z 10043870 f i QuickHullConvexHullLib.obj
 0001:00042880       ??$PX_UNUSED@W4PxZERO@physx@@@@YAXABW4PxZERO@physx@@@Z 10043880 f i QuickHullConvexHullLib.obj
 0001:00042890       ??0?$Array@PAUQuickHullFace@local@@VNamedAllocator@shdfnd@physx@@@shdfnd@physx@@QAE@ABVNamedAllocator@12@@Z 10043890 f i QuickHullConvexHullLib.obj
 0001:000428e0       ??0?$Array@PAUQuickHullHalfEdge@local@@VNamedAllocator@shdfnd@physx@@@shdfnd@physx@@QAE@ABVNamedAllocator@12@@Z 100438e0 f i QuickHullConvexHullLib.obj
 0001:00042930       ??0?$Array@PAUQuickHullVertex@local@@VNamedAllocator@shdfnd@physx@@@shdfnd@physx@@QAE@ABVNamedAllocator@12@@Z 10043930 f i QuickHullConvexHullLib.obj
 0001:00042980       ??0?$Array@UExpandPoint@local@@VNamedAllocator@shdfnd@physx@@@shdfnd@physx@@QAE@ABVNamedAllocator@12@@Z 10043980 f i QuickHullConvexHullLib.obj
 0001:000429d0       ??0?$MemBlock@UQuickHullFace@local@@$00@local@@QAE@XZ 100439d0 f i QuickHullConvexHullLib.obj
 0001:00042a30       ??0?$MemBlock@UQuickHullHalfEdge@local@@$0A@@local@@QAE@XZ 10043a30 f i QuickHullConvexHullLib.obj
 0001:00042a90       ??0?$ReflectionAllocator@VQuickHull@local@@@shdfnd@physx@@QAE@PBD@Z 10043a90 f i QuickHullConvexHullLib.obj
 0001:00042ab0       ??0?$ScopedPointer@UQuickHullHalfEdge@local@@VTempAllocator@shdfnd@physx@@@shdfnd@physx@@QAE@XZ 10043ab0 f i QuickHullConvexHullLib.obj
 0001:00042ad0       ??0?$ScopedPointer@VPxVec3@physx@@VTempAllocator@shdfnd@2@@shdfnd@physx@@QAE@XZ 10043ad0 f i QuickHullConvexHullLib.obj
 0001:00042af0       ??0ExpandPoint@local@@QAE@ABU01@@Z 10043af0 f i QuickHullConvexHullLib.obj
 0001:00042b50       ??0ExpandPoint@local@@QAE@XZ 10043b50 f i QuickHullConvexHullLib.obj
 0001:00042b80       ??0PxVec3@physx@@QAE@W4PxZERO@1@@Z 10043b80 f i QuickHullConvexHullLib.obj
 0001:00042bd0       ??0QuickHullFace@local@@QAE@I@Z 10043bd0 f i QuickHullConvexHullLib.obj
 0001:00042c80       ??0QuickHullFace@local@@QAE@XZ 10043c80 f i QuickHullConvexHullLib.obj
 0001:00042d20       ??0QuickHullHalfEdge@local@@QAE@I@Z 10043d20 f i QuickHullConvexHullLib.obj
 0001:00042d70       ??0QuickHullVertex@local@@QAE@XZ 10043d70 f i QuickHullConvexHullLib.obj
 0001:00042d90       ??1?$Array@PAUQuickHullFace@local@@VNamedAllocator@shdfnd@physx@@@shdfnd@physx@@QAE@XZ 10043d90 f i QuickHullConvexHullLib.obj
 0001:00042e00       ??1?$Array@PAUQuickHullHalfEdge@local@@VNamedAllocator@shdfnd@physx@@@shdfnd@physx@@QAE@XZ 10043e00 f i QuickHullConvexHullLib.obj
 0001:00042e70       ??1?$Array@PAUQuickHullVertex@local@@VNamedAllocator@shdfnd@physx@@@shdfnd@physx@@QAE@XZ 10043e70 f i QuickHullConvexHullLib.obj
 0001:00042ee0       ??1?$Array@UExpandPoint@local@@VNamedAllocator@shdfnd@physx@@@shdfnd@physx@@QAE@XZ 10043ee0 f i QuickHullConvexHullLib.obj
 0001:00042f50       ??1?$MemBlock@UQuickHullFace@local@@$00@local@@QAE@XZ 10043f50 f i QuickHullConvexHullLib.obj
 0001:00042fe0       ??1?$MemBlock@UQuickHullHalfEdge@local@@$0A@@local@@QAE@XZ 10043fe0 f i QuickHullConvexHullLib.obj
 0001:00043070       ??1?$ScopedPointer@UQuickHullHalfEdge@local@@VTempAllocator@shdfnd@physx@@@shdfnd@physx@@QAE@XZ 10044070 f i QuickHullConvexHullLib.obj
 0001:000430a0       ??1?$ScopedPointer@VPxVec3@physx@@VTempAllocator@shdfnd@2@@shdfnd@physx@@QAE@XZ 100440a0 f i QuickHullConvexHullLib.obj
 0001:000430d0       ??1QuickHullFace@local@@QAE@XZ 100440d0 f i QuickHullConvexHullLib.obj
 0001:000430e0       ??4QuickHullVertex@local@@QAEAAU01@ABU01@@Z 100440e0 f i QuickHullConvexHullLib.obj
 0001:00043130       ??8ExpandPoint@local@@QBE_NABU01@@Z 10044130 f i QuickHullConvexHullLib.obj
 0001:000431d0       ??8QuickHullVertex@local@@QBE_NABU01@@Z 100441d0 f i QuickHullConvexHullLib.obj
 0001:00043210       ??A?$Array@IVNamedAllocator@shdfnd@physx@@@shdfnd@physx@@QBEABII@Z 10044210 f i QuickHullConvexHullLib.obj
 0001:00043280       ??A?$Array@PAUQuickHullFace@local@@VNamedAllocator@shdfnd@physx@@@shdfnd@physx@@QAEAAPAUQuickHullFace@local@@I@Z 10044280 f i QuickHullConvexHullLib.obj
 0001:000432f0       ??A?$Array@PAUQuickHullFace@local@@VNamedAllocator@shdfnd@physx@@@shdfnd@physx@@QBEABQAUQuickHullFace@local@@I@Z 100442f0 f i QuickHullConvexHullLib.obj
 0001:00043360       ??A?$Array@PAUQuickHullHalfEdge@local@@VNamedAllocator@shdfnd@physx@@@shdfnd@physx@@QAEAAPAUQuickHullHalfEdge@local@@I@Z 10044360 f i QuickHullConvexHullLib.obj
 0001:000433d0       ??A?$Array@PAUQuickHullHalfEdge@local@@VNamedAllocator@shdfnd@physx@@@shdfnd@physx@@QBEABQAUQuickHullHalfEdge@local@@I@Z 100443d0 f i QuickHullConvexHullLib.obj
 0001:00043440       ??A?$Array@PAUQuickHullVertex@local@@VNamedAllocator@shdfnd@physx@@@shdfnd@physx@@QAEAAPAUQuickHullVertex@local@@I@Z 10044440 f i QuickHullConvexHullLib.obj
 0001:000434b0       ??A?$Array@UExpandPoint@local@@VNamedAllocator@shdfnd@physx@@@shdfnd@physx@@QAEAAUExpandPoint@local@@I@Z 100444b0 f i QuickHullConvexHullLib.obj
 0001:00043520       ??B?$ScopedPointer@UQuickHullHalfEdge@local@@VTempAllocator@shdfnd@physx@@@shdfnd@physx@@QBEPAUQuickHullHalfEdge@local@@XZ 10044520 f i QuickHullConvexHullLib.obj
 0001:00043540       ??B?$ScopedPointer@VPxVec3@physx@@VTempAllocator@shdfnd@2@@shdfnd@physx@@QBEPAVPxVec3@2@XZ 10044540 f i QuickHullConvexHullLib.obj
 0001:00043560       ??_GQuickHull@local@@QAEPAXI@Z 10044560 f i QuickHullConvexHullLib.obj
 0001:000435c0       ??_EQuickHullConvexHullLib@physx@@UAEPAXI@Z 100445c0 f i QuickHullConvexHullLib.obj
 0001:000435c0       ??_GQuickHullConvexHullLib@physx@@UAEPAXI@Z 100445c0 f i QuickHullConvexHullLib.obj
 0001:00043620       ??__G@YGXPAX0IIP6EPAX00@Z@Z 10044620 f i QuickHullConvexHullLib.obj
 0001:00043690       ?allocate@?$Array@PAUQuickHullFace@local@@VNamedAllocator@shdfnd@physx@@@shdfnd@physx@@IAEPAPAUQuickHullFace@local@@I@Z 10044690 f i QuickHullConvexHullLib.obj
 0001:00043710       ?allocate@?$Array@PAUQuickHullHalfEdge@local@@VNamedAllocator@shdfnd@physx@@@shdfnd@physx@@IAEPAPAUQuickHullHalfEdge@local@@I@Z 10044710 f i QuickHullConvexHullLib.obj
 0001:00043790       ?allocate@?$Array@PAUQuickHullVertex@local@@VNamedAllocator@shdfnd@physx@@@shdfnd@physx@@IAEPAPAUQuickHullVertex@local@@I@Z 10044790 f i QuickHullConvexHullLib.obj
 0001:00043810       ?allocate@?$Array@UExpandPoint@local@@VNamedAllocator@shdfnd@physx@@@shdfnd@physx@@IAEPAUExpandPoint@local@@I@Z 10044810 f i QuickHullConvexHullLib.obj
 0001:00043890       ?allocate@?$ReflectionAllocator@VQuickHull@local@@@shdfnd@physx@@QAEPAXIPBDH@Z 10044890 f i QuickHullConvexHullLib.obj
 0001:000438f0       ?capacity@?$Array@PAUQuickHullFace@local@@VNamedAllocator@shdfnd@physx@@@shdfnd@physx@@QBEIXZ 100448f0 f i QuickHullConvexHullLib.obj
 0001:00043910       ?capacity@?$Array@PAUQuickHullHalfEdge@local@@VNamedAllocator@shdfnd@physx@@@shdfnd@physx@@QBEIXZ 10044910 f i QuickHullConvexHullLib.obj
 0001:00043930       ?capacity@?$Array@PAUQuickHullVertex@local@@VNamedAllocator@shdfnd@physx@@@shdfnd@physx@@QBEIXZ 10044930 f i QuickHullConvexHullLib.obj
 0001:00043950       ?capacity@?$Array@UExpandPoint@local@@VNamedAllocator@shdfnd@physx@@@shdfnd@physx@@QBEIXZ 10044950 f i QuickHullConvexHullLib.obj
 0001:00043970       ?capacityIncrement@?$Array@PAUQuickHullFace@local@@VNamedAllocator@shdfnd@physx@@@shdfnd@physx@@IBEIXZ 10044970 f i QuickHullConvexHullLib.obj
 0001:000439b0       ?capacityIncrement@?$Array@PAUQuickHullHalfEdge@local@@VNamedAllocator@shdfnd@physx@@@shdfnd@physx@@IBEIXZ 100449b0 f i QuickHullConvexHullLib.obj
 0001:000439f0       ?capacityIncrement@?$Array@PAUQuickHullVertex@local@@VNamedAllocator@shdfnd@physx@@@shdfnd@physx@@IBEIXZ 100449f0 f i QuickHullConvexHullLib.obj
 0001:00043a30       ?capacityIncrement@?$Array@UExpandPoint@local@@VNamedAllocator@shdfnd@physx@@@shdfnd@physx@@IBEIXZ 10044a30 f i QuickHullConvexHullLib.obj
 0001:00043a70       ?clear@?$Array@PAUQuickHullFace@local@@VNamedAllocator@shdfnd@physx@@@shdfnd@physx@@QAEXXZ 10044a70 f i QuickHullConvexHullLib.obj
 0001:00043ab0       ?clear@?$Array@PAUQuickHullHalfEdge@local@@VNamedAllocator@shdfnd@physx@@@shdfnd@physx@@QAEXXZ 10044ab0 f i QuickHullConvexHullLib.obj
 0001:00043af0       ?clear@?$Array@PAUQuickHullVertex@local@@VNamedAllocator@shdfnd@physx@@@shdfnd@physx@@QAEXXZ 10044af0 f i QuickHullConvexHullLib.obj
 0001:00043b30       ?computeNormalAndCentroid@QuickHullFace@local@@QAEXXZ 10044b30 f i QuickHullConvexHullLib.obj
 0001:00043db0       ?copy@?$Array@PAUQuickHullFace@local@@VNamedAllocator@shdfnd@physx@@@shdfnd@physx@@KAXPAPAUQuickHullFace@local@@0PBQAU45@@Z 10044db0 f i QuickHullConvexHullLib.obj
 0001:00043e60       ?copy@?$Array@PAUQuickHullHalfEdge@local@@VNamedAllocator@shdfnd@physx@@@shdfnd@physx@@KAXPAPAUQuickHullHalfEdge@local@@0PBQAU45@@Z 10044e60 f i QuickHullConvexHullLib.obj
 0001:00043f10       ?copy@?$Array@PAUQuickHullVertex@local@@VNamedAllocator@shdfnd@physx@@@shdfnd@physx@@KAXPAPAUQuickHullVertex@local@@0PBQAU45@@Z 10044f10 f i QuickHullConvexHullLib.obj
 0001:00043fc0       ?copy@?$Array@UExpandPoint@local@@VNamedAllocator@shdfnd@physx@@@shdfnd@physx@@KAXPAUExpandPoint@local@@0PBU45@@Z 10044fc0 f i QuickHullConvexHullLib.obj
 0001:00044080       ?deallocate@?$Array@PAUQuickHullFace@local@@VNamedAllocator@shdfnd@physx@@@shdfnd@physx@@IAEXPAX@Z 10045080 f i QuickHullConvexHullLib.obj
 0001:000440a0       ?deallocate@?$Array@PAUQuickHullHalfEdge@local@@VNamedAllocator@shdfnd@physx@@@shdfnd@physx@@IAEXPAX@Z 100450a0 f i QuickHullConvexHullLib.obj
 0001:000440c0       ?deallocate@?$Array@PAUQuickHullVertex@local@@VNamedAllocator@shdfnd@physx@@@shdfnd@physx@@IAEXPAX@Z 100450c0 f i QuickHullConvexHullLib.obj
 0001:000440e0       ?deallocate@?$Array@UExpandPoint@local@@VNamedAllocator@shdfnd@physx@@@shdfnd@physx@@IAEXPAX@Z 100450e0 f i QuickHullConvexHullLib.obj
 0001:00044100       ?destroy@?$Array@PAUQuickHullFace@local@@VNamedAllocator@shdfnd@physx@@@shdfnd@physx@@KAXPAPAUQuickHullFace@local@@0@Z 10045100 f i QuickHullConvexHullLib.obj
 0001:00044130       ?destroy@?$Array@PAUQuickHullHalfEdge@local@@VNamedAllocator@shdfnd@physx@@@shdfnd@physx@@KAXPAPAUQuickHullHalfEdge@local@@0@Z 10045130 f i QuickHullConvexHullLib.obj
 0001:00044160       ?destroy@?$Array@PAUQuickHullVertex@local@@VNamedAllocator@shdfnd@physx@@@shdfnd@physx@@KAXPAPAUQuickHullVertex@local@@0@Z 10045160 f i QuickHullConvexHullLib.obj
 0001:00044190       ?destroy@?$Array@UExpandPoint@local@@VNamedAllocator@shdfnd@physx@@@shdfnd@physx@@KAXPAUExpandPoint@local@@0@Z 10045190 f i QuickHullConvexHullLib.obj
 0001:000441c0       ?distanceToPlane@QuickHullFace@local@@QBEMVPxVec3@physx@@@Z 100451c0 f i QuickHullConvexHullLib.obj
 0001:00044210       ?getEdge@QuickHullFace@local@@QBEPAUQuickHullHalfEdge@2@I@Z 10045210 f i QuickHullConvexHullLib.obj
 0001:00044260       ?getFreeHullFace@QuickHull@local@@IAEPAUQuickHullFace@2@XZ 10045260 f i QuickHullConvexHullLib.obj
 0001:00044280       ?getFreeHullHalfEdge@QuickHull@local@@IAEPAUQuickHullHalfEdge@2@XZ 10045280 f i QuickHullConvexHullLib.obj
 0001:000442a0       ?getFreeItem@?$MemBlock@UQuickHullFace@local@@$00@local@@QAEPAUQuickHullFace@2@XZ 100452a0 f i QuickHullConvexHullLib.obj
 0001:00044480       ?getFreeItem@?$MemBlock@UQuickHullHalfEdge@local@@$0A@@local@@QAEPAUQuickHullHalfEdge@2@XZ 10045480 f i QuickHullConvexHullLib.obj
 0001:00044660       ?getHead@QuickHullHalfEdge@local@@QBEABUQuickHullVertex@2@XZ 10045660 f i QuickHullConvexHullLib.obj
 0001:000446d0       ?getItem@?$MemBlock@UQuickHullFace@local@@$00@local@@QAEPAUQuickHullFace@2@I@Z 100456d0 f i QuickHullConvexHullLib.obj
 0001:000447c0       ?getName@?$ReflectionAllocator@VQuickHull@local@@@shdfnd@physx@@CAPBDXZ 100457c0 f i QuickHullConvexHullLib.obj
 0001:00044810       ?getNbHullVerts@QuickHull@local@@IAEIXZ 10045810 f i QuickHullConvexHullLib.obj
 0001:00044830       ?getOppositeFace@QuickHullHalfEdge@local@@QBEPAUQuickHullFace@2@XZ 10045830 f i QuickHullConvexHullLib.obj
 0001:00044850       ?getTail@QuickHullHalfEdge@local@@QBEABUQuickHullVertex@2@XZ 10045850 f i QuickHullConvexHullLib.obj
 0001:00044870       ?grow@?$Array@PAUQuickHullFace@local@@VNamedAllocator@shdfnd@physx@@@shdfnd@physx@@IAEXI@Z 10045870 f i QuickHullConvexHullLib.obj
 0001:000448f0       ?grow@?$Array@PAUQuickHullHalfEdge@local@@VNamedAllocator@shdfnd@physx@@@shdfnd@physx@@IAEXI@Z 100458f0 f i QuickHullConvexHullLib.obj
 0001:00044970       ?grow@?$Array@PAUQuickHullVertex@local@@VNamedAllocator@shdfnd@physx@@@shdfnd@physx@@IAEXI@Z 10045970 f i QuickHullConvexHullLib.obj
 0001:000449f0       ?grow@?$Array@UExpandPoint@local@@VNamedAllocator@shdfnd@physx@@@shdfnd@physx@@IAEXI@Z 100459f0 f i QuickHullConvexHullLib.obj
 0001:00044a70       ?growAndPushBack@?$Array@PAUQuickHullFace@local@@VNamedAllocator@shdfnd@physx@@@shdfnd@physx@@IAEAAPAUQuickHullFace@local@@ABQAU45@@Z 10045a70 f i QuickHullConvexHullLib.obj
 0001:00044c00       ?growAndPushBack@?$Array@PAUQuickHullHalfEdge@local@@VNamedAllocator@shdfnd@physx@@@shdfnd@physx@@IAEAAPAUQuickHullHalfEdge@local@@ABQAU45@@Z 10045c00 f i QuickHullConvexHullLib.obj
 0001:00044d90       ?growAndPushBack@?$Array@PAUQuickHullVertex@local@@VNamedAllocator@shdfnd@physx@@@shdfnd@physx@@IAEAAPAUQuickHullVertex@local@@ABQAU45@@Z 10045d90 f i QuickHullConvexHullLib.obj
 0001:00044f20       ?growAndPushBack@?$Array@UExpandPoint@local@@VNamedAllocator@shdfnd@physx@@@shdfnd@physx@@IAEAAUExpandPoint@local@@ABU45@@Z 10045f20 f i QuickHullConvexHullLib.obj
 0001:000450a0       ?init@?$MemBlock@UQuickHullFace@local@@$00@local@@QAEXI@Z 100460a0 f i QuickHullConvexHullLib.obj
 0001:00045210       ?init@?$MemBlock@UQuickHullHalfEdge@local@@$0A@@local@@QAEXI@Z 10046210 f i QuickHullConvexHullLib.obj
 0001:00045380       ?isArrayOfPOD@?$Array@PAUQuickHullFace@local@@VNamedAllocator@shdfnd@physx@@@shdfnd@physx@@SA_NXZ 10046380 f i QuickHullConvexHullLib.obj
 0001:00045390       ?isArrayOfPOD@?$Array@PAUQuickHullHalfEdge@local@@VNamedAllocator@shdfnd@physx@@@shdfnd@physx@@SA_NXZ 10046390 f i QuickHullConvexHullLib.obj
 0001:000453a0       ?isArrayOfPOD@?$Array@PAUQuickHullVertex@local@@VNamedAllocator@shdfnd@physx@@@shdfnd@physx@@SA_NXZ 100463a0 f i QuickHullConvexHullLib.obj
 0001:000453b0       ?isArrayOfPOD@?$Array@UExpandPoint@local@@VNamedAllocator@shdfnd@physx@@@shdfnd@physx@@SA_NXZ 100463b0 f i QuickHullConvexHullLib.obj
 0001:000453c0       ?isInUserMemory@?$Array@PAUQuickHullFace@local@@VNamedAllocator@shdfnd@physx@@@shdfnd@physx@@QBEIXZ 100463c0 f i QuickHullConvexHullLib.obj
 0001:000453e0       ?isInUserMemory@?$Array@PAUQuickHullHalfEdge@local@@VNamedAllocator@shdfnd@physx@@@shdfnd@physx@@QBEIXZ 100463e0 f i QuickHullConvexHullLib.obj
 0001:00045400       ?isInUserMemory@?$Array@PAUQuickHullVertex@local@@VNamedAllocator@shdfnd@physx@@@shdfnd@physx@@QBEIXZ 10046400 f i QuickHullConvexHullLib.obj
 0001:00045420       ?isInUserMemory@?$Array@UExpandPoint@local@@VNamedAllocator@shdfnd@physx@@@shdfnd@physx@@QBEIXZ 10046420 f i QuickHullConvexHullLib.obj
 0001:00045440       ?isTriangle@QuickHullFace@local@@ABE_NXZ 10046440 f i QuickHullConvexHullLib.obj
 0001:00045470       ?pushBack@?$Array@PAUQuickHullFace@local@@VNamedAllocator@shdfnd@physx@@@shdfnd@physx@@QAEAAPAUQuickHullFace@local@@ABQAU45@@Z 10046470 f i QuickHullConvexHullLib.obj
 0001:00045520       ?pushBack@?$Array@PAUQuickHullHalfEdge@local@@VNamedAllocator@shdfnd@physx@@@shdfnd@physx@@QAEAAPAUQuickHullHalfEdge@local@@ABQAU45@@Z 10046520 f i QuickHullConvexHullLib.obj
 0001:000455d0       ?pushBack@?$Array@PAUQuickHullVertex@local@@VNamedAllocator@shdfnd@physx@@@shdfnd@physx@@QAEAAPAUQuickHullVertex@local@@ABQAU45@@Z 100465d0 f i QuickHullConvexHullLib.obj
 0001:00045680       ?pushBack@?$Array@UExpandPoint@local@@VNamedAllocator@shdfnd@physx@@@shdfnd@physx@@QAEAAUExpandPoint@local@@ABU45@@Z 10046680 f i QuickHullConvexHullLib.obj
 0001:00045730       ?recreate@?$Array@PAUQuickHullFace@local@@VNamedAllocator@shdfnd@physx@@@shdfnd@physx@@IAEXI@Z 10046730 f i QuickHullConvexHullLib.obj
 0001:00045840       ?recreate@?$Array@PAUQuickHullHalfEdge@local@@VNamedAllocator@shdfnd@physx@@@shdfnd@physx@@IAEXI@Z 10046840 f i QuickHullConvexHullLib.obj
 0001:00045950       ?recreate@?$Array@PAUQuickHullVertex@local@@VNamedAllocator@shdfnd@physx@@@shdfnd@physx@@IAEXI@Z 10046950 f i QuickHullConvexHullLib.obj
 0001:00045a60       ?recreate@?$Array@UExpandPoint@local@@VNamedAllocator@shdfnd@physx@@@shdfnd@physx@@IAEXI@Z 10046a60 f i QuickHullConvexHullLib.obj
 0001:00045b60       ?reserve@?$Array@PAUQuickHullFace@local@@VNamedAllocator@shdfnd@physx@@@shdfnd@physx@@QAEXI@Z 10046b60 f i QuickHullConvexHullLib.obj
 0001:00045b90       ?reserve@?$Array@PAUQuickHullHalfEdge@local@@VNamedAllocator@shdfnd@physx@@@shdfnd@physx@@QAEXI@Z 10046b90 f i QuickHullConvexHullLib.obj
 0001:00045bc0       ?reserve@?$Array@PAUQuickHullVertex@local@@VNamedAllocator@shdfnd@physx@@@shdfnd@physx@@QAEXI@Z 10046bc0 f i QuickHullConvexHullLib.obj
 0001:00045bf0       ?reserve@?$Array@UExpandPoint@local@@VNamedAllocator@shdfnd@physx@@@shdfnd@physx@@QAEXI@Z 10046bf0 f i QuickHullConvexHullLib.obj
 0001:00045c20       ?setTwin@QuickHullHalfEdge@local@@QAEXPAU12@@Z 10046c20 f i QuickHullConvexHullLib.obj
 0001:00045c50       ?size@?$Array@PAUQuickHullFace@local@@VNamedAllocator@shdfnd@physx@@@shdfnd@physx@@QBEIXZ 10046c50 f i QuickHullConvexHullLib.obj
 0001:00045c70       ?size@?$Array@PAUQuickHullHalfEdge@local@@VNamedAllocator@shdfnd@physx@@@shdfnd@physx@@QBEIXZ 10046c70 f i QuickHullConvexHullLib.obj
 0001:00045c90       ?size@?$Array@PAUQuickHullVertex@local@@VNamedAllocator@shdfnd@physx@@@shdfnd@physx@@QBEIXZ 10046c90 f i QuickHullConvexHullLib.obj
 0001:00045cb0       ?size@?$Array@UExpandPoint@local@@VNamedAllocator@shdfnd@physx@@@shdfnd@physx@@QBEIXZ 10046cb0 f i QuickHullConvexHullLib.obj
 0001:00045d20       ?computeVolumeIntegrals@physx@@YA_NABVPxSimpleTriangleMesh@1@MAAUPxIntegrals@1@@Z 10046d20 f   VolumeIntegration.obj
 0001:00045d80       ?computeVolumeIntegralsEberly@physx@@YA_NABVPxConvexMeshDesc@1@MAAUPxIntegrals@1@ABVPxVec3@1@@Z 10046d80 f   VolumeIntegration.obj
 0001:00045dd0       ?computeVolumeIntegralsEberlySIMD@physx@@YA_NABVPxConvexMeshDesc@1@MAAUPxIntegrals@1@ABVPxVec3@1@@Z 10046dd0 f   VolumeIntegration.obj
 0001:0004a860       ??$swap@VPxVec3@physx@@@shdfnd@physx@@YAXAAVPxVec3@1@0@Z 1004b860 f i VolumeIntegration.obj
 0001:0004a8a0       ??0PxSimpleTriangleMesh@physx@@QAE@XZ 1004b8a0 f i VolumeIntegration.obj
 0001:0004a8e0       ??4?$PxFlags@W4Enum@PxMeshFlag@physx@@G@physx@@QAEAAV01@ABV01@@Z 1004b8e0 f i VolumeIntegration.obj
 0001:0004a910       ??4PxSimpleTriangleMesh@physx@@QAEAAV01@ABV01@@Z 1004b910 f i VolumeIntegration.obj
 0001:0004a980       ?FAllGrtr@aos@shdfnd@physx@@YAIT__m128@@0@Z 1004b980 f i VolumeIntegration.obj
 0001:0004aa70       ?V4Cross@aos@shdfnd@physx@@YA?AT__m128@@T4@0@Z 1004ba70 f i VolumeIntegration.obj
 0001:0004ab70       ?V4Dot3@aos@shdfnd@physx@@YA?AT__m128@@T4@0@Z 1004bb70 f i VolumeIntegration.obj
 0001:0004ac50       ?V4PermYZXW@aos@shdfnd@physx@@YA?AT__m128@@T4@@Z 1004bc50 f i VolumeIntegration.obj
 0001:0004aca0       ?V4ScaleInv@aos@shdfnd@physx@@YA?AT__m128@@T4@0@Z 1004bca0 f i VolumeIntegration.obj
 0001:0004ad40       ?Vec4V_From_PxVec3_WUndefined@aos@shdfnd@physx@@YA?AT__m128@@ABVPxVec3@3@@Z 1004bd40 f i VolumeIntegration.obj
 0001:0004ada0       ?isZero@PxVec3@physx@@QBE_NXZ 1004bda0 f i VolumeIntegration.obj
 0001:0004b1e0       ?ComputeNbBoundaryEdges@AdjTriangle@physx@@QBEIXZ 1004c1e0 f   Adjacencies.obj
 0001:0004b270       ?ComputeNbNeighbors@AdjTriangle@physx@@QBEIXZ 1004c270 f   Adjacencies.obj
 0001:0004b300       ?HasNeighbor@AdjTriangle@physx@@QBE_NIPAI@Z 1004c300 f   Adjacencies.obj
 0001:0004b3f0       ?Flip@AdjTriangle@physx@@QAEXXZ 1004c3f0 f   Adjacencies.obj
 0001:0004b420       ??0Adjacencies@physx@@QAE@XZ 1004c420 f   Adjacencies.obj
 0001:0004b450       ??1Adjacencies@physx@@QAE@XZ 1004c450 f   Adjacencies.obj
 0001:0004b4a0       ?Load@Adjacencies@physx@@QAE_NAAVPxInputStream@2@@Z 1004c4a0 f   Adjacencies.obj
 0001:0004b5a0       ?ComputeNbBoundaryEdges@Adjacencies@physx@@QBEIXZ 1004c5a0 f   Adjacencies.obj
 0001:0004b600       ?GetBoundaryVertices@Adjacencies@physx@@QBE_NIPA_NPBU?$TriangleT@I@Gu@2@@Z 1004c600 f   Adjacencies.obj
 0001:0004b810       ?MakeLastRef@Adjacencies@physx@@QAE_NAAVAdjTriangle@2@IPAU?$TriangleT@I@Gu@2@@Z 1004c810 f   Adjacencies.obj
 0001:0004ba90       ?AssignNewEdgeCode@Adjacencies@physx@@AAEXIE@Z 1004ca90 f   Adjacencies.obj
 0001:0004bb10       ??0AdjacenciesBuilder@physx@@QAE@XZ 1004cb10 f   Adjacencies.obj
 0001:0004bb30       ??1AdjacenciesBuilder@physx@@QAE@XZ 1004cb30 f   Adjacencies.obj
 0001:0004bb50       ?Init@AdjacenciesBuilder@physx@@QAE_NABUADJACENCIESCREATE@2@@Z 1004cb50 f   Adjacencies.obj
 0001:0004cdb0       ??$?_UV?$ReflectionAllocator@VAdjEdge@@@shdfnd@physx@@@UserAllocated@shdfnd@physx@@SAPAXIV?$ReflectionAllocator@VAdjEdge@@@12@PBDH@Z 1004ddb0 f i Adjacencies.obj
 0001:0004cdd0       ??$?_UV?$ReflectionAllocator@VAdjTriangle@physx@@@shdfnd@physx@@@UserAllocated@shdfnd@physx@@SAPAXIV?$ReflectionAllocator@VAdjTriangle@physx@@@12@PBDH@Z 1004ddd0 f i Adjacencies.obj
 0001:0004cdf0       ??0?$ReflectionAllocator@VAdjEdge@@@shdfnd@physx@@QAE@PBD@Z 1004ddf0 f i Adjacencies.obj
 0001:0004ce10       ??0?$ReflectionAllocator@VAdjTriangle@physx@@@shdfnd@physx@@QAE@PBD@Z 1004de10 f i Adjacencies.obj
 0001:0004ce30       ??0?$TriangleT@I@Gu@physx@@QAE@XZ 1004de30 f i Adjacencies.obj
 0001:0004ce50       ??0AdjEdge@@QAE@XZ         1004de50 f i Adjacencies.obj
 0001:0004ce70       ??0AdjTriangle@physx@@QAE@XZ 1004de70 f i Adjacencies.obj
 0001:0004ce90       ??1AdjEdge@@QAE@XZ         1004de90 f i Adjacencies.obj
 0001:0004cea0       ??1AdjTriangle@physx@@QAE@XZ 1004dea0 f i Adjacencies.obj
 0001:0004ceb0       ??_EAdjEdge@@QAEPAXI@Z     1004deb0 f i Adjacencies.obj
 0001:0004cf90       ??_EAdjTriangle@physx@@QAEPAXI@Z 1004df90 f i Adjacencies.obj
 0001:0004d070       ??_I@YGXPAXIIP6EX0@Z@Z     1004e070 f i Adjacencies.obj
 0001:0004d0e0       ??_VUserAllocated@shdfnd@physx@@SAXPAX@Z 1004e0e0 f i Adjacencies.obj
 0001:0004d110       ?allocate@?$ReflectionAllocator@VAdjEdge@@@shdfnd@physx@@QAEPAXIPBDH@Z 1004e110 f i Adjacencies.obj
 0001:0004d170       ?allocate@?$ReflectionAllocator@VAdjTriangle@physx@@@shdfnd@physx@@QAEPAXIPBDH@Z 1004e170 f i Adjacencies.obj
 0001:0004d1d0       ?findEdge@?$TriangleT@I@Gu@physx@@QBEEII@Z 1004e1d0 f i Adjacencies.obj
 0001:0004d340       ?getName@?$ReflectionAllocator@VAdjEdge@@@shdfnd@physx@@CAPBDXZ 1004e340 f i Adjacencies.obj
 0001:0004d390       ?getName@?$ReflectionAllocator@VAdjTriangle@physx@@@shdfnd@physx@@CAPBDXZ 1004e390 f i Adjacencies.obj
 0001:0004d3e0       _PxCreateCooking           1004e3e0 f   Cooking.obj
 0001:0004d490       ?release@Cooking@physx@@UAEXXZ 1004e490 f   Cooking.obj
 0001:0004d4d0       ?setParams@Cooking@physx@@UAEXABUPxCookingParams@2@@Z 1004e4d0 f   Cooking.obj
 0001:0004d4f0       ?getParams@Cooking@physx@@UAEABUPxCookingParams@2@XZ 1004e4f0 f   Cooking.obj
 0001:0004d510       ?platformMismatch@Cooking@physx@@UAE_NXZ 1004e510 f   Cooking.obj
 0001:0004d590       ?cookTriangleMesh@Cooking@physx@@UAE_NABVPxTriangleMeshDesc@2@AAVPxOutputStream@2@PAW4Enum@PxTriangleMeshCookingResult@2@@Z 1004e590 f   Cooking.obj
 0001:0004d660       ?createTriangleMesh@Cooking@physx@@UAEPAVPxTriangleMesh@2@ABVPxTriangleMeshDesc@2@AAVPxPhysicsInsertionCallback@2@@Z 1004e660 f   Cooking.obj
 0001:0004d720       ?validateTriangleMesh@Cooking@physx@@UAE_NABVPxTriangleMeshDesc@2@@Z 1004e720 f   Cooking.obj
 0001:0004d7c0       ?cookConvexMesh@Cooking@physx@@UAE_NABVPxConvexMeshDesc@2@AAVPxOutputStream@2@PAW4Enum@PxConvexMeshCookingResult@2@@Z 1004e7c0 f   Cooking.obj
 0001:0004da80       ?createConvexMesh@Cooking@physx@@UAEPAVPxConvexMesh@2@ABVPxConvexMeshDesc@2@AAVPxPhysicsInsertionCallback@2@@Z 1004ea80 f   Cooking.obj
 0001:0004ddd0       ?validateConvexMesh@Cooking@physx@@UAE_NABVPxConvexMeshDesc@2@@Z 1004edd0 f   Cooking.obj
 0001:0004de20       ?computeHullPolygons@Cooking@physx@@UAE_NABVPxSimpleTriangleMesh@2@AAVPxAllocatorCallback@2@AAIAAPAVPxVec3@2@2AAPAI2AAPAUPxHullPolygon@2@@Z 1004ee20 f   Cooking.obj
 0001:0004dfe0       ?cookHeightField@Cooking@physx@@UAE_NABVPxHeightFieldDesc@2@AAVPxOutputStream@2@@Z 1004efe0 f   Cooking.obj
 0001:0004e110       ?createHeightField@Cooking@physx@@UAEPAVPxHeightField@2@ABVPxHeightFieldDesc@2@AAVPxPhysicsInsertionCallback@2@@Z 1004f110 f   Cooking.obj
 0001:0004e310       ?cookConvexMeshInternal@Cooking@physx@@AAE_NABVPxConvexMeshDesc@2@AAVConvexMeshBuilder@2@PAVConvexHullLib@2@PAW4Enum@PxConvexMeshCookingResult@2@@Z 1004f310 f   Cooking.obj
 0001:0004e520       ?cookTriangleMesh@Cooking@physx@@AAE_NAAVTriangleMeshBuilder@2@ABVPxTriangleMeshDesc@2@AAVPxOutputStream@2@PAW4Enum@PxTriangleMeshCookingResult@2@@Z 1004f520 f   Cooking.obj
 0001:0004e5c0       ?createTriangleMesh@Cooking@physx@@AAEPAVPxTriangleMesh@2@AAVTriangleMeshBuilder@2@ABVPxTriangleMeshDesc@2@AAVPxPhysicsInsertionCallback@2@@Z 1004f5c0 f   Cooking.obj
 0001:0004eb20       ??$?2V?$ReflectionAllocator@VCooking@physx@@@shdfnd@physx@@@UserAllocated@shdfnd@physx@@SAPAXIV?$ReflectionAllocator@VCooking@physx@@@12@PBDH@Z 1004fb20 f i Cooking.obj
 0001:0004eb40       ??$?2V?$ReflectionAllocator@VInflationConvexHullLib@physx@@@shdfnd@physx@@@UserAllocated@shdfnd@physx@@SAPAXIV?$ReflectionAllocator@VInflationConvexHullLib@physx@@@12@PBDH@Z 1004fb40 f i Cooking.obj
 0001:0004eb60       ??$?2V?$ReflectionAllocator@VQuickHullConvexHullLib@physx@@@shdfnd@physx@@@UserAllocated@shdfnd@physx@@SAPAXIV?$ReflectionAllocator@VQuickHullConvexHullLib@physx@@@12@PBDH@Z 1004fb60 f i Cooking.obj
 0001:0004eb80       ??$PX_UNUSED@VPxFoundation@physx@@@@YAXABVPxFoundation@physx@@@Z 1004fb80 f i Cooking.obj
 0001:0004eb90       ??$PxMin@G@physx@@YAGGG@Z  1004fb90 f i Cooking.obj
 0001:0004ebd0       ??0?$PxBitAndDataT@I$0IAAAAAAA@@physx@@QAE@I_N@Z 1004fbd0 f i Cooking.obj
 0001:0004ec20       ??0?$PxFlags@W4Enum@PxHeightFieldFlag@physx@@G@physx@@QAE@ABV01@@Z 1004fc20 f i Cooking.obj
 0001:0004ec50       ??0?$ReflectionAllocator@VCooking@physx@@@shdfnd@physx@@QAE@PBD@Z 1004fc50 f i Cooking.obj
 0001:0004ec70       ??0?$ReflectionAllocator@VHeightField@Gu@physx@@@shdfnd@physx@@QAE@PBD@Z 1004fc70 f i Cooking.obj
 0001:0004ec90       ??0?$ReflectionAllocator@VInflationConvexHullLib@physx@@@shdfnd@physx@@QAE@PBD@Z 1004fc90 f i Cooking.obj
 0001:0004ecb0       ??0?$ReflectionAllocator@VQuickHullConvexHullLib@physx@@@shdfnd@physx@@QAE@PBD@Z 1004fcb0 f i Cooking.obj
 0001:0004ecd0       ??0Cooking@physx@@QAE@ABUPxCookingParams@1@@Z 1004fcd0 f i Cooking.obj
 0001:0004ed10       ??0PxConvexMeshDesc@physx@@QAE@ABV01@@Z 1004fd10 f i Cooking.obj
 0001:0004edc0       ??0PxCooking@physx@@QAE@XZ 1004fdc0 f i Cooking.obj
 0001:0004ede0       ??0PxCookingParams@physx@@QAE@ABU01@@Z 1004fde0 f i Cooking.obj
 0001:0004ef10       ??1Cooking@physx@@UAE@XZ   1004ff10 f i Cooking.obj
 0001:0004ef30       ??1PxCooking@physx@@MAE@XZ 1004ff30 f i Cooking.obj
 0001:0004ef50       ??4?$PxFlags@W4Enum@PxMeshPreprocessingFlag@physx@@I@physx@@QAEAAV01@ABV01@@Z 1004ff50 f i Cooking.obj
 0001:0004ef70       ??4PxCookingParams@physx@@QAEAAU01@ABU01@@Z 1004ff70 f i Cooking.obj
 0001:0004f0a0       ??9?$PxFlags@W4Enum@PxHeightFieldFlag@physx@@G@physx@@QBE_NABV01@@Z 100500a0 f i Cooking.obj
 0001:0004f0e0       ??I?$PxFlags@W4Enum@PxHeightFieldFlag@physx@@G@physx@@QBE?AV01@W4Enum@PxHeightFieldFlag@1@@Z 100500e0 f i Cooking.obj
 0001:0004f130       ??_GCooking@physx@@UAEPAXI@Z 10050130 f i Cooking.obj
 0001:0004f130       ??_ECooking@physx@@UAEPAXI@Z 10050130 f i Cooking.obj
 0001:0004f190       ??_GPxCooking@physx@@MAEPAXI@Z 10050190 f i Cooking.obj
 0001:0004f190       ??_EPxCooking@physx@@MAEPAXI@Z 10050190 f i Cooking.obj
 0001:0004f1d0       ?allocate@?$ReflectionAllocator@VCooking@physx@@@shdfnd@physx@@QAEPAXIPBDH@Z 100501d0 f i Cooking.obj
 0001:0004f230       ?allocate@?$ReflectionAllocator@VHeightField@Gu@physx@@@shdfnd@physx@@QAEPAXIPBDH@Z 10050230 f i Cooking.obj
 0001:0004f290       ?allocate@?$ReflectionAllocator@VInflationConvexHullLib@physx@@@shdfnd@physx@@QAEPAXIPBDH@Z 10050290 f i Cooking.obj
 0001:0004f2f0       ?allocate@?$ReflectionAllocator@VQuickHullConvexHullLib@physx@@@shdfnd@physx@@QAEPAXIPBDH@Z 100502f0 f i Cooking.obj
 0001:0004f350       ?getBigConvexData@ConvexMeshBuilder@physx@@QBEPAVBigConvexData@2@XZ 10050350 f i Cooking.obj
 0001:0004f370       ?getInertia@ConvexMeshBuilder@physx@@QBEABVPxMat33@2@XZ 10050370 f i Cooking.obj
 0001:0004f390       ?getMass@ConvexMeshBuilder@physx@@QBEMXZ 10050390 f i Cooking.obj
 0001:0004f3b0       ?getMeshData@TriangleMeshBuilder@physx@@QAEAAVTriangleMeshData@Gu@2@XZ 100503b0 f i Cooking.obj
 0001:0004f3d0       ?getName@?$ReflectionAllocator@VCooking@physx@@@shdfnd@physx@@CAPBDXZ 100503d0 f i Cooking.obj
 0001:0004f420       ?getName@?$ReflectionAllocator@VHeightField@Gu@physx@@@shdfnd@physx@@CAPBDXZ 10050420 f i Cooking.obj
 0001:0004f470       ?getName@?$ReflectionAllocator@VInflationConvexHullLib@physx@@@shdfnd@physx@@CAPBDXZ 10050470 f i Cooking.obj
 0001:0004f4c0       ?getName@?$ReflectionAllocator@VQuickHullConvexHullLib@physx@@@shdfnd@physx@@CAPBDXZ 100504c0 f i Cooking.obj
 0001:0004f510       ?isValid@PxHeightFieldDesc@physx@@QBE_NXZ 10050510 f i Cooking.obj
 0001:0004f5e0       ?setBigConvexData@ConvexMesh@Gu@physx@@QAEXPAVBigConvexData@3@@Z 100505e0 f i Cooking.obj
 0001:0004f600       ?setBigConvexData@ConvexMeshBuilder@physx@@QAEXPAVBigConvexData@2@@Z 10050600 f i Cooking.obj
 0001:0004f620       ?setInertia@ConvexMesh@Gu@physx@@QAEXABVPxMat33@3@@Z 10050620 f i Cooking.obj
 0001:0004f650       ?setMass@ConvexMesh@Gu@physx@@QAEXM@Z 10050650 f i Cooking.obj
 0001:0004f670       ?setNb@ConvexMesh@Gu@physx@@QAEXI@Z 10050670 f i Cooking.obj
 0001:0004f6a0       ??0ReducedVertexCloud@physx@@QAE@PBVPxVec3@1@I@Z 100506a0 f   CookingUtils.obj
 0001:0004f6e0       ??1ReducedVertexCloud@physx@@QAE@XZ 100506e0 f   CookingUtils.obj
 0001:0004f700       ?Clean@ReducedVertexCloud@physx@@QAEAAV12@XZ 10050700 f   CookingUtils.obj
 0001:0004f760       ?Reduce@ReducedVertexCloud@physx@@QAE_NPAUREDUCEDCLOUD@2@@Z 10050760 f   CookingUtils.obj
 0001:0004fb80       ??$?_UM@@YAPAXIV?$ReflectionAllocator@M@shdfnd@physx@@PBDH@Z 10050b80 f i CookingUtils.obj
 0001:0004fba0       ??0?$ReflectionAllocator@M@shdfnd@physx@@QAE@PBD@Z 10050ba0 f i CookingUtils.obj
 0001:0004fbc0       ?allocate@?$ReflectionAllocator@M@shdfnd@physx@@QAEPAXIPBDH@Z 10050bc0 f i CookingUtils.obj
 0001:0004fc20       ?getName@?$ReflectionAllocator@M@shdfnd@physx@@CAPBDXZ 10050c20 f i CookingUtils.obj
 0001:0004fc70       ??0EdgeList@Gu@physx@@QAE@XZ 10050c70 f   EdgeList.obj
 0001:0004fcb0       ??1EdgeList@Gu@physx@@QAE@XZ 10050cb0 f   EdgeList.obj
 0001:0004fd50       ?load@EdgeList@Gu@physx@@QAE_NAAVPxInputStream@3@@Z 10050d50 f   EdgeList.obj
 0001:0004ff20       ??0EdgeListBuilder@Gu@physx@@QAE@XZ 10050f20 f   EdgeList.obj
 0001:0004ff40       ??1EdgeListBuilder@Gu@physx@@QAE@XZ 10050f40 f   EdgeList.obj
 0001:0004ff60       ?init@EdgeListBuilder@Gu@physx@@QAE_NABUEDGELISTCREATE@23@@Z 10050f60 f   EdgeList.obj
 0001:000500e0       ?createFacesToEdges@EdgeListBuilder@Gu@physx@@AAE_NIPBIPBG@Z 100510e0 f   EdgeList.obj
 0001:000505d0       ?createEdgesToFaces@EdgeListBuilder@Gu@physx@@AAE_NIPBIPBG@Z 100515d0 f   EdgeList.obj
 0001:000509e0       ?computeActiveEdges@EdgeListBuilder@Gu@physx@@AAE_NIPBIPBGPBVPxVec3@3@M@Z 100519e0 f   EdgeList.obj
 0001:00052480       ??$?_UUEdgeData@Gu@physx@@@@YAPAXIV?$ReflectionAllocator@UEdgeData@Gu@physx@@@shdfnd@physx@@PBDH@Z 10053480 f i EdgeList.obj
 0001:000524a0       ??$?_UUEdgeTriangleData@Gu@physx@@@@YAPAXIV?$ReflectionAllocator@UEdgeTriangleData@Gu@physx@@@shdfnd@physx@@PBDH@Z 100534a0 f i EdgeList.obj
 0001:000524c0       ??0?$ReflectionAllocator@UEdgeData@Gu@physx@@@shdfnd@physx@@QAE@PBD@Z 100534c0 f i EdgeList.obj
 0001:000524e0       ??0?$ReflectionAllocator@UEdgeTriangleData@Gu@physx@@@shdfnd@physx@@QAE@PBD@Z 100534e0 f i EdgeList.obj
 0001:00052500       ??0PxTriangle@physx@@QAE@ABVPxVec3@1@00@Z 10053500 f i EdgeList.obj
 0001:00052580       ??1PxTriangle@physx@@QAE@XZ 10053580 f i EdgeList.obj
 0001:00052590       ?PxAtan2@physx@@YAMMM@Z    10053590 f i EdgeList.obj
 0001:000525c0       ?allocate@?$ReflectionAllocator@UEdgeData@Gu@physx@@@shdfnd@physx@@QAEPAXIPBDH@Z 100535c0 f i EdgeList.obj
 0001:00052620       ?allocate@?$ReflectionAllocator@UEdgeTriangleData@Gu@physx@@@shdfnd@physx@@QAEPAXIPBDH@Z 10053620 f i EdgeList.obj
 0001:00052680       ?angle@shdfnd@physx@@YAMABVPxVec3@2@0@Z 10053680 f i EdgeList.obj
 0001:000526f0       ?getName@?$ReflectionAllocator@UEdgeData@Gu@physx@@@shdfnd@physx@@CAPBDXZ 100536f0 f i EdgeList.obj
 0001:00052740       ?getName@?$ReflectionAllocator@UEdgeTriangleData@Gu@physx@@@shdfnd@physx@@CAPBDXZ 10053740 f i EdgeList.obj
 0001:00052790       ?normal@PxTriangle@physx@@QBEXAAVPxVec3@2@@Z 10053790 f i EdgeList.obj
 0001:00052820       _atan2f                    10053820 f i EdgeList.obj
 0001:00052860       ??0MeshCleaner@physx@@QAE@IPBVPxVec3@1@IPBIM@Z 10053860 f   MeshCleaner.obj
 0001:000530a0       ??1MeshCleaner@physx@@QAE@XZ 100540a0 f   MeshCleaner.obj
 0001:00053570       ??9Indices@@QBE_NABU0@@Z   10054570 f i MeshCleaner.obj
 0001:00053610       ??9PxVec3@physx@@QBE_NABV01@@Z 10054610 f i MeshCleaner.obj
 0001:00053690       ?PxFloor@physx@@YAMM@Z     10054690 f i MeshCleaner.obj
 0001:000536b0       ?nextPowerOfTwo@shdfnd@physx@@YAII@Z 100546b0 f i MeshCleaner.obj
 0001:00053710       _floorf                    10054710 f i MeshCleaner.obj
 0001:00053740       ?createQuantizer@physx@@YAPAVQuantizer@1@XZ 10054740 f   Quantizer.obj
 0001:000537a0       ?kmeans_cluster3d@@YAIPBVPxVec3@physx@@IIPAV12@PAIMM@Z 100547a0 f   Quantizer.obj
 0001:00053800       ??$?2V?$ReflectionAllocator@VQuantizerImpl@@@shdfnd@physx@@@UserAllocated@shdfnd@physx@@SAPAXIV?$ReflectionAllocator@VQuantizerImpl@@@12@PBDH@Z 10054800 f i Quantizer.obj
 0001:00053820       ??$kmeans_cluster@VPxVec3@physx@@M@@YAIPBVPxVec3@physx@@IIPAV01@PAIMM@Z 10054820 f i Quantizer.obj
 0001:00053e10       ??0?$ReflectionAllocator@VQuantizerImpl@@@shdfnd@physx@@QAE@PBD@Z 10054e10 f i Quantizer.obj
 0001:00053e30       ??0Quantizer@physx@@QAE@XZ 10054e30 f i Quantizer.obj
 0001:00053e50       ??0QuantizerImpl@@QAE@XZ   10054e50 f i Quantizer.obj
 0001:00053f70       ??1Quantizer@physx@@MAE@XZ 10054f70 f i Quantizer.obj
 0001:00053f90       ??1QuantizerImpl@@EAE@XZ   10054f90 f i Quantizer.obj
 0001:00053fd0       ??_EQuantizer@physx@@MAEPAXI@Z 10054fd0 f i Quantizer.obj
 0001:00053fd0       ??_GQuantizer@physx@@MAEPAXI@Z 10054fd0 f i Quantizer.obj
 0001:00054010       ??_GQuantizerImpl@@EAEPAXI@Z 10055010 f i Quantizer.obj
 0001:00054010       ??_EQuantizerImpl@@EAEPAXI@Z 10055010 f i Quantizer.obj
 0001:00054070       ?allocate@?$ReflectionAllocator@VQuantizerImpl@@@shdfnd@physx@@QAEPAXIPBDH@Z 10055070 f i Quantizer.obj
 0001:000540d0       ?clear@?$Array@VPxVec3@physx@@VNamedAllocator@shdfnd@2@@shdfnd@physx@@QAEXXZ 100550d0 f i Quantizer.obj
 0001:00054110       ?getDenormalizeCenter@QuantizerImpl@@UBEABVPxVec3@physx@@XZ 10055110 f i Quantizer.obj
 0001:00054130       ?getDenormalizeScale@QuantizerImpl@@UBEABVPxVec3@physx@@XZ 10055130 f i Quantizer.obj
 0001:00054150       ?getName@?$ReflectionAllocator@VQuantizerImpl@@@shdfnd@physx@@CAPBDXZ 10055150 f i Quantizer.obj
 0001:000541a0       ?kmeansQuantize3D@QuantizerImpl@@UAEPBVPxVec3@physx@@IPBV23@I_NIAAI@Z 100551a0 f i Quantizer.obj
 0001:00054410       ?normalizeInput@QuantizerImpl@@AAEXIPBVPxVec3@physx@@I@Z 10055410 f i Quantizer.obj
 0001:00054670       ?release@QuantizerImpl@@UAEXXZ 10055670 f i Quantizer.obj
 0001:000546b8       _LoadLibraryA@4            100556b8 f   kernel32:KERNEL32.dll
 0001:000546be       __imp_load_?PxGetAssertHandler@physx@@YAAAVPxAssertHandler@1@XZ 100556be f   PxFoundationDEBUG_x86:PxFoundationDEBUG_x86.dll
 0001:000546c8       __tailMerge_PxFoundationDEBUG_x86_dll 100556c8 f i PxFoundationDEBUG_x86:PxFoundationDEBUG_x86.dll
 0001:000546d9       ?PxGetAssertHandler@physx@@YAAAVPxAssertHandler@1@XZ 100556d9 f   PxFoundationDEBUG_x86:PxFoundationDEBUG_x86.dll
 0001:000546df       __imp_load_?getAllocator@shdfnd@physx@@YAAAVPxAllocatorCallback@2@XZ 100556df f   PxFoundationDEBUG_x86:PxFoundationDEBUG_x86.dll
 0001:000546e9       ?getAllocator@shdfnd@physx@@YAAAVPxAllocatorCallback@2@XZ 100556e9 f   PxFoundationDEBUG_x86:PxFoundationDEBUG_x86.dll
 0001:000546ef       __imp_load_??0NamedAllocator@shdfnd@physx@@QAE@PBD@Z 100556ef f   PxFoundationDEBUG_x86:PxFoundationDEBUG_x86.dll
 0001:000546f9       ??0NamedAllocator@shdfnd@physx@@QAE@PBD@Z 100556f9 f   PxFoundationDEBUG_x86:PxFoundationDEBUG_x86.dll
 0001:000546ff       __imp_load_??0NamedAllocator@shdfnd@physx@@QAE@ABV012@@Z 100556ff f   PxFoundationDEBUG_x86:PxFoundationDEBUG_x86.dll
 0001:00054709       ??0NamedAllocator@shdfnd@physx@@QAE@ABV012@@Z 10055709 f   PxFoundationDEBUG_x86:PxFoundationDEBUG_x86.dll
 0001:0005470f       __imp_load_??1NamedAllocator@shdfnd@physx@@QAE@XZ 1005570f f   PxFoundationDEBUG_x86:PxFoundationDEBUG_x86.dll
 0001:00054719       ??1NamedAllocator@shdfnd@physx@@QAE@XZ 10055719 f   PxFoundationDEBUG_x86:PxFoundationDEBUG_x86.dll
 0001:0005471f       __imp_load_?allocate@NamedAllocator@shdfnd@physx@@QAEPAXIPBDH@Z 1005571f f   PxFoundationDEBUG_x86:PxFoundationDEBUG_x86.dll
 0001:00054729       ?allocate@NamedAllocator@shdfnd@physx@@QAEPAXIPBDH@Z 10055729 f   PxFoundationDEBUG_x86:PxFoundationDEBUG_x86.dll
 0001:0005472f       __imp_load_?deallocate@NamedAllocator@shdfnd@physx@@QAEXPAX@Z 1005572f f   PxFoundationDEBUG_x86:PxFoundationDEBUG_x86.dll
 0001:00054739       ?deallocate@NamedAllocator@shdfnd@physx@@QAEXPAX@Z 10055739 f   PxFoundationDEBUG_x86:PxFoundationDEBUG_x86.dll
 0001:0005473f       __imp_load_?allocate@TempAllocator@shdfnd@physx@@QAEPAXIPBDH@Z 1005573f f   PxFoundationDEBUG_x86:PxFoundationDEBUG_x86.dll
 0001:00054749       ?allocate@TempAllocator@shdfnd@physx@@QAEPAXIPBDH@Z 10055749 f   PxFoundationDEBUG_x86:PxFoundationDEBUG_x86.dll
 0001:0005474f       __imp_load_?deallocate@TempAllocator@shdfnd@physx@@QAEXPAX@Z 1005574f f   PxFoundationDEBUG_x86:PxFoundationDEBUG_x86.dll
 0001:00054759       ?deallocate@TempAllocator@shdfnd@physx@@QAEXPAX@Z 10055759 f   PxFoundationDEBUG_x86:PxFoundationDEBUG_x86.dll
 0001:0005475f       __imp_load__PxGetFoundation 1005575f f   PxFoundationDEBUG_x86:PxFoundationDEBUG_x86.dll
 0001:00054769       _PxGetFoundation           10055769 f   PxFoundationDEBUG_x86:PxFoundationDEBUG_x86.dll
 0001:0005476f       __imp_load_?getInstance@Foundation@shdfnd@physx@@SAAAV123@XZ 1005576f f   PxFoundationDEBUG_x86:PxFoundationDEBUG_x86.dll
 0001:00054779       ?getInstance@Foundation@shdfnd@physx@@SAAAV123@XZ 10055779 f   PxFoundationDEBUG_x86:PxFoundationDEBUG_x86.dll
 0001:0005477f       __imp_load_?error@Foundation@shdfnd@physx@@QAAXW4Enum@PxErrorCode@3@PBDH1ZZ 1005577f f   PxFoundationDEBUG_x86:PxFoundationDEBUG_x86.dll
 0001:00054789       ?error@Foundation@shdfnd@physx@@QAAXW4Enum@PxErrorCode@3@PBDH1ZZ 10055789 f   PxFoundationDEBUG_x86:PxFoundationDEBUG_x86.dll
 0001:0005478f       __imp_load_?PxDiagonalize@physx@@YA?AVPxVec3@1@ABVPxMat33@1@AAVPxQuat@1@@Z 1005578f f   PxFoundationDEBUG_x86:PxFoundationDEBUG_x86.dll
 0001:00054799       ?PxDiagonalize@physx@@YA?AVPxVec3@1@ABVPxMat33@1@AAVPxQuat@1@@Z 10055799 f   PxFoundationDEBUG_x86:PxFoundationDEBUG_x86.dll
 0001:0005479f       __imp_load_?incRefCount@Foundation@shdfnd@physx@@SAXXZ 1005579f f   PxFoundationDEBUG_x86:PxFoundationDEBUG_x86.dll
 0001:000547a9       ?incRefCount@Foundation@shdfnd@physx@@SAXXZ 100557a9 f   PxFoundationDEBUG_x86:PxFoundationDEBUG_x86.dll
 0001:000547af       __imp_load_?decRefCount@Foundation@shdfnd@physx@@SAXXZ 100557af f   PxFoundationDEBUG_x86:PxFoundationDEBUG_x86.dll
 0001:000547b9       ?decRefCount@Foundation@shdfnd@physx@@SAXXZ 100557b9 f   PxFoundationDEBUG_x86:PxFoundationDEBUG_x86.dll
 0001:000547bf       __imp_load_??0FPUGuard@shdfnd@physx@@QAE@XZ 100557bf f   PxFoundationDEBUG_x86:PxFoundationDEBUG_x86.dll
 0001:000547c9       ??0FPUGuard@shdfnd@physx@@QAE@XZ 100557c9 f   PxFoundationDEBUG_x86:PxFoundationDEBUG_x86.dll
 0001:000547cf       __imp_load_??1FPUGuard@shdfnd@physx@@QAE@XZ 100557cf f   PxFoundationDEBUG_x86:PxFoundationDEBUG_x86.dll
 0001:000547d9       ??1FPUGuard@shdfnd@physx@@QAE@XZ 100557d9 f   PxFoundationDEBUG_x86:PxFoundationDEBUG_x86.dll
 0001:000547df       __imp_load_?writeWord@physx@@YAXG_NAAVPxOutputStream@1@@Z 100557df f   PhysX3CommonDEBUG_x86:PhysX3CommonDEBUG_x86.dll
 0001:000547e9       __tailMerge_PhysX3CommonDEBUG_x86_dll 100557e9 f i PhysX3CommonDEBUG_x86:PhysX3CommonDEBUG_x86.dll
 0001:000547fa       ?writeWord@physx@@YAXG_NAAVPxOutputStream@1@@Z 100557fa f   PhysX3CommonDEBUG_x86:PhysX3CommonDEBUG_x86.dll
 0001:00054800       __imp_load_?writeDword@physx@@YAXI_NAAVPxOutputStream@1@@Z 10055800 f   PhysX3CommonDEBUG_x86:PhysX3CommonDEBUG_x86.dll
 0001:0005480a       ?writeDword@physx@@YAXI_NAAVPxOutputStream@1@@Z 1005580a f   PhysX3CommonDEBUG_x86:PhysX3CommonDEBUG_x86.dll
 0001:00054810       __imp_load_?writeFloat@physx@@YAXM_NAAVPxOutputStream@1@@Z 10055810 f   PhysX3CommonDEBUG_x86:PhysX3CommonDEBUG_x86.dll
 0001:0005481a       ?writeFloat@physx@@YAXM_NAAVPxOutputStream@1@@Z 1005581a f   PhysX3CommonDEBUG_x86:PhysX3CommonDEBUG_x86.dll
 0001:00054820       __imp_load_?writeHeader@physx@@YA_NCCCCI_NAAVPxOutputStream@1@@Z 10055820 f   PhysX3CommonDEBUG_x86:PhysX3CommonDEBUG_x86.dll
 0001:0005482a       ?writeHeader@physx@@YA_NCCCCI_NAAVPxOutputStream@1@@Z 1005582a f   PhysX3CommonDEBUG_x86:PhysX3CommonDEBUG_x86.dll
 0001:00054830       __imp_load_?validate@RTree@Gu@physx@@QAEXPAUCallbackRefit@123@@Z 10055830 f   PhysX3CommonDEBUG_x86:PhysX3CommonDEBUG_x86.dll
 0001:0005483a       ?validate@RTree@Gu@physx@@QAEXPAUCallbackRefit@123@@Z 1005583a f   PhysX3CommonDEBUG_x86:PhysX3CommonDEBUG_x86.dll
 0001:00054840       __imp_load_??0SourceMesh@Gu@physx@@QAE@XZ 10055840 f   PhysX3CommonDEBUG_x86:PhysX3CommonDEBUG_x86.dll
 0001:0005484a       ??0SourceMesh@Gu@physx@@QAE@XZ 1005584a f   PhysX3CommonDEBUG_x86:PhysX3CommonDEBUG_x86.dll
 0001:00054850       __imp_load_??1SourceMesh@Gu@physx@@QAE@XZ 10055850 f   PhysX3CommonDEBUG_x86:PhysX3CommonDEBUG_x86.dll
 0001:0005485a       ??1SourceMesh@Gu@physx@@QAE@XZ 1005585a f   PhysX3CommonDEBUG_x86:PhysX3CommonDEBUG_x86.dll
 0001:00054860       __imp_load_??0BV4Tree@Gu@physx@@QAE@XZ 10055860 f   PhysX3CommonDEBUG_x86:PhysX3CommonDEBUG_x86.dll
 0001:0005486a       ??0BV4Tree@Gu@physx@@QAE@XZ 1005586a f   PhysX3CommonDEBUG_x86:PhysX3CommonDEBUG_x86.dll
 0001:00054870       __imp_load_??1BV4Tree@Gu@physx@@QAE@XZ 10055870 f   PhysX3CommonDEBUG_x86:PhysX3CommonDEBUG_x86.dll
 0001:0005487a       ??1BV4Tree@Gu@physx@@QAE@XZ 1005587a f   PhysX3CommonDEBUG_x86:PhysX3CommonDEBUG_x86.dll
 0001:00054880       __imp_load_??0BV32Tree@Gu@physx@@QAE@XZ 10055880 f   PhysX3CommonDEBUG_x86:PhysX3CommonDEBUG_x86.dll
 0001:0005488a       ??0BV32Tree@Gu@physx@@QAE@XZ 1005588a f   PhysX3CommonDEBUG_x86:PhysX3CommonDEBUG_x86.dll
 0001:00054890       __imp_load_??1BV32Tree@Gu@physx@@QAE@XZ 10055890 f   PhysX3CommonDEBUG_x86:PhysX3CommonDEBUG_x86.dll
 0001:0005489a       ??1BV32Tree@Gu@physx@@QAE@XZ 1005589a f   PhysX3CommonDEBUG_x86:PhysX3CommonDEBUG_x86.dll
 0001:000548a0       __imp_load_?writeFloatBuffer@physx@@YAXPBMI_NAAVPxOutputStream@1@@Z 100558a0 f   PhysX3CommonDEBUG_x86:PhysX3CommonDEBUG_x86.dll
 0001:000548aa       ?writeFloatBuffer@physx@@YAXPBMI_NAAVPxOutputStream@1@@Z 100558aa f   PhysX3CommonDEBUG_x86:PhysX3CommonDEBUG_x86.dll
 0001:000548b0       __imp_load_?writeWordBuffer@physx@@YAXPBGI_NAAVPxOutputStream@1@@Z 100558b0 f   PhysX3CommonDEBUG_x86:PhysX3CommonDEBUG_x86.dll
 0001:000548ba       ?writeWordBuffer@physx@@YAXPBGI_NAAVPxOutputStream@1@@Z 100558ba f   PhysX3CommonDEBUG_x86:PhysX3CommonDEBUG_x86.dll
 0001:000548c0       __imp_load_?computeMaxIndex@physx@@YAIPBII@Z 100558c0 f   PhysX3CommonDEBUG_x86:PhysX3CommonDEBUG_x86.dll
 0001:000548ca       ?computeMaxIndex@physx@@YAIPBII@Z 100558ca f   PhysX3CommonDEBUG_x86:PhysX3CommonDEBUG_x86.dll
 0001:000548d0       __imp_load_?storeIndices@physx@@YAXIIPBIAAVPxOutputStream@1@_N@Z 100558d0 f   PhysX3CommonDEBUG_x86:PhysX3CommonDEBUG_x86.dll
 0001:000548da       ?storeIndices@physx@@YAXIIPBIAAVPxOutputStream@1@_N@Z 100558da f   PhysX3CommonDEBUG_x86:PhysX3CommonDEBUG_x86.dll
 0001:000548e0       __imp_load_?computeBoundsAroundVertices@Gu@physx@@YAXAAVPxBounds3@2@IPIBVPxVec3@2@@Z 100558e0 f   PhysX3CommonDEBUG_x86:PhysX3CommonDEBUG_x86.dll
 0001:000548ea       ?computeBoundsAroundVertices@Gu@physx@@YAXAAVPxBounds3@2@IPIBVPxVec3@2@@Z 100558ea f   PhysX3CommonDEBUG_x86:PhysX3CommonDEBUG_x86.dll
 0001:000548f0       __imp_load_?BuildBV4Ex@Gu@physx@@YA_NAAVBV4Tree@12@AAVSourceMesh@12@MI@Z 100558f0 f   PhysX3CommonDEBUG_x86:PhysX3CommonDEBUG_x86.dll
 0001:000548fa       ?BuildBV4Ex@Gu@physx@@YA_NAAVBV4Tree@12@AAVSourceMesh@12@MI@Z 100558fa f   PhysX3CommonDEBUG_x86:PhysX3CommonDEBUG_x86.dll
 0001:00054900       __imp_load_?BuildBV32Ex@Gu@physx@@YA_NAAVBV32Tree@12@AAVSourceMesh@12@MI@Z 10055900 f   PhysX3CommonDEBUG_x86:PhysX3CommonDEBUG_x86.dll
 0001:0005490a       ?BuildBV32Ex@Gu@physx@@YA_NAAVBV32Tree@12@AAVSourceMesh@12@MI@Z 1005590a f   PhysX3CommonDEBUG_x86:PhysX3CommonDEBUG_x86.dll
 0001:00054910       __imp_load_?computeMaxIndex@physx@@YAGPBGI@Z 10055910 f   PhysX3CommonDEBUG_x86:PhysX3CommonDEBUG_x86.dll
 0001:0005491a       ?computeMaxIndex@physx@@YAGPBGI@Z 1005591a f   PhysX3CommonDEBUG_x86:PhysX3CommonDEBUG_x86.dll
 0001:00054920       __imp_load_?WriteHeader@Gu@physx@@YA_NEEEEI_NAAVPxOutputStream@2@@Z 10055920 f   PhysX3CommonDEBUG_x86:PhysX3CommonDEBUG_x86.dll
 0001:0005492a       ?WriteHeader@Gu@physx@@YA_NEEEEI_NAAVPxOutputStream@2@@Z 1005592a f   PhysX3CommonDEBUG_x86:PhysX3CommonDEBUG_x86.dll
 0001:00054930       __imp_load_?StoreIndices@Gu@physx@@YAXGIPBGAAVPxOutputStream@2@_N@Z 10055930 f   PhysX3CommonDEBUG_x86:PhysX3CommonDEBUG_x86.dll
 0001:0005493a       ?StoreIndices@Gu@physx@@YAXGIPBGAAVPxOutputStream@2@_N@Z 1005593a f   PhysX3CommonDEBUG_x86:PhysX3CommonDEBUG_x86.dll
 0001:00054940       __imp_load_?CreateOffsets@BigConvexData@physx@@IAEXXZ 10055940 f   PhysX3CommonDEBUG_x86:PhysX3CommonDEBUG_x86.dll
 0001:0005494a       ?CreateOffsets@BigConvexData@physx@@IAEXXZ 1005594a f   PhysX3CommonDEBUG_x86:PhysX3CommonDEBUG_x86.dll
 0001:00054950       __imp_load_?GetRanks@RadixSort@Cm@physx@@QBEPBIXZ 10055950 f   PhysX3CommonDEBUG_x86:PhysX3CommonDEBUG_x86.dll
 0001:0005495a       ?GetRanks@RadixSort@Cm@physx@@QBEPBIXZ 1005595a f   PhysX3CommonDEBUG_x86:PhysX3CommonDEBUG_x86.dll
 0001:00054960       __imp_load_??0RadixSortBuffered@Cm@physx@@QAE@XZ 10055960 f   PhysX3CommonDEBUG_x86:PhysX3CommonDEBUG_x86.dll
 0001:0005496a       ??0RadixSortBuffered@Cm@physx@@QAE@XZ 1005596a f   PhysX3CommonDEBUG_x86:PhysX3CommonDEBUG_x86.dll
 0001:00054970       __imp_load_??1RadixSortBuffered@Cm@physx@@UAE@XZ 10055970 f   PhysX3CommonDEBUG_x86:PhysX3CommonDEBUG_x86.dll
 0001:0005497a       ??1RadixSortBuffered@Cm@physx@@UAE@XZ 1005597a f   PhysX3CommonDEBUG_x86:PhysX3CommonDEBUG_x86.dll
 0001:00054980       __imp_load_?Sort@RadixSortBuffered@Cm@physx@@QAEAAV123@PBIIW4RadixHint@23@@Z 10055980 f   PhysX3CommonDEBUG_x86:PhysX3CommonDEBUG_x86.dll
 0001:0005498a       ?Sort@RadixSortBuffered@Cm@physx@@QAEAAV123@PBIIW4RadixHint@23@@Z 1005598a f   PhysX3CommonDEBUG_x86:PhysX3CommonDEBUG_x86.dll
 0001:00054990       __imp_load_?computeOBBPoints@Gu@physx@@YAXPIAVPxVec3@2@ABV32@1111@Z 10055990 f   PhysX3CommonDEBUG_x86:PhysX3CommonDEBUG_x86.dll
 0001:0005499a       ?computeOBBPoints@Gu@physx@@YAXPIAVPxVec3@2@ABV32@1111@Z 1005599a f   PhysX3CommonDEBUG_x86:PhysX3CommonDEBUG_x86.dll
 0001:000549a0       __imp_load_??0BigConvexData@physx@@QAE@XZ 100559a0 f   PhysX3CommonDEBUG_x86:PhysX3CommonDEBUG_x86.dll
 0001:000549aa       ??0BigConvexData@physx@@QAE@XZ 100559aa f   PhysX3CommonDEBUG_x86:PhysX3CommonDEBUG_x86.dll
 0001:000549b0       __imp_load_??1BigConvexData@physx@@QAE@XZ 100559b0 f   PhysX3CommonDEBUG_x86:PhysX3CommonDEBUG_x86.dll
 0001:000549ba       ??1BigConvexData@physx@@QAE@XZ 100559ba f   PhysX3CommonDEBUG_x86:PhysX3CommonDEBUG_x86.dll
 0001:000549c0       __imp_load_?readDword@physx@@YAI_NAAVPxInputStream@1@@Z 100559c0 f   PhysX3CommonDEBUG_x86:PhysX3CommonDEBUG_x86.dll
 0001:000549ca       ?readDword@physx@@YAI_NAAVPxInputStream@1@@Z 100559ca f   PhysX3CommonDEBUG_x86:PhysX3CommonDEBUG_x86.dll
 0001:000549d0       __imp_load_?ReadHeader@Gu@physx@@YA_NEEEEAAIAA_NAAVPxInputStream@2@@Z 100559d0 f   PhysX3CommonDEBUG_x86:PhysX3CommonDEBUG_x86.dll
 0001:000549da       ?ReadHeader@Gu@physx@@YA_NEEEEAAIAA_NAAVPxInputStream@2@@Z 100559da f   PhysX3CommonDEBUG_x86:PhysX3CommonDEBUG_x86.dll
 0001:000549e0       __imp_load_??0HeightField@Gu@physx@@QAE@PAVGuMeshFactory@2@@Z 100559e0 f   PhysX3CommonDEBUG_x86:PhysX3CommonDEBUG_x86.dll
 0001:000549ea       ??0HeightField@Gu@physx@@QAE@PAVGuMeshFactory@2@@Z 100559ea f   PhysX3CommonDEBUG_x86:PhysX3CommonDEBUG_x86.dll
 0001:000549f0       __imp_load_?loadFromDesc@HeightField@Gu@physx@@QAE_NABVPxHeightFieldDesc@3@@Z 100559f0 f   PhysX3CommonDEBUG_x86:PhysX3CommonDEBUG_x86.dll
 0001:000549fa       ?loadFromDesc@HeightField@Gu@physx@@QAE_NABVPxHeightFieldDesc@3@@Z 100559fa f   PhysX3CommonDEBUG_x86:PhysX3CommonDEBUG_x86.dll
 0001:00054a00       __imp_load_?releaseMemory@HeightField@Gu@physx@@QAEXXZ 10055a00 f   PhysX3CommonDEBUG_x86:PhysX3CommonDEBUG_x86.dll
 0001:00054a0a       ?releaseMemory@HeightField@Gu@physx@@QAEXXZ 10055a0a f   PhysX3CommonDEBUG_x86:PhysX3CommonDEBUG_x86.dll
 0001:00054a10       __imp_load_??1HeightField@Gu@physx@@UAE@XZ 10055a10 f   PhysX3CommonDEBUG_x86:PhysX3CommonDEBUG_x86.dll
 0001:00054a1a       ??1HeightField@Gu@physx@@UAE@XZ 10055a1a f   PhysX3CommonDEBUG_x86:PhysX3CommonDEBUG_x86.dll
 0001:00054a20       ??$PFromRva@PAP6GHXZ@@YGPAP6GHXZK@Z 10055a20 f i delayimp:delayhlp.obj
 0001:00054a36       ??$PFromRva@PAPAUHINSTANCE__@@@@YGPAPAUHINSTANCE__@@K@Z 10055a36 f i delayimp:delayhlp.obj
 0001:00054a4c       ??$PFromRva@PAU_IMAGE_IMPORT_BY_NAME@@@@YGPAU_IMAGE_IMPORT_BY_NAME@@K@Z 10055a4c f i delayimp:delayhlp.obj
 0001:00054a62       ??$PFromRva@PAU_IMAGE_THUNK_DATA32@@@@YGPAU_IMAGE_THUNK_DATA32@@K@Z 10055a62 f i delayimp:delayhlp.obj
 0001:00054a78       ??$PFromRva@PBD@@YGPBDK@Z  10055a78 f i delayimp:delayhlp.obj
 0001:00054a8e       ??$PFromRva@PBUImgDelayDescr@@@@YGPBUImgDelayDescr@@K@Z 10055a8e f i delayimp:delayhlp.obj
 0001:00054aa4       ??$PFromRva@PBU_IMAGE_THUNK_DATA32@@@@YGPBU_IMAGE_THUNK_DATA32@@K@Z 10055aa4 f i delayimp:delayhlp.obj
 0001:00054aba       ?CountOfImports@@YGIPBU_IMAGE_THUNK_DATA32@@@Z 10055aba f i delayimp:delayhlp.obj
 0001:00054adb       ?DloadAcquireSectionWriteAccess@@YGXXZ 10055adb f i delayimp:delayhlp.obj
 0001:00054b1a       ?DloadGetSRWLockFunctionPointers@@YGEXZ 10055b1a f i delayimp:delayhlp.obj
 0001:00054bb3       ?DloadLock@@YGXXZ          10055bb3 f i delayimp:delayhlp.obj
 0001:00054c27       ?DloadMakePermanentImageCommit@@YGXPAXK@Z 10055c27 f i delayimp:delayhlp.obj
 0001:00054cb5       ?DloadObtainSection@@YGPAXPAK0@Z 10055cb5 f i delayimp:delayhlp.obj
 0001:00054d58       ?DloadProtectSection@@YGXKPAK@Z 10055d58 f i delayimp:delayhlp.obj
 0001:00054de4       ?DloadReleaseSectionWriteAccess@@YGXXZ 10055de4 f i delayimp:delayhlp.obj
 0001:00054e2a       ?DloadUnlock@@YGXXZ        10055e2a f i delayimp:delayhlp.obj
 0001:00054ea0       ?IndexFromPImgThunkData@@YGIPBU_IMAGE_THUNK_DATA32@@0@Z 10055ea0 f i delayimp:delayhlp.obj
 0001:00055056       _HRESULT_FROM_WIN32@4      10056056 f i delayimp:delayhlp.obj
 0001:00055074       _ReadAcquire@4             10056074 f i delayimp:delayhlp.obj
 0001:00055085       _ReadPointerAcquire@4      10056085 f i delayimp:delayhlp.obj
 0001:00055096       _WritePointerRelease@8     10056096 f i delayimp:delayhlp.obj
 0001:000550ab       _WriteRelease@8            100560ab f i delayimp:delayhlp.obj
 0001:000550c0       __InlineInterlockedCompareExchangePointer@12 100560c0 f i delayimp:delayhlp.obj
 0001:000550db       ___FUnloadDelayLoadedDLL2@4 100560db f   delayimp:delayhlp.obj
 0001:00055182       ___HrLoadAllImportsForDll@4 10056182 f   delayimp:delayhlp.obj
 0001:000551fd       ___delayLoadHelper2@8      100561fd f   delayimp:delayhlp.obj
 0001:00055530       __CRT_RTC_INIT             10056530 f   LIBCMTD:_init_.obj
 0001:00055540       __CRT_RTC_INITW            10056540 f   LIBCMTD:_init_.obj
 0001:00055550       __RTC_InitBase             10056550 f   LIBCMTD:_init_.obj
 0001:00055590       __RTC_Shutdown             10056590 f   LIBCMTD:_init_.obj
 0001:000555b0       ??_U@YAPAXI@Z              100565b0 f   LIBCMTD:new_array.obj
 0001:000555d0       ??_V@YAXPAX@Z              100565d0 f   LIBCMTD:delete_array.obj
 0001:000555f0       __alloca_probe_16          100565f0 f   LIBCMTD:alloca16.obj
 0001:00055606       __alloca_probe_8           10056606     LIBCMTD:alloca16.obj
 0001:00055630       __ftoui3                   10056630 f   LIBCMTD:_ftol3_.obj
 0001:0005563f       __ftoul3                   1005663f f   LIBCMTD:_ftol3_.obj
 0001:0005564e       __ftol3                    1005664e f   LIBCMTD:_ftol3_.obj
 0001:0005565b       __ftol3_NaN                1005665b f   LIBCMTD:_ftol3_.obj
 0001:00055673       __ftol3_work               10056673 f   LIBCMTD:_ftol3_.obj
 0001:000556f9       __ftol3_common             100566f9 f   LIBCMTD:_ftol3_.obj
 0001:000557bb       __ftol3_arg_error          100567bb f   LIBCMTD:_ftol3_.obj
 0001:000557cd       __ftol3_except             100567cd f   LIBCMTD:_ftol3_.obj
 0001:00055811       __dtoui3                   10056811 f   LIBCMTD:_ftol3_.obj
 0001:00055820       __dtoul3                   10056820 f   LIBCMTD:_ftol3_.obj
 0001:0005582f       __dtol3                    1005682f f   LIBCMTD:_ftol3_.obj
 0001:0005583c       __dtol3_NaN                1005683c f   LIBCMTD:_ftol3_.obj
 0001:00055859       __dtol3_work               10056859 f   LIBCMTD:_ftol3_.obj
 0001:00055940       __ultod3                   10056940 f   LIBCMTD:_ftol3_.obj
 0001:00055980       __ltod3                    10056980 f   LIBCMTD:_ftol3_.obj
 0001:00055a90       ??3@YAXPAXI@Z              10056a90 f   LIBCMTD:delete_scalar_size.obj
 0001:00055ab0       ?__scrt_initialize_type_info@@YAXXZ 10056ab0 f   LIBCMTD:tncleanup.obj
 0001:00055ad0       ?__scrt_uninitialize_type_info@@YAXXZ 10056ad0 f   LIBCMTD:tncleanup.obj
 0001:00055af0       ??1type_info@@UAE@XZ       10056af0 f   LIBCMTD:std_type_info_static.obj
 0001:00055b10       ??_Etype_info@@UAEPAXI@Z   10056b10 f i LIBCMTD:std_type_info_static.obj
 0001:00055b10       ??_Gtype_info@@UAEPAXI@Z   10056b10 f i LIBCMTD:std_type_info_static.obj
 0001:00055b50       __alloca_probe             10056b50 f   LIBCMTD:chkstk.obj
 0001:00055b50       __chkstk                   10056b50 f   LIBCMTD:chkstk.obj
 0001:00056150       __CRT_INIT@12              10057150 f   LIBCMTD:dll_dllmain.obj
 0001:00056170       __DllMainCRTStartup@12     10057170 f   LIBCMTD:dll_dllmain.obj
 0001:000561a0       @__security_check_cookie@4 100571a0 f   LIBCMTD:_secchk_.obj
 0001:000561c0       @_guard_check_icall_nop@4  100571c0 f i LIBCMTD:guard_support.obj
 0001:000561d0       __guard_icall_checks_enforced 100571d0 f i LIBCMTD:guard_support.obj
 0001:00056200       ?_RTC_GetErrorFunc@@YAP6AHHPBDH00ZZPBX@Z 10057200 f   LIBCMTD:_userapi_.obj
 0001:00056210       ?_RTC_GetErrorFuncW@@YAP6AHHPB_WH00ZZPBX@Z 10057210 f   LIBCMTD:_userapi_.obj
 0001:00056220       __RTC_GetErrDesc           10057220 f   LIBCMTD:_userapi_.obj
 0001:00056240       __RTC_NumErrors            10057240 f   LIBCMTD:_userapi_.obj
 0001:00056250       __RTC_SetErrorFunc         10057250 f   LIBCMTD:_userapi_.obj
 0001:00056280       __RTC_SetErrorFuncW        10057280 f   LIBCMTD:_userapi_.obj
 0001:000562b0       __RTC_SetErrorType         100572b0 f   LIBCMTD:_userapi_.obj
 0001:000562e0       ??2@YAPAXI@Z               100572e0 f   LIBCMTD:new_scalar.obj
 0001:00056340       ??3@YAXPAX@Z               10057340 f   LIBCMTD:delete_scalar.obj
 0001:00056360       ??$__crt_fast_decode_pointer@PAP6AXXZ@@YAPAP6AXXZQAP6AXXZ@Z 10057360 f i LIBCMTD:utility.obj
 0001:00056390       ??$__crt_fast_encode_pointer@PAP6AXXZ@@YAPAP6AXXZQAP6AXXZ@Z 10057390 f i LIBCMTD:utility.obj
 0001:000563d0       ?__crt_rotate_pointer_value@@YAIIH@Z 100573d0 f i LIBCMTD:utility.obj
 0001:000563e0       ?configure_argv@__scrt_narrow_argv_policy@@SAHXZ 100573e0 f i LIBCMTD:utility.obj
 0001:00056540       _NtCurrentTeb              10057540 f i LIBCMTD:utility.obj
 0001:00056550       ___scrt_acquire_startup_lock 10057550 f   LIBCMTD:utility.obj
 0001:000565b0       ___scrt_dllmain_after_initialize_c 100575b0 f   LIBCMTD:utility.obj
 0001:000565f0       ___scrt_dllmain_before_initialize_c 100575f0 f   LIBCMTD:utility.obj
 0001:00056620       ___scrt_dllmain_crt_thread_attach 10057620 f   LIBCMTD:utility.obj
 0001:00056660       ___scrt_dllmain_crt_thread_detach 10057660 f   LIBCMTD:utility.obj
 0001:00056680       ___scrt_dllmain_exception_filter 10057680 f   LIBCMTD:utility.obj
 0001:000566e0       ___scrt_dllmain_uninitialize_c 100576e0 f   LIBCMTD:utility.obj
 0001:00056720       ___scrt_dllmain_uninitialize_critical 10057720 f   LIBCMTD:utility.obj
 0001:00056740       ___scrt_initialize_crt     10057740 f   LIBCMTD:utility.obj
 0001:000567a0       ___scrt_initialize_onexit_tables 100577a0 f   LIBCMTD:utility.obj
 0001:000568a0       ___scrt_is_nonwritable_in_current_image 100578a0 f   LIBCMTD:utility.obj
 0001:00056a20       ___scrt_release_startup_lock 10057a20 f   LIBCMTD:utility.obj
 0001:00056a50       ___scrt_uninitialize_crt   10057a50 f   LIBCMTD:utility.obj
 0001:00056aa0       __onexit                   10057aa0 f   LIBCMTD:utility.obj
 0001:00056b30       _at_quick_exit             10057b30 f   LIBCMTD:utility.obj
 0001:00056b90       _atexit                    10057b90 f   LIBCMTD:utility.obj
 0001:00056bd0       ___security_init_cookie    10057bd0 f   LIBCMTD:gs_support.obj
 0001:00056cf0       _DllMain@12                10057cf0 f   LIBCMTD:dll_dllmain_stub.obj
 0001:00056d00       ___local_stdio_printf_options 10057d00 f i LIBCMTD:default_local_stdio_options.obj
 0001:00056d10       ___local_stdio_scanf_options 10057d10 f i LIBCMTD:default_local_stdio_options.obj
 0001:00056d20       ___scrt_initialize_default_local_stdio_options 10057d20 f   LIBCMTD:default_local_stdio_options.obj
 0001:00056d70       ___scrt_get_dyn_tls_init_callback 10057d70 f   LIBCMTD:dyn_tls_init.obj
 0001:00056d80       ___scrt_fastfail           10057d80 f   LIBCMTD:utility_desktop.obj
 0001:00056f10       ___scrt_get_show_window_mode 10057f10 f   LIBCMTD:utility_desktop.obj
 0001:00056f60       ___scrt_initialize_winrt   10057f60 f   LIBCMTD:utility_desktop.obj
 0001:00056f70       ___scrt_is_managed_app     10057f70 f   LIBCMTD:utility_desktop.obj
 0001:00057020       ___scrt_set_unhandled_exception_filter 10058020 f   LIBCMTD:utility_desktop.obj
 0001:00057040       ___scrt_unhandled_exception_filter@4 10058040 f   LIBCMTD:utility_desktop.obj
 0001:000570c0       __crt_debugger_hook        100580c0 f   LIBCMTD:utility_desktop.obj
 0001:000570e0       __RTC_Initialize           100580e0 f   LIBCMTD:_initsect_.obj
 0001:00057120       __RTC_Terminate            10058120 f   LIBCMTD:_initsect_.obj
 0001:00057160       @_guard_check_icall@4      10058160 f i LIBCMTD:checkcfg.obj
 0001:00057180       ___raise_securityfailure   10058180 f   LIBCMTD:gs_report.obj
 0001:000571c0       ___report_gsfailure        100581c0 f   LIBCMTD:gs_report.obj
 0001:00057310       ___report_rangecheckfailure 10058310 f   LIBCMTD:gs_report.obj
 0001:00057320       ___report_securityfailure  10058320 f   LIBCMTD:gs_report.obj
 0001:00057430       ___report_securityfailureEx 10058430 f   LIBCMTD:gs_report.obj
 0001:000575a0       ??$__vcrt_va_start_verify_argument_type@QBD@@YAXXZ 100585a0 f i LIBCMTD:_error_.obj
 0001:00057750       ?_RTC_AllocaFailure@@YAXPAXPAU_RTC_ALLOCA_NODE@@H@Z 10058750 f   LIBCMTD:_error_.obj
 0001:000578c0       ?_RTC_Failure@@YAXPAXH@Z   100588c0 f   LIBCMTD:_error_.obj
 0001:00057930       ?_RTC_StackFailure@@YAXPAXPBD@Z 10058930 f   LIBCMTD:_error_.obj
 0001:00057db0       __RTC_UninitUse            10058db0 f   LIBCMTD:_error_.obj
 0001:00057ee0       __vsprintf_s_l             10058ee0 f i LIBCMTD:_error_.obj
 0001:00057f20       _sprintf_s                 10058f20 f i LIBCMTD:_error_.obj
 0001:00057f50       ??0bad_alloc@std@@AAE@QBD@Z 10058f50 f i LIBCMTD:throw_bad_alloc.obj
 0001:00057f80       ??0bad_alloc@std@@QAE@ABV01@@Z 10058f80 f i LIBCMTD:throw_bad_alloc.obj
 0001:00057fb0       ??0bad_alloc@std@@QAE@XZ   10058fb0 f i LIBCMTD:throw_bad_alloc.obj
 0001:00057fe0       ??0bad_array_new_length@std@@QAE@ABV01@@Z 10058fe0 f i LIBCMTD:throw_bad_alloc.obj
 0001:00058010       ??0bad_array_new_length@std@@QAE@XZ 10059010 f i LIBCMTD:throw_bad_alloc.obj
 0001:00058040       ??0exception@std@@QAE@ABV01@@Z 10059040 f i LIBCMTD:throw_bad_alloc.obj
 0001:00058090       ??0exception@std@@QAE@QBDH@Z 10059090 f i LIBCMTD:throw_bad_alloc.obj
 0001:000580d0       ??1bad_alloc@std@@UAE@XZ   100590d0 f i LIBCMTD:throw_bad_alloc.obj
 0001:000580f0       ??1bad_array_new_length@std@@UAE@XZ 100590f0 f i LIBCMTD:throw_bad_alloc.obj
 0001:00058110       ??1exception@std@@UAE@XZ   10059110 f i LIBCMTD:throw_bad_alloc.obj
 0001:00058140       ??_Ebad_alloc@std@@UAEPAXI@Z 10059140 f i LIBCMTD:throw_bad_alloc.obj
 0001:00058140       ??_Gbad_alloc@std@@UAEPAXI@Z 10059140 f i LIBCMTD:throw_bad_alloc.obj
 0001:00058180       ??_Ebad_array_new_length@std@@UAEPAXI@Z 10059180 f i LIBCMTD:throw_bad_alloc.obj
 0001:00058180       ??_Gbad_array_new_length@std@@UAEPAXI@Z 10059180 f i LIBCMTD:throw_bad_alloc.obj
 0001:000581c0       ??_Gexception@std@@UAEPAXI@Z 100591c0 f i LIBCMTD:throw_bad_alloc.obj
 0001:000581c0       ??_Eexception@std@@UAEPAXI@Z 100591c0 f i LIBCMTD:throw_bad_alloc.obj
 0001:00058200       ?__scrt_throw_std_bad_alloc@@YAXXZ 10059200 f   LIBCMTD:throw_bad_alloc.obj
 0001:00058230       ?__scrt_throw_std_bad_array_new_length@@YAXXZ 10059230 f   LIBCMTD:throw_bad_alloc.obj
 0001:00058260       ?what@exception@std@@UBEPBDXZ 10059260 f i LIBCMTD:throw_bad_alloc.obj
 0001:000582a0       ___isa_available_init      100592a0 f   LIBCMTD:_cpu_disp_.obj
 0001:00058630       __get_startup_argv_mode    10059630 f   LIBCMTD:argv_mode.obj
 0001:00058640       ___scrt_is_ucrt_dll_in_use 10059640 f   LIBCMTD:ucrt_detection.obj
 0001:00058c30       ?_RTC_GetSrcLine@@YAHPAEPA_WKPAH1K@Z 10059c30 f   LIBCMTD:_pdblkup_.obj
 0001:00059060       _strstr                    1005a060 f   libvcruntimed:strstr.obj
 0001:00059360       _memcpy                    1005a360 f   libvcruntimed:memcpy.obj
 0001:00059a40       _memset                    1005aa40 f   libvcruntimed:memset.obj
 0001:00059e00       _memcmp                    1005ae00 f   libvcruntimed:_memcmp_.obj
 0001:0005a900       ??$__crt_fast_decode_pointer@P6AXXZ@@YAP6AXXZQ6AXXZ@Z 1005b900 f i libvcruntimed:purevirt.obj
 0001:0005a930       ??$__crt_fast_encode_pointer@P6AXXZ@@YAP6AXXZQ6AXXZ@Z 1005b930 f i libvcruntimed:purevirt.obj
 0001:0005a970       ??$__crt_interlocked_compare_exchange_pointer@$$A6AXXZ$$T$$T@@YAP6AXXZPDS6AXXZ$$T1@Z 1005b970 f i libvcruntimed:purevirt.obj
 0001:0005a990       ??$__crt_interlocked_exchange_pointer@$$A6AXXZP6AXXZ@@YAP6AXXZPDS6AXXZQ6AXXZ@Z 1005b990 f i libvcruntimed:purevirt.obj
 0001:0005a9a0       ??$__crt_interlocked_read_pointer@$$A6AXXZ@@YAP6AXXZPDS6AXXZ@Z 1005b9a0 f i libvcruntimed:purevirt.obj
 0001:0005a9c0       __get_purecall_handler     1005b9c0 f   libvcruntimed:purevirt.obj
 0001:0005a9f0       __purecall                 1005b9f0 f   libvcruntimed:purevirt.obj
 0001:0005aa30       __set_purecall_handler     1005ba30 f   libvcruntimed:purevirt.obj
 0001:0005aab0       ??$?RD@__crt_internal_free_policy@@QBEXQBD@Z 1005bab0 f i libvcruntimed:std_type_info.obj
 0001:0005aae0       ??$?RX@__crt_internal_free_policy@@QBEXQBX@Z 1005bae0 f i libvcruntimed:std_type_info.obj
 0001:0005ab10       ??$__crt_interlocked_compare_exchange_pointer@$$CBD$$T$$T@@YAPBDPDSBD$$T1@Z 1005bb10 f i libvcruntimed:std_type_info.obj
 0001:0005ab30       ??$__crt_interlocked_compare_exchange_pointer@$$CBDPAD$$T@@YAPBDPDSBDQAD$$T@Z 1005bb30 f i libvcruntimed:std_type_info.obj
 0001:0005ab50       ??$__crt_interlocked_read_pointer@$$CBD@@YAPBDPDSBD@Z 1005bb50 f i libvcruntimed:std_type_info.obj
 0001:0005ab70       ??0?$__crt_unique_heap_ptr@DU__crt_internal_free_policy@@@@QAE@QAD@Z 1005bb70 f i libvcruntimed:std_type_info.obj
 0001:0005ab90       ??0?$__crt_unique_heap_ptr@XU__crt_internal_free_policy@@@@QAE@QAX@Z 1005bb90 f i libvcruntimed:std_type_info.obj
 0001:0005abb0       ??1?$__crt_unique_heap_ptr@DU__crt_internal_free_policy@@@@QAE@XZ 1005bbb0 f i libvcruntimed:std_type_info.obj
 0001:0005abd0       ??1?$__crt_unique_heap_ptr@XU__crt_internal_free_policy@@@@QAE@XZ 1005bbd0 f i libvcruntimed:std_type_info.obj
 0001:0005ac30       ??B?$__crt_unique_heap_ptr@DU__crt_internal_free_policy@@@@QBE_NXZ 1005bc30 f i libvcruntimed:std_type_info.obj
 0001:0005ac50       ??B?$__crt_unique_heap_ptr@XU__crt_internal_free_policy@@@@QBE_NXZ 1005bc50 f i libvcruntimed:std_type_info.obj
 0001:0005acd0       ?detach@?$__crt_unique_heap_ptr@XU__crt_internal_free_policy@@@@QAEPAXXZ 1005bcd0 f i libvcruntimed:std_type_info.obj
 0001:0005ad00       ?get@?$__crt_unique_heap_ptr@DU__crt_internal_free_policy@@@@QBEPADXZ 1005bd00 f i libvcruntimed:std_type_info.obj
 0001:0005ad20       ?get@?$__crt_unique_heap_ptr@XU__crt_internal_free_policy@@@@QBEPAXXZ 1005bd20 f i libvcruntimed:std_type_info.obj
 0001:0005ad40       ?is_valid@?$__crt_unique_heap_ptr@DU__crt_internal_free_policy@@@@QBE_NXZ 1005bd40 f i libvcruntimed:std_type_info.obj
 0001:0005ad80       ?is_valid@?$__crt_unique_heap_ptr@XU__crt_internal_free_policy@@@@QBE_NXZ 1005bd80 f i libvcruntimed:std_type_info.obj
 0001:0005adc0       ?release@?$__crt_unique_heap_ptr@DU__crt_internal_free_policy@@@@QAEXXZ 1005bdc0 f i libvcruntimed:std_type_info.obj
 0001:0005adf0       ?release@?$__crt_unique_heap_ptr@XU__crt_internal_free_policy@@@@QAEXXZ 1005bdf0 f i libvcruntimed:std_type_info.obj
 0001:0005ae20       ___std_type_info_compare   1005be20 f   libvcruntimed:std_type_info.obj
 0001:0005ae50       ___std_type_info_destroy_list 1005be50 f   libvcruntimed:std_type_info.obj
 0001:0005aea0       ___std_type_info_hash      1005bea0 f   libvcruntimed:std_type_info.obj
 0001:0005af10       ___std_type_info_name      1005bf10 f   libvcruntimed:std_type_info.obj
 0001:0005b160       _memmove                   1005c160 f   libvcruntimed:memmove.obj
 0001:0005b8c0       __except_handler4          1005c8c0 f   libvcruntimed:_chandler4_.obj
 0001:0005bb10       ___vcrt_initialize         1005cb10 f   libvcruntimed:initialization.obj
 0001:0005bb60       ___vcrt_thread_attach      1005cb60 f   libvcruntimed:initialization.obj
 0001:0005bb80       ___vcrt_thread_detach      1005cb80 f   libvcruntimed:initialization.obj
 0001:0005bba0       ___vcrt_uninitialize       1005cba0 f   libvcruntimed:initialization.obj
 0001:0005bbd0       ___vcrt_uninitialize_critical 1005cbd0 f   libvcruntimed:initialization.obj
 0001:0005bbf0       ??$?RD@__crt_public_free_policy@@QBEXQBD@Z 1005cbf0 f i libvcruntimed:std_exception.obj
 0001:0005bc10       ??0?$__crt_unique_heap_ptr@DU__crt_public_free_policy@@@@QAE@QAD@Z 1005cc10 f i libvcruntimed:std_exception.obj
 0001:0005bc30       ??1?$__crt_unique_heap_ptr@DU__crt_public_free_policy@@@@QAE@XZ 1005cc30 f i libvcruntimed:std_exception.obj
 0001:0005bc50       ??B?$__crt_unique_heap_ptr@DU__crt_public_free_policy@@@@QBE_NXZ 1005cc50 f i libvcruntimed:std_exception.obj
 0001:0005bc70       ?detach@?$__crt_unique_heap_ptr@DU__crt_public_free_policy@@@@QAEPADXZ 1005cc70 f i libvcruntimed:std_exception.obj
 0001:0005bca0       ?get@?$__crt_unique_heap_ptr@DU__crt_public_free_policy@@@@QBEPADXZ 1005cca0 f i libvcruntimed:std_exception.obj
 0001:0005bcc0       ?is_valid@?$__crt_unique_heap_ptr@DU__crt_public_free_policy@@@@QBE_NXZ 1005ccc0 f i libvcruntimed:std_exception.obj
 0001:0005bd00       ?release@?$__crt_unique_heap_ptr@DU__crt_public_free_policy@@@@QAEXXZ 1005cd00 f i libvcruntimed:std_exception.obj
 0001:0005bd30       ___std_exception_copy      1005cd30 f   libvcruntimed:std_exception.obj
 0001:0005be50       ___std_exception_destroy   1005ce50 f   libvcruntimed:std_exception.obj
 0001:0005be90       __CxxThrowException@8      1005ce90 f   libvcruntimed:throw.obj
 0001:0005bf70       ___vcrt_GetModuleFileNameW 1005cf70 f   libvcruntimed:winapi_thunks.obj
 0001:0005bf90       ___vcrt_GetModuleHandleW   1005cf90 f   libvcruntimed:winapi_thunks.obj
 0001:0005bfb0       ___vcrt_LoadLibraryExW     1005cfb0 f   libvcruntimed:winapi_thunks.obj
 0001:0005bfd0       _strchr                    1005cfd0 f   libvcruntimed:strchr.obj
 0001:0005c03e       ___from_strstr_to_strchr   1005d03e     libvcruntimed:strchr.obj
 0001:0005c150       ??$?B$$A6AXXZ@__crt_fast_encoded_nullptr_t@@QBEP6AXXZXZ 1005d150 f i libvcruntimed:purevirt_data.obj
 0001:0005c170       ?__crt_fast_encode_pointer@@YA?AU__crt_fast_encoded_nullptr_t@@$$T@Z 1005d170 f i libvcruntimed:purevirt_data.obj
 0001:0005c180       ___vcrt_initialize_pure_virtual_call_handler 1005d180 f   libvcruntimed:purevirt_data.obj
 0001:0005c1b0       ??0Block@_HeapManager@@QAE@XZ 1005d1b0 f i libvcruntimed:undname.obj
 0001:0005c1d0       ??0DName@@QAE@AAPBDD@Z     1005d1d0 f   libvcruntimed:undname.obj
 0001:0005c540       ??0DName@@QAE@ABV0@@Z      1005d540 f i libvcruntimed:undname.obj
 0001:0005c570       ??0DName@@QAE@D@Z          1005d570 f   libvcruntimed:undname.obj
 0001:0005c680       ??0DName@@QAE@PAV0@@Z      1005d680 f   libvcruntimed:undname.obj
 0001:0005c800       ??0DName@@QAE@PBD@Z        1005d800 f   libvcruntimed:undname.obj
 0001:0005c930       ??0DName@@QAE@W4DNameStatus@@@Z 1005d930 f   libvcruntimed:undname.obj
 0001:0005ca90       ??0DName@@QAE@XZ           1005da90 f i libvcruntimed:undname.obj
 0001:0005cb80       ??0DName@@QAE@_J@Z         1005db80 f   libvcruntimed:undname.obj
 0001:0005cd60       ??0DName@@QAE@_K@Z         1005dd60 f   libvcruntimed:undname.obj
 0001:0005cef0       ??0DNameNode@@IAE@XZ       1005def0 f   libvcruntimed:undname.obj
 0001:0005cf10       ??0DNameStatusNode@@AAE@W4DNameStatus@@@Z 1005df10 f   libvcruntimed:undname.obj
 0001:0005cf80       ??0Replicator@@QAE@XZ      1005df80 f i libvcruntimed:undname.obj
 0001:0005cfa0       ??0UnDecorator@@QAE@PADPBDHP6APADJ@ZK@Z 1005dfa0 f i libvcruntimed:undname.obj
 0001:0005d060       ??0charNode@@QAE@D@Z       1005e060 f   libvcruntimed:undname.obj
 0001:0005d0a0       ??0pDNameNode@@QAE@PAVDName@@@Z 1005e0a0 f   libvcruntimed:undname.obj
 0001:0005d120       ??0pairNode@@QAE@PAVDNameNode@@0@Z 1005e120 f   libvcruntimed:undname.obj
 0001:0005d170       ??0pcharNode@@QAE@PBDH@Z   1005e170 f   libvcruntimed:undname.obj
 0001:0005d230       ??2@YAPAXIAAV_HeapManager@@H@Z 1005e230 f i libvcruntimed:undname.obj
 0001:0005d250       ??4DName@@QAEAAV0@ABV0@@Z  1005e250 f   libvcruntimed:undname.obj
 0001:0005d280       ??4DName@@QAEAAV0@D@Z      1005e280 f i libvcruntimed:undname.obj
 0001:0005d390       ??4DName@@QAEAAV0@PAV0@@Z  1005e390 f   libvcruntimed:undname.obj
 0001:0005d510       ??4DName@@QAEAAV0@PBD@Z    1005e510 f   libvcruntimed:undname.obj
 0001:0005d620       ??4DName@@QAEAAV0@W4DNameStatus@@@Z 1005e620 f   libvcruntimed:undname.obj
 0001:0005d760       ??AReplicator@@QBE?AVDName@@H@Z 1005e760 f   libvcruntimed:undname.obj
 0001:0005d7e0       ??BUnDecorator@@QAEPADXZ   1005e7e0 f i libvcruntimed:undname.obj
 0001:0005db30       ??H@YA?AVDName@@DABV0@@Z   1005eb30 f i libvcruntimed:undname.obj
 0001:0005db70       ??H@YA?AVDName@@PBDABV0@@Z 1005eb70 f i libvcruntimed:undname.obj
 0001:0005dbb0       ??H@YA?AVDName@@W4DNameStatus@@ABV0@@Z 1005ebb0 f i libvcruntimed:undname.obj
 0001:0005dbf0       ??HDName@@QBE?AV0@ABV0@@Z  1005ebf0 f   libvcruntimed:undname.obj
 0001:0005dc40       ??HDName@@QBE?AV0@D@Z      1005ec40 f   libvcruntimed:undname.obj
 0001:0005dc90       ??HDName@@QBE?AV0@PAV0@@Z  1005ec90 f   libvcruntimed:undname.obj
 0001:0005dce0       ??HDName@@QBE?AV0@PBD@Z    1005ece0 f   libvcruntimed:undname.obj
 0001:0005dd30       ??HDName@@QBE?AV0@W4DNameStatus@@@Z 1005ed30 f   libvcruntimed:undname.obj
 0001:0005dd80       ??YDName@@QAEAAV0@ABV0@@Z  1005ed80 f   libvcruntimed:undname.obj
 0001:0005de00       ??YDName@@QAEAAV0@D@Z      1005ee00 f   libvcruntimed:undname.obj
 0001:0005dea0       ??YDName@@QAEAAV0@PAV0@@Z  1005eea0 f   libvcruntimed:undname.obj
 0001:0005df80       ??YDName@@QAEAAV0@PBD@Z    1005ef80 f   libvcruntimed:undname.obj
 0001:0005e040       ??YDName@@QAEAAV0@W4DNameStatus@@@Z 1005f040 f   libvcruntimed:undname.obj
 0001:0005e0c0       ??YReplicator@@QAEAAV0@ABVDName@@@Z 1005f0c0 f   libvcruntimed:undname.obj
 0001:0005e170       ??_5DName@@QAEAAV0@ABV0@@Z 1005f170 f   libvcruntimed:undname.obj
 0001:0005e1e0       ?Constructor@_HeapManager@@QAEXP6APAXI@ZP6AXPAX@Z@Z 1005f1e0 f i libvcruntimed:undname.obj
 0001:0005e230       ?Destructor@_HeapManager@@QAEXXZ 1005f230 f i libvcruntimed:undname.obj
 0001:0005e2a0       ?UScore@UnDecorator@@SAPBDW4Tokens@@@Z 1005f2a0 f   libvcruntimed:undname.obj
 0001:0005e2e0       ?append@DName@@AAEXPAVDNameNode@@@Z 1005f2e0 f   libvcruntimed:undname.obj
 0001:0005e390       ?composeDeclaration@UnDecorator@@CA?AVDName@@ABV2@@Z 1005f390 f i libvcruntimed:undname.obj
 0001:00060740       ?dbGetString@DName@@QBEPADXZ 10061740 f   libvcruntimed:undname.obj
 0001:00060770       ?doAccessSpecifiers@UnDecorator@@SAHXZ 10061770 f i libvcruntimed:undname.obj
 0001:000607a0       ?doAllocationLanguage@UnDecorator@@SAHXZ 100617a0 f i libvcruntimed:undname.obj
 0001:000607d0       ?doAllocationModel@UnDecorator@@SAHXZ 100617d0 f i libvcruntimed:undname.obj
 0001:00060800       ?doEcsu@UnDecorator@@SAHXZ 10061800 f i libvcruntimed:undname.obj
 0001:00060830       ?doEllipsis@UnDecorator@@SAHXZ 10061830 f i libvcruntimed:undname.obj
 0001:00060860       ?doFunctionReturns@UnDecorator@@SAHXZ 10061860 f i libvcruntimed:undname.obj
 0001:00060890       ?doMSKeywords@UnDecorator@@SAHXZ 10061890 f i libvcruntimed:undname.obj
 0001:000608c0       ?doMemberTypes@UnDecorator@@SAHXZ 100618c0 f i libvcruntimed:undname.obj
 0001:000608f0       ?doNameOnly@UnDecorator@@SAHXZ 100618f0 f i libvcruntimed:undname.obj
 0001:00060910       ?doNoIdentCharCheck@UnDecorator@@SAHXZ 10061910 f i libvcruntimed:undname.obj
 0001:00060930       ?doPchar@DName@@AAEXPBDH@Z 10061930 f   libvcruntimed:undname.obj
 0001:00060ac0       ?doPtr64@UnDecorator@@SAHXZ 10061ac0 f i libvcruntimed:undname.obj
 0001:00060af0       ?doRestrictionSpec@UnDecorator@@SAHXZ 10061af0 f i libvcruntimed:undname.obj
 0001:00060b20       ?doThisTypes@UnDecorator@@SAHXZ 10061b20 f i libvcruntimed:undname.obj
 0001:00060b60       ?doThrowTypes@UnDecorator@@SAHXZ 10061b60 f i libvcruntimed:undname.obj
 0001:00060b90       ?doTypeOnly@UnDecorator@@SAHXZ 10061b90 f i libvcruntimed:undname.obj
 0001:00060bb0       ?doUnderScore@UnDecorator@@SAHXZ 10061bb0 f i libvcruntimed:undname.obj
 0001:00060be0       ?getArgumentList@UnDecorator@@CA?AVDName@@XZ 10061be0 f   libvcruntimed:undname.obj
 0001:00060d80       ?getArgumentTypes@UnDecorator@@CA?AVDName@@XZ 10061d80 f   libvcruntimed:undname.obj
 0001:00060f30       ?getArrayType@UnDecorator@@CA?AVDName@@ABV2@@Z 10061f30 f i libvcruntimed:undname.obj
 0001:000611f0       ?getBasedType@UnDecorator@@CA?AVDName@@XZ 100621f0 f   libvcruntimed:undname.obj
 0001:000612e0       ?getBasicDataType@UnDecorator@@CA?AVDName@@ABV2@@Z 100622e0 f   libvcruntimed:undname.obj
 0001:00061a40       ?getCallIndex@UnDecorator@@CA?AVDName@@XZ 10062a40 f i libvcruntimed:undname.obj
 0001:00061a60       ?getCallingConvention@UnDecorator@@CA?AVDName@@XZ 10062a60 f   libvcruntimed:undname.obj
 0001:00061c50       ?getDataIndirectType@UnDecorator@@CA?AVDName@@ABV2@PBD0H@Z 10062c50 f   libvcruntimed:undname.obj
 0001:00062600       ?getDataIndirectType@UnDecorator@@CA?AVDName@@XZ 10063600 f i libvcruntimed:undname.obj
 0001:00062650       ?getDataType@UnDecorator@@CA?AVDName@@PAV2@@Z 10063650 f   libvcruntimed:undname.obj
 0001:000627b0       ?getDecoratedName@UnDecorator@@CA?AVDName@@XZ 100637b0 f   libvcruntimed:undname.obj
 0001:00062ba0       ?getDimension@UnDecorator@@CA?AVDName@@_N@Z 10063ba0 f   libvcruntimed:undname.obj
 0001:00062f00       ?getDispatchTarget@UnDecorator@@CA?AVDName@@XZ 10063f00 f   libvcruntimed:undname.obj
 0001:00062fc0       ?getDisplacement@UnDecorator@@CA?AVDName@@XZ 10063fc0 f i libvcruntimed:undname.obj
 0001:00062fe0       ?getECSUDataType@UnDecorator@@CA?AVDName@@XZ 10063fe0 f   libvcruntimed:undname.obj
 0001:00063220       ?getECSUName@UnDecorator@@CA?AVDName@@XZ 10064220 f i libvcruntimed:undname.obj
 0001:00063240       ?getEnumType@UnDecorator@@CA?AVDName@@XZ 10064240 f i libvcruntimed:undname.obj
 0001:000633e0       ?getExtendedDataIndirectType@UnDecorator@@CA?AVDName@@AAPBDAA_NH@Z 100643e0 f   libvcruntimed:undname.obj
 0001:000636c0       ?getExternalDataType@UnDecorator@@CA?AVDName@@ABV2@@Z 100646c0 f i libvcruntimed:undname.obj
 0001:00063780       ?getFunctionIndirectType@UnDecorator@@CA?AVDName@@ABV2@@Z 10064780 f   libvcruntimed:undname.obj
 0001:00063d30       ?getGuardNumber@UnDecorator@@CA?AVDName@@XZ 10064d30 f i libvcruntimed:undname.obj
 0001:00063d50       ?getLastChar@DName@@QBEDXZ 10064d50 f i libvcruntimed:undname.obj
 0001:00063da0       ?getLastChar@DNameStatusNode@@UBEDXZ 10064da0 f i libvcruntimed:undname.obj
 0001:00063de0       ?getLastChar@charNode@@UBEDXZ 10064de0 f i libvcruntimed:undname.obj
 0001:00063e00       ?getLastChar@pDNameNode@@UBEDXZ 10064e00 f i libvcruntimed:undname.obj
 0001:00063e40       ?getLastChar@pairNode@@UBEDXZ 10064e40 f i libvcruntimed:undname.obj
 0001:00063ec0       ?getLastChar@pcharNode@@UBEDXZ 10064ec0 f i libvcruntimed:undname.obj
 0001:00063f00       ?getLexicalFrame@UnDecorator@@CA?AVDName@@XZ 10064f00 f i libvcruntimed:undname.obj
 0001:00063f50       ?getMemory@_HeapManager@@QAEPAXIH@Z 10064f50 f   libvcruntimed:undname.obj
 0001:000640b0       ?getNumberOfDimensions@UnDecorator@@CAHXZ 100650b0 f   libvcruntimed:undname.obj
 0001:000641f0       ?getOperatorName@UnDecorator@@CA?AVDName@@_NPA_N@Z 100651f0 f i libvcruntimed:undname.obj
 0001:00064eb0       ?getPointerType@UnDecorator@@CA?AVDName@@ABV2@0@Z 10065eb0 f i libvcruntimed:undname.obj
 0001:00064ef0       ?getPointerTypeArray@UnDecorator@@CA?AVDName@@ABV2@0@Z 10065ef0 f i libvcruntimed:undname.obj
 0001:00064f30       ?getPrimaryDataType@UnDecorator@@CA?AVDName@@ABV2@@Z 10065f30 f   libvcruntimed:undname.obj
 0001:00065420       ?getPtrRefDataType@UnDecorator@@CA?AVDName@@ABV2@H@Z 10066420 f   libvcruntimed:undname.obj
 0001:00065620       ?getPtrRefType@UnDecorator@@CA?AVDName@@ABV2@0PBD@Z 10066620 f   libvcruntimed:undname.obj
 0001:000657f0       ?getReferenceType@UnDecorator@@CA?AVDName@@ABV2@0PBD@Z 100667f0 f i libvcruntimed:undname.obj
 0001:00065820       ?getRestrictionSpec@UnDecorator@@CA?AVDName@@XZ 10066820 f   libvcruntimed:undname.obj
 0001:000659c0       ?getReturnType@UnDecorator@@CA?AVDName@@PAV2@@Z 100669c0 f   libvcruntimed:undname.obj
 0001:00065a20       ?getScope@UnDecorator@@CA?AVDName@@XZ 10066a20 f   libvcruntimed:undname.obj
 0001:00066050       ?getScopedName@UnDecorator@@CA?AVDName@@XZ 10067050 f   libvcruntimed:undname.obj
 0001:000661b0       ?getSignedDimension@UnDecorator@@CA?AVDName@@XZ 100671b0 f   libvcruntimed:undname.obj
 0001:00066250       ?getStorageConvention@UnDecorator@@CA?AVDName@@XZ 10067250 f i libvcruntimed:undname.obj
 0001:00066270       ?getString@DName@@QBEPADPAD0@Z 10067270 f i libvcruntimed:undname.obj
 0001:000662d0       ?getString@DName@@QBEPADPADH@Z 100672d0 f i libvcruntimed:undname.obj
 0001:00066380       ?getString@DNameStatusNode@@UBEPADPAD0@Z 10067380 f i libvcruntimed:undname.obj
 0001:000663c0       ?getString@charNode@@UBEPADPAD0@Z 100673c0 f i libvcruntimed:undname.obj
 0001:00066400       ?getString@pDNameNode@@UBEPADPAD0@Z 10067400 f i libvcruntimed:undname.obj
 0001:00066450       ?getString@pairNode@@UBEPADPAD0@Z 10067450 f i libvcruntimed:undname.obj
 0001:000664f0       ?getString@pcharNode@@UBEPADPAD0@Z 100674f0 f i libvcruntimed:undname.obj
 0001:00066530       ?getStringEncoding@UnDecorator@@CA?AVDName@@PADH@Z 10067530 f   libvcruntimed:undname.obj
 0001:00066680       ?getStringHelper@@YAPADPAD00H@Z 10067680 f i libvcruntimed:undname.obj
 0001:000666d0       ?getSymbolName@UnDecorator@@CA?AVDName@@XZ 100676d0 f i libvcruntimed:undname.obj
 0001:00066780       ?getTemplateArgumentList@UnDecorator@@CA?AVDName@@XZ 10067780 f   libvcruntimed:undname.obj
 0001:00066c60       ?getTemplateConstant@UnDecorator@@CA?AVDName@@XZ 10067c60 f   libvcruntimed:undname.obj
 0001:00067370       ?getTemplateName@UnDecorator@@CA?AVDName@@_N@Z 10068370 f   libvcruntimed:undname.obj
 0001:000675b0       ?getThisType@UnDecorator@@CA?AVDName@@XZ 100685b0 f i libvcruntimed:undname.obj
 0001:00067600       ?getThrowTypes@UnDecorator@@CA?AVDName@@XZ 10068600 f   libvcruntimed:undname.obj
 0001:000676d0       ?getTypeEncoding@UnDecorator@@CAHXZ 100686d0 f i libvcruntimed:undname.obj
 0001:000683a0       ?getVCallThunkType@UnDecorator@@CA?AVDName@@XZ 100693a0 f i libvcruntimed:undname.obj
 0001:00068420       ?getVbTableType@UnDecorator@@CA?AVDName@@ABV2@@Z 10069420 f i libvcruntimed:undname.obj
 0001:00068440       ?getVdispMapType@UnDecorator@@CA?AVDName@@ABV2@@Z 10069440 f i libvcruntimed:undname.obj
 0001:000684d0       ?getVfTableType@UnDecorator@@CA?AVDName@@ABV2@@Z 100694d0 f i libvcruntimed:undname.obj
 0001:00068700       ?getZName@UnDecorator@@CA?AVDName@@_N0@Z 10069700 f   libvcruntimed:undname.obj
 0001:00068a80       ?haveTemplateParameters@UnDecorator@@SAHXZ 10069a80 f i libvcruntimed:undname.obj
 0001:00068aa0       ?isArray@DName@@QBEHXZ     10069aa0 f i libvcruntimed:undname.obj
 0001:00068ac0       ?isComArray@DName@@QBEHXZ  10069ac0 f i libvcruntimed:undname.obj
 0001:00068ae0       ?isEmpty@DName@@QBEHXZ     10069ae0 f i libvcruntimed:undname.obj
 0001:00068b20       ?isFull@Replicator@@QBEHXZ 10069b20 f i libvcruntimed:undname.obj
 0001:00068b60       ?isNoTE@DName@@QBEHXZ      10069b60 f i libvcruntimed:undname.obj
 0001:00068b80       ?isPinPtr@DName@@QBEHXZ    10069b80 f i libvcruntimed:undname.obj
 0001:00068ba0       ?isPtrRef@DName@@QBEHXZ    10069ba0 f i libvcruntimed:undname.obj
 0001:00068bc0       ?isUDC@DName@@QBEHXZ       10069bc0 f i libvcruntimed:undname.obj
 0001:00068c10       ?isUDTThunk@DName@@QBEHXZ  10069c10 f i libvcruntimed:undname.obj
 0001:00068c60       ?isVCallThunk@DName@@QBEHXZ 10069c60 f i libvcruntimed:undname.obj
 0001:00068c80       ?isValid@DName@@QBEHXZ     10069c80 f i libvcruntimed:undname.obj
 0001:00068cc0       ?length@DName@@QBEHXZ      10069cc0 f i libvcruntimed:undname.obj
 0001:00068d10       ?length@DNameStatusNode@@UBEHXZ 10069d10 f i libvcruntimed:undname.obj
 0001:00068d30       ?length@charNode@@UBEHXZ   10069d30 f i libvcruntimed:undname.obj
 0001:00068d50       ?length@pDNameNode@@UBEHXZ 10069d50 f i libvcruntimed:undname.obj
 0001:00068d90       ?length@pairNode@@UBEHXZ   10069d90 f i libvcruntimed:undname.obj
 0001:00068e20       ?length@pcharNode@@UBEHXZ  10069e20 f i libvcruntimed:undname.obj
 0001:00068e40       ?make@DNameStatusNode@@SAPAV1@W4DNameStatus@@@Z 10069e40 f i libvcruntimed:undname.obj
 0001:00068ed0       ?setIsArray@DName@@QAEXXZ  10069ed0 f i libvcruntimed:undname.obj
 0001:00068f00       ?setIsComArray@DName@@QAEXXZ 10069f00 f i libvcruntimed:undname.obj
 0001:00068f30       ?setIsNoTE@DName@@QAEXXZ   10069f30 f i libvcruntimed:undname.obj
 0001:00068f60       ?setIsPinPtr@DName@@QAEXXZ 10069f60 f i libvcruntimed:undname.obj
 0001:00068f90       ?setIsUDC@DName@@QAEXXZ    10069f90 f i libvcruntimed:undname.obj
 0001:00068fd0       ?setIsVCallThunk@DName@@QAEXXZ 10069fd0 f i libvcruntimed:undname.obj
 0001:00069000       ?setPtrRef@DName@@QAEAAV1@XZ 1006a000 f i libvcruntimed:undname.obj
 0001:00069030       ?status@DName@@QBE?AW4DNameStatus@@XZ 1006a030 f i libvcruntimed:undname.obj
 0001:00069150       ___unDName                 1006a150 f   libvcruntimed:undname.obj
 0001:00069250       ___unDNameEx               1006a250 f   libvcruntimed:undname.obj
 0001:00069350       __local_unwind4            1006a350 f   libvcruntimed:_exsup4_.obj
 0001:00069426       __seh_longjmp_unwind4@4    1006a426 f   libvcruntimed:_exsup4_.obj
 0001:0006944e       @_EH4_CallFilterFunc@8     1006a44e f   libvcruntimed:_exsup4_.obj
 0001:00069465       @_EH4_TransferToHandler@8  1006a465 f   libvcruntimed:_exsup4_.obj
 0001:0006947e       @_EH4_GlobalUnwind2@8      1006a47e f   libvcruntimed:_exsup4_.obj
 0001:00069497       @_EH4_LocalUnwind@16       1006a497 f   libvcruntimed:_exsup4_.obj
 0001:00069510       ___except_validate_context_record 1006a510 f   libvcruntimed:jbcxrval.obj
 0001:00069570       ___except_validate_jump_buffer 1006a570 f   libvcruntimed:jbcxrval.obj
 0001:000695d0       ??$?RU__vcrt_ptd@@@__crt_internal_free_policy@@QBEXQBU__vcrt_ptd@@@Z 1006a5d0 f i libvcruntimed:per_thread_data.obj
 0001:00069600       ??0?$__crt_unique_heap_ptr@U__vcrt_ptd@@U__crt_internal_free_policy@@@@QAE@QAU__vcrt_ptd@@@Z 1006a600 f i libvcruntimed:per_thread_data.obj
 0001:00069640       ??1?$__crt_unique_heap_ptr@U__vcrt_ptd@@U__crt_internal_free_policy@@@@QAE@XZ 1006a640 f i libvcruntimed:per_thread_data.obj
 0001:00069680       ??B?$__crt_unique_heap_ptr@U__vcrt_ptd@@U__crt_internal_free_policy@@@@QBE_NXZ 1006a680 f i libvcruntimed:per_thread_data.obj
 0001:000696a0       ?detach@?$__crt_unique_heap_ptr@U__vcrt_ptd@@U__crt_internal_free_policy@@@@QAEPAU__vcrt_ptd@@XZ 1006a6a0 f i libvcruntimed:per_thread_data.obj
 0001:000696d0       ?get@?$__crt_unique_heap_ptr@U__vcrt_ptd@@U__crt_internal_free_policy@@@@QBEPAU__vcrt_ptd@@XZ 1006a6d0 f i libvcruntimed:per_thread_data.obj
 0001:000696f0       ?is_valid@?$__crt_unique_heap_ptr@U__vcrt_ptd@@U__crt_internal_free_policy@@@@QBE_NXZ 1006a6f0 f i libvcruntimed:per_thread_data.obj
 0001:00069730       ?release@?$__crt_unique_heap_ptr@U__vcrt_ptd@@U__crt_internal_free_policy@@@@QAEXXZ 1006a730 f i libvcruntimed:per_thread_data.obj
 0001:00069790       ___vcrt_freefls@4          1006a790 f   libvcruntimed:per_thread_data.obj
 0001:000697c0       ___vcrt_freeptd            1006a7c0 f   libvcruntimed:per_thread_data.obj
 0001:00069830       ___vcrt_getptd             1006a830 f   libvcruntimed:per_thread_data.obj
 0001:00069860       ___vcrt_getptd_noexit      1006a860 f   libvcruntimed:per_thread_data.obj
 0001:00069a20       ___vcrt_initialize_ptd     1006aa20 f   libvcruntimed:per_thread_data.obj
 0001:00069a80       ___vcrt_uninitialize_ptd   1006aa80 f   libvcruntimed:per_thread_data.obj
 0001:00069ac0       ___vcrt_initialize_locks   1006aac0 f   libvcruntimed:locks.obj
 0001:00069b30       ___vcrt_lock               1006ab30 f   libvcruntimed:locks.obj
 0001:00069b50       ___vcrt_uninitialize_locks 1006ab50 f   libvcruntimed:locks.obj
 0001:00069bb0       ___vcrt_unlock             1006abb0 f   libvcruntimed:locks.obj
 0001:00069bd0       ??$?BX@__crt_fast_encoded_nullptr_t@@QBEPAXXZ 1006abd0 f i libvcruntimed:winapi_downlevel.obj
 0001:00069bf0       ??$__crt_fast_decode_pointer@PAX@@YAPAXQAX@Z 1006abf0 f i libvcruntimed:winapi_downlevel.obj
 0001:00069c20       ??$__crt_fast_encode_pointer@PAX@@YAPAXQAX@Z 1006ac20 f i libvcruntimed:winapi_downlevel.obj
 0001:00069c60       ??$__crt_interlocked_compare_exchange_pointer@UHINSTANCE__@@$$T$$T@@YAPAUHINSTANCE__@@PDSAU0@$$T1@Z 1006ac60 f i libvcruntimed:winapi_downlevel.obj
 0001:00069c80       ??$__crt_interlocked_compare_exchange_pointer@X$$T$$T@@YAPAXPDSAX$$T1@Z 1006ac80 f i libvcruntimed:winapi_downlevel.obj
 0001:00069ca0       ??$__crt_interlocked_exchange_pointer@UHINSTANCE__@@PAU1@@@YAPAUHINSTANCE__@@PDSAU0@QAU0@@Z 1006aca0 f i libvcruntimed:winapi_downlevel.obj
 0001:00069cb0       ??$__crt_interlocked_exchange_pointer@UHINSTANCE__@@PAX@@YAPAUHINSTANCE__@@PDSAU0@QAX@Z 1006acb0 f i libvcruntimed:winapi_downlevel.obj
 0001:00069cc0       ??$__crt_interlocked_exchange_pointer@XPAX@@YAPAXPDSAXQAX@Z 1006acc0 f i libvcruntimed:winapi_downlevel.obj
 0001:00069cd0       ??$__crt_interlocked_read_pointer@UHINSTANCE__@@@@YAPAUHINSTANCE__@@PDSAU0@@Z 1006acd0 f i libvcruntimed:winapi_downlevel.obj
 0001:00069cf0       ??$__crt_interlocked_read_pointer@X@@YAPAXPDSAX@Z 1006acf0 f i libvcruntimed:winapi_downlevel.obj
 0001:0006a290       ___vcrt_EventRegister      1006b290 f   libvcruntimed:winapi_downlevel.obj
 0001:0006a2e0       ___vcrt_EventSetInformation 1006b2e0 f   libvcruntimed:winapi_downlevel.obj
 0001:0006a340       ___vcrt_EventUnregister    1006b340 f   libvcruntimed:winapi_downlevel.obj
 0001:0006a390       ___vcrt_EventWriteTransfer 1006b390 f   libvcruntimed:winapi_downlevel.obj
 0001:0006a3f0       ___vcrt_FlsAlloc           1006b3f0 f   libvcruntimed:winapi_downlevel.obj
 0001:0006a440       ___vcrt_FlsFree            1006b440 f   libvcruntimed:winapi_downlevel.obj
 0001:0006a490       ___vcrt_FlsGetValue        1006b490 f   libvcruntimed:winapi_downlevel.obj
 0001:0006a4e0       ___vcrt_FlsSetValue        1006b4e0 f   libvcruntimed:winapi_downlevel.obj
 0001:0006a540       ___vcrt_InitializeCriticalSectionEx 1006b540 f   libvcruntimed:winapi_downlevel.obj
 0001:0006a5a0       ___vcrt_initialize_winapi_thunks 1006b5a0 f   libvcruntimed:winapi_downlevel.obj
 0001:0006a620       ___vcrt_uninitialize_winapi_thunks 1006b620 f   libvcruntimed:winapi_downlevel.obj
 0001:0006a6b0       __global_unwind2           1006b6b0 f   libvcruntimed:_exsup_.obj
 0001:0006a715       __local_unwind2            1006b715 f   libvcruntimed:_exsup_.obj
 0001:0006a799       __abnormal_termination     1006b799 f   libvcruntimed:_exsup_.obj
 0001:0006a7bc       __NLG_Notify1              1006b7bc f   libvcruntimed:_exsup_.obj
 0001:0006a7c5       __NLG_Notify               1006b7c5 f   libvcruntimed:_exsup_.obj
 0001:0006a7dc       __NLG_Dispatch             1006b7dc     libvcruntimed:_exsup_.obj
 0001:0006a7dc       __NLG_Dispatch2            1006b7dc     libvcruntimed:_exsup_.obj
 0001:0006a7e4       __NLG_Call                 1006b7e4 f   libvcruntimed:_exsup_.obj
 0001:0006a7e6       __NLG_Return2              1006b7e6     libvcruntimed:_exsup_.obj
 0001:0006a840       __abs64                    1006b840 f   libucrtd:abs.obj
 0001:0006a8a0       _abs                       1006b8a0 f   libucrtd:abs.obj
 0001:0006a8d0       _fabs                      1006b8d0 f   libucrtd:fabs.obj
 0001:0006a9f0       __chgsign                  1006b9f0 f   libucrtd:ieeemisc.obj
 0001:0006aa30       __chgsignf                 1006ba30 f   libucrtd:ieeemisc.obj
 0001:0006aa80       __copysign                 1006ba80 f   libucrtd:ieeemisc.obj
 0001:0006aac0       __copysignf                1006bac0 f   libucrtd:ieeemisc.obj
 0001:0006ab20       __finite                   1006bb20 f   libucrtd:ieeemisc.obj
 0001:0006ab50       __fpclass                  1006bb50 f   libucrtd:ieeemisc.obj
 0001:0006ac80       __isnan                    1006bc80 f   libucrtd:ieeemisc.obj
 0001:0006ace0       __logb                     1006bce0 f   libucrtd:ieeemisc.obj
 0001:0006ae40       __nextafter                1006be40 f   libucrtd:ieeemisc.obj
 0001:0006ae70       __scalb                    1006be70 f   libucrtd:ieeemisc.obj
 0001:0006aea0       _pow                       1006bea0 f   libucrtd:pow.obj
 0001:0006aee0       __CIpow                    1006bee0 f   libucrtd:pow.obj
 0001:0006af1b       __CIpow_default            1006bf1b f   libucrtd:pow.obj
 0001:0006af34       __pow_default              1006bf34     libucrtd:pow.obj
 0001:0006b1d0       __CIsqrt                   1006c1d0 f   libucrtd:sqrt.obj
 0001:0006b1e4       _sqrt                      1006c1e4     libucrtd:sqrt.obj
 0001:0006b2c0       _cos                       1006c2c0 f   libucrtd:cos.obj
 0001:0006b300       __CIcos                    1006c300 f   libucrtd:cos.obj
 0001:0006b33b       __CIcos_default            1006c33b f   libucrtd:cos.obj
 0001:0006b34f       __cos_default              1006c34f     libucrtd:cos.obj
 0001:0006b430       _sin                       1006c430 f   libucrtd:sin.obj
 0001:0006b470       __CIsin                    1006c470 f   libucrtd:sin.obj
 0001:0006b4ab       __CIsin_default            1006c4ab f   libucrtd:sin.obj
 0001:0006b4bf       __sin_default              1006c4bf     libucrtd:sin.obj
 0001:0006b5a0       _atan2                     1006c5a0 f   libucrtd:87ctriga.obj
 0001:0006b5aa       __CIatan2                  1006c5aa f   libucrtd:87ctriga.obj
 0001:0006b5c0       _floor                     1006c5c0 f   libucrtd:floor_pentium4.obj
 0001:0006b600       __floor_pentium4           1006c600 f   libucrtd:floor_pentium4.obj
 0001:0006b700       ??$?RU?$__crt_report_hook_node@D@@@__crt_internal_free_policy@@QBEXQBU?$__crt_report_hook_node@D@@@Z 1006c700 f i libucrtd:dbgrpt.obj
 0001:0006b730       ??$?RU?$__crt_report_hook_node@_W@@@__crt_internal_free_policy@@QBEXQBU?$__crt_report_hook_node@_W@@@Z 1006c730 f i libucrtd:dbgrpt.obj
 0001:0006b760       ??$?RV<lambda_4385efabcfedf7d3ecea3114bb4d80a3>@@AAV<lambda_0e04737ef8baea6dabca2b8414b05b67>@@V<lambda_d865d276f220a9fa71140df531e906d8>@@@?$__crt_seh_guarded_call@H@@QAEH$$QAV<lambda_4385efabcfedf7d3ecea3114bb4d80a3>@@AAV<lambda_0e04737ef8baea6dabca2b8414b05b67>@@$$QAV<lambda_d865d276f220a9fa71140df531e906d8>@@@Z 1006c760 f i libucrtd:dbgrpt.obj
 0001:0006b810       ??$?RV<lambda_cc3a1c0f52e01ba2b29fe175588291fc>@@AAV<lambda_fe667bea668416e0f0232b481cd5c955>@@V<lambda_bb8fdd70844b93de4445abd0f0332611>@@@?$__crt_seh_guarded_call@H@@QAEH$$QAV<lambda_cc3a1c0f52e01ba2b29fe175588291fc>@@AAV<lambda_fe667bea668416e0f0232b481cd5c955>@@$$QAV<lambda_bb8fdd70844b93de4445abd0f0332611>@@@Z 1006c810 f i libucrtd:dbgrpt.obj
 0001:0006b8c0       ??$__acrt_lock_and_call@V<lambda_0e04737ef8baea6dabca2b8414b05b67>@@@@YAHW4__acrt_lock_id@@$$QAV<lambda_0e04737ef8baea6dabca2b8414b05b67>@@@Z 1006c8c0 f i libucrtd:dbgrpt.obj
 0001:0006b910       ??$__acrt_lock_and_call@V<lambda_fe667bea668416e0f0232b481cd5c955>@@@@YAHW4__acrt_lock_id@@$$QAV<lambda_fe667bea668416e0f0232b481cd5c955>@@@Z 1006c910 f i libucrtd:dbgrpt.obj
 0001:0006b960       ??$__vcrt_va_start_verify_argument_type@QB_W@@YAXXZ 1006c960 f i libucrtd:dbgrpt.obj
 0001:0006c860       ??$get_module_file_name@AAPAUHINSTANCE__@@AAY0BAF@DK@?$__crt_char_traits@D@@SAKAAPAUHINSTANCE__@@AAY0BAF@D$$QAK@Z 1006d860 f i libucrtd:dbgrpt.obj
 0001:0006c890       ??$get_module_file_name@AAPAUHINSTANCE__@@AAY0BAF@_WK@?$__crt_char_traits@_W@@SAKAAPAUHINSTANCE__@@AAY0BAF@_W$$QAK@Z 1006d890 f i libucrtd:dbgrpt.obj
 0001:0006c8c0       ??$tcscpy_s@AAY0BAF@DIPBD@?$__crt_char_traits@D@@SAHAAY0BAF@D$$QAI$$QAPBD@Z 1006d8c0 f i libucrtd:dbgrpt.obj
 0001:0006c8f0       ??$tcscpy_s@AAY0BAF@_WIPB_W@?$__crt_char_traits@_W@@SAHAAY0BAF@_W$$QAI$$QAPB_W@Z 1006d8f0 f i libucrtd:dbgrpt.obj
 0001:0006c920       ??$tcslen@AAY0BAF@D@?$__crt_char_traits@D@@SAIAAY0BAF@D@Z 1006d920 f i libucrtd:dbgrpt.obj
 0001:0006c940       ??$tcslen@AAY0BAF@_W@?$__crt_char_traits@_W@@SAIAAY0BAF@_W@Z 1006d940 f i libucrtd:dbgrpt.obj
 0001:0006c960       ??$tcslen@ABQBD@?$__crt_char_traits@D@@SAIABQBD@Z 1006d960 f i libucrtd:dbgrpt.obj
 0001:0006c980       ??$tcslen@ABQB_W@?$__crt_char_traits@_W@@SAIABQB_W@Z 1006d980 f i libucrtd:dbgrpt.obj
 0001:0006cac0       ??0?$__crt_unique_heap_ptr@U?$__crt_report_hook_node@D@@U__crt_internal_free_policy@@@@QAE@QAU?$__crt_report_hook_node@D@@@Z 1006dac0 f i libucrtd:dbgrpt.obj
 0001:0006cae0       ??0?$__crt_unique_heap_ptr@U?$__crt_report_hook_node@_W@@U__crt_internal_free_policy@@@@QAE@QAU?$__crt_report_hook_node@_W@@@Z 1006dae0 f i libucrtd:dbgrpt.obj
 0001:0006cb00       ??1?$__crt_unique_heap_ptr@U?$__crt_report_hook_node@D@@U__crt_internal_free_policy@@@@QAE@XZ 1006db00 f i libucrtd:dbgrpt.obj
 0001:0006cb20       ??1?$__crt_unique_heap_ptr@U?$__crt_report_hook_node@_W@@U__crt_internal_free_policy@@@@QAE@XZ 1006db20 f i libucrtd:dbgrpt.obj
 0001:0006cb40       ??B?$__crt_unique_heap_ptr@U?$__crt_report_hook_node@D@@U__crt_internal_free_policy@@@@QBE_NXZ 1006db40 f i libucrtd:dbgrpt.obj
 0001:0006cb60       ??B?$__crt_unique_heap_ptr@U?$__crt_report_hook_node@_W@@U__crt_internal_free_policy@@@@QBE_NXZ 1006db60 f i libucrtd:dbgrpt.obj
 0001:0006d200       ?detach@?$__crt_unique_heap_ptr@U?$__crt_report_hook_node@D@@U__crt_internal_free_policy@@@@QAEPAU?$__crt_report_hook_node@D@@XZ 1006e200 f i libucrtd:dbgrpt.obj
 0001:0006d230       ?detach@?$__crt_unique_heap_ptr@U?$__crt_report_hook_node@_W@@U__crt_internal_free_policy@@@@QAEPAU?$__crt_report_hook_node@_W@@XZ 1006e230 f i libucrtd:dbgrpt.obj
 0001:0006d260       ?get@?$__crt_unique_heap_ptr@U?$__crt_report_hook_node@D@@U__crt_internal_free_policy@@@@QBEPAU?$__crt_report_hook_node@D@@XZ 1006e260 f i libucrtd:dbgrpt.obj
 0001:0006d280       ?get@?$__crt_unique_heap_ptr@U?$__crt_report_hook_node@_W@@U__crt_internal_free_policy@@@@QBEPAU?$__crt_report_hook_node@_W@@XZ 1006e280 f i libucrtd:dbgrpt.obj
 0001:0006d300       ?is_valid@?$__crt_unique_heap_ptr@U?$__crt_report_hook_node@D@@U__crt_internal_free_policy@@@@QBE_NXZ 1006e300 f i libucrtd:dbgrpt.obj
 0001:0006d340       ?is_valid@?$__crt_unique_heap_ptr@U?$__crt_report_hook_node@_W@@U__crt_internal_free_policy@@@@QBE_NXZ 1006e340 f i libucrtd:dbgrpt.obj
 0001:0006d380       ?release@?$__crt_unique_heap_ptr@U?$__crt_report_hook_node@D@@U__crt_internal_free_policy@@@@QAEXXZ 1006e380 f i libucrtd:dbgrpt.obj
 0001:0006d3c0       ?release@?$__crt_unique_heap_ptr@U?$__crt_report_hook_node@_W@@U__crt_internal_free_policy@@@@QAEXXZ 1006e3c0 f i libucrtd:dbgrpt.obj
 0001:0006d400       __CrtDbgReport             1006e400 f   libucrtd:dbgrpt.obj
 0001:0006d460       __CrtDbgReportW            1006e460 f   libucrtd:dbgrpt.obj
 0001:0006d4c0       __CrtSetReportHook2        1006e4c0 f   libucrtd:dbgrpt.obj
 0001:0006d4e0       __CrtSetReportHookW2       1006e4e0 f   libucrtd:dbgrpt.obj
 0001:0006d500       ___acrt_MessageWindowA     1006e500 f   libucrtd:dbgrpt.obj
 0001:0006d530       ___acrt_MessageWindowW     1006e530 f   libucrtd:dbgrpt.obj
 0001:0006d560       __invoke_watson_if_error   1006e560 f i libucrtd:dbgrpt.obj
 0001:0006d5a0       __invoke_watson_if_oneof   1006e5a0 f i libucrtd:dbgrpt.obj
 0001:0006d5f0       __snwprintf_s              1006e5f0 f i libucrtd:dbgrpt.obj
 0001:0006d650       __vsnwprintf_s_l           1006e650 f i libucrtd:dbgrpt.obj
 0001:0006d6c0       __errcode                  1006e6c0 f   libucrtd:fpexcept.obj
 0001:0006d750       __except1                  1006e750 f   libucrtd:fpexcept.obj
 0001:0006d890       __except2                  1006e890 f   libucrtd:fpexcept.obj
 0001:0006da40       __handle_exc               1006ea40 f   libucrtd:fpexcept.obj
 0001:0006de20       __handle_qnan2             1006ee20 f   libucrtd:fpexcept.obj
 0001:0006de40       __raise_exc                1006ee40 f   libucrtd:fpexcept.obj
 0001:0006de80       __raise_exc_ex             1006ee80 f   libucrtd:fpexcept.obj
 0001:0006e560       __raise_excf               1006f560 f   libucrtd:fpexcept.obj
 0001:0006e5a0       __set_errno_from_matherr   1006f5a0 f   libucrtd:fpexcept.obj
 0001:0006e5f0       __umatherr                 1006f5f0 f   libucrtd:fpexcept.obj
 0001:0006e6c0       __initterm                 1006f6c0 f   libucrtd:initterm.obj
 0001:0006e730       __initterm_e               1006f730 f   libucrtd:initterm.obj
 0001:0006e7c0       ??$?B$$A6AHI@Z@__crt_fast_encoded_nullptr_t@@QBEP6AHI@ZXZ 1006f7c0 f i libucrtd:new_handler.obj
 0001:0006e7e0       ??$__crt_fast_decode_pointer@P6AHI@Z@@YAP6AHI@ZQ6AHI@Z@Z 1006f7e0 f i libucrtd:new_handler.obj
 0001:0006e820       ??$__crt_fast_encode_pointer@P6AHI@Z@@YAP6AHI@ZQ6AHI@Z@Z 1006f820 f i libucrtd:new_handler.obj
 0001:0006e860       ?_set_new_handler@@YAP6AHI@ZH@Z 1006f860 f   libucrtd:new_handler.obj
 0001:0006e8d0       ?get_current_state_index@__crt_state_management@@YAIXZ 1006f8d0 f i libucrtd:new_handler.obj
 0001:0006e8e0       ?initialize@?$dual_state_global@P6AHI@Z@__crt_state_management@@QAEXQ6AHI@Z@Z 1006f8e0 f i libucrtd:new_handler.obj
 0001:0006e930       ?value@?$dual_state_global@P6AHI@Z@__crt_state_management@@QAEAAP6AHI@ZXZ 1006f930 f i libucrtd:new_handler.obj
 0001:0006e950       ___acrt_initialize_new_handler 1006f950 f   libucrtd:new_handler.obj
 0001:0006e970       __callnewh                 1006f970 f   libucrtd:new_handler.obj
 0001:0006e9e0       __query_new_handler        1006f9e0 f   libucrtd:new_handler.obj
 0001:0006eaa0       __set_new_handler          1006faa0 f   libucrtd:new_handler.obj
 0001:0006eb80       _malloc                    1006fb80 f   libucrtd:malloc.obj
 0001:0006eba0       ??$__crt_interlocked_read@J@@YAJPDJ@Z 1006fba0 f i libucrtd:debug_heap.obj
 0001:0006ebc0       ??0_LocaleUpdate@@QAE@QAU__crt_locale_pointers@@@Z 1006fbc0 f i libucrtd:debug_heap.obj
 0001:0006ece0       ??1_LocaleUpdate@@QAE@XZ   1006fce0 f i libucrtd:debug_heap.obj
 0001:0006ed20       ?GetLocaleT@_LocaleUpdate@@QAEPAU__crt_locale_pointers@@XZ 1006fd20 f i libucrtd:debug_heap.obj
 0001:0006ed40       ?__crt_interlocked_read_32@@YAHPDH@Z 1006fd40 f i libucrtd:debug_heap.obj
 0001:00070c00       __CrtCheckMemory           10071c00 f   libucrtd:debug_heap.obj
 0001:00070df0       __CrtDoForAllClientObjects 10071df0 f   libucrtd:debug_heap.obj
 0001:00070fa0       __CrtDumpMemoryLeaks       10071fa0 f   libucrtd:debug_heap.obj
 0001:00071060       __CrtGetAllocHook          10072060 f   libucrtd:debug_heap.obj
 0001:00071070       __CrtGetDumpClient         10072070 f   libucrtd:debug_heap.obj
 0001:00071080       __CrtIsMemoryBlock         10072080 f   libucrtd:debug_heap.obj
 0001:00071220       __CrtIsValidHeapPointer    10072220 f   libucrtd:debug_heap.obj
 0001:00071260       __CrtIsValidPointer        10072260 f   libucrtd:debug_heap.obj
 0001:00071290       __CrtMemCheckpoint         10072290 f   libucrtd:debug_heap.obj
 0001:00071550       __CrtMemDifference         10072550 f   libucrtd:debug_heap.obj
 0001:00071860       __CrtMemDumpAllObjectsSince 10072860 f   libucrtd:debug_heap.obj
 0001:00071920       __CrtMemDumpStatistics     10072920 f   libucrtd:debug_heap.obj
 0001:00071a90       __CrtReportBlockType       10072a90 f   libucrtd:debug_heap.obj
 0001:00071ad0       __CrtSetAllocHook          10072ad0 f   libucrtd:debug_heap.obj
 0001:00071b00       __CrtSetBreakAlloc         10072b00 f   libucrtd:debug_heap.obj
 0001:00071b30       __CrtSetDbgBlockType       10072b30 f   libucrtd:debug_heap.obj
 0001:00071c40       __CrtSetDbgFlag            10072c40 f   libucrtd:debug_heap.obj
 0001:00071e10       __CrtSetDumpClient         10072e10 f   libucrtd:debug_heap.obj
 0001:00071e40       ___acrt_get_locale_data_prefix 10072e40 f i libucrtd:debug_heap.obj
 0001:00071e60       ___acrt_locale_changed     10072e60 f i libucrtd:debug_heap.obj
 0001:00071ea0       ___p__crtBreakAlloc        10072ea0 f   libucrtd:debug_heap.obj
 0001:00071eb0       ___p__crtDbgFlag           10072eb0 f   libucrtd:debug_heap.obj
 0001:00071ec0       __aligned_free_dbg         10072ec0 f   libucrtd:debug_heap.obj
 0001:00071fa0       __aligned_malloc_dbg       10072fa0 f   libucrtd:debug_heap.obj
 0001:00071fd0       __aligned_msize_dbg        10072fd0 f   libucrtd:debug_heap.obj
 0001:00072140       __aligned_offset_malloc_dbg 10073140 f   libucrtd:debug_heap.obj
 0001:00072390       __aligned_offset_realloc_dbg 10073390 f   libucrtd:debug_heap.obj
 0001:00072760       __aligned_offset_recalloc_dbg 10073760 f   libucrtd:debug_heap.obj
 0001:00072850       __aligned_realloc_dbg      10073850 f   libucrtd:debug_heap.obj
 0001:00072880       __aligned_recalloc_dbg     10073880 f   libucrtd:debug_heap.obj
 0001:000728c0       __calloc_dbg               100738c0 f   libucrtd:debug_heap.obj
 0001:00072950       __chvalidchk_l             10073950 f i libucrtd:debug_heap.obj
 0001:00072980       __expand_dbg               10073980 f   libucrtd:debug_heap.obj
 0001:00072b00       __free_dbg                 10073b00 f   libucrtd:debug_heap.obj
 0001:00072be0       __ischartype_l             10073be0 f i libucrtd:debug_heap.obj
 0001:00072c40       __malloc_dbg               10073c40 f   libucrtd:debug_heap.obj
 0001:00072c70       __msize_dbg                10073c70 f   libucrtd:debug_heap.obj
 0001:00072e60       __realloc_dbg              10073e60 f   libucrtd:debug_heap.obj
 0001:00072f30       __recalloc_dbg             10073f30 f   libucrtd:debug_heap.obj
 0001:00073070       __seh_filter_dll           10074070 f   libucrtd:exception_filter.obj
 0001:000730a0       __seh_filter_exe           100740a0 f   libucrtd:exception_filter.obj
 0001:00073350       ??$?B$$A6GXPAXK0@Z@__crt_fast_encoded_nullptr_t@@QBEP6GXPAXK0@ZXZ 10074350 f i libucrtd:exit.obj
 0001:00073370       ??$__crt_fast_decode_pointer@P6GXPAXK0@Z@@YAP6GXPAXK0@ZQ6GX0K0@Z@Z 10074370 f i libucrtd:exit.obj
 0001:000733b0       ??$__crt_fast_encode_pointer@P6GXPAXK0@Z@@YAP6GXPAXK0@ZQ6GX0K0@Z@Z 100743b0 f i libucrtd:exit.obj
 0001:000733f0       ??$__crt_get_proc_address@P6GXI@Z@@YAP6GXI@ZQAUHINSTANCE__@@QBD@Z 100743f0 f i libucrtd:exit.obj
 0001:00073410       ??0?$__crt_unique_handle_t@U__crt_hmodule_traits@@@@QAE@QAUHINSTANCE__@@@Z 10074410 f i libucrtd:exit.obj
 0001:00073430       ??1?$__crt_unique_handle_t@U__crt_hmodule_traits@@@@QAE@XZ 10074430 f i libucrtd:exit.obj
 0001:00073470       ?close@?$__crt_unique_handle_t@U__crt_hmodule_traits@@@@QAEXXZ 10074470 f i libucrtd:exit.obj
 0001:000734b0       ?close@__crt_hmodule_traits@@SA_NPAUHINSTANCE__@@@Z 100744b0 f i libucrtd:exit.obj
 0001:00073770       ?get@?$__crt_unique_handle_t@U__crt_hmodule_traits@@@@QBEPAUHINSTANCE__@@XZ 10074770 f i libucrtd:exit.obj
 0001:00073790       ?get_address_of@?$__crt_unique_handle_t@U__crt_hmodule_traits@@@@QAEPAPAUHINSTANCE__@@XZ 10074790 f i libucrtd:exit.obj
 0001:000737b0       ?get_invalid_value@__crt_hmodule_traits@@SAPAUHINSTANCE__@@XZ 100747b0 f i libucrtd:exit.obj
 0001:00073990       __Exit                     10074990 f   libucrtd:exit.obj
 0001:000739b0       ___acrt_initialize_thread_local_exit_callback 100749b0 f   libucrtd:exit.obj
 0001:000739d0       __c_exit                   100749d0 f   libucrtd:exit.obj
 0001:000739f0       __cexit                    100749f0 f   libucrtd:exit.obj
 0001:00073a10       __exit                     10074a10 f   libucrtd:exit.obj
 0001:00073a30       __is_c_termination_complete 10074a30 f   libucrtd:exit.obj
 0001:00073a50       __register_thread_local_exe_atexit_callback 10074a50 f   libucrtd:exit.obj
 0001:00073aa0       _exit                      10074aa0 f   libucrtd:exit.obj
 0001:00073ac0       _quick_exit                10074ac0 f   libucrtd:exit.obj
 0001:00073ae0       ??$?RE@__crt_internal_free_policy@@QBEXQBE@Z 10074ae0 f i libucrtd:argv_parsing.obj
 0001:00073b10       ??$?RPAD@__crt_internal_free_policy@@QBEXQBQAD@Z 10074b10 f i libucrtd:argv_parsing.obj
 0001:00073b40       ??$?RPA_W@__crt_internal_free_policy@@QBEXQBQA_W@Z 10074b40 f i libucrtd:argv_parsing.obj
 0001:000741f0       ??$get_module_file_name@$$TAAY0BAF@DH@?$__crt_char_traits@D@@SAK$$QA$$TAAY0BAF@D$$QAH@Z 100751f0 f i libucrtd:argv_parsing.obj
 0001:00074220       ??$get_module_file_name@$$TAAY0BAF@_WH@?$__crt_char_traits@_W@@SAK$$QA$$TAAY0BAF@_W$$QAH@Z 10075220 f i libucrtd:argv_parsing.obj
 0001:00074b10       ??$set_program_name@PAD@?$__crt_char_traits@D@@SAX$$QAPAD@Z 10075b10 f i libucrtd:argv_parsing.obj
 0001:00074b30       ??$set_program_name@PA_W@?$__crt_char_traits@_W@@SAX$$QAPA_W@Z 10075b30 f i libucrtd:argv_parsing.obj
 0001:00074b90       ??0?$__crt_unique_heap_ptr@EU__crt_internal_free_policy@@@@QAE@QAE@Z 10075b90 f i libucrtd:argv_parsing.obj
 0001:00074bb0       ??0?$__crt_unique_heap_ptr@PADU__crt_internal_free_policy@@@@QAE@QAPAD@Z 10075bb0 f i libucrtd:argv_parsing.obj
 0001:00074bd0       ??0?$__crt_unique_heap_ptr@PA_WU__crt_internal_free_policy@@@@QAE@QAPA_W@Z 10075bd0 f i libucrtd:argv_parsing.obj
 0001:00074bf0       ??1?$__crt_unique_heap_ptr@EU__crt_internal_free_policy@@@@QAE@XZ 10075bf0 f i libucrtd:argv_parsing.obj
 0001:00074c10       ??1?$__crt_unique_heap_ptr@PADU__crt_internal_free_policy@@@@QAE@XZ 10075c10 f i libucrtd:argv_parsing.obj
 0001:00074c30       ??1?$__crt_unique_heap_ptr@PA_WU__crt_internal_free_policy@@@@QAE@XZ 10075c30 f i libucrtd:argv_parsing.obj
 0001:00074c50       ??B?$__crt_unique_heap_ptr@EU__crt_internal_free_policy@@@@QBE_NXZ 10075c50 f i libucrtd:argv_parsing.obj
 0001:00074d30       ?detach@?$__crt_unique_heap_ptr@EU__crt_internal_free_policy@@@@QAEPAEXZ 10075d30 f i libucrtd:argv_parsing.obj
 0001:00074d60       ?detach@?$__crt_unique_heap_ptr@PADU__crt_internal_free_policy@@@@QAEPAPADXZ 10075d60 f i libucrtd:argv_parsing.obj
 0001:00074d90       ?detach@?$__crt_unique_heap_ptr@PA_WU__crt_internal_free_policy@@@@QAEPAPA_WXZ 10075d90 f i libucrtd:argv_parsing.obj
 0001:00074e20       ?get@?$__crt_unique_heap_ptr@EU__crt_internal_free_policy@@@@QBEPAEXZ 10075e20 f i libucrtd:argv_parsing.obj
 0001:00074e40       ?get@?$__crt_unique_heap_ptr@PADU__crt_internal_free_policy@@@@QBEPAPADXZ 10075e40 f i libucrtd:argv_parsing.obj
 0001:00074e60       ?get@?$__crt_unique_heap_ptr@PA_WU__crt_internal_free_policy@@@@QBEPAPA_WXZ 10075e60 f i libucrtd:argv_parsing.obj
 0001:00074e80       ?get_address_of@?$__crt_unique_heap_ptr@PADU__crt_internal_free_policy@@@@QAEPAPAPADXZ 10075e80 f i libucrtd:argv_parsing.obj
 0001:00074ea0       ?get_address_of@?$__crt_unique_heap_ptr@PA_WU__crt_internal_free_policy@@@@QAEPAPAPA_WXZ 10075ea0 f i libucrtd:argv_parsing.obj
 0001:00074f00       ?is_valid@?$__crt_unique_heap_ptr@EU__crt_internal_free_policy@@@@QBE_NXZ 10075f00 f i libucrtd:argv_parsing.obj
 0001:00074f40       ?release@?$__crt_unique_heap_ptr@EU__crt_internal_free_policy@@@@QAEXXZ 10075f40 f i libucrtd:argv_parsing.obj
 0001:00074f80       ?release@?$__crt_unique_heap_ptr@PADU__crt_internal_free_policy@@@@QAEXXZ 10075f80 f i libucrtd:argv_parsing.obj
 0001:00074fc0       ?release@?$__crt_unique_heap_ptr@PA_WU__crt_internal_free_policy@@@@QAEXXZ 10075fc0 f i libucrtd:argv_parsing.obj
 0001:00075050       ___acrt_allocate_buffer_for_argv 10076050 f   libucrtd:argv_parsing.obj
 0001:00075140       __configure_narrow_argv    10076140 f   libucrtd:argv_parsing.obj
 0001:00075160       __configure_wide_argv      10076160 f   libucrtd:argv_parsing.obj
 0001:00075180       __set_pgmptr               10076180 f i libucrtd:argv_parsing.obj
 0001:000751a0       __set_wpgmptr              100761a0 f i libucrtd:argv_parsing.obj
 0001:000751b2       ??$?R_W@__crt_internal_free_policy@@QBEXQB_W@Z 100761b2 f i libucrtd:environment_initialization.obj
 0001:0007572d       ??$get_environment_from_os@$$$V@?$__crt_char_traits@D@@SAPADXZ 1007672d f i libucrtd:environment_initialization.obj
 0001:00075732       ??$get_environment_from_os@$$$V@?$__crt_char_traits@_W@@SAPA_WXZ 10076732 f i libucrtd:environment_initialization.obj
 0001:00075899       ??$set_variable_in_environment_nolock@PADH@?$__crt_char_traits@D@@SAH$$QAPAD$$QAH@Z 10076899 f i libucrtd:environment_initialization.obj
 0001:000758b7       ??$set_variable_in_environment_nolock@PA_WH@?$__crt_char_traits@_W@@SAH$$QAPA_W$$QAH@Z 100768b7 f i libucrtd:environment_initialization.obj
 0001:000758d5       ??$tcscpy_s@PADABIAAPAD@?$__crt_char_traits@D@@SAH$$QAPADABIAAPAD@Z 100768d5 f i libucrtd:environment_initialization.obj
 0001:000758fa       ??$tcscpy_s@PA_WABIAAPA_W@?$__crt_char_traits@_W@@SAH$$QAPA_WABIAAPA_W@Z 100768fa f i libucrtd:environment_initialization.obj
 0001:0007591f       ??$tcslen@AAPAD@?$__crt_char_traits@D@@SAIAAPAD@Z 1007691f f i libucrtd:environment_initialization.obj
 0001:0007593d       ??$tcslen@AAPA_W@?$__crt_char_traits@_W@@SAIAAPA_W@Z 1007693d f i libucrtd:environment_initialization.obj
 0001:00075962       ??$uninitialize@A6AXAAPAPAD@Z@?$dual_state_global@PAPAD@__crt_state_management@@QAEXA6AXAAPAPAD@Z@Z 10076962 f i libucrtd:environment_initialization.obj
 0001:000759b2       ??$uninitialize@A6AXAAPAPA_W@Z@?$dual_state_global@PAPA_W@__crt_state_management@@QAEXA6AXAAPAPA_W@Z@Z 100769b2 f i libucrtd:environment_initialization.obj
 0001:00075a44       ??0?$__crt_unique_heap_ptr@_WU__crt_internal_free_policy@@@@QAE@QA_W@Z 10076a44 f i libucrtd:environment_initialization.obj
 0001:00075a58       ??1?$__crt_unique_heap_ptr@_WU__crt_internal_free_policy@@@@QAE@XZ 10076a58 f i libucrtd:environment_initialization.obj
 0001:00075a72       ??B?$__crt_unique_heap_ptr@PADU__crt_internal_free_policy@@@@QBE_NXZ 10076a72 f i libucrtd:environment_initialization.obj
 0001:00075a7c       ??B?$__crt_unique_heap_ptr@PA_WU__crt_internal_free_policy@@@@QBE_NXZ 10076a7c f i libucrtd:environment_initialization.obj
 0001:00075a86       ??B?$__crt_unique_heap_ptr@_WU__crt_internal_free_policy@@@@QBE_NXZ 10076a86 f i libucrtd:environment_initialization.obj
 0001:00075a90       ?__crt_compute_required_transform_buffer_count@@YAIIQBD@Z 10076a90 f i libucrtd:environment_initialization.obj
 0001:00075ab0       ?__crt_compute_required_transform_buffer_count@@YAIIQB_W@Z 10076ab0 f i libucrtd:environment_initialization.obj
 0001:00075ad3       ?__crt_transform_string@@YAIIQBDQA_WI@Z 10076ad3 f i libucrtd:environment_initialization.obj
 0001:00075af7       ?__crt_transform_string@@YAIIQB_WQADI@Z 10076af7 f i libucrtd:environment_initialization.obj
 0001:00075b1f       ?detach@?$__crt_unique_heap_ptr@DU__crt_internal_free_policy@@@@QAEPADXZ 10076b1f f i libucrtd:environment_initialization.obj
 0001:00075b25       ?detach@?$__crt_unique_heap_ptr@_WU__crt_internal_free_policy@@@@QAEPA_WXZ 10076b25 f i libucrtd:environment_initialization.obj
 0001:00075b2b       ?get@?$__crt_unique_heap_ptr@_WU__crt_internal_free_policy@@@@QBEPA_WXZ 10076b2b f i libucrtd:environment_initialization.obj
 0001:00075b52       ?initialize@?$dual_state_global@PAPAD@__crt_state_management@@QAEXQAPAD@Z 10076b52 f i libucrtd:environment_initialization.obj
 0001:00075b8f       ?initialize@?$dual_state_global@PAPA_W@__crt_state_management@@QAEXQAPA_W@Z 10076b8f f i libucrtd:environment_initialization.obj
 0001:00075bcc       ?is_valid@?$__crt_unique_heap_ptr@PADU__crt_internal_free_policy@@@@QBE_NXZ 10076bcc f i libucrtd:environment_initialization.obj
 0001:00075bd6       ?is_valid@?$__crt_unique_heap_ptr@PA_WU__crt_internal_free_policy@@@@QBE_NXZ 10076bd6 f i libucrtd:environment_initialization.obj
 0001:00075be0       ?is_valid@?$__crt_unique_heap_ptr@_WU__crt_internal_free_policy@@@@QBE_NXZ 10076be0 f i libucrtd:environment_initialization.obj
 0001:00075bf0       ?release@?$__crt_unique_heap_ptr@_WU__crt_internal_free_policy@@@@QAEXXZ 10076bf0 f i libucrtd:environment_initialization.obj
 0001:00075c0a       ?value@?$dual_state_global@PAPAD@__crt_state_management@@QAEAAPAPADXZ 10076c0a f i libucrtd:environment_initialization.obj
 0001:00075c0d       ?value@?$dual_state_global@PAPA_W@__crt_state_management@@QAEAAPAPA_WXZ 10076c0d f i libucrtd:environment_initialization.obj
 0001:00075c10       ___dcrt_get_or_create_narrow_environment_nolock 10076c10 f   libucrtd:environment_initialization.obj
 0001:00075c15       ___dcrt_get_or_create_wide_environment_nolock 10076c15 f   libucrtd:environment_initialization.obj
 0001:00075c1a       ___dcrt_uninitialize_environments_nolock 10076c1a f   libucrtd:environment_initialization.obj
 0001:00075c5e       ___p__environ              10076c5e f   libucrtd:environment_initialization.obj
 0001:00075c64       ___p__wenviron             10076c64 f   libucrtd:environment_initialization.obj
 0001:00075c6a       __get_initial_narrow_environment 10076c6a f   libucrtd:environment_initialization.obj
 0001:00075c83       __get_initial_wide_environment 10076c83 f   libucrtd:environment_initialization.obj
 0001:00075c9c       __initialize_narrow_environment 10076c9c f   libucrtd:environment_initialization.obj
 0001:00075ca1       __initialize_wide_environment 10076ca1 f   libucrtd:environment_initialization.obj
 0001:00075cb0       ??$?BP6AXXZ@__crt_fast_encoded_nullptr_t@@QBEPAP6AXXZXZ 10076cb0 f i libucrtd:onexit.obj
 0001:00075cd0       ??$?RP6AXXZ@__crt_internal_free_policy@@QBEXQBQ6AXXZ@Z 10076cd0 f i libucrtd:onexit.obj
 0001:00075d00       ??$?RV<lambda_821a00fc0e15a7fd532972332124005d>@@AAV<lambda_942beefa13ab35ff55f86422493ffd6a>@@V<lambda_3ab53bf64df1f1ff33dbc5b1929ce7a7>@@@?$__crt_seh_guarded_call@H@@QAEH$$QAV<lambda_821a00fc0e15a7fd532972332124005d>@@AAV<lambda_942beefa13ab35ff55f86422493ffd6a>@@$$QAV<lambda_3ab53bf64df1f1ff33dbc5b1929ce7a7>@@@Z 10076d00 f i libucrtd:onexit.obj
 0001:00075db0       ??$?RV<lambda_a12890e7f9ac9927a62bd0bbd5044c78>@@AAV<lambda_e971338317bfa523bb8920b43d823727>@@V<lambda_e618b16d59e79e236350cab8485990d2>@@@?$__crt_seh_guarded_call@H@@QAEH$$QAV<lambda_a12890e7f9ac9927a62bd0bbd5044c78>@@AAV<lambda_e971338317bfa523bb8920b43d823727>@@$$QAV<lambda_e618b16d59e79e236350cab8485990d2>@@@Z 10076db0 f i libucrtd:onexit.obj
 0001:00075e60       ??$__acrt_lock_and_call@V<lambda_942beefa13ab35ff55f86422493ffd6a>@@@@YAHW4__acrt_lock_id@@$$QAV<lambda_942beefa13ab35ff55f86422493ffd6a>@@@Z 10076e60 f i libucrtd:onexit.obj
 0001:00075eb0       ??$__acrt_lock_and_call@V<lambda_e971338317bfa523bb8920b43d823727>@@@@YAHW4__acrt_lock_id@@$$QAV<lambda_e971338317bfa523bb8920b43d823727>@@@Z 10076eb0 f i libucrtd:onexit.obj
 0001:00075f00       ??$__crt_fast_encode_pointer@P6AHXZ@@YAP6AHXZQ6AHXZ@Z 10076f00 f i libucrtd:onexit.obj
 0001:00076050       ??0?$__crt_unique_heap_ptr@P6AXXZU__crt_internal_free_policy@@@@QAE@QAP6AXXZ@Z 10077050 f i libucrtd:onexit.obj
 0001:00076070       ??1?$__crt_unique_heap_ptr@P6AXXZU__crt_internal_free_policy@@@@QAE@XZ 10077070 f i libucrtd:onexit.obj
 0001:000765e0       ?detach@?$__crt_unique_heap_ptr@P6AXXZU__crt_internal_free_policy@@@@QAEPAP6AXXZXZ 100775e0 f i libucrtd:onexit.obj
 0001:00076610       ?release@?$__crt_unique_heap_ptr@P6AXXZU__crt_internal_free_policy@@@@QAEXXZ 10077610 f i libucrtd:onexit.obj
 0001:00076650       __crt_at_quick_exit        10077650 f   libucrtd:onexit.obj
 0001:00076670       __crt_atexit               10077670 f   libucrtd:onexit.obj
 0001:00076690       __execute_onexit_table     10077690 f   libucrtd:onexit.obj
 0001:000766c0       __initialize_onexit_table  100776c0 f   libucrtd:onexit.obj
 0001:00076740       __register_onexit_function 10077740 f   libucrtd:onexit.obj
 0001:000769d0       ?initialize@?$dual_state_global@PAU__crt_locale_data@@@__crt_state_management@@QAEXQAU__crt_locale_data@@@Z 100779d0 f i libucrtd:initialization.obj
 0001:00076a20       ___acrt_initialize         10077a20 f   libucrtd:initialization.obj
 0001:00076a40       ___acrt_thread_attach      10077a40 f   libucrtd:initialization.obj
 0001:00076a60       ___acrt_thread_detach      10077a60 f   libucrtd:initialization.obj
 0001:00076a80       ___acrt_uninitialize       10077a80 f   libucrtd:initialization.obj
 0001:00076aa0       ___acrt_uninitialize_critical 10077aa0 f   libucrtd:initialization.obj
 0001:00076b00       __get_terminate            10077b00 f   libucrtd:terminate.obj
 0001:00076b20       _set_terminate             10077b20 f   libucrtd:terminate.obj
 0001:00076b60       _terminate                 10077b60 f   libucrtd:terminate.obj
 0001:00076c30       ??$?0ABV?$stream_output_adapter@D@__crt_stdio_output@@AB_KABQBDABQAU__crt_locale_pointers@@ABQAD@?$format_validation_base@DV?$stream_output_adapter@D@__crt_stdio_output@@@__crt_stdio_output@@IAE@ABV?$stream_output_adapter@D@1@AB_KABQBDABQAU__crt_locale_pointers@@ABQAD@Z 10077c30 f i libucrtd:output.obj
 0001:00076c70       ??$?0ABV?$stream_output_adapter@D@__crt_stdio_output@@AB_KABQBDABQAU__crt_locale_pointers@@ABQAD@?$positional_parameter_base@DV?$stream_output_adapter@D@__crt_stdio_output@@@__crt_stdio_output@@IAE@ABV?$stream_output_adapter@D@1@AB_KABQBDABQAU__crt_locale_pointers@@ABQAD@Z 10077c70 f i libucrtd:output.obj
 0001:00076d00       ??$?0ABV?$stream_output_adapter@D@__crt_stdio_output@@AB_KABQBDABQAU__crt_locale_pointers@@ABQAD@?$standard_base@DV?$stream_output_adapter@D@__crt_stdio_output@@@__crt_stdio_output@@IAE@ABV?$stream_output_adapter@D@1@AB_KABQBDABQAU__crt_locale_pointers@@ABQAD@Z 10077d00 f i libucrtd:output.obj
 0001:00076d60       ??$?0ABV?$stream_output_adapter@_W@__crt_stdio_output@@AB_KABQB_WABQAU__crt_locale_pointers@@ABQAD@?$format_validation_base@_WV?$stream_output_adapter@_W@__crt_stdio_output@@@__crt_stdio_output@@IAE@ABV?$stream_output_adapter@_W@1@AB_KABQB_WABQAU__crt_locale_pointers@@ABQAD@Z 10077d60 f i libucrtd:output.obj
 0001:00076da0       ??$?0ABV?$stream_output_adapter@_W@__crt_stdio_output@@AB_KABQB_WABQAU__crt_locale_pointers@@ABQAD@?$positional_parameter_base@_WV?$stream_output_adapter@_W@__crt_stdio_output@@@__crt_stdio_output@@IAE@ABV?$stream_output_adapter@_W@1@AB_KABQB_WABQAU__crt_locale_pointers@@ABQAD@Z 10077da0 f i libucrtd:output.obj
 0001:00076e30       ??$?0ABV?$stream_output_adapter@_W@__crt_stdio_output@@AB_KABQB_WABQAU__crt_locale_pointers@@ABQAD@?$standard_base@_WV?$stream_output_adapter@_W@__crt_stdio_output@@@__crt_stdio_output@@IAE@ABV?$stream_output_adapter@_W@1@AB_KABQB_WABQAU__crt_locale_pointers@@ABQAD@Z 10077e30 f i libucrtd:output.obj
 0001:00076e90       ??$?0ABV?$string_output_adapter@D@__crt_stdio_output@@AB_KABQBDABQAU__crt_locale_pointers@@ABQAD@?$format_validation_base@DV?$string_output_adapter@D@__crt_stdio_output@@@__crt_stdio_output@@IAE@ABV?$string_output_adapter@D@1@AB_KABQBDABQAU__crt_locale_pointers@@ABQAD@Z 10077e90 f i libucrtd:output.obj
 0001:00076ed0       ??$?0ABV?$string_output_adapter@D@__crt_stdio_output@@AB_KABQBDABQAU__crt_locale_pointers@@ABQAD@?$positional_parameter_base@DV?$string_output_adapter@D@__crt_stdio_output@@@__crt_stdio_output@@IAE@ABV?$string_output_adapter@D@1@AB_KABQBDABQAU__crt_locale_pointers@@ABQAD@Z 10077ed0 f i libucrtd:output.obj
 0001:00076f60       ??$?0ABV?$string_output_adapter@D@__crt_stdio_output@@AB_KABQBDABQAU__crt_locale_pointers@@ABQAD@?$standard_base@DV?$string_output_adapter@D@__crt_stdio_output@@@__crt_stdio_output@@IAE@ABV?$string_output_adapter@D@1@AB_KABQBDABQAU__crt_locale_pointers@@ABQAD@Z 10077f60 f i libucrtd:output.obj
 0001:00076fc0       ??$?0ABV?$string_output_adapter@_W@__crt_stdio_output@@AB_KABQB_WABQAU__crt_locale_pointers@@ABQAD@?$format_validation_base@_WV?$string_output_adapter@_W@__crt_stdio_output@@@__crt_stdio_output@@IAE@ABV?$string_output_adapter@_W@1@AB_KABQB_WABQAU__crt_locale_pointers@@ABQAD@Z 10077fc0 f i libucrtd:output.obj
 0001:00077000       ??$?0ABV?$string_output_adapter@_W@__crt_stdio_output@@AB_KABQB_WABQAU__crt_locale_pointers@@ABQAD@?$positional_parameter_base@_WV?$string_output_adapter@_W@__crt_stdio_output@@@__crt_stdio_output@@IAE@ABV?$string_output_adapter@_W@1@AB_KABQB_WABQAU__crt_locale_pointers@@ABQAD@Z 10078000 f i libucrtd:output.obj
 0001:00077090       ??$?0ABV?$string_output_adapter@_W@__crt_stdio_output@@AB_KABQB_WABQAU__crt_locale_pointers@@ABQAD@?$standard_base@_WV?$string_output_adapter@_W@__crt_stdio_output@@@__crt_stdio_output@@IAE@ABV?$string_output_adapter@_W@1@AB_KABQB_WABQAU__crt_locale_pointers@@ABQAD@Z 10078090 f i libucrtd:output.obj
 0001:000770f0       ??$?RV<lambda_2293f24e3ce1ad6fe22ccfb9dec07671>@@AAV<lambda_2565fc715a641e539f44ad02d6823606>@@V<lambda_d3217f279b832965d9ca670dc2993570>@@@?$__crt_seh_guarded_call@H@@QAEH$$QAV<lambda_2293f24e3ce1ad6fe22ccfb9dec07671>@@AAV<lambda_2565fc715a641e539f44ad02d6823606>@@$$QAV<lambda_d3217f279b832965d9ca670dc2993570>@@@Z 100780f0 f i libucrtd:output.obj
 0001:000771a0       ??$?RV<lambda_4d4ac866be0fa3c441830420fabdd2cb>@@AAV<lambda_63a10c2dc8dbb9e4dd1890be52af7c93>@@V<lambda_002af9fa0f8fe472b648c51882d4fc32>@@@?$__crt_seh_guarded_call@H@@QAEH$$QAV<lambda_4d4ac866be0fa3c441830420fabdd2cb>@@AAV<lambda_63a10c2dc8dbb9e4dd1890be52af7c93>@@$$QAV<lambda_002af9fa0f8fe472b648c51882d4fc32>@@@Z 100781a0 f i libucrtd:output.obj
 0001:00077250       ??$?RV<lambda_5be909dfbae0a631386585770cd7b676>@@AAV<lambda_e516058a9c289d98c8ca9fea99247804>@@V<lambda_afe2e0cdc5e0ecf6f0d6f5e2f8985e38>@@@?$__crt_seh_guarded_call@H@@QAEH$$QAV<lambda_5be909dfbae0a631386585770cd7b676>@@AAV<lambda_e516058a9c289d98c8ca9fea99247804>@@$$QAV<lambda_afe2e0cdc5e0ecf6f0d6f5e2f8985e38>@@@Z 10078250 f i libucrtd:output.obj
 0001:00077300       ??$?RV<lambda_823d65812123d985753d53e2a8c25d20>@@AAV<lambda_0a97c9e57da7be065955385c79108ff2>@@V<lambda_4d2973f3ad2d226f00468307185dca1b>@@@?$__crt_seh_guarded_call@H@@QAEH$$QAV<lambda_823d65812123d985753d53e2a8c25d20>@@AAV<lambda_0a97c9e57da7be065955385c79108ff2>@@$$QAV<lambda_4d2973f3ad2d226f00468307185dca1b>@@@Z 10078300 f i libucrtd:output.obj
 0001:000773b0       ??$?RV<lambda_ab9923ffb5d694ec0d78876dd103e44f>@@AAV<lambda_481dd5778c961fbcd3b60b650e9b9dc4>@@V<lambda_7923d86c9e3f319b415918ec4b39749c>@@@?$__crt_seh_guarded_call@H@@QAEH$$QAV<lambda_ab9923ffb5d694ec0d78876dd103e44f>@@AAV<lambda_481dd5778c961fbcd3b60b650e9b9dc4>@@$$QAV<lambda_7923d86c9e3f319b415918ec4b39749c>@@@Z 100783b0 f i libucrtd:output.obj
 0001:00077460       ??$?RV<lambda_db08b09ef7aa9d4f8620ce68402612bc>@@AAV<lambda_4f2c1eaeead2a5fc776db5b62ea0fb9b>@@V<lambda_3ae262bc35d4ba6a3825c4f6bcaaf95c>@@@?$__crt_seh_guarded_call@H@@QAEH$$QAV<lambda_db08b09ef7aa9d4f8620ce68402612bc>@@AAV<lambda_4f2c1eaeead2a5fc776db5b62ea0fb9b>@@$$QAV<lambda_3ae262bc35d4ba6a3825c4f6bcaaf95c>@@@Z 10078460 f i libucrtd:output.obj
 0001:00077510       ??$__acrt_lock_stream_and_call@V<lambda_0a97c9e57da7be065955385c79108ff2>@@@@YAHQAU_iobuf@@$$QAV<lambda_0a97c9e57da7be065955385c79108ff2>@@@Z 10078510 f i libucrtd:output.obj
 0001:00077560       ??$__acrt_lock_stream_and_call@V<lambda_2565fc715a641e539f44ad02d6823606>@@@@YAHQAU_iobuf@@$$QAV<lambda_2565fc715a641e539f44ad02d6823606>@@@Z 10078560 f i libucrtd:output.obj
 0001:000775b0       ??$__acrt_lock_stream_and_call@V<lambda_481dd5778c961fbcd3b60b650e9b9dc4>@@@@YAHQAU_iobuf@@$$QAV<lambda_481dd5778c961fbcd3b60b650e9b9dc4>@@@Z 100785b0 f i libucrtd:output.obj
 0001:00077600       ??$__acrt_lock_stream_and_call@V<lambda_4f2c1eaeead2a5fc776db5b62ea0fb9b>@@@@YAHQAU_iobuf@@$$QAV<lambda_4f2c1eaeead2a5fc776db5b62ea0fb9b>@@@Z 10078600 f i libucrtd:output.obj
 0001:00077650       ??$__acrt_lock_stream_and_call@V<lambda_63a10c2dc8dbb9e4dd1890be52af7c93>@@@@YAHQAU_iobuf@@$$QAV<lambda_63a10c2dc8dbb9e4dd1890be52af7c93>@@@Z 10078650 f i libucrtd:output.obj
 0001:000776a0       ??$__acrt_lock_stream_and_call@V<lambda_e516058a9c289d98c8ca9fea99247804>@@@@YAHQAU_iobuf@@$$QAV<lambda_e516058a9c289d98c8ca9fea99247804>@@@Z 100786a0 f i libucrtd:output.obj
 0001:0007af70       ??$count@D@formatting_buffer@__crt_stdio_output@@QBEIXZ 1007bf70 f i libucrtd:output.obj
 0001:0007afc0       ??$data@D@formatting_buffer@__crt_stdio_output@@QAEPADXZ 1007bfc0 f i libucrtd:output.obj
 0001:0007b010       ??$data@_W@formatting_buffer@__crt_stdio_output@@QAEPA_WXZ 1007c010 f i libucrtd:output.obj
 0001:0007b060       ??$ensure_buffer_is_big_enough@D@formatting_buffer@__crt_stdio_output@@QAE_NI@Z 1007c060 f i libucrtd:output.obj
 0001:0007b180       ??$extract_argument_from_va_list@C_J@?$positional_parameter_base@DV?$stream_output_adapter@D@__crt_stdio_output@@@__crt_stdio_output@@IAE_NAA_J@Z 1007c180 f i libucrtd:output.obj
 0001:0007b300       ??$extract_argument_from_va_list@C_J@?$positional_parameter_base@DV?$string_output_adapter@D@__crt_stdio_output@@@__crt_stdio_output@@IAE_NAA_J@Z 1007c300 f i libucrtd:output.obj
 0001:0007b480       ??$extract_argument_from_va_list@C_J@?$positional_parameter_base@_WV?$stream_output_adapter@_W@__crt_stdio_output@@@__crt_stdio_output@@IAE_NAA_J@Z 1007c480 f i libucrtd:output.obj
 0001:0007b600       ??$extract_argument_from_va_list@C_J@?$positional_parameter_base@_WV?$string_output_adapter@_W@__crt_stdio_output@@@__crt_stdio_output@@IAE_NAA_J@Z 1007c600 f i libucrtd:output.obj
 0001:0007b780       ??$extract_argument_from_va_list@C_J@?$standard_base@DV?$stream_output_adapter@D@__crt_stdio_output@@@__crt_stdio_output@@IAE_NAA_J@Z 1007c780 f i libucrtd:output.obj
 0001:0007b7c0       ??$extract_argument_from_va_list@C_J@?$standard_base@DV?$string_output_adapter@D@__crt_stdio_output@@@__crt_stdio_output@@IAE_NAA_J@Z 1007c7c0 f i libucrtd:output.obj
 0001:0007b800       ??$extract_argument_from_va_list@C_J@?$standard_base@_WV?$stream_output_adapter@_W@__crt_stdio_output@@@__crt_stdio_output@@IAE_NAA_J@Z 1007c800 f i libucrtd:output.obj
 0001:0007b840       ??$extract_argument_from_va_list@C_J@?$standard_base@_WV?$string_output_adapter@_W@__crt_stdio_output@@@__crt_stdio_output@@IAE_NAA_J@Z 1007c840 f i libucrtd:output.obj
 0001:0007b880       ??$extract_argument_from_va_list@E_J@?$positional_parameter_base@DV?$stream_output_adapter@D@__crt_stdio_output@@@__crt_stdio_output@@IAE_NAA_J@Z 1007c880 f i libucrtd:output.obj
 0001:0007ba00       ??$extract_argument_from_va_list@E_J@?$positional_parameter_base@DV?$string_output_adapter@D@__crt_stdio_output@@@__crt_stdio_output@@IAE_NAA_J@Z 1007ca00 f i libucrtd:output.obj
 0001:0007bb80       ??$extract_argument_from_va_list@E_J@?$positional_parameter_base@_WV?$stream_output_adapter@_W@__crt_stdio_output@@@__crt_stdio_output@@IAE_NAA_J@Z 1007cb80 f i libucrtd:output.obj
 0001:0007bd00       ??$extract_argument_from_va_list@E_J@?$positional_parameter_base@_WV?$string_output_adapter@_W@__crt_stdio_output@@@__crt_stdio_output@@IAE_NAA_J@Z 1007cd00 f i libucrtd:output.obj
 0001:0007be80       ??$extract_argument_from_va_list@E_J@?$standard_base@DV?$stream_output_adapter@D@__crt_stdio_output@@@__crt_stdio_output@@IAE_NAA_J@Z 1007ce80 f i libucrtd:output.obj
 0001:0007bec0       ??$extract_argument_from_va_list@E_J@?$standard_base@DV?$string_output_adapter@D@__crt_stdio_output@@@__crt_stdio_output@@IAE_NAA_J@Z 1007cec0 f i libucrtd:output.obj
 0001:0007bf00       ??$extract_argument_from_va_list@E_J@?$standard_base@_WV?$stream_output_adapter@_W@__crt_stdio_output@@@__crt_stdio_output@@IAE_NAA_J@Z 1007cf00 f i libucrtd:output.obj
 0001:0007bf40       ??$extract_argument_from_va_list@E_J@?$standard_base@_WV?$string_output_adapter@_W@__crt_stdio_output@@@__crt_stdio_output@@IAE_NAA_J@Z 1007cf40 f i libucrtd:output.obj
 0001:0007bf80       ??$extract_argument_from_va_list@F_J@?$positional_parameter_base@DV?$stream_output_adapter@D@__crt_stdio_output@@@__crt_stdio_output@@IAE_NAA_J@Z 1007cf80 f i libucrtd:output.obj
 0001:0007c100       ??$extract_argument_from_va_list@F_J@?$positional_parameter_base@DV?$string_output_adapter@D@__crt_stdio_output@@@__crt_stdio_output@@IAE_NAA_J@Z 1007d100 f i libucrtd:output.obj
 0001:0007c280       ??$extract_argument_from_va_list@F_J@?$positional_parameter_base@_WV?$stream_output_adapter@_W@__crt_stdio_output@@@__crt_stdio_output@@IAE_NAA_J@Z 1007d280 f i libucrtd:output.obj
 0001:0007c400       ??$extract_argument_from_va_list@F_J@?$positional_parameter_base@_WV?$string_output_adapter@_W@__crt_stdio_output@@@__crt_stdio_output@@IAE_NAA_J@Z 1007d400 f i libucrtd:output.obj
 0001:0007c580       ??$extract_argument_from_va_list@F_J@?$standard_base@DV?$stream_output_adapter@D@__crt_stdio_output@@@__crt_stdio_output@@IAE_NAA_J@Z 1007d580 f i libucrtd:output.obj
 0001:0007c5c0       ??$extract_argument_from_va_list@F_J@?$standard_base@DV?$string_output_adapter@D@__crt_stdio_output@@@__crt_stdio_output@@IAE_NAA_J@Z 1007d5c0 f i libucrtd:output.obj
 0001:0007c600       ??$extract_argument_from_va_list@F_J@?$standard_base@_WV?$stream_output_adapter@_W@__crt_stdio_output@@@__crt_stdio_output@@IAE_NAA_J@Z 1007d600 f i libucrtd:output.obj
 0001:0007c640       ??$extract_argument_from_va_list@F_J@?$standard_base@_WV?$string_output_adapter@_W@__crt_stdio_output@@@__crt_stdio_output@@IAE_NAA_J@Z 1007d640 f i libucrtd:output.obj
 0001:0007c680       ??$extract_argument_from_va_list@GD@?$positional_parameter_base@DV?$stream_output_adapter@D@__crt_stdio_output@@@__crt_stdio_output@@IAE_NAAD@Z 1007d680 f i libucrtd:output.obj
 0001:0007c800       ??$extract_argument_from_va_list@GD@?$positional_parameter_base@DV?$string_output_adapter@D@__crt_stdio_output@@@__crt_stdio_output@@IAE_NAAD@Z 1007d800 f i libucrtd:output.obj
 0001:0007c980       ??$extract_argument_from_va_list@GD@?$standard_base@DV?$stream_output_adapter@D@__crt_stdio_output@@@__crt_stdio_output@@IAE_NAAD@Z 1007d980 f i libucrtd:output.obj
 0001:0007c9b0       ??$extract_argument_from_va_list@GD@?$standard_base@DV?$string_output_adapter@D@__crt_stdio_output@@@__crt_stdio_output@@IAE_NAAD@Z 1007d9b0 f i libucrtd:output.obj
 0001:0007c9e0       ??$extract_argument_from_va_list@G_J@?$positional_parameter_base@DV?$stream_output_adapter@D@__crt_stdio_output@@@__crt_stdio_output@@IAE_NAA_J@Z 1007d9e0 f i libucrtd:output.obj
 0001:0007cb60       ??$extract_argument_from_va_list@G_J@?$positional_parameter_base@DV?$string_output_adapter@D@__crt_stdio_output@@@__crt_stdio_output@@IAE_NAA_J@Z 1007db60 f i libucrtd:output.obj
 0001:0007cce0       ??$extract_argument_from_va_list@G_J@?$positional_parameter_base@_WV?$stream_output_adapter@_W@__crt_stdio_output@@@__crt_stdio_output@@IAE_NAA_J@Z 1007dce0 f i libucrtd:output.obj
 0001:0007ce60       ??$extract_argument_from_va_list@G_J@?$positional_parameter_base@_WV?$string_output_adapter@_W@__crt_stdio_output@@@__crt_stdio_output@@IAE_NAA_J@Z 1007de60 f i libucrtd:output.obj
 0001:0007cfe0       ??$extract_argument_from_va_list@G_J@?$standard_base@DV?$stream_output_adapter@D@__crt_stdio_output@@@__crt_stdio_output@@IAE_NAA_J@Z 1007dfe0 f i libucrtd:output.obj
 0001:0007d020       ??$extract_argument_from_va_list@G_J@?$standard_base@DV?$string_output_adapter@D@__crt_stdio_output@@@__crt_stdio_output@@IAE_NAA_J@Z 1007e020 f i libucrtd:output.obj
 0001:0007d060       ??$extract_argument_from_va_list@G_J@?$standard_base@_WV?$stream_output_adapter@_W@__crt_stdio_output@@@__crt_stdio_output@@IAE_NAA_J@Z 1007e060 f i libucrtd:output.obj
 0001:0007d0a0       ??$extract_argument_from_va_list@G_J@?$standard_base@_WV?$string_output_adapter@_W@__crt_stdio_output@@@__crt_stdio_output@@IAE_NAA_J@Z 1007e0a0 f i libucrtd:output.obj
 0001:0007d0e0       ??$extract_argument_from_va_list@H_J@?$positional_parameter_base@DV?$stream_output_adapter@D@__crt_stdio_output@@@__crt_stdio_output@@IAE_NAA_J@Z 1007e0e0 f i libucrtd:output.obj
 0001:0007d260       ??$extract_argument_from_va_list@H_J@?$positional_parameter_base@DV?$string_output_adapter@D@__crt_stdio_output@@@__crt_stdio_output@@IAE_NAA_J@Z 1007e260 f i libucrtd:output.obj
 0001:0007d3e0       ??$extract_argument_from_va_list@H_J@?$positional_parameter_base@_WV?$stream_output_adapter@_W@__crt_stdio_output@@@__crt_stdio_output@@IAE_NAA_J@Z 1007e3e0 f i libucrtd:output.obj
 0001:0007d560       ??$extract_argument_from_va_list@H_J@?$positional_parameter_base@_WV?$string_output_adapter@_W@__crt_stdio_output@@@__crt_stdio_output@@IAE_NAA_J@Z 1007e560 f i libucrtd:output.obj
 0001:0007d6e0       ??$extract_argument_from_va_list@H_J@?$standard_base@DV?$stream_output_adapter@D@__crt_stdio_output@@@__crt_stdio_output@@IAE_NAA_J@Z 1007e6e0 f i libucrtd:output.obj
 0001:0007d720       ??$extract_argument_from_va_list@H_J@?$standard_base@DV?$string_output_adapter@D@__crt_stdio_output@@@__crt_stdio_output@@IAE_NAA_J@Z 1007e720 f i libucrtd:output.obj
 0001:0007d760       ??$extract_argument_from_va_list@H_J@?$standard_base@_WV?$stream_output_adapter@_W@__crt_stdio_output@@@__crt_stdio_output@@IAE_NAA_J@Z 1007e760 f i libucrtd:output.obj
 0001:0007d7a0       ??$extract_argument_from_va_list@H_J@?$standard_base@_WV?$string_output_adapter@_W@__crt_stdio_output@@@__crt_stdio_output@@IAE_NAA_J@Z 1007e7a0 f i libucrtd:output.obj
 0001:0007d7e0       ??$extract_argument_from_va_list@I_J@?$positional_parameter_base@DV?$stream_output_adapter@D@__crt_stdio_output@@@__crt_stdio_output@@IAE_NAA_J@Z 1007e7e0 f i libucrtd:output.obj
 0001:0007d960       ??$extract_argument_from_va_list@I_J@?$positional_parameter_base@DV?$string_output_adapter@D@__crt_stdio_output@@@__crt_stdio_output@@IAE_NAA_J@Z 1007e960 f i libucrtd:output.obj
 0001:0007dae0       ??$extract_argument_from_va_list@I_J@?$positional_parameter_base@_WV?$stream_output_adapter@_W@__crt_stdio_output@@@__crt_stdio_output@@IAE_NAA_J@Z 1007eae0 f i libucrtd:output.obj
 0001:0007dc60       ??$extract_argument_from_va_list@I_J@?$positional_parameter_base@_WV?$string_output_adapter@_W@__crt_stdio_output@@@__crt_stdio_output@@IAE_NAA_J@Z 1007ec60 f i libucrtd:output.obj
 0001:0007dde0       ??$extract_argument_from_va_list@I_J@?$standard_base@DV?$stream_output_adapter@D@__crt_stdio_output@@@__crt_stdio_output@@IAE_NAA_J@Z 1007ede0 f i libucrtd:output.obj
 0001:0007de20       ??$extract_argument_from_va_list@I_J@?$standard_base@DV?$string_output_adapter@D@__crt_stdio_output@@@__crt_stdio_output@@IAE_NAA_J@Z 1007ee20 f i libucrtd:output.obj
 0001:0007de60       ??$extract_argument_from_va_list@I_J@?$standard_base@_WV?$stream_output_adapter@_W@__crt_stdio_output@@@__crt_stdio_output@@IAE_NAA_J@Z 1007ee60 f i libucrtd:output.obj
 0001:0007dea0       ??$extract_argument_from_va_list@I_J@?$standard_base@_WV?$string_output_adapter@_W@__crt_stdio_output@@@__crt_stdio_output@@IAE_NAA_J@Z 1007eea0 f i libucrtd:output.obj
 0001:0007dee0       ??$extract_argument_from_va_list@PADPAD@?$positional_parameter_base@DV?$stream_output_adapter@D@__crt_stdio_output@@@__crt_stdio_output@@IAE_NAAPAD@Z 1007eee0 f i libucrtd:output.obj
 0001:0007e060       ??$extract_argument_from_va_list@PADPAD@?$positional_parameter_base@DV?$string_output_adapter@D@__crt_stdio_output@@@__crt_stdio_output@@IAE_NAAPAD@Z 1007f060 f i libucrtd:output.obj
 0001:0007e1e0       ??$extract_argument_from_va_list@PADPAD@?$positional_parameter_base@_WV?$stream_output_adapter@_W@__crt_stdio_output@@@__crt_stdio_output@@IAE_NAAPAD@Z 1007f1e0 f i libucrtd:output.obj
 0001:0007e360       ??$extract_argument_from_va_list@PADPAD@?$positional_parameter_base@_WV?$string_output_adapter@_W@__crt_stdio_output@@@__crt_stdio_output@@IAE_NAAPAD@Z 1007f360 f i libucrtd:output.obj
 0001:0007e4e0       ??$extract_argument_from_va_list@PADPAD@?$standard_base@DV?$stream_output_adapter@D@__crt_stdio_output@@@__crt_stdio_output@@IAE_NAAPAD@Z 1007f4e0 f i libucrtd:output.obj
 0001:0007e510       ??$extract_argument_from_va_list@PADPAD@?$standard_base@DV?$string_output_adapter@D@__crt_stdio_output@@@__crt_stdio_output@@IAE_NAAPAD@Z 1007f510 f i libucrtd:output.obj
 0001:0007e540       ??$extract_argument_from_va_list@PADPAD@?$standard_base@_WV?$stream_output_adapter@_W@__crt_stdio_output@@@__crt_stdio_output@@IAE_NAAPAD@Z 1007f540 f i libucrtd:output.obj
 0001:0007e570       ??$extract_argument_from_va_list@PADPAD@?$standard_base@_WV?$string_output_adapter@_W@__crt_stdio_output@@@__crt_stdio_output@@IAE_NAAPAD@Z 1007f570 f i libucrtd:output.obj
 0001:0007e5a0       ??$extract_argument_from_va_list@PAUansi_string@?1??type_case_Z@?$output_processor@DV?$stream_output_adapter@D@__crt_stdio_output@@V?$format_validation_base@DV?$stream_output_adapter@D@__crt_stdio_output@@@2@@__crt_stdio_output@@AAE_NXZ@PAU1?1??234@AAE_NXZ@@?$standard_base@DV?$stream_output_adapter@D@__crt_stdio_output@@@__crt_stdio_output@@IAE_NAAPAUansi_string@?1??type_case_Z@?$output_processor@DV?$stream_output_adapter@D@__crt_stdio_output@@V?$format_validation_base@DV?$stream_output_adapter@D@__crt_stdio_output@@@2@@1@AAE_NXZ@@Z 1007f5a0 f i libucrtd:output.obj
 0001:0007e5d0       ??$extract_argument_from_va_list@PAUansi_string@?1??type_case_Z@?$output_processor@DV?$stream_output_adapter@D@__crt_stdio_output@@V?$positional_parameter_base@DV?$stream_output_adapter@D@__crt_stdio_output@@@2@@__crt_stdio_output@@AAE_NXZ@PAU1?1??234@AAE_NXZ@@?$positional_parameter_base@DV?$stream_output_adapter@D@__crt_stdio_output@@@__crt_stdio_output@@IAE_NAAPAUansi_string@?1??type_case_Z@?$output_processor@DV?$stream_output_adapter@D@__crt_stdio_output@@V?$positional_parameter_base@DV?$stream_output_adapter@D@__crt_stdio_output@@@2@@1@AAE_NXZ@@Z 1007f5d0 f i libucrtd:output.obj
 0001:0007e750       ??$extract_argument_from_va_list@PAUansi_string@?1??type_case_Z@?$output_processor@DV?$stream_output_adapter@D@__crt_stdio_output@@V?$positional_parameter_base@DV?$stream_output_adapter@D@__crt_stdio_output@@@2@@__crt_stdio_output@@AAE_NXZ@PAU1?1??234@AAE_NXZ@@?$standard_base@DV?$stream_output_adapter@D@__crt_stdio_output@@@__crt_stdio_output@@IAE_NAAPAUansi_string@?1??type_case_Z@?$output_processor@DV?$stream_output_adapter@D@__crt_stdio_output@@V?$positional_parameter_base@DV?$stream_output_adapter@D@__crt_stdio_output@@@2@@1@AAE_NXZ@@Z 1007f750 f i libucrtd:output.obj
 0001:0007e780       ??$extract_argument_from_va_list@PAUansi_string@?1??type_case_Z@?$output_processor@DV?$stream_output_adapter@D@__crt_stdio_output@@V?$standard_base@DV?$stream_output_adapter@D@__crt_stdio_output@@@2@@__crt_stdio_output@@AAE_NXZ@PAU1?1??234@AAE_NXZ@@?$standard_base@DV?$stream_output_adapter@D@__crt_stdio_output@@@__crt_stdio_output@@IAE_NAAPAUansi_string@?1??type_case_Z@?$output_processor@DV?$stream_output_adapter@D@__crt_stdio_output@@V?$standard_base@DV?$stream_output_adapter@D@__crt_stdio_output@@@2@@1@AAE_NXZ@@Z 1007f780 f i libucrtd:output.obj
 0001:0007e7b0       ??$extract_argument_from_va_list@PAUansi_string@?1??type_case_Z@?$output_processor@DV?$string_output_adapter@D@__crt_stdio_output@@V?$format_validation_base@DV?$string_output_adapter@D@__crt_stdio_output@@@2@@__crt_stdio_output@@AAE_NXZ@PAU1?1??234@AAE_NXZ@@?$standard_base@DV?$string_output_adapter@D@__crt_stdio_output@@@__crt_stdio_output@@IAE_NAAPAUansi_string@?1??type_case_Z@?$output_processor@DV?$string_output_adapter@D@__crt_stdio_output@@V?$format_validation_base@DV?$string_output_adapter@D@__crt_stdio_output@@@2@@1@AAE_NXZ@@Z 1007f7b0 f i libucrtd:output.obj
 0001:0007e7e0       ??$extract_argument_from_va_list@PAUansi_string@?1??type_case_Z@?$output_processor@DV?$string_output_adapter@D@__crt_stdio_output@@V?$positional_parameter_base@DV?$string_output_adapter@D@__crt_stdio_output@@@2@@__crt_stdio_output@@AAE_NXZ@PAU1?1??234@AAE_NXZ@@?$positional_parameter_base@DV?$string_output_adapter@D@__crt_stdio_output@@@__crt_stdio_output@@IAE_NAAPAUansi_string@?1??type_case_Z@?$output_processor@DV?$string_output_adapter@D@__crt_stdio_output@@V?$positional_parameter_base@DV?$string_output_adapter@D@__crt_stdio_output@@@2@@1@AAE_NXZ@@Z 1007f7e0 f i libucrtd:output.obj
 0001:0007e960       ??$extract_argument_from_va_list@PAUansi_string@?1??type_case_Z@?$output_processor@DV?$string_output_adapter@D@__crt_stdio_output@@V?$positional_parameter_base@DV?$string_output_adapter@D@__crt_stdio_output@@@2@@__crt_stdio_output@@AAE_NXZ@PAU1?1??234@AAE_NXZ@@?$standard_base@DV?$string_output_adapter@D@__crt_stdio_output@@@__crt_stdio_output@@IAE_NAAPAUansi_string@?1??type_case_Z@?$output_processor@DV?$string_output_adapter@D@__crt_stdio_output@@V?$positional_parameter_base@DV?$string_output_adapter@D@__crt_stdio_output@@@2@@1@AAE_NXZ@@Z 1007f960 f i libucrtd:output.obj
 0001:0007e990       ??$extract_argument_from_va_list@PAUansi_string@?1??type_case_Z@?$output_processor@DV?$string_output_adapter@D@__crt_stdio_output@@V?$standard_base@DV?$string_output_adapter@D@__crt_stdio_output@@@2@@__crt_stdio_output@@AAE_NXZ@PAU1?1??234@AAE_NXZ@@?$standard_base@DV?$string_output_adapter@D@__crt_stdio_output@@@__crt_stdio_output@@IAE_NAAPAUansi_string@?1??type_case_Z@?$output_processor@DV?$string_output_adapter@D@__crt_stdio_output@@V?$standard_base@DV?$string_output_adapter@D@__crt_stdio_output@@@2@@1@AAE_NXZ@@Z 1007f990 f i libucrtd:output.obj
 0001:0007e9c0       ??$extract_argument_from_va_list@PAUansi_string@?1??type_case_Z@?$output_processor@_WV?$stream_output_adapter@_W@__crt_stdio_output@@V?$format_validation_base@_WV?$stream_output_adapter@_W@__crt_stdio_output@@@2@@__crt_stdio_output@@AAE_NXZ@PAU1?1??234@AAE_NXZ@@?$standard_base@_WV?$stream_output_adapter@_W@__crt_stdio_output@@@__crt_stdio_output@@IAE_NAAPAUansi_string@?1??type_case_Z@?$output_processor@_WV?$stream_output_adapter@_W@__crt_stdio_output@@V?$format_validation_base@_WV?$stream_output_adapter@_W@__crt_stdio_output@@@2@@1@AAE_NXZ@@Z 1007f9c0 f i libucrtd:output.obj
 0001:0007e9f0       ??$extract_argument_from_va_list@PAUansi_string@?1??type_case_Z@?$output_processor@_WV?$stream_output_adapter@_W@__crt_stdio_output@@V?$positional_parameter_base@_WV?$stream_output_adapter@_W@__crt_stdio_output@@@2@@__crt_stdio_output@@AAE_NXZ@PAU1?1??234@AAE_NXZ@@?$positional_parameter_base@_WV?$stream_output_adapter@_W@__crt_stdio_output@@@__crt_stdio_output@@IAE_NAAPAUansi_string@?1??type_case_Z@?$output_processor@_WV?$stream_output_adapter@_W@__crt_stdio_output@@V?$positional_parameter_base@_WV?$stream_output_adapter@_W@__crt_stdio_output@@@2@@1@AAE_NXZ@@Z 1007f9f0 f i libucrtd:output.obj
 0001:0007eb70       ??$extract_argument_from_va_list@PAUansi_string@?1??type_case_Z@?$output_processor@_WV?$stream_output_adapter@_W@__crt_stdio_output@@V?$positional_parameter_base@_WV?$stream_output_adapter@_W@__crt_stdio_output@@@2@@__crt_stdio_output@@AAE_NXZ@PAU1?1??234@AAE_NXZ@@?$standard_base@_WV?$stream_output_adapter@_W@__crt_stdio_output@@@__crt_stdio_output@@IAE_NAAPAUansi_string@?1??type_case_Z@?$output_processor@_WV?$stream_output_adapter@_W@__crt_stdio_output@@V?$positional_parameter_base@_WV?$stream_output_adapter@_W@__crt_stdio_output@@@2@@1@AAE_NXZ@@Z 1007fb70 f i libucrtd:output.obj
 0001:0007eba0       ??$extract_argument_from_va_list@PAUansi_string@?1??type_case_Z@?$output_processor@_WV?$stream_output_adapter@_W@__crt_stdio_output@@V?$standard_base@_WV?$stream_output_adapter@_W@__crt_stdio_output@@@2@@__crt_stdio_output@@AAE_NXZ@PAU1?1??234@AAE_NXZ@@?$standard_base@_WV?$stream_output_adapter@_W@__crt_stdio_output@@@__crt_stdio_output@@IAE_NAAPAUansi_string@?1??type_case_Z@?$output_processor@_WV?$stream_output_adapter@_W@__crt_stdio_output@@V?$standard_base@_WV?$stream_output_adapter@_W@__crt_stdio_output@@@2@@1@AAE_NXZ@@Z 1007fba0 f i libucrtd:output.obj
 0001:0007ebd0       ??$extract_argument_from_va_list@PAUansi_string@?1??type_case_Z@?$output_processor@_WV?$string_output_adapter@_W@__crt_stdio_output@@V?$format_validation_base@_WV?$string_output_adapter@_W@__crt_stdio_output@@@2@@__crt_stdio_output@@AAE_NXZ@PAU1?1??234@AAE_NXZ@@?$standard_base@_WV?$string_output_adapter@_W@__crt_stdio_output@@@__crt_stdio_output@@IAE_NAAPAUansi_string@?1??type_case_Z@?$output_processor@_WV?$string_output_adapter@_W@__crt_stdio_output@@V?$format_validation_base@_WV?$string_output_adapter@_W@__crt_stdio_output@@@2@@1@AAE_NXZ@@Z 1007fbd0 f i libucrtd:output.obj
 0001:0007ec00       ??$extract_argument_from_va_list@PAUansi_string@?1??type_case_Z@?$output_processor@_WV?$string_output_adapter@_W@__crt_stdio_output@@V?$positional_parameter_base@_WV?$string_output_adapter@_W@__crt_stdio_output@@@2@@__crt_stdio_output@@AAE_NXZ@PAU1?1??234@AAE_NXZ@@?$positional_parameter_base@_WV?$string_output_adapter@_W@__crt_stdio_output@@@__crt_stdio_output@@IAE_NAAPAUansi_string@?1??type_case_Z@?$output_processor@_WV?$string_output_adapter@_W@__crt_stdio_output@@V?$positional_parameter_base@_WV?$string_output_adapter@_W@__crt_stdio_output@@@2@@1@AAE_NXZ@@Z 1007fc00 f i libucrtd:output.obj
 0001:0007ed80       ??$extract_argument_from_va_list@PAUansi_string@?1??type_case_Z@?$output_processor@_WV?$string_output_adapter@_W@__crt_stdio_output@@V?$positional_parameter_base@_WV?$string_output_adapter@_W@__crt_stdio_output@@@2@@__crt_stdio_output@@AAE_NXZ@PAU1?1??234@AAE_NXZ@@?$standard_base@_WV?$string_output_adapter@_W@__crt_stdio_output@@@__crt_stdio_output@@IAE_NAAPAUansi_string@?1??type_case_Z@?$output_processor@_WV?$string_output_adapter@_W@__crt_stdio_output@@V?$positional_parameter_base@_WV?$string_output_adapter@_W@__crt_stdio_output@@@2@@1@AAE_NXZ@@Z 1007fd80 f i libucrtd:output.obj
 0001:0007edb0       ??$extract_argument_from_va_list@PAUansi_string@?1??type_case_Z@?$output_processor@_WV?$string_output_adapter@_W@__crt_stdio_output@@V?$standard_base@_WV?$string_output_adapter@_W@__crt_stdio_output@@@2@@__crt_stdio_output@@AAE_NXZ@PAU1?1??234@AAE_NXZ@@?$standard_base@_WV?$string_output_adapter@_W@__crt_stdio_output@@@__crt_stdio_output@@IAE_NAAPAUansi_string@?1??type_case_Z@?$output_processor@_WV?$string_output_adapter@_W@__crt_stdio_output@@V?$standard_base@_WV?$string_output_adapter@_W@__crt_stdio_output@@@2@@1@AAE_NXZ@@Z 1007fdb0 f i libucrtd:output.obj
 0001:0007ede0       ??$extract_argument_from_va_list@PAXPAX@?$positional_parameter_base@DV?$stream_output_adapter@D@__crt_stdio_output@@@__crt_stdio_output@@IAE_NAAPAX@Z 1007fde0 f i libucrtd:output.obj
 0001:0007ef60       ??$extract_argument_from_va_list@PAXPAX@?$positional_parameter_base@DV?$string_output_adapter@D@__crt_stdio_output@@@__crt_stdio_output@@IAE_NAAPAX@Z 1007ff60 f i libucrtd:output.obj
 0001:0007f0e0       ??$extract_argument_from_va_list@PAXPAX@?$positional_parameter_base@_WV?$stream_output_adapter@_W@__crt_stdio_output@@@__crt_stdio_output@@IAE_NAAPAX@Z 100800e0 f i libucrtd:output.obj
 0001:0007f260       ??$extract_argument_from_va_list@PAXPAX@?$positional_parameter_base@_WV?$string_output_adapter@_W@__crt_stdio_output@@@__crt_stdio_output@@IAE_NAAPAX@Z 10080260 f i libucrtd:output.obj
 0001:0007f3e0       ??$extract_argument_from_va_list@PAXPAX@?$standard_base@DV?$stream_output_adapter@D@__crt_stdio_output@@@__crt_stdio_output@@IAE_NAAPAX@Z 100803e0 f i libucrtd:output.obj
 0001:0007f410       ??$extract_argument_from_va_list@PAXPAX@?$standard_base@DV?$string_output_adapter@D@__crt_stdio_output@@@__crt_stdio_output@@IAE_NAAPAX@Z 10080410 f i libucrtd:output.obj
 0001:0007f440       ??$extract_argument_from_va_list@PAXPAX@?$standard_base@_WV?$stream_output_adapter@_W@__crt_stdio_output@@@__crt_stdio_output@@IAE_NAAPAX@Z 10080440 f i libucrtd:output.obj
 0001:0007f470       ??$extract_argument_from_va_list@PAXPAX@?$standard_base@_WV?$string_output_adapter@_W@__crt_stdio_output@@@__crt_stdio_output@@IAE_NAAPAX@Z 10080470 f i libucrtd:output.obj
 0001:0007f4a0       ??$extract_argument_from_va_list@U_CRT_DOUBLE@@U1@@?$positional_parameter_base@DV?$stream_output_adapter@D@__crt_stdio_output@@@__crt_stdio_output@@IAE_NAAU_CRT_DOUBLE@@@Z 100804a0 f i libucrtd:output.obj
 0001:0007f650       ??$extract_argument_from_va_list@U_CRT_DOUBLE@@U1@@?$positional_parameter_base@DV?$string_output_adapter@D@__crt_stdio_output@@@__crt_stdio_output@@IAE_NAAU_CRT_DOUBLE@@@Z 10080650 f i libucrtd:output.obj
 0001:0007f800       ??$extract_argument_from_va_list@U_CRT_DOUBLE@@U1@@?$positional_parameter_base@_WV?$stream_output_adapter@_W@__crt_stdio_output@@@__crt_stdio_output@@IAE_NAAU_CRT_DOUBLE@@@Z 10080800 f i libucrtd:output.obj
 0001:0007f9b0       ??$extract_argument_from_va_list@U_CRT_DOUBLE@@U1@@?$positional_parameter_base@_WV?$string_output_adapter@_W@__crt_stdio_output@@@__crt_stdio_output@@IAE_NAAU_CRT_DOUBLE@@@Z 100809b0 f i libucrtd:output.obj
 0001:0007fb60       ??$extract_argument_from_va_list@U_CRT_DOUBLE@@U1@@?$standard_base@DV?$stream_output_adapter@D@__crt_stdio_output@@@__crt_stdio_output@@IAE_NAAU_CRT_DOUBLE@@@Z 10080b60 f i libucrtd:output.obj
 0001:0007fbc0       ??$extract_argument_from_va_list@U_CRT_DOUBLE@@U1@@?$standard_base@DV?$string_output_adapter@D@__crt_stdio_output@@@__crt_stdio_output@@IAE_NAAU_CRT_DOUBLE@@@Z 10080bc0 f i libucrtd:output.obj
 0001:0007fc20       ??$extract_argument_from_va_list@U_CRT_DOUBLE@@U1@@?$standard_base@_WV?$stream_output_adapter@_W@__crt_stdio_output@@@__crt_stdio_output@@IAE_NAAU_CRT_DOUBLE@@@Z 10080c20 f i libucrtd:output.obj
 0001:0007fc80       ??$extract_argument_from_va_list@U_CRT_DOUBLE@@U1@@?$standard_base@_WV?$string_output_adapter@_W@__crt_stdio_output@@@__crt_stdio_output@@IAE_NAAU_CRT_DOUBLE@@@Z 10080c80 f i libucrtd:output.obj
 0001:0007fce0       ??$extract_argument_from_va_list@_J_J@?$positional_parameter_base@DV?$stream_output_adapter@D@__crt_stdio_output@@@__crt_stdio_output@@IAE_NAA_J@Z 10080ce0 f i libucrtd:output.obj
 0001:0007fe60       ??$extract_argument_from_va_list@_J_J@?$positional_parameter_base@DV?$string_output_adapter@D@__crt_stdio_output@@@__crt_stdio_output@@IAE_NAA_J@Z 10080e60 f i libucrtd:output.obj
 0001:0007ffe0       ??$extract_argument_from_va_list@_J_J@?$positional_parameter_base@_WV?$stream_output_adapter@_W@__crt_stdio_output@@@__crt_stdio_output@@IAE_NAA_J@Z 10080fe0 f i libucrtd:output.obj
 0001:00080160       ??$extract_argument_from_va_list@_J_J@?$positional_parameter_base@_WV?$string_output_adapter@_W@__crt_stdio_output@@@__crt_stdio_output@@IAE_NAA_J@Z 10081160 f i libucrtd:output.obj
 0001:000802e0       ??$extract_argument_from_va_list@_J_J@?$standard_base@DV?$stream_output_adapter@D@__crt_stdio_output@@@__crt_stdio_output@@IAE_NAA_J@Z 100812e0 f i libucrtd:output.obj
 0001:00080320       ??$extract_argument_from_va_list@_J_J@?$standard_base@DV?$string_output_adapter@D@__crt_stdio_output@@@__crt_stdio_output@@IAE_NAA_J@Z 10081320 f i libucrtd:output.obj
 0001:00080360       ??$extract_argument_from_va_list@_J_J@?$standard_base@_WV?$stream_output_adapter@_W@__crt_stdio_output@@@__crt_stdio_output@@IAE_NAA_J@Z 10081360 f i libucrtd:output.obj
 0001:000803a0       ??$extract_argument_from_va_list@_J_J@?$standard_base@_WV?$string_output_adapter@_W@__crt_stdio_output@@@__crt_stdio_output@@IAE_NAA_J@Z 100813a0 f i libucrtd:output.obj
 0001:000803e0       ??$extract_argument_from_va_list@_K_J@?$positional_parameter_base@DV?$stream_output_adapter@D@__crt_stdio_output@@@__crt_stdio_output@@IAE_NAA_J@Z 100813e0 f i libucrtd:output.obj
 0001:00080560       ??$extract_argument_from_va_list@_K_J@?$positional_parameter_base@DV?$string_output_adapter@D@__crt_stdio_output@@@__crt_stdio_output@@IAE_NAA_J@Z 10081560 f i libucrtd:output.obj
 0001:000806e0       ??$extract_argument_from_va_list@_K_J@?$positional_parameter_base@_WV?$stream_output_adapter@_W@__crt_stdio_output@@@__crt_stdio_output@@IAE_NAA_J@Z 100816e0 f i libucrtd:output.obj
 0001:00080860       ??$extract_argument_from_va_list@_K_J@?$positional_parameter_base@_WV?$string_output_adapter@_W@__crt_stdio_output@@@__crt_stdio_output@@IAE_NAA_J@Z 10081860 f i libucrtd:output.obj
 0001:000809e0       ??$extract_argument_from_va_list@_K_J@?$standard_base@DV?$stream_output_adapter@D@__crt_stdio_output@@@__crt_stdio_output@@IAE_NAA_J@Z 100819e0 f i libucrtd:output.obj
 0001:00080a20       ??$extract_argument_from_va_list@_K_J@?$standard_base@DV?$string_output_adapter@D@__crt_stdio_output@@@__crt_stdio_output@@IAE_NAA_J@Z 10081a20 f i libucrtd:output.obj
 0001:00080a60       ??$extract_argument_from_va_list@_K_J@?$standard_base@_WV?$stream_output_adapter@_W@__crt_stdio_output@@@__crt_stdio_output@@IAE_NAA_J@Z 10081a60 f i libucrtd:output.obj
 0001:00080aa0       ??$extract_argument_from_va_list@_K_J@?$standard_base@_WV?$string_output_adapter@_W@__crt_stdio_output@@@__crt_stdio_output@@IAE_NAA_J@Z 10081aa0 f i libucrtd:output.obj
 0001:00080ae0       ??$extract_argument_from_va_list@_W_W@?$positional_parameter_base@DV?$stream_output_adapter@D@__crt_stdio_output@@@__crt_stdio_output@@IAE_NAA_W@Z 10081ae0 f i libucrtd:output.obj
 0001:00080c60       ??$extract_argument_from_va_list@_W_W@?$positional_parameter_base@DV?$string_output_adapter@D@__crt_stdio_output@@@__crt_stdio_output@@IAE_NAA_W@Z 10081c60 f i libucrtd:output.obj
 0001:00080de0       ??$extract_argument_from_va_list@_W_W@?$positional_parameter_base@_WV?$stream_output_adapter@_W@__crt_stdio_output@@@__crt_stdio_output@@IAE_NAA_W@Z 10081de0 f i libucrtd:output.obj
 0001:00080f60       ??$extract_argument_from_va_list@_W_W@?$positional_parameter_base@_WV?$string_output_adapter@_W@__crt_stdio_output@@@__crt_stdio_output@@IAE_NAA_W@Z 10081f60 f i libucrtd:output.obj
 0001:000810e0       ??$extract_argument_from_va_list@_W_W@?$standard_base@DV?$stream_output_adapter@D@__crt_stdio_output@@@__crt_stdio_output@@IAE_NAA_W@Z 100820e0 f i libucrtd:output.obj
 0001:00081110       ??$extract_argument_from_va_list@_W_W@?$standard_base@DV?$string_output_adapter@D@__crt_stdio_output@@@__crt_stdio_output@@IAE_NAA_W@Z 10082110 f i libucrtd:output.obj
 0001:00081140       ??$extract_argument_from_va_list@_W_W@?$standard_base@_WV?$stream_output_adapter@_W@__crt_stdio_output@@@__crt_stdio_output@@IAE_NAA_W@Z 10082140 f i libucrtd:output.obj
 0001:00081170       ??$extract_argument_from_va_list@_W_W@?$standard_base@_WV?$string_output_adapter@_W@__crt_stdio_output@@@__crt_stdio_output@@IAE_NAA_W@Z 10082170 f i libucrtd:output.obj
 0001:000811a0       ??$get_parameter_type@D@?$positional_parameter_base@DV?$stream_output_adapter@D@__crt_stdio_output@@@__crt_stdio_output@@CA?AW4parameter_type@01@PAD@Z 100821a0 f i libucrtd:output.obj
 0001:000811b0       ??$get_parameter_type@D@?$positional_parameter_base@DV?$string_output_adapter@D@__crt_stdio_output@@@__crt_stdio_output@@CA?AW4parameter_type@01@PAD@Z 100821b0 f i libucrtd:output.obj
 0001:000811c0       ??$get_parameter_type@D@?$positional_parameter_base@_WV?$stream_output_adapter@_W@__crt_stdio_output@@@__crt_stdio_output@@CA?AW4parameter_type@01@PAD@Z 100821c0 f i libucrtd:output.obj
 0001:000811d0       ??$get_parameter_type@D@?$positional_parameter_base@_WV?$string_output_adapter@_W@__crt_stdio_output@@@__crt_stdio_output@@CA?AW4parameter_type@01@PAD@Z 100821d0 f i libucrtd:output.obj
 0001:000811e0       ??$get_parameter_type@Uansi_string@?1??type_case_Z@?$output_processor@DV?$stream_output_adapter@D@__crt_stdio_output@@V?$positional_parameter_base@DV?$stream_output_adapter@D@__crt_stdio_output@@@2@@__crt_stdio_output@@AAE_NXZ@@?$positional_parameter_base@DV?$stream_output_adapter@D@__crt_stdio_output@@@__crt_stdio_output@@CA?AW4parameter_type@01@PAUansi_string@?1??type_case_Z@?$output_processor@DV?$stream_output_adapter@D@__crt_stdio_output@@V?$positional_parameter_base@DV?$stream_output_adapter@D@__crt_stdio_output@@@2@@1@AAE_NXZ@@Z 100821e0 f i libucrtd:output.obj
 0001:000811f0       ??$get_parameter_type@Uansi_string@?1??type_case_Z@?$output_processor@DV?$string_output_adapter@D@__crt_stdio_output@@V?$positional_parameter_base@DV?$string_output_adapter@D@__crt_stdio_output@@@2@@__crt_stdio_output@@AAE_NXZ@@?$positional_parameter_base@DV?$string_output_adapter@D@__crt_stdio_output@@@__crt_stdio_output@@CA?AW4parameter_type@01@PAUansi_string@?1??type_case_Z@?$output_processor@DV?$string_output_adapter@D@__crt_stdio_output@@V?$positional_parameter_base@DV?$string_output_adapter@D@__crt_stdio_output@@@2@@1@AAE_NXZ@@Z 100821f0 f i libucrtd:output.obj
 0001:00081200       ??$get_parameter_type@Uansi_string@?1??type_case_Z@?$output_processor@_WV?$stream_output_adapter@_W@__crt_stdio_output@@V?$positional_parameter_base@_WV?$stream_output_adapter@_W@__crt_stdio_output@@@2@@__crt_stdio_output@@AAE_NXZ@@?$positional_parameter_base@_WV?$stream_output_adapter@_W@__crt_stdio_output@@@__crt_stdio_output@@CA?AW4parameter_type@01@PAUansi_string@?1??type_case_Z@?$output_processor@_WV?$stream_output_adapter@_W@__crt_stdio_output@@V?$positional_parameter_base@_WV?$stream_output_adapter@_W@__crt_stdio_output@@@2@@1@AAE_NXZ@@Z 10082200 f i libucrtd:output.obj
 0001:00081210       ??$get_parameter_type@Uansi_string@?1??type_case_Z@?$output_processor@_WV?$string_output_adapter@_W@__crt_stdio_output@@V?$positional_parameter_base@_WV?$string_output_adapter@_W@__crt_stdio_output@@@2@@__crt_stdio_output@@AAE_NXZ@@?$positional_parameter_base@_WV?$string_output_adapter@_W@__crt_stdio_output@@@__crt_stdio_output@@CA?AW4parameter_type@01@PAUansi_string@?1??type_case_Z@?$output_processor@_WV?$string_output_adapter@_W@__crt_stdio_output@@V?$positional_parameter_base@_WV?$string_output_adapter@_W@__crt_stdio_output@@@2@@1@AAE_NXZ@@Z 10082210 f i libucrtd:output.obj
 0001:00081220       ??$get_parameter_type@X@?$positional_parameter_base@DV?$stream_output_adapter@D@__crt_stdio_output@@@__crt_stdio_output@@CA?AW4parameter_type@01@PAX@Z 10082220 f i libucrtd:output.obj
 0001:00081230       ??$get_parameter_type@X@?$positional_parameter_base@DV?$string_output_adapter@D@__crt_stdio_output@@@__crt_stdio_output@@CA?AW4parameter_type@01@PAX@Z 10082230 f i libucrtd:output.obj
 0001:00081240       ??$get_parameter_type@X@?$positional_parameter_base@_WV?$stream_output_adapter@_W@__crt_stdio_output@@@__crt_stdio_output@@CA?AW4parameter_type@01@PAX@Z 10082240 f i libucrtd:output.obj
 0001:00081250       ??$get_parameter_type@X@?$positional_parameter_base@_WV?$string_output_adapter@_W@__crt_stdio_output@@@__crt_stdio_output@@CA?AW4parameter_type@01@PAX@Z 10082250 f i libucrtd:output.obj
 0001:00081260       ??$is_character_specifier@D@?$positional_parameter_base@DV?$stream_output_adapter@D@__crt_stdio_output@@@__crt_stdio_output@@CA_ND@Z 10082260 f i libucrtd:output.obj
 0001:000812a0       ??$is_character_specifier@D@?$positional_parameter_base@DV?$string_output_adapter@D@__crt_stdio_output@@@__crt_stdio_output@@CA_ND@Z 100822a0 f i libucrtd:output.obj
 0001:000812e0       ??$is_character_specifier@_W@?$positional_parameter_base@_WV?$stream_output_adapter@_W@__crt_stdio_output@@@__crt_stdio_output@@CA_N_W@Z 100822e0 f i libucrtd:output.obj
 0001:00081320       ??$is_character_specifier@_W@?$positional_parameter_base@_WV?$string_output_adapter@_W@__crt_stdio_output@@@__crt_stdio_output@@CA_N_W@Z 10082320 f i libucrtd:output.obj
 0001:00081360       ??$is_integral_specifier@D@?$positional_parameter_base@DV?$stream_output_adapter@D@__crt_stdio_output@@@__crt_stdio_output@@CA_ND@Z 10082360 f i libucrtd:output.obj
 0001:000813e0       ??$is_integral_specifier@D@?$positional_parameter_base@DV?$string_output_adapter@D@__crt_stdio_output@@@__crt_stdio_output@@CA_ND@Z 100823e0 f i libucrtd:output.obj
 0001:00081460       ??$is_integral_specifier@_W@?$positional_parameter_base@_WV?$stream_output_adapter@_W@__crt_stdio_output@@@__crt_stdio_output@@CA_N_W@Z 10082460 f i libucrtd:output.obj
 0001:000814e0       ??$is_integral_specifier@_W@?$positional_parameter_base@_WV?$string_output_adapter@_W@__crt_stdio_output@@@__crt_stdio_output@@CA_N_W@Z 100824e0 f i libucrtd:output.obj
 0001:00081560       ??$is_pointer_specifier@D@?$positional_parameter_base@DV?$stream_output_adapter@D@__crt_stdio_output@@@__crt_stdio_output@@CA_ND@Z 10082560 f i libucrtd:output.obj
 0001:00081590       ??$is_pointer_specifier@D@?$positional_parameter_base@DV?$string_output_adapter@D@__crt_stdio_output@@@__crt_stdio_output@@CA_ND@Z 10082590 f i libucrtd:output.obj
 0001:000815c0       ??$is_pointer_specifier@_W@?$positional_parameter_base@_WV?$stream_output_adapter@_W@__crt_stdio_output@@@__crt_stdio_output@@CA_N_W@Z 100825c0 f i libucrtd:output.obj
 0001:000815f0       ??$is_pointer_specifier@_W@?$positional_parameter_base@_WV?$string_output_adapter@_W@__crt_stdio_output@@@__crt_stdio_output@@CA_N_W@Z 100825f0 f i libucrtd:output.obj
 0001:00081620       ??$is_string_specifier@D@?$positional_parameter_base@DV?$stream_output_adapter@D@__crt_stdio_output@@@__crt_stdio_output@@CA_ND@Z 10082620 f i libucrtd:output.obj
 0001:00081660       ??$is_string_specifier@D@?$positional_parameter_base@DV?$string_output_adapter@D@__crt_stdio_output@@@__crt_stdio_output@@CA_ND@Z 10082660 f i libucrtd:output.obj
 0001:000816a0       ??$is_string_specifier@_W@?$positional_parameter_base@_WV?$stream_output_adapter@_W@__crt_stdio_output@@@__crt_stdio_output@@CA_N_W@Z 100826a0 f i libucrtd:output.obj
 0001:000816e0       ??$is_string_specifier@_W@?$positional_parameter_base@_WV?$string_output_adapter@_W@__crt_stdio_output@@@__crt_stdio_output@@CA_N_W@Z 100826e0 f i libucrtd:output.obj
 0001:00081720       ??$is_wide_character_specifier@D@__crt_stdio_output@@YA_N_KDW4length_modifier@0@@Z 10082720 f i libucrtd:output.obj
 0001:000817c0       ??$is_wide_character_specifier@_W@__crt_stdio_output@@YA_N_K_WW4length_modifier@0@@Z 100827c0 f i libucrtd:output.obj
 0001:000818b0       ??$peek_va_arg@C@__crt_stdio_output@@YACPAD@Z 100828b0 f i libucrtd:output.obj
 0001:000818d0       ??$peek_va_arg@E@__crt_stdio_output@@YAEPAD@Z 100828d0 f i libucrtd:output.obj
 0001:000818f0       ??$peek_va_arg@F@__crt_stdio_output@@YAFPAD@Z 100828f0 f i libucrtd:output.obj
 0001:00081910       ??$peek_va_arg@G@__crt_stdio_output@@YAGPAD@Z 10082910 f i libucrtd:output.obj
 0001:00081930       ??$peek_va_arg@H@__crt_stdio_output@@YAHPAD@Z 10082930 f i libucrtd:output.obj
 0001:00081950       ??$peek_va_arg@I@__crt_stdio_output@@YAIPAD@Z 10082950 f i libucrtd:output.obj
 0001:00081970       ??$peek_va_arg@PAD@__crt_stdio_output@@YAPADPAD@Z 10082970 f i libucrtd:output.obj
 0001:00081990       ??$peek_va_arg@PAUansi_string@?1??type_case_Z@?$output_processor@DV?$stream_output_adapter@D@__crt_stdio_output@@V?$positional_parameter_base@DV?$stream_output_adapter@D@__crt_stdio_output@@@2@@__crt_stdio_output@@AAE_NXZ@@__crt_stdio_output@@YAPAUansi_string@?1??type_case_Z@?$output_processor@DV?$stream_output_adapter@D@__crt_stdio_output@@V?$positional_parameter_base@DV?$stream_output_adapter@D@__crt_stdio_output@@@2@@0@AAE_NXZ@PAD@Z 10082990 f i libucrtd:output.obj
 0001:000819b0       ??$peek_va_arg@PAUansi_string@?1??type_case_Z@?$output_processor@DV?$string_output_adapter@D@__crt_stdio_output@@V?$positional_parameter_base@DV?$string_output_adapter@D@__crt_stdio_output@@@2@@__crt_stdio_output@@AAE_NXZ@@__crt_stdio_output@@YAPAUansi_string@?1??type_case_Z@?$output_processor@DV?$string_output_adapter@D@__crt_stdio_output@@V?$positional_parameter_base@DV?$string_output_adapter@D@__crt_stdio_output@@@2@@0@AAE_NXZ@PAD@Z 100829b0 f i libucrtd:output.obj
 0001:000819d0       ??$peek_va_arg@PAUansi_string@?1??type_case_Z@?$output_processor@_WV?$stream_output_adapter@_W@__crt_stdio_output@@V?$positional_parameter_base@_WV?$stream_output_adapter@_W@__crt_stdio_output@@@2@@__crt_stdio_output@@AAE_NXZ@@__crt_stdio_output@@YAPAUansi_string@?1??type_case_Z@?$output_processor@_WV?$stream_output_adapter@_W@__crt_stdio_output@@V?$positional_parameter_base@_WV?$stream_output_adapter@_W@__crt_stdio_output@@@2@@0@AAE_NXZ@PAD@Z 100829d0 f i libucrtd:output.obj
 0001:000819f0       ??$peek_va_arg@PAUansi_string@?1??type_case_Z@?$output_processor@_WV?$string_output_adapter@_W@__crt_stdio_output@@V?$positional_parameter_base@_WV?$string_output_adapter@_W@__crt_stdio_output@@@2@@__crt_stdio_output@@AAE_NXZ@@__crt_stdio_output@@YAPAUansi_string@?1??type_case_Z@?$output_processor@_WV?$string_output_adapter@_W@__crt_stdio_output@@V?$positional_parameter_base@_WV?$string_output_adapter@_W@__crt_stdio_output@@@2@@0@AAE_NXZ@PAD@Z 100829f0 f i libucrtd:output.obj
 0001:00081a10       ??$peek_va_arg@PAX@__crt_stdio_output@@YAPAXPAD@Z 10082a10 f i libucrtd:output.obj
 0001:00081a30       ??$peek_va_arg@U_CRT_DOUBLE@@@__crt_stdio_output@@YA?AU_CRT_DOUBLE@@PAD@Z 10082a30 f i libucrtd:output.obj
 0001:00081a50       ??$peek_va_arg@_J@__crt_stdio_output@@YA_JPAD@Z 10082a50 f i libucrtd:output.obj
 0001:00081a70       ??$peek_va_arg@_K@__crt_stdio_output@@YA_KPAD@Z 10082a70 f i libucrtd:output.obj
 0001:00081a90       ??$peek_va_arg@_W@__crt_stdio_output@@YA_WPAD@Z 10082a90 f i libucrtd:output.obj
 0001:00081ab0       ??$puttc_nolock@ABDPAU_iobuf@@@?$__crt_char_traits@D@@SAHABD$$QAPAU_iobuf@@@Z 10082ab0 f i libucrtd:output.obj
 0001:00081ae0       ??$puttc_nolock@AB_WPAU_iobuf@@@?$__crt_char_traits@_W@@SAGAB_W$$QAPAU_iobuf@@@Z 10082ae0 f i libucrtd:output.obj
 0001:00081b10       ??$read_va_arg@C@__crt_stdio_output@@YACAAPAD@Z 10082b10 f i libucrtd:output.obj
 0001:00081b40       ??$read_va_arg@E@__crt_stdio_output@@YAEAAPAD@Z 10082b40 f i libucrtd:output.obj
 0001:00081b70       ??$read_va_arg@F@__crt_stdio_output@@YAFAAPAD@Z 10082b70 f i libucrtd:output.obj
 0001:00081ba0       ??$read_va_arg@G@__crt_stdio_output@@YAGAAPAD@Z 10082ba0 f i libucrtd:output.obj
 0001:00081bd0       ??$read_va_arg@H@__crt_stdio_output@@YAHAAPAD@Z 10082bd0 f i libucrtd:output.obj
 0001:00081c00       ??$read_va_arg@I@__crt_stdio_output@@YAIAAPAD@Z 10082c00 f i libucrtd:output.obj
 0001:00081c30       ??$read_va_arg@PAD@__crt_stdio_output@@YAPADAAPAD@Z 10082c30 f i libucrtd:output.obj
 0001:00081c60       ??$read_va_arg@PAUansi_string@?1??type_case_Z@?$output_processor@DV?$stream_output_adapter@D@__crt_stdio_output@@V?$format_validation_base@DV?$stream_output_adapter@D@__crt_stdio_output@@@2@@__crt_stdio_output@@AAE_NXZ@@__crt_stdio_output@@YAPAUansi_string@?1??type_case_Z@?$output_processor@DV?$stream_output_adapter@D@__crt_stdio_output@@V?$format_validation_base@DV?$stream_output_adapter@D@__crt_stdio_output@@@2@@0@AAE_NXZ@AAPAD@Z 10082c60 f i libucrtd:output.obj
 0001:00081c90       ??$read_va_arg@PAUansi_string@?1??type_case_Z@?$output_processor@DV?$stream_output_adapter@D@__crt_stdio_output@@V?$positional_parameter_base@DV?$stream_output_adapter@D@__crt_stdio_output@@@2@@__crt_stdio_output@@AAE_NXZ@@__crt_stdio_output@@YAPAUansi_string@?1??type_case_Z@?$output_processor@DV?$stream_output_adapter@D@__crt_stdio_output@@V?$positional_parameter_base@DV?$stream_output_adapter@D@__crt_stdio_output@@@2@@0@AAE_NXZ@AAPAD@Z 10082c90 f i libucrtd:output.obj
 0001:00081cc0       ??$read_va_arg@PAUansi_string@?1??type_case_Z@?$output_processor@DV?$stream_output_adapter@D@__crt_stdio_output@@V?$standard_base@DV?$stream_output_adapter@D@__crt_stdio_output@@@2@@__crt_stdio_output@@AAE_NXZ@@__crt_stdio_output@@YAPAUansi_string@?1??type_case_Z@?$output_processor@DV?$stream_output_adapter@D@__crt_stdio_output@@V?$standard_base@DV?$stream_output_adapter@D@__crt_stdio_output@@@2@@0@AAE_NXZ@AAPAD@Z 10082cc0 f i libucrtd:output.obj
 0001:00081cf0       ??$read_va_arg@PAUansi_string@?1??type_case_Z@?$output_processor@DV?$string_output_adapter@D@__crt_stdio_output@@V?$format_validation_base@DV?$string_output_adapter@D@__crt_stdio_output@@@2@@__crt_stdio_output@@AAE_NXZ@@__crt_stdio_output@@YAPAUansi_string@?1??type_case_Z@?$output_processor@DV?$string_output_adapter@D@__crt_stdio_output@@V?$format_validation_base@DV?$string_output_adapter@D@__crt_stdio_output@@@2@@0@AAE_NXZ@AAPAD@Z 10082cf0 f i libucrtd:output.obj
 0001:00081d20       ??$read_va_arg@PAUansi_string@?1??type_case_Z@?$output_processor@DV?$string_output_adapter@D@__crt_stdio_output@@V?$positional_parameter_base@DV?$string_output_adapter@D@__crt_stdio_output@@@2@@__crt_stdio_output@@AAE_NXZ@@__crt_stdio_output@@YAPAUansi_string@?1??type_case_Z@?$output_processor@DV?$string_output_adapter@D@__crt_stdio_output@@V?$positional_parameter_base@DV?$string_output_adapter@D@__crt_stdio_output@@@2@@0@AAE_NXZ@AAPAD@Z 10082d20 f i libucrtd:output.obj
 0001:00081d50       ??$read_va_arg@PAUansi_string@?1??type_case_Z@?$output_processor@DV?$string_output_adapter@D@__crt_stdio_output@@V?$standard_base@DV?$string_output_adapter@D@__crt_stdio_output@@@2@@__crt_stdio_output@@AAE_NXZ@@__crt_stdio_output@@YAPAUansi_string@?1??type_case_Z@?$output_processor@DV?$string_output_adapter@D@__crt_stdio_output@@V?$standard_base@DV?$string_output_adapter@D@__crt_stdio_output@@@2@@0@AAE_NXZ@AAPAD@Z 10082d50 f i libucrtd:output.obj
 0001:00081d80       ??$read_va_arg@PAUansi_string@?1??type_case_Z@?$output_processor@_WV?$stream_output_adapter@_W@__crt_stdio_output@@V?$format_validation_base@_WV?$stream_output_adapter@_W@__crt_stdio_output@@@2@@__crt_stdio_output@@AAE_NXZ@@__crt_stdio_output@@YAPAUansi_string@?1??type_case_Z@?$output_processor@_WV?$stream_output_adapter@_W@__crt_stdio_output@@V?$format_validation_base@_WV?$stream_output_adapter@_W@__crt_stdio_output@@@2@@0@AAE_NXZ@AAPAD@Z 10082d80 f i libucrtd:output.obj
 0001:00081db0       ??$read_va_arg@PAUansi_string@?1??type_case_Z@?$output_processor@_WV?$stream_output_adapter@_W@__crt_stdio_output@@V?$positional_parameter_base@_WV?$stream_output_adapter@_W@__crt_stdio_output@@@2@@__crt_stdio_output@@AAE_NXZ@@__crt_stdio_output@@YAPAUansi_string@?1??type_case_Z@?$output_processor@_WV?$stream_output_adapter@_W@__crt_stdio_output@@V?$positional_parameter_base@_WV?$stream_output_adapter@_W@__crt_stdio_output@@@2@@0@AAE_NXZ@AAPAD@Z 10082db0 f i libucrtd:output.obj
 0001:00081de0       ??$read_va_arg@PAUansi_string@?1??type_case_Z@?$output_processor@_WV?$stream_output_adapter@_W@__crt_stdio_output@@V?$standard_base@_WV?$stream_output_adapter@_W@__crt_stdio_output@@@2@@__crt_stdio_output@@AAE_NXZ@@__crt_stdio_output@@YAPAUansi_string@?1??type_case_Z@?$output_processor@_WV?$stream_output_adapter@_W@__crt_stdio_output@@V?$standard_base@_WV?$stream_output_adapter@_W@__crt_stdio_output@@@2@@0@AAE_NXZ@AAPAD@Z 10082de0 f i libucrtd:output.obj
 0001:00081e10       ??$read_va_arg@PAUansi_string@?1??type_case_Z@?$output_processor@_WV?$string_output_adapter@_W@__crt_stdio_output@@V?$format_validation_base@_WV?$string_output_adapter@_W@__crt_stdio_output@@@2@@__crt_stdio_output@@AAE_NXZ@@__crt_stdio_output@@YAPAUansi_string@?1??type_case_Z@?$output_processor@_WV?$string_output_adapter@_W@__crt_stdio_output@@V?$format_validation_base@_WV?$string_output_adapter@_W@__crt_stdio_output@@@2@@0@AAE_NXZ@AAPAD@Z 10082e10 f i libucrtd:output.obj
 0001:00081e40       ??$read_va_arg@PAUansi_string@?1??type_case_Z@?$output_processor@_WV?$string_output_adapter@_W@__crt_stdio_output@@V?$positional_parameter_base@_WV?$string_output_adapter@_W@__crt_stdio_output@@@2@@__crt_stdio_output@@AAE_NXZ@@__crt_stdio_output@@YAPAUansi_string@?1??type_case_Z@?$output_processor@_WV?$string_output_adapter@_W@__crt_stdio_output@@V?$positional_parameter_base@_WV?$string_output_adapter@_W@__crt_stdio_output@@@2@@0@AAE_NXZ@AAPAD@Z 10082e40 f i libucrtd:output.obj
 0001:00081e70       ??$read_va_arg@PAUansi_string@?1??type_case_Z@?$output_processor@_WV?$string_output_adapter@_W@__crt_stdio_output@@V?$standard_base@_WV?$string_output_adapter@_W@__crt_stdio_output@@@2@@__crt_stdio_output@@AAE_NXZ@@__crt_stdio_output@@YAPAUansi_string@?1??type_case_Z@?$output_processor@_WV?$string_output_adapter@_W@__crt_stdio_output@@V?$standard_base@_WV?$string_output_adapter@_W@__crt_stdio_output@@@2@@0@AAE_NXZ@AAPAD@Z 10082e70 f i libucrtd:output.obj
 0001:00081ea0       ??$read_va_arg@PAX@__crt_stdio_output@@YAPAXAAPAD@Z 10082ea0 f i libucrtd:output.obj
 0001:00081ed0       ??$read_va_arg@U_CRT_DOUBLE@@@__crt_stdio_output@@YA?AU_CRT_DOUBLE@@AAPAD@Z 10082ed0 f i libucrtd:output.obj
 0001:00081f00       ??$read_va_arg@_J@__crt_stdio_output@@YA_JAAPAD@Z 10082f00 f i libucrtd:output.obj
 0001:00081f30       ??$read_va_arg@_K@__crt_stdio_output@@YA_KAAPAD@Z 10082f30 f i libucrtd:output.obj
 0001:00081f60       ??$read_va_arg@_W@__crt_stdio_output@@YA_WAAPAD@Z 10082f60 f i libucrtd:output.obj
 0001:00081f90       ??$scratch_count@D@formatting_buffer@__crt_stdio_output@@QBEIXZ 10082f90 f i libucrtd:output.obj
 0001:00081fb0       ??$scratch_data@D@formatting_buffer@__crt_stdio_output@@QAEPADXZ 10082fb0 f i libucrtd:output.obj
 0001:00082010       ??$tcstol@AAPBDPAPADH@?$__crt_char_traits@D@@SAJAAPBD$$QAPAPAD$$QAH@Z 10083010 f i libucrtd:output.obj
 0001:00082040       ??$tcstol@AAPB_WPAPA_WH@?$__crt_char_traits@_W@@SAJAAPB_W$$QAPAPA_W$$QAH@Z 10083040 f i libucrtd:output.obj
 0001:00082070       ??$tcstol@PBDPAPADH@?$__crt_char_traits@D@@SAJ$$QAPBD$$QAPAPAD$$QAH@Z 10083070 f i libucrtd:output.obj
 0001:000820a0       ??$tcstol@PB_WPAPA_WH@?$__crt_char_traits@_W@@SAJ$$QAPB_W$$QAPAPA_W$$QAH@Z 100830a0 f i libucrtd:output.obj
 0001:000820d0       ??$type_case_integer_parse_into_buffer@I@?$output_processor@DV?$stream_output_adapter@D@__crt_stdio_output@@V?$format_validation_base@DV?$stream_output_adapter@D@__crt_stdio_output@@@2@@__crt_stdio_output@@AAEXII_N@Z 100830d0 f i libucrtd:output.obj
 0001:000821d0       ??$type_case_integer_parse_into_buffer@I@?$output_processor@DV?$stream_output_adapter@D@__crt_stdio_output@@V?$positional_parameter_base@DV?$stream_output_adapter@D@__crt_stdio_output@@@2@@__crt_stdio_output@@AAEXII_N@Z 100831d0 f i libucrtd:output.obj
 0001:000822d0       ??$type_case_integer_parse_into_buffer@I@?$output_processor@DV?$stream_output_adapter@D@__crt_stdio_output@@V?$standard_base@DV?$stream_output_adapter@D@__crt_stdio_output@@@2@@__crt_stdio_output@@AAEXII_N@Z 100832d0 f i libucrtd:output.obj
 0001:000823d0       ??$type_case_integer_parse_into_buffer@I@?$output_processor@DV?$string_output_adapter@D@__crt_stdio_output@@V?$format_validation_base@DV?$string_output_adapter@D@__crt_stdio_output@@@2@@__crt_stdio_output@@AAEXII_N@Z 100833d0 f i libucrtd:output.obj
 0001:000824d0       ??$type_case_integer_parse_into_buffer@I@?$output_processor@DV?$string_output_adapter@D@__crt_stdio_output@@V?$positional_parameter_base@DV?$string_output_adapter@D@__crt_stdio_output@@@2@@__crt_stdio_output@@AAEXII_N@Z 100834d0 f i libucrtd:output.obj
 0001:000825d0       ??$type_case_integer_parse_into_buffer@I@?$output_processor@DV?$string_output_adapter@D@__crt_stdio_output@@V?$standard_base@DV?$string_output_adapter@D@__crt_stdio_output@@@2@@__crt_stdio_output@@AAEXII_N@Z 100835d0 f i libucrtd:output.obj
 0001:000826d0       ??$type_case_integer_parse_into_buffer@I@?$output_processor@_WV?$stream_output_adapter@_W@__crt_stdio_output@@V?$format_validation_base@_WV?$stream_output_adapter@_W@__crt_stdio_output@@@2@@__crt_stdio_output@@AAEXII_N@Z 100836d0 f i libucrtd:output.obj
 0001:000827e0       ??$type_case_integer_parse_into_buffer@I@?$output_processor@_WV?$stream_output_adapter@_W@__crt_stdio_output@@V?$positional_parameter_base@_WV?$stream_output_adapter@_W@__crt_stdio_output@@@2@@__crt_stdio_output@@AAEXII_N@Z 100837e0 f i libucrtd:output.obj
 0001:000828f0       ??$type_case_integer_parse_into_buffer@I@?$output_processor@_WV?$stream_output_adapter@_W@__crt_stdio_output@@V?$standard_base@_WV?$stream_output_adapter@_W@__crt_stdio_output@@@2@@__crt_stdio_output@@AAEXII_N@Z 100838f0 f i libucrtd:output.obj
 0001:00082a00       ??$type_case_integer_parse_into_buffer@I@?$output_processor@_WV?$string_output_adapter@_W@__crt_stdio_output@@V?$format_validation_base@_WV?$string_output_adapter@_W@__crt_stdio_output@@@2@@__crt_stdio_output@@AAEXII_N@Z 10083a00 f i libucrtd:output.obj
 0001:00082b10       ??$type_case_integer_parse_into_buffer@I@?$output_processor@_WV?$string_output_adapter@_W@__crt_stdio_output@@V?$positional_parameter_base@_WV?$string_output_adapter@_W@__crt_stdio_output@@@2@@__crt_stdio_output@@AAEXII_N@Z 10083b10 f i libucrtd:output.obj
 0001:00082c20       ??$type_case_integer_parse_into_buffer@I@?$output_processor@_WV?$string_output_adapter@_W@__crt_stdio_output@@V?$standard_base@_WV?$string_output_adapter@_W@__crt_stdio_output@@@2@@__crt_stdio_output@@AAEXII_N@Z 10083c20 f i libucrtd:output.obj
 0001:00082d30       ??$type_case_integer_parse_into_buffer@_K@?$output_processor@DV?$stream_output_adapter@D@__crt_stdio_output@@V?$format_validation_base@DV?$stream_output_adapter@D@__crt_stdio_output@@@2@@__crt_stdio_output@@AAEX_KI_N@Z 10083d30 f i libucrtd:output.obj
 0001:00082e60       ??$type_case_integer_parse_into_buffer@_K@?$output_processor@DV?$stream_output_adapter@D@__crt_stdio_output@@V?$positional_parameter_base@DV?$stream_output_adapter@D@__crt_stdio_output@@@2@@__crt_stdio_output@@AAEX_KI_N@Z 10083e60 f i libucrtd:output.obj
 0001:00082f90       ??$type_case_integer_parse_into_buffer@_K@?$output_processor@DV?$stream_output_adapter@D@__crt_stdio_output@@V?$standard_base@DV?$stream_output_adapter@D@__crt_stdio_output@@@2@@__crt_stdio_output@@AAEX_KI_N@Z 10083f90 f i libucrtd:output.obj
 0001:000830c0       ??$type_case_integer_parse_into_buffer@_K@?$output_processor@DV?$string_output_adapter@D@__crt_stdio_output@@V?$format_validation_base@DV?$string_output_adapter@D@__crt_stdio_output@@@2@@__crt_stdio_output@@AAEX_KI_N@Z 100840c0 f i libucrtd:output.obj
 0001:000831f0       ??$type_case_integer_parse_into_buffer@_K@?$output_processor@DV?$string_output_adapter@D@__crt_stdio_output@@V?$positional_parameter_base@DV?$string_output_adapter@D@__crt_stdio_output@@@2@@__crt_stdio_output@@AAEX_KI_N@Z 100841f0 f i libucrtd:output.obj
 0001:00083320       ??$type_case_integer_parse_into_buffer@_K@?$output_processor@DV?$string_output_adapter@D@__crt_stdio_output@@V?$standard_base@DV?$string_output_adapter@D@__crt_stdio_output@@@2@@__crt_stdio_output@@AAEX_KI_N@Z 10084320 f i libucrtd:output.obj
 0001:00083450       ??$type_case_integer_parse_into_buffer@_K@?$output_processor@_WV?$stream_output_adapter@_W@__crt_stdio_output@@V?$format_validation_base@_WV?$stream_output_adapter@_W@__crt_stdio_output@@@2@@__crt_stdio_output@@AAEX_KI_N@Z 10084450 f i libucrtd:output.obj
 0001:00083590       ??$type_case_integer_parse_into_buffer@_K@?$output_processor@_WV?$stream_output_adapter@_W@__crt_stdio_output@@V?$positional_parameter_base@_WV?$stream_output_adapter@_W@__crt_stdio_output@@@2@@__crt_stdio_output@@AAEX_KI_N@Z 10084590 f i libucrtd:output.obj
 0001:000836d0       ??$type_case_integer_parse_into_buffer@_K@?$output_processor@_WV?$stream_output_adapter@_W@__crt_stdio_output@@V?$standard_base@_WV?$stream_output_adapter@_W@__crt_stdio_output@@@2@@__crt_stdio_output@@AAEX_KI_N@Z 100846d0 f i libucrtd:output.obj
 0001:00083810       ??$type_case_integer_parse_into_buffer@_K@?$output_processor@_WV?$string_output_adapter@_W@__crt_stdio_output@@V?$format_validation_base@_WV?$string_output_adapter@_W@__crt_stdio_output@@@2@@__crt_stdio_output@@AAEX_KI_N@Z 10084810 f i libucrtd:output.obj
 0001:00083950       ??$type_case_integer_parse_into_buffer@_K@?$output_processor@_WV?$string_output_adapter@_W@__crt_stdio_output@@V?$positional_parameter_base@_WV?$string_output_adapter@_W@__crt_stdio_output@@@2@@__crt_stdio_output@@AAEX_KI_N@Z 10084950 f i libucrtd:output.obj
 0001:00083a90       ??$type_case_integer_parse_into_buffer@_K@?$output_processor@_WV?$string_output_adapter@_W@__crt_stdio_output@@V?$standard_base@_WV?$string_output_adapter@_W@__crt_stdio_output@@@2@@__crt_stdio_output@@AAEX_KI_N@Z 10084a90 f i libucrtd:output.obj
 0001:00083bd0       ??$write_multiple_characters@V?$stream_output_adapter@D@__crt_stdio_output@@D@__crt_stdio_output@@YAXABV?$stream_output_adapter@D@0@DHQAH@Z 10084bd0 f i libucrtd:output.obj
 0001:00083c30       ??$write_multiple_characters@V?$stream_output_adapter@_W@__crt_stdio_output@@D@__crt_stdio_output@@YAXABV?$stream_output_adapter@_W@0@DHQAH@Z 10084c30 f i libucrtd:output.obj
 0001:00083c90       ??$write_multiple_characters@V?$string_output_adapter@D@__crt_stdio_output@@D@__crt_stdio_output@@YAXABV?$string_output_adapter@D@0@DHQAH@Z 10084c90 f i libucrtd:output.obj
 0001:00083cf0       ??$write_multiple_characters@V?$string_output_adapter@_W@__crt_stdio_output@@D@__crt_stdio_output@@YAXABV?$string_output_adapter@_W@0@DHQAH@Z 10084cf0 f i libucrtd:output.obj
 0001:00084170       ??0?$common_data@D@__crt_stdio_output@@IAE@XZ 10085170 f i libucrtd:output.obj
 0001:00084240       ??0?$common_data@_W@__crt_stdio_output@@IAE@XZ 10085240 f i libucrtd:output.obj
 0001:00084310       ??0?$output_adapter_data@DV?$stream_output_adapter@D@__crt_stdio_output@@@__crt_stdio_output@@IAE@ABV?$stream_output_adapter@D@1@_KQBDQAU__crt_locale_pointers@@QAD@Z 10085310 f i libucrtd:output.obj
 0001:00084380       ??0?$output_adapter_data@DV?$string_output_adapter@D@__crt_stdio_output@@@__crt_stdio_output@@IAE@ABV?$string_output_adapter@D@1@_KQBDQAU__crt_locale_pointers@@QAD@Z 10085380 f i libucrtd:output.obj
 0001:000843f0       ??0?$output_adapter_data@_WV?$stream_output_adapter@_W@__crt_stdio_output@@@__crt_stdio_output@@IAE@ABV?$stream_output_adapter@_W@1@_KQB_WQAU__crt_locale_pointers@@QAD@Z 100853f0 f i libucrtd:output.obj
 0001:00084460       ??0?$output_adapter_data@_WV?$string_output_adapter@_W@__crt_stdio_output@@@__crt_stdio_output@@IAE@ABV?$string_output_adapter@_W@1@_KQB_WQAU__crt_locale_pointers@@QAD@Z 10085460 f i libucrtd:output.obj
 0001:000844d0       ??0?$output_processor@DV?$stream_output_adapter@D@__crt_stdio_output@@V?$format_validation_base@DV?$stream_output_adapter@D@__crt_stdio_output@@@2@@__crt_stdio_output@@QAE@ABV?$stream_output_adapter@D@1@_KQBDQAU__crt_locale_pointers@@QAD@Z 100854d0 f i libucrtd:output.obj
 0001:00084520       ??0?$output_processor@DV?$stream_output_adapter@D@__crt_stdio_output@@V?$positional_parameter_base@DV?$stream_output_adapter@D@__crt_stdio_output@@@2@@__crt_stdio_output@@QAE@ABV?$stream_output_adapter@D@1@_KQBDQAU__crt_locale_pointers@@QAD@Z 10085520 f i libucrtd:output.obj
 0001:00084570       ??0?$output_processor@DV?$stream_output_adapter@D@__crt_stdio_output@@V?$standard_base@DV?$stream_output_adapter@D@__crt_stdio_output@@@2@@__crt_stdio_output@@QAE@ABV?$stream_output_adapter@D@1@_KQBDQAU__crt_locale_pointers@@QAD@Z 10085570 f i libucrtd:output.obj
 0001:000845c0       ??0?$output_processor@DV?$string_output_adapter@D@__crt_stdio_output@@V?$format_validation_base@DV?$string_output_adapter@D@__crt_stdio_output@@@2@@__crt_stdio_output@@QAE@ABV?$string_output_adapter@D@1@_KQBDQAU__crt_locale_pointers@@QAD@Z 100855c0 f i libucrtd:output.obj
 0001:00084610       ??0?$output_processor@DV?$string_output_adapter@D@__crt_stdio_output@@V?$positional_parameter_base@DV?$string_output_adapter@D@__crt_stdio_output@@@2@@__crt_stdio_output@@QAE@ABV?$string_output_adapter@D@1@_KQBDQAU__crt_locale_pointers@@QAD@Z 10085610 f i libucrtd:output.obj
 0001:00084660       ??0?$output_processor@DV?$string_output_adapter@D@__crt_stdio_output@@V?$standard_base@DV?$string_output_adapter@D@__crt_stdio_output@@@2@@__crt_stdio_output@@QAE@ABV?$string_output_adapter@D@1@_KQBDQAU__crt_locale_pointers@@QAD@Z 10085660 f i libucrtd:output.obj
 0001:000846b0       ??0?$output_processor@_WV?$stream_output_adapter@_W@__crt_stdio_output@@V?$format_validation_base@_WV?$stream_output_adapter@_W@__crt_stdio_output@@@2@@__crt_stdio_output@@QAE@ABV?$stream_output_adapter@_W@1@_KQB_WQAU__crt_locale_pointers@@QAD@Z 100856b0 f i libucrtd:output.obj
 0001:00084700       ??0?$output_processor@_WV?$stream_output_adapter@_W@__crt_stdio_output@@V?$positional_parameter_base@_WV?$stream_output_adapter@_W@__crt_stdio_output@@@2@@__crt_stdio_output@@QAE@ABV?$stream_output_adapter@_W@1@_KQB_WQAU__crt_locale_pointers@@QAD@Z 10085700 f i libucrtd:output.obj
 0001:00084750       ??0?$output_processor@_WV?$stream_output_adapter@_W@__crt_stdio_output@@V?$standard_base@_WV?$stream_output_adapter@_W@__crt_stdio_output@@@2@@__crt_stdio_output@@QAE@ABV?$stream_output_adapter@_W@1@_KQB_WQAU__crt_locale_pointers@@QAD@Z 10085750 f i libucrtd:output.obj
 0001:000847a0       ??0?$output_processor@_WV?$string_output_adapter@_W@__crt_stdio_output@@V?$format_validation_base@_WV?$string_output_adapter@_W@__crt_stdio_output@@@2@@__crt_stdio_output@@QAE@ABV?$string_output_adapter@_W@1@_KQB_WQAU__crt_locale_pointers@@QAD@Z 100857a0 f i libucrtd:output.obj
 0001:000847f0       ??0?$output_processor@_WV?$string_output_adapter@_W@__crt_stdio_output@@V?$positional_parameter_base@_WV?$string_output_adapter@_W@__crt_stdio_output@@@2@@__crt_stdio_output@@QAE@ABV?$string_output_adapter@_W@1@_KQB_WQAU__crt_locale_pointers@@QAD@Z 100857f0 f i libucrtd:output.obj
 0001:00084840       ??0?$output_processor@_WV?$string_output_adapter@_W@__crt_stdio_output@@V?$standard_base@_WV?$string_output_adapter@_W@__crt_stdio_output@@@2@@__crt_stdio_output@@QAE@ABV?$string_output_adapter@_W@1@_KQB_WQAU__crt_locale_pointers@@QAD@Z 10085840 f i libucrtd:output.obj
 0001:00084890       ??0?$stream_output_adapter@D@__crt_stdio_output@@QAE@QAU_iobuf@@@Z 10085890 f i libucrtd:output.obj
 0001:000848c0       ??0?$stream_output_adapter@_W@__crt_stdio_output@@QAE@QAU_iobuf@@@Z 100858c0 f i libucrtd:output.obj
 0001:000848f0       ??0?$string_output_adapter@D@__crt_stdio_output@@QAE@QAU?$string_output_adapter_context@D@1@@Z 100858f0 f i libucrtd:output.obj
 0001:00084910       ??0?$string_output_adapter@_W@__crt_stdio_output@@QAE@QAU?$string_output_adapter_context@_W@1@@Z 10085910 f i libucrtd:output.obj
 0001:00084930       ??0__acrt_stdio_temporary_buffering_guard@@QAE@QAU_iobuf@@@Z 10085930 f i libucrtd:output.obj
 0001:00084970       ??0__crt_errno_guard@@QAE@QAH@Z 10085970 f i libucrtd:output.obj
 0001:000849b0       ??0__crt_stdio_stream@@QAE@QAU_iobuf@@@Z 100859b0 f i libucrtd:output.obj
 0001:000849d0       ??0formatting_buffer@__crt_stdio_output@@QAE@XZ 100859d0 f i libucrtd:output.obj
 0001:00084a10       ??1?$common_data@D@__crt_stdio_output@@QAE@XZ 10085a10 f i libucrtd:output.obj
 0001:00084a30       ??1?$common_data@_W@__crt_stdio_output@@QAE@XZ 10085a30 f i libucrtd:output.obj
 0001:00084a50       ??1?$format_validation_base@DV?$stream_output_adapter@D@__crt_stdio_output@@@__crt_stdio_output@@QAE@XZ 10085a50 f i libucrtd:output.obj
 0001:00084a70       ??1?$format_validation_base@DV?$string_output_adapter@D@__crt_stdio_output@@@__crt_stdio_output@@QAE@XZ 10085a70 f i libucrtd:output.obj
 0001:00084a90       ??1?$format_validation_base@_WV?$stream_output_adapter@_W@__crt_stdio_output@@@__crt_stdio_output@@QAE@XZ 10085a90 f i libucrtd:output.obj
 0001:00084ab0       ??1?$format_validation_base@_WV?$string_output_adapter@_W@__crt_stdio_output@@@__crt_stdio_output@@QAE@XZ 10085ab0 f i libucrtd:output.obj
 0001:00084ad0       ??1?$output_adapter_data@DV?$stream_output_adapter@D@__crt_stdio_output@@@__crt_stdio_output@@QAE@XZ 10085ad0 f i libucrtd:output.obj
 0001:00084af0       ??1?$output_adapter_data@DV?$string_output_adapter@D@__crt_stdio_output@@@__crt_stdio_output@@QAE@XZ 10085af0 f i libucrtd:output.obj
 0001:00084b10       ??1?$output_adapter_data@_WV?$stream_output_adapter@_W@__crt_stdio_output@@@__crt_stdio_output@@QAE@XZ 10085b10 f i libucrtd:output.obj
 0001:00084b30       ??1?$output_adapter_data@_WV?$string_output_adapter@_W@__crt_stdio_output@@@__crt_stdio_output@@QAE@XZ 10085b30 f i libucrtd:output.obj
 0001:00084b50       ??1?$output_processor@DV?$stream_output_adapter@D@__crt_stdio_output@@V?$format_validation_base@DV?$stream_output_adapter@D@__crt_stdio_output@@@2@@__crt_stdio_output@@QAE@XZ 10085b50 f i libucrtd:output.obj
 0001:00084b70       ??1?$output_processor@DV?$stream_output_adapter@D@__crt_stdio_output@@V?$positional_parameter_base@DV?$stream_output_adapter@D@__crt_stdio_output@@@2@@__crt_stdio_output@@QAE@XZ 10085b70 f i libucrtd:output.obj
 0001:00084b90       ??1?$output_processor@DV?$stream_output_adapter@D@__crt_stdio_output@@V?$standard_base@DV?$stream_output_adapter@D@__crt_stdio_output@@@2@@__crt_stdio_output@@QAE@XZ 10085b90 f i libucrtd:output.obj
 0001:00084bb0       ??1?$output_processor@DV?$string_output_adapter@D@__crt_stdio_output@@V?$format_validation_base@DV?$string_output_adapter@D@__crt_stdio_output@@@2@@__crt_stdio_output@@QAE@XZ 10085bb0 f i libucrtd:output.obj
 0001:00084bd0       ??1?$output_processor@DV?$string_output_adapter@D@__crt_stdio_output@@V?$positional_parameter_base@DV?$string_output_adapter@D@__crt_stdio_output@@@2@@__crt_stdio_output@@QAE@XZ 10085bd0 f i libucrtd:output.obj
 0001:00084bf0       ??1?$output_processor@DV?$string_output_adapter@D@__crt_stdio_output@@V?$standard_base@DV?$string_output_adapter@D@__crt_stdio_output@@@2@@__crt_stdio_output@@QAE@XZ 10085bf0 f i libucrtd:output.obj
 0001:00084c10       ??1?$output_processor@_WV?$stream_output_adapter@_W@__crt_stdio_output@@V?$format_validation_base@_WV?$stream_output_adapter@_W@__crt_stdio_output@@@2@@__crt_stdio_output@@QAE@XZ 10085c10 f i libucrtd:output.obj
 0001:00084c30       ??1?$output_processor@_WV?$stream_output_adapter@_W@__crt_stdio_output@@V?$positional_parameter_base@_WV?$stream_output_adapter@_W@__crt_stdio_output@@@2@@__crt_stdio_output@@QAE@XZ 10085c30 f i libucrtd:output.obj
 0001:00084c50       ??1?$output_processor@_WV?$stream_output_adapter@_W@__crt_stdio_output@@V?$standard_base@_WV?$stream_output_adapter@_W@__crt_stdio_output@@@2@@__crt_stdio_output@@QAE@XZ 10085c50 f i libucrtd:output.obj
 0001:00084c70       ??1?$output_processor@_WV?$string_output_adapter@_W@__crt_stdio_output@@V?$format_validation_base@_WV?$string_output_adapter@_W@__crt_stdio_output@@@2@@__crt_stdio_output@@QAE@XZ 10085c70 f i libucrtd:output.obj
 0001:00084c90       ??1?$output_processor@_WV?$string_output_adapter@_W@__crt_stdio_output@@V?$positional_parameter_base@_WV?$string_output_adapter@_W@__crt_stdio_output@@@2@@__crt_stdio_output@@QAE@XZ 10085c90 f i libucrtd:output.obj
 0001:00084cb0       ??1?$output_processor@_WV?$string_output_adapter@_W@__crt_stdio_output@@V?$standard_base@_WV?$string_output_adapter@_W@__crt_stdio_output@@@2@@__crt_stdio_output@@QAE@XZ 10085cb0 f i libucrtd:output.obj
 0001:00084cd0       ??1?$positional_parameter_base@DV?$stream_output_adapter@D@__crt_stdio_output@@@__crt_stdio_output@@QAE@XZ 10085cd0 f i libucrtd:output.obj
 0001:00084cf0       ??1?$positional_parameter_base@DV?$string_output_adapter@D@__crt_stdio_output@@@__crt_stdio_output@@QAE@XZ 10085cf0 f i libucrtd:output.obj
 0001:00084d10       ??1?$positional_parameter_base@_WV?$stream_output_adapter@_W@__crt_stdio_output@@@__crt_stdio_output@@QAE@XZ 10085d10 f i libucrtd:output.obj
 0001:00084d30       ??1?$positional_parameter_base@_WV?$string_output_adapter@_W@__crt_stdio_output@@@__crt_stdio_output@@QAE@XZ 10085d30 f i libucrtd:output.obj
 0001:00084d50       ??1?$standard_base@DV?$stream_output_adapter@D@__crt_stdio_output@@@__crt_stdio_output@@QAE@XZ 10085d50 f i libucrtd:output.obj
 0001:00084d70       ??1?$standard_base@DV?$string_output_adapter@D@__crt_stdio_output@@@__crt_stdio_output@@QAE@XZ 10085d70 f i libucrtd:output.obj
 0001:00084d90       ??1?$standard_base@_WV?$stream_output_adapter@_W@__crt_stdio_output@@@__crt_stdio_output@@QAE@XZ 10085d90 f i libucrtd:output.obj
 0001:00084db0       ??1?$standard_base@_WV?$string_output_adapter@_W@__crt_stdio_output@@@__crt_stdio_output@@QAE@XZ 10085db0 f i libucrtd:output.obj
 0001:00084dd0       ??1__acrt_stdio_temporary_buffering_guard@@QAE@XZ 10085dd0 f i libucrtd:output.obj
 0001:00084e00       ??1__crt_errno_guard@@QAE@XZ 10085e00 f i libucrtd:output.obj
 0001:00084e40       ??1formatting_buffer@__crt_stdio_output@@QAE@XZ 10085e40 f i libucrtd:output.obj
 0001:00084e70       ??4?$__crt_unique_heap_ptr@DU__crt_internal_free_policy@@@@QAEAAV0@$$QAV0@@Z 10085e70 f i libucrtd:output.obj
 0001:00084eb0       ??C__crt_stdio_stream@@QBEPAU__crt_stdio_stream_data@@XZ 10085eb0 f i libucrtd:output.obj
 0001:000857d0       ?adjust_hexit@?$output_processor@DV?$stream_output_adapter@D@__crt_stdio_output@@V?$format_validation_base@DV?$stream_output_adapter@D@__crt_stdio_output@@@2@@__crt_stdio_output@@CADH_N@Z 100867d0 f i libucrtd:output.obj
 0001:00085820       ?adjust_hexit@?$output_processor@DV?$stream_output_adapter@D@__crt_stdio_output@@V?$positional_parameter_base@DV?$stream_output_adapter@D@__crt_stdio_output@@@2@@__crt_stdio_output@@CADH_N@Z 10086820 f i libucrtd:output.obj
 0001:00085870       ?adjust_hexit@?$output_processor@DV?$stream_output_adapter@D@__crt_stdio_output@@V?$standard_base@DV?$stream_output_adapter@D@__crt_stdio_output@@@2@@__crt_stdio_output@@CADH_N@Z 10086870 f i libucrtd:output.obj
 0001:000858c0       ?adjust_hexit@?$output_processor@DV?$string_output_adapter@D@__crt_stdio_output@@V?$format_validation_base@DV?$string_output_adapter@D@__crt_stdio_output@@@2@@__crt_stdio_output@@CADH_N@Z 100868c0 f i libucrtd:output.obj
 0001:00085910       ?adjust_hexit@?$output_processor@DV?$string_output_adapter@D@__crt_stdio_output@@V?$positional_parameter_base@DV?$string_output_adapter@D@__crt_stdio_output@@@2@@__crt_stdio_output@@CADH_N@Z 10086910 f i libucrtd:output.obj
 0001:00085960       ?adjust_hexit@?$output_processor@DV?$string_output_adapter@D@__crt_stdio_output@@V?$standard_base@DV?$string_output_adapter@D@__crt_stdio_output@@@2@@__crt_stdio_output@@CADH_N@Z 10086960 f i libucrtd:output.obj
 0001:000859b0       ?adjust_hexit@?$output_processor@_WV?$stream_output_adapter@_W@__crt_stdio_output@@V?$format_validation_base@_WV?$stream_output_adapter@_W@__crt_stdio_output@@@2@@__crt_stdio_output@@CADH_N@Z 100869b0 f i libucrtd:output.obj
 0001:00085a00       ?adjust_hexit@?$output_processor@_WV?$stream_output_adapter@_W@__crt_stdio_output@@V?$positional_parameter_base@_WV?$stream_output_adapter@_W@__crt_stdio_output@@@2@@__crt_stdio_output@@CADH_N@Z 10086a00 f i libucrtd:output.obj
 0001:00085a50       ?adjust_hexit@?$output_processor@_WV?$stream_output_adapter@_W@__crt_stdio_output@@V?$standard_base@_WV?$stream_output_adapter@_W@__crt_stdio_output@@@2@@__crt_stdio_output@@CADH_N@Z 10086a50 f i libucrtd:output.obj
 0001:00085aa0       ?adjust_hexit@?$output_processor@_WV?$string_output_adapter@_W@__crt_stdio_output@@V?$format_validation_base@_WV?$string_output_adapter@_W@__crt_stdio_output@@@2@@__crt_stdio_output@@CADH_N@Z 10086aa0 f i libucrtd:output.obj
 0001:00085af0       ?adjust_hexit@?$output_processor@_WV?$string_output_adapter@_W@__crt_stdio_output@@V?$positional_parameter_base@_WV?$string_output_adapter@_W@__crt_stdio_output@@@2@@__crt_stdio_output@@CADH_N@Z 10086af0 f i libucrtd:output.obj
 0001:00085b40       ?adjust_hexit@?$output_processor@_WV?$string_output_adapter@_W@__crt_stdio_output@@V?$standard_base@_WV?$string_output_adapter@_W@__crt_stdio_output@@@2@@__crt_stdio_output@@CADH_N@Z 10086b40 f i libucrtd:output.obj
 0001:00085b90       ?advance_to_next_pass@?$positional_parameter_base@DV?$stream_output_adapter@D@__crt_stdio_output@@@__crt_stdio_output@@IAE_NXZ 10086b90 f i libucrtd:output.obj
 0001:00085c50       ?advance_to_next_pass@?$positional_parameter_base@DV?$string_output_adapter@D@__crt_stdio_output@@@__crt_stdio_output@@IAE_NXZ 10086c50 f i libucrtd:output.obj
 0001:00085d10       ?advance_to_next_pass@?$positional_parameter_base@_WV?$stream_output_adapter@_W@__crt_stdio_output@@@__crt_stdio_output@@IAE_NXZ 10086d10 f i libucrtd:output.obj
 0001:00085dd0       ?advance_to_next_pass@?$positional_parameter_base@_WV?$string_output_adapter@_W@__crt_stdio_output@@@__crt_stdio_output@@IAE_NXZ 10086dd0 f i libucrtd:output.obj
 0001:00085e90       ?advance_to_next_pass@?$standard_base@DV?$stream_output_adapter@D@__crt_stdio_output@@@__crt_stdio_output@@IAE_NXZ 10086e90 f i libucrtd:output.obj
 0001:00085ef0       ?advance_to_next_pass@?$standard_base@DV?$string_output_adapter@D@__crt_stdio_output@@@__crt_stdio_output@@IAE_NXZ 10086ef0 f i libucrtd:output.obj
 0001:00085f50       ?advance_to_next_pass@?$standard_base@_WV?$stream_output_adapter@_W@__crt_stdio_output@@@__crt_stdio_output@@IAE_NXZ 10086f50 f i libucrtd:output.obj
 0001:00085fb0       ?advance_to_next_pass@?$standard_base@_WV?$string_output_adapter@_W@__crt_stdio_output@@@__crt_stdio_output@@IAE_NXZ 10086fb0 f i libucrtd:output.obj
 0001:00086010       ?crop_zeroes@__crt_stdio_output@@YAXPADQAU__crt_locale_pointers@@@Z 10087010 f i libucrtd:output.obj
 0001:00086140       ?find_next_state@?$output_processor@DV?$stream_output_adapter@D@__crt_stdio_output@@V?$format_validation_base@DV?$stream_output_adapter@D@__crt_stdio_output@@@2@@__crt_stdio_output@@ABE?AW4state@2@DW432@@Z 10087140 f i libucrtd:output.obj
 0001:000861d0       ?find_next_state@?$output_processor@DV?$stream_output_adapter@D@__crt_stdio_output@@V?$positional_parameter_base@DV?$stream_output_adapter@D@__crt_stdio_output@@@2@@__crt_stdio_output@@ABE?AW4state@2@DW432@@Z 100871d0 f i libucrtd:output.obj
 0001:00086260       ?find_next_state@?$output_processor@DV?$stream_output_adapter@D@__crt_stdio_output@@V?$standard_base@DV?$stream_output_adapter@D@__crt_stdio_output@@@2@@__crt_stdio_output@@ABE?AW4state@2@DW432@@Z 10087260 f i libucrtd:output.obj
 0001:000862f0       ?find_next_state@?$output_processor@DV?$string_output_adapter@D@__crt_stdio_output@@V?$format_validation_base@DV?$string_output_adapter@D@__crt_stdio_output@@@2@@__crt_stdio_output@@ABE?AW4state@2@DW432@@Z 100872f0 f i libucrtd:output.obj
 0001:00086380       ?find_next_state@?$output_processor@DV?$string_output_adapter@D@__crt_stdio_output@@V?$positional_parameter_base@DV?$string_output_adapter@D@__crt_stdio_output@@@2@@__crt_stdio_output@@ABE?AW4state@2@DW432@@Z 10087380 f i libucrtd:output.obj
 0001:00086410       ?find_next_state@?$output_processor@DV?$string_output_adapter@D@__crt_stdio_output@@V?$standard_base@DV?$string_output_adapter@D@__crt_stdio_output@@@2@@__crt_stdio_output@@ABE?AW4state@2@DW432@@Z 10087410 f i libucrtd:output.obj
 0001:000864a0       ?find_next_state@?$output_processor@_WV?$stream_output_adapter@_W@__crt_stdio_output@@V?$format_validation_base@_WV?$stream_output_adapter@_W@__crt_stdio_output@@@2@@__crt_stdio_output@@ABE?AW4state@2@_WW432@@Z 100874a0 f i libucrtd:output.obj
 0001:00086530       ?find_next_state@?$output_processor@_WV?$stream_output_adapter@_W@__crt_stdio_output@@V?$positional_parameter_base@_WV?$stream_output_adapter@_W@__crt_stdio_output@@@2@@__crt_stdio_output@@ABE?AW4state@2@_WW432@@Z 10087530 f i libucrtd:output.obj
 0001:000865c0       ?find_next_state@?$output_processor@_WV?$stream_output_adapter@_W@__crt_stdio_output@@V?$standard_base@_WV?$stream_output_adapter@_W@__crt_stdio_output@@@2@@__crt_stdio_output@@ABE?AW4state@2@_WW432@@Z 100875c0 f i libucrtd:output.obj
 0001:00086650       ?find_next_state@?$output_processor@_WV?$string_output_adapter@_W@__crt_stdio_output@@V?$format_validation_base@_WV?$string_output_adapter@_W@__crt_stdio_output@@@2@@__crt_stdio_output@@ABE?AW4state@2@_WW432@@Z 10087650 f i libucrtd:output.obj
 0001:000866e0       ?find_next_state@?$output_processor@_WV?$string_output_adapter@_W@__crt_stdio_output@@V?$positional_parameter_base@_WV?$string_output_adapter@_W@__crt_stdio_output@@@2@@__crt_stdio_output@@ABE?AW4state@2@_WW432@@Z 100876e0 f i libucrtd:output.obj
 0001:00086770       ?find_next_state@?$output_processor@_WV?$string_output_adapter@_W@__crt_stdio_output@@V?$standard_base@_WV?$string_output_adapter@_W@__crt_stdio_output@@@2@@__crt_stdio_output@@ABE?AW4state@2@_WW432@@Z 10087770 f i libucrtd:output.obj
 0001:00086800       ?force_decimal_point@__crt_stdio_output@@YAXPADQAU__crt_locale_pointers@@@Z 10087800 f i libucrtd:output.obj
 0001:000868e0       ?get_flags@__crt_stdio_stream@@QBEJXZ 100878e0 f i libucrtd:output.obj
 0001:00086910       ?get_parameter_type@?$positional_parameter_base@DV?$stream_output_adapter@D@__crt_stdio_output@@@__crt_stdio_output@@CA?AW4parameter_type@12@F@Z 10087910 f i libucrtd:output.obj
 0001:00086920       ?get_parameter_type@?$positional_parameter_base@DV?$stream_output_adapter@D@__crt_stdio_output@@@__crt_stdio_output@@CA?AW4parameter_type@12@G@Z 10087920 f i libucrtd:output.obj
 0001:00086930       ?get_parameter_type@?$positional_parameter_base@DV?$stream_output_adapter@D@__crt_stdio_output@@@__crt_stdio_output@@CA?AW4parameter_type@12@H@Z 10087930 f i libucrtd:output.obj
 0001:00086940       ?get_parameter_type@?$positional_parameter_base@DV?$stream_output_adapter@D@__crt_stdio_output@@@__crt_stdio_output@@CA?AW4parameter_type@12@I@Z 10087940 f i libucrtd:output.obj
 0001:00086950       ?get_parameter_type@?$positional_parameter_base@DV?$stream_output_adapter@D@__crt_stdio_output@@@__crt_stdio_output@@CA?AW4parameter_type@12@U_CRT_DOUBLE@@@Z 10087950 f i libucrtd:output.obj
 0001:00086960       ?get_parameter_type@?$positional_parameter_base@DV?$stream_output_adapter@D@__crt_stdio_output@@@__crt_stdio_output@@CA?AW4parameter_type@12@_J@Z 10087960 f i libucrtd:output.obj
 0001:00086970       ?get_parameter_type@?$positional_parameter_base@DV?$stream_output_adapter@D@__crt_stdio_output@@@__crt_stdio_output@@CA?AW4parameter_type@12@_K@Z 10087970 f i libucrtd:output.obj
 0001:00086980       ?get_parameter_type@?$positional_parameter_base@DV?$stream_output_adapter@D@__crt_stdio_output@@@__crt_stdio_output@@CA?AW4parameter_type@12@_W@Z 10087980 f i libucrtd:output.obj
 0001:00086990       ?get_parameter_type@?$positional_parameter_base@DV?$string_output_adapter@D@__crt_stdio_output@@@__crt_stdio_output@@CA?AW4parameter_type@12@F@Z 10087990 f i libucrtd:output.obj
 0001:000869a0       ?get_parameter_type@?$positional_parameter_base@DV?$string_output_adapter@D@__crt_stdio_output@@@__crt_stdio_output@@CA?AW4parameter_type@12@G@Z 100879a0 f i libucrtd:output.obj
 0001:000869b0       ?get_parameter_type@?$positional_parameter_base@DV?$string_output_adapter@D@__crt_stdio_output@@@__crt_stdio_output@@CA?AW4parameter_type@12@H@Z 100879b0 f i libucrtd:output.obj
 0001:000869c0       ?get_parameter_type@?$positional_parameter_base@DV?$string_output_adapter@D@__crt_stdio_output@@@__crt_stdio_output@@CA?AW4parameter_type@12@I@Z 100879c0 f i libucrtd:output.obj
 0001:000869d0       ?get_parameter_type@?$positional_parameter_base@DV?$string_output_adapter@D@__crt_stdio_output@@@__crt_stdio_output@@CA?AW4parameter_type@12@U_CRT_DOUBLE@@@Z 100879d0 f i libucrtd:output.obj
 0001:000869e0       ?get_parameter_type@?$positional_parameter_base@DV?$string_output_adapter@D@__crt_stdio_output@@@__crt_stdio_output@@CA?AW4parameter_type@12@_J@Z 100879e0 f i libucrtd:output.obj
 0001:000869f0       ?get_parameter_type@?$positional_parameter_base@DV?$string_output_adapter@D@__crt_stdio_output@@@__crt_stdio_output@@CA?AW4parameter_type@12@_K@Z 100879f0 f i libucrtd:output.obj
 0001:00086a00       ?get_parameter_type@?$positional_parameter_base@DV?$string_output_adapter@D@__crt_stdio_output@@@__crt_stdio_output@@CA?AW4parameter_type@12@_W@Z 10087a00 f i libucrtd:output.obj
 0001:00086a10       ?get_parameter_type@?$positional_parameter_base@_WV?$stream_output_adapter@_W@__crt_stdio_output@@@__crt_stdio_output@@CA?AW4parameter_type@12@F@Z 10087a10 f i libucrtd:output.obj
 0001:00086a20       ?get_parameter_type@?$positional_parameter_base@_WV?$stream_output_adapter@_W@__crt_stdio_output@@@__crt_stdio_output@@CA?AW4parameter_type@12@G@Z 10087a20 f i libucrtd:output.obj
 0001:00086a30       ?get_parameter_type@?$positional_parameter_base@_WV?$stream_output_adapter@_W@__crt_stdio_output@@@__crt_stdio_output@@CA?AW4parameter_type@12@H@Z 10087a30 f i libucrtd:output.obj
 0001:00086a40       ?get_parameter_type@?$positional_parameter_base@_WV?$stream_output_adapter@_W@__crt_stdio_output@@@__crt_stdio_output@@CA?AW4parameter_type@12@I@Z 10087a40 f i libucrtd:output.obj
 0001:00086a50       ?get_parameter_type@?$positional_parameter_base@_WV?$stream_output_adapter@_W@__crt_stdio_output@@@__crt_stdio_output@@CA?AW4parameter_type@12@U_CRT_DOUBLE@@@Z 10087a50 f i libucrtd:output.obj
 0001:00086a60       ?get_parameter_type@?$positional_parameter_base@_WV?$stream_output_adapter@_W@__crt_stdio_output@@@__crt_stdio_output@@CA?AW4parameter_type@12@_J@Z 10087a60 f i libucrtd:output.obj
 0001:00086a70       ?get_parameter_type@?$positional_parameter_base@_WV?$stream_output_adapter@_W@__crt_stdio_output@@@__crt_stdio_output@@CA?AW4parameter_type@12@_K@Z 10087a70 f i libucrtd:output.obj
 0001:00086a80       ?get_parameter_type@?$positional_parameter_base@_WV?$stream_output_adapter@_W@__crt_stdio_output@@@__crt_stdio_output@@CA?AW4parameter_type@12@_W@Z 10087a80 f i libucrtd:output.obj
 0001:00086a90       ?get_parameter_type@?$positional_parameter_base@_WV?$string_output_adapter@_W@__crt_stdio_output@@@__crt_stdio_output@@CA?AW4parameter_type@12@F@Z 10087a90 f i libucrtd:output.obj
 0001:00086aa0       ?get_parameter_type@?$positional_parameter_base@_WV?$string_output_adapter@_W@__crt_stdio_output@@@__crt_stdio_output@@CA?AW4parameter_type@12@G@Z 10087aa0 f i libucrtd:output.obj
 0001:00086ab0       ?get_parameter_type@?$positional_parameter_base@_WV?$string_output_adapter@_W@__crt_stdio_output@@@__crt_stdio_output@@CA?AW4parameter_type@12@H@Z 10087ab0 f i libucrtd:output.obj
 0001:00086ac0       ?get_parameter_type@?$positional_parameter_base@_WV?$string_output_adapter@_W@__crt_stdio_output@@@__crt_stdio_output@@CA?AW4parameter_type@12@I@Z 10087ac0 f i libucrtd:output.obj
 0001:00086ad0       ?get_parameter_type@?$positional_parameter_base@_WV?$string_output_adapter@_W@__crt_stdio_output@@@__crt_stdio_output@@CA?AW4parameter_type@12@U_CRT_DOUBLE@@@Z 10087ad0 f i libucrtd:output.obj
 0001:00086ae0       ?get_parameter_type@?$positional_parameter_base@_WV?$string_output_adapter@_W@__crt_stdio_output@@@__crt_stdio_output@@CA?AW4parameter_type@12@_J@Z 10087ae0 f i libucrtd:output.obj
 0001:00086af0       ?get_parameter_type@?$positional_parameter_base@_WV?$string_output_adapter@_W@__crt_stdio_output@@@__crt_stdio_output@@CA?AW4parameter_type@12@_K@Z 10087af0 f i libucrtd:output.obj
 0001:00086b00       ?get_parameter_type@?$positional_parameter_base@_WV?$string_output_adapter@_W@__crt_stdio_output@@@__crt_stdio_output@@CA?AW4parameter_type@12@_W@Z 10087b00 f i libucrtd:output.obj
 0001:00086b10       ?has_flag@?$output_processor@DV?$stream_output_adapter@D@__crt_stdio_output@@V?$format_validation_base@DV?$stream_output_adapter@D@__crt_stdio_output@@@2@@__crt_stdio_output@@ABE_NI@Z 10087b10 f i libucrtd:output.obj
 0001:00086b50       ?has_flag@?$output_processor@DV?$stream_output_adapter@D@__crt_stdio_output@@V?$positional_parameter_base@DV?$stream_output_adapter@D@__crt_stdio_output@@@2@@__crt_stdio_output@@ABE_NI@Z 10087b50 f i libucrtd:output.obj
 0001:00086b90       ?has_flag@?$output_processor@DV?$stream_output_adapter@D@__crt_stdio_output@@V?$standard_base@DV?$stream_output_adapter@D@__crt_stdio_output@@@2@@__crt_stdio_output@@ABE_NI@Z 10087b90 f i libucrtd:output.obj
 0001:00086bd0       ?has_flag@?$output_processor@DV?$string_output_adapter@D@__crt_stdio_output@@V?$format_validation_base@DV?$string_output_adapter@D@__crt_stdio_output@@@2@@__crt_stdio_output@@ABE_NI@Z 10087bd0 f i libucrtd:output.obj
 0001:00086c10       ?has_flag@?$output_processor@DV?$string_output_adapter@D@__crt_stdio_output@@V?$positional_parameter_base@DV?$string_output_adapter@D@__crt_stdio_output@@@2@@__crt_stdio_output@@ABE_NI@Z 10087c10 f i libucrtd:output.obj
 0001:00086c50       ?has_flag@?$output_processor@DV?$string_output_adapter@D@__crt_stdio_output@@V?$standard_base@DV?$string_output_adapter@D@__crt_stdio_output@@@2@@__crt_stdio_output@@ABE_NI@Z 10087c50 f i libucrtd:output.obj
 0001:00086c90       ?has_flag@?$output_processor@_WV?$stream_output_adapter@_W@__crt_stdio_output@@V?$format_validation_base@_WV?$stream_output_adapter@_W@__crt_stdio_output@@@2@@__crt_stdio_output@@ABE_NI@Z 10087c90 f i libucrtd:output.obj
 0001:00086cd0       ?has_flag@?$output_processor@_WV?$stream_output_adapter@_W@__crt_stdio_output@@V?$positional_parameter_base@_WV?$stream_output_adapter@_W@__crt_stdio_output@@@2@@__crt_stdio_output@@ABE_NI@Z 10087cd0 f i libucrtd:output.obj
 0001:00086d10       ?has_flag@?$output_processor@_WV?$stream_output_adapter@_W@__crt_stdio_output@@V?$standard_base@_WV?$stream_output_adapter@_W@__crt_stdio_output@@@2@@__crt_stdio_output@@ABE_NI@Z 10087d10 f i libucrtd:output.obj
 0001:00086d50       ?has_flag@?$output_processor@_WV?$string_output_adapter@_W@__crt_stdio_output@@V?$format_validation_base@_WV?$string_output_adapter@_W@__crt_stdio_output@@@2@@__crt_stdio_output@@ABE_NI@Z 10087d50 f i libucrtd:output.obj
 0001:00086d90       ?has_flag@?$output_processor@_WV?$string_output_adapter@_W@__crt_stdio_output@@V?$positional_parameter_base@_WV?$string_output_adapter@_W@__crt_stdio_output@@@2@@__crt_stdio_output@@ABE_NI@Z 10087d90 f i libucrtd:output.obj
 0001:00086dd0       ?has_flag@?$output_processor@_WV?$string_output_adapter@_W@__crt_stdio_output@@V?$standard_base@_WV?$string_output_adapter@_W@__crt_stdio_output@@@2@@__crt_stdio_output@@ABE_NI@Z 10087dd0 f i libucrtd:output.obj
 0001:00086e10       ?is_positional_parameter_reappearance_consistent@?$positional_parameter_base@DV?$stream_output_adapter@D@__crt_stdio_output@@@__crt_stdio_output@@AAE_NABUparameter_data@12@W4parameter_type@12@DW4length_modifier@2@@Z 10087e10 f i libucrtd:output.obj
 0001:000870c0       ?is_positional_parameter_reappearance_consistent@?$positional_parameter_base@DV?$string_output_adapter@D@__crt_stdio_output@@@__crt_stdio_output@@AAE_NABUparameter_data@12@W4parameter_type@12@DW4length_modifier@2@@Z 100880c0 f i libucrtd:output.obj
 0001:00087370       ?is_positional_parameter_reappearance_consistent@?$positional_parameter_base@_WV?$stream_output_adapter@_W@__crt_stdio_output@@@__crt_stdio_output@@AAE_NABUparameter_data@12@W4parameter_type@12@_WW4length_modifier@2@@Z 10088370 f i libucrtd:output.obj
 0001:00087620       ?is_positional_parameter_reappearance_consistent@?$positional_parameter_base@_WV?$string_output_adapter@_W@__crt_stdio_output@@@__crt_stdio_output@@AAE_NABUparameter_data@12@W4parameter_type@12@_WW4length_modifier@2@@Z 10088620 f i libucrtd:output.obj
 0001:000878d0       ?is_string_backed@__crt_stdio_stream@@QBE_NXZ 100888d0 f i libucrtd:output.obj
 0001:00087910       ?narrow_null_string@?$output_processor@DV?$stream_output_adapter@D@__crt_stdio_output@@V?$format_validation_base@DV?$stream_output_adapter@D@__crt_stdio_output@@@2@@__crt_stdio_output@@CAPADXZ 10088910 f i libucrtd:output.obj
 0001:00087920       ?narrow_null_string@?$output_processor@DV?$stream_output_adapter@D@__crt_stdio_output@@V?$positional_parameter_base@DV?$stream_output_adapter@D@__crt_stdio_output@@@2@@__crt_stdio_output@@CAPADXZ 10088920 f i libucrtd:output.obj
 0001:00087930       ?narrow_null_string@?$output_processor@DV?$stream_output_adapter@D@__crt_stdio_output@@V?$standard_base@DV?$stream_output_adapter@D@__crt_stdio_output@@@2@@__crt_stdio_output@@CAPADXZ 10088930 f i libucrtd:output.obj
 0001:00087940       ?narrow_null_string@?$output_processor@DV?$string_output_adapter@D@__crt_stdio_output@@V?$format_validation_base@DV?$string_output_adapter@D@__crt_stdio_output@@@2@@__crt_stdio_output@@CAPADXZ 10088940 f i libucrtd:output.obj
 0001:00087950       ?narrow_null_string@?$output_processor@DV?$string_output_adapter@D@__crt_stdio_output@@V?$positional_parameter_base@DV?$string_output_adapter@D@__crt_stdio_output@@@2@@__crt_stdio_output@@CAPADXZ 10088950 f i libucrtd:output.obj
 0001:00087960       ?narrow_null_string@?$output_processor@DV?$string_output_adapter@D@__crt_stdio_output@@V?$standard_base@DV?$string_output_adapter@D@__crt_stdio_output@@@2@@__crt_stdio_output@@CAPADXZ 10088960 f i libucrtd:output.obj
 0001:00087970       ?narrow_null_string@?$output_processor@_WV?$stream_output_adapter@_W@__crt_stdio_output@@V?$format_validation_base@_WV?$stream_output_adapter@_W@__crt_stdio_output@@@2@@__crt_stdio_output@@CAPADXZ 10088970 f i libucrtd:output.obj
 0001:00087980       ?narrow_null_string@?$output_processor@_WV?$stream_output_adapter@_W@__crt_stdio_output@@V?$positional_parameter_base@_WV?$stream_output_adapter@_W@__crt_stdio_output@@@2@@__crt_stdio_output@@CAPADXZ 10088980 f i libucrtd:output.obj
 0001:00087990       ?narrow_null_string@?$output_processor@_WV?$stream_output_adapter@_W@__crt_stdio_output@@V?$standard_base@_WV?$stream_output_adapter@_W@__crt_stdio_output@@@2@@__crt_stdio_output@@CAPADXZ 10088990 f i libucrtd:output.obj
 0001:000879a0       ?narrow_null_string@?$output_processor@_WV?$string_output_adapter@_W@__crt_stdio_output@@V?$format_validation_base@_WV?$string_output_adapter@_W@__crt_stdio_output@@@2@@__crt_stdio_output@@CAPADXZ 100889a0 f i libucrtd:output.obj
 0001:000879b0       ?narrow_null_string@?$output_processor@_WV?$string_output_adapter@_W@__crt_stdio_output@@V?$positional_parameter_base@_WV?$string_output_adapter@_W@__crt_stdio_output@@@2@@__crt_stdio_output@@CAPADXZ 100889b0 f i libucrtd:output.obj
 0001:000879c0       ?narrow_null_string@?$output_processor@_WV?$string_output_adapter@_W@__crt_stdio_output@@V?$standard_base@_WV?$string_output_adapter@_W@__crt_stdio_output@@@2@@__crt_stdio_output@@CAPADXZ 100889c0 f i libucrtd:output.obj
 0001:000879d0       ?parse_int_from_format_string@?$output_processor@DV?$stream_output_adapter@D@__crt_stdio_output@@V?$format_validation_base@DV?$stream_output_adapter@D@__crt_stdio_output@@@2@@__crt_stdio_output@@AAE_NQAH@Z 100889d0 f i libucrtd:output.obj
 0001:00087ab0       ?parse_int_from_format_string@?$output_processor@DV?$stream_output_adapter@D@__crt_stdio_output@@V?$positional_parameter_base@DV?$stream_output_adapter@D@__crt_stdio_output@@@2@@__crt_stdio_output@@AAE_NQAH@Z 10088ab0 f i libucrtd:output.obj
 0001:00087b90       ?parse_int_from_format_string@?$output_processor@DV?$stream_output_adapter@D@__crt_stdio_output@@V?$standard_base@DV?$stream_output_adapter@D@__crt_stdio_output@@@2@@__crt_stdio_output@@AAE_NQAH@Z 10088b90 f i libucrtd:output.obj
 0001:00087c70       ?parse_int_from_format_string@?$output_processor@DV?$string_output_adapter@D@__crt_stdio_output@@V?$format_validation_base@DV?$string_output_adapter@D@__crt_stdio_output@@@2@@__crt_stdio_output@@AAE_NQAH@Z 10088c70 f i libucrtd:output.obj
 0001:00087d50       ?parse_int_from_format_string@?$output_processor@DV?$string_output_adapter@D@__crt_stdio_output@@V?$positional_parameter_base@DV?$string_output_adapter@D@__crt_stdio_output@@@2@@__crt_stdio_output@@AAE_NQAH@Z 10088d50 f i libucrtd:output.obj
 0001:00087e30       ?parse_int_from_format_string@?$output_processor@DV?$string_output_adapter@D@__crt_stdio_output@@V?$standard_base@DV?$string_output_adapter@D@__crt_stdio_output@@@2@@__crt_stdio_output@@AAE_NQAH@Z 10088e30 f i libucrtd:output.obj
 0001:00087f10       ?parse_int_from_format_string@?$output_processor@_WV?$stream_output_adapter@_W@__crt_stdio_output@@V?$format_validation_base@_WV?$stream_output_adapter@_W@__crt_stdio_output@@@2@@__crt_stdio_output@@AAE_NQAH@Z 10088f10 f i libucrtd:output.obj
 0001:00087ff0       ?parse_int_from_format_string@?$output_processor@_WV?$stream_output_adapter@_W@__crt_stdio_output@@V?$positional_parameter_base@_WV?$stream_output_adapter@_W@__crt_stdio_output@@@2@@__crt_stdio_output@@AAE_NQAH@Z 10088ff0 f i libucrtd:output.obj
 0001:000880d0       ?parse_int_from_format_string@?$output_processor@_WV?$stream_output_adapter@_W@__crt_stdio_output@@V?$standard_base@_WV?$stream_output_adapter@_W@__crt_stdio_output@@@2@@__crt_stdio_output@@AAE_NQAH@Z 100890d0 f i libucrtd:output.obj
 0001:000881b0       ?parse_int_from_format_string@?$output_processor@_WV?$string_output_adapter@_W@__crt_stdio_output@@V?$format_validation_base@_WV?$string_output_adapter@_W@__crt_stdio_output@@@2@@__crt_stdio_output@@AAE_NQAH@Z 100891b0 f i libucrtd:output.obj
 0001:00088290       ?parse_int_from_format_string@?$output_processor@_WV?$string_output_adapter@_W@__crt_stdio_output@@V?$positional_parameter_base@_WV?$string_output_adapter@_W@__crt_stdio_output@@@2@@__crt_stdio_output@@AAE_NQAH@Z 10089290 f i libucrtd:output.obj
 0001:00088370       ?parse_int_from_format_string@?$output_processor@_WV?$string_output_adapter@_W@__crt_stdio_output@@V?$standard_base@_WV?$string_output_adapter@_W@__crt_stdio_output@@@2@@__crt_stdio_output@@AAE_NQAH@Z 10089370 f i libucrtd:output.obj
 0001:00088450       ?process@?$output_processor@DV?$stream_output_adapter@D@__crt_stdio_output@@V?$format_validation_base@DV?$stream_output_adapter@D@__crt_stdio_output@@@2@@__crt_stdio_output@@QAEHXZ 10089450 f i libucrtd:output.obj
 0001:000887a0       ?process@?$output_processor@DV?$stream_output_adapter@D@__crt_stdio_output@@V?$positional_parameter_base@DV?$stream_output_adapter@D@__crt_stdio_output@@@2@@__crt_stdio_output@@QAEHXZ 100897a0 f i libucrtd:output.obj
 0001:00088af0       ?process@?$output_processor@DV?$stream_output_adapter@D@__crt_stdio_output@@V?$standard_base@DV?$stream_output_adapter@D@__crt_stdio_output@@@2@@__crt_stdio_output@@QAEHXZ 10089af0 f i libucrtd:output.obj
 0001:00088e40       ?process@?$output_processor@DV?$string_output_adapter@D@__crt_stdio_output@@V?$format_validation_base@DV?$string_output_adapter@D@__crt_stdio_output@@@2@@__crt_stdio_output@@QAEHXZ 10089e40 f i libucrtd:output.obj
 0001:00089190       ?process@?$output_processor@DV?$string_output_adapter@D@__crt_stdio_output@@V?$positional_parameter_base@DV?$string_output_adapter@D@__crt_stdio_output@@@2@@__crt_stdio_output@@QAEHXZ 1008a190 f i libucrtd:output.obj
 0001:000894e0       ?process@?$output_processor@DV?$string_output_adapter@D@__crt_stdio_output@@V?$standard_base@DV?$string_output_adapter@D@__crt_stdio_output@@@2@@__crt_stdio_output@@QAEHXZ 1008a4e0 f i libucrtd:output.obj
 0001:00089830       ?process@?$output_processor@_WV?$stream_output_adapter@_W@__crt_stdio_output@@V?$format_validation_base@_WV?$stream_output_adapter@_W@__crt_stdio_output@@@2@@__crt_stdio_output@@QAEHXZ 1008a830 f i libucrtd:output.obj
 0001:00089b80       ?process@?$output_processor@_WV?$stream_output_adapter@_W@__crt_stdio_output@@V?$positional_parameter_base@_WV?$stream_output_adapter@_W@__crt_stdio_output@@@2@@__crt_stdio_output@@QAEHXZ 1008ab80 f i libucrtd:output.obj
 0001:00089ed0       ?process@?$output_processor@_WV?$stream_output_adapter@_W@__crt_stdio_output@@V?$standard_base@_WV?$stream_output_adapter@_W@__crt_stdio_output@@@2@@__crt_stdio_output@@QAEHXZ 1008aed0 f i libucrtd:output.obj
 0001:0008a220       ?process@?$output_processor@_WV?$string_output_adapter@_W@__crt_stdio_output@@V?$format_validation_base@_WV?$string_output_adapter@_W@__crt_stdio_output@@@2@@__crt_stdio_output@@QAEHXZ 1008b220 f i libucrtd:output.obj
 0001:0008a570       ?process@?$output_processor@_WV?$string_output_adapter@_W@__crt_stdio_output@@V?$positional_parameter_base@_WV?$string_output_adapter@_W@__crt_stdio_output@@@2@@__crt_stdio_output@@QAEHXZ 1008b570 f i libucrtd:output.obj
 0001:0008a8c0       ?process@?$output_processor@_WV?$string_output_adapter@_W@__crt_stdio_output@@V?$standard_base@_WV?$string_output_adapter@_W@__crt_stdio_output@@@2@@__crt_stdio_output@@QAEHXZ 1008b8c0 f i libucrtd:output.obj
 0001:0008ac10       ?public_stream@__crt_stdio_stream@@QBEPAU_iobuf@@XZ 1008bc10 f i libucrtd:output.obj
 0001:0008ac30       ?set_flag@?$output_processor@DV?$stream_output_adapter@D@__crt_stdio_output@@V?$format_validation_base@DV?$stream_output_adapter@D@__crt_stdio_output@@@2@@__crt_stdio_output@@AAEXI@Z 1008bc30 f i libucrtd:output.obj
 0001:0008ac60       ?set_flag@?$output_processor@DV?$stream_output_adapter@D@__crt_stdio_output@@V?$positional_parameter_base@DV?$stream_output_adapter@D@__crt_stdio_output@@@2@@__crt_stdio_output@@AAEXI@Z 1008bc60 f i libucrtd:output.obj
 0001:0008ac90       ?set_flag@?$output_processor@DV?$stream_output_adapter@D@__crt_stdio_output@@V?$standard_base@DV?$stream_output_adapter@D@__crt_stdio_output@@@2@@__crt_stdio_output@@AAEXI@Z 1008bc90 f i libucrtd:output.obj
 0001:0008acc0       ?set_flag@?$output_processor@DV?$string_output_adapter@D@__crt_stdio_output@@V?$format_validation_base@DV?$string_output_adapter@D@__crt_stdio_output@@@2@@__crt_stdio_output@@AAEXI@Z 1008bcc0 f i libucrtd:output.obj
 0001:0008acf0       ?set_flag@?$output_processor@DV?$string_output_adapter@D@__crt_stdio_output@@V?$positional_parameter_base@DV?$string_output_adapter@D@__crt_stdio_output@@@2@@__crt_stdio_output@@AAEXI@Z 1008bcf0 f i libucrtd:output.obj
 0001:0008ad20       ?set_flag@?$output_processor@DV?$string_output_adapter@D@__crt_stdio_output@@V?$standard_base@DV?$string_output_adapter@D@__crt_stdio_output@@@2@@__crt_stdio_output@@AAEXI@Z 1008bd20 f i libucrtd:output.obj
 0001:0008ad50       ?set_flag@?$output_processor@_WV?$stream_output_adapter@_W@__crt_stdio_output@@V?$format_validation_base@_WV?$stream_output_adapter@_W@__crt_stdio_output@@@2@@__crt_stdio_output@@AAEXI@Z 1008bd50 f i libucrtd:output.obj
 0001:0008ad80       ?set_flag@?$output_processor@_WV?$stream_output_adapter@_W@__crt_stdio_output@@V?$positional_parameter_base@_WV?$stream_output_adapter@_W@__crt_stdio_output@@@2@@__crt_stdio_output@@AAEXI@Z 1008bd80 f i libucrtd:output.obj
 0001:0008adb0       ?set_flag@?$output_processor@_WV?$stream_output_adapter@_W@__crt_stdio_output@@V?$standard_base@_WV?$stream_output_adapter@_W@__crt_stdio_output@@@2@@__crt_stdio_output@@AAEXI@Z 1008bdb0 f i libucrtd:output.obj
 0001:0008ade0       ?set_flag@?$output_processor@_WV?$string_output_adapter@_W@__crt_stdio_output@@V?$format_validation_base@_WV?$string_output_adapter@_W@__crt_stdio_output@@@2@@__crt_stdio_output@@AAEXI@Z 1008bde0 f i libucrtd:output.obj
 0001:0008ae10       ?set_flag@?$output_processor@_WV?$string_output_adapter@_W@__crt_stdio_output@@V?$positional_parameter_base@_WV?$string_output_adapter@_W@__crt_stdio_output@@@2@@__crt_stdio_output@@AAEXI@Z 1008be10 f i libucrtd:output.obj
 0001:0008ae40       ?set_flag@?$output_processor@_WV?$string_output_adapter@_W@__crt_stdio_output@@V?$standard_base@_WV?$string_output_adapter@_W@__crt_stdio_output@@@2@@__crt_stdio_output@@AAEXI@Z 1008be40 f i libucrtd:output.obj
 0001:0008ae70       ?should_format@?$positional_parameter_base@DV?$stream_output_adapter@D@__crt_stdio_output@@@__crt_stdio_output@@IAE_NXZ 1008be70 f i libucrtd:output.obj
 0001:0008aec0       ?should_format@?$positional_parameter_base@DV?$string_output_adapter@D@__crt_stdio_output@@@__crt_stdio_output@@IAE_NXZ 1008bec0 f i libucrtd:output.obj
 0001:0008af10       ?should_format@?$positional_parameter_base@_WV?$stream_output_adapter@_W@__crt_stdio_output@@@__crt_stdio_output@@IAE_NXZ 1008bf10 f i libucrtd:output.obj
 0001:0008af60       ?should_format@?$positional_parameter_base@_WV?$string_output_adapter@_W@__crt_stdio_output@@@__crt_stdio_output@@IAE_NXZ 1008bf60 f i libucrtd:output.obj
 0001:0008afb0       ?should_format@?$standard_base@DV?$stream_output_adapter@D@__crt_stdio_output@@@__crt_stdio_output@@IAE_NXZ 1008bfb0 f i libucrtd:output.obj
 0001:0008afd0       ?should_format@?$standard_base@DV?$string_output_adapter@D@__crt_stdio_output@@@__crt_stdio_output@@IAE_NXZ 1008bfd0 f i libucrtd:output.obj
 0001:0008aff0       ?should_format@?$standard_base@_WV?$stream_output_adapter@_W@__crt_stdio_output@@@__crt_stdio_output@@IAE_NXZ 1008bff0 f i libucrtd:output.obj
 0001:0008b010       ?should_format@?$standard_base@_WV?$string_output_adapter@_W@__crt_stdio_output@@@__crt_stdio_output@@IAE_NXZ 1008c010 f i libucrtd:output.obj
 0001:0008b030       ?should_skip_normal_state_processing@?$positional_parameter_base@DV?$stream_output_adapter@D@__crt_stdio_output@@@__crt_stdio_output@@IAE_NXZ 1008c030 f i libucrtd:output.obj
 0001:0008b090       ?should_skip_normal_state_processing@?$positional_parameter_base@DV?$string_output_adapter@D@__crt_stdio_output@@@__crt_stdio_output@@IAE_NXZ 1008c090 f i libucrtd:output.obj
 0001:0008b0f0       ?should_skip_normal_state_processing@?$positional_parameter_base@_WV?$stream_output_adapter@_W@__crt_stdio_output@@@__crt_stdio_output@@IAE_NXZ 1008c0f0 f i libucrtd:output.obj
 0001:0008b150       ?should_skip_normal_state_processing@?$positional_parameter_base@_WV?$string_output_adapter@_W@__crt_stdio_output@@@__crt_stdio_output@@IAE_NXZ 1008c150 f i libucrtd:output.obj
 0001:0008b1b0       ?should_skip_normal_state_processing@?$standard_base@DV?$stream_output_adapter@D@__crt_stdio_output@@@__crt_stdio_output@@IAE_NXZ 1008c1b0 f i libucrtd:output.obj
 0001:0008b1d0       ?should_skip_normal_state_processing@?$standard_base@DV?$string_output_adapter@D@__crt_stdio_output@@@__crt_stdio_output@@IAE_NXZ 1008c1d0 f i libucrtd:output.obj
 0001:0008b1f0       ?should_skip_normal_state_processing@?$standard_base@_WV?$stream_output_adapter@_W@__crt_stdio_output@@@__crt_stdio_output@@IAE_NXZ 1008c1f0 f i libucrtd:output.obj
 0001:0008b210       ?should_skip_normal_state_processing@?$standard_base@_WV?$string_output_adapter@_W@__crt_stdio_output@@@__crt_stdio_output@@IAE_NXZ 1008c210 f i libucrtd:output.obj
 0001:0008b230       ?should_skip_type_state_output@?$positional_parameter_base@DV?$stream_output_adapter@D@__crt_stdio_output@@@__crt_stdio_output@@IBE_NXZ 1008c230 f i libucrtd:output.obj
 0001:0008b280       ?should_skip_type_state_output@?$positional_parameter_base@DV?$string_output_adapter@D@__crt_stdio_output@@@__crt_stdio_output@@IBE_NXZ 1008c280 f i libucrtd:output.obj
 0001:0008b2d0       ?should_skip_type_state_output@?$positional_parameter_base@_WV?$stream_output_adapter@_W@__crt_stdio_output@@@__crt_stdio_output@@IBE_NXZ 1008c2d0 f i libucrtd:output.obj
 0001:0008b320       ?should_skip_type_state_output@?$positional_parameter_base@_WV?$string_output_adapter@_W@__crt_stdio_output@@@__crt_stdio_output@@IBE_NXZ 1008c320 f i libucrtd:output.obj
 0001:0008b370       ?should_skip_type_state_output@?$standard_base@DV?$stream_output_adapter@D@__crt_stdio_output@@@__crt_stdio_output@@IBE_NXZ 1008c370 f i libucrtd:output.obj
 0001:0008b390       ?should_skip_type_state_output@?$standard_base@DV?$string_output_adapter@D@__crt_stdio_output@@@__crt_stdio_output@@IBE_NXZ 1008c390 f i libucrtd:output.obj
 0001:0008b3b0       ?should_skip_type_state_output@?$standard_base@_WV?$stream_output_adapter@_W@__crt_stdio_output@@@__crt_stdio_output@@IBE_NXZ 1008c3b0 f i libucrtd:output.obj
 0001:0008b3d0       ?should_skip_type_state_output@?$standard_base@_WV?$string_output_adapter@_W@__crt_stdio_output@@@__crt_stdio_output@@IBE_NXZ 1008c3d0 f i libucrtd:output.obj
 0001:0008b3f0       ?state_case_dot@?$output_processor@DV?$stream_output_adapter@D@__crt_stdio_output@@V?$format_validation_base@DV?$stream_output_adapter@D@__crt_stdio_output@@@2@@__crt_stdio_output@@AAE_NXZ 1008c3f0 f i libucrtd:output.obj
 0001:0008b410       ?state_case_dot@?$output_processor@DV?$stream_output_adapter@D@__crt_stdio_output@@V?$positional_parameter_base@DV?$stream_output_adapter@D@__crt_stdio_output@@@2@@__crt_stdio_output@@AAE_NXZ 1008c410 f i libucrtd:output.obj
 0001:0008b430       ?state_case_dot@?$output_processor@DV?$stream_output_adapter@D@__crt_stdio_output@@V?$standard_base@DV?$stream_output_adapter@D@__crt_stdio_output@@@2@@__crt_stdio_output@@AAE_NXZ 1008c430 f i libucrtd:output.obj
 0001:0008b450       ?state_case_dot@?$output_processor@DV?$string_output_adapter@D@__crt_stdio_output@@V?$format_validation_base@DV?$string_output_adapter@D@__crt_stdio_output@@@2@@__crt_stdio_output@@AAE_NXZ 1008c450 f i libucrtd:output.obj
 0001:0008b470       ?state_case_dot@?$output_processor@DV?$string_output_adapter@D@__crt_stdio_output@@V?$positional_parameter_base@DV?$string_output_adapter@D@__crt_stdio_output@@@2@@__crt_stdio_output@@AAE_NXZ 1008c470 f i libucrtd:output.obj
 0001:0008b490       ?state_case_dot@?$output_processor@DV?$string_output_adapter@D@__crt_stdio_output@@V?$standard_base@DV?$string_output_adapter@D@__crt_stdio_output@@@2@@__crt_stdio_output@@AAE_NXZ 1008c490 f i libucrtd:output.obj
 0001:0008b4b0       ?state_case_dot@?$output_processor@_WV?$stream_output_adapter@_W@__crt_stdio_output@@V?$format_validation_base@_WV?$stream_output_adapter@_W@__crt_stdio_output@@@2@@__crt_stdio_output@@AAE_NXZ 1008c4b0 f i libucrtd:output.obj
 0001:0008b4d0       ?state_case_dot@?$output_processor@_WV?$stream_output_adapter@_W@__crt_stdio_output@@V?$positional_parameter_base@_WV?$stream_output_adapter@_W@__crt_stdio_output@@@2@@__crt_stdio_output@@AAE_NXZ 1008c4d0 f i libucrtd:output.obj
 0001:0008b4f0       ?state_case_dot@?$output_processor@_WV?$stream_output_adapter@_W@__crt_stdio_output@@V?$standard_base@_WV?$stream_output_adapter@_W@__crt_stdio_output@@@2@@__crt_stdio_output@@AAE_NXZ 1008c4f0 f i libucrtd:output.obj
 0001:0008b510       ?state_case_dot@?$output_processor@_WV?$string_output_adapter@_W@__crt_stdio_output@@V?$format_validation_base@_WV?$string_output_adapter@_W@__crt_stdio_output@@@2@@__crt_stdio_output@@AAE_NXZ 1008c510 f i libucrtd:output.obj
 0001:0008b530       ?state_case_dot@?$output_processor@_WV?$string_output_adapter@_W@__crt_stdio_output@@V?$positional_parameter_base@_WV?$string_output_adapter@_W@__crt_stdio_output@@@2@@__crt_stdio_output@@AAE_NXZ 1008c530 f i libucrtd:output.obj
 0001:0008b550       ?state_case_dot@?$output_processor@_WV?$string_output_adapter@_W@__crt_stdio_output@@V?$standard_base@_WV?$string_output_adapter@_W@__crt_stdio_output@@@2@@__crt_stdio_output@@AAE_NXZ 1008c550 f i libucrtd:output.obj
 0001:0008b570       ?state_case_flag@?$output_processor@DV?$stream_output_adapter@D@__crt_stdio_output@@V?$format_validation_base@DV?$stream_output_adapter@D@__crt_stdio_output@@@2@@__crt_stdio_output@@AAE_NXZ 1008c570 f i libucrtd:output.obj
 0001:0008b640       ?state_case_flag@?$output_processor@DV?$stream_output_adapter@D@__crt_stdio_output@@V?$positional_parameter_base@DV?$stream_output_adapter@D@__crt_stdio_output@@@2@@__crt_stdio_output@@AAE_NXZ 1008c640 f i libucrtd:output.obj
 0001:0008b710       ?state_case_flag@?$output_processor@DV?$stream_output_adapter@D@__crt_stdio_output@@V?$standard_base@DV?$stream_output_adapter@D@__crt_stdio_output@@@2@@__crt_stdio_output@@AAE_NXZ 1008c710 f i libucrtd:output.obj
 0001:0008b7e0       ?state_case_flag@?$output_processor@DV?$string_output_adapter@D@__crt_stdio_output@@V?$format_validation_base@DV?$string_output_adapter@D@__crt_stdio_output@@@2@@__crt_stdio_output@@AAE_NXZ 1008c7e0 f i libucrtd:output.obj
 0001:0008b8b0       ?state_case_flag@?$output_processor@DV?$string_output_adapter@D@__crt_stdio_output@@V?$positional_parameter_base@DV?$string_output_adapter@D@__crt_stdio_output@@@2@@__crt_stdio_output@@AAE_NXZ 1008c8b0 f i libucrtd:output.obj
 0001:0008b980       ?state_case_flag@?$output_processor@DV?$string_output_adapter@D@__crt_stdio_output@@V?$standard_base@DV?$string_output_adapter@D@__crt_stdio_output@@@2@@__crt_stdio_output@@AAE_NXZ 1008c980 f i libucrtd:output.obj
 0001:0008ba50       ?state_case_flag@?$output_processor@_WV?$stream_output_adapter@_W@__crt_stdio_output@@V?$format_validation_base@_WV?$stream_output_adapter@_W@__crt_stdio_output@@@2@@__crt_stdio_output@@AAE_NXZ 1008ca50 f i libucrtd:output.obj
 0001:0008bb20       ?state_case_flag@?$output_processor@_WV?$stream_output_adapter@_W@__crt_stdio_output@@V?$positional_parameter_base@_WV?$stream_output_adapter@_W@__crt_stdio_output@@@2@@__crt_stdio_output@@AAE_NXZ 1008cb20 f i libucrtd:output.obj
 0001:0008bbf0       ?state_case_flag@?$output_processor@_WV?$stream_output_adapter@_W@__crt_stdio_output@@V?$standard_base@_WV?$stream_output_adapter@_W@__crt_stdio_output@@@2@@__crt_stdio_output@@AAE_NXZ 1008cbf0 f i libucrtd:output.obj
 0001:0008bcc0       ?state_case_flag@?$output_processor@_WV?$string_output_adapter@_W@__crt_stdio_output@@V?$format_validation_base@_WV?$string_output_adapter@_W@__crt_stdio_output@@@2@@__crt_stdio_output@@AAE_NXZ 1008ccc0 f i libucrtd:output.obj
 0001:0008bd90       ?state_case_flag@?$output_processor@_WV?$string_output_adapter@_W@__crt_stdio_output@@V?$positional_parameter_base@_WV?$string_output_adapter@_W@__crt_stdio_output@@@2@@__crt_stdio_output@@AAE_NXZ 1008cd90 f i libucrtd:output.obj
 0001:0008be60       ?state_case_flag@?$output_processor@_WV?$string_output_adapter@_W@__crt_stdio_output@@V?$standard_base@_WV?$string_output_adapter@_W@__crt_stdio_output@@@2@@__crt_stdio_output@@AAE_NXZ 1008ce60 f i libucrtd:output.obj
 0001:0008bf30       ?state_case_normal@?$output_processor@DV?$stream_output_adapter@D@__crt_stdio_output@@V?$format_validation_base@DV?$stream_output_adapter@D@__crt_stdio_output@@@2@@__crt_stdio_output@@AAE_NXZ 1008cf30 f i libucrtd:output.obj
 0001:0008c010       ?state_case_normal@?$output_processor@DV?$stream_output_adapter@D@__crt_stdio_output@@V?$positional_parameter_base@DV?$stream_output_adapter@D@__crt_stdio_output@@@2@@__crt_stdio_output@@AAE_NXZ 1008d010 f i libucrtd:output.obj
 0001:0008c0f0       ?state_case_normal@?$output_processor@DV?$stream_output_adapter@D@__crt_stdio_output@@V?$standard_base@DV?$stream_output_adapter@D@__crt_stdio_output@@@2@@__crt_stdio_output@@AAE_NXZ 1008d0f0 f i libucrtd:output.obj
 0001:0008c1d0       ?state_case_normal@?$output_processor@DV?$string_output_adapter@D@__crt_stdio_output@@V?$format_validation_base@DV?$string_output_adapter@D@__crt_stdio_output@@@2@@__crt_stdio_output@@AAE_NXZ 1008d1d0 f i libucrtd:output.obj
 0001:0008c2b0       ?state_case_normal@?$output_processor@DV?$string_output_adapter@D@__crt_stdio_output@@V?$positional_parameter_base@DV?$string_output_adapter@D@__crt_stdio_output@@@2@@__crt_stdio_output@@AAE_NXZ 1008d2b0 f i libucrtd:output.obj
 0001:0008c390       ?state_case_normal@?$output_processor@DV?$string_output_adapter@D@__crt_stdio_output@@V?$standard_base@DV?$string_output_adapter@D@__crt_stdio_output@@@2@@__crt_stdio_output@@AAE_NXZ 1008d390 f i libucrtd:output.obj
 0001:0008c470       ?state_case_normal@?$output_processor@_WV?$stream_output_adapter@_W@__crt_stdio_output@@V?$format_validation_base@_WV?$stream_output_adapter@_W@__crt_stdio_output@@@2@@__crt_stdio_output@@AAE_NXZ 1008d470 f i libucrtd:output.obj
 0001:0008c550       ?state_case_normal@?$output_processor@_WV?$stream_output_adapter@_W@__crt_stdio_output@@V?$positional_parameter_base@_WV?$stream_output_adapter@_W@__crt_stdio_output@@@2@@__crt_stdio_output@@AAE_NXZ 1008d550 f i libucrtd:output.obj
 0001:0008c630       ?state_case_normal@?$output_processor@_WV?$stream_output_adapter@_W@__crt_stdio_output@@V?$standard_base@_WV?$stream_output_adapter@_W@__crt_stdio_output@@@2@@__crt_stdio_output@@AAE_NXZ 1008d630 f i libucrtd:output.obj
 0001:0008c710       ?state_case_normal@?$output_processor@_WV?$string_output_adapter@_W@__crt_stdio_output@@V?$format_validation_base@_WV?$string_output_adapter@_W@__crt_stdio_output@@@2@@__crt_stdio_output@@AAE_NXZ 1008d710 f i libucrtd:output.obj
 0001:0008c7f0       ?state_case_normal@?$output_processor@_WV?$string_output_adapter@_W@__crt_stdio_output@@V?$positional_parameter_base@_WV?$string_output_adapter@_W@__crt_stdio_output@@@2@@__crt_stdio_output@@AAE_NXZ 1008d7f0 f i libucrtd:output.obj
 0001:0008c8d0       ?state_case_normal@?$output_processor@_WV?$string_output_adapter@_W@__crt_stdio_output@@V?$standard_base@_WV?$string_output_adapter@_W@__crt_stdio_output@@@2@@__crt_stdio_output@@AAE_NXZ 1008d8d0 f i libucrtd:output.obj
 0001:0008c9b0       ?state_case_normal_common@?$output_processor@DV?$stream_output_adapter@D@__crt_stdio_output@@V?$format_validation_base@DV?$stream_output_adapter@D@__crt_stdio_output@@@2@@__crt_stdio_output@@AAE_NXZ 1008d9b0 f i libucrtd:output.obj
 0001:0008ca10       ?state_case_normal_common@?$output_processor@DV?$stream_output_adapter@D@__crt_stdio_output@@V?$positional_parameter_base@DV?$stream_output_adapter@D@__crt_stdio_output@@@2@@__crt_stdio_output@@AAE_NXZ 1008da10 f i libucrtd:output.obj
 0001:0008ca70       ?state_case_normal_common@?$output_processor@DV?$stream_output_adapter@D@__crt_stdio_output@@V?$standard_base@DV?$stream_output_adapter@D@__crt_stdio_output@@@2@@__crt_stdio_output@@AAE_NXZ 1008da70 f i libucrtd:output.obj
 0001:0008cad0       ?state_case_normal_common@?$output_processor@DV?$string_output_adapter@D@__crt_stdio_output@@V?$format_validation_base@DV?$string_output_adapter@D@__crt_stdio_output@@@2@@__crt_stdio_output@@AAE_NXZ 1008dad0 f i libucrtd:output.obj
 0001:0008cb30       ?state_case_normal_common@?$output_processor@DV?$string_output_adapter@D@__crt_stdio_output@@V?$positional_parameter_base@DV?$string_output_adapter@D@__crt_stdio_output@@@2@@__crt_stdio_output@@AAE_NXZ 1008db30 f i libucrtd:output.obj
 0001:0008cb90       ?state_case_normal_common@?$output_processor@DV?$string_output_adapter@D@__crt_stdio_output@@V?$standard_base@DV?$string_output_adapter@D@__crt_stdio_output@@@2@@__crt_stdio_output@@AAE_NXZ 1008db90 f i libucrtd:output.obj
 0001:0008cbf0       ?state_case_normal_common@?$output_processor@_WV?$stream_output_adapter@_W@__crt_stdio_output@@V?$format_validation_base@_WV?$stream_output_adapter@_W@__crt_stdio_output@@@2@@__crt_stdio_output@@AAE_NXZ 1008dbf0 f i libucrtd:output.obj
 0001:0008cc50       ?state_case_normal_common@?$output_processor@_WV?$stream_output_adapter@_W@__crt_stdio_output@@V?$positional_parameter_base@_WV?$stream_output_adapter@_W@__crt_stdio_output@@@2@@__crt_stdio_output@@AAE_NXZ 1008dc50 f i libucrtd:output.obj
 0001:0008ccb0       ?state_case_normal_common@?$output_processor@_WV?$stream_output_adapter@_W@__crt_stdio_output@@V?$standard_base@_WV?$stream_output_adapter@_W@__crt_stdio_output@@@2@@__crt_stdio_output@@AAE_NXZ 1008dcb0 f i libucrtd:output.obj
 0001:0008cd10       ?state_case_normal_common@?$output_processor@_WV?$string_output_adapter@_W@__crt_stdio_output@@V?$format_validation_base@_WV?$string_output_adapter@_W@__crt_stdio_output@@@2@@__crt_stdio_output@@AAE_NXZ 1008dd10 f i libucrtd:output.obj
 0001:0008cd70       ?state_case_normal_common@?$output_processor@_WV?$string_output_adapter@_W@__crt_stdio_output@@V?$positional_parameter_base@_WV?$string_output_adapter@_W@__crt_stdio_output@@@2@@__crt_stdio_output@@AAE_NXZ 1008dd70 f i libucrtd:output.obj
 0001:0008cdd0       ?state_case_normal_common@?$output_processor@_WV?$string_output_adapter@_W@__crt_stdio_output@@V?$standard_base@_WV?$string_output_adapter@_W@__crt_stdio_output@@@2@@__crt_stdio_output@@AAE_NXZ 1008ddd0 f i libucrtd:output.obj
 0001:0008ce30       ?state_case_normal_tchar@?$output_processor@DV?$stream_output_adapter@D@__crt_stdio_output@@V?$format_validation_base@DV?$stream_output_adapter@D@__crt_stdio_output@@@2@@__crt_stdio_output@@AAE_ND@Z 1008de30 f i libucrtd:output.obj
 0001:0008cf60       ?state_case_normal_tchar@?$output_processor@DV?$stream_output_adapter@D@__crt_stdio_output@@V?$positional_parameter_base@DV?$stream_output_adapter@D@__crt_stdio_output@@@2@@__crt_stdio_output@@AAE_ND@Z 1008df60 f i libucrtd:output.obj
 0001:0008d090       ?state_case_normal_tchar@?$output_processor@DV?$stream_output_adapter@D@__crt_stdio_output@@V?$standard_base@DV?$stream_output_adapter@D@__crt_stdio_output@@@2@@__crt_stdio_output@@AAE_ND@Z 1008e090 f i libucrtd:output.obj
 0001:0008d1c0       ?state_case_normal_tchar@?$output_processor@DV?$string_output_adapter@D@__crt_stdio_output@@V?$format_validation_base@DV?$string_output_adapter@D@__crt_stdio_output@@@2@@__crt_stdio_output@@AAE_ND@Z 1008e1c0 f i libucrtd:output.obj
 0001:0008d2f0       ?state_case_normal_tchar@?$output_processor@DV?$string_output_adapter@D@__crt_stdio_output@@V?$positional_parameter_base@DV?$string_output_adapter@D@__crt_stdio_output@@@2@@__crt_stdio_output@@AAE_ND@Z 1008e2f0 f i libucrtd:output.obj
 0001:0008d420       ?state_case_normal_tchar@?$output_processor@DV?$string_output_adapter@D@__crt_stdio_output@@V?$standard_base@DV?$string_output_adapter@D@__crt_stdio_output@@@2@@__crt_stdio_output@@AAE_ND@Z 1008e420 f i libucrtd:output.obj
 0001:0008d550       ?state_case_normal_tchar@?$output_processor@_WV?$stream_output_adapter@_W@__crt_stdio_output@@V?$format_validation_base@_WV?$stream_output_adapter@_W@__crt_stdio_output@@@2@@__crt_stdio_output@@AAE_N_W@Z 1008e550 f i libucrtd:output.obj
 0001:0008d570       ?state_case_normal_tchar@?$output_processor@_WV?$stream_output_adapter@_W@__crt_stdio_output@@V?$positional_parameter_base@_WV?$stream_output_adapter@_W@__crt_stdio_output@@@2@@__crt_stdio_output@@AAE_N_W@Z 1008e570 f i libucrtd:output.obj
 0001:0008d590       ?state_case_normal_tchar@?$output_processor@_WV?$stream_output_adapter@_W@__crt_stdio_output@@V?$standard_base@_WV?$stream_output_adapter@_W@__crt_stdio_output@@@2@@__crt_stdio_output@@AAE_N_W@Z 1008e590 f i libucrtd:output.obj
 0001:0008d5b0       ?state_case_normal_tchar@?$output_processor@_WV?$string_output_adapter@_W@__crt_stdio_output@@V?$format_validation_base@_WV?$string_output_adapter@_W@__crt_stdio_output@@@2@@__crt_stdio_output@@AAE_N_W@Z 1008e5b0 f i libucrtd:output.obj
 0001:0008d5d0       ?state_case_normal_tchar@?$output_processor@_WV?$string_output_adapter@_W@__crt_stdio_output@@V?$positional_parameter_base@_WV?$string_output_adapter@_W@__crt_stdio_output@@@2@@__crt_stdio_output@@AAE_N_W@Z 1008e5d0 f i libucrtd:output.obj
 0001:0008d5f0       ?state_case_normal_tchar@?$output_processor@_WV?$string_output_adapter@_W@__crt_stdio_output@@V?$standard_base@_WV?$string_output_adapter@_W@__crt_stdio_output@@@2@@__crt_stdio_output@@AAE_N_W@Z 1008e5f0 f i libucrtd:output.obj
 0001:0008d610       ?state_case_percent@?$output_processor@DV?$stream_output_adapter@D@__crt_stdio_output@@V?$format_validation_base@DV?$stream_output_adapter@D@__crt_stdio_output@@@2@@__crt_stdio_output@@AAE_NXZ 1008e610 f i libucrtd:output.obj
 0001:0008d670       ?state_case_percent@?$output_processor@DV?$stream_output_adapter@D@__crt_stdio_output@@V?$positional_parameter_base@DV?$stream_output_adapter@D@__crt_stdio_output@@@2@@__crt_stdio_output@@AAE_NXZ 1008e670 f i libucrtd:output.obj
 0001:0008d6d0       ?state_case_percent@?$output_processor@DV?$stream_output_adapter@D@__crt_stdio_output@@V?$standard_base@DV?$stream_output_adapter@D@__crt_stdio_output@@@2@@__crt_stdio_output@@AAE_NXZ 1008e6d0 f i libucrtd:output.obj
 0001:0008d730       ?state_case_percent@?$output_processor@DV?$string_output_adapter@D@__crt_stdio_output@@V?$format_validation_base@DV?$string_output_adapter@D@__crt_stdio_output@@@2@@__crt_stdio_output@@AAE_NXZ 1008e730 f i libucrtd:output.obj
 0001:0008d790       ?state_case_percent@?$output_processor@DV?$string_output_adapter@D@__crt_stdio_output@@V?$positional_parameter_base@DV?$string_output_adapter@D@__crt_stdio_output@@@2@@__crt_stdio_output@@AAE_NXZ 1008e790 f i libucrtd:output.obj
 0001:0008d7f0       ?state_case_percent@?$output_processor@DV?$string_output_adapter@D@__crt_stdio_output@@V?$standard_base@DV?$string_output_adapter@D@__crt_stdio_output@@@2@@__crt_stdio_output@@AAE_NXZ 1008e7f0 f i libucrtd:output.obj
 0001:0008d850       ?state_case_percent@?$output_processor@_WV?$stream_output_adapter@_W@__crt_stdio_output@@V?$format_validation_base@_WV?$stream_output_adapter@_W@__crt_stdio_output@@@2@@__crt_stdio_output@@AAE_NXZ 1008e850 f i libucrtd:output.obj
 0001:0008d8b0       ?state_case_percent@?$output_processor@_WV?$stream_output_adapter@_W@__crt_stdio_output@@V?$positional_parameter_base@_WV?$stream_output_adapter@_W@__crt_stdio_output@@@2@@__crt_stdio_output@@AAE_NXZ 1008e8b0 f i libucrtd:output.obj
 0001:0008d910       ?state_case_percent@?$output_processor@_WV?$stream_output_adapter@_W@__crt_stdio_output@@V?$standard_base@_WV?$stream_output_adapter@_W@__crt_stdio_output@@@2@@__crt_stdio_output@@AAE_NXZ 1008e910 f i libucrtd:output.obj
 0001:0008d970       ?state_case_percent@?$output_processor@_WV?$string_output_adapter@_W@__crt_stdio_output@@V?$format_validation_base@_WV?$string_output_adapter@_W@__crt_stdio_output@@@2@@__crt_stdio_output@@AAE_NXZ 1008e970 f i libucrtd:output.obj
 0001:0008d9d0       ?state_case_percent@?$output_processor@_WV?$string_output_adapter@_W@__crt_stdio_output@@V?$positional_parameter_base@_WV?$string_output_adapter@_W@__crt_stdio_output@@@2@@__crt_stdio_output@@AAE_NXZ 1008e9d0 f i libucrtd:output.obj
 0001:0008da30       ?state_case_percent@?$output_processor@_WV?$string_output_adapter@_W@__crt_stdio_output@@V?$standard_base@_WV?$string_output_adapter@_W@__crt_stdio_output@@@2@@__crt_stdio_output@@AAE_NXZ 1008ea30 f i libucrtd:output.obj
 0001:0008da90       ?state_case_precision@?$output_processor@DV?$stream_output_adapter@D@__crt_stdio_output@@V?$format_validation_base@DV?$stream_output_adapter@D@__crt_stdio_output@@@2@@__crt_stdio_output@@AAE_NXZ 1008ea90 f i libucrtd:output.obj
 0001:0008db10       ?state_case_precision@?$output_processor@DV?$stream_output_adapter@D@__crt_stdio_output@@V?$positional_parameter_base@DV?$stream_output_adapter@D@__crt_stdio_output@@@2@@__crt_stdio_output@@AAE_NXZ 1008eb10 f i libucrtd:output.obj
 0001:0008db90       ?state_case_precision@?$output_processor@DV?$stream_output_adapter@D@__crt_stdio_output@@V?$standard_base@DV?$stream_output_adapter@D@__crt_stdio_output@@@2@@__crt_stdio_output@@AAE_NXZ 1008eb90 f i libucrtd:output.obj
 0001:0008dc10       ?state_case_precision@?$output_processor@DV?$string_output_adapter@D@__crt_stdio_output@@V?$format_validation_base@DV?$string_output_adapter@D@__crt_stdio_output@@@2@@__crt_stdio_output@@AAE_NXZ 1008ec10 f i libucrtd:output.obj
 0001:0008dc90       ?state_case_precision@?$output_processor@DV?$string_output_adapter@D@__crt_stdio_output@@V?$positional_parameter_base@DV?$string_output_adapter@D@__crt_stdio_output@@@2@@__crt_stdio_output@@AAE_NXZ 1008ec90 f i libucrtd:output.obj
 0001:0008dd10       ?state_case_precision@?$output_processor@DV?$string_output_adapter@D@__crt_stdio_output@@V?$standard_base@DV?$string_output_adapter@D@__crt_stdio_output@@@2@@__crt_stdio_output@@AAE_NXZ 1008ed10 f i libucrtd:output.obj
 0001:0008dd90       ?state_case_precision@?$output_processor@_WV?$stream_output_adapter@_W@__crt_stdio_output@@V?$format_validation_base@_WV?$stream_output_adapter@_W@__crt_stdio_output@@@2@@__crt_stdio_output@@AAE_NXZ 1008ed90 f i libucrtd:output.obj
 0001:0008de10       ?state_case_precision@?$output_processor@_WV?$stream_output_adapter@_W@__crt_stdio_output@@V?$positional_parameter_base@_WV?$stream_output_adapter@_W@__crt_stdio_output@@@2@@__crt_stdio_output@@AAE_NXZ 1008ee10 f i libucrtd:output.obj
 0001:0008de90       ?state_case_precision@?$output_processor@_WV?$stream_output_adapter@_W@__crt_stdio_output@@V?$standard_base@_WV?$stream_output_adapter@_W@__crt_stdio_output@@@2@@__crt_stdio_output@@AAE_NXZ 1008ee90 f i libucrtd:output.obj
 0001:0008df10       ?state_case_precision@?$output_processor@_WV?$string_output_adapter@_W@__crt_stdio_output@@V?$format_validation_base@_WV?$string_output_adapter@_W@__crt_stdio_output@@@2@@__crt_stdio_output@@AAE_NXZ 1008ef10 f i libucrtd:output.obj
 0001:0008df90       ?state_case_precision@?$output_processor@_WV?$string_output_adapter@_W@__crt_stdio_output@@V?$positional_parameter_base@_WV?$string_output_adapter@_W@__crt_stdio_output@@@2@@__crt_stdio_output@@AAE_NXZ 1008ef90 f i libucrtd:output.obj
 0001:0008e010       ?state_case_precision@?$output_processor@_WV?$string_output_adapter@_W@__crt_stdio_output@@V?$standard_base@_WV?$string_output_adapter@_W@__crt_stdio_output@@@2@@__crt_stdio_output@@AAE_NXZ 1008f010 f i libucrtd:output.obj
 0001:0008e090       ?state_case_size@?$output_processor@DV?$stream_output_adapter@D@__crt_stdio_output@@V?$format_validation_base@DV?$stream_output_adapter@D@__crt_stdio_output@@@2@@__crt_stdio_output@@AAE_NXZ 1008f090 f i libucrtd:output.obj
 0001:0008e550       ?state_case_size@?$output_processor@DV?$stream_output_adapter@D@__crt_stdio_output@@V?$positional_parameter_base@DV?$stream_output_adapter@D@__crt_stdio_output@@@2@@__crt_stdio_output@@AAE_NXZ 1008f550 f i libucrtd:output.obj
 0001:0008ea10       ?state_case_size@?$output_processor@DV?$stream_output_adapter@D@__crt_stdio_output@@V?$standard_base@DV?$stream_output_adapter@D@__crt_stdio_output@@@2@@__crt_stdio_output@@AAE_NXZ 1008fa10 f i libucrtd:output.obj
 0001:0008eed0       ?state_case_size@?$output_processor@DV?$string_output_adapter@D@__crt_stdio_output@@V?$format_validation_base@DV?$string_output_adapter@D@__crt_stdio_output@@@2@@__crt_stdio_output@@AAE_NXZ 1008fed0 f i libucrtd:output.obj
 0001:0008f390       ?state_case_size@?$output_processor@DV?$string_output_adapter@D@__crt_stdio_output@@V?$positional_parameter_base@DV?$string_output_adapter@D@__crt_stdio_output@@@2@@__crt_stdio_output@@AAE_NXZ 10090390 f i libucrtd:output.obj
 0001:0008f850       ?state_case_size@?$output_processor@DV?$string_output_adapter@D@__crt_stdio_output@@V?$standard_base@DV?$string_output_adapter@D@__crt_stdio_output@@@2@@__crt_stdio_output@@AAE_NXZ 10090850 f i libucrtd:output.obj
 0001:0008fd10       ?state_case_size@?$output_processor@_WV?$stream_output_adapter@_W@__crt_stdio_output@@V?$format_validation_base@_WV?$stream_output_adapter@_W@__crt_stdio_output@@@2@@__crt_stdio_output@@AAE_NXZ 10090d10 f i libucrtd:output.obj
 0001:000901d0       ?state_case_size@?$output_processor@_WV?$stream_output_adapter@_W@__crt_stdio_output@@V?$positional_parameter_base@_WV?$stream_output_adapter@_W@__crt_stdio_output@@@2@@__crt_stdio_output@@AAE_NXZ 100911d0 f i libucrtd:output.obj
 0001:00090690       ?state_case_size@?$output_processor@_WV?$stream_output_adapter@_W@__crt_stdio_output@@V?$standard_base@_WV?$stream_output_adapter@_W@__crt_stdio_output@@@2@@__crt_stdio_output@@AAE_NXZ 10091690 f i libucrtd:output.obj
 0001:00090b50       ?state_case_size@?$output_processor@_WV?$string_output_adapter@_W@__crt_stdio_output@@V?$format_validation_base@_WV?$string_output_adapter@_W@__crt_stdio_output@@@2@@__crt_stdio_output@@AAE_NXZ 10091b50 f i libucrtd:output.obj
 0001:00091010       ?state_case_size@?$output_processor@_WV?$string_output_adapter@_W@__crt_stdio_output@@V?$positional_parameter_base@_WV?$string_output_adapter@_W@__crt_stdio_output@@@2@@__crt_stdio_output@@AAE_NXZ 10092010 f i libucrtd:output.obj
 0001:000914d0       ?state_case_size@?$output_processor@_WV?$string_output_adapter@_W@__crt_stdio_output@@V?$standard_base@_WV?$string_output_adapter@_W@__crt_stdio_output@@@2@@__crt_stdio_output@@AAE_NXZ 100924d0 f i libucrtd:output.obj
 0001:00091990       ?state_case_type@?$output_processor@DV?$stream_output_adapter@D@__crt_stdio_output@@V?$format_validation_base@DV?$stream_output_adapter@D@__crt_stdio_output@@@2@@__crt_stdio_output@@AAE_NXZ 10092990 f i libucrtd:output.obj
 0001:00091e30       ?state_case_type@?$output_processor@DV?$stream_output_adapter@D@__crt_stdio_output@@V?$positional_parameter_base@DV?$stream_output_adapter@D@__crt_stdio_output@@@2@@__crt_stdio_output@@AAE_NXZ 10092e30 f i libucrtd:output.obj
 0001:000922d0       ?state_case_type@?$output_processor@DV?$stream_output_adapter@D@__crt_stdio_output@@V?$standard_base@DV?$stream_output_adapter@D@__crt_stdio_output@@@2@@__crt_stdio_output@@AAE_NXZ 100932d0 f i libucrtd:output.obj
 0001:00092770       ?state_case_type@?$output_processor@DV?$string_output_adapter@D@__crt_stdio_output@@V?$format_validation_base@DV?$string_output_adapter@D@__crt_stdio_output@@@2@@__crt_stdio_output@@AAE_NXZ 10093770 f i libucrtd:output.obj
 0001:00092c10       ?state_case_type@?$output_processor@DV?$string_output_adapter@D@__crt_stdio_output@@V?$positional_parameter_base@DV?$string_output_adapter@D@__crt_stdio_output@@@2@@__crt_stdio_output@@AAE_NXZ 10093c10 f i libucrtd:output.obj
 0001:000930b0       ?state_case_type@?$output_processor@DV?$string_output_adapter@D@__crt_stdio_output@@V?$standard_base@DV?$string_output_adapter@D@__crt_stdio_output@@@2@@__crt_stdio_output@@AAE_NXZ 100940b0 f i libucrtd:output.obj
 0001:00093550       ?state_case_type@?$output_processor@_WV?$stream_output_adapter@_W@__crt_stdio_output@@V?$format_validation_base@_WV?$stream_output_adapter@_W@__crt_stdio_output@@@2@@__crt_stdio_output@@AAE_NXZ 10094550 f i libucrtd:output.obj
 0001:00093a20       ?state_case_type@?$output_processor@_WV?$stream_output_adapter@_W@__crt_stdio_output@@V?$positional_parameter_base@_WV?$stream_output_adapter@_W@__crt_stdio_output@@@2@@__crt_stdio_output@@AAE_NXZ 10094a20 f i libucrtd:output.obj
 0001:00093ef0       ?state_case_type@?$output_processor@_WV?$stream_output_adapter@_W@__crt_stdio_output@@V?$standard_base@_WV?$stream_output_adapter@_W@__crt_stdio_output@@@2@@__crt_stdio_output@@AAE_NXZ 10094ef0 f i libucrtd:output.obj
 0001:000943c0       ?state_case_type@?$output_processor@_WV?$string_output_adapter@_W@__crt_stdio_output@@V?$format_validation_base@_WV?$string_output_adapter@_W@__crt_stdio_output@@@2@@__crt_stdio_output@@AAE_NXZ 100953c0 f i libucrtd:output.obj
 0001:00094890       ?state_case_type@?$output_processor@_WV?$string_output_adapter@_W@__crt_stdio_output@@V?$positional_parameter_base@_WV?$string_output_adapter@_W@__crt_stdio_output@@@2@@__crt_stdio_output@@AAE_NXZ 10095890 f i libucrtd:output.obj
 0001:00094d60       ?state_case_type@?$output_processor@_WV?$string_output_adapter@_W@__crt_stdio_output@@V?$standard_base@_WV?$string_output_adapter@_W@__crt_stdio_output@@@2@@__crt_stdio_output@@AAE_NXZ 10095d60 f i libucrtd:output.obj
 0001:00095230       ?state_case_width@?$output_processor@DV?$stream_output_adapter@D@__crt_stdio_output@@V?$format_validation_base@DV?$stream_output_adapter@D@__crt_stdio_output@@@2@@__crt_stdio_output@@AAE_NXZ 10096230 f i libucrtd:output.obj
 0001:000952c0       ?state_case_width@?$output_processor@DV?$stream_output_adapter@D@__crt_stdio_output@@V?$positional_parameter_base@DV?$stream_output_adapter@D@__crt_stdio_output@@@2@@__crt_stdio_output@@AAE_NXZ 100962c0 f i libucrtd:output.obj
 0001:00095350       ?state_case_width@?$output_processor@DV?$stream_output_adapter@D@__crt_stdio_output@@V?$standard_base@DV?$stream_output_adapter@D@__crt_stdio_output@@@2@@__crt_stdio_output@@AAE_NXZ 10096350 f i libucrtd:output.obj
 0001:000953e0       ?state_case_width@?$output_processor@DV?$string_output_adapter@D@__crt_stdio_output@@V?$format_validation_base@DV?$string_output_adapter@D@__crt_stdio_output@@@2@@__crt_stdio_output@@AAE_NXZ 100963e0 f i libucrtd:output.obj
 0001:00095470       ?state_case_width@?$output_processor@DV?$string_output_adapter@D@__crt_stdio_output@@V?$positional_parameter_base@DV?$string_output_adapter@D@__crt_stdio_output@@@2@@__crt_stdio_output@@AAE_NXZ 10096470 f i libucrtd:output.obj
 0001:00095500       ?state_case_width@?$output_processor@DV?$string_output_adapter@D@__crt_stdio_output@@V?$standard_base@DV?$string_output_adapter@D@__crt_stdio_output@@@2@@__crt_stdio_output@@AAE_NXZ 10096500 f i libucrtd:output.obj
 0001:00095590       ?state_case_width@?$output_processor@_WV?$stream_output_adapter@_W@__crt_stdio_output@@V?$format_validation_base@_WV?$stream_output_adapter@_W@__crt_stdio_output@@@2@@__crt_stdio_output@@AAE_NXZ 10096590 f i libucrtd:output.obj
 0001:00095620       ?state_case_width@?$output_processor@_WV?$stream_output_adapter@_W@__crt_stdio_output@@V?$positional_parameter_base@_WV?$stream_output_adapter@_W@__crt_stdio_output@@@2@@__crt_stdio_output@@AAE_NXZ 10096620 f i libucrtd:output.obj
 0001:000956b0       ?state_case_width@?$output_processor@_WV?$stream_output_adapter@_W@__crt_stdio_output@@V?$standard_base@_WV?$stream_output_adapter@_W@__crt_stdio_output@@@2@@__crt_stdio_output@@AAE_NXZ 100966b0 f i libucrtd:output.obj
 0001:00095740       ?state_case_width@?$output_processor@_WV?$string_output_adapter@_W@__crt_stdio_output@@V?$format_validation_base@_WV?$string_output_adapter@_W@__crt_stdio_output@@@2@@__crt_stdio_output@@AAE_NXZ 10096740 f i libucrtd:output.obj
 0001:000957d0       ?state_case_width@?$output_processor@_WV?$string_output_adapter@_W@__crt_stdio_output@@V?$positional_parameter_base@_WV?$string_output_adapter@_W@__crt_stdio_output@@@2@@__crt_stdio_output@@AAE_NXZ 100967d0 f i libucrtd:output.obj
 0001:00095860       ?state_case_width@?$output_processor@_WV?$string_output_adapter@_W@__crt_stdio_output@@V?$standard_base@_WV?$string_output_adapter@_W@__crt_stdio_output@@@2@@__crt_stdio_output@@AAE_NXZ 10096860 f i libucrtd:output.obj
 0001:000958f0       ?state_count@?$format_validation_base@DV?$stream_output_adapter@D@__crt_stdio_output@@@__crt_stdio_output@@KAIXZ 100968f0 f i libucrtd:output.obj
 0001:00095900       ?state_count@?$format_validation_base@DV?$string_output_adapter@D@__crt_stdio_output@@@__crt_stdio_output@@KAIXZ 10096900 f i libucrtd:output.obj
 0001:00095910       ?state_count@?$format_validation_base@_WV?$stream_output_adapter@_W@__crt_stdio_output@@@__crt_stdio_output@@KAIXZ 10096910 f i libucrtd:output.obj
 0001:00095920       ?state_count@?$format_validation_base@_WV?$string_output_adapter@_W@__crt_stdio_output@@@__crt_stdio_output@@KAIXZ 10096920 f i libucrtd:output.obj
 0001:00095930       ?state_count@?$standard_base@DV?$stream_output_adapter@D@__crt_stdio_output@@@__crt_stdio_output@@KAIXZ 10096930 f i libucrtd:output.obj
 0001:00095940       ?state_count@?$standard_base@DV?$string_output_adapter@D@__crt_stdio_output@@@__crt_stdio_output@@KAIXZ 10096940 f i libucrtd:output.obj
 0001:00095950       ?state_count@?$standard_base@_WV?$stream_output_adapter@_W@__crt_stdio_output@@@__crt_stdio_output@@KAIXZ 10096950 f i libucrtd:output.obj
 0001:00095960       ?state_count@?$standard_base@_WV?$string_output_adapter@_W@__crt_stdio_output@@@__crt_stdio_output@@KAIXZ 10096960 f i libucrtd:output.obj
 0001:00095970       ?state_transition_table@?$format_validation_base@DV?$stream_output_adapter@D@__crt_stdio_output@@@__crt_stdio_output@@KAPBEXZ 10096970 f i libucrtd:output.obj
 0001:00095980       ?state_transition_table@?$format_validation_base@DV?$string_output_adapter@D@__crt_stdio_output@@@__crt_stdio_output@@KAPBEXZ 10096980 f i libucrtd:output.obj
 0001:00095990       ?state_transition_table@?$format_validation_base@_WV?$stream_output_adapter@_W@__crt_stdio_output@@@__crt_stdio_output@@KAPBEXZ 10096990 f i libucrtd:output.obj
 0001:000959a0       ?state_transition_table@?$format_validation_base@_WV?$string_output_adapter@_W@__crt_stdio_output@@@__crt_stdio_output@@KAPBEXZ 100969a0 f i libucrtd:output.obj
 0001:000959b0       ?state_transition_table@?$standard_base@DV?$stream_output_adapter@D@__crt_stdio_output@@@__crt_stdio_output@@KAPBEXZ 100969b0 f i libucrtd:output.obj
 0001:000959c0       ?state_transition_table@?$standard_base@DV?$string_output_adapter@D@__crt_stdio_output@@@__crt_stdio_output@@KAPBEXZ 100969c0 f i libucrtd:output.obj
 0001:000959d0       ?state_transition_table@?$standard_base@_WV?$stream_output_adapter@_W@__crt_stdio_output@@@__crt_stdio_output@@KAPBEXZ 100969d0 f i libucrtd:output.obj
 0001:000959e0       ?state_transition_table@?$standard_base@_WV?$string_output_adapter@_W@__crt_stdio_output@@@__crt_stdio_output@@KAPBEXZ 100969e0 f i libucrtd:output.obj
 0001:000959f0       ?to_integer_size@__crt_stdio_output@@YAIW4length_modifier@1@@Z 100969f0 f i libucrtd:output.obj
 0001:00095ac0       ?type_case_X@?$output_processor@DV?$stream_output_adapter@D@__crt_stdio_output@@V?$format_validation_base@DV?$stream_output_adapter@D@__crt_stdio_output@@@2@@__crt_stdio_output@@AAE_NXZ 10096ac0 f i libucrtd:output.obj
 0001:00095ae0       ?type_case_X@?$output_processor@DV?$stream_output_adapter@D@__crt_stdio_output@@V?$positional_parameter_base@DV?$stream_output_adapter@D@__crt_stdio_output@@@2@@__crt_stdio_output@@AAE_NXZ 10096ae0 f i libucrtd:output.obj
 0001:00095b00       ?type_case_X@?$output_processor@DV?$stream_output_adapter@D@__crt_stdio_output@@V?$standard_base@DV?$stream_output_adapter@D@__crt_stdio_output@@@2@@__crt_stdio_output@@AAE_NXZ 10096b00 f i libucrtd:output.obj
 0001:00095b20       ?type_case_X@?$output_processor@DV?$string_output_adapter@D@__crt_stdio_output@@V?$format_validation_base@DV?$string_output_adapter@D@__crt_stdio_output@@@2@@__crt_stdio_output@@AAE_NXZ 10096b20 f i libucrtd:output.obj
 0001:00095b40       ?type_case_X@?$output_processor@DV?$string_output_adapter@D@__crt_stdio_output@@V?$positional_parameter_base@DV?$string_output_adapter@D@__crt_stdio_output@@@2@@__crt_stdio_output@@AAE_NXZ 10096b40 f i libucrtd:output.obj
 0001:00095b60       ?type_case_X@?$output_processor@DV?$string_output_adapter@D@__crt_stdio_output@@V?$standard_base@DV?$string_output_adapter@D@__crt_stdio_output@@@2@@__crt_stdio_output@@AAE_NXZ 10096b60 f i libucrtd:output.obj
 0001:00095b80       ?type_case_X@?$output_processor@_WV?$stream_output_adapter@_W@__crt_stdio_output@@V?$format_validation_base@_WV?$stream_output_adapter@_W@__crt_stdio_output@@@2@@__crt_stdio_output@@AAE_NXZ 10096b80 f i libucrtd:output.obj
 0001:00095ba0       ?type_case_X@?$output_processor@_WV?$stream_output_adapter@_W@__crt_stdio_output@@V?$positional_parameter_base@_WV?$stream_output_adapter@_W@__crt_stdio_output@@@2@@__crt_stdio_output@@AAE_NXZ 10096ba0 f i libucrtd:output.obj
 0001:00095bc0       ?type_case_X@?$output_processor@_WV?$stream_output_adapter@_W@__crt_stdio_output@@V?$standard_base@_WV?$stream_output_adapter@_W@__crt_stdio_output@@@2@@__crt_stdio_output@@AAE_NXZ 10096bc0 f i libucrtd:output.obj
 0001:00095be0       ?type_case_X@?$output_processor@_WV?$string_output_adapter@_W@__crt_stdio_output@@V?$format_validation_base@_WV?$string_output_adapter@_W@__crt_stdio_output@@@2@@__crt_stdio_output@@AAE_NXZ 10096be0 f i libucrtd:output.obj
 0001:00095c00       ?type_case_X@?$output_processor@_WV?$string_output_adapter@_W@__crt_stdio_output@@V?$positional_parameter_base@_WV?$string_output_adapter@_W@__crt_stdio_output@@@2@@__crt_stdio_output@@AAE_NXZ 10096c00 f i libucrtd:output.obj
 0001:00095c20       ?type_case_X@?$output_processor@_WV?$string_output_adapter@_W@__crt_stdio_output@@V?$standard_base@_WV?$string_output_adapter@_W@__crt_stdio_output@@@2@@__crt_stdio_output@@AAE_NXZ 10096c20 f i libucrtd:output.obj
 0001:00095c40       ?type_case_Z@?$output_processor@DV?$stream_output_adapter@D@__crt_stdio_output@@V?$format_validation_base@DV?$stream_output_adapter@D@__crt_stdio_output@@@2@@__crt_stdio_output@@AAE_NXZ 10096c40 f i libucrtd:output.obj
 0001:00095d70       ?type_case_Z@?$output_processor@DV?$stream_output_adapter@D@__crt_stdio_output@@V?$positional_parameter_base@DV?$stream_output_adapter@D@__crt_stdio_output@@@2@@__crt_stdio_output@@AAE_NXZ 10096d70 f i libucrtd:output.obj
 0001:00095ea0       ?type_case_Z@?$output_processor@DV?$stream_output_adapter@D@__crt_stdio_output@@V?$standard_base@DV?$stream_output_adapter@D@__crt_stdio_output@@@2@@__crt_stdio_output@@AAE_NXZ 10096ea0 f i libucrtd:output.obj
 0001:00095fd0       ?type_case_Z@?$output_processor@DV?$string_output_adapter@D@__crt_stdio_output@@V?$format_validation_base@DV?$string_output_adapter@D@__crt_stdio_output@@@2@@__crt_stdio_output@@AAE_NXZ 10096fd0 f i libucrtd:output.obj
 0001:00096100       ?type_case_Z@?$output_processor@DV?$string_output_adapter@D@__crt_stdio_output@@V?$positional_parameter_base@DV?$string_output_adapter@D@__crt_stdio_output@@@2@@__crt_stdio_output@@AAE_NXZ 10097100 f i libucrtd:output.obj
 0001:00096230       ?type_case_Z@?$output_processor@DV?$string_output_adapter@D@__crt_stdio_output@@V?$standard_base@DV?$string_output_adapter@D@__crt_stdio_output@@@2@@__crt_stdio_output@@AAE_NXZ 10097230 f i libucrtd:output.obj
 0001:00096360       ?type_case_Z@?$output_processor@_WV?$stream_output_adapter@_W@__crt_stdio_output@@V?$format_validation_base@_WV?$stream_output_adapter@_W@__crt_stdio_output@@@2@@__crt_stdio_output@@AAE_NXZ 10097360 f i libucrtd:output.obj
 0001:00096490       ?type_case_Z@?$output_processor@_WV?$stream_output_adapter@_W@__crt_stdio_output@@V?$positional_parameter_base@_WV?$stream_output_adapter@_W@__crt_stdio_output@@@2@@__crt_stdio_output@@AAE_NXZ 10097490 f i libucrtd:output.obj
 0001:000965c0       ?type_case_Z@?$output_processor@_WV?$stream_output_adapter@_W@__crt_stdio_output@@V?$standard_base@_WV?$stream_output_adapter@_W@__crt_stdio_output@@@2@@__crt_stdio_output@@AAE_NXZ 100975c0 f i libucrtd:output.obj
 0001:000966f0       ?type_case_Z@?$output_processor@_WV?$string_output_adapter@_W@__crt_stdio_output@@V?$format_validation_base@_WV?$string_output_adapter@_W@__crt_stdio_output@@@2@@__crt_stdio_output@@AAE_NXZ 100976f0 f i libucrtd:output.obj
 0001:00096820       ?type_case_Z@?$output_processor@_WV?$string_output_adapter@_W@__crt_stdio_output@@V?$positional_parameter_base@_WV?$string_output_adapter@_W@__crt_stdio_output@@@2@@__crt_stdio_output@@AAE_NXZ 10097820 f i libucrtd:output.obj
 0001:00096950       ?type_case_Z@?$output_processor@_WV?$string_output_adapter@_W@__crt_stdio_output@@V?$standard_base@_WV?$string_output_adapter@_W@__crt_stdio_output@@@2@@__crt_stdio_output@@AAE_NXZ 10097950 f i libucrtd:output.obj
 0001:00096a80       ?type_case_a@?$output_processor@DV?$stream_output_adapter@D@__crt_stdio_output@@V?$format_validation_base@DV?$stream_output_adapter@D@__crt_stdio_output@@@2@@__crt_stdio_output@@AAE_NXZ 10097a80 f i libucrtd:output.obj
 0001:00096d70       ?type_case_a@?$output_processor@DV?$stream_output_adapter@D@__crt_stdio_output@@V?$positional_parameter_base@DV?$stream_output_adapter@D@__crt_stdio_output@@@2@@__crt_stdio_output@@AAE_NXZ 10097d70 f i libucrtd:output.obj
 0001:00097060       ?type_case_a@?$output_processor@DV?$stream_output_adapter@D@__crt_stdio_output@@V?$standard_base@DV?$stream_output_adapter@D@__crt_stdio_output@@@2@@__crt_stdio_output@@AAE_NXZ 10098060 f i libucrtd:output.obj
 0001:00097350       ?type_case_a@?$output_processor@DV?$string_output_adapter@D@__crt_stdio_output@@V?$format_validation_base@DV?$string_output_adapter@D@__crt_stdio_output@@@2@@__crt_stdio_output@@AAE_NXZ 10098350 f i libucrtd:output.obj
 0001:00097640       ?type_case_a@?$output_processor@DV?$string_output_adapter@D@__crt_stdio_output@@V?$positional_parameter_base@DV?$string_output_adapter@D@__crt_stdio_output@@@2@@__crt_stdio_output@@AAE_NXZ 10098640 f i libucrtd:output.obj
 0001:00097930       ?type_case_a@?$output_processor@DV?$string_output_adapter@D@__crt_stdio_output@@V?$standard_base@DV?$string_output_adapter@D@__crt_stdio_output@@@2@@__crt_stdio_output@@AAE_NXZ 10098930 f i libucrtd:output.obj
 0001:00097c20       ?type_case_a@?$output_processor@_WV?$stream_output_adapter@_W@__crt_stdio_output@@V?$format_validation_base@_WV?$stream_output_adapter@_W@__crt_stdio_output@@@2@@__crt_stdio_output@@AAE_NXZ 10098c20 f i libucrtd:output.obj
 0001:00097f20       ?type_case_a@?$output_processor@_WV?$stream_output_adapter@_W@__crt_stdio_output@@V?$positional_parameter_base@_WV?$stream_output_adapter@_W@__crt_stdio_output@@@2@@__crt_stdio_output@@AAE_NXZ 10098f20 f i libucrtd:output.obj
 0001:00098220       ?type_case_a@?$output_processor@_WV?$stream_output_adapter@_W@__crt_stdio_output@@V?$standard_base@_WV?$stream_output_adapter@_W@__crt_stdio_output@@@2@@__crt_stdio_output@@AAE_NXZ 10099220 f i libucrtd:output.obj
 0001:00098520       ?type_case_a@?$output_processor@_WV?$string_output_adapter@_W@__crt_stdio_output@@V?$format_validation_base@_WV?$string_output_adapter@_W@__crt_stdio_output@@@2@@__crt_stdio_output@@AAE_NXZ 10099520 f i libucrtd:output.obj
 0001:00098820       ?type_case_a@?$output_processor@_WV?$string_output_adapter@_W@__crt_stdio_output@@V?$positional_parameter_base@_WV?$string_output_adapter@_W@__crt_stdio_output@@@2@@__crt_stdio_output@@AAE_NXZ 10099820 f i libucrtd:output.obj
 0001:00098b20       ?type_case_a@?$output_processor@_WV?$string_output_adapter@_W@__crt_stdio_output@@V?$standard_base@_WV?$string_output_adapter@_W@__crt_stdio_output@@@2@@__crt_stdio_output@@AAE_NXZ 10099b20 f i libucrtd:output.obj
 0001:00098e20       ?type_case_c@?$output_processor@DV?$stream_output_adapter@D@__crt_stdio_output@@V?$format_validation_base@DV?$stream_output_adapter@D@__crt_stdio_output@@@2@@__crt_stdio_output@@AAE_NXZ 10099e20 f i libucrtd:output.obj
 0001:00098e40       ?type_case_c@?$output_processor@DV?$stream_output_adapter@D@__crt_stdio_output@@V?$positional_parameter_base@DV?$stream_output_adapter@D@__crt_stdio_output@@@2@@__crt_stdio_output@@AAE_NXZ 10099e40 f i libucrtd:output.obj
 0001:00098e60       ?type_case_c@?$output_processor@DV?$stream_output_adapter@D@__crt_stdio_output@@V?$standard_base@DV?$stream_output_adapter@D@__crt_stdio_output@@@2@@__crt_stdio_output@@AAE_NXZ 10099e60 f i libucrtd:output.obj
 0001:00098e80       ?type_case_c@?$output_processor@DV?$string_output_adapter@D@__crt_stdio_output@@V?$format_validation_base@DV?$string_output_adapter@D@__crt_stdio_output@@@2@@__crt_stdio_output@@AAE_NXZ 10099e80 f i libucrtd:output.obj
 0001:00098ea0       ?type_case_c@?$output_processor@DV?$string_output_adapter@D@__crt_stdio_output@@V?$positional_parameter_base@DV?$string_output_adapter@D@__crt_stdio_output@@@2@@__crt_stdio_output@@AAE_NXZ 10099ea0 f i libucrtd:output.obj
 0001:00098ec0       ?type_case_c@?$output_processor@DV?$string_output_adapter@D@__crt_stdio_output@@V?$standard_base@DV?$string_output_adapter@D@__crt_stdio_output@@@2@@__crt_stdio_output@@AAE_NXZ 10099ec0 f i libucrtd:output.obj
 0001:00098ee0       ?type_case_c@?$output_processor@_WV?$stream_output_adapter@_W@__crt_stdio_output@@V?$format_validation_base@_WV?$stream_output_adapter@_W@__crt_stdio_output@@@2@@__crt_stdio_output@@AAE_NXZ 10099ee0 f i libucrtd:output.obj
 0001:00098f00       ?type_case_c@?$output_processor@_WV?$stream_output_adapter@_W@__crt_stdio_output@@V?$positional_parameter_base@_WV?$stream_output_adapter@_W@__crt_stdio_output@@@2@@__crt_stdio_output@@AAE_NXZ 10099f00 f i libucrtd:output.obj
 0001:00098f20       ?type_case_c@?$output_processor@_WV?$stream_output_adapter@_W@__crt_stdio_output@@V?$standard_base@_WV?$stream_output_adapter@_W@__crt_stdio_output@@@2@@__crt_stdio_output@@AAE_NXZ 10099f20 f i libucrtd:output.obj
 0001:00098f40       ?type_case_c@?$output_processor@_WV?$string_output_adapter@_W@__crt_stdio_output@@V?$format_validation_base@_WV?$string_output_adapter@_W@__crt_stdio_output@@@2@@__crt_stdio_output@@AAE_NXZ 10099f40 f i libucrtd:output.obj
 0001:00098f60       ?type_case_c@?$output_processor@_WV?$string_output_adapter@_W@__crt_stdio_output@@V?$positional_parameter_base@_WV?$string_output_adapter@_W@__crt_stdio_output@@@2@@__crt_stdio_output@@AAE_NXZ 10099f60 f i libucrtd:output.obj
 0001:00098f80       ?type_case_c@?$output_processor@_WV?$string_output_adapter@_W@__crt_stdio_output@@V?$standard_base@_WV?$string_output_adapter@_W@__crt_stdio_output@@@2@@__crt_stdio_output@@AAE_NXZ 10099f80 f i libucrtd:output.obj
 0001:00098fa0       ?type_case_c_tchar@?$output_processor@DV?$stream_output_adapter@D@__crt_stdio_output@@V?$format_validation_base@DV?$stream_output_adapter@D@__crt_stdio_output@@@2@@__crt_stdio_output@@AAE_ND@Z 10099fa0 f i libucrtd:output.obj
 0001:000990f0       ?type_case_c_tchar@?$output_processor@DV?$stream_output_adapter@D@__crt_stdio_output@@V?$positional_parameter_base@DV?$stream_output_adapter@D@__crt_stdio_output@@@2@@__crt_stdio_output@@AAE_ND@Z 1009a0f0 f i libucrtd:output.obj
 0001:00099240       ?type_case_c_tchar@?$output_processor@DV?$stream_output_adapter@D@__crt_stdio_output@@V?$standard_base@DV?$stream_output_adapter@D@__crt_stdio_output@@@2@@__crt_stdio_output@@AAE_ND@Z 1009a240 f i libucrtd:output.obj
 0001:00099390       ?type_case_c_tchar@?$output_processor@DV?$string_output_adapter@D@__crt_stdio_output@@V?$format_validation_base@DV?$string_output_adapter@D@__crt_stdio_output@@@2@@__crt_stdio_output@@AAE_ND@Z 1009a390 f i libucrtd:output.obj
 0001:000994e0       ?type_case_c_tchar@?$output_processor@DV?$string_output_adapter@D@__crt_stdio_output@@V?$positional_parameter_base@DV?$string_output_adapter@D@__crt_stdio_output@@@2@@__crt_stdio_output@@AAE_ND@Z 1009a4e0 f i libucrtd:output.obj
 0001:00099630       ?type_case_c_tchar@?$output_processor@DV?$string_output_adapter@D@__crt_stdio_output@@V?$standard_base@DV?$string_output_adapter@D@__crt_stdio_output@@@2@@__crt_stdio_output@@AAE_ND@Z 1009a630 f i libucrtd:output.obj
 0001:00099780       ?type_case_c_tchar@?$output_processor@_WV?$stream_output_adapter@_W@__crt_stdio_output@@V?$format_validation_base@_WV?$stream_output_adapter@_W@__crt_stdio_output@@@2@@__crt_stdio_output@@AAE_N_W@Z 1009a780 f i libucrtd:output.obj
 0001:000998c0       ?type_case_c_tchar@?$output_processor@_WV?$stream_output_adapter@_W@__crt_stdio_output@@V?$positional_parameter_base@_WV?$stream_output_adapter@_W@__crt_stdio_output@@@2@@__crt_stdio_output@@AAE_N_W@Z 1009a8c0 f i libucrtd:output.obj
 0001:00099a00       ?type_case_c_tchar@?$output_processor@_WV?$stream_output_adapter@_W@__crt_stdio_output@@V?$standard_base@_WV?$stream_output_adapter@_W@__crt_stdio_output@@@2@@__crt_stdio_output@@AAE_N_W@Z 1009aa00 f i libucrtd:output.obj
 0001:00099b40       ?type_case_c_tchar@?$output_processor@_WV?$string_output_adapter@_W@__crt_stdio_output@@V?$format_validation_base@_WV?$string_output_adapter@_W@__crt_stdio_output@@@2@@__crt_stdio_output@@AAE_N_W@Z 1009ab40 f i libucrtd:output.obj
 0001:00099c80       ?type_case_c_tchar@?$output_processor@_WV?$string_output_adapter@_W@__crt_stdio_output@@V?$positional_parameter_base@_WV?$string_output_adapter@_W@__crt_stdio_output@@@2@@__crt_stdio_output@@AAE_N_W@Z 1009ac80 f i libucrtd:output.obj
 0001:00099dc0       ?type_case_c_tchar@?$output_processor@_WV?$string_output_adapter@_W@__crt_stdio_output@@V?$standard_base@_WV?$string_output_adapter@_W@__crt_stdio_output@@@2@@__crt_stdio_output@@AAE_N_W@Z 1009adc0 f i libucrtd:output.obj
 0001:00099f00       ?type_case_d@?$output_processor@DV?$stream_output_adapter@D@__crt_stdio_output@@V?$format_validation_base@DV?$stream_output_adapter@D@__crt_stdio_output@@@2@@__crt_stdio_output@@AAE_NXZ 1009af00 f i libucrtd:output.obj
 0001:00099f30       ?type_case_d@?$output_processor@DV?$stream_output_adapter@D@__crt_stdio_output@@V?$positional_parameter_base@DV?$stream_output_adapter@D@__crt_stdio_output@@@2@@__crt_stdio_output@@AAE_NXZ 1009af30 f i libucrtd:output.obj
 0001:00099f60       ?type_case_d@?$output_processor@DV?$stream_output_adapter@D@__crt_stdio_output@@V?$standard_base@DV?$stream_output_adapter@D@__crt_stdio_output@@@2@@__crt_stdio_output@@AAE_NXZ 1009af60 f i libucrtd:output.obj
 0001:00099f90       ?type_case_d@?$output_processor@DV?$string_output_adapter@D@__crt_stdio_output@@V?$format_validation_base@DV?$string_output_adapter@D@__crt_stdio_output@@@2@@__crt_stdio_output@@AAE_NXZ 1009af90 f i libucrtd:output.obj
 0001:00099fc0       ?type_case_d@?$output_processor@DV?$string_output_adapter@D@__crt_stdio_output@@V?$positional_parameter_base@DV?$string_output_adapter@D@__crt_stdio_output@@@2@@__crt_stdio_output@@AAE_NXZ 1009afc0 f i libucrtd:output.obj
 0001:00099ff0       ?type_case_d@?$output_processor@DV?$string_output_adapter@D@__crt_stdio_output@@V?$standard_base@DV?$string_output_adapter@D@__crt_stdio_output@@@2@@__crt_stdio_output@@AAE_NXZ 1009aff0 f i libucrtd:output.obj
 0001:0009a020       ?type_case_d@?$output_processor@_WV?$stream_output_adapter@_W@__crt_stdio_output@@V?$format_validation_base@_WV?$stream_output_adapter@_W@__crt_stdio_output@@@2@@__crt_stdio_output@@AAE_NXZ 1009b020 f i libucrtd:output.obj
 0001:0009a050       ?type_case_d@?$output_processor@_WV?$stream_output_adapter@_W@__crt_stdio_output@@V?$positional_parameter_base@_WV?$stream_output_adapter@_W@__crt_stdio_output@@@2@@__crt_stdio_output@@AAE_NXZ 1009b050 f i libucrtd:output.obj
 0001:0009a080       ?type_case_d@?$output_processor@_WV?$stream_output_adapter@_W@__crt_stdio_output@@V?$standard_base@_WV?$stream_output_adapter@_W@__crt_stdio_output@@@2@@__crt_stdio_output@@AAE_NXZ 1009b080 f i libucrtd:output.obj
 0001:0009a0b0       ?type_case_d@?$output_processor@_WV?$string_output_adapter@_W@__crt_stdio_output@@V?$format_validation_base@_WV?$string_output_adapter@_W@__crt_stdio_output@@@2@@__crt_stdio_output@@AAE_NXZ 1009b0b0 f i libucrtd:output.obj
 0001:0009a0e0       ?type_case_d@?$output_processor@_WV?$string_output_adapter@_W@__crt_stdio_output@@V?$positional_parameter_base@_WV?$string_output_adapter@_W@__crt_stdio_output@@@2@@__crt_stdio_output@@AAE_NXZ 1009b0e0 f i libucrtd:output.obj
 0001:0009a110       ?type_case_d@?$output_processor@_WV?$string_output_adapter@_W@__crt_stdio_output@@V?$standard_base@_WV?$string_output_adapter@_W@__crt_stdio_output@@@2@@__crt_stdio_output@@AAE_NXZ 1009b110 f i libucrtd:output.obj
 0001:0009a140       ?type_case_integer@?$output_processor@DV?$stream_output_adapter@D@__crt_stdio_output@@V?$format_validation_base@DV?$stream_output_adapter@D@__crt_stdio_output@@@2@@__crt_stdio_output@@AAE_NI_N@Z 1009b140 f i libucrtd:output.obj
 0001:0009a550       ?type_case_integer@?$output_processor@DV?$stream_output_adapter@D@__crt_stdio_output@@V?$positional_parameter_base@DV?$stream_output_adapter@D@__crt_stdio_output@@@2@@__crt_stdio_output@@AAE_NI_N@Z 1009b550 f i libucrtd:output.obj
 0001:0009a960       ?type_case_integer@?$output_processor@DV?$stream_output_adapter@D@__crt_stdio_output@@V?$standard_base@DV?$stream_output_adapter@D@__crt_stdio_output@@@2@@__crt_stdio_output@@AAE_NI_N@Z 1009b960 f i libucrtd:output.obj
 0001:0009ad70       ?type_case_integer@?$output_processor@DV?$string_output_adapter@D@__crt_stdio_output@@V?$format_validation_base@DV?$string_output_adapter@D@__crt_stdio_output@@@2@@__crt_stdio_output@@AAE_NI_N@Z 1009bd70 f i libucrtd:output.obj
 0001:0009b180       ?type_case_integer@?$output_processor@DV?$string_output_adapter@D@__crt_stdio_output@@V?$positional_parameter_base@DV?$string_output_adapter@D@__crt_stdio_output@@@2@@__crt_stdio_output@@AAE_NI_N@Z 1009c180 f i libucrtd:output.obj
 0001:0009b590       ?type_case_integer@?$output_processor@DV?$string_output_adapter@D@__crt_stdio_output@@V?$standard_base@DV?$string_output_adapter@D@__crt_stdio_output@@@2@@__crt_stdio_output@@AAE_NI_N@Z 1009c590 f i libucrtd:output.obj
 0001:0009b9a0       ?type_case_integer@?$output_processor@_WV?$stream_output_adapter@_W@__crt_stdio_output@@V?$format_validation_base@_WV?$stream_output_adapter@_W@__crt_stdio_output@@@2@@__crt_stdio_output@@AAE_NI_N@Z 1009c9a0 f i libucrtd:output.obj
 0001:0009bdb0       ?type_case_integer@?$output_processor@_WV?$stream_output_adapter@_W@__crt_stdio_output@@V?$positional_parameter_base@_WV?$stream_output_adapter@_W@__crt_stdio_output@@@2@@__crt_stdio_output@@AAE_NI_N@Z 1009cdb0 f i libucrtd:output.obj
 0001:0009c1c0       ?type_case_integer@?$output_processor@_WV?$stream_output_adapter@_W@__crt_stdio_output@@V?$standard_base@_WV?$stream_output_adapter@_W@__crt_stdio_output@@@2@@__crt_stdio_output@@AAE_NI_N@Z 1009d1c0 f i libucrtd:output.obj
 0001:0009c5d0       ?type_case_integer@?$output_processor@_WV?$string_output_adapter@_W@__crt_stdio_output@@V?$format_validation_base@_WV?$string_output_adapter@_W@__crt_stdio_output@@@2@@__crt_stdio_output@@AAE_NI_N@Z 1009d5d0 f i libucrtd:output.obj
 0001:0009c9e0       ?type_case_integer@?$output_processor@_WV?$string_output_adapter@_W@__crt_stdio_output@@V?$positional_parameter_base@_WV?$string_output_adapter@_W@__crt_stdio_output@@@2@@__crt_stdio_output@@AAE_NI_N@Z 1009d9e0 f i libucrtd:output.obj
 0001:0009cdf0       ?type_case_integer@?$output_processor@_WV?$string_output_adapter@_W@__crt_stdio_output@@V?$standard_base@_WV?$string_output_adapter@_W@__crt_stdio_output@@@2@@__crt_stdio_output@@AAE_NI_N@Z 1009ddf0 f i libucrtd:output.obj
 0001:0009d200       ?type_case_n@?$output_processor@DV?$stream_output_adapter@D@__crt_stdio_output@@V?$format_validation_base@DV?$stream_output_adapter@D@__crt_stdio_output@@@2@@__crt_stdio_output@@AAE_NXZ 1009e200 f i libucrtd:output.obj
 0001:0009d470       ?type_case_n@?$output_processor@DV?$stream_output_adapter@D@__crt_stdio_output@@V?$positional_parameter_base@DV?$stream_output_adapter@D@__crt_stdio_output@@@2@@__crt_stdio_output@@AAE_NXZ 1009e470 f i libucrtd:output.obj
 0001:0009d6e0       ?type_case_n@?$output_processor@DV?$stream_output_adapter@D@__crt_stdio_output@@V?$standard_base@DV?$stream_output_adapter@D@__crt_stdio_output@@@2@@__crt_stdio_output@@AAE_NXZ 1009e6e0 f i libucrtd:output.obj
 0001:0009d950       ?type_case_n@?$output_processor@DV?$string_output_adapter@D@__crt_stdio_output@@V?$format_validation_base@DV?$string_output_adapter@D@__crt_stdio_output@@@2@@__crt_stdio_output@@AAE_NXZ 1009e950 f i libucrtd:output.obj
 0001:0009dbc0       ?type_case_n@?$output_processor@DV?$string_output_adapter@D@__crt_stdio_output@@V?$positional_parameter_base@DV?$string_output_adapter@D@__crt_stdio_output@@@2@@__crt_stdio_output@@AAE_NXZ 1009ebc0 f i libucrtd:output.obj
 0001:0009de30       ?type_case_n@?$output_processor@DV?$string_output_adapter@D@__crt_stdio_output@@V?$standard_base@DV?$string_output_adapter@D@__crt_stdio_output@@@2@@__crt_stdio_output@@AAE_NXZ 1009ee30 f i libucrtd:output.obj
 0001:0009e0a0       ?type_case_n@?$output_processor@_WV?$stream_output_adapter@_W@__crt_stdio_output@@V?$format_validation_base@_WV?$stream_output_adapter@_W@__crt_stdio_output@@@2@@__crt_stdio_output@@AAE_NXZ 1009f0a0 f i libucrtd:output.obj
 0001:0009e310       ?type_case_n@?$output_processor@_WV?$stream_output_adapter@_W@__crt_stdio_output@@V?$positional_parameter_base@_WV?$stream_output_adapter@_W@__crt_stdio_output@@@2@@__crt_stdio_output@@AAE_NXZ 1009f310 f i libucrtd:output.obj
 0001:0009e580       ?type_case_n@?$output_processor@_WV?$stream_output_adapter@_W@__crt_stdio_output@@V?$standard_base@_WV?$stream_output_adapter@_W@__crt_stdio_output@@@2@@__crt_stdio_output@@AAE_NXZ 1009f580 f i libucrtd:output.obj
 0001:0009e7f0       ?type_case_n@?$output_processor@_WV?$string_output_adapter@_W@__crt_stdio_output@@V?$format_validation_base@_WV?$string_output_adapter@_W@__crt_stdio_output@@@2@@__crt_stdio_output@@AAE_NXZ 1009f7f0 f i libucrtd:output.obj
 0001:0009ea60       ?type_case_n@?$output_processor@_WV?$string_output_adapter@_W@__crt_stdio_output@@V?$positional_parameter_base@_WV?$string_output_adapter@_W@__crt_stdio_output@@@2@@__crt_stdio_output@@AAE_NXZ 1009fa60 f i libucrtd:output.obj
 0001:0009ecd0       ?type_case_n@?$output_processor@_WV?$string_output_adapter@_W@__crt_stdio_output@@V?$standard_base@_WV?$string_output_adapter@_W@__crt_stdio_output@@@2@@__crt_stdio_output@@AAE_NXZ 1009fcd0 f i libucrtd:output.obj
 0001:0009ef40       ?type_case_o@?$output_processor@DV?$stream_output_adapter@D@__crt_stdio_output@@V?$format_validation_base@DV?$stream_output_adapter@D@__crt_stdio_output@@@2@@__crt_stdio_output@@AAE_NXZ 1009ff40 f i libucrtd:output.obj
 0001:0009ef90       ?type_case_o@?$output_processor@DV?$stream_output_adapter@D@__crt_stdio_output@@V?$positional_parameter_base@DV?$stream_output_adapter@D@__crt_stdio_output@@@2@@__crt_stdio_output@@AAE_NXZ 1009ff90 f i libucrtd:output.obj
 0001:0009efe0       ?type_case_o@?$output_processor@DV?$stream_output_adapter@D@__crt_stdio_output@@V?$standard_base@DV?$stream_output_adapter@D@__crt_stdio_output@@@2@@__crt_stdio_output@@AAE_NXZ 1009ffe0 f i libucrtd:output.obj
 0001:0009f030       ?type_case_o@?$output_processor@DV?$string_output_adapter@D@__crt_stdio_output@@V?$format_validation_base@DV?$string_output_adapter@D@__crt_stdio_output@@@2@@__crt_stdio_output@@AAE_NXZ 100a0030 f i libucrtd:output.obj
 0001:0009f080       ?type_case_o@?$output_processor@DV?$string_output_adapter@D@__crt_stdio_output@@V?$positional_parameter_base@DV?$string_output_adapter@D@__crt_stdio_output@@@2@@__crt_stdio_output@@AAE_NXZ 100a0080 f i libucrtd:output.obj
 0001:0009f0d0       ?type_case_o@?$output_processor@DV?$string_output_adapter@D@__crt_stdio_output@@V?$standard_base@DV?$string_output_adapter@D@__crt_stdio_output@@@2@@__crt_stdio_output@@AAE_NXZ 100a00d0 f i libucrtd:output.obj
 0001:0009f120       ?type_case_o@?$output_processor@_WV?$stream_output_adapter@_W@__crt_stdio_output@@V?$format_validation_base@_WV?$stream_output_adapter@_W@__crt_stdio_output@@@2@@__crt_stdio_output@@AAE_NXZ 100a0120 f i libucrtd:output.obj
 0001:0009f170       ?type_case_o@?$output_processor@_WV?$stream_output_adapter@_W@__crt_stdio_output@@V?$positional_parameter_base@_WV?$stream_output_adapter@_W@__crt_stdio_output@@@2@@__crt_stdio_output@@AAE_NXZ 100a0170 f i libucrtd:output.obj
 0001:0009f1c0       ?type_case_o@?$output_processor@_WV?$stream_output_adapter@_W@__crt_stdio_output@@V?$standard_base@_WV?$stream_output_adapter@_W@__crt_stdio_output@@@2@@__crt_stdio_output@@AAE_NXZ 100a01c0 f i libucrtd:output.obj
 0001:0009f210       ?type_case_o@?$output_processor@_WV?$string_output_adapter@_W@__crt_stdio_output@@V?$format_validation_base@_WV?$string_output_adapter@_W@__crt_stdio_output@@@2@@__crt_stdio_output@@AAE_NXZ 100a0210 f i libucrtd:output.obj
 0001:0009f260       ?type_case_o@?$output_processor@_WV?$string_output_adapter@_W@__crt_stdio_output@@V?$positional_parameter_base@_WV?$string_output_adapter@_W@__crt_stdio_output@@@2@@__crt_stdio_output@@AAE_NXZ 100a0260 f i libucrtd:output.obj
 0001:0009f2b0       ?type_case_o@?$output_processor@_WV?$string_output_adapter@_W@__crt_stdio_output@@V?$standard_base@_WV?$string_output_adapter@_W@__crt_stdio_output@@@2@@__crt_stdio_output@@AAE_NXZ 100a02b0 f i libucrtd:output.obj
 0001:0009f300       ?type_case_p@?$output_processor@DV?$stream_output_adapter@D@__crt_stdio_output@@V?$format_validation_base@DV?$stream_output_adapter@D@__crt_stdio_output@@@2@@__crt_stdio_output@@AAE_NXZ 100a0300 f i libucrtd:output.obj
 0001:0009f340       ?type_case_p@?$output_processor@DV?$stream_output_adapter@D@__crt_stdio_output@@V?$positional_parameter_base@DV?$stream_output_adapter@D@__crt_stdio_output@@@2@@__crt_stdio_output@@AAE_NXZ 100a0340 f i libucrtd:output.obj
 0001:0009f380       ?type_case_p@?$output_processor@DV?$stream_output_adapter@D@__crt_stdio_output@@V?$standard_base@DV?$stream_output_adapter@D@__crt_stdio_output@@@2@@__crt_stdio_output@@AAE_NXZ 100a0380 f i libucrtd:output.obj
 0001:0009f3c0       ?type_case_p@?$output_processor@DV?$string_output_adapter@D@__crt_stdio_output@@V?$format_validation_base@DV?$string_output_adapter@D@__crt_stdio_output@@@2@@__crt_stdio_output@@AAE_NXZ 100a03c0 f i libucrtd:output.obj
 0001:0009f400       ?type_case_p@?$output_processor@DV?$string_output_adapter@D@__crt_stdio_output@@V?$positional_parameter_base@DV?$string_output_adapter@D@__crt_stdio_output@@@2@@__crt_stdio_output@@AAE_NXZ 100a0400 f i libucrtd:output.obj
 0001:0009f440       ?type_case_p@?$output_processor@DV?$string_output_adapter@D@__crt_stdio_output@@V?$standard_base@DV?$string_output_adapter@D@__crt_stdio_output@@@2@@__crt_stdio_output@@AAE_NXZ 100a0440 f i libucrtd:output.obj
 0001:0009f480       ?type_case_p@?$output_processor@_WV?$stream_output_adapter@_W@__crt_stdio_output@@V?$format_validation_base@_WV?$stream_output_adapter@_W@__crt_stdio_output@@@2@@__crt_stdio_output@@AAE_NXZ 100a0480 f i libucrtd:output.obj
 0001:0009f4c0       ?type_case_p@?$output_processor@_WV?$stream_output_adapter@_W@__crt_stdio_output@@V?$positional_parameter_base@_WV?$stream_output_adapter@_W@__crt_stdio_output@@@2@@__crt_stdio_output@@AAE_NXZ 100a04c0 f i libucrtd:output.obj
 0001:0009f500       ?type_case_p@?$output_processor@_WV?$stream_output_adapter@_W@__crt_stdio_output@@V?$standard_base@_WV?$stream_output_adapter@_W@__crt_stdio_output@@@2@@__crt_stdio_output@@AAE_NXZ 100a0500 f i libucrtd:output.obj
 0001:0009f540       ?type_case_p@?$output_processor@_WV?$string_output_adapter@_W@__crt_stdio_output@@V?$format_validation_base@_WV?$string_output_adapter@_W@__crt_stdio_output@@@2@@__crt_stdio_output@@AAE_NXZ 100a0540 f i libucrtd:output.obj
 0001:0009f580       ?type_case_p@?$output_processor@_WV?$string_output_adapter@_W@__crt_stdio_output@@V?$positional_parameter_base@_WV?$string_output_adapter@_W@__crt_stdio_output@@@2@@__crt_stdio_output@@AAE_NXZ 100a0580 f i libucrtd:output.obj
 0001:0009f5c0       ?type_case_p@?$output_processor@_WV?$string_output_adapter@_W@__crt_stdio_output@@V?$standard_base@_WV?$string_output_adapter@_W@__crt_stdio_output@@@2@@__crt_stdio_output@@AAE_NXZ 100a05c0 f i libucrtd:output.obj
 0001:0009f600       ?type_case_s@?$output_processor@DV?$stream_output_adapter@D@__crt_stdio_output@@V?$format_validation_base@DV?$stream_output_adapter@D@__crt_stdio_output@@@2@@__crt_stdio_output@@AAE_NXZ 100a0600 f i libucrtd:output.obj
 0001:0009f730       ?type_case_s@?$output_processor@DV?$stream_output_adapter@D@__crt_stdio_output@@V?$positional_parameter_base@DV?$stream_output_adapter@D@__crt_stdio_output@@@2@@__crt_stdio_output@@AAE_NXZ 100a0730 f i libucrtd:output.obj
 0001:0009f860       ?type_case_s@?$output_processor@DV?$stream_output_adapter@D@__crt_stdio_output@@V?$standard_base@DV?$stream_output_adapter@D@__crt_stdio_output@@@2@@__crt_stdio_output@@AAE_NXZ 100a0860 f i libucrtd:output.obj
 0001:0009f990       ?type_case_s@?$output_processor@DV?$string_output_adapter@D@__crt_stdio_output@@V?$format_validation_base@DV?$string_output_adapter@D@__crt_stdio_output@@@2@@__crt_stdio_output@@AAE_NXZ 100a0990 f i libucrtd:output.obj
 0001:0009fac0       ?type_case_s@?$output_processor@DV?$string_output_adapter@D@__crt_stdio_output@@V?$positional_parameter_base@DV?$string_output_adapter@D@__crt_stdio_output@@@2@@__crt_stdio_output@@AAE_NXZ 100a0ac0 f i libucrtd:output.obj
 0001:0009fbf0       ?type_case_s@?$output_processor@DV?$string_output_adapter@D@__crt_stdio_output@@V?$standard_base@DV?$string_output_adapter@D@__crt_stdio_output@@@2@@__crt_stdio_output@@AAE_NXZ 100a0bf0 f i libucrtd:output.obj
 0001:0009fd20       ?type_case_s@?$output_processor@_WV?$stream_output_adapter@_W@__crt_stdio_output@@V?$format_validation_base@_WV?$stream_output_adapter@_W@__crt_stdio_output@@@2@@__crt_stdio_output@@AAE_NXZ 100a0d20 f i libucrtd:output.obj
 0001:0009fe50       ?type_case_s@?$output_processor@_WV?$stream_output_adapter@_W@__crt_stdio_output@@V?$positional_parameter_base@_WV?$stream_output_adapter@_W@__crt_stdio_output@@@2@@__crt_stdio_output@@AAE_NXZ 100a0e50 f i libucrtd:output.obj
 0001:0009ff80       ?type_case_s@?$output_processor@_WV?$stream_output_adapter@_W@__crt_stdio_output@@V?$standard_base@_WV?$stream_output_adapter@_W@__crt_stdio_output@@@2@@__crt_stdio_output@@AAE_NXZ 100a0f80 f i libucrtd:output.obj
 0001:000a00b0       ?type_case_s@?$output_processor@_WV?$string_output_adapter@_W@__crt_stdio_output@@V?$format_validation_base@_WV?$string_output_adapter@_W@__crt_stdio_output@@@2@@__crt_stdio_output@@AAE_NXZ 100a10b0 f i libucrtd:output.obj
 0001:000a01e0       ?type_case_s@?$output_processor@_WV?$string_output_adapter@_W@__crt_stdio_output@@V?$positional_parameter_base@_WV?$string_output_adapter@_W@__crt_stdio_output@@@2@@__crt_stdio_output@@AAE_NXZ 100a11e0 f i libucrtd:output.obj
 0001:000a0310       ?type_case_s@?$output_processor@_WV?$string_output_adapter@_W@__crt_stdio_output@@V?$standard_base@_WV?$string_output_adapter@_W@__crt_stdio_output@@@2@@__crt_stdio_output@@AAE_NXZ 100a1310 f i libucrtd:output.obj
 0001:000a0440       ?type_case_s_compute_narrow_string_length@?$output_processor@DV?$stream_output_adapter@D@__crt_stdio_output@@V?$format_validation_base@DV?$stream_output_adapter@D@__crt_stdio_output@@@2@@__crt_stdio_output@@ABEHHD@Z 100a1440 f i libucrtd:output.obj
 0001:000a0470       ?type_case_s_compute_narrow_string_length@?$output_processor@DV?$stream_output_adapter@D@__crt_stdio_output@@V?$positional_parameter_base@DV?$stream_output_adapter@D@__crt_stdio_output@@@2@@__crt_stdio_output@@ABEHHD@Z 100a1470 f i libucrtd:output.obj
 0001:000a04a0       ?type_case_s_compute_narrow_string_length@?$output_processor@DV?$stream_output_adapter@D@__crt_stdio_output@@V?$standard_base@DV?$stream_output_adapter@D@__crt_stdio_output@@@2@@__crt_stdio_output@@ABEHHD@Z 100a14a0 f i libucrtd:output.obj
 0001:000a04d0       ?type_case_s_compute_narrow_string_length@?$output_processor@DV?$string_output_adapter@D@__crt_stdio_output@@V?$format_validation_base@DV?$string_output_adapter@D@__crt_stdio_output@@@2@@__crt_stdio_output@@ABEHHD@Z 100a14d0 f i libucrtd:output.obj
 0001:000a0500       ?type_case_s_compute_narrow_string_length@?$output_processor@DV?$string_output_adapter@D@__crt_stdio_output@@V?$positional_parameter_base@DV?$string_output_adapter@D@__crt_stdio_output@@@2@@__crt_stdio_output@@ABEHHD@Z 100a1500 f i libucrtd:output.obj
 0001:000a0530       ?type_case_s_compute_narrow_string_length@?$output_processor@DV?$string_output_adapter@D@__crt_stdio_output@@V?$standard_base@DV?$string_output_adapter@D@__crt_stdio_output@@@2@@__crt_stdio_output@@ABEHHD@Z 100a1530 f i libucrtd:output.obj
 0001:000a0560       ?type_case_s_compute_narrow_string_length@?$output_processor@_WV?$stream_output_adapter@_W@__crt_stdio_output@@V?$format_validation_base@_WV?$stream_output_adapter@_W@__crt_stdio_output@@@2@@__crt_stdio_output@@ABEHH_W@Z 100a1560 f i libucrtd:output.obj
 0001:000a05f0       ?type_case_s_compute_narrow_string_length@?$output_processor@_WV?$stream_output_adapter@_W@__crt_stdio_output@@V?$positional_parameter_base@_WV?$stream_output_adapter@_W@__crt_stdio_output@@@2@@__crt_stdio_output@@ABEHH_W@Z 100a15f0 f i libucrtd:output.obj
 0001:000a0680       ?type_case_s_compute_narrow_string_length@?$output_processor@_WV?$stream_output_adapter@_W@__crt_stdio_output@@V?$standard_base@_WV?$stream_output_adapter@_W@__crt_stdio_output@@@2@@__crt_stdio_output@@ABEHH_W@Z 100a1680 f i libucrtd:output.obj
 0001:000a0710       ?type_case_s_compute_narrow_string_length@?$output_processor@_WV?$string_output_adapter@_W@__crt_stdio_output@@V?$format_validation_base@_WV?$string_output_adapter@_W@__crt_stdio_output@@@2@@__crt_stdio_output@@ABEHH_W@Z 100a1710 f i libucrtd:output.obj
 0001:000a07a0       ?type_case_s_compute_narrow_string_length@?$output_processor@_WV?$string_output_adapter@_W@__crt_stdio_output@@V?$positional_parameter_base@_WV?$string_output_adapter@_W@__crt_stdio_output@@@2@@__crt_stdio_output@@ABEHH_W@Z 100a17a0 f i libucrtd:output.obj
 0001:000a0830       ?type_case_s_compute_narrow_string_length@?$output_processor@_WV?$string_output_adapter@_W@__crt_stdio_output@@V?$standard_base@_WV?$string_output_adapter@_W@__crt_stdio_output@@@2@@__crt_stdio_output@@ABEHH_W@Z 100a1830 f i libucrtd:output.obj
 0001:000a08c0       ?type_case_u@?$output_processor@DV?$stream_output_adapter@D@__crt_stdio_output@@V?$format_validation_base@DV?$stream_output_adapter@D@__crt_stdio_output@@@2@@__crt_stdio_output@@AAE_NXZ 100a18c0 f i libucrtd:output.obj
 0001:000a08e0       ?type_case_u@?$output_processor@DV?$stream_output_adapter@D@__crt_stdio_output@@V?$positional_parameter_base@DV?$stream_output_adapter@D@__crt_stdio_output@@@2@@__crt_stdio_output@@AAE_NXZ 100a18e0 f i libucrtd:output.obj
 0001:000a0900       ?type_case_u@?$output_processor@DV?$stream_output_adapter@D@__crt_stdio_output@@V?$standard_base@DV?$stream_output_adapter@D@__crt_stdio_output@@@2@@__crt_stdio_output@@AAE_NXZ 100a1900 f i libucrtd:output.obj
 0001:000a0920       ?type_case_u@?$output_processor@DV?$string_output_adapter@D@__crt_stdio_output@@V?$format_validation_base@DV?$string_output_adapter@D@__crt_stdio_output@@@2@@__crt_stdio_output@@AAE_NXZ 100a1920 f i libucrtd:output.obj
 0001:000a0940       ?type_case_u@?$output_processor@DV?$string_output_adapter@D@__crt_stdio_output@@V?$positional_parameter_base@DV?$string_output_adapter@D@__crt_stdio_output@@@2@@__crt_stdio_output@@AAE_NXZ 100a1940 f i libucrtd:output.obj
 0001:000a0960       ?type_case_u@?$output_processor@DV?$string_output_adapter@D@__crt_stdio_output@@V?$standard_base@DV?$string_output_adapter@D@__crt_stdio_output@@@2@@__crt_stdio_output@@AAE_NXZ 100a1960 f i libucrtd:output.obj
 0001:000a0980       ?type_case_u@?$output_processor@_WV?$stream_output_adapter@_W@__crt_stdio_output@@V?$format_validation_base@_WV?$stream_output_adapter@_W@__crt_stdio_output@@@2@@__crt_stdio_output@@AAE_NXZ 100a1980 f i libucrtd:output.obj
 0001:000a09a0       ?type_case_u@?$output_processor@_WV?$stream_output_adapter@_W@__crt_stdio_output@@V?$positional_parameter_base@_WV?$stream_output_adapter@_W@__crt_stdio_output@@@2@@__crt_stdio_output@@AAE_NXZ 100a19a0 f i libucrtd:output.obj
 0001:000a09c0       ?type_case_u@?$output_processor@_WV?$stream_output_adapter@_W@__crt_stdio_output@@V?$standard_base@_WV?$stream_output_adapter@_W@__crt_stdio_output@@@2@@__crt_stdio_output@@AAE_NXZ 100a19c0 f i libucrtd:output.obj
 0001:000a09e0       ?type_case_u@?$output_processor@_WV?$string_output_adapter@_W@__crt_stdio_output@@V?$format_validation_base@_WV?$string_output_adapter@_W@__crt_stdio_output@@@2@@__crt_stdio_output@@AAE_NXZ 100a19e0 f i libucrtd:output.obj
 0001:000a0a00       ?type_case_u@?$output_processor@_WV?$string_output_adapter@_W@__crt_stdio_output@@V?$positional_parameter_base@_WV?$string_output_adapter@_W@__crt_stdio_output@@@2@@__crt_stdio_output@@AAE_NXZ 100a1a00 f i libucrtd:output.obj
 0001:000a0a20       ?type_case_u@?$output_processor@_WV?$string_output_adapter@_W@__crt_stdio_output@@V?$standard_base@_WV?$string_output_adapter@_W@__crt_stdio_output@@@2@@__crt_stdio_output@@AAE_NXZ 100a1a20 f i libucrtd:output.obj
 0001:000a0a40       ?type_case_x@?$output_processor@DV?$stream_output_adapter@D@__crt_stdio_output@@V?$format_validation_base@DV?$stream_output_adapter@D@__crt_stdio_output@@@2@@__crt_stdio_output@@AAE_NXZ 100a1a40 f i libucrtd:output.obj
 0001:000a0a60       ?type_case_x@?$output_processor@DV?$stream_output_adapter@D@__crt_stdio_output@@V?$positional_parameter_base@DV?$stream_output_adapter@D@__crt_stdio_output@@@2@@__crt_stdio_output@@AAE_NXZ 100a1a60 f i libucrtd:output.obj
 0001:000a0a80       ?type_case_x@?$output_processor@DV?$stream_output_adapter@D@__crt_stdio_output@@V?$standard_base@DV?$stream_output_adapter@D@__crt_stdio_output@@@2@@__crt_stdio_output@@AAE_NXZ 100a1a80 f i libucrtd:output.obj
 0001:000a0aa0       ?type_case_x@?$output_processor@DV?$string_output_adapter@D@__crt_stdio_output@@V?$format_validation_base@DV?$string_output_adapter@D@__crt_stdio_output@@@2@@__crt_stdio_output@@AAE_NXZ 100a1aa0 f i libucrtd:output.obj
 0001:000a0ac0       ?type_case_x@?$output_processor@DV?$string_output_adapter@D@__crt_stdio_output@@V?$positional_parameter_base@DV?$string_output_adapter@D@__crt_stdio_output@@@2@@__crt_stdio_output@@AAE_NXZ 100a1ac0 f i libucrtd:output.obj
 0001:000a0ae0       ?type_case_x@?$output_processor@DV?$string_output_adapter@D@__crt_stdio_output@@V?$standard_base@DV?$string_output_adapter@D@__crt_stdio_output@@@2@@__crt_stdio_output@@AAE_NXZ 100a1ae0 f i libucrtd:output.obj
 0001:000a0b00       ?type_case_x@?$output_processor@_WV?$stream_output_adapter@_W@__crt_stdio_output@@V?$format_validation_base@_WV?$stream_output_adapter@_W@__crt_stdio_output@@@2@@__crt_stdio_output@@AAE_NXZ 100a1b00 f i libucrtd:output.obj
 0001:000a0b20       ?type_case_x@?$output_processor@_WV?$stream_output_adapter@_W@__crt_stdio_output@@V?$positional_parameter_base@_WV?$stream_output_adapter@_W@__crt_stdio_output@@@2@@__crt_stdio_output@@AAE_NXZ 100a1b20 f i libucrtd:output.obj
 0001:000a0b40       ?type_case_x@?$output_processor@_WV?$stream_output_adapter@_W@__crt_stdio_output@@V?$standard_base@_WV?$stream_output_adapter@_W@__crt_stdio_output@@@2@@__crt_stdio_output@@AAE_NXZ 100a1b40 f i libucrtd:output.obj
 0001:000a0b60       ?type_case_x@?$output_processor@_WV?$string_output_adapter@_W@__crt_stdio_output@@V?$format_validation_base@_WV?$string_output_adapter@_W@__crt_stdio_output@@@2@@__crt_stdio_output@@AAE_NXZ 100a1b60 f i libucrtd:output.obj
 0001:000a0b80       ?type_case_x@?$output_processor@_WV?$string_output_adapter@_W@__crt_stdio_output@@V?$positional_parameter_base@_WV?$string_output_adapter@_W@__crt_stdio_output@@@2@@__crt_stdio_output@@AAE_NXZ 100a1b80 f i libucrtd:output.obj
 0001:000a0ba0       ?type_case_x@?$output_processor@_WV?$string_output_adapter@_W@__crt_stdio_output@@V?$standard_base@_WV?$string_output_adapter@_W@__crt_stdio_output@@@2@@__crt_stdio_output@@AAE_NXZ 100a1ba0 f i libucrtd:output.obj
 0001:000a0bc0       ?unset_flag@?$output_processor@DV?$stream_output_adapter@D@__crt_stdio_output@@V?$format_validation_base@DV?$stream_output_adapter@D@__crt_stdio_output@@@2@@__crt_stdio_output@@AAEXI@Z 100a1bc0 f i libucrtd:output.obj
 0001:000a0bf0       ?unset_flag@?$output_processor@DV?$stream_output_adapter@D@__crt_stdio_output@@V?$positional_parameter_base@DV?$stream_output_adapter@D@__crt_stdio_output@@@2@@__crt_stdio_output@@AAEXI@Z 100a1bf0 f i libucrtd:output.obj
 0001:000a0c20       ?unset_flag@?$output_processor@DV?$stream_output_adapter@D@__crt_stdio_output@@V?$standard_base@DV?$stream_output_adapter@D@__crt_stdio_output@@@2@@__crt_stdio_output@@AAEXI@Z 100a1c20 f i libucrtd:output.obj
 0001:000a0c50       ?unset_flag@?$output_processor@DV?$string_output_adapter@D@__crt_stdio_output@@V?$format_validation_base@DV?$string_output_adapter@D@__crt_stdio_output@@@2@@__crt_stdio_output@@AAEXI@Z 100a1c50 f i libucrtd:output.obj
 0001:000a0c80       ?unset_flag@?$output_processor@DV?$string_output_adapter@D@__crt_stdio_output@@V?$positional_parameter_base@DV?$string_output_adapter@D@__crt_stdio_output@@@2@@__crt_stdio_output@@AAEXI@Z 100a1c80 f i libucrtd:output.obj
 0001:000a0cb0       ?unset_flag@?$output_processor@DV?$string_output_adapter@D@__crt_stdio_output@@V?$standard_base@DV?$string_output_adapter@D@__crt_stdio_output@@@2@@__crt_stdio_output@@AAEXI@Z 100a1cb0 f i libucrtd:output.obj
 0001:000a0ce0       ?unset_flag@?$output_processor@_WV?$stream_output_adapter@_W@__crt_stdio_output@@V?$format_validation_base@_WV?$stream_output_adapter@_W@__crt_stdio_output@@@2@@__crt_stdio_output@@AAEXI@Z 100a1ce0 f i libucrtd:output.obj
 0001:000a0d10       ?unset_flag@?$output_processor@_WV?$stream_output_adapter@_W@__crt_stdio_output@@V?$positional_parameter_base@_WV?$stream_output_adapter@_W@__crt_stdio_output@@@2@@__crt_stdio_output@@AAEXI@Z 100a1d10 f i libucrtd:output.obj
 0001:000a0d40       ?unset_flag@?$output_processor@_WV?$stream_output_adapter@_W@__crt_stdio_output@@V?$standard_base@_WV?$stream_output_adapter@_W@__crt_stdio_output@@@2@@__crt_stdio_output@@AAEXI@Z 100a1d40 f i libucrtd:output.obj
 0001:000a0d70       ?unset_flag@?$output_processor@_WV?$string_output_adapter@_W@__crt_stdio_output@@V?$format_validation_base@_WV?$string_output_adapter@_W@__crt_stdio_output@@@2@@__crt_stdio_output@@AAEXI@Z 100a1d70 f i libucrtd:output.obj
 0001:000a0da0       ?unset_flag@?$output_processor@_WV?$string_output_adapter@_W@__crt_stdio_output@@V?$positional_parameter_base@_WV?$string_output_adapter@_W@__crt_stdio_output@@@2@@__crt_stdio_output@@AAEXI@Z 100a1da0 f i libucrtd:output.obj
 0001:000a0dd0       ?unset_flag@?$output_processor@_WV?$string_output_adapter@_W@__crt_stdio_output@@V?$standard_base@_WV?$string_output_adapter@_W@__crt_stdio_output@@@2@@__crt_stdio_output@@AAEXI@Z 100a1dd0 f i libucrtd:output.obj
 0001:000a0e00       ?update_field_width@?$positional_parameter_base@DV?$stream_output_adapter@D@__crt_stdio_output@@@__crt_stdio_output@@IAE_NXZ 100a1e00 f i libucrtd:output.obj
 0001:000a0fe0       ?update_field_width@?$positional_parameter_base@DV?$string_output_adapter@D@__crt_stdio_output@@@__crt_stdio_output@@IAE_NXZ 100a1fe0 f i libucrtd:output.obj
 0001:000a11c0       ?update_field_width@?$positional_parameter_base@_WV?$stream_output_adapter@_W@__crt_stdio_output@@@__crt_stdio_output@@IAE_NXZ 100a21c0 f i libucrtd:output.obj
 0001:000a13a0       ?update_field_width@?$positional_parameter_base@_WV?$string_output_adapter@_W@__crt_stdio_output@@@__crt_stdio_output@@IAE_NXZ 100a23a0 f i libucrtd:output.obj
 0001:000a1580       ?update_field_width@?$standard_base@DV?$stream_output_adapter@D@__crt_stdio_output@@@__crt_stdio_output@@IAE_NXZ 100a2580 f i libucrtd:output.obj
 0001:000a15b0       ?update_field_width@?$standard_base@DV?$string_output_adapter@D@__crt_stdio_output@@@__crt_stdio_output@@IAE_NXZ 100a25b0 f i libucrtd:output.obj
 0001:000a15e0       ?update_field_width@?$standard_base@_WV?$stream_output_adapter@_W@__crt_stdio_output@@@__crt_stdio_output@@IAE_NXZ 100a25e0 f i libucrtd:output.obj
 0001:000a1610       ?update_field_width@?$standard_base@_WV?$string_output_adapter@_W@__crt_stdio_output@@@__crt_stdio_output@@IAE_NXZ 100a2610 f i libucrtd:output.obj
 0001:000a1640       ?update_precision@?$positional_parameter_base@DV?$stream_output_adapter@D@__crt_stdio_output@@@__crt_stdio_output@@IAE_NXZ 100a2640 f i libucrtd:output.obj
 0001:000a1820       ?update_precision@?$positional_parameter_base@DV?$string_output_adapter@D@__crt_stdio_output@@@__crt_stdio_output@@IAE_NXZ 100a2820 f i libucrtd:output.obj
 0001:000a1a00       ?update_precision@?$positional_parameter_base@_WV?$stream_output_adapter@_W@__crt_stdio_output@@@__crt_stdio_output@@IAE_NXZ 100a2a00 f i libucrtd:output.obj
 0001:000a1be0       ?update_precision@?$positional_parameter_base@_WV?$string_output_adapter@_W@__crt_stdio_output@@@__crt_stdio_output@@IAE_NXZ 100a2be0 f i libucrtd:output.obj
 0001:000a1dc0       ?update_precision@?$standard_base@DV?$stream_output_adapter@D@__crt_stdio_output@@@__crt_stdio_output@@IAE_NXZ 100a2dc0 f i libucrtd:output.obj
 0001:000a1df0       ?update_precision@?$standard_base@DV?$string_output_adapter@D@__crt_stdio_output@@@__crt_stdio_output@@IAE_NXZ 100a2df0 f i libucrtd:output.obj
 0001:000a1e20       ?update_precision@?$standard_base@_WV?$stream_output_adapter@_W@__crt_stdio_output@@@__crt_stdio_output@@IAE_NXZ 100a2e20 f i libucrtd:output.obj
 0001:000a1e50       ?update_precision@?$standard_base@_WV?$string_output_adapter@_W@__crt_stdio_output@@@__crt_stdio_output@@IAE_NXZ 100a2e50 f i libucrtd:output.obj
 0001:000a1e80       ?valid@__crt_stdio_stream@@QBE_NXZ 100a2e80 f i libucrtd:output.obj
 0001:000a1ec0       ?validate@?$stream_output_adapter@D@__crt_stdio_output@@QBE_NXZ 100a2ec0 f i libucrtd:output.obj
 0001:000a1f90       ?validate@?$stream_output_adapter@_W@__crt_stdio_output@@QBE_NXZ 100a2f90 f i libucrtd:output.obj
 0001:000a2060       ?validate@?$string_output_adapter@D@__crt_stdio_output@@QBE_NXZ 100a3060 f i libucrtd:output.obj
 0001:000a2120       ?validate@?$string_output_adapter@_W@__crt_stdio_output@@QBE_NXZ 100a3120 f i libucrtd:output.obj
 0001:000a21e0       ?validate_and_store_parameter_data@?$positional_parameter_base@DV?$stream_output_adapter@D@__crt_stdio_output@@@__crt_stdio_output@@AAE_NAAUparameter_data@12@W4parameter_type@12@DW4length_modifier@2@@Z 100a31e0 f i libucrtd:output.obj
 0001:000a22f0       ?validate_and_store_parameter_data@?$positional_parameter_base@DV?$string_output_adapter@D@__crt_stdio_output@@@__crt_stdio_output@@AAE_NAAUparameter_data@12@W4parameter_type@12@DW4length_modifier@2@@Z 100a32f0 f i libucrtd:output.obj
 0001:000a2400       ?validate_and_store_parameter_data@?$positional_parameter_base@_WV?$stream_output_adapter@_W@__crt_stdio_output@@@__crt_stdio_output@@AAE_NAAUparameter_data@12@W4parameter_type@12@_WW4length_modifier@2@@Z 100a3400 f i libucrtd:output.obj
 0001:000a2510       ?validate_and_store_parameter_data@?$positional_parameter_base@_WV?$string_output_adapter@_W@__crt_stdio_output@@@__crt_stdio_output@@AAE_NAAUparameter_data@12@W4parameter_type@12@_WW4length_modifier@2@@Z 100a3510 f i libucrtd:output.obj
 0001:000a2620       ?validate_and_update_state_at_beginning_of_format_character@?$positional_parameter_base@DV?$stream_output_adapter@D@__crt_stdio_output@@@__crt_stdio_output@@IAE_NXZ 100a3620 f i libucrtd:output.obj
 0001:000a28d0       ?validate_and_update_state_at_beginning_of_format_character@?$positional_parameter_base@DV?$string_output_adapter@D@__crt_stdio_output@@@__crt_stdio_output@@IAE_NXZ 100a38d0 f i libucrtd:output.obj
 0001:000a2b80       ?validate_and_update_state_at_beginning_of_format_character@?$positional_parameter_base@_WV?$stream_output_adapter@_W@__crt_stdio_output@@@__crt_stdio_output@@IAE_NXZ 100a3b80 f i libucrtd:output.obj
 0001:000a2e30       ?validate_and_update_state_at_beginning_of_format_character@?$positional_parameter_base@_WV?$string_output_adapter@_W@__crt_stdio_output@@@__crt_stdio_output@@IAE_NXZ 100a3e30 f i libucrtd:output.obj
 0001:000a30e0       ?validate_and_update_state_at_beginning_of_format_character@?$standard_base@DV?$stream_output_adapter@D@__crt_stdio_output@@@__crt_stdio_output@@IAE_NXZ 100a40e0 f i libucrtd:output.obj
 0001:000a3100       ?validate_and_update_state_at_beginning_of_format_character@?$standard_base@DV?$string_output_adapter@D@__crt_stdio_output@@@__crt_stdio_output@@IAE_NXZ 100a4100 f i libucrtd:output.obj
 0001:000a3120       ?validate_and_update_state_at_beginning_of_format_character@?$standard_base@_WV?$stream_output_adapter@_W@__crt_stdio_output@@@__crt_stdio_output@@IAE_NXZ 100a4120 f i libucrtd:output.obj
 0001:000a3140       ?validate_and_update_state_at_beginning_of_format_character@?$standard_base@_WV?$string_output_adapter@_W@__crt_stdio_output@@@__crt_stdio_output@@IAE_NXZ 100a4140 f i libucrtd:output.obj
 0001:000a3160       ?validate_and_update_state_at_end_of_format_string@?$format_validation_base@DV?$stream_output_adapter@D@__crt_stdio_output@@@__crt_stdio_output@@IBE_NXZ 100a4160 f i libucrtd:output.obj
 0001:000a3220       ?validate_and_update_state_at_end_of_format_string@?$format_validation_base@DV?$string_output_adapter@D@__crt_stdio_output@@@__crt_stdio_output@@IBE_NXZ 100a4220 f i libucrtd:output.obj
 0001:000a32e0       ?validate_and_update_state_at_end_of_format_string@?$format_validation_base@_WV?$stream_output_adapter@_W@__crt_stdio_output@@@__crt_stdio_output@@IBE_NXZ 100a42e0 f i libucrtd:output.obj
 0001:000a33a0       ?validate_and_update_state_at_end_of_format_string@?$format_validation_base@_WV?$string_output_adapter@_W@__crt_stdio_output@@@__crt_stdio_output@@IBE_NXZ 100a43a0 f i libucrtd:output.obj
 0001:000a3460       ?validate_and_update_state_at_end_of_format_string@?$positional_parameter_base@DV?$stream_output_adapter@D@__crt_stdio_output@@@__crt_stdio_output@@IAE_NXZ 100a4460 f i libucrtd:output.obj
 0001:000a3660       ?validate_and_update_state_at_end_of_format_string@?$positional_parameter_base@DV?$string_output_adapter@D@__crt_stdio_output@@@__crt_stdio_output@@IAE_NXZ 100a4660 f i libucrtd:output.obj
 0001:000a3860       ?validate_and_update_state_at_end_of_format_string@?$positional_parameter_base@_WV?$stream_output_adapter@_W@__crt_stdio_output@@@__crt_stdio_output@@IAE_NXZ 100a4860 f i libucrtd:output.obj
 0001:000a3a60       ?validate_and_update_state_at_end_of_format_string@?$positional_parameter_base@_WV?$string_output_adapter@_W@__crt_stdio_output@@@__crt_stdio_output@@IAE_NXZ 100a4a60 f i libucrtd:output.obj
 0001:000a3c60       ?validate_and_update_state_at_end_of_format_string@?$standard_base@DV?$stream_output_adapter@D@__crt_stdio_output@@@__crt_stdio_output@@IBE_NXZ 100a4c60 f i libucrtd:output.obj
 0001:000a3c80       ?validate_and_update_state_at_end_of_format_string@?$standard_base@DV?$string_output_adapter@D@__crt_stdio_output@@@__crt_stdio_output@@IBE_NXZ 100a4c80 f i libucrtd:output.obj
 0001:000a3ca0       ?validate_and_update_state_at_end_of_format_string@?$standard_base@_WV?$stream_output_adapter@_W@__crt_stdio_output@@@__crt_stdio_output@@IBE_NXZ 100a4ca0 f i libucrtd:output.obj
 0001:000a3cc0       ?validate_and_update_state_at_end_of_format_string@?$standard_base@_WV?$string_output_adapter@_W@__crt_stdio_output@@@__crt_stdio_output@@IBE_NXZ 100a4cc0 f i libucrtd:output.obj
 0001:000a3ce0       ?validate_state_for_type_case_a@?$positional_parameter_base@DV?$stream_output_adapter@D@__crt_stdio_output@@@__crt_stdio_output@@IAE_NXZ 100a4ce0 f i libucrtd:output.obj
 0001:000a3e10       ?validate_state_for_type_case_a@?$positional_parameter_base@DV?$string_output_adapter@D@__crt_stdio_output@@@__crt_stdio_output@@IAE_NXZ 100a4e10 f i libucrtd:output.obj
 0001:000a3f40       ?validate_state_for_type_case_a@?$positional_parameter_base@_WV?$stream_output_adapter@_W@__crt_stdio_output@@@__crt_stdio_output@@IAE_NXZ 100a4f40 f i libucrtd:output.obj
 0001:000a4070       ?validate_state_for_type_case_a@?$positional_parameter_base@_WV?$string_output_adapter@_W@__crt_stdio_output@@@__crt_stdio_output@@IAE_NXZ 100a5070 f i libucrtd:output.obj
 0001:000a41a0       ?validate_state_for_type_case_a@?$standard_base@DV?$stream_output_adapter@D@__crt_stdio_output@@@__crt_stdio_output@@IBE_NXZ 100a51a0 f i libucrtd:output.obj
 0001:000a41c0       ?validate_state_for_type_case_a@?$standard_base@DV?$string_output_adapter@D@__crt_stdio_output@@@__crt_stdio_output@@IBE_NXZ 100a51c0 f i libucrtd:output.obj
 0001:000a41e0       ?validate_state_for_type_case_a@?$standard_base@_WV?$stream_output_adapter@_W@__crt_stdio_output@@@__crt_stdio_output@@IBE_NXZ 100a51e0 f i libucrtd:output.obj
 0001:000a4200       ?validate_state_for_type_case_a@?$standard_base@_WV?$string_output_adapter@_W@__crt_stdio_output@@@__crt_stdio_output@@IBE_NXZ 100a5200 f i libucrtd:output.obj
 0001:000a4220       ?validate_stream_is_ansi_if_required@?$__acrt_stdio_char_traits@D@@SA_NQAU_iobuf@@@Z 100a5220 f i libucrtd:output.obj
 0001:000a43a0       ?validate_stream_is_ansi_if_required@?$__acrt_stdio_char_traits@_W@@SA_NQAU_iobuf@@@Z 100a53a0 f i libucrtd:output.obj
 0001:000a43b0       ?wide_null_string@?$output_processor@DV?$stream_output_adapter@D@__crt_stdio_output@@V?$format_validation_base@DV?$stream_output_adapter@D@__crt_stdio_output@@@2@@__crt_stdio_output@@CAPA_WXZ 100a53b0 f i libucrtd:output.obj
 0001:000a43c0       ?wide_null_string@?$output_processor@DV?$stream_output_adapter@D@__crt_stdio_output@@V?$positional_parameter_base@DV?$stream_output_adapter@D@__crt_stdio_output@@@2@@__crt_stdio_output@@CAPA_WXZ 100a53c0 f i libucrtd:output.obj
 0001:000a43d0       ?wide_null_string@?$output_processor@DV?$stream_output_adapter@D@__crt_stdio_output@@V?$standard_base@DV?$stream_output_adapter@D@__crt_stdio_output@@@2@@__crt_stdio_output@@CAPA_WXZ 100a53d0 f i libucrtd:output.obj
 0001:000a43e0       ?wide_null_string@?$output_processor@DV?$string_output_adapter@D@__crt_stdio_output@@V?$format_validation_base@DV?$string_output_adapter@D@__crt_stdio_output@@@2@@__crt_stdio_output@@CAPA_WXZ 100a53e0 f i libucrtd:output.obj
 0001:000a43f0       ?wide_null_string@?$output_processor@DV?$string_output_adapter@D@__crt_stdio_output@@V?$positional_parameter_base@DV?$string_output_adapter@D@__crt_stdio_output@@@2@@__crt_stdio_output@@CAPA_WXZ 100a53f0 f i libucrtd:output.obj
 0001:000a4400       ?wide_null_string@?$output_processor@DV?$string_output_adapter@D@__crt_stdio_output@@V?$standard_base@DV?$string_output_adapter@D@__crt_stdio_output@@@2@@__crt_stdio_output@@CAPA_WXZ 100a5400 f i libucrtd:output.obj
 0001:000a4410       ?wide_null_string@?$output_processor@_WV?$stream_output_adapter@_W@__crt_stdio_output@@V?$format_validation_base@_WV?$stream_output_adapter@_W@__crt_stdio_output@@@2@@__crt_stdio_output@@CAPA_WXZ 100a5410 f i libucrtd:output.obj
 0001:000a4420       ?wide_null_string@?$output_processor@_WV?$stream_output_adapter@_W@__crt_stdio_output@@V?$positional_parameter_base@_WV?$stream_output_adapter@_W@__crt_stdio_output@@@2@@__crt_stdio_output@@CAPA_WXZ 100a5420 f i libucrtd:output.obj
 0001:000a4430       ?wide_null_string@?$output_processor@_WV?$stream_output_adapter@_W@__crt_stdio_output@@V?$standard_base@_WV?$stream_output_adapter@_W@__crt_stdio_output@@@2@@__crt_stdio_output@@CAPA_WXZ 100a5430 f i libucrtd:output.obj
 0001:000a4440       ?wide_null_string@?$output_processor@_WV?$string_output_adapter@_W@__crt_stdio_output@@V?$format_validation_base@_WV?$string_output_adapter@_W@__crt_stdio_output@@@2@@__crt_stdio_output@@CAPA_WXZ 100a5440 f i libucrtd:output.obj
 0001:000a4450       ?wide_null_string@?$output_processor@_WV?$string_output_adapter@_W@__crt_stdio_output@@V?$positional_parameter_base@_WV?$string_output_adapter@_W@__crt_stdio_output@@@2@@__crt_stdio_output@@CAPA_WXZ 100a5450 f i libucrtd:output.obj
 0001:000a4460       ?wide_null_string@?$output_processor@_WV?$string_output_adapter@_W@__crt_stdio_output@@V?$standard_base@_WV?$string_output_adapter@_W@__crt_stdio_output@@@2@@__crt_stdio_output@@CAPA_WXZ 100a5460 f i libucrtd:output.obj
 0001:000a4470       ?write_character@?$stream_output_adapter@D@__crt_stdio_output@@QBEXDQAH@Z 100a5470 f i libucrtd:output.obj
 0001:000a4510       ?write_character@?$stream_output_adapter@_W@__crt_stdio_output@@QBEX_WQAH@Z 100a5510 f i libucrtd:output.obj
 0001:000a45b0       ?write_character@?$string_output_adapter@D@__crt_stdio_output@@QBE_NDQAH@Z 100a55b0 f i libucrtd:output.obj
 0001:000a4670       ?write_character@?$string_output_adapter@_W@__crt_stdio_output@@QBE_N_WQAH@Z 100a5670 f i libucrtd:output.obj
 0001:000a4730       ?write_stored_string_tchar@?$output_processor@DV?$stream_output_adapter@D@__crt_stdio_output@@V?$format_validation_base@DV?$stream_output_adapter@D@__crt_stdio_output@@@2@@__crt_stdio_output@@AAE_ND@Z 100a5730 f i libucrtd:output.obj
 0001:000a4880       ?write_stored_string_tchar@?$output_processor@DV?$stream_output_adapter@D@__crt_stdio_output@@V?$positional_parameter_base@DV?$stream_output_adapter@D@__crt_stdio_output@@@2@@__crt_stdio_output@@AAE_ND@Z 100a5880 f i libucrtd:output.obj
 0001:000a49d0       ?write_stored_string_tchar@?$output_processor@DV?$stream_output_adapter@D@__crt_stdio_output@@V?$standard_base@DV?$stream_output_adapter@D@__crt_stdio_output@@@2@@__crt_stdio_output@@AAE_ND@Z 100a59d0 f i libucrtd:output.obj
 0001:000a4b20       ?write_stored_string_tchar@?$output_processor@DV?$string_output_adapter@D@__crt_stdio_output@@V?$format_validation_base@DV?$string_output_adapter@D@__crt_stdio_output@@@2@@__crt_stdio_output@@AAE_ND@Z 100a5b20 f i libucrtd:output.obj
 0001:000a4c70       ?write_stored_string_tchar@?$output_processor@DV?$string_output_adapter@D@__crt_stdio_output@@V?$positional_parameter_base@DV?$string_output_adapter@D@__crt_stdio_output@@@2@@__crt_stdio_output@@AAE_ND@Z 100a5c70 f i libucrtd:output.obj
 0001:000a4dc0       ?write_stored_string_tchar@?$output_processor@DV?$string_output_adapter@D@__crt_stdio_output@@V?$standard_base@DV?$string_output_adapter@D@__crt_stdio_output@@@2@@__crt_stdio_output@@AAE_ND@Z 100a5dc0 f i libucrtd:output.obj
 0001:000a4f10       ?write_stored_string_tchar@?$output_processor@_WV?$stream_output_adapter@_W@__crt_stdio_output@@V?$format_validation_base@_WV?$stream_output_adapter@_W@__crt_stdio_output@@@2@@__crt_stdio_output@@AAE_N_W@Z 100a5f10 f i libucrtd:output.obj
 0001:000a5030       ?write_stored_string_tchar@?$output_processor@_WV?$stream_output_adapter@_W@__crt_stdio_output@@V?$positional_parameter_base@_WV?$stream_output_adapter@_W@__crt_stdio_output@@@2@@__crt_stdio_output@@AAE_N_W@Z 100a6030 f i libucrtd:output.obj
 0001:000a5150       ?write_stored_string_tchar@?$output_processor@_WV?$stream_output_adapter@_W@__crt_stdio_output@@V?$standard_base@_WV?$stream_output_adapter@_W@__crt_stdio_output@@@2@@__crt_stdio_output@@AAE_N_W@Z 100a6150 f i libucrtd:output.obj
 0001:000a5270       ?write_stored_string_tchar@?$output_processor@_WV?$string_output_adapter@_W@__crt_stdio_output@@V?$format_validation_base@_WV?$string_output_adapter@_W@__crt_stdio_output@@@2@@__crt_stdio_output@@AAE_N_W@Z 100a6270 f i libucrtd:output.obj
 0001:000a5390       ?write_stored_string_tchar@?$output_processor@_WV?$string_output_adapter@_W@__crt_stdio_output@@V?$positional_parameter_base@_WV?$string_output_adapter@_W@__crt_stdio_output@@@2@@__crt_stdio_output@@AAE_N_W@Z 100a6390 f i libucrtd:output.obj
 0001:000a54b0       ?write_stored_string_tchar@?$output_processor@_WV?$string_output_adapter@_W@__crt_stdio_output@@V?$standard_base@_WV?$string_output_adapter@_W@__crt_stdio_output@@@2@@__crt_stdio_output@@AAE_N_W@Z 100a64b0 f i libucrtd:output.obj
 0001:000a55d0       ?write_string@?$stream_output_adapter@D@__crt_stdio_output@@QBEXQBDHQAH1@Z 100a65d0 f i libucrtd:output.obj
 0001:000a56b0       ?write_string@?$stream_output_adapter@_W@__crt_stdio_output@@QBEXQB_WHQAH1@Z 100a66b0 f i libucrtd:output.obj
 0001:000a5790       ?write_string@?$string_output_adapter@D@__crt_stdio_output@@QBEXQBDHQAH1@Z 100a6790 f i libucrtd:output.obj
 0001:000a58f0       ?write_string@?$string_output_adapter@_W@__crt_stdio_output@@QBEXQB_WHQAH1@Z 100a68f0 f i libucrtd:output.obj
 0001:000a5a50       ___acrt_isleadbyte_l_noupdate 100a6a50 f i libucrtd:output.obj
 0001:000a5a80       ___stdio_common_vfprintf   100a6a80 f   libucrtd:output.obj
 0001:000a5ab0       ___stdio_common_vfprintf_p 100a6ab0 f   libucrtd:output.obj
 0001:000a5ae0       ___stdio_common_vfprintf_s 100a6ae0 f   libucrtd:output.obj
 0001:000a5b10       ___stdio_common_vfwprintf  100a6b10 f   libucrtd:output.obj
 0001:000a5b40       ___stdio_common_vfwprintf_p 100a6b40 f   libucrtd:output.obj
 0001:000a5b70       ___stdio_common_vfwprintf_s 100a6b70 f   libucrtd:output.obj
 0001:000a5ba0       ___stdio_common_vsnprintf_s 100a6ba0 f   libucrtd:output.obj
 0001:000a5be0       ___stdio_common_vsnwprintf_s 100a6be0 f   libucrtd:output.obj
 0001:000a5c20       ___stdio_common_vsprintf   100a6c20 f   libucrtd:output.obj
 0001:000a5c60       ___stdio_common_vsprintf_p 100a6c60 f   libucrtd:output.obj
 0001:000a5ca0       ___stdio_common_vsprintf_s 100a6ca0 f   libucrtd:output.obj
 0001:000a5ce0       ___stdio_common_vswprintf  100a6ce0 f   libucrtd:output.obj
 0001:000a5d20       ___stdio_common_vswprintf_p 100a6d20 f   libucrtd:output.obj
 0001:000a5d60       ___stdio_common_vswprintf_s 100a6d60 f   libucrtd:output.obj
 0001:000a6920       __makepath                 100a7920 f   libucrtd:makepath.obj
 0001:000a6950       __makepath_s               100a7950 f   libucrtd:makepath.obj
 0001:000a6980       __wmakepath                100a7980 f   libucrtd:makepath.obj
 0001:000a69b0       __wmakepath_s              100a79b0 f   libucrtd:makepath.obj
 0001:000a8840       ??$tcsncpy_s@AAPADIAAPBDABI@?$__crt_char_traits@D@@SAHAAPAD$$QAIAAPBDABI@Z 100a9840 f i libucrtd:splitpath.obj
 0001:000a8870       ??$tcsncpy_s@AAPADIAAPBDH@?$__crt_char_traits@D@@SAHAAPAD$$QAIAAPBD$$QAH@Z 100a9870 f i libucrtd:splitpath.obj
 0001:000a88a0       ??$tcsncpy_s@AAPA_WIAAPB_WABI@?$__crt_char_traits@_W@@SAHAAPA_W$$QAIAAPB_WABI@Z 100a98a0 f i libucrtd:splitpath.obj
 0001:000a88d0       ??$tcsncpy_s@AAPA_WIAAPB_WH@?$__crt_char_traits@_W@@SAHAAPA_W$$QAIAAPB_W$$QAH@Z 100a98d0 f i libucrtd:splitpath.obj
 0001:000a8b20       __splitpath                100a9b20 f   libucrtd:splitpath.obj
 0001:000a8b50       __splitpath_s              100a9b50 f   libucrtd:splitpath.obj
 0001:000a8bb0       __wsplitpath               100a9bb0 f   libucrtd:splitpath.obj
 0001:000a8be0       __wsplitpath_s             100a9be0 f   libucrtd:splitpath.obj
 0001:000a9020       _wcscpy_s                  100aa020 f   libucrtd:wcscpy_s.obj
 0001:000a9050       __set_abort_behavior       100aa050 f   libucrtd:abort.obj
 0001:000a9090       _abort                     100aa090 f   libucrtd:abort.obj
 0001:000a94f0       _strcpy_s                  100aa4f0 f   libucrtd:strcpy_s.obj
 0001:000a9520       _strcmp                    100aa520 f   libucrtd:strcmp.obj
 0001:000a95d0       _strlen                    100aa5d0 f   libucrtd:strlen.obj
 0001:000a9680       _free                      100aa680 f   libucrtd:free.obj
 0001:000a96a0       ??$is_overflow_condition@K@__crt_strtox@@YA_NIK@Z 100aa6a0 f i libucrtd:atox.obj
 0001:000a9710       ??$is_overflow_condition@_K@__crt_strtox@@YA_NI_K@Z 100aa710 f i libucrtd:atox.obj
 0001:000a97c0       ??$make_c_string_character_source@D$$T@__crt_strtox@@YA?AV?$c_string_character_source@D@0@QBD$$T@Z 100aa7c0 f i libucrtd:atox.obj
 0001:000a97e0       ??$make_c_string_character_source@_W$$T@__crt_strtox@@YA?AV?$c_string_character_source@_W@0@QB_W$$T@Z 100aa7e0 f i libucrtd:atox.obj
 0001:000a9800       ??$parse_integer@KV?$c_string_character_source@D@__crt_strtox@@@__crt_strtox@@YAKQAU__crt_locale_pointers@@V?$c_string_character_source@D@0@H_N@Z 100aa800 f i libucrtd:atox.obj
 0001:000a9c50       ??$parse_integer@KV?$c_string_character_source@_W@__crt_strtox@@@__crt_strtox@@YAKQAU__crt_locale_pointers@@V?$c_string_character_source@_W@0@H_N@Z 100aac50 f i libucrtd:atox.obj
 0001:000aa0a0       ??$parse_integer@_KV?$c_string_character_source@D@__crt_strtox@@@__crt_strtox@@YA_KQAU__crt_locale_pointers@@V?$c_string_character_source@D@0@H_N@Z 100ab0a0 f i libucrtd:atox.obj
 0001:000aa5c0       ??$parse_integer@_KV?$c_string_character_source@_W@__crt_strtox@@@__crt_strtox@@YA_KQAU__crt_locale_pointers@@V?$c_string_character_source@_W@0@H_N@Z 100ab5c0 f i libucrtd:atox.obj
 0001:000aab00       ??$parse_integer_from_string@JD$$T@__crt_strtox@@YAJQBD$$THQAU__crt_locale_pointers@@@Z 100abb00 f i libucrtd:atox.obj
 0001:000aab50       ??$parse_integer_from_string@J_W$$T@__crt_strtox@@YAJQB_W$$THQAU__crt_locale_pointers@@@Z 100abb50 f i libucrtd:atox.obj
 0001:000aaba0       ??$parse_integer_from_string@_JD$$T@__crt_strtox@@YA_JQBD$$THQAU__crt_locale_pointers@@@Z 100abba0 f i libucrtd:atox.obj
 0001:000aabf0       ??$parse_integer_from_string@_J_W$$T@__crt_strtox@@YA_JQB_W$$THQAU__crt_locale_pointers@@@Z 100abbf0 f i libucrtd:atox.obj
 0001:000aac40       ??0?$c_string_character_source@D@__crt_strtox@@QAE@QBDQAPBD@Z 100abc40 f i libucrtd:atox.obj
 0001:000aac80       ??0?$c_string_character_source@_W@__crt_strtox@@QAE@QB_WQAPB_W@Z 100abc80 f i libucrtd:atox.obj
 0001:000aacc0       ??1?$c_string_character_source@D@__crt_strtox@@QAE@XZ 100abcc0 f i libucrtd:atox.obj
 0001:000aacf0       ??1?$c_string_character_source@_W@__crt_strtox@@QAE@XZ 100abcf0 f i libucrtd:atox.obj
 0001:000aad20       ?get@?$c_string_character_source@D@__crt_strtox@@QAEDXZ 100abd20 f i libucrtd:atox.obj
 0001:000aad60       ?get@?$c_string_character_source@_W@__crt_strtox@@QAE_WXZ 100abd60 f i libucrtd:atox.obj
 0001:000aada0       ?is_space@__crt_strtox@@YA_NDQAU__crt_locale_pointers@@@Z 100abda0 f i libucrtd:atox.obj
 0001:000aadf0       ?is_space@__crt_strtox@@YA_N_WPAU__crt_locale_pointers@@@Z 100abdf0 f i libucrtd:atox.obj
 0001:000aae30       ?maximum_signed_value@__crt_strtox@@YAJK@Z 100abe30 f i libucrtd:atox.obj
 0001:000aae40       ?maximum_signed_value@__crt_strtox@@YA_J_K@Z 100abe40 f i libucrtd:atox.obj
 0001:000aae60       ?minimum_signed_value@__crt_strtox@@YAJK@Z 100abe60 f i libucrtd:atox.obj
 0001:000aae70       ?minimum_signed_value@__crt_strtox@@YA_J_K@Z 100abe70 f i libucrtd:atox.obj
 0001:000aae90       ?parse_digit@__crt_strtox@@YAID@Z 100abe90 f i libucrtd:atox.obj
 0001:000aaf10       ?parse_digit@__crt_strtox@@YAI_W@Z 100abf10 f i libucrtd:atox.obj
 0001:000aafb0       ?restore_state@?$c_string_character_source@D@__crt_strtox@@QAE_NQBD@Z 100abfb0 f i libucrtd:atox.obj
 0001:000aafd0       ?restore_state@?$c_string_character_source@_W@__crt_strtox@@QAE_NQB_W@Z 100abfd0 f i libucrtd:atox.obj
 0001:000aaff0       ?save_state@?$c_string_character_source@D@__crt_strtox@@QBEPBDXZ 100abff0 f i libucrtd:atox.obj
 0001:000ab010       ?save_state@?$c_string_character_source@_W@__crt_strtox@@QBEPB_WXZ 100ac010 f i libucrtd:atox.obj
 0001:000ab030       ?unget@?$c_string_character_source@D@__crt_strtox@@QAEXD@Z 100ac030 f i libucrtd:atox.obj
 0001:000ab100       ?unget@?$c_string_character_source@_W@__crt_strtox@@QAEX_W@Z 100ac100 f i libucrtd:atox.obj
 0001:000ab1d0       ?validate@?$c_string_character_source@D@__crt_strtox@@QBE_NXZ 100ac1d0 f i libucrtd:atox.obj
 0001:000ab290       ?validate@?$c_string_character_source@_W@__crt_strtox@@QBE_NXZ 100ac290 f i libucrtd:atox.obj
 0001:000ab350       ?wide_character_to_digit@__crt_strtox@@YAH_W@Z 100ac350 f i libucrtd:atox.obj
 0001:000ab740       __atoi64                   100ac740 f   libucrtd:atox.obj
 0001:000ab760       __atoi64_l                 100ac760 f   libucrtd:atox.obj
 0001:000ab790       __atoi_l                   100ac790 f   libucrtd:atox.obj
 0001:000ab7c0       __atol_l                   100ac7c0 f   libucrtd:atox.obj
 0001:000ab7f0       __atoll_l                  100ac7f0 f   libucrtd:atox.obj
 0001:000ab820       __wtoi                     100ac820 f   libucrtd:atox.obj
 0001:000ab840       __wtoi64                   100ac840 f   libucrtd:atox.obj
 0001:000ab860       __wtoi64_l                 100ac860 f   libucrtd:atox.obj
 0001:000ab890       __wtoi_l                   100ac890 f   libucrtd:atox.obj
 0001:000ab8c0       __wtol                     100ac8c0 f   libucrtd:atox.obj
 0001:000ab8e0       __wtol_l                   100ac8e0 f   libucrtd:atox.obj
 0001:000ab910       __wtoll                    100ac910 f   libucrtd:atox.obj
 0001:000ab930       __wtoll_l                  100ac930 f   libucrtd:atox.obj
 0001:000ab960       _atoi                      100ac960 f   libucrtd:atox.obj
 0001:000ab980       _atol                      100ac980 f   libucrtd:atox.obj
 0001:000ab9a0       _atoll                     100ac9a0 f   libucrtd:atox.obj
 0001:000ab9c0       __add_exp                  100ac9c0 f   libucrtd:util.obj
 0001:000aba00       __decomp                   100aca00 f   libucrtd:util.obj
 0001:000abb70       __get_exp                  100acb70 f   libucrtd:util.obj
 0001:000abbb0       __set_bexp                 100acbb0 f   libucrtd:util.obj
 0001:000abbf0       __set_exp                  100acbf0 f   libucrtd:util.obj
 0001:000abc40       __sptype                   100acc40 f   libucrtd:util.obj
 0001:000abce0       ___clrfp_sse2              100acce0 f   libucrtd:fpctrl.obj
 0001:000abd30       ___ctrlfp_sse2             100acd30 f   libucrtd:fpctrl.obj
 0001:000abda0       ___fclrf_sse2              100acda0 f   libucrtd:fpctrl.obj
 0001:000abdd0       ___get_fpsr_sse2           100acdd0 f   libucrtd:fpctrl.obj
 0001:000abe00       ___set_fpsr_sse2           100ace00 f   libucrtd:fpctrl.obj
 0001:000abf10       ___set_statfp_sse2         100acf10 f   libucrtd:fpctrl.obj
 0001:000abf50       ___statfp_sse2             100acf50 f   libucrtd:fpctrl.obj
 0001:000abf90       __clrfp                    100acf90 f   libucrtd:fpctrl.obj
 0001:000abfb0       __ctrlfp                   100acfb0 f   libucrtd:fpctrl.obj
 0001:000abff0       __set_statfp               100acff0 f   libucrtd:fpctrl.obj
 0001:000ac070       __statfp                   100ad070 f   libucrtd:fpctrl.obj
 0001:000ac090       _ldexp                     100ad090 f   libucrtd:ldexp.obj
 0001:000ac420       _nextafter                 100ad420 f   libucrtd:nextafter.obj
 0001:000ac450       ___acrt_initialize_sse2    100ad450 f   libucrtd:mathfcns.obj
 0001:000ac470       __set_SSE2_enable          100ad470 f   libucrtd:mathfcns.obj
 0001:000ac4d0       __CIpow_pentium4           100ad4d0 f   libucrtd:pow_pentium4.obj
 0001:000ac4e9       __pow_pentium4             100ad4e9     libucrtd:pow_pentium4.obj
 0001:000ad2d1       __fFEXP                    100ae2d1     libucrtd:87tran.obj
 0001:000ad328       __rtinfpopse               100ae328     libucrtd:87tran.obj
 0001:000ad32a       __rtinfnpopse              100ae32a     libucrtd:87tran.obj
 0001:000ad33a       __fFLN                     100ae33a     libucrtd:87tran.obj
 0001:000ad3ef       __rtinfpop                 100ae3ef     libucrtd:87tran.obj
 0001:000ad3f1       __rtinfnpop                100ae3f1     libucrtd:87tran.obj
 0001:000ad40e       __ffexpm1                  100ae40e     libucrtd:87tran.obj
 0001:000ad540       __trandisp1                100ae540 f   libucrtd:87disp.obj
 0001:000ad5a7       __trandisp2                100ae5a7 f   libucrtd:87disp.obj
 0001:000ad633       __rttospopde               100ae633     libucrtd:87disp.obj
 0001:000ad638       __rttospop                 100ae638     libucrtd:87disp.obj
 0001:000ad63a       __rtnospop                 100ae63a     libucrtd:87disp.obj
 0001:000ad63c       __rttosnpop                100ae63c     libucrtd:87disp.obj
 0001:000ad63d       __rtnospopde               100ae63d     libucrtd:87disp.obj
 0001:000ad644       __rtzeropop                100ae644     libucrtd:87disp.obj
 0001:000ad646       __rtzeronpop               100ae646     libucrtd:87disp.obj
 0001:000ad64b       __rtzerospop               100ae64b     libucrtd:87disp.obj
 0001:000ad658       __rtonepop                 100ae658     libucrtd:87disp.obj
 0001:000ad65a       __rtonenpop                100ae65a     libucrtd:87disp.obj
 0001:000ad65f       __tosnan1                  100ae65f     libucrtd:87disp.obj
 0001:000ad68a       __nosnan2                  100ae68a     libucrtd:87disp.obj
 0001:000ad68c       __tosnan2                  100ae68c     libucrtd:87disp.obj
 0001:000ad6b4       __nan2                     100ae6b4     libucrtd:87disp.obj
 0001:000ad6f3       __rtindfpop                100ae6f3     libucrtd:87disp.obj
 0001:000ad6f5       __rtindfnpop               100ae6f5     libucrtd:87disp.obj
 0001:000ad706       __rttosnpopde              100ae706     libucrtd:87disp.obj
 0001:000ad710       __rtatan2inf               100ae710     libucrtd:87disp.obj
 0001:000ad72d       __rtchsifneg               100ae72d     libucrtd:87disp.obj
 0001:000ad7c0       ___setfflag                100ae7c0 f   libucrtd:fp_flags.obj
 0001:000ad7f0       __startTwoArgErrorHandling 100ae7f0 f   libucrtd:genexcep.obj
 0001:000ad807       __startOneArgErrorHandling 100ae807 f   libucrtd:genexcep.obj
 0001:000ad860       __twoToTOS                 100ae860 f   libucrtd:common.obj
 0001:000ad875       __load_CW                  100ae875 f   libucrtd:common.obj
 0001:000ad88c       __convertTOStoQNaN         100ae88c f   libucrtd:common.obj
 0001:000ad8a5       __fload_withFB             100ae8a5 f   libucrtd:common.obj
 0001:000ad8e8       __checkTOS_withFB          100ae8e8 f   libucrtd:common.obj
 0001:000ad8fe       __fast_exit                100ae8fe f   libucrtd:common.obj
 0001:000ad90b       __math_exit                100ae90b f   libucrtd:common.obj
 0001:000ad935       __check_overflow_exit      100ae935 f   libucrtd:common.obj
 0001:000ad949       __check_range_exit         100ae949 f   libucrtd:common.obj
 0001:000ada50       __d_inttype                100aea50 f   libucrtd:powhlp.obj
 0001:000adb00       __powhlp                   100aeb00 f   libucrtd:powhlp.obj
 0001:000add10       __CIcos_pentium4           100aed10 f   libucrtd:cos_pentium4.obj
 0001:000add28       __cos_pentium4             100aed28     libucrtd:cos_pentium4.obj
 0001:000adf30       __CIsin_pentium4           100aef30 f   libucrtd:sin_pentium4.obj
 0001:000adf48       __sin_pentium4             100aef48     libucrtd:sin_pentium4.obj
 0001:000ae18c       __fFATN2                   100af18c     libucrtd:87triga.obj
 0001:000ae1dc       __rtpiby2                  100af1dc     libucrtd:87triga.obj
 0001:000ae250       __cintrindisp2             100af250 f   libucrtd:87cdisp.obj
 0001:000ae294       __cintrindisp1             100af294 f   libucrtd:87cdisp.obj
 0001:000ae2d7       __ctrandisp2               100af2d7 f   libucrtd:87cdisp.obj
 0001:000ae466       __ctrandisp1               100af466 f   libucrtd:87cdisp.obj
 0001:000ae499       __fload                    100af499 f   libucrtd:87cdisp.obj
 0001:000ae580       ___libm_error_support      100af580 f   libucrtd:libm_error.obj
 0001:000aecc0       ___libm_setusermatherr     100afcc0 f   libucrtd:libm_error.obj
 0001:000aed00       __floor_default            100afd00 f   libucrtd:floor.obj
 0001:000aee60       ??$__crt_fast_decode_pointer@P6AXPB_W00II@Z@@YAP6AXPB_W00II@ZQ6AX000II@Z@Z 100afe60 f i libucrtd:invalid_parameter.obj
 0001:000aeea0       ??$__crt_fast_encode_pointer@P6AXPB_W00II@Z@@YAP6AXPB_W00II@ZQ6AX000II@Z@Z 100afea0 f i libucrtd:invalid_parameter.obj
 0001:000aeee0       ?initialize@?$dual_state_global@P6AXPB_W00II@Z@__crt_state_management@@QAEXQ6AXPB_W00II@Z@Z 100afee0 f i libucrtd:invalid_parameter.obj
 0001:000aef30       ?value@?$dual_state_global@P6AXPB_W00II@Z@__crt_state_management@@QAEAAP6AXPB_W00II@ZXZ 100aff30 f i libucrtd:invalid_parameter.obj
 0001:000aef50       ___acrt_call_reportfault   100aff50 f   libucrtd:invalid_parameter.obj
 0001:000af100       ___acrt_initialize_invalid_parameter_handler 100b0100 f   libucrtd:invalid_parameter.obj
 0001:000af120       __get_invalid_parameter_handler 100b0120 f   libucrtd:invalid_parameter.obj
 0001:000af150       __get_thread_local_invalid_parameter_handler 100b0150 f   libucrtd:invalid_parameter.obj
 0001:000af180       __invalid_parameter        100b0180 f   libucrtd:invalid_parameter.obj
 0001:000af280       __invalid_parameter_noinfo 100b0280 f   libucrtd:invalid_parameter.obj
 0001:000af2a0       __invalid_parameter_noinfo_noreturn 100b02a0 f   libucrtd:invalid_parameter.obj
 0001:000af2e0       __invoke_watson            100b02e0 f   libucrtd:invalid_parameter.obj
 0001:000af330       __set_invalid_parameter_handler 100b0330 f   libucrtd:invalid_parameter.obj
 0001:000af390       __set_thread_local_invalid_parameter_handler 100b0390 f   libucrtd:invalid_parameter.obj
 0001:000af3d0       __CrtGetReportHook         100b03d0 f   libucrtd:dbgrptt.obj
 0001:000af3e0       __CrtSetReportFile         100b03e0 f   libucrtd:dbgrptt.obj
 0001:000af510       __CrtSetReportHook         100b0510 f   libucrtd:dbgrptt.obj
 0001:000af540       __CrtSetReportMode         100b0540 f   libucrtd:dbgrptt.obj
 0001:000af6d0       __VCrtDbgReportA           100b06d0 f   libucrtd:dbgrptt.obj
 0001:000b0190       __VCrtDbgReportW           100b1190 f   libucrtd:dbgrptt.obj
 0001:000b0db0       __snprintf_s               100b1db0 f i libucrtd:dbgrptt.obj
 0001:000b0e10       __vsnprintf_s              100b1e10 f i libucrtd:dbgrptt.obj
 0001:000b0e40       __vsnprintf_s_l            100b1e40 f i libucrtd:dbgrptt.obj
 0001:000b0eb0       __vsnwprintf_s             100b1eb0 f i libucrtd:dbgrptt.obj
 0001:000b0ee0       ___acrt_errno_from_os_error 100b1ee0 f   libucrtd:errno.obj
 0001:000b0f80       ___acrt_errno_map_os_error 100b1f80 f   libucrtd:errno.obj
 0001:000b0fc0       ___doserrno                100b1fc0 f   libucrtd:errno.obj
 0001:000b0ff0       __errno                    100b1ff0 f   libucrtd:errno.obj
 0001:000b1020       __get_doserrno             100b2020 f   libucrtd:errno.obj
 0001:000b10d0       __get_errno                100b20d0 f   libucrtd:errno.obj
 0001:000b1180       __set_doserrno             100b2180 f   libucrtd:errno.obj
 0001:000b11c0       __set_errno                100b21c0 f   libucrtd:errno.obj
 0001:000b1200       _wcslen                    100b2200 f   libucrtd:wcslen.obj
 0001:000b15f0       ??$message_box@$$TAAPBDAAPBDAAI@?$__crt_char_traits@D@@SAH$$QA$$TAAPBD1AAI@Z 100b25f0 f i libucrtd:crtmbox.obj
 0001:000b1620       ??$message_box@$$TAAPB_WAAPB_WAAI@?$__crt_char_traits@_W@@SAH$$QA$$TAAPB_W1AAI@Z 100b2620 f i libucrtd:crtmbox.obj
 0001:000b1650       ??$message_box@$$TABQBDABQBDK@?$__crt_char_traits@D@@SAH$$QA$$TABQBD1$$QAK@Z 100b2650 f i libucrtd:crtmbox.obj
 0001:000b1680       ??$message_box@$$TABQB_WABQB_WK@?$__crt_char_traits@_W@@SAH$$QA$$TABQB_W1$$QAK@Z 100b2680 f i libucrtd:crtmbox.obj
 0001:000b16b0       ??$message_box@PAUHWND__@@ABQBDABQBDABI@?$__crt_char_traits@D@@SAH$$QAPAUHWND__@@ABQBD1ABI@Z 100b26b0 f i libucrtd:crtmbox.obj
 0001:000b16e0       ??$message_box@PAUHWND__@@ABQB_WABQB_WABI@?$__crt_char_traits@_W@@SAH$$QAPAUHWND__@@ABQB_W1ABI@Z 100b26e0 f i libucrtd:crtmbox.obj
 0001:000b17d0       ??$output_debug_string@ABQBD@?$__crt_char_traits@D@@SAXABQBD@Z 100b27d0 f i libucrtd:crtmbox.obj
 0001:000b17f0       ??$output_debug_string@ABQB_W@?$__crt_char_traits@_W@@SAXABQB_W@Z 100b27f0 f i libucrtd:crtmbox.obj
 0001:000b1810       ??0?$__crt_unique_handle_t@U__crt_handle_traits@@@@QAE@QAX@Z 100b2810 f i libucrtd:crtmbox.obj
 0001:000b1830       ??1?$__crt_unique_handle_t@U__crt_handle_traits@@@@QAE@XZ 100b2830 f i libucrtd:crtmbox.obj
 0001:000b1850       ??B?$__crt_unique_handle_t@U__crt_handle_traits@@@@QBE_NXZ 100b2850 f i libucrtd:crtmbox.obj
 0001:000b1870       ?close@?$__crt_unique_handle_t@U__crt_handle_traits@@@@QAEXXZ 100b2870 f i libucrtd:crtmbox.obj
 0001:000b18b0       ?close@__crt_handle_traits@@SA_NPAX@Z 100b28b0 f i libucrtd:crtmbox.obj
 0001:000b18f0       ?get@?$__crt_unique_handle_t@U__crt_handle_traits@@@@QBEPAXXZ 100b28f0 f i libucrtd:crtmbox.obj
 0001:000b1910       ?get_invalid_value@__crt_handle_traits@@SAPAXXZ 100b2910 f i libucrtd:crtmbox.obj
 0001:000b1920       ?is_valid@?$__crt_unique_handle_t@U__crt_handle_traits@@@@QBE_NXZ 100b2920 f i libucrtd:crtmbox.obj
 0001:000b1960       ___acrt_show_narrow_message_box 100b2960 f   libucrtd:crtmbox.obj
 0001:000b1990       ___acrt_show_wide_message_box 100b2990 f   libucrtd:crtmbox.obj
 0001:000b19c0       ___acrt_initialize_locks   100b29c0 f   libucrtd:locks.obj
 0001:000b1a40       ___acrt_lock               100b2a40 f   libucrtd:locks.obj
 0001:000b1a60       ___acrt_uninitialize_locks 100b2a60 f   libucrtd:locks.obj
 0001:000b1ac0       ___acrt_unlock             100b2ac0 f   libucrtd:locks.obj
 0001:000b1ae0       __lock_locales             100b2ae0 f   libucrtd:locks.obj
 0001:000b1b00       __unlock_locales           100b2b00 f   libucrtd:locks.obj
 0001:000b1b20       ??$?B$$A6AXH@Z@__crt_fast_encoded_nullptr_t@@QBEP6AXH@ZXZ 100b2b20 f i libucrtd:signal.obj
 0001:000b1b40       ??$?RV<lambda_a048d3beccc847880fc8490e18b82769>@@AAV<lambda_ec61778202f4f5fc7e7711acc23c3bca>@@V<lambda_f7496a158712204296dd6628a163878e>@@@?$__crt_seh_guarded_call@P6AXH@Z@@QAEP6AXH@Z$$QAV<lambda_a048d3beccc847880fc8490e18b82769>@@AAV<lambda_ec61778202f4f5fc7e7711acc23c3bca>@@$$QAV<lambda_f7496a158712204296dd6628a163878e>@@@Z 100b2b40 f i libucrtd:signal.obj
 0001:000b1bf0       ??$__acrt_lock_and_call@V<lambda_ec61778202f4f5fc7e7711acc23c3bca>@@@@YAP6AXH@ZW4__acrt_lock_id@@$$QAV<lambda_ec61778202f4f5fc7e7711acc23c3bca>@@@Z 100b2bf0 f i libucrtd:signal.obj
 0001:000b1c40       ??$__crt_fast_decode_pointer@P6AXH@Z@@YAP6AXH@ZQ6AXH@Z@Z 100b2c40 f i libucrtd:signal.obj
 0001:000b1c80       ??$__crt_fast_encode_pointer@P6AXH@Z@@YAP6AXH@ZQ6AXH@Z@Z 100b2c80 f i libucrtd:signal.obj
 0001:000b2000       ?initialize@?$dual_state_global@P6AXH@Z@__crt_state_management@@QAEXQ6AXH@Z@Z 100b3000 f i libucrtd:signal.obj
 0001:000b2120       ?value@?$dual_state_global@P6AXH@Z@__crt_state_management@@QAEAAP6AXH@ZXZ 100b3120 f i libucrtd:signal.obj
 0001:000b2140       ___acrt_get_sigabrt_handler 100b3140 f   libucrtd:signal.obj
 0001:000b2160       ___acrt_initialize_signal_handlers 100b3160 f   libucrtd:signal.obj
 0001:000b21b0       ___fpecode                 100b31b0 f   libucrtd:signal.obj
 0001:000b21d0       ___pxcptinfoptrs           100b31d0 f   libucrtd:signal.obj
 0001:000b21f0       _raise                     100b31f0 f   libucrtd:signal.obj
 0001:000b26c0       _signal                    100b36c0 f   libucrtd:signal.obj
 0001:000b29f0       ??$__crt_fast_decode_pointer@P6AHPAU_exception@@@Z@@YAP6AHPAU_exception@@@ZQ6AH0@Z@Z 100b39f0 f i libucrtd:matherr.obj
 0001:000b2a30       ??$__crt_fast_encode_pointer@P6AHPAU_exception@@@Z@@YAP6AHPAU_exception@@@ZQ6AH0@Z@Z 100b3a30 f i libucrtd:matherr.obj
 0001:000b2a70       ?initialize@?$dual_state_global@P6AHPAU_exception@@@Z@__crt_state_management@@QAEXQ6AHPAU_exception@@@Z@Z 100b3a70 f i libucrtd:matherr.obj
 0001:000b2ac0       ?value@?$dual_state_global@P6AHPAU_exception@@@Z@__crt_state_management@@QAEAAP6AHPAU_exception@@@ZXZ 100b3ac0 f i libucrtd:matherr.obj
 0001:000b2ae0       ___acrt_has_user_matherr   100b3ae0 f   libucrtd:matherr.obj
 0001:000b2b30       ___acrt_initialize_user_matherr 100b3b30 f   libucrtd:matherr.obj
 0001:000b2b50       ___acrt_invoke_user_matherr 100b3b50 f   libucrtd:matherr.obj
 0001:000b2bd0       ___setusermatherr          100b3bd0 f   libucrtd:matherr.obj
 0001:000b2c00       ??$__crt_interlocked_exchange_pointer@X$$T@@YAPAXPDSAX$$T@Z 100b3c00 f i libucrtd:free_base.obj
 0001:000b2c30       ___acrt_get_msvcrt_heap_handle 100b3c30 f   libucrtd:free_base.obj
 0001:000b2d20       __free_base                100b3d20 f   libucrtd:free_base.obj
 0001:000b2d80       __msize                    100b3d80 f   libucrtd:msize.obj
 0001:000b2da0       __realloc_base             100b3da0 f   libucrtd:realloc_base.obj
 0001:000b2e60       __aligned_free             100b3e60 f   libucrtd:align.obj
 0001:000b2e80       __aligned_free_base        100b3e80 f   libucrtd:align.obj
 0001:000b2ed0       __aligned_malloc           100b3ed0 f   libucrtd:align.obj
 0001:000b2f00       __aligned_malloc_base      100b3f00 f   libucrtd:align.obj
 0001:000b2f20       __aligned_msize            100b3f20 f   libucrtd:align.obj
 0001:000b2f50       __aligned_msize_base       100b3f50 f   libucrtd:align.obj
 0001:000b30d0       __aligned_offset_malloc    100b40d0 f   libucrtd:align.obj
 0001:000b3100       __aligned_offset_malloc_base 100b4100 f   libucrtd:align.obj
 0001:000b3320       __aligned_offset_realloc   100b4320 f   libucrtd:align.obj
 0001:000b3350       __aligned_offset_realloc_base 100b4350 f   libucrtd:align.obj
 0001:000b3730       __aligned_offset_recalloc  100b4730 f   libucrtd:align.obj
 0001:000b3760       __aligned_offset_recalloc_base 100b4760 f   libucrtd:align.obj
 0001:000b3840       __aligned_realloc          100b4840 f   libucrtd:align.obj
 0001:000b3870       __aligned_realloc_base     100b4870 f   libucrtd:align.obj
 0001:000b38a0       __aligned_recalloc         100b48a0 f   libucrtd:align.obj
 0001:000b38d0       __aligned_recalloc_base    100b48d0 f   libucrtd:align.obj
 0001:000b3900       __chvalidator              100b4900 f   libucrtd:isctype.obj
 0001:000b3960       __chvalidator_l            100b4960 f   libucrtd:isctype.obj
 0001:000b3a20       __isctype                  100b4a20 f   libucrtd:isctype.obj
 0001:000b3a70       __isctype_l                100b4a70 f   libucrtd:isctype.obj
 0001:000b3c50       ??$?RU__acrt_ptd@@@__crt_internal_free_policy@@QBEXQBU__acrt_ptd@@@Z 100b4c50 f i libucrtd:per_thread_data.obj
 0001:000b3c80       ??$?RV<lambda_3518db117f0e7cdb002338c5d3c47b6c>@@AAV<lambda_b2ea41f6bbb362cd97d94c6828d90b61>@@V<lambda_abdedf541bb04549bc734292b4a045d4>@@@?$__crt_seh_guarded_call@X@@QAEX$$QAV<lambda_3518db117f0e7cdb002338c5d3c47b6c>@@AAV<lambda_b2ea41f6bbb362cd97d94c6828d90b61>@@$$QAV<lambda_abdedf541bb04549bc734292b4a045d4>@@@Z 100b4c80 f i libucrtd:per_thread_data.obj
 0001:000b3d20       ??$?RV<lambda_5b71d36f03204c0beab531769a5b5694>@@AAV<lambda_be2b3da3f62db62e9dad5dc70221a656>@@V<lambda_8f9ce462984622f9bf76b59e2aaaf805>@@@?$__crt_seh_guarded_call@X@@QAEX$$QAV<lambda_5b71d36f03204c0beab531769a5b5694>@@AAV<lambda_be2b3da3f62db62e9dad5dc70221a656>@@$$QAV<lambda_8f9ce462984622f9bf76b59e2aaaf805>@@@Z 100b4d20 f i libucrtd:per_thread_data.obj
 0001:000b3dc0       ??$?RV<lambda_952b238c83a62ef8e81c72265e1e9aa0>@@AAV<lambda_801f60a70ab65355beb13c41cbe335bb>@@V<lambda_84d84f98815add542a0d6e6ca338feb2>@@@?$__crt_seh_guarded_call@X@@QAEX$$QAV<lambda_952b238c83a62ef8e81c72265e1e9aa0>@@AAV<lambda_801f60a70ab65355beb13c41cbe335bb>@@$$QAV<lambda_84d84f98815add542a0d6e6ca338feb2>@@@Z 100b4dc0 f i libucrtd:per_thread_data.obj
 0001:000b3e60       ??$?RV<lambda_9df27f884b057bc3edfc946cb5b7cf47>@@AAV<lambda_e69574bed617af4e071282c136b37893>@@V<lambda_cc0d902bcbbeb830f749456577db4721>@@@?$__crt_seh_guarded_call@X@@QAEX$$QAV<lambda_9df27f884b057bc3edfc946cb5b7cf47>@@AAV<lambda_e69574bed617af4e071282c136b37893>@@$$QAV<lambda_cc0d902bcbbeb830f749456577db4721>@@@Z 100b4e60 f i libucrtd:per_thread_data.obj
 0001:000b3f00       ??$__acrt_lock_and_call@V<lambda_801f60a70ab65355beb13c41cbe335bb>@@@@YAXW4__acrt_lock_id@@$$QAV<lambda_801f60a70ab65355beb13c41cbe335bb>@@@Z 100b4f00 f i libucrtd:per_thread_data.obj
 0001:000b3f50       ??$__acrt_lock_and_call@V<lambda_b2ea41f6bbb362cd97d94c6828d90b61>@@@@YAXW4__acrt_lock_id@@$$QAV<lambda_b2ea41f6bbb362cd97d94c6828d90b61>@@@Z 100b4f50 f i libucrtd:per_thread_data.obj
 0001:000b3fa0       ??$__acrt_lock_and_call@V<lambda_be2b3da3f62db62e9dad5dc70221a656>@@@@YAXW4__acrt_lock_id@@$$QAV<lambda_be2b3da3f62db62e9dad5dc70221a656>@@@Z 100b4fa0 f i libucrtd:per_thread_data.obj
 0001:000b3ff0       ??$__acrt_lock_and_call@V<lambda_e69574bed617af4e071282c136b37893>@@@@YAXW4__acrt_lock_id@@$$QAV<lambda_e69574bed617af4e071282c136b37893>@@@Z 100b4ff0 f i libucrtd:per_thread_data.obj
 0001:000b4250       ??0?$__crt_unique_heap_ptr@U__acrt_ptd@@U__crt_internal_free_policy@@@@QAE@QAU__acrt_ptd@@@Z 100b5250 f i libucrtd:per_thread_data.obj
 0001:000b4270       ??0__crt_scoped_get_last_error_reset@@QAE@XZ 100b5270 f i libucrtd:per_thread_data.obj
 0001:000b42a0       ??1?$__crt_unique_heap_ptr@U__acrt_ptd@@U__crt_internal_free_policy@@@@QAE@XZ 100b52a0 f i libucrtd:per_thread_data.obj
 0001:000b42c0       ??1__crt_scoped_get_last_error_reset@@QAE@XZ 100b52c0 f i libucrtd:per_thread_data.obj
 0001:000b42e0       ??B?$__crt_unique_heap_ptr@U__acrt_ptd@@U__crt_internal_free_policy@@@@QBE_NXZ 100b52e0 f i libucrtd:per_thread_data.obj
 0001:000b46a0       ?dangerous_get_state_array@?$dual_state_global@PAU__crt_locale_data@@@__crt_state_management@@QAEPAPAU__crt_locale_data@@XZ 100b56a0 f i libucrtd:per_thread_data.obj
 0001:000b4880       ?detach@?$__crt_unique_heap_ptr@U__acrt_ptd@@U__crt_internal_free_policy@@@@QAEPAU__acrt_ptd@@XZ 100b5880 f i libucrtd:per_thread_data.obj
 0001:000b48b0       ?get@?$__crt_unique_heap_ptr@U__acrt_ptd@@U__crt_internal_free_policy@@@@QBEPAU__acrt_ptd@@XZ 100b58b0 f i libucrtd:per_thread_data.obj
 0001:000b4a30       ?is_valid@?$__crt_unique_heap_ptr@U__acrt_ptd@@U__crt_internal_free_policy@@@@QBE_NXZ 100b5a30 f i libucrtd:per_thread_data.obj
 0001:000b4a70       ?release@?$__crt_unique_heap_ptr@U__acrt_ptd@@U__crt_internal_free_policy@@@@QAEXXZ 100b5a70 f i libucrtd:per_thread_data.obj
 0001:000b4b90       ?value@?$dual_state_global@PAU__crt_locale_data@@@__crt_state_management@@QAEAAPAU__crt_locale_data@@XZ 100b5b90 f i libucrtd:per_thread_data.obj
 0001:000b4bb0       ___acrt_freeptd            100b5bb0 f   libucrtd:per_thread_data.obj
 0001:000b4bf0       ___acrt_getptd             100b5bf0 f   libucrtd:per_thread_data.obj
 0001:000b4c20       ___acrt_getptd_noexit      100b5c20 f   libucrtd:per_thread_data.obj
 0001:000b4c30       ___acrt_initialize_ptd     100b5c30 f   libucrtd:per_thread_data.obj
 0001:000b4c80       ___acrt_uninitialize_ptd   100b5c80 f   libucrtd:per_thread_data.obj
 0001:000b4cb0       ___threadhandle            100b5cb0 f   libucrtd:per_thread_data.obj
 0001:000b4cc0       ___threadid                100b5cc0 f   libucrtd:per_thread_data.obj
 0001:000b4d30       __expand                   100b5d30 f   libucrtd:expand.obj
 0001:000b4d60       __expand_base              100b5d60 f   libucrtd:expand.obj
 0001:000b4ee0       ___acrt_update_locale_info 100b5ee0 f   libucrtd:locale_update.obj
 0001:000b4f30       ___acrt_update_multibyte_info 100b5f30 f   libucrtd:locale_update.obj
 0001:000b4f70       ?value@?$dual_state_global@J@__crt_state_management@@QAEAAJXZ 100b5f70 f i libucrtd:new_mode.obj
 0001:000b4f90       __query_new_mode           100b5f90 f   libucrtd:new_mode.obj
 0001:000b4fb0       __set_new_mode             100b5fb0 f   libucrtd:new_mode.obj
 0001:000b5080       __CrtDefaultAllocHook      100b6080 f   libucrtd:debug_heap_hook.obj
 0001:000b50a0       ??$?RU__crt_locale_data@@@__crt_internal_free_policy@@QBEXQBU__crt_locale_data@@@Z 100b60a0 f i libucrtd:wsetlocale.obj
 0001:000b50d0       ??$?RU__crt_locale_pointers@@@__crt_internal_free_policy@@QBEXQBU__crt_locale_pointers@@@Z 100b60d0 f i libucrtd:wsetlocale.obj
 0001:000b5100       ??$?RU__crt_multibyte_data@@@__crt_internal_free_policy@@QBEXQBU__crt_multibyte_data@@@Z 100b6100 f i libucrtd:wsetlocale.obj
 0001:000b5130       ??$?RV<lambda_0f92d0c5a8007722f95b3b6c71cd8e3e>@@AAV<lambda_321f9d61c14d59ff00145e45db1313e0>@@V<lambda_3298c911d7b53f44106027a7fde9a80a>@@@?$__crt_seh_guarded_call@X@@QAEX$$QAV<lambda_0f92d0c5a8007722f95b3b6c71cd8e3e>@@AAV<lambda_321f9d61c14d59ff00145e45db1313e0>@@$$QAV<lambda_3298c911d7b53f44106027a7fde9a80a>@@@Z 100b6130 f i libucrtd:wsetlocale.obj
 0001:000b51d0       ??$?RV<lambda_507d9fd6b66e39451a8852ba73f804a7>@@AAV<lambda_565169b3e3b494427ce1bebdd17b54ac>@@AAV<lambda_f51fe5fd7c79a33db34fc9310f277369>@@@?$__crt_seh_guarded_call@X@@QAEX$$QAV<lambda_507d9fd6b66e39451a8852ba73f804a7>@@AAV<lambda_565169b3e3b494427ce1bebdd17b54ac>@@AAV<lambda_f51fe5fd7c79a33db34fc9310f277369>@@@Z 100b61d0 f i libucrtd:wsetlocale.obj
 0001:000b5270       ??$?RV<lambda_76aaead6e312921abc834cb00a638bdd>@@AAV<lambda_176e34f99554166dd2fac165c457248c>@@V<lambda_998ee1c9f4290b119b936bcd6215875a>@@@?$__crt_seh_guarded_call@X@@QAEX$$QAV<lambda_76aaead6e312921abc834cb00a638bdd>@@AAV<lambda_176e34f99554166dd2fac165c457248c>@@$$QAV<lambda_998ee1c9f4290b119b936bcd6215875a>@@@Z 100b6270 f i libucrtd:wsetlocale.obj
 0001:000b5310       ??$?RV<lambda_c9469061b39d205f0f236529d4a41659>@@AAV<lambda_b7fb1a997d3ebc0cc0186c5835178808>@@V<lambda_14b92c79d699846b5cc916cd4cf280e4>@@@?$__crt_seh_guarded_call@X@@QAEX$$QAV<lambda_c9469061b39d205f0f236529d4a41659>@@AAV<lambda_b7fb1a997d3ebc0cc0186c5835178808>@@$$QAV<lambda_14b92c79d699846b5cc916cd4cf280e4>@@@Z 100b6310 f i libucrtd:wsetlocale.obj
 0001:000b53b0       ??$__acrt_lock_and_call@V<lambda_176e34f99554166dd2fac165c457248c>@@@@YAXW4__acrt_lock_id@@$$QAV<lambda_176e34f99554166dd2fac165c457248c>@@@Z 100b63b0 f i libucrtd:wsetlocale.obj
 0001:000b5400       ??$__acrt_lock_and_call@V<lambda_321f9d61c14d59ff00145e45db1313e0>@@@@YAXW4__acrt_lock_id@@$$QAV<lambda_321f9d61c14d59ff00145e45db1313e0>@@@Z 100b6400 f i libucrtd:wsetlocale.obj
 0001:000b5450       ??$__acrt_lock_and_call@V<lambda_b7fb1a997d3ebc0cc0186c5835178808>@@@@YAXW4__acrt_lock_id@@$$QAV<lambda_b7fb1a997d3ebc0cc0186c5835178808>@@@Z 100b6450 f i libucrtd:wsetlocale.obj
 0001:000b54a0       ??$__crt_call_and_cleanup@V<lambda_565169b3e3b494427ce1bebdd17b54ac>@@V<lambda_f51fe5fd7c79a33db34fc9310f277369>@@@@YAX$$QAV<lambda_565169b3e3b494427ce1bebdd17b54ac>@@$$QAV<lambda_f51fe5fd7c79a33db34fc9310f277369>@@@Z 100b64a0 f i libucrtd:wsetlocale.obj
 0001:000b54d0       ??$__vcrt_va_start_verify_argument_type@H@@YAXXZ 100b64d0 f i libucrtd:wsetlocale.obj
 0001:000b5700       ??0?$__crt_unique_heap_ptr@U__crt_locale_data@@U__crt_internal_free_policy@@@@QAE@QAU__crt_locale_data@@@Z 100b6700 f i libucrtd:wsetlocale.obj
 0001:000b5720       ??0?$__crt_unique_heap_ptr@U__crt_locale_pointers@@U__crt_internal_free_policy@@@@QAE@QAU__crt_locale_pointers@@@Z 100b6720 f i libucrtd:wsetlocale.obj
 0001:000b5740       ??0?$__crt_unique_heap_ptr@U__crt_multibyte_data@@U__crt_internal_free_policy@@@@QAE@QAU__crt_multibyte_data@@@Z 100b6740 f i libucrtd:wsetlocale.obj
 0001:000b5760       ??1?$__crt_unique_heap_ptr@U__crt_locale_data@@U__crt_internal_free_policy@@@@QAE@XZ 100b6760 f i libucrtd:wsetlocale.obj
 0001:000b5780       ??1?$__crt_unique_heap_ptr@U__crt_locale_pointers@@U__crt_internal_free_policy@@@@QAE@XZ 100b6780 f i libucrtd:wsetlocale.obj
 0001:000b57a0       ??1?$__crt_unique_heap_ptr@U__crt_multibyte_data@@U__crt_internal_free_policy@@@@QAE@XZ 100b67a0 f i libucrtd:wsetlocale.obj
 0001:000b57c0       ??B?$__crt_unique_heap_ptr@U__crt_locale_data@@U__crt_internal_free_policy@@@@QBE_NXZ 100b67c0 f i libucrtd:wsetlocale.obj
 0001:000b57e0       ??B?$__crt_unique_heap_ptr@U__crt_locale_pointers@@U__crt_internal_free_policy@@@@QBE_NXZ 100b67e0 f i libucrtd:wsetlocale.obj
 0001:000b5800       ??B?$__crt_unique_heap_ptr@U__crt_multibyte_data@@U__crt_internal_free_policy@@@@QBE_NXZ 100b6800 f i libucrtd:wsetlocale.obj
 0001:000b5c40       ?detach@?$__crt_unique_heap_ptr@U__crt_locale_data@@U__crt_internal_free_policy@@@@QAEPAU__crt_locale_data@@XZ 100b6c40 f i libucrtd:wsetlocale.obj
 0001:000b5c70       ?detach@?$__crt_unique_heap_ptr@U__crt_locale_pointers@@U__crt_internal_free_policy@@@@QAEPAU__crt_locale_pointers@@XZ 100b6c70 f i libucrtd:wsetlocale.obj
 0001:000b5ca0       ?detach@?$__crt_unique_heap_ptr@U__crt_multibyte_data@@U__crt_internal_free_policy@@@@QAEPAU__crt_multibyte_data@@XZ 100b6ca0 f i libucrtd:wsetlocale.obj
 0001:000b5cd0       ?get@?$__crt_unique_heap_ptr@U__crt_locale_data@@U__crt_internal_free_policy@@@@QBEPAU__crt_locale_data@@XZ 100b6cd0 f i libucrtd:wsetlocale.obj
 0001:000b5cf0       ?get@?$__crt_unique_heap_ptr@U__crt_locale_pointers@@U__crt_internal_free_policy@@@@QBEPAU__crt_locale_pointers@@XZ 100b6cf0 f i libucrtd:wsetlocale.obj
 0001:000b5d10       ?get@?$__crt_unique_heap_ptr@U__crt_multibyte_data@@U__crt_internal_free_policy@@@@QBEPAU__crt_multibyte_data@@XZ 100b6d10 f i libucrtd:wsetlocale.obj
 0001:000b5d30       ?is_valid@?$__crt_unique_heap_ptr@U__crt_locale_data@@U__crt_internal_free_policy@@@@QBE_NXZ 100b6d30 f i libucrtd:wsetlocale.obj
 0001:000b5d70       ?is_valid@?$__crt_unique_heap_ptr@U__crt_locale_pointers@@U__crt_internal_free_policy@@@@QBE_NXZ 100b6d70 f i libucrtd:wsetlocale.obj
 0001:000b5db0       ?is_valid@?$__crt_unique_heap_ptr@U__crt_multibyte_data@@U__crt_internal_free_policy@@@@QBE_NXZ 100b6db0 f i libucrtd:wsetlocale.obj
 0001:000b5df0       ?release@?$__crt_unique_heap_ptr@U__crt_locale_data@@U__crt_internal_free_policy@@@@QAEXXZ 100b6df0 f i libucrtd:wsetlocale.obj
 0001:000b5e30       ?release@?$__crt_unique_heap_ptr@U__crt_locale_pointers@@U__crt_internal_free_policy@@@@QAEXXZ 100b6e30 f i libucrtd:wsetlocale.obj
 0001:000b5e70       ?release@?$__crt_unique_heap_ptr@U__crt_multibyte_data@@U__crt_internal_free_policy@@@@QAEXXZ 100b6e70 f i libucrtd:wsetlocale.obj
 0001:000b5eb0       ___acrt_copy_locale_name   100b6eb0 f   libucrtd:wsetlocale.obj
 0001:000b5f80       ___acrt_set_locale_changed 100b6f80 f   libucrtd:wsetlocale.obj
 0001:000b5fa0       ___acrt_uninitialize_locale 100b6fa0 f   libucrtd:wsetlocale.obj
 0001:000b6070       ___lc_lctowcs              100b7070 f   libucrtd:wsetlocale.obj
 0001:000b6150       ___lc_wcstolc              100b7150 f   libucrtd:wsetlocale.obj
 0001:000b6400       __configthreadlocale       100b7400 f   libucrtd:wsetlocale.obj
 0001:000b65e0       __create_locale            100b75e0 f   libucrtd:wsetlocale.obj
 0001:000b6670       __expandlocale             100b7670 f   libucrtd:wsetlocale.obj
 0001:000b6c70       __free_locale              100b7c70 f   libucrtd:wsetlocale.obj
 0001:000b6df0       __get_current_locale       100b7df0 f   libucrtd:wsetlocale.obj
 0001:000b6ef0       __wcreate_locale           100b7ef0 f   libucrtd:wsetlocale.obj
 0001:000b71b0       __wcscats                  100b81b0 f   libucrtd:wsetlocale.obj
 0001:000b7250       __wsetlocale               100b8250 f   libucrtd:wsetlocale.obj
 0001:000b8560       ___p___mb_cur_max          100b9560 f   libucrtd:nlsdata.obj
 0001:000b85a0       ___acrt_getheap            100b95a0 f   libucrtd:heap_handle.obj
 0001:000b85f0       ___acrt_initialize_heap    100b95f0 f   libucrtd:heap_handle.obj
 0001:000b8620       ___acrt_uninitialize_heap  100b9620 f   libucrtd:heap_handle.obj
 0001:000b8640       __get_heap_handle          100b9640 f   libucrtd:heap_handle.obj
 0001:000b86f0       ??$?B$$A6GHPA_WKJ@Z@__crt_fast_encoded_nullptr_t@@QBEP6GHPA_WKJ@ZXZ 100b96f0 f i libucrtd:winapi_thunks.obj
 0001:000b8710       ??$?RV<lambda_9227be29367c048ad7fd93a717dcb1a1>@@AAV<lambda_a463b7b0560cfcaf9b17f27c6ef46564>@@V<lambda_ccea11b5727ccf69be64f5f5d9a08d9f>@@@?$__crt_seh_guarded_call@H@@QAEH$$QAV<lambda_9227be29367c048ad7fd93a717dcb1a1>@@AAV<lambda_a463b7b0560cfcaf9b17f27c6ef46564>@@$$QAV<lambda_ccea11b5727ccf69be64f5f5d9a08d9f>@@@Z 100b9710 f i libucrtd:winapi_thunks.obj
 0001:000b87c0       ??$__acrt_lock_and_call@V<lambda_a463b7b0560cfcaf9b17f27c6ef46564>@@@@YAHW4__acrt_lock_id@@$$QAV<lambda_a463b7b0560cfcaf9b17f27c6ef46564>@@@Z 100b97c0 f i libucrtd:winapi_thunks.obj
 0001:000b8810       ??$__crt_fast_decode_pointer@P6GHPA_WKJ@Z@@YAP6GHPA_WKJ@ZQ6GH0KJ@Z@Z 100b9810 f i libucrtd:winapi_thunks.obj
 0001:000b8850       ??$__crt_fast_encode_pointer@P6GHPA_WKJ@Z@@YAP6GHPA_WKJ@ZQ6GH0KJ@Z@Z 100b9850 f i libucrtd:winapi_thunks.obj
 0001:000b9420       ___acrt_AreFileApisANSI@0  100ba420 f   libucrtd:winapi_thunks.obj
 0001:000b9480       ___acrt_CompareStringEx@36 100ba480 f   libucrtd:winapi_thunks.obj
 0001:000b9540       ___acrt_EnumSystemLocalesEx@16 100ba540 f   libucrtd:winapi_thunks.obj
 0001:000b95d0       ___acrt_FlsAlloc@4         100ba5d0 f   libucrtd:winapi_thunks.obj
 0001:000b9640       ___acrt_FlsFree@4          100ba640 f   libucrtd:winapi_thunks.obj
 0001:000b96b0       ___acrt_FlsGetValue@4      100ba6b0 f   libucrtd:winapi_thunks.obj
 0001:000b9720       ___acrt_FlsSetValue@8      100ba720 f   libucrtd:winapi_thunks.obj
 0001:000b9790       ___acrt_GetDateFormatEx@28 100ba790 f   libucrtd:winapi_thunks.obj
 0001:000b9840       ___acrt_GetEnabledXStateFeatures@0 100ba840 f   libucrtd:winapi_thunks.obj
 0001:000b98a0       ___acrt_GetFileInformationByHandleEx@16 100ba8a0 f   libucrtd:winapi_thunks.obj
 0001:000b9920       ___acrt_GetLocaleInfoEx@16 100ba920 f   libucrtd:winapi_thunks.obj
 0001:000b99b0       ___acrt_GetSystemTimePreciseAsFileTime@4 100ba9b0 f   libucrtd:winapi_thunks.obj
 0001:000b9a20       ___acrt_GetTimeFormatEx@24 100baa20 f   libucrtd:winapi_thunks.obj
 0001:000b9ad0       ___acrt_GetUserDefaultLocaleName@8 100baad0 f   libucrtd:winapi_thunks.obj
 0001:000b9b50       ___acrt_GetXStateFeaturesMask@8 100bab50 f   libucrtd:winapi_thunks.obj
 0001:000b9bc0       ___acrt_InitializeCriticalSectionEx@12 100babc0 f   libucrtd:winapi_thunks.obj
 0001:000b9c40       ___acrt_IsValidLocaleName@4 100bac40 f   libucrtd:winapi_thunks.obj
 0001:000b9cc0       ___acrt_LCIDToLocaleName@16 100bacc0 f   libucrtd:winapi_thunks.obj
 0001:000b9d50       ___acrt_LCMapStringEx@36   100bad50 f   libucrtd:winapi_thunks.obj
 0001:000b9e10       ___acrt_LocaleNameToLCID@8 100bae10 f   libucrtd:winapi_thunks.obj
 0001:000b9e80       ___acrt_LocateXStateFeature@12 100bae80 f   libucrtd:winapi_thunks.obj
 0001:000b9ef0       ___acrt_MessageBoxA@16     100baef0 f   libucrtd:winapi_thunks.obj
 0001:000b9f60       ___acrt_MessageBoxW@16     100baf60 f   libucrtd:winapi_thunks.obj
 0001:000b9fd0       ___acrt_RoInitialize@4     100bafd0 f   libucrtd:winapi_thunks.obj
 0001:000ba030       ___acrt_RoUninitialize@0   100bb030 f   libucrtd:winapi_thunks.obj
 0001:000ba080       ___acrt_RtlGenRandom@8     100bb080 f   libucrtd:winapi_thunks.obj
 0001:000ba0f0       ___acrt_SetThreadStackGuarantee@4 100bb0f0 f   libucrtd:winapi_thunks.obj
 0001:000ba150       ___acrt_can_show_message_box 100bb150 f   libucrtd:winapi_thunks.obj
 0001:000ba190       ___acrt_can_use_vista_locale_apis 100bb190 f   libucrtd:winapi_thunks.obj
 0001:000ba1c0       ___acrt_can_use_xstate_apis 100bb1c0 f   libucrtd:winapi_thunks.obj
 0001:000ba1f0       ___acrt_get_parent_window  100bb1f0 f   libucrtd:winapi_thunks.obj
 0001:000ba290       ___acrt_initialize_winapi_thunks 100bb290 f   libucrtd:winapi_thunks.obj
 0001:000ba310       ___acrt_is_interactive     100bb310 f   libucrtd:winapi_thunks.obj
 0001:000ba3e0       ___acrt_is_packaged_app    100bb3e0 f   libucrtd:winapi_thunks.obj
 0001:000ba540       ___acrt_uninitialize_winapi_thunks 100bb540 f   libucrtd:winapi_thunks.obj
 0001:000bb8b0       ??$find_first_file_ex@ABQADW4_FINDEX_INFO_LEVELS@@PAU_WIN32_FIND_DATAA@@W4_FINDEX_SEARCH_OPS@@$$TH@?$__crt_char_traits@D@@SAPAXABQAD$$QAW4_FINDEX_INFO_LEVELS@@$$QAPAU_WIN32_FIND_DATAA@@$$QAW4_FINDEX_SEARCH_OPS@@$$QA$$T$$QAH@Z 100bc8b0 f i libucrtd:argv_wildcards.obj
 0001:000bb8f0       ??$find_first_file_ex@ABQA_WW4_FINDEX_INFO_LEVELS@@PAU_WIN32_FIND_DATAW@@W4_FINDEX_SEARCH_OPS@@$$TH@?$__crt_char_traits@_W@@SAPAXABQA_W$$QAW4_FINDEX_INFO_LEVELS@@$$QAPAU_WIN32_FIND_DATAW@@$$QAW4_FINDEX_SEARCH_OPS@@$$QA$$T$$QAH@Z 100bc8f0 f i libucrtd:argv_wildcards.obj
 0001:000bb930       ??$find_next_file@PAXPAU_WIN32_FIND_DATAA@@@?$__crt_char_traits@D@@SAH$$QAPAX$$QAPAU_WIN32_FIND_DATAA@@@Z 100bc930 f i libucrtd:argv_wildcards.obj
 0001:000bb950       ??$find_next_file@PAXPAU_WIN32_FIND_DATAW@@@?$__crt_char_traits@_W@@SAH$$QAPAX$$QAPAU_WIN32_FIND_DATAW@@@Z 100bc950 f i libucrtd:argv_wildcards.obj
 0001:000bb970       ??$tcsncpy_s@AAPADIAAPADABI@?$__crt_char_traits@D@@SAHAAPAD$$QAI0ABI@Z 100bc970 f i libucrtd:argv_wildcards.obj
 0001:000bb9a0       ??$tcsncpy_s@AAPA_WIAAPA_WABI@?$__crt_char_traits@_W@@SAHAAPA_W$$QAI0ABI@Z 100bc9a0 f i libucrtd:argv_wildcards.obj
 0001:000bb9d0       ??$tcsncpy_s@PAD$$CBIABQBDABI@?$__crt_char_traits@D@@SAH$$QAPAD$$QBIABQBDABI@Z 100bc9d0 f i libucrtd:argv_wildcards.obj
 0001:000bba00       ??$tcsncpy_s@PADABIABQBDABI@?$__crt_char_traits@D@@SAH$$QAPADABIABQBD1@Z 100bca00 f i libucrtd:argv_wildcards.obj
 0001:000bba30       ??$tcsncpy_s@PA_W$$CBIABQB_WABI@?$__crt_char_traits@_W@@SAH$$QAPA_W$$QBIABQB_WABI@Z 100bca30 f i libucrtd:argv_wildcards.obj
 0001:000bba60       ??$tcsncpy_s@PA_WABIABQB_WABI@?$__crt_char_traits@_W@@SAH$$QAPA_WABIABQB_W1@Z 100bca60 f i libucrtd:argv_wildcards.obj
 0001:000bba90       ??$tcspbrk@AAPADAAY02$$CBD@?$__crt_char_traits@D@@SAPADAAPADAAY02$$CBD@Z 100bca90 f i libucrtd:argv_wildcards.obj
 0001:000bbab0       ??$tcspbrk@AAPA_WAAY02$$CB_W@?$__crt_char_traits@_W@@SAPA_WAAPA_WAAY02$$CB_W@Z 100bcab0 f i libucrtd:argv_wildcards.obj
 0001:000bbad0       ??0?$__crt_unique_handle_t@U__crt_findfile_traits@@@@QAE@QAX@Z 100bcad0 f i libucrtd:argv_wildcards.obj
 0001:000bbaf0       ??0?$argument_list@D@?A0x536e2c96@@QAE@XZ 100bcaf0 f i libucrtd:argv_wildcards.obj
 0001:000bbb30       ??0?$argument_list@_W@?A0x536e2c96@@QAE@XZ 100bcb30 f i libucrtd:argv_wildcards.obj
 0001:000bbb70       ??1?$__crt_unique_handle_t@U__crt_findfile_traits@@@@QAE@XZ 100bcb70 f i libucrtd:argv_wildcards.obj
 0001:000bbb90       ??1?$argument_list@D@?A0x536e2c96@@QAE@XZ 100bcb90 f i libucrtd:argv_wildcards.obj
 0001:000bbc00       ??1?$argument_list@_W@?A0x536e2c96@@QAE@XZ 100bcc00 f i libucrtd:argv_wildcards.obj
 0001:000bbd50       ?append@?$argument_list@D@?A0x536e2c96@@QAEHQAD@Z 100bcd50 f i libucrtd:argv_wildcards.obj
 0001:000bbdc0       ?append@?$argument_list@_W@?A0x536e2c96@@QAEHQA_W@Z 100bcdc0 f i libucrtd:argv_wildcards.obj
 0001:000bbe30       ?begin@?$argument_list@D@?A0x536e2c96@@QBEPAPADXZ 100bce30 f i libucrtd:argv_wildcards.obj
 0001:000bbe50       ?begin@?$argument_list@_W@?A0x536e2c96@@QBEPAPA_WXZ 100bce50 f i libucrtd:argv_wildcards.obj
 0001:000bbe70       ?close@?$__crt_unique_handle_t@U__crt_findfile_traits@@@@QAEXXZ 100bce70 f i libucrtd:argv_wildcards.obj
 0001:000bbeb0       ?close@__crt_findfile_traits@@SA_NPAX@Z 100bceb0 f i libucrtd:argv_wildcards.obj
 0001:000bbef0       ?end@?$argument_list@D@?A0x536e2c96@@QBEPAPADXZ 100bcef0 f i libucrtd:argv_wildcards.obj
 0001:000bbf10       ?end@?$argument_list@_W@?A0x536e2c96@@QBEPAPA_WXZ 100bcf10 f i libucrtd:argv_wildcards.obj
 0001:000bbf30       ?expand_if_necessary@?$argument_list@D@?A0x536e2c96@@AAEHXZ 100bcf30 f i libucrtd:argv_wildcards.obj
 0001:000bc0e0       ?expand_if_necessary@?$argument_list@_W@?A0x536e2c96@@AAEHXZ 100bd0e0 f i libucrtd:argv_wildcards.obj
 0001:000bc290       ?get@?$__crt_unique_handle_t@U__crt_findfile_traits@@@@QBEPAXXZ 100bd290 f i libucrtd:argv_wildcards.obj
 0001:000bc2b0       ?get_invalid_value@__crt_findfile_traits@@SAPAXXZ 100bd2b0 f i libucrtd:argv_wildcards.obj
 0001:000bc2f0       ?size@?$argument_list@D@?A0x536e2c96@@QBEIXZ 100bd2f0 f i libucrtd:argv_wildcards.obj
 0001:000bc320       ?size@?$argument_list@_W@?A0x536e2c96@@QBEIXZ 100bd320 f i libucrtd:argv_wildcards.obj
 0001:000bc350       ?strpbrk@@YAPADQADQBD@Z    100bd350 f i libucrtd:argv_wildcards.obj
 0001:000bc370       ?wcspbrk@@YAPA_WPA_WPB_W@Z 100bd370 f i libucrtd:argv_wildcards.obj
 0001:000bc390       ___acrt_expand_narrow_argv_wildcards 100bd390 f   libucrtd:argv_wildcards.obj
 0001:000bc3b0       ___acrt_expand_wide_argv_wildcards 100bd3b0 f   libucrtd:argv_wildcards.obj
 0001:000bc3d0       ??$?RV<lambda_694f386f8d9a4d7d5afe1ac229f209db>@@AAV<lambda_2f900415df1f7f624cdaaefe86d0b1c0>@@V<lambda_17c2d007e408fdf31ce10a4c853c6ffa>@@@?$__crt_seh_guarded_call@X@@QAEX$$QAV<lambda_694f386f8d9a4d7d5afe1ac229f209db>@@AAV<lambda_2f900415df1f7f624cdaaefe86d0b1c0>@@$$QAV<lambda_17c2d007e408fdf31ce10a4c853c6ffa>@@@Z 100bd3d0 f i libucrtd:mbctype.obj
 0001:000bc470       ??$__acrt_lock_and_call@V<lambda_2f900415df1f7f624cdaaefe86d0b1c0>@@@@YAXW4__acrt_lock_id@@$$QAV<lambda_2f900415df1f7f624cdaaefe86d0b1c0>@@@Z 100bd470 f i libucrtd:mbctype.obj
 0001:000bd000       ___acrt_initialize_multibyte 100be000 f   libucrtd:mbctype.obj
 0001:000bd030       ___acrt_update_thread_multibyte_data 100be030 f   libucrtd:mbctype.obj
 0001:000bd180       ___p__mbcasemap            100be180 f   libucrtd:mbctype.obj
 0001:000bd1a0       ___p__mbctype              100be1a0 f   libucrtd:mbctype.obj
 0001:000bd1c0       __getmbcp                  100be1c0 f   libucrtd:mbctype.obj
 0001:000bd250       __setmbcp                  100be250 f   libucrtd:mbctype.obj
 0001:000bd270       __setmbcp_nolock           100be270 f   libucrtd:mbctype.obj
 0001:000bd88b       __ismbbalnum               100be88b f   libucrtd:ismbbyte.obj
 0001:000bd8ac       __ismbbalnum_l             100be8ac f   libucrtd:ismbbyte.obj
 0001:000bd8cf       __ismbbalpha               100be8cf f   libucrtd:ismbbyte.obj
 0001:000bd8f0       __ismbbalpha_l             100be8f0 f   libucrtd:ismbbyte.obj
 0001:000bd913       __ismbbblank               100be913 f   libucrtd:ismbbyte.obj
 0001:000bd93e       __ismbbblank_l             100be93e f   libucrtd:ismbbyte.obj
 0001:000bd96b       __ismbbgraph               100be96b f   libucrtd:ismbbyte.obj
 0001:000bd98c       __ismbbgraph_l             100be98c f   libucrtd:ismbbyte.obj
 0001:000bd9af       __ismbbkalnum              100be9af f   libucrtd:ismbbyte.obj
 0001:000bd9cd       __ismbbkalnum_l            100be9cd f   libucrtd:ismbbyte.obj
 0001:000bd9ec       __ismbbkana                100be9ec f   libucrtd:ismbbyte.obj
 0001:000bda03       __ismbbkana_l              100bea03 f   libucrtd:ismbbyte.obj
 0001:000bda68       __ismbbkprint              100bea68 f   libucrtd:ismbbyte.obj
 0001:000bda86       __ismbbkprint_l            100bea86 f   libucrtd:ismbbyte.obj
 0001:000bdaa5       __ismbbkpunct              100beaa5 f   libucrtd:ismbbyte.obj
 0001:000bdac3       __ismbbkpunct_l            100beac3 f   libucrtd:ismbbyte.obj
 0001:000bdae2       __ismbblead                100beae2 f   libucrtd:ismbbyte.obj
 0001:000bdb00       __ismbblead_l              100beb00 f   libucrtd:ismbbyte.obj
 0001:000bdb1f       __ismbbprint               100beb1f f   libucrtd:ismbbyte.obj
 0001:000bdb40       __ismbbprint_l             100beb40 f   libucrtd:ismbbyte.obj
 0001:000bdb63       __ismbbpunct               100beb63 f   libucrtd:ismbbyte.obj
 0001:000bdb81       __ismbbpunct_l             100beb81 f   libucrtd:ismbbyte.obj
 0001:000bdba0       __ismbbtrail               100beba0 f   libucrtd:ismbbyte.obj
 0001:000bdbbe       __ismbbtrail_l             100bebbe f   libucrtd:ismbbyte.obj
 0001:000bdbe0       ___acrt_initialize_command_line 100bebe0 f   libucrtd:argv_data.obj
 0001:000bdc10       ___acrt_uninitialize_command_line 100bec10 f   libucrtd:argv_data.obj
 0001:000bdc20       ___p___argc                100bec20 f   libucrtd:argv_data.obj
 0001:000bdc30       ___p___argv                100bec30 f   libucrtd:argv_data.obj
 0001:000bdc40       ___p___wargv               100bec40 f   libucrtd:argv_data.obj
 0001:000bdc50       ___p__acmdln               100bec50 f   libucrtd:argv_data.obj
 0001:000bdc60       ___p__pgmptr               100bec60 f   libucrtd:argv_data.obj
 0001:000bdc70       ___p__wcmdln               100bec70 f   libucrtd:argv_data.obj
 0001:000bdc80       ___p__wpgmptr              100bec80 f   libucrtd:argv_data.obj
 0001:000bdc90       __get_pgmptr               100bec90 f   libucrtd:argv_data.obj
 0001:000bddf0       __get_wpgmptr              100bedf0 f   libucrtd:argv_data.obj
 0001:000bdf42       ??0?$__crt_unique_handle_t@Uenvironment_strings_traits@?A0xda6148bb@@@@QAE@QA_W@Z 100bef42 f i libucrtd:get_environment_from_os.obj
 0001:000bdf56       ??1?$__crt_unique_handle_t@Uenvironment_strings_traits@?A0xda6148bb@@@@QAE@XZ 100bef56 f i libucrtd:get_environment_from_os.obj
 0001:000bdf72       ??B?$__crt_unique_handle_t@Uenvironment_strings_traits@?A0xda6148bb@@@@QBE_NXZ 100bef72 f i libucrtd:get_environment_from_os.obj
 0001:000bdf7c       ?close@?$__crt_unique_handle_t@Uenvironment_strings_traits@?A0xda6148bb@@@@QAEXXZ 100bef7c f i libucrtd:get_environment_from_os.obj
 0001:000bdf98       ?close@environment_strings_traits@?A0xda6148bb@@SA_NPA_W@Z 100bef98 f i libucrtd:get_environment_from_os.obj
 0001:000bdff2       ?get@?$__crt_unique_handle_t@Uenvironment_strings_traits@?A0xda6148bb@@@@QBEPA_WXZ 100beff2 f i libucrtd:get_environment_from_os.obj
 0001:000bdff5       ?get_invalid_value@environment_strings_traits@?A0xda6148bb@@SAPA_WXZ 100beff5 f i libucrtd:get_environment_from_os.obj
 0001:000bdff8       ?is_valid@?$__crt_unique_handle_t@Uenvironment_strings_traits@?A0xda6148bb@@@@QBE_NXZ 100beff8 f i libucrtd:get_environment_from_os.obj
 0001:000be002       ___dcrt_get_narrow_environment_from_os 100bf002 f   libucrtd:get_environment_from_os.obj
 0001:000be0b7       ___dcrt_get_wide_environment_from_os 100bf0b7 f   libucrtd:get_environment_from_os.obj
 0001:000bec57       ??$get_or_create_environment_nolock@$$$V@?$__crt_char_traits@D@@SAPAPADXZ 100bfc57 f i libucrtd:setenv.obj
 0001:000bec5c       ??$get_or_create_environment_nolock@$$$V@?$__crt_char_traits@_W@@SAPAPA_WXZ 100bfc5c f i libucrtd:setenv.obj
 0001:000bec61       ??$set_environment_variable@ABQADQAD@?$__crt_char_traits@D@@SAHABQAD$$QBQAD@Z 100bfc61 f i libucrtd:setenv.obj
 0001:000bec7d       ??$set_environment_variable@ABQA_WQA_W@?$__crt_char_traits@_W@@SAHABQA_W$$QBQA_W@Z 100bfc7d f i libucrtd:setenv.obj
 0001:000bec99       ??$tcschr@ABQADD@?$__crt_char_traits@D@@SAPADABQAD$$QAD@Z 100bfc99 f i libucrtd:setenv.obj
 0001:000becb9       ??$tcschr@ABQA_WD@?$__crt_char_traits@_W@@SAPA_WABQA_W$$QAD@Z 100bfcb9 f i libucrtd:setenv.obj
 0001:000becde       ??$tcscpy_s@AAPADABIAAPAD@?$__crt_char_traits@D@@SAHAAPADABI0@Z 100bfcde f i libucrtd:setenv.obj
 0001:000bed03       ??$tcscpy_s@AAPA_WABIAAPA_W@?$__crt_char_traits@_W@@SAHAAPA_WABI0@Z 100bfd03 f i libucrtd:setenv.obj
 0001:000bed28       ??$tcscpy_s@ABQADABIABQAD@?$__crt_char_traits@D@@SAHABQADABI0@Z 100bfd28 f i libucrtd:setenv.obj
 0001:000bed4d       ??$tcscpy_s@ABQA_WABIABQA_W@?$__crt_char_traits@_W@@SAHABQA_WABI0@Z 100bfd4d f i libucrtd:setenv.obj
 0001:000bed72       ??$tcslen@ABQAD@?$__crt_char_traits@D@@SAIABQAD@Z 100bfd72 f i libucrtd:setenv.obj
 0001:000bed90       ??$tcslen@ABQA_W@?$__crt_char_traits@_W@@SAIABQA_W@Z 100bfd90 f i libucrtd:setenv.obj
 0001:000bedb5       ??$tcsnicoll@ABQBDAAPADABI@?$__crt_char_traits@D@@SAHABQBDAAPADABI@Z 100bfdb5 f i libucrtd:setenv.obj
 0001:000bedda       ??$tcsnicoll@ABQB_WAAPA_WABI@?$__crt_char_traits@_W@@SAHABQB_WAAPA_WABI@Z 100bfdda f i libucrtd:setenv.obj
 0001:000bedff       ??$tcsnlen@QADH@?$__crt_char_traits@D@@SAI$$QBQAD$$QAH@Z 100bfdff f i libucrtd:setenv.obj
 0001:000bee1d       ??$tcsnlen@QA_WH@?$__crt_char_traits@_W@@SAI$$QBQA_W$$QAH@Z 100bfe1d f i libucrtd:setenv.obj
 0001:000bee5f       ?strchr@@YAPADQADH@Z       100bfe5f f i libucrtd:setenv.obj
 0001:000bee6c       ?wcschr@@YAPA_WPA_W_W@Z    100bfe6c f i libucrtd:setenv.obj
 0001:000bee79       ___dcrt_set_variable_in_narrow_environment_nolock 100bfe79 f   libucrtd:setenv.obj
 0001:000bee86       ___dcrt_set_variable_in_wide_environment_nolock 100bfe86 f   libucrtd:setenv.obj
 0001:000bf210       ___acrt_initialize_lowio   100c0210 f   libucrtd:ioinit.obj
 0001:000bf2d0       ___acrt_uninitialize_lowio 100c02d0 f   libucrtd:ioinit.obj
 0001:000bf340       ___acrt_execute_initializers 100c0340 f   libucrtd:shared_initialization.obj
 0001:000bf440       ___acrt_execute_uninitializers 100c0440 f   libucrtd:shared_initialization.obj
 0001:000bf4d0       ?has_any_buffer@__crt_stdio_stream@@QBE_NXZ 100c04d0 f i libucrtd:_sftbuf.obj
 0001:000bf4f0       ?has_any_of@__crt_stdio_stream@@QBE_NJ@Z 100c04f0 f i libucrtd:_sftbuf.obj
 0001:000bf530       ?has_temporary_buffer@__crt_stdio_stream@@QBE_NXZ 100c0530 f i libucrtd:_sftbuf.obj
 0001:000bf550       ?set_flags@__crt_stdio_stream@@QBE_NJ@Z 100c0550 f i libucrtd:_sftbuf.obj
 0001:000bf5b0       ?unset_flags@__crt_stdio_stream@@QBE_NJ@Z 100c05b0 f i libucrtd:_sftbuf.obj
 0001:000bf610       ___acrt_stdio_begin_temporary_buffering_nolock 100c0610 f   libucrtd:_sftbuf.obj
 0001:000bf840       ___acrt_stdio_end_temporary_buffering_nolock 100c0840 f   libucrtd:_sftbuf.obj
 0001:000bf900       ___isascii                 100c0900 f i libucrtd:_ctype.obj
 0001:000bf930       ___iscsym                  100c0930 f i libucrtd:_ctype.obj
 0001:000bf980       ___iscsymf                 100c0980 f i libucrtd:_ctype.obj
 0001:000bf9c0       ___toascii                 100c09c0 f i libucrtd:_ctype.obj
 0001:000bf9d0       __isalnum_l                100c09d0 f i libucrtd:_ctype.obj
 0001:000bfa20       __isalpha_l                100c0a20 f i libucrtd:_ctype.obj
 0001:000bfa70       __isblank_l                100c0a70 f i libucrtd:_ctype.obj
 0001:000bfae0       __iscntrl_l                100c0ae0 f i libucrtd:_ctype.obj
 0001:000bfb30       __iscsym_l                 100c0b30 f i libucrtd:_ctype.obj
 0001:000bfb80       __iscsymf_l                100c0b80 f i libucrtd:_ctype.obj
 0001:000bfbd0       __isdigit_l                100c0bd0 f i libucrtd:_ctype.obj
 0001:000bfc20       __isgraph_l                100c0c20 f i libucrtd:_ctype.obj
 0001:000bfc70       __islower_l                100c0c70 f i libucrtd:_ctype.obj
 0001:000bfcc0       __isprint_l                100c0cc0 f i libucrtd:_ctype.obj
 0001:000bfd10       __ispunct_l                100c0d10 f i libucrtd:_ctype.obj
 0001:000bfd60       __isspace_l                100c0d60 f i libucrtd:_ctype.obj
 0001:000bfdb0       __isupper_l                100c0db0 f i libucrtd:_ctype.obj
 0001:000bfe00       __isxdigit_l               100c0e00 f i libucrtd:_ctype.obj
 0001:000bfe50       _isalnum                   100c0e50 f i libucrtd:_ctype.obj
 0001:000bfea0       _isalpha                   100c0ea0 f i libucrtd:_ctype.obj
 0001:000bfef0       _isblank                   100c0ef0 f i libucrtd:_ctype.obj
 0001:000bff60       _iscntrl                   100c0f60 f i libucrtd:_ctype.obj
 0001:000bffb0       _isdigit                   100c0fb0 f i libucrtd:_ctype.obj
 0001:000c0000       _isgraph                   100c1000 f i libucrtd:_ctype.obj
 0001:000c0050       _islower                   100c1050 f i libucrtd:_ctype.obj
 0001:000c00a0       _isprint                   100c10a0 f i libucrtd:_ctype.obj
 0001:000c00f0       _ispunct                   100c10f0 f i libucrtd:_ctype.obj
 0001:000c0140       _isspace                   100c1140 f i libucrtd:_ctype.obj
 0001:000c0190       _isupper                   100c1190 f i libucrtd:_ctype.obj
 0001:000c01e0       _isxdigit                  100c11e0 f i libucrtd:_ctype.obj
 0001:000c0810       __tolower                  100c1810 f   libucrtd:tolower_toupper.obj
 0001:000c0820       __tolower_l                100c1820 f   libucrtd:tolower_toupper.obj
 0001:000c0850       __toupper                  100c1850 f   libucrtd:tolower_toupper.obj
 0001:000c0860       __toupper_l                100c1860 f   libucrtd:tolower_toupper.obj
 0001:000c0890       _tolower                   100c1890 f   libucrtd:tolower_toupper.obj
 0001:000c0900       _toupper                   100c1900 f   libucrtd:tolower_toupper.obj
 0001:000c0970       __CrtGetDebugFillThreshold 100c1970 f   libucrtd:debug_fill_threshold.obj
 0001:000c0980       __CrtSetDebugFillThreshold 100c1980 f   libucrtd:debug_fill_threshold.obj
 0001:000c09b0       ??$make_c_string_character_source@DPAPAD@__crt_strtox@@YA?AV?$c_string_character_source@D@0@QBDQAPAD@Z 100c19b0 f i libucrtd:strtox.obj
 0001:000c09d0       ??$make_c_string_character_source@_WPAPA_W@__crt_strtox@@YA?AV?$c_string_character_source@_W@0@QB_WQAPA_W@Z 100c19d0 f i libucrtd:strtox.obj
 0001:000c09f0       ??$parse_integer_from_string@JDPAPAD@__crt_strtox@@YAJQBDQAPADHQAU__crt_locale_pointers@@@Z 100c19f0 f i libucrtd:strtox.obj
 0001:000c0a40       ??$parse_integer_from_string@J_WPAPA_W@__crt_strtox@@YAJQB_WQAPA_WHQAU__crt_locale_pointers@@@Z 100c1a40 f i libucrtd:strtox.obj
 0001:000c0a90       ??$parse_integer_from_string@KDPAPAD@__crt_strtox@@YAKQBDQAPADHQAU__crt_locale_pointers@@@Z 100c1a90 f i libucrtd:strtox.obj
 0001:000c0ae0       ??$parse_integer_from_string@K_WPAPA_W@__crt_strtox@@YAKQB_WQAPA_WHQAU__crt_locale_pointers@@@Z 100c1ae0 f i libucrtd:strtox.obj
 0001:000c0b30       ??$parse_integer_from_string@_JDPAPAD@__crt_strtox@@YA_JQBDQAPADHQAU__crt_locale_pointers@@@Z 100c1b30 f i libucrtd:strtox.obj
 0001:000c0b80       ??$parse_integer_from_string@_J_WPAPA_W@__crt_strtox@@YA_JQB_WQAPA_WHQAU__crt_locale_pointers@@@Z 100c1b80 f i libucrtd:strtox.obj
 0001:000c0bd0       ??$parse_integer_from_string@_KDPAPAD@__crt_strtox@@YA_KQBDQAPADHQAU__crt_locale_pointers@@@Z 100c1bd0 f i libucrtd:strtox.obj
 0001:000c0c20       ??$parse_integer_from_string@_K_WPAPA_W@__crt_strtox@@YA_KQB_WQAPA_WHQAU__crt_locale_pointers@@@Z 100c1c20 f i libucrtd:strtox.obj
 0001:000c0c70       __strtoi64                 100c1c70 f   libucrtd:strtox.obj
 0001:000c0ca0       __strtoi64_l               100c1ca0 f   libucrtd:strtox.obj
 0001:000c0cd0       __strtoimax_l              100c1cd0 f   libucrtd:strtox.obj
 0001:000c0d00       __strtol_l                 100c1d00 f   libucrtd:strtox.obj
 0001:000c0d30       __strtoll_l                100c1d30 f   libucrtd:strtox.obj
 0001:000c0d60       __strtoui64                100c1d60 f   libucrtd:strtox.obj
 0001:000c0d90       __strtoui64_l              100c1d90 f   libucrtd:strtox.obj
 0001:000c0dc0       __strtoul_l                100c1dc0 f   libucrtd:strtox.obj
 0001:000c0df0       __strtoull_l               100c1df0 f   libucrtd:strtox.obj
 0001:000c0e20       __strtoumax_l              100c1e20 f   libucrtd:strtox.obj
 0001:000c0e50       __wcstoi64                 100c1e50 f   libucrtd:strtox.obj
 0001:000c0e80       __wcstoi64_l               100c1e80 f   libucrtd:strtox.obj
 0001:000c0eb0       __wcstoimax_l              100c1eb0 f   libucrtd:strtox.obj
 0001:000c0ee0       __wcstol_l                 100c1ee0 f   libucrtd:strtox.obj
 0001:000c0f10       __wcstoll_l                100c1f10 f   libucrtd:strtox.obj
 0001:000c0f40       __wcstoui64                100c1f40 f   libucrtd:strtox.obj
 0001:000c0f70       __wcstoui64_l              100c1f70 f   libucrtd:strtox.obj
 0001:000c0fa0       __wcstoul_l                100c1fa0 f   libucrtd:strtox.obj
 0001:000c0fd0       __wcstoull_l               100c1fd0 f   libucrtd:strtox.obj
 0001:000c1000       __wcstoumax_l              100c2000 f   libucrtd:strtox.obj
 0001:000c1030       _strtoimax                 100c2030 f   libucrtd:strtox.obj
 0001:000c1060       _strtol                    100c2060 f   libucrtd:strtox.obj
 0001:000c1090       _strtoll                   100c2090 f   libucrtd:strtox.obj
 0001:000c10c0       _strtoul                   100c20c0 f   libucrtd:strtox.obj
 0001:000c10f0       _strtoull                  100c20f0 f   libucrtd:strtox.obj
 0001:000c1120       _strtoumax                 100c2120 f   libucrtd:strtox.obj
 0001:000c1150       _wcstoimax                 100c2150 f   libucrtd:strtox.obj
 0001:000c1180       _wcstol                    100c2180 f   libucrtd:strtox.obj
 0001:000c11b0       _wcstoll                   100c21b0 f   libucrtd:strtox.obj
 0001:000c11e0       _wcstoul                   100c21e0 f   libucrtd:strtox.obj
 0001:000c1210       _wcstoull                  100c2210 f   libucrtd:strtox.obj
 0001:000c1240       _wcstoumax                 100c2240 f   libucrtd:strtox.obj
 0001:000c1270       __mbtowc_l                 100c2270 f   libucrtd:mbtowc.obj
 0001:000c1540       _mbtowc                    100c2540 f   libucrtd:mbtowc.obj
 0001:000c1570       __wctomb_l                 100c2570 f   libucrtd:wctomb.obj
 0001:000c1610       __wctomb_s_l               100c2610 f   libucrtd:wctomb.obj
 0001:000c1a20       _wctomb                    100c2a20 f   libucrtd:wctomb.obj
 0001:000c1a80       _wctomb_s                  100c2a80 f   libucrtd:wctomb.obj
 0001:000c2480       ??1?$__crt_simd_cleanup_guard@$00@@QAE@XZ 100c3480 f i libucrtd:strnlen.obj
 0001:000c24a0       ??1?$__crt_simd_cleanup_guard@$0A@@@QAE@XZ 100c34a0 f i libucrtd:strnlen.obj
 0001:000c24b0       ?compare_equals@?$__crt_simd_traits@$00E@@SA?AT__m256i@@T2@0@Z 100c34b0 f i libucrtd:strnlen.obj
 0001:000c2500       ?compare_equals@?$__crt_simd_traits@$00G@@SA?AT__m256i@@T2@0@Z 100c3500 f i libucrtd:strnlen.obj
 0001:000c2550       ?compare_equals@?$__crt_simd_traits@$0A@E@@SA?AT__m128i@@T2@0@Z 100c3550 f i libucrtd:strnlen.obj
 0001:000c25a0       ?compare_equals@?$__crt_simd_traits@$0A@G@@SA?AT__m128i@@T2@0@Z 100c35a0 f i libucrtd:strnlen.obj
 0001:000c25f0       ?compute_byte_mask@?$__crt_simd_pack_traits@$00@@SAHT__m256i@@@Z 100c35f0 f i libucrtd:strnlen.obj
 0001:000c2630       ?compute_byte_mask@?$__crt_simd_pack_traits@$0A@@@SAHT__m128i@@@Z 100c3630 f i libucrtd:strnlen.obj
 0001:000c2670       ?get_zero_pack@?$__crt_simd_pack_traits@$00@@SA?AT__m256i@@XZ 100c3670 f i libucrtd:strnlen.obj
 0001:000c26b0       ?get_zero_pack@?$__crt_simd_pack_traits@$0A@@@SA?AT__m128i@@XZ 100c36b0 f i libucrtd:strnlen.obj
 0001:000c26f0       _strnlen                   100c36f0 f   libucrtd:strnlen.obj
 0001:000c2710       _wcsnlen                   100c3710 f   libucrtd:strnlen.obj
 0001:000c2730       ?__acrt_fp_classify@@YA?AW4__acrt_fp_class@@ABN@Z 100c3730 f i libucrtd:cvt.obj
 0001:000c2890       ?__acrt_fp_is_negative@@YA_NABN@Z 100c3890 f i libucrtd:cvt.obj
 0001:000c3d40       ?strrchr@@YAPADQADH@Z      100c4d40 f i libucrtd:cvt.obj
 0001:000c3d60       ___acrt_fp_format          100c4d60 f   libucrtd:cvt.obj
 0001:000c4310       __fputwc_nolock            100c5310 f   libucrtd:fputwc.obj
 0001:000c4570       __fputwchar                100c5570 f   libucrtd:fputwc.obj
 0001:000c45a0       __putwc_nolock             100c55a0 f   libucrtd:fputwc.obj
 0001:000c45c0       _fputwc                    100c55c0 f   libucrtd:fputwc.obj
 0001:000c4710       _putwc                     100c5710 f   libucrtd:fputwc.obj
 0001:000c4730       _putwchar                  100c5730 f   libucrtd:fputwc.obj
 0001:000c4750       ?lowio_handle@__crt_stdio_stream@@QBEHXZ 100c5750 f i libucrtd:fileno.obj
 0001:000c4780       __fileno                   100c5780 f   libucrtd:fileno.obj
 0001:000c4850       ??$?RPAU__crt_stdio_stream_data@@@__crt_internal_free_policy@@QBEXQBQAU__crt_stdio_stream_data@@@Z 100c5850 f i libucrtd:_file.obj
 0001:000c4880       ??0?$__crt_unique_heap_ptr@PAU__crt_stdio_stream_data@@U__crt_internal_free_policy@@@@QAE@QAPAU__crt_stdio_stream_data@@@Z 100c5880 f i libucrtd:_file.obj
 0001:000c48a0       ??1?$__crt_unique_heap_ptr@PAU__crt_stdio_stream_data@@U__crt_internal_free_policy@@@@QAE@XZ 100c58a0 f i libucrtd:_file.obj
 0001:000c48c0       ?detach@?$__crt_unique_heap_ptr@PAU__crt_stdio_stream_data@@U__crt_internal_free_policy@@@@QAEPAPAU__crt_stdio_stream_data@@XZ 100c58c0 f i libucrtd:_file.obj
 0001:000c48f0       ?release@?$__crt_unique_heap_ptr@PAU__crt_stdio_stream_data@@U__crt_internal_free_policy@@@@QAEXXZ 100c58f0 f i libucrtd:_file.obj
 0001:000c4930       ___acrt_initialize_stdio   100c5930 f   libucrtd:_file.obj
 0001:000c4b00       ___acrt_iob_func           100c5b00 f   libucrtd:_file.obj
 0001:000c4b20       ___acrt_uninitialize_stdio 100c5b20 f   libucrtd:_file.obj
 0001:000c4bc0       __get_stream_buffer_pointers 100c5bc0 f   libucrtd:_file.obj
 0001:000c4cd0       __lock_file                100c5cd0 f   libucrtd:_file.obj
 0001:000c4d00       __unlock_file              100c5d00 f   libucrtd:_file.obj
 0001:000c4d30       __fputc_nolock             100c5d30 f   libucrtd:fputc.obj
 0001:000c4de0       __fputchar                 100c5de0 f   libucrtd:fputc.obj
 0001:000c4e10       __putc_nolock              100c5e10 f   libucrtd:fputc.obj
 0001:000c4e30       _fputc                     100c5e30 f   libucrtd:fputc.obj
 0001:000c5100       _putc                      100c6100 f   libucrtd:fputc.obj
 0001:000c5120       _putchar                   100c6120 f   libucrtd:fputc.obj
 0001:000c5140       __get_printf_count_output  100c6140 f   libucrtd:printf_count_output.obj
 0001:000c5180       __set_printf_count_output  100c6180 f   libucrtd:printf_count_output.obj
 0001:000c51ee       __mbsdec                   100c61ee f   libucrtd:mbsdec.obj
 0001:000c520a       __mbsdec_l                 100c620a f   libucrtd:mbsdec.obj
 0001:000c5860       _wcsncpy_s                 100c6860 f   libucrtd:wcsncpy_s.obj
 0001:000c5da0       _strncpy_s                 100c6da0 f   libucrtd:strncpy_s.obj
 0001:000c5fe0       ___acrt_report_runtime_error 100c6fe0 f   libucrtd:report_runtime_error.obj
 0001:000c6250       __query_app_type           100c7250 f   libucrtd:report_runtime_error.obj
 0001:000c6260       __set_app_type             100c7260 f   libucrtd:report_runtime_error.obj
 0001:000c6280       __iswctype_l               100c7280 f   libucrtd:iswctype.obj
 0001:000c62a0       _iswctype                  100c72a0 f   libucrtd:iswctype.obj
 0001:000c6330       _nexttoward                100c7330 f   libucrtd:nexttoward.obj
 0001:000c6750       __87except                 100c7750 f   libucrtd:87except.obj
 0001:000c69c0       __frnd                     100c79c0 f   libucrtd:frnd.obj
 0001:000c7f10       __i64toa                   100c8f10 f   libucrtd:xtoa.obj
 0001:000c7f80       __i64toa_s                 100c8f80 f   libucrtd:xtoa.obj
 0001:000c7ff0       __i64tow                   100c8ff0 f   libucrtd:xtoa.obj
 0001:000c8060       __i64tow_s                 100c9060 f   libucrtd:xtoa.obj
 0001:000c80d0       __itoa                     100c90d0 f   libucrtd:xtoa.obj
 0001:000c8130       __itoa_s                   100c9130 f   libucrtd:xtoa.obj
 0001:000c8190       __itow                     100c9190 f   libucrtd:xtoa.obj
 0001:000c81f0       __itow_s                   100c91f0 f   libucrtd:xtoa.obj
 0001:000c8250       __ltoa                     100c9250 f   libucrtd:xtoa.obj
 0001:000c82b0       __ltoa_s                   100c92b0 f   libucrtd:xtoa.obj
 0001:000c8310       __ltow                     100c9310 f   libucrtd:xtoa.obj
 0001:000c8370       __ltow_s                   100c9370 f   libucrtd:xtoa.obj
 0001:000c83d0       __ui64toa                  100c93d0 f   libucrtd:xtoa.obj
 0001:000c8400       __ui64toa_s                100c9400 f   libucrtd:xtoa.obj
 0001:000c8430       __ui64tow                  100c9430 f   libucrtd:xtoa.obj
 0001:000c8460       __ui64tow_s                100c9460 f   libucrtd:xtoa.obj
 0001:000c8490       __ultoa                    100c9490 f   libucrtd:xtoa.obj
 0001:000c84c0       __ultoa_s                  100c94c0 f   libucrtd:xtoa.obj
 0001:000c84f0       __ultow                    100c94f0 f   libucrtd:xtoa.obj
 0001:000c8520       __ultow_s                  100c9520 f   libucrtd:xtoa.obj
 0001:000c89c0       __mbstowcs_l               100c99c0 f   libucrtd:mbstowcs.obj
 0001:000c89f0       __mbstowcs_s_l             100c99f0 f   libucrtd:mbstowcs.obj
 0001:000c8ea0       _mbstowcs                  100c9ea0 f   libucrtd:mbstowcs.obj
 0001:000c8f00       _mbstowcs_s                100c9f00 f   libucrtd:mbstowcs.obj
 0001:000c9720       __wcstombs_l               100ca720 f   libucrtd:wcstombs.obj
 0001:000c9750       __wcstombs_s_l             100ca750 f   libucrtd:wcstombs.obj
 0001:000c9b90       _wcstombs                  100cab90 f   libucrtd:wcstombs.obj
 0001:000c9bc0       _wcstombs_s                100cabc0 f   libucrtd:wcstombs.obj
 0001:000ca120       _wcscat_s                  100cb120 f   libucrtd:wcscat_s.obj
 0001:000ca660       _strcat_s                  100cb660 f   libucrtd:strcat_s.obj
 0001:000ca690       __malloc_base              100cb690 f   libucrtd:malloc_base.obj
 0001:000ca740       ___iswcsym                 100cb740 f i libucrtd:_wctype.obj
 0001:000ca790       ___iswcsymf                100cb790 f i libucrtd:_wctype.obj
 0001:000ca7e0       __isleadbyte_l             100cb7e0 f i libucrtd:_wctype.obj
 0001:000ca830       __iswalnum_l               100cb830 f i libucrtd:_wctype.obj
 0001:000ca850       __iswalpha_l               100cb850 f i libucrtd:_wctype.obj
 0001:000ca870       __iswblank_l               100cb870 f i libucrtd:_wctype.obj
 0001:000ca8b0       __iswcntrl_l               100cb8b0 f i libucrtd:_wctype.obj
 0001:000ca8d0       __iswcsym_l                100cb8d0 f i libucrtd:_wctype.obj
 0001:000ca920       __iswcsymf_l               100cb920 f i libucrtd:_wctype.obj
 0001:000ca970       __iswdigit_l               100cb970 f i libucrtd:_wctype.obj
 0001:000ca990       __iswgraph_l               100cb990 f i libucrtd:_wctype.obj
 0001:000ca9b0       __iswlower_l               100cb9b0 f i libucrtd:_wctype.obj
 0001:000ca9d0       __iswprint_l               100cb9d0 f i libucrtd:_wctype.obj
 0001:000ca9f0       __iswpunct_l               100cb9f0 f i libucrtd:_wctype.obj
 0001:000caa10       __iswspace_l               100cba10 f i libucrtd:_wctype.obj
 0001:000caa30       __iswupper_l               100cba30 f i libucrtd:_wctype.obj
 0001:000caa50       __iswxdigit_l              100cba50 f i libucrtd:_wctype.obj
 0001:000caa70       _isleadbyte                100cba70 f i libucrtd:_wctype.obj
 0001:000caa90       _iswalnum                  100cba90 f i libucrtd:_wctype.obj
 0001:000caab0       _iswalpha                  100cbab0 f i libucrtd:_wctype.obj
 0001:000caad0       _iswascii                  100cbad0 f i libucrtd:_wctype.obj
 0001:000cab10       _iswblank                  100cbb10 f i libucrtd:_wctype.obj
 0001:000cab50       _iswcntrl                  100cbb50 f i libucrtd:_wctype.obj
 0001:000cab70       _iswdigit                  100cbb70 f i libucrtd:_wctype.obj
 0001:000cab90       _iswgraph                  100cbb90 f i libucrtd:_wctype.obj
 0001:000cabb0       _iswlower                  100cbbb0 f i libucrtd:_wctype.obj
 0001:000cabd0       _iswprint                  100cbbd0 f i libucrtd:_wctype.obj
 0001:000cabf0       _iswpunct                  100cbbf0 f i libucrtd:_wctype.obj
 0001:000cac10       _iswspace                  100cbc10 f i libucrtd:_wctype.obj
 0001:000cac30       _iswupper                  100cbc30 f i libucrtd:_wctype.obj
 0001:000cac50       _iswxdigit                 100cbc50 f i libucrtd:_wctype.obj
 0001:000cac70       ??0?$__crt_scoped_stack_ptr@_W@@QAE@U?$__crt_scoped_stack_ptr_tag@_W@@@Z 100cbc70 f i libucrtd:getstringtypea.obj
 0001:000cac90       ??0?$__crt_scoped_stack_ptr_tag@_W@@QAE@QA_W@Z 100cbc90 f i libucrtd:getstringtypea.obj
 0001:000cacb0       ??1?$__crt_scoped_stack_ptr@_W@@QAE@XZ 100cbcb0 f i libucrtd:getstringtypea.obj
 0001:000cace0       ?get@?$__crt_scoped_stack_ptr@_W@@QBEPA_WXZ 100cbce0 f i libucrtd:getstringtypea.obj
 0001:000cad00       __MallocaComputeSize       100cbd00 f i libucrtd:getstringtypea.obj
 0001:000cad40       __MarkAllocaS              100cbd40 f i libucrtd:getstringtypea.obj
 0001:000cad70       ___acrt_GetStringTypeA     100cbd70 f   libucrtd:getstringtypea.obj
 0001:000caf90       __freea_crt                100cbf90 f i libucrtd:getstringtypea.obj
 0001:000cb020       ___acrt_add_locale_ref     100cc020 f   libucrtd:locale_refcounting.obj
 0001:000cb160       ___acrt_free_locale        100cc160 f   libucrtd:locale_refcounting.obj
 0001:000cb4d0       ___acrt_locale_add_lc_time_reference 100cc4d0 f   libucrtd:locale_refcounting.obj
 0001:000cb510       ___acrt_locale_free_lc_time_if_unreferenced 100cc510 f   libucrtd:locale_refcounting.obj
 0001:000cb570       ___acrt_locale_release_lc_time_reference 100cc570 f   libucrtd:locale_refcounting.obj
 0001:000cb5b0       ___acrt_release_locale_ref 100cc5b0 f   libucrtd:locale_refcounting.obj
 0001:000cb700       ___acrt_update_thread_locale_data 100cc700 f   libucrtd:locale_refcounting.obj
 0001:000cb810       __updatetlocinfoEx_nolock  100cc810 f   libucrtd:locale_refcounting.obj
 0001:000cb8b0       ___pctype_func             100cc8b0 f   libucrtd:ctype.obj
 0001:000cb8f0       ___pwctype_func            100cc8f0 f   libucrtd:ctype.obj
 0001:000cb900       ??$?RG@__crt_internal_free_policy@@QBEXQBG@Z 100cc900 f i libucrtd:initctype.obj
 0001:000cb930       ??$?RJ@__crt_internal_free_policy@@QBEXQBJ@Z 100cc930 f i libucrtd:initctype.obj
 0001:000cb960       ??0?$__crt_unique_heap_ptr@GU__crt_internal_free_policy@@@@QAE@QAG@Z 100cc960 f i libucrtd:initctype.obj
 0001:000cb980       ??0?$__crt_unique_heap_ptr@JU__crt_internal_free_policy@@@@QAE@QAJ@Z 100cc980 f i libucrtd:initctype.obj
 0001:000cb9a0       ??1?$__crt_unique_heap_ptr@GU__crt_internal_free_policy@@@@QAE@XZ 100cc9a0 f i libucrtd:initctype.obj
 0001:000cb9c0       ??1?$__crt_unique_heap_ptr@JU__crt_internal_free_policy@@@@QAE@XZ 100cc9c0 f i libucrtd:initctype.obj
 0001:000cb9e0       ?detach@?$__crt_unique_heap_ptr@GU__crt_internal_free_policy@@@@QAEPAGXZ 100cc9e0 f i libucrtd:initctype.obj
 0001:000cba10       ?detach@?$__crt_unique_heap_ptr@JU__crt_internal_free_policy@@@@QAEPAJXZ 100cca10 f i libucrtd:initctype.obj
 0001:000cba40       ?release@?$__crt_unique_heap_ptr@GU__crt_internal_free_policy@@@@QAEXXZ 100cca40 f i libucrtd:initctype.obj
 0001:000cba80       ?release@?$__crt_unique_heap_ptr@JU__crt_internal_free_policy@@@@QAEXXZ 100cca80 f i libucrtd:initctype.obj
 0001:000cbac0       ____lc_codepage_func       100ccac0 f   libucrtd:initctype.obj
 0001:000cbb00       ____lc_collate_cp_func     100ccb00 f   libucrtd:initctype.obj
 0001:000cbb40       ____lc_locale_name_func    100ccb40 f   libucrtd:initctype.obj
 0001:000cbb90       ____mb_cur_max_func        100ccb90 f   libucrtd:initctype.obj
 0001:000cbbd0       ____mb_cur_max_l_func      100ccbd0 f   libucrtd:initctype.obj
 0001:000cbc10       ___acrt_locale_initialize_ctype 100ccc10 f   libucrtd:initctype.obj
 0001:000cc460       ??$?RUlconv@@@__crt_internal_free_policy@@QBEXQBUlconv@@@Z 100cd460 f i libucrtd:initmon.obj
 0001:000cc490       ??0?$__crt_unique_heap_ptr@Ulconv@@U__crt_internal_free_policy@@@@QAE@QAUlconv@@@Z 100cd490 f i libucrtd:initmon.obj
 0001:000cc4b0       ??1?$__crt_unique_heap_ptr@Ulconv@@U__crt_internal_free_policy@@@@QAE@XZ 100cd4b0 f i libucrtd:initmon.obj
 0001:000cc4d0       ?detach@?$__crt_unique_heap_ptr@Ulconv@@U__crt_internal_free_policy@@@@QAEPAUlconv@@XZ 100cd4d0 f i libucrtd:initmon.obj
 0001:000cc500       ?release@?$__crt_unique_heap_ptr@Ulconv@@U__crt_internal_free_policy@@@@QAEXXZ 100cd500 f i libucrtd:initmon.obj
 0001:000cc540       ___acrt_locale_free_monetary 100cd540 f   libucrtd:initmon.obj
 0001:000cc750       ___acrt_locale_initialize_monetary 100cd750 f   libucrtd:initmon.obj
 0001:000ccfa0       ___acrt_locale_free_numeric 100cdfa0 f   libucrtd:initnum.obj
 0001:000cd080       ___acrt_locale_initialize_numeric 100ce080 f   libucrtd:initnum.obj
 0001:000cd5d0       ??$?RU__crt_lc_time_data@@@__crt_internal_free_policy@@QBEXQBU__crt_lc_time_data@@@Z 100ce5d0 f i libucrtd:inittime.obj
 0001:000cd6c0       ??0?$__crt_unique_heap_ptr@U__crt_lc_time_data@@U__crt_internal_free_policy@@@@QAE@QAU__crt_lc_time_data@@@Z 100ce6c0 f i libucrtd:inittime.obj
 0001:000cd6e0       ??1?$__crt_unique_heap_ptr@U__crt_lc_time_data@@U__crt_internal_free_policy@@@@QAE@XZ 100ce6e0 f i libucrtd:inittime.obj
 0001:000cd700       ??B?$__crt_unique_heap_ptr@U__crt_lc_time_data@@U__crt_internal_free_policy@@@@QBE_NXZ 100ce700 f i libucrtd:inittime.obj
 0001:000cd720       ?detach@?$__crt_unique_heap_ptr@U__crt_lc_time_data@@U__crt_internal_free_policy@@@@QAEPAU__crt_lc_time_data@@XZ 100ce720 f i libucrtd:inittime.obj
 0001:000cd7a0       ?get@?$__crt_unique_heap_ptr@U__crt_lc_time_data@@U__crt_internal_free_policy@@@@QBEPAU__crt_lc_time_data@@XZ 100ce7a0 f i libucrtd:inittime.obj
 0001:000cdd90       ?is_valid@?$__crt_unique_heap_ptr@U__crt_lc_time_data@@U__crt_internal_free_policy@@@@QBE_NXZ 100ced90 f i libucrtd:inittime.obj
 0001:000cddd0       ?release@?$__crt_unique_heap_ptr@U__crt_lc_time_data@@U__crt_internal_free_policy@@@@QAEXXZ 100cedd0 f i libucrtd:inittime.obj
 0001:000cde10       ___acrt_locale_free_time   100cee10 f   libucrtd:inittime.obj
 0001:000cdfb0       ___acrt_locale_initialize_time 100cefb0 f   libucrtd:inittime.obj
 0001:000ce040       _wcscmp                    100cf040 f   libucrtd:wcscmp.obj
 0001:000ce0c0       _wcscspn                   100cf0c0 f   libucrtd:wcscspn.obj
 0001:000ce150       _wcsncmp                   100cf150 f   libucrtd:wcsncmp.obj
 0001:000ce1c0       _wcspbrk                   100cf1c0 f   libucrtd:wcspbrk.obj
 0001:000cf000       ___acrt_get_qualified_locale 100d0000 f   libucrtd:get_qualified_locale.obj
 0001:000d0370       ___acrt_get_qualified_locale_downlevel 100d1370 f   libucrtd:getqloc_downlevel.obj
 0001:000d06d0       _localeconv                100d16d0 f   libucrtd:localeconv.obj
 0001:000d0950       ___acrt_DownlevelLCIDToLocaleName 100d1950 f   libucrtd:lcidtoname_downlevel.obj
 0001:000d0a50       ___acrt_DownlevelLocaleNameToLCID 100d1a50 f   libucrtd:lcidtoname_downlevel.obj
 0001:000d0aa0       ??1scoped_global_state_reset@__crt_state_management@@QAE@XZ 100d1aa0 f i libucrtd:qsort.obj
 0001:000d0c20       _qsort                     100d1c20 f   libucrtd:qsort.obj
 0001:000d1440       _strpbrk                   100d2440 f   libucrtd:strpbrk.obj
 0001:000d14d0       ??B?$__crt_scoped_stack_ptr@_W@@QBE_NXZ 100d24d0 f i libucrtd:lcmapstringa.obj
 0001:000d19c0       ___acrt_LCMapStringA       100d29c0 f   libucrtd:lcmapstringa.obj
 0001:000d1a30       __wcsnicoll                100d2a30 f   libucrtd:wcsnicol.obj
 0001:000d1d20       __wcsnicoll_l              100d2d20 f   libucrtd:wcsnicol.obj
 0001:000d20c0       __strnicoll                100d30c0 f   libucrtd:strnicol.obj
 0001:000d2120       __strnicoll_l              100d3120 f   libucrtd:strnicol.obj
 0001:000d2470       ??$?RU__crt_lowio_handle_data@@@__crt_internal_free_policy@@QBEXQBU__crt_lowio_handle_data@@@Z 100d3470 f i libucrtd:osfinfo.obj
 0001:000d24a0       ??0?$__crt_unique_heap_ptr@U__crt_lowio_handle_data@@U__crt_internal_free_policy@@@@QAE@QAU__crt_lowio_handle_data@@@Z 100d34a0 f i libucrtd:osfinfo.obj
 0001:000d24c0       ??1?$__crt_unique_heap_ptr@U__crt_lowio_handle_data@@U__crt_internal_free_policy@@@@QAE@XZ 100d34c0 f i libucrtd:osfinfo.obj
 0001:000d24e0       ??B?$__crt_unique_heap_ptr@U__crt_lowio_handle_data@@U__crt_internal_free_policy@@@@QBE_NXZ 100d34e0 f i libucrtd:osfinfo.obj
 0001:000d2500       ?detach@?$__crt_unique_heap_ptr@U__crt_lowio_handle_data@@U__crt_internal_free_policy@@@@QAEPAU__crt_lowio_handle_data@@XZ 100d3500 f i libucrtd:osfinfo.obj
 0001:000d2530       ?get@?$__crt_unique_heap_ptr@U__crt_lowio_handle_data@@U__crt_internal_free_policy@@@@QBEPAU__crt_lowio_handle_data@@XZ 100d3530 f i libucrtd:osfinfo.obj
 0001:000d2550       ?is_valid@?$__crt_unique_heap_ptr@U__crt_lowio_handle_data@@U__crt_internal_free_policy@@@@QBE_NXZ 100d3550 f i libucrtd:osfinfo.obj
 0001:000d2590       ?release@?$__crt_unique_heap_ptr@U__crt_lowio_handle_data@@U__crt_internal_free_policy@@@@QAEXXZ 100d3590 f i libucrtd:osfinfo.obj
 0001:000d25d0       ___acrt_lowio_create_handle_array 100d35d0 f   libucrtd:osfinfo.obj
 0001:000d2760       ___acrt_lowio_destroy_handle_array 100d3760 f   libucrtd:osfinfo.obj
 0001:000d27d0       ___acrt_lowio_ensure_fh_exists 100d37d0 f   libucrtd:osfinfo.obj
 0001:000d2980       ___acrt_lowio_lock_fh      100d3980 f   libucrtd:osfinfo.obj
 0001:000d29b0       ___acrt_lowio_set_os_handle 100d39b0 f   libucrtd:osfinfo.obj
 0001:000d2ac0       ___acrt_lowio_unlock_fh    100d3ac0 f   libucrtd:osfinfo.obj
 0001:000d2af0       __alloc_osfhnd             100d3af0 f   libucrtd:osfinfo.obj
 0001:000d2d40       __free_osfhnd              100d3d40 f   libucrtd:osfinfo.obj
 0001:000d2e60       __get_osfhandle            100d3e60 f   libucrtd:osfinfo.obj
 0001:000d3040       __open_osfhandle           100d4040 f   libucrtd:osfinfo.obj
 0001:000d32c0       __isatty                   100d42c0 f   libucrtd:isatty.obj
 0001:000d33c0       ??0__crt_stdio_stream@@QAE@QAU__crt_stdio_stream_data@@@Z 100d43c0 f i libucrtd:fflush.obj
 0001:000d33e0       ?__acrt_stdio_reset_buffer@@YAXV__crt_stdio_stream@@@Z 100d43e0 f i libucrtd:fflush.obj
 0001:000d3420       ?has_all_of@__crt_stdio_stream@@QBE_NJ@Z 100d4420 f i libucrtd:fflush.obj
 0001:000d3470       ?has_big_buffer@__crt_stdio_stream@@QBE_NXZ 100d4470 f i libucrtd:fflush.obj
 0001:000d3490       ?is_in_use@__crt_stdio_stream@@QBE_NXZ 100d4490 f i libucrtd:fflush.obj
 0001:000d34d0       ___acrt_stdio_flush_nolock 100d44d0 f   libucrtd:fflush.obj
 0001:000d35e0       __fflush_nolock            100d45e0 f   libucrtd:fflush.obj
 0001:000d3680       __flushall                 100d4680 f   libucrtd:fflush.obj
 0001:000d38a0       _fflush                    100d48a0 f   libucrtd:fflush.obj
 0001:000d3970       ___acrt_fp_strflt_to_string 100d4970 f   libucrtd:_fptostr.obj
 0001:000d4510       ??0big_integer@__crt_strtox@@QAE@ABU01@@Z 100d5510 f i libucrtd:cfout.obj
 0001:000d4560       ??0big_integer@__crt_strtox@@QAE@XZ 100d5560 f i libucrtd:cfout.obj
 0001:000d45a0       ??0scoped_fp_state_reset@?A0x48fbfdd4@@QAE@XZ 100d55a0 f i libucrtd:cfout.obj
 0001:000d4600       ??1scoped_fp_state_reset@?A0x48fbfdd4@@QAE@XZ 100d5600 f i libucrtd:cfout.obj
 0001:000d4630       ??4big_integer@__crt_strtox@@QAEAAU01@ABU01@@Z 100d5630 f i libucrtd:cfout.obj
 0001:000d4680       ??8__crt_strtox@@YA_NABUbig_integer@0@0@Z 100d5680 f i libucrtd:cfout.obj
 0001:000d46f0       ??9__crt_strtox@@YA_NABUbig_integer@0@0@Z 100d56f0 f i libucrtd:cfout.obj
 0001:000d4740       ?add_carry@__crt_strtox@@YAIAAIII@Z 100d5740 f i libucrtd:cfout.obj
 0001:000d4790       ?add_multiply_carry@__crt_strtox@@YAIAAIIII@Z 100d5790 f i libucrtd:cfout.obj
 0001:000d47e0       ?bit_scan_reverse@__crt_strtox@@YAII@Z 100d57e0 f i libucrtd:cfout.obj
 0001:000d4820       ?count_sequential_high_zeroes@__crt_strtox@@YAII@Z 100d5820 f i libucrtd:cfout.obj
 0001:000d4870       ?divide@__crt_strtox@@YA_KAAUbig_integer@1@ABU21@@Z 100d5870 f i libucrtd:cfout.obj
 0001:000d5590       ?is_zero@__crt_strtox@@YA_NABUbig_integer@1@@Z 100d6590 f i libucrtd:cfout.obj
 0001:000d55c0       ?make_big_integer@__crt_strtox@@YA?AUbig_integer@1@_K@Z 100d65c0 f i libucrtd:cfout.obj
 0001:000d56a0       ?make_big_integer_power_of_two@__crt_strtox@@YA?AUbig_integer@1@I@Z 100d66a0 f i libucrtd:cfout.obj
 0001:000d5780       ?multiply@__crt_strtox@@YA_NAAUbig_integer@1@ABU21@@Z 100d6780 f i libucrtd:cfout.obj
 0001:000d5be0       ?multiply@__crt_strtox@@YA_NAAUbig_integer@1@I@Z 100d6be0 f i libucrtd:cfout.obj
 0001:000d5ce0       ?multiply_64_32@__crt_strtox@@YA_K_KI@Z 100d6ce0 f i libucrtd:cfout.obj
 0001:000d5d00       ?multiply_by_power_of_ten@__crt_strtox@@YA_NAAUbig_integer@1@I@Z 100d6d00 f i libucrtd:cfout.obj
 0001:000d5f00       ?multiply_core@__crt_strtox@@YAIQAIII@Z 100d6f00 f i libucrtd:cfout.obj
 0001:000d5f80       ?shift_left@__crt_strtox@@YA_NAAUbig_integer@1@I@Z 100d6f80 f i libucrtd:cfout.obj
 0001:000d63a0       ___acrt_fltout             100d73a0 f   libucrtd:cfout.obj
 0001:000d7140       ___acrt_stdio_flush_and_write_narrow_nolock 100d8140 f   libucrtd:_flsbuf.obj
 0001:000d7170       ___acrt_stdio_flush_and_write_wide_nolock 100d8170 f   libucrtd:_flsbuf.obj
 0001:000d71a0       __fcloseall                100d81a0 f   libucrtd:closeall.obj
 0001:000d7320       ?has_crt_buffer@__crt_stdio_stream@@QBE_NXZ 100d8320 f i libucrtd:_freebuf.obj
 0001:000d7340       ___acrt_stdio_free_buffer_nolock 100d8340 f   libucrtd:_freebuf.obj
 0001:000d7420       __set_error_mode           100d8420 f   libucrtd:set_error_mode.obj
 0001:000d7510       __d_int                    100d8510 f   libucrtd:_test.obj
 0001:000d7860       __dtest                    100d8860 f   libucrtd:_test.obj
 0001:000d79c0       __fd_int                   100d89c0 f   libucrtd:_test.obj
 0001:000d7c10       __fdtest                   100d8c10 f   libucrtd:_test.obj
 0001:000d7d10       __fperrraise               100d8d10 f   libucrtd:_test.obj
 0001:000d7d50       __ld_int                   100d8d50 f   libucrtd:_test.obj
 0001:000d7d70       __ldtest                   100d8d70 f   libucrtd:_test.obj
 0001:000d8080       ___acrt_GetLocaleInfoA     100d9080 f   libucrtd:getlocaleinfoa.obj
 0001:000d8520       __wcsicmp                  100d9520 f   libucrtd:wcsicmp.obj
 0001:000d8760       __wcsicmp_l                100d9760 f   libucrtd:wcsicmp.obj
 0001:000d8a60       __wcsnicmp                 100d9a60 f   libucrtd:wcsnicmp.obj
 0001:000d8cd0       __wcsnicmp_l               100d9cd0 f   libucrtd:wcsnicmp.obj
 0001:000d8fd0       ___strncnt                 100d9fd0 f   libucrtd:strncnt.obj
 0001:000d9030       ___acrt_CompareStringW     100da030 f   libucrtd:comparestringw.obj
 0001:000d9100       __strnicmp                 100da100 f   libucrtd:strnicmp.obj
 0001:000d9340       __strnicmp_l               100da340 f   libucrtd:strnicmp.obj
 0001:000d9c20       ___acrt_CompareStringA     100dac20 f   libucrtd:comparestringa.obj
 0001:000d9c90       ??$?RV<lambda_a7d5e04a8e766f2a135287cf7b01dfe7>@@AAV<lambda_e9ab68cc08dfd839979545c079379e6e>@@V<lambda_14e08a59e78d15c51edeee53d25fb3be>@@@?$__crt_seh_guarded_call@H@@QAEH$$QAV<lambda_a7d5e04a8e766f2a135287cf7b01dfe7>@@AAV<lambda_e9ab68cc08dfd839979545c079379e6e>@@$$QAV<lambda_14e08a59e78d15c51edeee53d25fb3be>@@@Z 100dac90 f i libucrtd:commit.obj
 0001:000d9d40       ??$__acrt_lowio_lock_fh_and_call@V<lambda_e9ab68cc08dfd839979545c079379e6e>@@@@YAHH$$QAV<lambda_e9ab68cc08dfd839979545c079379e6e>@@@Z 100dad40 f i libucrtd:commit.obj
 0001:000d9f30       __commit                   100daf30 f   libucrtd:commit.obj
 0001:000db150       __write                    100dc150 f   libucrtd:write.obj
 0001:000db430       __write_nolock             100dc430 f   libucrtd:write.obj
 0001:000db990       _log10                     100dc990 f   libucrtd:log10.obj
 0001:000db9d0       __CIlog10                  100dc9d0 f   libucrtd:log10.obj
 0001:000dba0b       __CIlog10_default          100dca0b f   libucrtd:log10.obj
 0001:000dba1f       __log10_default            100dca1f     libucrtd:log10.obj
 0001:000dbb40       _ceil                      100dcb40 f   libucrtd:ceil_pentium4.obj
 0001:000dbb80       __ceil_pentium4            100dcb80 f   libucrtd:ceil_pentium4.obj
 0001:000dbcb0       _fegetenv                  100dccb0 f   libucrtd:fegetenv.obj
 0001:000dbce0       _fesetenv                  100dcce0 f   libucrtd:fesetenv.obj
 0001:000dbd60       _feholdexcept              100dcd60 f   libucrtd:feholdexcept.obj
 0001:000dc720       __lseek                    100dd720 f   libucrtd:lseek.obj
 0001:000dc750       __lseek_nolock             100dd750 f   libucrtd:lseek.obj
 0001:000dc780       __lseeki64                 100dd780 f   libucrtd:lseek.obj
 0001:000dc7b0       __lseeki64_nolock          100dd7b0 f   libucrtd:lseek.obj
 0001:000dc7e0       ___acrt_stdio_allocate_buffer_nolock 100dd7e0 f   libucrtd:_getbuf.obj
 0001:000dc940       __fclose_nolock            100dd940 f   libucrtd:fclose.obj
 0001:000dcad0       _fclose                    100ddad0 f   libucrtd:fclose.obj
 0001:000dcc70       _fegetexceptflag           100ddc70 f   libucrtd:fegetexceptflag.obj
 0001:000dccd0       _fesetexceptflag           100ddcd0 f   libucrtd:fesetexceptflag.obj
 0001:000dcd70       ___acrt_fenv_get_fp_status_word_from_exception_mask 100ddd70 f   libucrtd:_fenvutils.obj
 0001:000dd4f0       __getfpcontrolword         100de4f0 f   libucrtd:_fenvutils.obj
 0001:000dd560       __getfpstatusword          100de560 f   libucrtd:_fenvutils.obj
 0001:000dd5d0       __setfpcontrolword         100de5d0 f   libucrtd:_fenvutils.obj
 0001:000dd6c0       __setfpstatusword          100de6c0 f   libucrtd:_fenvutils.obj
 0001:000dd7b0       __towlower_l               100de7b0 f   libucrtd:towlower.obj
 0001:000dd950       _towlower                  100de950 f   libucrtd:towlower.obj
 0001:000dd970       ___ascii_strnicmp          100de970 f   libucrtd:_strnicm.obj
 0001:000dd9e9       ??$?RV<lambda_4980db0136e49a56f91ef52c46ca659a>@@AAV<lambda_6e3e78bb6855d1e4040e022c1b427e22>@@V<lambda_9c074eaf62197b4fd0274ed9e7824161>@@@?$__crt_seh_guarded_call@G@@QAEG$$QAV<lambda_4980db0136e49a56f91ef52c46ca659a>@@AAV<lambda_6e3e78bb6855d1e4040e022c1b427e22>@@$$QAV<lambda_9c074eaf62197b4fd0274ed9e7824161>@@@Z 100de9e9 f i libucrtd:putwch.obj
 0001:000dda5e       ??$__acrt_lock_and_call@V<lambda_6e3e78bb6855d1e4040e022c1b427e22>@@@@YAGW4__acrt_lock_id@@$$QAV<lambda_6e3e78bb6855d1e4040e022c1b427e22>@@@Z 100dea5e f i libucrtd:putwch.obj
 0001:000ddaf6       __putwch                   100deaf6 f   libucrtd:putwch.obj
 0001:000ddb1a       __putwch_nolock            100deb1a f   libucrtd:putwch.obj
 0001:000ddb70       __CIlog10_pentium4         100deb70 f   libucrtd:log10_pentium4.obj
 0001:000ddb88       __log10_pentium4           100deb88     libucrtd:log10_pentium4.obj
 0001:000ddeb0       __ceil_default             100deeb0 f   libucrtd:ceil.obj
 0001:000de2a0       ___control87_2             100df2a0 f   libucrtd:ieee87.obj
 0001:000de410       ___fpreset_sse2            100df410 f   libucrtd:ieee87.obj
 0001:000de860       __clearfp                  100df860 f   libucrtd:ieee87.obj
 0001:000de8c0       __control87                100df8c0 f   libucrtd:ieee87.obj
 0001:000de9a0       __controlfp                100df9a0 f   libucrtd:ieee87.obj
 0001:000de9d0       __fpreset                  100df9d0 f   libucrtd:ieee87.obj
 0001:000dec00       __set_controlfp            100dfc00 f   libucrtd:ieee87.obj
 0001:000decb0       __statusfp                 100dfcb0 f   libucrtd:ieee87.obj
 0001:000ded10       __statusfp2                100dfd10 f   libucrtd:ieee87.obj
 0001:000ded60       ??$?RV<lambda_4d8dda1ac129e11742d77ae5e3bbda74>@@AAV<lambda_a8f98972ebaa5f7148d35bffe53bd70d>@@V<lambda_5193b64c98d743723bd5dcf162a72339>@@@?$__crt_seh_guarded_call@H@@QAEH$$QAV<lambda_4d8dda1ac129e11742d77ae5e3bbda74>@@AAV<lambda_a8f98972ebaa5f7148d35bffe53bd70d>@@$$QAV<lambda_5193b64c98d743723bd5dcf162a72339>@@@Z 100dfd60 f i libucrtd:close.obj
 0001:000dee10       ??$__acrt_lowio_lock_fh_and_call@V<lambda_a8f98972ebaa5f7148d35bffe53bd70d>@@@@YAHH$$QAV<lambda_a8f98972ebaa5f7148d35bffe53bd70d>@@@Z 100dfe10 f i libucrtd:close.obj
 0001:000df0d0       __close                    100e00d0 f   libucrtd:close.obj
 0001:000df2a0       __close_nolock             100e02a0 f   libucrtd:close.obj
 0001:000df310       ??$?RU__crt_stdio_stream_data@@@__crt_internal_free_policy@@QBEXQBU__crt_stdio_stream_data@@@Z 100e0310 f i libucrtd:stream.obj
 0001:000df340       ??0?$__crt_unique_heap_ptr@U__crt_stdio_stream_data@@U__crt_internal_free_policy@@@@QAE@QAU__crt_stdio_stream_data@@@Z 100e0340 f i libucrtd:stream.obj
 0001:000df360       ??0__crt_stdio_stream@@QAE@XZ 100e0360 f i libucrtd:stream.obj
 0001:000df380       ??1?$__crt_unique_heap_ptr@U__crt_stdio_stream_data@@U__crt_internal_free_policy@@@@QAE@XZ 100e0380 f i libucrtd:stream.obj
 0001:000df3a0       ?__acrt_stdio_allocate_stream@@YA?AV__crt_stdio_stream@@XZ 100e03a0 f   libucrtd:stream.obj
 0001:000df4d0       ?__acrt_stdio_free_stream@@YAXV__crt_stdio_stream@@@Z 100e04d0 f   libucrtd:stream.obj
 0001:000df570       ?deallocate@__crt_stdio_stream@@QAEXXZ 100e0570 f i libucrtd:stream.obj
 0001:000df590       ?detach@?$__crt_unique_heap_ptr@U__crt_stdio_stream_data@@U__crt_internal_free_policy@@@@QAEPAU__crt_stdio_stream_data@@XZ 100e0590 f i libucrtd:stream.obj
 0001:000df750       ?lock@__crt_stdio_stream@@QBEXXZ 100e0750 f i libucrtd:stream.obj
 0001:000df780       ?release@?$__crt_unique_heap_ptr@U__crt_stdio_stream_data@@U__crt_internal_free_policy@@@@QAEXXZ 100e0780 f i libucrtd:stream.obj
 0001:000df7c0       ?try_allocate@__crt_stdio_stream@@QAE_NXZ 100e07c0 f i libucrtd:stream.obj
 0001:000df820       ?unlock@__crt_stdio_stream@@QBEXXZ 100e0820 f i libucrtd:stream.obj
 0001:000df850       _fetestexcept              100e0850 f   libucrtd:fetestexcept.obj
 0001:000df880       ___acrt_LCMapStringW       100e0880 f   libucrtd:lcmapstringw.obj
 0001:000df8f6       ___dcrt_lowio_initialize_console_output 100e08f6 f   libucrtd:initcon.obj
 0001:000df91c       ___dcrt_terminate_console_output 100e091c f   libucrtd:initcon.obj
 0001:000df940       __controlfp_s              100e0940 f   libucrtd:contrlfp.obj
 0001:000dfa5e       _RaiseException@16         100e0a5e f   kernel32:KERNEL32.dll
 0001:000dfa64       _GetLastError@0            100e0a64 f   kernel32:KERNEL32.dll
 0001:000dfa6a       _GetSystemInfo@4           100e0a6a f   kernel32:KERNEL32.dll
 0001:000dfa70       _VirtualProtect@16         100e0a70 f   kernel32:KERNEL32.dll
 0001:000dfa76       _VirtualQuery@12           100e0a76 f   kernel32:KERNEL32.dll
 0001:000dfa7c       _FreeLibrary@4             100e0a7c f   kernel32:KERNEL32.dll
 0001:000dfa82       _GetModuleHandleW@4        100e0a82 f   kernel32:KERNEL32.dll
 0001:000dfa88       _GetProcAddress@8          100e0a88 f   kernel32:KERNEL32.dll
 0001:000dfa8e       _LoadLibraryExA@12         100e0a8e f   kernel32:KERNEL32.dll
 0001:000dfa94       _InitializeSListHead@4     100e0a94 f   kernel32:KERNEL32.dll
 0001:000dfa9a       _QueryPerformanceCounter@4 100e0a9a f   kernel32:KERNEL32.dll
 0001:000dfaa0       _GetCurrentProcessId@0     100e0aa0 f   kernel32:KERNEL32.dll
 0001:000dfaa6       _GetCurrentThreadId@0      100e0aa6 f   kernel32:KERNEL32.dll
 0001:000dfaac       _GetSystemTimeAsFileTime@4 100e0aac f   kernel32:KERNEL32.dll
 0001:000dfab2       _IsDebuggerPresent@0       100e0ab2 f   kernel32:KERNEL32.dll
 0001:000dfab8       _UnhandledExceptionFilter@4 100e0ab8 f   kernel32:KERNEL32.dll
 0001:000dfabe       _SetUnhandledExceptionFilter@4 100e0abe f   kernel32:KERNEL32.dll
 0001:000dfac4       _GetStartupInfoW@4         100e0ac4 f   kernel32:KERNEL32.dll
 0001:000dfaca       _IsProcessorFeaturePresent@4 100e0aca f   kernel32:KERNEL32.dll
 0001:000dfad0       _GetCurrentProcess@0       100e0ad0 f   kernel32:KERNEL32.dll
 0001:000dfad6       _TerminateProcess@8        100e0ad6 f   kernel32:KERNEL32.dll
 0001:000dfadc       _MultiByteToWideChar@24    100e0adc f   kernel32:KERNEL32.dll
 0001:000dfae2       _WideCharToMultiByte@32    100e0ae2 f   kernel32:KERNEL32.dll
 0001:000dfae8       _HeapAlloc@12              100e0ae8 f   kernel32:KERNEL32.dll
 0001:000dfaee       _HeapFree@12               100e0aee f   kernel32:KERNEL32.dll
 0001:000dfaf4       _GetProcessHeap@0          100e0af4 f   kernel32:KERNEL32.dll
 0001:000dfafa       _InterlockedPushEntrySList@8 100e0afa f   kernel32:KERNEL32.dll
 0001:000dfb00       _InterlockedFlushSList@4   100e0b00 f   kernel32:KERNEL32.dll
 0001:000dfb06       _GetModuleFileNameW@12     100e0b06 f   kernel32:KERNEL32.dll
 0001:000dfb0c       _LoadLibraryExW@12         100e0b0c f   kernel32:KERNEL32.dll
 0001:000dfb12       _RtlUnwind@16              100e0b12 f   kernel32:KERNEL32.dll
 0001:000dfb18       _SetLastError@4            100e0b18 f   kernel32:KERNEL32.dll
 0001:000dfb1e       _EnterCriticalSection@4    100e0b1e f   kernel32:KERNEL32.dll
 0001:000dfb24       _LeaveCriticalSection@4    100e0b24 f   kernel32:KERNEL32.dll
 0001:000dfb2a       _DeleteCriticalSection@4   100e0b2a f   kernel32:KERNEL32.dll
 0001:000dfb30       _InitializeCriticalSectionAndSpinCount@8 100e0b30 f   kernel32:KERNEL32.dll
 0001:000dfb36       _TlsAlloc@0                100e0b36 f   kernel32:KERNEL32.dll
 0001:000dfb3c       _TlsGetValue@4             100e0b3c f   kernel32:KERNEL32.dll
 0001:000dfb42       _TlsSetValue@8             100e0b42 f   kernel32:KERNEL32.dll
 0001:000dfb48       _TlsFree@4                 100e0b48 f   kernel32:KERNEL32.dll
 0001:000dfb4e       _GetModuleFileNameA@12     100e0b4e f   kernel32:KERNEL32.dll
 0001:000dfb54       _GetModuleHandleExW@12     100e0b54 f   kernel32:KERNEL32.dll
 0001:000dfb5a       _HeapValidate@12           100e0b5a f   kernel32:KERNEL32.dll
 0001:000dfb60       _ExitProcess@4             100e0b60 f   kernel32:KERNEL32.dll
 0001:000dfb66       _EncodePointer@4           100e0b66 f   kernel32:KERNEL32.dll
 0001:000dfb6c       _DecodePointer@4           100e0b6c f   kernel32:KERNEL32.dll
 0001:000dfb72       _GetStdHandle@4            100e0b72 f   kernel32:KERNEL32.dll
 0001:000dfb78       _GetFileType@4             100e0b78 f   kernel32:KERNEL32.dll
 0001:000dfb7e       _WriteFile@20              100e0b7e f   kernel32:KERNEL32.dll
 0001:000dfb84       _OutputDebugStringA@4      100e0b84 f   kernel32:KERNEL32.dll
 0001:000dfb8a       _OutputDebugStringW@4      100e0b8a f   kernel32:KERNEL32.dll
 0001:000dfb90       _WriteConsoleW@20          100e0b90 f   kernel32:KERNEL32.dll
 0001:000dfb96       _CloseHandle@4             100e0b96 f   kernel32:KERNEL32.dll
 0001:000dfb9c       _WaitForSingleObjectEx@12  100e0b9c f   kernel32:KERNEL32.dll
 0001:000dfba2       _CreateThread@24           100e0ba2 f   kernel32:KERNEL32.dll
 0001:000dfba8       _SetConsoleCtrlHandler@8   100e0ba8 f   kernel32:KERNEL32.dll
 0001:000dfbae       _HeapReAlloc@16            100e0bae f   kernel32:KERNEL32.dll
 0001:000dfbb4       _GetCurrentThread@0        100e0bb4 f   kernel32:KERNEL32.dll
 0001:000dfbba       _HeapSize@12               100e0bba f   kernel32:KERNEL32.dll
 0001:000dfbc0       _HeapQueryInformation@20   100e0bc0 f   kernel32:KERNEL32.dll
 0001:000dfbc6       _GetACP@0                  100e0bc6 f   kernel32:KERNEL32.dll
 0001:000dfbcc       _GetDateFormatW@24         100e0bcc f   kernel32:KERNEL32.dll
 0001:000dfbd2       _GetTimeFormatW@24         100e0bd2 f   kernel32:KERNEL32.dll
 0001:000dfbd8       _CompareStringW@24         100e0bd8 f   kernel32:KERNEL32.dll
 0001:000dfbde       _LCMapStringW@24           100e0bde f   kernel32:KERNEL32.dll
 0001:000dfbe4       _GetLocaleInfoW@16         100e0be4 f   kernel32:KERNEL32.dll
 0001:000dfbea       _IsValidLocale@8           100e0bea f   kernel32:KERNEL32.dll
 0001:000dfbf0       _GetUserDefaultLCID@0      100e0bf0 f   kernel32:KERNEL32.dll
 0001:000dfbf6       _EnumSystemLocalesW@8      100e0bf6 f   kernel32:KERNEL32.dll
 0001:000dfbfc       _FindClose@4               100e0bfc f   kernel32:KERNEL32.dll
 0001:000dfc02       _FindFirstFileExA@24       100e0c02 f   kernel32:KERNEL32.dll
 0001:000dfc08       _FindFirstFileExW@24       100e0c08 f   kernel32:KERNEL32.dll
 0001:000dfc0e       _FindNextFileA@8           100e0c0e f   kernel32:KERNEL32.dll
 0001:000dfc14       _FindNextFileW@8           100e0c14 f   kernel32:KERNEL32.dll
 0001:000dfc1a       _IsValidCodePage@4         100e0c1a f   kernel32:KERNEL32.dll
 0001:000dfc20       _GetOEMCP@0                100e0c20 f   kernel32:KERNEL32.dll
 0001:000dfc26       _GetCPInfo@8               100e0c26 f   kernel32:KERNEL32.dll
 0001:000dfc2c       _GetCommandLineA@0         100e0c2c f   kernel32:KERNEL32.dll
 0001:000dfc32       _GetCommandLineW@0         100e0c32 f   kernel32:KERNEL32.dll
 0001:000dfc38       _GetEnvironmentStringsW@0  100e0c38 f   kernel32:KERNEL32.dll
 0001:000dfc3e       _FreeEnvironmentStringsW@4 100e0c3e f   kernel32:KERNEL32.dll
 0001:000dfc44       _SetEnvironmentVariableA@8 100e0c44 f   kernel32:KERNEL32.dll
 0001:000dfc4a       _SetEnvironmentVariableW@8 100e0c4a f   kernel32:KERNEL32.dll
 0001:000dfc50       _GetStringTypeW@16         100e0c50 f   kernel32:KERNEL32.dll
 0001:000dfc56       _SetStdHandle@8            100e0c56 f   kernel32:KERNEL32.dll
 0001:000dfc5c       _FlushFileBuffers@4        100e0c5c f   kernel32:KERNEL32.dll
 0001:000dfc62       _GetConsoleCP@0            100e0c62 f   kernel32:KERNEL32.dll
 0001:000dfc68       _GetConsoleMode@8          100e0c68 f   kernel32:KERNEL32.dll
 0001:000dfc6e       _SetFilePointerEx@20       100e0c6e f   kernel32:KERNEL32.dll
 0001:000dfc74       _CreateFileW@28            100e0c74 f   kernel32:KERNEL32.dll
 0001:000dfc80       __FindPESection            100e0c80 f   LIBCMTD:pesect.obj
 0001:000dfd10       __IsNonwritableInCurrentImage 100e0d10 f   LIBCMTD:pesect.obj
 0001:000dfe90       __ValidateImageBase        100e0e90 f   LIBCMTD:pesect.obj
 0001:000dff10       __allshl                   100e0f10 f   LIBCMTD:llshl.obj
 0001:000dff40       __aulldiv                  100e0f40 f   LIBCMTD:ulldiv.obj
 0001:000dffd0       __aullrem                  100e0fd0 f   LIBCMTD:ullrem.obj
 0001:000e0070       __allmul                   100e1070 f   LIBCMTD:llmul.obj
 0001:000e00c0       __alldiv                   100e10c0 f   LIBCMTD:lldiv.obj
 0001:000e01a0       __allrem                   100e11a0 f   LIBCMTD:llrem.obj
 0001:000e0280       __aullshr                  100e1280 f   LIBCMTD:ullshr.obj
 0001:000e02b0       __ftol2_sse                100e12b0 f   LIBCMTD:_ftol2_.obj
 0001:000e02b9       __ftol2_pentium4           100e12b9 f   LIBCMTD:_ftol2_.obj
 0001:000e02cc       __ftol2_sse_excpt          100e12cc f   LIBCMTD:_ftol2_.obj
 0001:000e02f0       __ftol2                    100e12f0 f   LIBCMTD:_ftol2_.obj
 0001:000e03a0       __SEH_prolog4              100e13a0 f   LIBCMTD:_sehprolg4_.obj
 0001:000e03e6       __SEH_epilog4              100e13e6 f   LIBCMTD:_sehprolg4_.obj
 0001:000e0420       __initialize_default_precision 100e1420 f   LIBCMTD:default_precision.obj
 0001:000e0450       _wcschr                    100e1450 f   libvcruntimed:wcschr.obj
 0001:000e0610       _strrchr                   100e1610 f   libvcruntimed:strrchr.obj
 0001:000e07a0       ?_CallCatchBlock2@@YAPAXPAUEHRegistrationNode@@PBU_s_FuncInfo@@PAXHK@Z 100e17a0 f   libvcruntimed:trnsctrl.obj
 0001:000e0830       ?_CallSETranslator@@YAHPAUEHExceptionRecord@@PAUEHRegistrationNode@@PAX2PBU_s_FuncInfo@@H1@Z 100e1830 f   libvcruntimed:trnsctrl.obj
 0001:000e0960       ?_GetRangeOfTrysToCheck@@YAPBU_s_TryBlockMapEntry@@PBU_s_FuncInfo@@HHPAI1@Z 100e1960 f   libvcruntimed:trnsctrl.obj
 0001:000e0a60       ?_JumpToContinuation@@YGXPAXPAUEHRegistrationNode@@@Z 100e1a60 f   libvcruntimed:trnsctrl.obj
 0001:000e0aa0       ?_UnwindNestedFrames@@YGXPAUEHRegistrationNode@@PAUEHExceptionRecord@@@Z 100e1aa0 f   libvcruntimed:trnsctrl.obj
 0001:000e0b10       __CatchGuardHandler        100e1b10 f   libvcruntimed:trnsctrl.obj
 0001:000e0b70       __CreateFrameInfo          100e1b70 f   libvcruntimed:trnsctrl.obj
 0001:000e0bb0       __FindAndUnlinkFrame       100e1bb0 f   libvcruntimed:trnsctrl.obj
 0001:000e0c40       __IsExceptionObjectToBeDestroyed 100e1c40 f   libvcruntimed:trnsctrl.obj
 0001:000e0c90       __TranslatorGuardHandler   100e1c90 f   libvcruntimed:trnsctrl.obj
 0001:000e0d70       ___CxxFrameHandler         100e1d70 f   libvcruntimed:trnsctrl.obj
 0001:000e0dc0       ___CxxFrameHandler2        100e1dc0 f   libvcruntimed:trnsctrl.obj
 0001:000e0e10       ___CxxFrameHandler3        100e1e10 f   libvcruntimed:trnsctrl.obj
 0001:000e0e60       ___CxxLongjmpUnwind@4      100e1e60 f   libvcruntimed:trnsctrl.obj
 0001:000e0eb0       __CallSettingFrame@12      100e1eb0 f   libvcruntimed:lowhelpr.obj
 0001:000e0ed7       __NLG_Return               100e1ed7     libvcruntimed:lowhelpr.obj
 0001:000e0f10       ___DestructExceptionObject 100e1f10 f   libvcruntimed:frame.obj
 0001:000e1090       ??0bad_exception@std@@QAE@ABV01@@Z 100e2090 f i libvcruntimed:frame.obj
 0001:000e10c0       ??0bad_exception@std@@QAE@XZ 100e20c0 f i libvcruntimed:frame.obj
 0001:000e10f0       ??1bad_exception@std@@UAE@XZ 100e20f0 f i libvcruntimed:frame.obj
 0001:000e1110       ??8type_info@@QBE_NABV0@@Z 100e2110 f i libvcruntimed:frame.obj
 0001:000e1160       ??_Gbad_exception@std@@UAEPAXI@Z 100e2160 f i libvcruntimed:frame.obj
 0001:000e1160       ??_Ebad_exception@std@@UAEPAXI@Z 100e2160 f i libvcruntimed:frame.obj
 0001:000e2030       ?_CallMemberFunction0@@YGXQAX0@Z 100e3030 f i libvcruntimed:frame.obj
 0001:000e2040       ?_CallMemberFunction1@@YGXQAX00@Z 100e3040 f i libvcruntimed:frame.obj
 0001:000e2050       ?_CallMemberFunction2@@YGXQAX00H@Z 100e3050 f i libvcruntimed:frame.obj
 0001:000e2060       ?_ValidateExecute@@YA_NP6GHXZ@Z 100e3060 f i libvcruntimed:frame.obj
 0001:000e2080       ?_ValidateRead@@YA_NPBXI@Z 100e3080 f i libvcruntimed:frame.obj
 0001:000e20a0       ?_ValidateWrite@@YA_NPAXI@Z 100e30a0 f i libvcruntimed:frame.obj
 0001:000e20c0       ?raw_name@type_info@@QBEPBDXZ 100e30c0 f i libvcruntimed:frame.obj
 0001:000e20e0       __SetWinRTOutOfMemoryExceptionCallback 100e30e0 f   libvcruntimed:frame.obj
 0001:000e20f0       ___AdjustPointer           100e30f0 f   libvcruntimed:frame.obj
 0001:000e2150       ___BuildCatchObject        100e3150 f   libvcruntimed:frame.obj
 0001:000e22a0       ___BuildCatchObjectHelper  100e32a0 f   libvcruntimed:frame.obj
 0001:000e2690       ___CxxDetectRethrow        100e3690 f   libvcruntimed:frame.obj
 0001:000e2730       ___CxxExceptionFilter      100e3730 f   libvcruntimed:frame.obj
 0001:000e29a0       ___CxxQueryExceptionSize   100e39a0 f   libvcruntimed:frame.obj
 0001:000e29b0       ___CxxRegisterExceptionObject 100e39b0 f   libvcruntimed:frame.obj
 0001:000e2b20       ___CxxUnregisterExceptionObject 100e3b20 f   libvcruntimed:frame.obj
 0001:000e2cd0       ___FrameUnwindFilter       100e3cd0 f   libvcruntimed:frame.obj
 0001:000e2d60       ___FrameUnwindToState      100e3d60 f   libvcruntimed:frame.obj
 0001:000e2f40       ___GetPlatformExceptionInfo 100e3f40 f   libvcruntimed:frame.obj
 0001:000e2fe0       ___InternalCxxFrameHandler 100e3fe0 f   libvcruntimed:frame.obj
 0001:000e31f0       ___TypeMatch               100e41f0 f   libvcruntimed:frame.obj
 0001:000e3300       ___current_exception       100e4300 f   libvcruntimed:frame.obj
 0001:000e3310       ___current_exception_context 100e4310 f   libvcruntimed:frame.obj
 0001:000e3320       ___processing_throw        100e4320 f   libvcruntimed:frame.obj
 0001:000e3330       ___std_terminate           100e4330 f   libvcruntimed:frame.obj
 0001:000e3340       ___uncaught_exception      100e4340 f   libvcruntimed:frame.obj
 0001:000e3370       ___uncaught_exceptions     100e4370 f   libvcruntimed:frame.obj
 0001:000e3380       __is_exception_typeof      100e4380 f   libvcruntimed:frame.obj
 0001:000e34c0       __get_unexpected           100e44c0 f   libvcruntimed:unexpected.obj
 0001:000e34e0       _set_unexpected            100e44e0 f   libvcruntimed:unexpected.obj
 0001:000e3520       _unexpected                100e4520 f   libvcruntimed:unexpected.obj
 0002:00000000       ___xc_a                    100e9000     LIBCMTD:initializers.obj
 0002:000002f8       ___xc_z                    100e92f8     LIBCMTD:initializers.obj
 0002:000003fc       ___xi_a                    100e93fc     LIBCMTD:initializers.obj
 0002:00000500       ___acrt_tran_sse2_initializer 100e9500     libucrtd:sse2_initializer.obj
 0002:00000504       ___acrt_multibyte_initializer 100e9504     libucrtd:multibyte_initializer.obj
 0002:00000508       ___acrt_stdio_initializer  100e9508     libucrtd:stdio_initializer.obj
 0002:00000610       ___xi_z                    100e9610     LIBCMTD:initializers.obj
 0002:00000714       ___xp_a                    100e9714     LIBCMTD:initializers.obj
 0002:00000818       ___acrt_locale_terminator  100e9818     libucrtd:locale_initializer.obj
 0002:0000081c       ___dcrt_console_output_terminator 100e981c     libucrtd:console_output_initializer.obj
 0002:00000924       ___acrt_stdio_terminator   100e9924     libucrtd:stdio_initializer.obj
 0002:00000a28       ___xp_z                    100e9a28     LIBCMTD:initializers.obj
 0002:00000b2c       ___xt_a                    100e9b2c     LIBCMTD:initializers.obj
 0002:00000c30       ___xt_z                    100e9c30     LIBCMTD:initializers.obj
 0002:00000d40       ??_C@_0N@PENLEBPP@PxFoundation?$AA@ 100e9d40     WindowsCookingDelayLoadHook.obj
 0002:00000d50       ??_C@_05KOLFGEDA@DEBUG?$AA@ 100e9d50     WindowsCookingDelayLoadHook.obj
 0002:00000d58       ??_C@_07KELMHNNG@CHECKED?$AA@ 100e9d58     WindowsCookingDelayLoadHook.obj
 0002:00000d64       ??_C@_07EAJOOGMN@PROFILE?$AA@ 100e9d64     WindowsCookingDelayLoadHook.obj
 0002:00000d70       ??_C@_0N@BBNMPFJK@PhysX3Common?$AA@ 100e9d70     WindowsCookingDelayLoadHook.obj
 0002:00000d80       ??_C@_08DLKLOFHK@PxPvdSDK?$AA@ 100e9d80     WindowsCookingDelayLoadHook.obj
 0002:00000d90       ??_C@_0EC@IGBCLCKJ@I?3?2_DAE?2References?2PhysX?53?44?2PxS@ 100e9d90     HeightFieldCooking.obj
 0002:00000de0       ??_C@_0L@ICMNFAAK@index?5?$DM?$DN?52?$AA@ 100e9de0     HeightFieldCooking.obj
 0002:00000df0       ?g_PXSinCoefficients0@aos@shdfnd@physx@@3UPX_VECTORF32@123@B 100e9df0     RTreeCooking.obj
 0002:00000e10       ?g_PXSinCoefficients1@aos@shdfnd@physx@@3UPX_VECTORF32@123@B 100e9e10     RTreeCooking.obj
 0002:00000e30       ?g_PXSinCoefficients2@aos@shdfnd@physx@@3UPX_VECTORF32@123@B 100e9e30     RTreeCooking.obj
 0002:00000e50       ?g_PXCosCoefficients0@aos@shdfnd@physx@@3UPX_VECTORF32@123@B 100e9e50     RTreeCooking.obj
 0002:00000e70       ?g_PXCosCoefficients1@aos@shdfnd@physx@@3UPX_VECTORF32@123@B 100e9e70     RTreeCooking.obj
 0002:00000e90       ?g_PXCosCoefficients2@aos@shdfnd@physx@@3UPX_VECTORF32@123@B 100e9e90     RTreeCooking.obj
 0002:00000eb0       ?g_PXTanCoefficients0@aos@shdfnd@physx@@3UPX_VECTORF32@123@B 100e9eb0     RTreeCooking.obj
 0002:00000ed0       ?g_PXTanCoefficients1@aos@shdfnd@physx@@3UPX_VECTORF32@123@B 100e9ed0     RTreeCooking.obj
 0002:00000ef0       ?g_PXTanCoefficients2@aos@shdfnd@physx@@3UPX_VECTORF32@123@B 100e9ef0     RTreeCooking.obj
 0002:00000f88       ?stopAtTrisPerLeaf1@SubSortQuick@physx@@2QBIB 100e9f88     RTreeCooking.obj
 0002:00000fd0       ?reductionFactors@SubSortQuick@physx@@2QBMB 100e9fd0     RTreeCooking.obj
 0002:00001010       ?g_PXASinCoefficients0@aos@shdfnd@physx@@3UPX_VECTORF32@123@B 100ea010     RTreeCooking.obj
 0002:00001030       ?g_PXASinCoefficients1@aos@shdfnd@physx@@3UPX_VECTORF32@123@B 100ea030     RTreeCooking.obj
 0002:00001050       ?g_PXASinCoefficients2@aos@shdfnd@physx@@3UPX_VECTORF32@123@B 100ea050     RTreeCooking.obj
 0002:00001070       ?g_PXATanCoefficients0@aos@shdfnd@physx@@3UPX_VECTORF32@123@B 100ea070     RTreeCooking.obj
 0002:00001090       ?g_PXATanCoefficients1@aos@shdfnd@physx@@3UPX_VECTORF32@123@B 100ea090     RTreeCooking.obj
 0002:000010b0       ?g_PXATanCoefficients2@aos@shdfnd@physx@@3UPX_VECTORF32@123@B 100ea0b0     RTreeCooking.obj
 0002:000010d0       ?g_PXSinEstCoefficients@aos@shdfnd@physx@@3UPX_VECTORF32@123@B 100ea0d0     RTreeCooking.obj
 0002:000010f0       ?g_PXCosEstCoefficients@aos@shdfnd@physx@@3UPX_VECTORF32@123@B 100ea0f0     RTreeCooking.obj
 0002:00001110       ?g_PXTanEstCoefficients@aos@shdfnd@physx@@3UPX_VECTORF32@123@B 100ea110     RTreeCooking.obj
 0002:00001130       ?g_PXATanEstCoefficients@aos@shdfnd@physx@@3UPX_VECTORF32@123@B 100ea130     RTreeCooking.obj
 0002:00001150       ?g_PXASinEstCoefficients@aos@shdfnd@physx@@3UPX_VECTORF32@123@B 100ea150     RTreeCooking.obj
 0002:00001170       ?g_PXASinEstConstants@aos@shdfnd@physx@@3UPX_VECTORF32@123@B 100ea170     RTreeCooking.obj
 0002:00001190       ?g_PXPiConstants0@aos@shdfnd@physx@@3UPX_VECTORF32@123@B 100ea190     RTreeCooking.obj
 0002:000011b0       ?g_PXReciprocalTwoPi@aos@shdfnd@physx@@3UPX_VECTORF32@123@B 100ea1b0     RTreeCooking.obj
 0002:000011d0       ?g_PXTwoPi@aos@shdfnd@physx@@3UPX_VECTORF32@123@B 100ea1d0     RTreeCooking.obj
 0002:000011e8       ??_C@_0EF@HEMEJCFP@I?3?2_DAE?2References?2PhysX?53?44?2PxS@ 100ea1e8     RTreeCooking.obj
 0002:0000123c       ??_C@_0BL@KNHPBBHJ@isValid?$CI?$CJ?5?$CG?$CG?5box?4isValid?$CI?$CJ?$AA@ 100ea23c     RTreeCooking.obj
 0002:0000125c       ??_C@_0BA@DLCJDKDM@NonTrackedAlloc?$AA@ 100ea25c     RTreeCooking.obj
 0002:00001270       ??_C@_0FK@GKKNCCGJ@i?3?2_dae?2references?2physx?53?44?2pxs@ 100ea270     RTreeCooking.obj
 0002:000012dc       ??_C@_0BB@OMCPGIOD@isValidFloatV?$CIa?$CJ?$AA@ 100ea2dc     RTreeCooking.obj
 0002:000012f0       ??_C@_0BH@MCAIKHPH@isAligned16?$CI?$CIvoid?$CK?$CJ?$CGf?$CJ?$AA@ 100ea2f0     RTreeCooking.obj
 0002:0000130c       ??_C@_0BG@JKJBBGNK@isAligned16?$CI?$CIvoid?$CK?$CJf?$CJ?$AA@ 100ea30c     RTreeCooking.obj
 0002:00001328       ??_C@_0BB@OJGAHOGG@isValidFloatV?$CIf?$CJ?$AA@ 100ea328     RTreeCooking.obj
 0002:0000133c       ??_C@_0BA@EMELBPPG@isValidVec3V?$CIa?$CJ?$AA@ 100ea33c     RTreeCooking.obj
 0002:00001350       ??_C@_0BA@EOANKBKP@isValidVec3V?$CIb?$CJ?$AA@ 100ea350     RTreeCooking.obj
 0002:00001364       ??_C@_0CN@HEFMNGKD@?4?4?2?4?4?2PhysXCooking?2src?2mesh?2RTre@ 100ea364     RTreeCooking.obj
 0002:0000139c       ??_C@_0DP@MOLEKNBA@Input?5mesh?5triangle?8s?5vertex?5ind@ 100ea39c     RTreeCooking.obj
 0002:000013e8       ??_C@_0CE@OPCEFGPD@permute?5?$CL?5clusterSize?5?$DM?$DN?5permute@ 100ea3e8     RTreeCooking.obj
 0002:00001414       ??_C@_0CC@IFBCLGG@maxBoundsPerLeafPage?5?$DO?$DN?5RTREE_N?9@ 100ea414     RTreeCooking.obj
 0002:0000143c       ??_C@_0BA@DLODHOME@clusterSize?5?$DO?50?$AA@ 100ea43c     RTreeCooking.obj
 0002:00001450       ??_C@_0CB@HNMOHOIM@permute?$FL0?$FN?5?$DM?5boundCenters?4size?$CI?$CJ@ 100ea450     RTreeCooking.obj
 0002:00001478       ??_C@_0CB@BHHEMBKC@permute?$FLi?$FN?5?$DM?5boundCenters?4size?$CI?$CJ@ 100ea478     RTreeCooking.obj
 0002:000014a0       ??_C@_0DE@FNPGHHHI@leftover?5?$DN?$DN?50?5?$HM?$HM?5cluster4?$CKi?5?$CL?5co@ 100ea4a0     RTreeCooking.obj
 0002:000014e0       ??_C@_0CP@DKNKGHIK@splitEndL?9splitStartL?5?$DN?$DN?5splitSt@ 100ea4e0     RTreeCooking.obj
 0002:00001518       ??_C@_0BJ@DBNEPNIE@splitStartL?5?$DM?$DN?5splitEndL?$AA@ 100ea518     RTreeCooking.obj
 0002:00001538       ??_C@_0BJ@CMNIPACK@splitStartR?5?$DO?$DN?5splitEndR?$AA@ 100ea538     RTreeCooking.obj
 0002:00001558       ??_C@_0P@FDBOEJDH@splitEndR?5?$DO?$DN?51?$AA@ 100ea558     RTreeCooking.obj
 0002:0000156c       ??_C@_0BP@OBBGEEJF@splitEndL?5?$DM?5PxI32?$CIclusterSize?$CJ?$AA@ 100ea56c     RTreeCooking.obj
 0002:00001598       ??_C@_0EE@HMDFAMJJ@?$CIcountL0?5?$DN?$DN?5countR0?$CJ?5?$CG?$CG?5?$CIcountL0@ 100ea598     RTreeCooking.obj
 0002:000015ec       ??_C@_0CG@HKJJBOBJ@PxU32?$CIcountL?5?$CL?5countR?$CJ?5?$DN?$DN?5cluste@ 100ea5ec     RTreeCooking.obj
 0002:0000161c       ??_C@_0BB@BLBBKHCG@split?4count?5?$DO?$DN?51?$AA@ 100ea61c     RTreeCooking.obj
 0002:00001630       ??_C@_0BH@CPBDCMGA@maxSplit?5?$CB?$DN?50xFFFFffff?$AA@ 100ea630     RTreeCooking.obj
 0002:0000164c       ??_C@_0O@KGFPNKLN@old?4count?5?$DO?51?$AA@ 100ea64c     RTreeCooking.obj
 0002:0000165c       ??_C@_0BA@MHFPJACL@splitLocal?5?$DO?$DN?51?$AA@ 100ea65c     RTreeCooking.obj
 0002:00001670       ??_C@_0BK@HBDDGBBB@old?4count?9splitLocal?5?$DO?$DN?51?$AA@ 100ea670     RTreeCooking.obj
 0002:00001690       ??_C@_0BJ@CFFGDPAB@splits?4size?$CI?$CJ?5?$DN?$DN?5RTREE_N?$AA@ 100ea690     RTreeCooking.obj
 0002:000016b0       ??_C@_0BD@CJCBODNJ@sum?5?$DN?$DN?5clusterSize?$AA@ 100ea6b0     RTreeCooking.obj
 0002:000016c8       ??_C@_0CB@OOGGJCCO@splitStarts?$FLj?91?$FN?$DM?$DNsplitStarts?$FLj?$FN@ 100ea6c8     RTreeCooking.obj
 0002:000016f0       ??_C@_0CM@MIFOAGPK@splitCounts?$FLj?$FN?5?$DO?50?5?$HM?$HM?5clusterSiz@ 100ea6f0     RTreeCooking.obj
 0002:00001724       ??_C@_0DC@FKLAKLHP@splitStarts?$FLj?91?$FN?$CLsplitCounts?$FLj?91@ 100ea724     RTreeCooking.obj
 0002:00001760       ??_C@_0BJ@KOIGDPK@sumCounts?5?$DN?$DN?5clusterSize?$AA@ 100ea760     RTreeCooking.obj
 0002:00001780       ??_C@_0DL@DKLKFAKJ@splitStarts?$FLRTREE_N?91?$FN?$CLsplitCoun@ 100ea780     RTreeCooking.obj
 0002:000017c8       ??_C@_0BB@EAGMBNDP@splitCount?5?$DM?$DN?516?$AA@ 100ea7c8     RTreeCooking.obj
 0002:000017dc       ??_C@_0BA@FINHNEIC@splitCount?5?$DN?$DN?50?$AA@ 100ea7dc     RTreeCooking.obj
 0002:000017f0       ??_C@_0DA@DMMOJMPK@hint?5?$DN?$DN?5PxMeshCookingHint?3?3eCOOK@ 100ea7f0     RTreeCooking.obj
 0002:0000182c       ??_C@_0BP@JDMAEMGC@permute?$FLnumBounds?$FN?5?$DN?$DN?5sentinel?$AA@ 100ea82c     RTreeCooking.obj
 0002:00001854       ??_C@_0BB@FMHDLFFI@?$CIq?4ptr?5?$CG?51?$CJ?5?$DN?$DN?50?$AA@ 100ea854     RTreeCooking.obj
 0002:00001868       ??_C@_0L@DLMKKOLK@q?4isLeaf?$CI?$CJ?$AA@ 100ea868     RTreeCooking.obj
 0002:00001878       ??_C@_0DJ@FPPKJOAC@child?4leafCount?5?$DN?$DN?5?91?5?$HM?$HM?5child?4b@ 100ea878     RTreeCooking.obj
 0002:000018bc       ??_C@_0BF@NIPNCMBP@q?4ptr?5?$CF?5RTREE_N?5?$DN?$DN?50?$AA@ 100ea8bc     RTreeCooking.obj
 0002:000018d8       ??_C@_0CB@PPFJJKOM@qtreeNodes?4size?$CI?$CJ?5?$CF?5RTREE_N?5?$DN?$DN?50@ 100ea8d8     RTreeCooking.obj
 0002:00001900       ??_C@_0CD@GGMNBOAH@result?4mTotalNodes?5?$CF?5pageSize?5?$DN?$DN@ 100ea900     RTreeCooking.obj
 0002:00001930       ??_C@_0EH@MDGGEGEG@I?3?2_DAE?2References?2PhysX?53?44?2PxS@ 100ea930     RTreeCooking.obj
 0002:00001988       ??_C@_09GCLCCGEM@i?5?$DM?5mSize?$AA@ 100ea988     RTreeCooking.obj
 0002:00001994       ??_C@_05ICCGDNCO@mSize?$AA@ 100ea994     RTreeCooking.obj
 0002:0000199c       ??_C@_0BM@BMFMDKFG@this?9?$DOcapacity?$CI?$CJ?5?$DM?5capacity?$AA@ 100ea99c     RTreeCooking.obj
 0002:000019c0       ??_C@_0CP@CPGGIPKL@?$CI?$CBcapacity?$CJ?5?$HM?$HM?5?$CInewData?5?$CG?$CG?5?$CInewD@ 100ea9c0     RTreeCooking.obj
 0002:000019f8       ??_C@_0FC@OOOEJAJB@i?3?2_dae?2references?2physx?53?44?2phy@ 100ea9f8     RTreeCooking.obj
 0002:00001a5c       ??_C@_0BC@IFJJKIC@k?5?$DM?$DN?5right?9left?$CL1?$AA@ 100eaa5c     RTreeCooking.obj
 0002:00001a74       ??_C@_0BC@KALADCPB@pivotNewIndex?5?$DO?50?$AA@ 100eaa74     RTreeCooking.obj
 0002:00001a8c       ??_C@_0CK@HLNPMLG@pivotIndex?5?$DO?$DN?5left?5?$CG?$CG?5pivotIndex@ 100eaa8c     RTreeCooking.obj
 0002:00001ac0       ??_C@_0BN@MBNGPAEL@cmpLtEq?$CIa?$FLi?$FN?0?5a?$FLstoreIndex?$FN?$CJ?$AA@ 100eaac0     RTreeCooking.obj
 0002:00001ae4       ??_C@_0BN@PDFALILH@cmpLtEq?$CIa?$FLstoreIndex?$FN?0?5a?$FLi?$FN?$CJ?$AA@ 100eaae4     RTreeCooking.obj
 0002:00001b08       ??_C@_0EG@MOLPOFCO@I?3?2_DAE?2References?2PhysX?53?44?2PxS@ 100eab08     RTreeCooking.obj
 0002:00001b5c       ??_C@_0CE@KHOCKGAK@first?5?$DO?$DN?50?5?$CG?$CG?5last?5?$DM?5int32_t?$CIcou@ 100eab5c     RTreeCooking.obj
 0002:00001b88       ??_C@_0CH@IDCBKFGC@?$CBcompare?$CIelements?$FLi?$FN?0?5elements?$FLi@ 100eab88     RTreeCooking.obj
 0002:00001bb8       ??_C@_0EP@HLPKJEOG@i?3?2_dae?2references?2physx?53?44?2pxs@ 100eabb8     RTreeCooking.obj
 0002:00001c18       ??_C@_08JNEJNCCA@?$CBempty?$CI?$CJ?$AA@ 100eac18     RTreeCooking.obj
 0002:00001c24       ??_C@_0BI@CKODGONH@i?5?$DM?$DN?5last?5?$CG?$CG?5j?5?$DO?$DN?5first?$AA@ 100eac24     RTreeCooking.obj
 0002:00001c40       ??_C@_0CB@GKHFJDAL@i?5?$DM?$DN?5last?5?$CG?$CG?5first?5?$DM?$DN?5?$CIlast?5?9?51?$CJ@ 100eac40     RTreeCooking.obj
 0002:00001c68       __real@00000000            100eac68     RTreeCooking.obj
 0002:00001c6c       __real@3a03126f            100eac6c     RTreeCooking.obj
 0002:00001c70       __real@3a83126f            100eac70     RTreeCooking.obj
 0002:00001c74       __real@3c23d70a            100eac74     RTreeCooking.obj
 0002:00001c78       __real@3f800000            100eac78     RTreeCooking.obj
 0002:00001c7c       __real@41100000            100eac7c     RTreeCooking.obj
 0002:00001c80       __real@41700000            100eac80     RTreeCooking.obj
 0002:00001c84       __real@42200000            100eac84     RTreeCooking.obj
 0002:00001c88       __real@477fff00            100eac88     RTreeCooking.obj
 0002:00001c8c       __real@7e7fffff            100eac8c     RTreeCooking.obj
 0002:00001c90       __real@7f7fffff            100eac90     RTreeCooking.obj
 0002:00001c94       __real@ba83126f            100eac94     RTreeCooking.obj
 0002:00001c98       __real@fe7fffff            100eac98     RTreeCooking.obj
 0002:00001c9c       __real@ff7fffff            100eac9c     RTreeCooking.obj
 0002:00001ca0       __xmm@41f00000000000000000000000000000 100eaca0     RTreeCooking.obj
 0002:00001ce8       ??_C@_0EL@CDKEKCKB@i?3?2_dae?2references?2physx?53?44?2phy@ 100eace8     TriangleMeshBuilder.obj
 0002:00001d44       ??_C@_0P@JLLGKKGO@nb?$DO0?5?$CG?$CG?5nb?$DM?$DN16?$AA@ 100ead44     TriangleMeshBuilder.obj
 0002:00001d58       ??_C@_0BA@IGNEICFC@index?5?$DM?5?$CI1?$DM?$DM27?$CJ?$AA@ 100ead58     TriangleMeshBuilder.obj
 0002:00001d6c       ??_7TriangleMeshData@Gu@physx@@6B@ 100ead6c     TriangleMeshBuilder.obj
 0002:00001d70       ??_C@_0EO@FPNPIOHB@I?3?2_DAE?2References?2PhysX?53?44?2Phy@ 100ead70     TriangleMeshBuilder.obj
 0002:00001dd0       ??_C@_0L@HCMLOHBN@?$CBmVertices?$AA@ 100eadd0     TriangleMeshBuilder.obj
 0002:00001de0       ??_C@_06KDGGGLIJ@PxVec3?$AA@ 100eade0     TriangleMeshBuilder.obj
 0002:00001de8       ??_C@_0M@OGEDMEAL@mNbVertices?$AA@ 100eade8     TriangleMeshBuilder.obj
 0002:00001df8       ??_C@_0M@DCCDOKKK@?$CBmTriangles?$AA@ 100eadf8     TriangleMeshBuilder.obj
 0002:00001e08       ??_C@_0L@KBOFAKLO@mTriangles?$AA@ 100eae08     TriangleMeshBuilder.obj
 0002:00001e18       ??_C@_0BA@OCOIGPII@mGRB_triIndices?$AA@ 100eae18     TriangleMeshBuilder.obj
 0002:00001e2c       ??_C@_0N@MGGDNHNI@mNbTriangles?$AA@ 100eae2c     TriangleMeshBuilder.obj
 0002:00001e3c       ??_C@_0BC@JJFONCPB@?$CBmMaterialIndices?$AA@ 100eae3c     TriangleMeshBuilder.obj
 0002:00001e54       ??_C@_0N@BIOECAPM@mAdjacencies?$AA@ 100eae54     TriangleMeshBuilder.obj
 0002:00001e64       ??_7RTreeTriangleData@Gu@physx@@6B@ 100eae64     TriangleMeshBuilder.obj
 0002:00001e68       ??_7BV4TriangleData@Gu@physx@@6B@ 100eae68     TriangleMeshBuilder.obj
 0002:00001e6c       ??_7RemapCallback@RTreeCooker@physx@@6B@ 100eae6c     TriangleMeshBuilder.obj
 0002:00001e78       ??_7TriangleMeshBuilder@physx@@6B@ 100eae78     TriangleMeshBuilder.obj
 0002:00001e90       ??_7RTreeTriangleMeshBuilder@physx@@6B@ 100eae90     TriangleMeshBuilder.obj
 0002:00001ea8       ??_7BV4TriangleMeshBuilder@physx@@6B@ 100eaea8     TriangleMeshBuilder.obj
 0002:00001ec0       ??_C@_0EL@LFOFABEN@I?3?2_DAE?2References?2PhysX?53?44?2PxS@ 100eaec0     TriangleMeshBuilder.obj
 0002:00001f1c       ??_C@_0BA@DPPPOJBK@value?5?$DM?$DN?50xffff?$AA@ 100eaf1c     TriangleMeshBuilder.obj
 0002:00001f30       ??_C@_0M@OJJHBOGG@edgeLookups?$AA@ 100eaf30     TriangleMeshBuilder.obj
 0002:00001f40       ??_C@_0FN@EHBKNDOK@i?3?2_dae?2references?2physx?53?44?2phy@ 100eaf40     TriangleMeshBuilder.obj
 0002:00001fb0       ??_C@_0BF@CCKBOJFO@Gu?3?3TriangleT?$DMPxU32?$DO?$AA@ 100eafb0     TriangleMeshBuilder.obj
 0002:00001fcc       ??_C@_0DE@NHIHKD@?4?4?2?4?4?2PhysXCooking?2src?2mesh?2Tria@ 100eafcc     TriangleMeshBuilder.obj
 0002:0000200c       ??_C@_0BN@CIBFOBD@mMeshData?4mFaceRemap?5?$DN?$DN?5NULL?$AA@ 100eb00c     TriangleMeshBuilder.obj
 0002:00002030       ??_C@_0DJ@IGODLHLP@TriangleMesh?3?5Enable?5mesh?5weldin@ 100eb030     TriangleMeshBuilder.obj
 0002:00002074       ??_C@_0DK@FCJMKOOB@?$CB?$CImMeshData?4mFlags?5?$CG?5PxTriangleM@ 100eb074     TriangleMeshBuilder.obj
 0002:000020bc       ??_C@_0CN@PJHOIFC@vref0?$CB?$DNvref1?5?$CG?$CG?5vref0?$CB?$DNvref2?5?$CG?$CG?5@ 100eb0bc     TriangleMeshBuilder.obj
 0002:000020f8       ??_C@_0FJ@HHJLKGDF@TriangleMesh?3?5triangles?5are?5too?5@ 100eb0f8     TriangleMeshBuilder.obj
 0002:00002164       ??_C@_0CB@EMMCJFHN@mMeshData?4mExtraTrigData?5?$DN?$DN?5NULL@ 100eb164     TriangleMeshBuilder.obj
 0002:0000218c       ??_C@_0BP@CKKNCBK@mMeshData?4mAdjacencies?5?$DN?$DN?5NULL?$AA@ 100eb18c     TriangleMeshBuilder.obj
 0002:000021b4       ??_C@_0CN@KGPHHHLK@TriangleMesh?3?5mesh?5is?5too?5big?5fo@ 100eb1b4     TriangleMeshBuilder.obj
 0002:000021ec       ??_C@_0CP@JJMFODMC@edgeList?9?$DOgetNbFaces?$CI?$CJ?$DN?$DNmMeshDat@ 100eb1ec     TriangleMeshBuilder.obj
 0002:00002228       ??_C@_0MN@KDBIPDPP@?$CIGu?3?3EdgeTriangleAC?3?3HasActiveEd@ 100eb228     TriangleMeshBuilder.obj
 0002:00002320       ??_C@_0MN@OEBKAMJJ@?$CIGu?3?3EdgeTriangleAC?3?3HasActiveEd@ 100eb320     TriangleMeshBuilder.obj
 0002:00002418       ??_C@_0MN@BBNOFGBG@?$CIGu?3?3EdgeTriangleAC?3?3HasActiveEd@ 100eb418     TriangleMeshBuilder.obj
 0002:00002510       ??_C@_0BK@FKMANKEB@mMeshData?4mGRB_triIndices?$AA@ 100eb510     TriangleMeshBuilder.obj
 0002:00002530       ??_C@_0BL@DLEDFNFP@tempNormalsPerTri_prealloc?$AA@ 100eb530     TriangleMeshBuilder.obj
 0002:00002550       ??_C@_0BD@NDAFHHFF@GRB_triAdjacencies?$AA@ 100eb550     TriangleMeshBuilder.obj
 0002:00002568       ??_C@_0BF@LOHPHEEH@mMeshData?4mFaceRemap?$AA@ 100eb568     TriangleMeshBuilder.obj
 0002:00002584       ??_C@_0BO@FKDPIHHM@index?5?$DM?5originalTriangleCount?$AA@ 100eb584     TriangleMeshBuilder.obj
 0002:000025a8       ??_C@_0DD@CMJGDCNN@TriangleMesh?3?3loadFromDesc?3?5desc@ 100eb5a8     TriangleMeshBuilder.obj
 0002:000025e8       ??_C@_0ED@ILJJNHIP@TriangleMesh?3?3loadFromDesc?3?5mPar@ 100eb5e8     TriangleMeshBuilder.obj
 0002:00002638       ??_C@_0CK@BJFFGDPK@input?5mesh?5contains?5corrupted?5ve@ 100eb638     TriangleMeshBuilder.obj
 0002:0000266c       ??_C@_0BF@DKJOKPOK@materials?$FLi?$FN?$CB?$DN0xffff?$AA@ 100eb66c     TriangleMeshBuilder.obj
 0002:00002688       ??_C@_0BJ@BKHDBBHO@cleaning?5the?5mesh?5failed?$AA@ 100eb688     TriangleMeshBuilder.obj
 0002:000026a8       ??_C@_0BE@EBMJPKKK@m?4has16BitIndices?$CI?$CJ?$AA@ 100eb6a8     TriangleMeshBuilder.obj
 0002:000026c0       ??_C@_0BK@JIDHMMCE@BV4?5tree?5failed?5to?5build?4?$AA@ 100eb6c0     TriangleMeshBuilder.obj
 0002:000026e0       ??_C@_0DJ@MIBEECJD@?$CB?$CImeshData?4mFlags?5?$CG?5PxTriangleMe@ 100eb6e0     TriangleMeshBuilder.obj
 0002:00002724       ??_C@_0BL@DHNECNBE@BV32?5tree?5failed?5to?5build?4?$AA@ 100eb724     TriangleMeshBuilder.obj
 0002:00002744       ??_C@_0BN@IOHKHAPP@bv32Tree?9?$DOmNbPackedNodes?5?$DO?50?$AA@ 100eb744     TriangleMeshBuilder.obj
 0002:00002768       ??_7RTreeCookerRemap@physx@@6B@ 100eb768     TriangleMeshBuilder.obj
 0002:00002774       ??_C@_0O@PPMFEIKF@leafCount?5?$DO?50?$AA@ 100eb774     TriangleMeshBuilder.obj
 0002:00002784       ??_C@_0BA@ICGDMFLO@leafCount?5?$DM?$DN?516?$AA@ 100eb784     TriangleMeshBuilder.obj
 0002:00002798       ??_C@_0BA@KGAJLAMO@start?5?$DM?5mNbTris?$AA@ 100eb798     TriangleMeshBuilder.obj
 0002:000027ac       ??_C@_0BL@MHKJAFOE@start?$CLleafCount?5?$DM?$DN?5mNbTris?$AA@ 100eb7ac     TriangleMeshBuilder.obj
 0002:000027cc       ??_C@_03BALCFKBP@val?$AA@  100eb7cc     TriangleMeshBuilder.obj
 0002:000027d0       ??_C@_0CP@NNHNDAFC@resultPermute?4size?$CI?$CJ?5?$DN?$DN?5mMeshDat@ 100eb7d0     TriangleMeshBuilder.obj
 0002:00002808       ??_C@_0BM@OIFKLHDN@?$DMallocation?5names?5disabled?$DO?$AA@ 100eb808     TriangleMeshBuilder.obj
 0002:0000282c       __real@3951b717            100eb82c     TriangleMeshBuilder.obj
 0002:00002830       __real@3dcccccd            100eb830     TriangleMeshBuilder.obj
 0002:00002834       __real@40000000            100eb834     TriangleMeshBuilder.obj
 0002:00002838       __real@48742400            100eb838     TriangleMeshBuilder.obj
 0002:0000283c       __real@c1b00000            100eb83c     TriangleMeshBuilder.obj
 0002:00002840       __xmm@80000000800000008000000080000000 100eb840     TriangleMeshBuilder.obj
 0002:00002888       ??_C@_0DH@IKCMPFPC@?4?4?2?4?4?2PhysXCooking?2src?2convex?2Bi@ 100eb888     BigConvexDataBuilder.obj
 0002:000028cc       ??_C@_0CG@GFHNJDNE@meshBuilder?4mHullDataFacesByAllE@ 100eb8cc     BigConvexDataBuilder.obj
 0002:000028fc       ??_C@_0DB@BBDOGGPJ@mSVM?9?$DOmData?4mValencies?$FLData?$FLj?$FN?$FN?4@ 100eb8fc     BigConvexDataBuilder.obj
 0002:00002938       ??_C@_0EC@HLPJABEO@mSVM?9?$DOmData?4mNbAdjVerts?5?$DN?$DN?5PxU32@ 100eb938     BigConvexDataBuilder.obj
 0002:00002988       ??_C@_0CA@DDINCBKD@offset?5?$DM?5mSVM?9?$DOmData?4mNbSamples?$AA@ 100eb988     BigConvexDataBuilder.obj
 0002:000029b0       ??_C@_0CB@LJJCNLLL@offset2?5?$DM?5mSVM?9?$DOmData?4mNbSamples@ 100eb9b0     BigConvexDataBuilder.obj
 0002:000029d8       __real@3f000000            100eb9d8     BigConvexDataBuilder.obj
 0002:000029dc       __real@bf800000            100eb9dc     BigConvexDataBuilder.obj
 0002:00002a08       ??_C@_0O@JELDCDGP@value?5?$DM?$DN?50xff?$AA@ 100eba08     ConvexHullBuilder.obj
 0002:00002a18       ??_C@_0FK@MGFJBMOL@i?3?2_dae?2references?2physx?53?44?2phy@ 100eba18     ConvexHullBuilder.obj
 0002:00002a84       ??_C@_0BD@KIEABJPI@mHull?9?$DOmNbPolygons?$AA@ 100eba84     ConvexHullBuilder.obj
 0002:00002a9c       ??_C@_0DE@JCGJGFMG@?4?4?2?4?4?2PhysXCooking?2src?2convex?2Co@ 100eba9c     ConvexHullBuilder.obj
 0002:00002adc       ??_C@_07OKCKIPNN@indices?$AA@ 100ebadc     ConvexHullBuilder.obj
 0002:00002ae8       ??_C@_05FEEIMKBD@verts?$AA@ 100ebae8     ConvexHullBuilder.obj
 0002:00002af0       ??_C@_0N@JMCJKPEF@hullPolygons?$AA@ 100ebaf0     ConvexHullBuilder.obj
 0002:00002b00       ??_C@_07FOEMFOKK@nbVerts?$AA@ 100ebb00     ConvexHullBuilder.obj
 0002:00002b0c       ??_C@_0L@FGGGCOIO@nbPolygons?$AA@ 100ebb0c     ConvexHullBuilder.obj
 0002:00002b20       ??_C@_0EB@DCEIFDGC@ConvexHullBuilder?3?3init?3?5convex?5@ 100ebb20     ConvexHullBuilder.obj
 0002:00002b70       ??_C@_0BE@KOOOMNLC@Gu?3?3HullPolygonData?$AA@ 100ebb70     ConvexHullBuilder.obj
 0002:00002b88       ??_C@_0M@OKHMOJHP@numVerts?$DO?$DN3?$AA@ 100ebb88     ConvexHullBuilder.obj
 0002:00002b98       ??_C@_0FM@KICBLCBH@Gu?3?3ConvexMesh?3?3checkHullPolygon@ 100ebb98     ConvexHullBuilder.obj
 0002:00002c08       ??_C@_0GO@HBFIOGLL@Gu?3?3ConvexMesh?3?3checkHullPolygon@ 100ebc08     ConvexHullBuilder.obj
 0002:00002c8c       ??_C@_0CC@KHGCOLNH@mHull?9?$DOmNbEdges?5?$DM?$CI?5?$CI1?5?$DM?$DM?515?$CJ?5?9?51@ 100ebc8c     ConvexHullBuilder.obj
 0002:00002cb4       ??_C@_0CB@DAIGCNKP@mHull?9?$DOmNbEdges?5?$DM?$CI?$CI1?5?$DM?$DM?515?$CJ?5?9?51?$CJ@ 100ebcb4     ConvexHullBuilder.obj
 0002:00002cdc       ??_C@_0BE@EJGGFHND@ConvexHullData?5data?$AA@ 100ebcdc     ConvexHullBuilder.obj
 0002:00002cf4       ??_C@_0CN@FMCHMHF@?$CB?$CIsize_t?$CIdataHullVertices?$CJ?5?$CF?5siz@ 100ebcf4     ConvexHullBuilder.obj
 0002:00002d2c       ??_C@_0CP@PEBAMPKB@?$CB?$CIsize_t?$CIhullData?4mPolygons?$CJ?5?$CF?5s@ 100ebd2c     ConvexHullBuilder.obj
 0002:00002d64       ??_C@_0DE@PBHJOBNJ@size_t?$CIaddress?$CJ?5?$DM?$DN?5size_t?$CIdataMe@ 100ebd64     ConvexHullBuilder.obj
 0002:00002da4       ??_C@_0BG@MJLOHHDN@mHullDataHullVertices?$AA@ 100ebda4     ConvexHullBuilder.obj
 0002:00002dc0       ??_C@_0BC@JILNBNOE@mHullDataPolygons?$AA@ 100ebdc0     ConvexHullBuilder.obj
 0002:00002dd8       ??_C@_0BF@MHHBBNAJ@mHullDataVertexData8?$AA@ 100ebdd8     ConvexHullBuilder.obj
 0002:00002df4       ??_C@_0BH@KMEGFGPF@mHullDataFacesByEdges8?$AA@ 100ebdf4     ConvexHullBuilder.obj
 0002:00002e10       ??_C@_0BK@EOBPJLJJ@mHullDataFacesByVertices8?$AA@ 100ebe10     ConvexHullBuilder.obj
 0002:00002e30       ??_C@_0HF@OLJFBIEL@ConvexHullBuilder?3?5convex?5hull?5d@ 100ebe30     ConvexHullBuilder.obj
 0002:00002ec0       ??_C@_0OG@JNHFOIL@ConvexHullBuilder?3?5convex?5hull?5d@ 100ebec0     ConvexHullBuilder.obj
 0002:00002fd8       ??_C@_0EJ@NIOIBAKH@Cooking?3?3cookConvexMesh?3?5non?9man@ 100ebfd8     ConvexHullBuilder.obj
 0002:00003030       ??_C@_0CE@OELJDBDC@PxU32?$CIrun0?9vRefs0?$CJ?$DN?$DNnbEdgesUnsha@ 100ec030     ConvexHullBuilder.obj
 0002:0000305c       ??_C@_0CE@OPFCBBDF@PxU32?$CIrun1?9vRefs1?$CJ?$DN?$DNnbEdgesUnsha@ 100ec05c     ConvexHullBuilder.obj
 0002:00003088       __real@3ca3d70a            100ec088     ConvexHullBuilder.obj
 0002:0000308c       __real@3eaaaaab            100ec08c     ConvexHullBuilder.obj
 0002:00003090       ??_C@_09GLGJMIMJ@isValid?$CI?$CJ?$AA@ 100ec090     ConvexHullLib.obj
 0002:0000309c       ??_7ConvexHullLib@physx@@6B@ 100ec09c     ConvexHullLib.obj
 0002:000030ac       ??_C@_0DA@IJEMKFI@?4?4?2?4?4?2PhysXCooking?2src?2convex?2Co@ 100ec0ac     ConvexHullLib.obj
 0002:000030e8       ??_C@_0DG@JCINKFOO@mConvexMeshDesc?4flags?5?$CG?5PxConvex@ 100ec0e8     ConvexHullLib.obj
 0002:00003128       ??_C@_05LMJPANIN@PxU32?$AA@ 100ec128     ConvexHullLib.obj
 0002:00003130       ??_C@_0CA@ENKNMFDJ@indexBase?5?$DN?$DN?5desc?4indices?4count?$AA@ 100ec130     ConvexHullLib.obj
 0002:00003158       __real@358637bd            100ec158     ConvexHullLib.obj
 0002:0000315c       __real@3d4ccccd            100ec15c     ConvexHullLib.obj
 0002:00003188       ??_C@_0EC@DMGALNFI@I?3?2_DAE?2References?2PhysX?53?44?2PxS@ 100ec188     ConvexHullUtils.obj
 0002:000031d8       ??_C@_0CL@BBNJEEEJ@PxAbs?$CI1?40f?5?9?5unitAxis?4magnitude?$CI@ 100ec1d8     ConvexHullUtils.obj
 0002:0000320c       ??_C@_0BB@OOGJNGLK@isValidFloatV?$CIb?$CJ?$AA@ 100ec20c     ConvexHullUtils.obj
 0002:00003220       ??_C@_0BB@OPKLLMIN@isValidFloatV?$CIc?$CJ?$AA@ 100ec220     ConvexHullUtils.obj
 0002:00003234       ??_C@_0BA@EPMPMLJI@isValidVec3V?$CIc?$CJ?$AA@ 100ec234     ConvexHullUtils.obj
 0002:00003248       ??_C@_0DC@LMIOBJIC@?4?4?2?4?4?2PhysXCooking?2src?2convex?2Co@ 100ec248     ConvexHullUtils.obj
 0002:00003284       ??_C@_06CNNCFCIO@vcount?$AA@ 100ec284     ConvexHullUtils.obj
 0002:0000328c       ??_C@_0BP@BOGLBFED@mEdges?$FLinext?$FN?4p?5?$DN?$DN?5mEdges?$FLi?$FN?4p?$AA@ 100ec28c     ConvexHullUtils.obj
 0002:000032b4       ??_C@_08BDJPPIKG@nb?5?$CB?$DN?5?91?$AA@ 100ec2b4     ConvexHullUtils.obj
 0002:000032c0       ??_C@_0CB@CFEGKNLC@i?5?$DN?$DN?5PxU32?$CImEdges?$FLPxU32?$CInb?$CJ?$FN?4ea?$CJ@ 100ec2c0     ConvexHullUtils.obj
 0002:000032e8       ??_C@_0CH@ICNMLFBK@mEdges?$FLPxU32?$CInb?$CJ?$FN?4v?5?$DN?$DN?5mEdges?$FLin@ 100ec2e8     ConvexHullUtils.obj
 0002:00003318       ??_C@_0FM@BNLOICHG@local?3?3eCOPLANAR?5?$DN?$DN?5local?3?3plane@ 100ec318     ConvexHullUtils.obj
 0002:00003388       ??_C@_0BP@JDJHBJAJ@convex?4getEdges?$CI?$CJ?4size?$CI?$CJ?5?$DM?5480?$AA@ 100ec388     ConvexHullUtils.obj
 0002:000033b0       ??_C@_0DA@PGDOKAKB@tmpUnderEdges?$FLunderEdgeCount?$FN?4v?5@ 100ec3b0     ConvexHullUtils.obj
 0002:000033ec       ??_C@_0CM@NCLAMEIG@edgeFlag?$FLedge0?4ea?$FN?4undermap?5?$CB?$DN?5i@ 100ec3ec     ConvexHullUtils.obj
 0002:00003420       ??_C@_0BF@KEHLOIPL@vout?5?$CB?$DN?5invalidIndex?$AA@ 100ec420     ConvexHullUtils.obj
 0002:0000343c       ??_C@_0BF@OKMJIKEK@vin?5?$DM?5vertCountUnder?$AA@ 100ec43c     ConvexHullUtils.obj
 0002:00003458       ??_C@_0CI@OACGEIKL@edgeFlag?$FLe0?$FN?4undermap?5?$DN?$DN?5underEd@ 100ec458     ConvexHullUtils.obj
 0002:00003488       ??_C@_0BE@ODINDNNF@vin?5?$CB?$DN?5invalidIndex?$AA@ 100ec488     ConvexHullUtils.obj
 0002:000034a0       ??_C@_0BE@CEIFINGH@coplanarEdge?5?$CB?$DN?5511?$AA@ 100ec4a0     ConvexHullUtils.obj
 0002:000034b8       ??_C@_0BJ@HIGNANEP@i?5?$DN?$DN?5createdVerts?4size?$CI?$CJ?$AA@ 100ec4b8     ConvexHullUtils.obj
 0002:000034d8       ??_C@_04NCKNBPPK@PxU8?$AA@ 100ec4d8     ConvexHullUtils.obj
 0002:000034e0       ??_C@_05CDCIKCPI@Vec4V?$AA@ 100ec4e0     ConvexHullUtils.obj
 0002:000034e8       __real@00800000            100ec4e8     ConvexHullUtils.obj
 0002:000034ec       __real@3c8efa35            100ec4ec     ConvexHullUtils.obj
 0002:000034f0       __real@40400000            100ec4f0     ConvexHullUtils.obj
 0002:000034f4       __real@41900000            100ec4f4     ConvexHullUtils.obj
 0002:000034f8       __real@4e6e6b28            100ec4f8     ConvexHullUtils.obj
 0002:000034fc       __real@bf000000            100ec4fc     ConvexHullUtils.obj
 0002:00003528       ??_C@_0DF@LLFJIJGM@Gu?3?3ConvexMesh?3?3loadFromDesc?3?5de@ 100ec528     ConvexMeshBuilder.obj
 0002:00003568       ??_C@_0DE@FMMNMFJD@?4?4?2?4?4?2PhysXCooking?2src?2convex?2Co@ 100ec568     ConvexMeshBuilder.obj
 0002:000035a8       ??_C@_0HK@JOGKIEAA@Gu?3?3ConvexMesh?3?5Mesh?5has?5a?5negat@ 100ec5a8     ConvexMeshBuilder.obj
 0002:0000363c       ??_C@_0DH@NJPPHFFD@Gu?3?3ConvexMesh?3?5Error?5computing?5@ 100ec63c     ConvexMeshBuilder.obj
 0002:00003680       ??_C@_0DJ@LJDLGLDJ@Gu?3?3ConvexMesh?3?3loadConvexHull?3?5@ 100ec680     ConvexMeshBuilder.obj
 0002:000036c8       ??_C@_0HJ@KJANPPOE@ConvexMeshBuilder?3?3computeHullPo@ 100ec6c8     ConvexMeshBuilder.obj
 0002:0000375c       ??_C@_0O@JMAGMMGG@PxHullPolygon?$AA@ 100ec75c     ConvexMeshBuilder.obj
 0002:00003770       ??_C@_0FN@IODHNLIE@indices?$FLoutPolygon?4mIndexBase?5?$CL?5@ 100ec770     ConvexMeshBuilder.obj
 0002:000037e0       __real@33d6bf95            100ec7e0     ConvexMeshBuilder.obj
 0002:000037e4       __real@b3d6bf95            100ec7e4     ConvexMeshBuilder.obj
 0002:000037f0       __xmm@80000000000000008000000000000000 100ec7f0     ConvexMeshBuilder.obj
 0002:00003804       ??_C@_0DI@NHJHAHIK@?4?4?2?4?4?2PhysXCooking?2src?2convex?2Co@ 100ec804     ConvexPolygonsBuilder.obj
 0002:00003848       ??_C@_0P@BKHDFID@Copy?4size?$CI?$CJ?$DO?$DN2?$AA@ 100ec848     ConvexPolygonsBuilder.obj
 0002:0000385c       ??_C@_0P@CKIKGGEA@Copy?4size?$CI?$CJ?$DO?$DN1?$AA@ 100ec85c     ConvexPolygonsBuilder.obj
 0002:00003870       ??_C@_0L@EHJBDJOI@nbVerts?$DO?$DN3?$AA@ 100ec870     ConvexPolygonsBuilder.obj
 0002:00003880       ??_C@_0BB@KAJHDBOL@wFaces?5?$HM?$HM?5dFaces?$AA@ 100ec880     ConvexPolygonsBuilder.obj
 0002:00003894       ??_C@_0BM@BGNOFOOP@entries?$FL0?$FN?5?$DN?$DN?5entries?$FLnb?91?$FN?$AA@ 100ec894     ConvexPolygonsBuilder.obj
 0002:000038b8       ??_C@_0DP@PJBJBEGF@Meshmerizer?3?3extractHullPolygons@ 100ec8b8     ConvexPolygonsBuilder.obj
 0002:00003904       ??_C@_09PNPFALML@triangles?$AA@ 100ec904     ConvexPolygonsBuilder.obj
 0002:00003910       ??_C@_0BJ@CIDDLGFP@triangles?$FLi?$CK3?$CL0?$FN?$DM?$DN0xffff?$AA@ 100ec910     ConvexPolygonsBuilder.obj
 0002:00003930       ??_C@_0BJ@OJLNGJJP@triangles?$FLi?$CK3?$CL1?$FN?$DM?$DN0xffff?$AA@ 100ec930     ConvexPolygonsBuilder.obj
 0002:00003950       ??_C@_0BJ@HAFPAPJO@triangles?$FLi?$CK3?$CL2?$FN?$DM?$DN0xffff?$AA@ 100ec950     ConvexPolygonsBuilder.obj
 0002:00003970       ??_C@_0BA@OMHMECP@nbHullVerts?$DM256?$AA@ 100ec970     ConvexPolygonsBuilder.obj
 0002:00003984       ??_C@_0BL@MFNKFFFN@Reduced?5vertices?5hull?5data?$AA@ 100ec984     ConvexPolygonsBuilder.obj
 0002:000039a4       ??_C@_0CK@GNGILODA@currentIndex?5?$DM?5numReducedHullDat@ 100ec9a4     ConvexPolygonsBuilder.obj
 0002:000039d8       ??_C@_0CB@EODAHBEL@data?$FLj?$FN?5?$DM?5mHull?9?$DOmNbHullVertices@ 100ec9d8     ConvexPolygonsBuilder.obj
 0002:00003a00       ??_C@_0DL@IAFKOCCK@ConvexHullBuilder?3?5convex?5hull?5h@ 100eca00     ConvexPolygonsBuilder.obj
 0002:00003a48       ??_C@_0BG@OHLOGHMG@triIndex?$DMmNbHullFaces?$AA@ 100eca48     ConvexPolygonsBuilder.obj
 0002:00003a64       ??_C@_0DH@CAGLLON@mHullDataPolygons?$FLi?$FN?4mPlane?4dist@ 100eca64     ConvexPolygonsBuilder.obj
 0002:00003aa8       ??_C@_0GF@OJLJHAMH@ConvexHullBuilder?3?3CreateTriangl@ 100ecaa8     ConvexPolygonsBuilder.obj
 0002:00003b24       ??_C@_0BO@MMNNDACD@nbTriangles?5?$DM?$DN?5maxNbTriangles?$AA@ 100ecb24     ConvexPolygonsBuilder.obj
 0002:00003b48       ??_C@_0BC@GKLGGHPD@size?5?$DM?$DN?5mCapacity?$AA@ 100ecb48     ConvexPolygonsBuilder.obj
 0002:00003b60       __real@3ba3d70a            100ecb60     ConvexPolygonsBuilder.obj
 0002:00003b64       ??_C@_0L@MHFEGEFF@value?5?$DO?$DN?50?$AA@ 100ecb64     InflationConvexHullLib.obj
 0002:00003b74       ??_7InflationConvexHullLib@physx@@6B@ 100ecb74     InflationConvexHullLib.obj
 0002:00003b84       ??_C@_0DJ@PIPIPNEP@?4?4?2?4?4?2PhysXCooking?2src?2convex?2In@ 100ecb84     InflationConvexHullLib.obj
 0002:00003bc8       ??_C@_05IOMEMJEC@count?$AA@ 100ecbc8     InflationConvexHullLib.obj
 0002:00003bd0       ??_C@_05PCHPLGBB@m?$CB?$DN?91?$AA@ 100ecbd0     InflationConvexHullLib.obj
 0002:00003bd8       ??_C@_06HEAFFOBK@m?5?$DO?$DN?50?$AA@ 100ecbd8     InflationConvexHullLib.obj
 0002:00003be0       ??_C@_01GBGANLPD@0?$AA@    100ecbe0     InflationConvexHullLib.obj
 0002:00003be4       ??_C@_0DC@OMACIGCJ@?$CB?$CIp0?$DN?$DNp1?$HM?$HMp0?$DN?$DNp2?$HM?$HMp0?$DN?$DNp3?$HM?$HMp1?$DN?$DNp2@ 100ecbe4     InflationConvexHullLib.obj
 0002:00003c20       ??_C@_0CC@JEDKPPKF@?$CImTriangles?$CJ?$FLPxU32?$CItri?9?$DOid?$CJ?$FN?$DN?$DNtr@ 100ecc20     InflationConvexHullLib.obj
 0002:00003c48       ??_C@_0BO@HLHIEAN@?$CImTriangles?$CJ?$FLPxU32?$CIt?9?$DOid?$CJ?$FN?$DN?$DNt?$AA@ 100ecc48     InflationConvexHullLib.obj
 0002:00003c6c       ??_C@_04POHJOBKC@a?$CB?$DNb?$AA@ 100ecc6c     InflationConvexHullLib.obj
 0002:00003c74       ??_C@_0DB@LMAHMLH@?$CImTriangles?$CJ?$FLPxU32?$CIt?9?$DOn?$FLi?$FN?$CJ?$FN?9?$DOne@ 100ecc74     InflationConvexHullLib.obj
 0002:00003cb0       ??_C@_0DG@NGBMPFIO@?$CImTriangles?$CJ?$FLPxU32?$CIs?9?$DOneib?$CIa?0b?$CJ?$CJ@ 100eccb0     InflationConvexHullLib.obj
 0002:00003cf0       ??_C@_0DG@MIFAKIIN@?$CImTriangles?$CJ?$FLPxU32?$CIt?9?$DOneib?$CIa?0b?$CJ?$CJ@ 100eccf0     InflationConvexHullLib.obj
 0002:00003d30       ??_C@_0P@PBDDJBHM@vertsCount?5?$DO?50?$AA@ 100ecd30     InflationConvexHullLib.obj
 0002:00003d44       ??_C@_07NOGJGPFL@hullOut?$AA@ 100ecd44     InflationConvexHullLib.obj
 0002:00003d50       ??_C@_0BP@CHBBDLNJ@k?$DN?$DNhullOut?9?$DOgetFacets?$CI?$CJ?4size?$CI?$CJ?$AA@ 100ecd50     InflationConvexHullLib.obj
 0002:00003d78       ??_C@_01PFHFFBPC@t?$AA@    100ecd78     InflationConvexHullLib.obj
 0002:00003d7c       ??_C@_09MDBCJDMM@t?9?$DOvmax?$DM0?$AA@ 100ecd7c     InflationConvexHullLib.obj
 0002:00003d88       ??_C@_0BF@IMOCMGBM@?$CBisextreme?$FLPxU32?$CIv?$CJ?$FN?$AA@ 100ecd88     InflationConvexHullLib.obj
 0002:00003da4       ??_C@_02BFDMMJOC@nb?$AA@   100ecda4     InflationConvexHullLib.obj
 0002:00003da8       ??_C@_0BA@PCPCGFGE@?$CBhasVert?$CI?$CKnb?0v?$CJ?$AA@ 100ecda8     InflationConvexHullLib.obj
 0002:00003dbc       ??_C@_0BA@MEBKEMOG@PxU32?$CInb?9?$DOid?$CJ?$DMj?$AA@ 100ecdbc     InflationConvexHullLib.obj
 0002:00003dd0       ??_C@_0CM@DGNHBGHH@expandPlane?4mPlane?4distance?$CIvert@ 100ecdd0     InflationConvexHullLib.obj
 0002:00003e04       ??_C@_0CA@HIOFHKC@expandPlane?4mAdjacency?$FL0?$FN?5?$DN?$DN?5?91?$AA@ 100ece04     InflationConvexHullLib.obj
 0002:00003e2c       ??_C@_0CA@BAPFEDOB@expandPlane?4mAdjacency?$FL1?$FN?5?$DN?$DN?5?91?$AA@ 100ece2c     InflationConvexHullLib.obj
 0002:00003e54       ??_C@_0CA@CJHIHPCE@expandPlane?4mAdjacency?$FL2?$FN?5?$DN?$DN?5?91?$AA@ 100ece54     InflationConvexHullLib.obj
 0002:00003e7c       ??_C@_0DA@LPEBNKFH@LocalTests?3?3PlaneCheck?$CIverts?0ver@ 100ece7c     InflationConvexHullLib.obj
 0002:00003eb8       ??_C@_0N@EJENLPBA@indexE?5?$CB?$DN?5?91?$AA@ 100eceb8     InflationConvexHullLib.obj
 0002:00003ec8       ??_C@_0CA@KDJNIAHF@c?9?$DOassertIntact?$CIplaneTolerance?$CJ?$AA@ 100ecec8     InflationConvexHullLib.obj
 0002:00003ef0       ??_C@_0CC@HJJJAIHF@c?9?$DOassertIntact?$CIplanetestepsilon@ 100ecef0     InflationConvexHullLib.obj
 0002:00003f18       ??_C@_09KBFPFCOF@mFinished?$AA@ 100ecf18     InflationConvexHullLib.obj
 0002:00003f24       __real@1e3ce508            100ecf24     InflationConvexHullLib.obj
 0002:00003f28       __real@3ccccccd            100ecf28     InflationConvexHullLib.obj
 0002:00003f2c       __real@40800000            100ecf2c     InflationConvexHullLib.obj
 0002:00003f30       __real@40a00000            100ecf30     InflationConvexHullLib.obj
 0002:00003f34       __real@42340000            100ecf34     InflationConvexHullLib.obj
 0002:00003f38       __real@43b40000            100ecf38     InflationConvexHullLib.obj
 0002:00003f3c       __real@9e3ce508            100ecf3c     InflationConvexHullLib.obj
 0002:00003f40       __real@bc23d70a            100ecf40     InflationConvexHullLib.obj
 0002:00003f44       __real@bca3d70a            100ecf44     InflationConvexHullLib.obj
 0002:00003f48       ??_7QuickHullConvexHullLib@physx@@6B@ 100ecf48     QuickHullConvexHullLib.obj
 0002:00003f58       ??_C@_0DJ@OGDLNGCN@?4?4?2?4?4?2PhysXCooking?2src?2convex?2Qu@ 100ecf58     QuickHullConvexHullLib.obj
 0002:00003f9c       ??_C@_04HPBPGAEO@twin?$AA@ 100ecf9c     QuickHullConvexHullLib.obj
 0002:00003fa4       ??_C@_04IJFJNCMM@edge?$AA@ 100ecfa4     QuickHullConvexHullLib.obj
 0002:00003fac       ??_C@_09CKAEOABB@startEdge?$AA@ 100ecfac     QuickHullConvexHullLib.obj
 0002:00003fb8       ??_C@_04POCOPAPC@face?$AA@ 100ecfb8     QuickHullConvexHullLib.obj
 0002:00003fc0       ??_C@_0BH@KGKKNPGB@checkFaceConsistency?$CI?$CJ?$AA@ 100ecfc0     QuickHullConvexHullLib.obj
 0002:00003fdc       ??_C@_08FKPFFPGN@numv?5?$DO?52?$AA@ 100ecfdc     QuickHullConvexHullLib.obj
 0002:00003fe8       ??_C@_0BB@NPIGJJFH@hedgeOpp?5?$CB?$DN?5NULL?$AA@ 100ecfe8     QuickHullConvexHullLib.obj
 0002:00003ffc       ??_C@_0BI@NAILLODC@hedgeOpp?9?$DOtwin?5?$DN?$DN?5hedge?$AA@ 100ecffc     QuickHullConvexHullLib.obj
 0002:00004018       ??_C@_0BA@FPNCCKDI@oppFace?5?$CB?$DN?5NULL?$AA@ 100ed018     QuickHullConvexHullLib.obj
 0002:0000402c       ??_C@_0CK@HJJJCJME@oppFace?9?$DOstate?5?$CB?$DN?5QuickHullFace?3@ 100ed02c     QuickHullConvexHullLib.obj
 0002:00004060       ??_C@_0BE@PPJFDAEE@hedge?9?$DOface?5?$DN?$DN?5this?$AA@ 100ed060     QuickHullConvexHullLib.obj
 0002:00004078       ??_C@_0BA@IIKLDFLI@numVertices?5?$DO?50?$AA@ 100ed078     QuickHullConvexHullLib.obj
 0002:0000408c       ??_C@_0BA@BPKNMKIA@QuickHullVertex?$AA@ 100ed08c     QuickHullConvexHullLib.obj
 0002:000040a0       ??_C@_0BJ@FCCFKLOA@numVerts?5?$DM?$DN?5mMaxVertices?$AA@ 100ed0a0     QuickHullConvexHullLib.obj
 0002:000040c0       ??_C@_0GA@EPPAEJPM@QuickHullConvexHullLib?3?3findSimp@ 100ed0c0     QuickHullConvexHullLib.obj
 0002:00004138       ??_C@_0FB@NEBIJMML@QuickHullConvexHullLib?3?3findSimp@ 100ed138     QuickHullConvexHullLib.obj
 0002:000041a0       ??_C@_0FB@CLLCBEMM@QuickHullConvexHullLib?3?3findSimp@ 100ed1a0     QuickHullConvexHullLib.obj
 0002:00004204       ??_C@_07DDJOPBBG@simplex?$AA@ 100ed204     QuickHullConvexHullLib.obj
 0002:00004210       ??_C@_0BC@EMKMAMDK@face?4conflictList?$AA@ 100ed210     QuickHullConvexHullLib.obj
 0002:00004228       ??_C@_0BM@MDABMKAO@face?4conflictList?5?$DN?$DN?5vertex?$AA@ 100ed228     QuickHullConvexHullLib.obj
 0002:0000424c       ??_C@_0BM@KELCFLC@face?4checkFaceConsistency?$CI?$CJ?$AA@ 100ed24c     QuickHullConvexHullLib.obj
 0002:00004270       ??_C@_07CFCNFCEM@eyeFace?$AA@ 100ed270     QuickHullConvexHullLib.obj
 0002:0000427c       ??_C@_0L@EIPELJHI@mQuickHull?$AA@ 100ed27c     QuickHullConvexHullLib.obj
 0002:0000428c       ??_C@_0CI@BFGCKDAG@face?4index?5?$DN?$DN?5expandPoint?4planeI@ 100ed28c     QuickHullConvexHullLib.obj
 0002:000042bc       ??_C@_0CJ@ICHEGJCB@mQuickHull?9?$DOmNumHullFaces?5?$DN?$DN?5num@ 100ed2bc     QuickHullConvexHullLib.obj
 0002:000042f0       ??_C@_0BC@NAPMPBH@mCropedConvexHull?$AA@ 100ed2f0     QuickHullConvexHullLib.obj
 0002:00004308       ??_C@_0CL@BEOIBIJC@k?5?$DN?$DN?5mCropedConvexHull?9?$DOgetFacet@ 100ed308     QuickHullConvexHullLib.obj
 0002:0000433c       ??_C@_0BB@PMGJMJHA@mPreallocateSize?$AA@ 100ed33c     QuickHullConvexHullLib.obj
 0002:00004350       ??_C@_0BD@NDHBJDBB@Quickhull?5MemBlock?$AA@ 100ed350     QuickHullConvexHullLib.obj
 0002:00004368       ??_C@_0BH@IGECNJKJ@block?5?$DM?$DN?5mCurrentBlock?$AA@ 100ed368     QuickHullConvexHullLib.obj
 0002:00004384       ??_C@_0BN@MOAOIDAG@itemIndex?5?$DM?5mPreallocateSize?$AA@ 100ed384     QuickHullConvexHullLib.obj
 0002:000043a8       ??_C@_0BA@KPFJPMPJ@preallocateSize?$AA@ 100ed3a8     QuickHullConvexHullLib.obj
 0002:000043bc       ??_C@_0BG@LGMPDGDD@mPreallocateSize?5?$DN?$DN?50?$AA@ 100ed3bc     QuickHullConvexHullLib.obj
 0002:000043d8       __real@34c00000            100ed3d8     QuickHullConvexHullLib.obj
 0002:000043dc       __real@42c80000            100ed3dc     QuickHullConvexHullLib.obj
 0002:00004408       ??_C@_0DE@LLGKNBK@?4?4?2?4?4?2PhysXCooking?2src?2convex?2Vo@ 100ed408     VolumeIntegration.obj
 0002:00004448       ??_C@_0M@JAODDECG@nbVerts?5?$DO?52?$AA@ 100ed448     VolumeIntegration.obj
 0002:00004458       __real@0000000000000000    100ed458     VolumeIntegration.obj
 0002:00004464       __real@3c088889            100ed464     VolumeIntegration.obj
 0002:00004468       __real@3c888889            100ed468     VolumeIntegration.obj
 0002:0000446c       __real@3d2aaaab            100ed46c     VolumeIntegration.obj
 0002:00004470       __real@3e2aaaab            100ed470     VolumeIntegration.obj
 0002:00004478       __real@3f81111111111111    100ed478     VolumeIntegration.obj
 0002:00004488       __real@3f91111111111111    100ed488     VolumeIntegration.obj
 0002:00004498       __real@3fa5555555555555    100ed498     VolumeIntegration.obj
 0002:000044a8       __real@3fc5555555555555    100ed4a8     VolumeIntegration.obj
 0002:000044b8       __real@3ff0000000000000    100ed4b8     VolumeIntegration.obj
 0002:000044c8       __real@4000000000000000    100ed4c8     VolumeIntegration.obj
 0002:000044d8       __real@4008000000000000    100ed4d8     VolumeIntegration.obj
 0002:000044e8       __real@4010000000000000    100ed4e8     VolumeIntegration.obj
 0002:000044f8       __real@4018000000000000    100ed4f8     VolumeIntegration.obj
 0002:00004508       __real@4028000000000000    100ed508     VolumeIntegration.obj
 0002:00004518       __real@4034000000000000    100ed518     VolumeIntegration.obj
 0002:00004528       __real@4038000000000000    100ed528     VolumeIntegration.obj
 0002:00004538       __real@404e000000000000    100ed538     VolumeIntegration.obj
 0002:00004548       __real@c018000000000000    100ed548     VolumeIntegration.obj
 0002:00004558       __real@c028000000000000    100ed558     VolumeIntegration.obj
 0002:00004568       __real@c034000000000000    100ed568     VolumeIntegration.obj
 0002:00004578       __real@c04e000000000000    100ed578     VolumeIntegration.obj
 0002:00004584       ??_C@_0DC@DMHHONHL@Adjacencies?3?3GetBoundaryVertices@ 100ed584     Adjacencies.obj
 0002:000045c0       ??_C@_0CH@EOBHIJNK@?4?4?2?4?4?2PhysXCooking?2src?2Adjacenci@ 100ed5c0     Adjacencies.obj
 0002:000045f0       ??_C@_0CK@KKNAOLHI@Adjacencies?3?3MakeLastRef?3?5NULL?5p@ 100ed5f0     Adjacencies.obj
 0002:00004624       ??_C@_0DA@FMEHLBKI@Adjacencies?3?3UpdateLink?3?5invalid@ 100ed624     Adjacencies.obj
 0002:00004660       ??_C@_0EA@CPHOACLK@Adjacencies?3?3CreateDatabase?3?5can@ 100ed660     Adjacencies.obj
 0002:000046ac       ??_C@_0BE@LIEIDFLP@NbEdges?$DN?$DNmNbFaces?$CK3?$AA@ 100ed6ac     Adjacencies.obj
 0002:000046c8       ??_C@_0JH@OAGDEHEP@?$CIGu?3?3EdgeTriangleAC?3?3HasActiveEd@ 100ed6c8     Adjacencies.obj
 0002:00004780       ??_C@_0JH@GOIKPHAD@?$CIGu?3?3EdgeTriangleAC?3?3HasActiveEd@ 100ed780     Adjacencies.obj
 0002:00004838       ??_C@_0JH@OMLLOEFP@?$CIGu?3?3EdgeTriangleAC?3?3HasActiveEd@ 100ed838     Adjacencies.obj
 0002:00004918       ??_7PxCooking@physx@@6B@   100ed918     Cooking.obj
 0002:0000495c       ??_7Cooking@physx@@6B@     100ed95c     Cooking.obj
 0002:000049a0       ??_C@_0FC@PJIHAFK@Cooking?3?3validateTriangleMesh?3?5u@ 100ed9a0     Cooking.obj
 0002:00004a04       ??_C@_0CD@HPMFPCAJ@?4?4?2?4?4?2PhysXCooking?2src?2Cooking?4c@ 100eda04     Cooking.obj
 0002:00004a30       ??_C@_0EK@EKAIJEBL@Cooking?3?3cookConvexMesh?3?5user?9pr@ 100eda30     Cooking.obj
 0002:00004a88       ??_C@_0FA@GFFGAPML@Cooking?3?3cookConvexMesh?3?5provide@ 100eda88     Cooking.obj
 0002:00004ae8       ??_C@_0EP@PKDCPNNO@Cooking?3?3cookConvexMesh?3?5provide@ 100edae8     Cooking.obj
 0002:00004b48       ??_C@_07MFHICPHG@hullLib?$AA@ 100edb48     Cooking.obj
 0002:00004b58       ??_C@_0EO@LKFMMDE@Cooking?3?3cookConvexMesh?3?5user?9pr@ 100edb58     Cooking.obj
 0002:00004bb8       ??_C@_0EN@FCEPCAFC@Cooking?3?3createHeightField?3?5user@ 100edbb8     Cooking.obj
 0002:00004c18       ??_C@_0EM@MHLLDEBI@static_cast?$DMPs?3?3Foundation?$CK?$DO?$CI?$CGfo@ 100edc18     Cooking.obj
 0002:00004c74       ??_C@_0CI@LKCEKHOD@?4?4?2?4?4?2PhysXCooking?2src?2CookingUt@ 100edc74     CookingUtils.obj
 0002:00004ca4       ??_C@_08MOINBLFP@EdgeData?$AA@ 100edca4     EdgeList.obj
 0002:00004cb0       ??_C@_0CE@DNAJJHLF@?4?4?2?4?4?2PhysXCooking?2src?2EdgeList?4@ 100edcb0     EdgeList.obj
 0002:00004cdc       ??_C@_0BB@OMGANHJB@EdgeTriangleData?$AA@ 100edcdc     EdgeList.obj
 0002:00004cf0       ??_C@_0N@HMDODPCO@EdgeDescData?$AA@ 100edcf0     EdgeList.obj
 0002:00004d00       ??_C@_0BG@GLJDPFLF@EdgeList?5FacesByEdges?$AA@ 100edd00     EdgeList.obj
 0002:00004d1c       ??_C@_0CO@GBNJFPN@EdgeList?3?3CreateFacesToEdges?3?5NU@ 100edd1c     EdgeList.obj
 0002:00004d54       ??_C@_0BN@EPPJDECF@EdgeListBuilder?5FacesByEdges?$AA@ 100edd54     EdgeList.obj
 0002:00004d78       ??_C@_0CO@EHJBBMNK@EdgeList?3?3ComputeActiveEdges?3?5NU@ 100edd78     EdgeList.obj
 0002:00004db0       ??_C@_0DI@GBHLFOFP@ActiveEdges?3?3ComputeConvexEdges?3@ 100eddb0     EdgeList.obj
 0002:00004df4       ??_C@_0DM@JOGBLHDI@ActiveEdges?3?3ComputeConvexEdges?3@ 100eddf4     EdgeList.obj
 0002:00004e40       ??_C@_0ED@FEMJKPEL@ActiveEdges?3?3ComputeConvexEdges?3@ 100ede40     EdgeList.obj
 0002:00004e90       ??_C@_0EB@BFDPMFCD@ActiveEdges?3?3ComputeConvexEdges?3@ 100ede90     EdgeList.obj
 0002:00004ee0       ??_C@_04DDKJGDCM@bool?$AA@ 100edee0     EdgeList.obj
 0002:00004ee8       ??_C@_06FCDOAHIN@wfaces?$AA@ 100edee8     EdgeList.obj
 0002:00004ef0       ??_C@_0BB@KCPJALAK@dfaces?5?$HM?$HM?5wfaces?$AA@ 100edef0     EdgeList.obj
 0002:00004f04       ??_C@_04CJNNGFMA@j?$DN?$DN2?$AA@ 100edf04     EdgeList.obj
 0002:00004f0c       __real@bf7fbe77            100edf0c     EdgeList.obj
 0002:00004f10       ??_C@_0M@GOCDBJNH@MeshCleaner?$AA@ 100edf10     MeshCleaner.obj
 0002:00004f20       ??_C@_0CH@GLEMKEIO@?4?4?2?4?4?2PhysXCooking?2src?2MeshClean@ 100edf20     MeshCleaner.obj
 0002:00004f50       ??_C@_0L@FKHAJINL@cleanVerts?$AA@ 100edf50     MeshCleaner.obj
 0002:00004f60       ??_C@_09PEPOFECJ@hashTable?$AA@ 100edf60     MeshCleaner.obj
 0002:00004f6c       ??_C@_0BB@EKDFPEDB@nbCleanedTris?$DM?$DNi?$AA@ 100edf6c     MeshCleaner.obj
 0002:00004f80       ??_7Quantizer@physx@@6B@   100edf80     Quantizer.obj
 0002:00004f98       ??_7QuantizerImpl@@6B@     100edf98     Quantizer.obj
 0002:00004fb0       ??_C@_0CF@HCNLDLHG@?4?4?2?4?4?2PhysXCooking?2src?2Quantizer@ 100edfb0     Quantizer.obj
 0002:00004fdc       ??_C@_0BD@IDLOIMGI@index?5?$DM?5inputCount?$AA@ 100edfdc     Quantizer.obj
 0002:00004ff4       __real@38d1b717            100edff4     Quantizer.obj
 0002:00004ff8       __real@3f8020c5            100edff8     Quantizer.obj
 0002:00005000       __sz_PxFoundationDEBUG_x86_dll 100ee000     PxFoundationDEBUG_x86:PxFoundationDEBUG_x86.dll
 0002:00005020       __sz_PhysX3CommonDEBUG_x86_dll 100ee020     PhysX3CommonDEBUG_x86:PhysX3CommonDEBUG_x86.dll
 0002:0000503c       ??_C@_1BK@DBDEIDLH@?$AAK?$AAE?$AAR?$AAN?$AAE?$AAL?$AA3?$AA2?$AA?4?$AAD?$AAL?$AAL?$AA?$AA@ 100ee03c     delayimp:delayhlp.obj
 0002:0000505c       ??_C@_0BI@OMNLIJDB@AcquireSRWLockExclusive?$AA@ 100ee05c     delayimp:delayhlp.obj
 0002:00005078       ??_C@_0BI@HMIEPCNJ@ReleaseSRWLockExclusive?$AA@ 100ee078     delayimp:delayhlp.obj
 0002:00005094       ___pfnDliFailureHook2      100ee094     delayimp:delayhk1.obj
 0002:00005140       ??_7type_info@@6B@         100ee140     LIBCMTD:std_type_info_static.obj
 0002:00005148       __pDefaultRawDllMain       100ee148     LIBCMTD:dll_dllmain.obj
 0002:00005148       __pRawDllMain              100ee148     LIBCMTD:dll_dllmain.obj
 0002:00005150       __load_config_used         100ee150     LIBCMTD:loadcfg.obj
 0002:000051d8       ??_C@_0BJ@HEGAHDFO@Stack?5pointer?5corruption?$AA@ 100ee1d8     LIBCMTD:_userapi_.obj
 0002:000051f8       ??_C@_0CK@FEGOIOPB@Cast?5to?5smaller?5type?5causing?5los@ 100ee1f8     LIBCMTD:_userapi_.obj
 0002:0000522c       ??_C@_0BI@CIGMDCBH@Stack?5memory?5corruption?$AA@ 100ee22c     LIBCMTD:_userapi_.obj
 0002:00005248       ??_C@_0CK@CNLNOEPB@Local?5variable?5used?5before?5initi@ 100ee248     LIBCMTD:_userapi_.obj
 0002:0000527c       ??_C@_0BP@OGBCLIBO@Stack?5around?5_alloca?5corrupted?$AA@ 100ee27c     LIBCMTD:_userapi_.obj
 0002:00005370       ??_C@_0NN@NGPKDKPD@The?5value?5of?5ESP?5was?5not?5properl@ 100ee370     LIBCMTD:_error_.obj
 0002:00005480       ??_C@_0BBN@GPMLNJCF@A?5cast?5to?5a?5smaller?5data?5type?5ha@ 100ee480     LIBCMTD:_error_.obj
 0002:000055d8       ??_C@_0BN@FFOINMNJ@Stack?5memory?5was?5corrupted?6?$AN?$AA@ 100ee5d8     LIBCMTD:_error_.obj
 0002:000055fc       ??_C@_0DG@HKJMLLLP@A?5local?5variable?5was?5used?5before@ 100ee5fc     LIBCMTD:_error_.obj
 0002:0000563c       ??_C@_0CM@NGINOKPC@Stack?5memory?5around?5_alloca?5was?5@ 100ee63c     LIBCMTD:_error_.obj
 0002:00005670       ??_C@_0BO@GNIAFIKK@Unknown?5Runtime?5Check?5Error?6?$AN?$AA@ 100ee670     LIBCMTD:_error_.obj
 0002:00005698       ??_C@_1GM@OLMCBDMB@?$AAR?$AAu?$AAn?$AAt?$AAi?$AAm?$AAe?$AA?5?$AAC?$AAh?$AAe?$AAc?$AAk?$AA?5?$AAE?$AAr?$AAr?$AAo?$AAr?$AA?4?$AA?6?$AA?$AN?$AA?5?$AAU?$AAn?$AAa?$AAb?$AAl?$AAe?$AA?5?$AAt?$AAo@ 100ee698     LIBCMTD:_error_.obj
 0002:00005720       ??_C@_1EA@NFKNIFJP@?$AAR?$AAu?$AAn?$AA?9?$AAT?$AAi?$AAm?$AAe?$AA?5?$AAC?$AAh?$AAe?$AAc?$AAk?$AA?5?$AAF?$AAa?$AAi?$AAl?$AAu?$AAr?$AAe?$AA?5?$AA?$CD?$AA?$CF?$AAd?$AA?5?$AA?9?$AA?5?$AA?$CF?$AAs?$AA?$AA@ 100ee720     LIBCMTD:_error_.obj
 0002:0000576c       ??_C@_0BB@PFFGGCJP@Unknown?5Filename?$AA@ 100ee76c     LIBCMTD:_error_.obj
 0002:00005780       ??_C@_0BE@GNBOBNCK@Unknown?5Module?5Name?$AA@ 100ee780     LIBCMTD:_error_.obj
 0002:00005798       ??_C@_0CA@IODNCDPG@Run?9Time?5Check?5Failure?5?$CD?$CFd?5?9?5?$CFs?$AA@ 100ee798     LIBCMTD:_error_.obj
 0002:000057c0       ??_C@_0CG@IAFNJNEE@Stack?5corrupted?5near?5unknown?5var@ 100ee7c0     LIBCMTD:_error_.obj
 0002:000057f0       ??_C@_05MKKEDADM@?$CF?42X?5?$AA@ 100ee7f0     LIBCMTD:_error_.obj
 0002:000057f8       ??_C@_0EJ@LJKNEOLN@Stack?5area?5around?5_alloca?5memory@ 100ee7f8     LIBCMTD:_error_.obj
 0002:00005850       ??_C@_08OMAHNMHJ@?6Data?3?5?$DM?$AA@ 100ee850     LIBCMTD:_error_.obj
 0002:0000585c       ??_C@_0CK@DKGBICFE@?6Allocation?5number?5within?5this?5f@ 100ee85c     LIBCMTD:_error_.obj
 0002:00005890       ??_C@_07DFDJCKFN@?6Size?3?5?$AA@ 100ee890     LIBCMTD:_error_.obj
 0002:0000589c       ??_C@_0N@MHFFIMFG@?6Address?3?50x?$AA@ 100ee89c     LIBCMTD:_error_.obj
 0002:000058b0       ??_C@_0EI@CLEPFNGI@Stack?5area?5around?5_alloca?5memory@ 100ee8b0     LIBCMTD:_error_.obj
 0002:00005908       ??_C@_0BC@HHMKLAND@?$CFs?$CFs?$CFp?$CFs?$CFzd?$CFs?$CFd?$CFs?$AA@ 100ee908     LIBCMTD:_error_.obj
 0002:00005920       ??_C@_01EEMJAFIK@?6?$AA@   100ee920     LIBCMTD:_error_.obj
 0002:00005924       ??_C@_02LLMPMKNF@?$DO?5?$AA@ 100ee924     LIBCMTD:_error_.obj
 0002:00005928       ??_C@_08KJEDNCKC@?$CFs?$CFs?$CFs?$CFs?$AA@ 100ee928     LIBCMTD:_error_.obj
 0002:00005934       ??_C@_0DE@OHJBPMBP@A?5variable?5is?5being?5used?5without@ 100ee934     LIBCMTD:_error_.obj
 0002:00005978       ??_7exception@std@@6B@     100ee978     LIBCMTD:throw_bad_alloc.obj
 0002:00005984       ??_C@_0BC@EOODALEL@Unknown?5exception?$AA@ 100ee984     LIBCMTD:throw_bad_alloc.obj
 0002:000059a0       ??_7bad_alloc@std@@6B@     100ee9a0     LIBCMTD:throw_bad_alloc.obj
 0002:000059ac       ??_C@_0P@GHFPNOJB@bad?5allocation?$AA@ 100ee9ac     LIBCMTD:throw_bad_alloc.obj
 0002:000059c4       ??_7bad_array_new_length@std@@6B@ 100ee9c4     LIBCMTD:throw_bad_alloc.obj
 0002:000059d0       ??_C@_0BF@KINCDENJ@bad?5array?5new?5length?$AA@ 100ee9d0     LIBCMTD:throw_bad_alloc.obj
 0002:00005a48       ??_C@_1EI@MLPKHBGE@?$AAa?$AAp?$AAi?$AA?9?$AAm?$AAs?$AA?9?$AAw?$AAi?$AAn?$AA?9?$AAc?$AAo?$AAr?$AAe?$AA?9?$AAr?$AAe?$AAg?$AAi?$AAs?$AAt?$AAr?$AAy?$AA?9?$AAl?$AA1?$AA?9?$AA1?$AA?9?$AA0?$AA?4@ 100eea48     LIBCMTD:_pdblkup_.obj
 0002:00005aa0       ??_C@_1BK@JHLNAEJL@?$AAa?$AAd?$AAv?$AAa?$AAp?$AAi?$AA3?$AA2?$AA?4?$AAd?$AAl?$AAl?$AA?$AA@ 100eeaa0     LIBCMTD:_pdblkup_.obj
 0002:00005ac0       ??_C@_0O@COHOBMLB@RegOpenKeyExW?$AA@ 100eeac0     LIBCMTD:_pdblkup_.obj
 0002:00005ad0       ??_C@_0BB@GLNAEDBD@RegQueryValueExW?$AA@ 100eead0     LIBCMTD:_pdblkup_.obj
 0002:00005ae4       ??_C@_0M@HLOHPNFA@RegCloseKey?$AA@ 100eeae4     LIBCMTD:_pdblkup_.obj
 0002:00005af8       ??_C@_1HE@EBEAGLFB@?$AAS?$AAO?$AAF?$AAT?$AAW?$AAA?$AAR?$AAE?$AA?2?$AAW?$AAo?$AAw?$AA6?$AA4?$AA3?$AA2?$AAN?$AAo?$AAd?$AAe?$AA?2?$AAM?$AAi?$AAc?$AAr?$AAo?$AAs?$AAo?$AAf?$AAt?$AA?2?$AAV@ 100eeaf8     LIBCMTD:_pdblkup_.obj
 0002:00005b84       ??_C@_1BG@EABPBLLF@?$AAP?$AAr?$AAo?$AAd?$AAu?$AAc?$AAt?$AAD?$AAi?$AAr?$AA?$AA@ 100eeb84     LIBCMTD:_pdblkup_.obj
 0002:00005bc4       ??_C@_1BC@JINFINNJ@?$AAM?$AAS?$AAP?$AAD?$AAB?$AA1?$AA4?$AA0?$AA?$AA@ 100eebc4     LIBCMTD:_pdblkup_.obj
 0002:00005bdc       ??_C@_0BB@KCIACLNC@PDBOpenValidate5?$AA@ 100eebdc     LIBCMTD:_pdblkup_.obj
 0002:00005bf0       ??_C@_01KDCPPGHE@r?$AA@    100eebf0     LIBCMTD:_pdblkup_.obj
 0002:00005bf4       ??_C@_0DF@NOINFFIM@f?3?2dd?2vctools?2crt?2vcruntime?2src?2@ 100eebf4     libvcruntimed:std_type_info.obj
 0002:00005c34       ??_C@_17CNPHIMPH@?$AA?$CF?$AAl?$AAs?$AA?$AA@ 100eec34     libvcruntimed:std_exception.obj
 0002:00005c40       ??_C@_1FK@OACNEHHA@?$AAt?$AAo?$AA?9?$AA?$DO?$AA_?$AAW?$AAh?$AAa?$AAt?$AA?5?$AA?$DN?$AA?$DN?$AA?5?$AAn?$AAu?$AAl?$AAl?$AAp?$AAt?$AAr?$AA?5?$AA?$CG?$AA?$CG?$AA?5?$AAt?$AAo?$AA?9?$AA?$DO?$AA_?$AAD?$AAo?$AAF@ 100eec40     libvcruntimed:std_exception.obj
 0002:00005cb0       ??_C@_1GK@GJEBHBCE@?$AAf?$AA?3?$AA?2?$AAd?$AAd?$AA?2?$AAv?$AAc?$AAt?$AAo?$AAo?$AAl?$AAs?$AA?2?$AAc?$AAr?$AAt?$AA?2?$AAv?$AAc?$AAr?$AAu?$AAn?$AAt?$AAi?$AAm?$AAe?$AA?2?$AAs?$AAr?$AAc?$AA?2@ 100eecb0     libvcruntimed:std_exception.obj
 0002:00005f38       ??_C@_08EHJDFFNH@__based?$CI?$AA@ 100eef38     libvcruntimed:undname.obj
 0002:00005f44       ??_C@_07KOLFKCDI@__cdecl?$AA@ 100eef44     libvcruntimed:undname.obj
 0002:00005f50       ??_C@_08GHMPAG@__pascal?$AA@ 100eef50     libvcruntimed:undname.obj
 0002:00005f5c       ??_C@_09IFJBGAPI@__stdcall?$AA@ 100eef5c     libvcruntimed:undname.obj
 0002:00005f68       ??_C@_0L@NPHFGOKO@__thiscall?$AA@ 100eef68     libvcruntimed:undname.obj
 0002:00005f78       ??_C@_0L@JMKHOMEK@__fastcall?$AA@ 100eef78     libvcruntimed:undname.obj
 0002:00005f88       ??_C@_0N@BCKKPABJ@__vectorcall?$AA@ 100eef88     libvcruntimed:undname.obj
 0002:00005f98       ??_C@_09HIJEGCPM@__clrcall?$AA@ 100eef98     libvcruntimed:undname.obj
 0002:00005fa4       ??_C@_06GHPCKEAG@__eabi?$AA@ 100eefa4     libvcruntimed:undname.obj
 0002:00005fac       ??_C@_07JOMMBBKO@__ptr64?$AA@ 100eefac     libvcruntimed:undname.obj
 0002:00005fb8       ??_C@_0L@PILCLIHE@__restrict?$AA@ 100eefb8     libvcruntimed:undname.obj
 0002:00005fc8       ??_C@_0M@GFIIJFMG@__unaligned?$AA@ 100eefc8     libvcruntimed:undname.obj
 0002:00005fd8       ??_C@_09DHDLOLLB@restrict?$CI?$AA@ 100eefd8     libvcruntimed:undname.obj
 0002:00005fe4       ??_C@_00CNPNBAHC@?$AA@     100eefe4     libvcruntimed:undname.obj
 0002:00005fe8       ??_C@_04NIHEBCM@?5new?$AA@ 100eefe8     libvcruntimed:undname.obj
 0002:00005ff0       ??_C@_07FPCDHGMM@?5delete?$AA@ 100eeff0     libvcruntimed:undname.obj
 0002:00005ffc       ??_C@_01NEMOKFLO@?$DN?$AA@ 100eeffc     libvcruntimed:undname.obj
 0002:00006000       ??_C@_02GPIOPFAK@?$DO?$DO?$AA@ 100ef000     libvcruntimed:undname.obj
 0002:00006004       ??_C@_02FODMEDOG@?$DM?$DM?$AA@ 100ef004     libvcruntimed:undname.obj
 0002:00006008       ??_C@_01DCLJPIOD@?$CB?$AA@ 100ef008     libvcruntimed:undname.obj
 0002:0000600c       ??_C@_02EGOFBIJA@?$DN?$DN?$AA@ 100ef00c     libvcruntimed:undname.obj
 0002:00006010       ??_C@_02FDNJECIE@?$CB?$DN?$AA@ 100ef010     libvcruntimed:undname.obj
 0002:00006014       ??_C@_02GPECMEKF@?$FL?$FN?$AA@ 100ef014     libvcruntimed:undname.obj
 0002:00006018       ??_C@_08LHJFAFGD@operator?$AA@ 100ef018     libvcruntimed:undname.obj
 0002:00006024       ??_C@_02HBOOOICD@?9?$DO?$AA@ 100ef024     libvcruntimed:undname.obj
 0002:00006028       ??_C@_01NBENCBCI@?$CK?$AA@ 100ef028     libvcruntimed:undname.obj
 0002:0000602c       ??_C@_02ECNGHCIF@?$CL?$CL?$AA@ 100ef02c     libvcruntimed:undname.obj
 0002:00006030       ??_C@_02BAABKJLB@?9?9?$AA@ 100ef030     libvcruntimed:undname.obj
 0002:00006034       ??_C@_01JOAMLHOP@?9?$AA@   100ef034     libvcruntimed:undname.obj
 0002:00006038       ??_C@_01MIFGBAGJ@?$CL?$AA@ 100ef038     libvcruntimed:undname.obj
 0002:0000603c       ??_C@_01HNPIGOCE@?$CG?$AA@ 100ef03c     libvcruntimed:undname.obj
 0002:00006040       ??_C@_03MNHNFDLC@?9?$DO?$CK?$AA@ 100ef040     libvcruntimed:undname.obj
 0002:00006044       ??_C@_01KMDKNFGN@?1?$AA@   100ef044     libvcruntimed:undname.obj
 0002:00006048       ??_C@_01FGNFDNOH@?$CF?$AA@ 100ef048     libvcruntimed:undname.obj
 0002:0000604c       ??_C@_01MNNFJEPP@?$DM?$AA@ 100ef04c     libvcruntimed:undname.obj
 0002:00006050       ??_C@_02EHCHHCKH@?$DM?$DN?$AA@ 100ef050     libvcruntimed:undname.obj
 0002:00006054       ??_C@_01PPODPGHN@?$DO?$AA@ 100ef054     libvcruntimed:undname.obj
 0002:00006058       ??_C@_02EEKDKGMJ@?$DO?$DN?$AA@ 100ef058     libvcruntimed:undname.obj
 0002:0000605c       ??_C@_01IHBHIGKO@?0?$AA@   100ef05c     libvcruntimed:undname.obj
 0002:00006060       ??_C@_02HCKGKOFO@?$CI?$CJ?$AA@ 100ef060     libvcruntimed:undname.obj
 0002:00006064       ??_C@_01PJKLJHI@?$HO?$AA@  100ef064     libvcruntimed:undname.obj
 0002:00006068       ??_C@_01JKBOJNNK@?$FO?$AA@ 100ef068     libvcruntimed:undname.obj
 0002:0000606c       ??_C@_01DNKMNLPK@?$HM?$AA@ 100ef06c     libvcruntimed:undname.obj
 0002:00006070       ??_C@_02PPKAJPJL@?$CG?$CG?$AA@ 100ef070     libvcruntimed:undname.obj
 0002:00006074       ??_C@_02NONPIBCD@?$HM?$HM?$AA@ 100ef074     libvcruntimed:undname.obj
 0002:00006078       ??_C@_02FPIMKNGF@?$CK?$DN?$AA@ 100ef078     libvcruntimed:undname.obj
 0002:0000607c       ??_C@_02FOEOMHFC@?$CL?$DN?$AA@ 100ef07c     libvcruntimed:undname.obj
 0002:00006080       ??_C@_02FKMDLLOA@?9?$DN?$AA@ 100ef080     libvcruntimed:undname.obj
 0002:00006084       ??_C@_02FJEHGPIO@?1?$DN?$AA@ 100ef084     libvcruntimed:undname.obj
 0002:00006088       ??_C@_02FENAOKFI@?$CF?$DN?$AA@ 100ef088     libvcruntimed:undname.obj
 0002:0000608c       ??_C@_03IKFCCPFF@?$DO?$DO?$DN?$AA@ 100ef08c     libvcruntimed:undname.obj
 0002:00006090       ??_C@_03CDNPDDLA@?$DM?$DM?$DN?$AA@ 100ef090     libvcruntimed:undname.obj
 0002:00006094       ??_C@_02FGJGFEAB@?$CG?$DN?$AA@ 100ef094     libvcruntimed:undname.obj
 0002:00006098       ??_C@_02DHLNPPGH@?$HM?$DN?$AA@ 100ef098     libvcruntimed:undname.obj
 0002:0000609c       ??_C@_02MHEGNOJ@?$FO?$DN?$AA@ 100ef09c     libvcruntimed:undname.obj
 0002:000060a0       ??_C@_09IFPLHPGF@?$GAvftable?8?$AA@ 100ef0a0     libvcruntimed:undname.obj
 0002:000060ac       ??_C@_09BLBHBJP@?$GAvbtable?8?$AA@ 100ef0ac     libvcruntimed:undname.obj
 0002:000060b8       ??_C@_07FEEIOKP@?$GAvcall?8?$AA@ 100ef0b8     libvcruntimed:undname.obj
 0002:000060c4       ??_C@_08LLFFHHDJ@?$GAtypeof?8?$AA@ 100ef0c4     libvcruntimed:undname.obj
 0002:000060d0       ??_C@_0BF@KDPPACIK@?$GAlocal?5static?5guard?8?$AA@ 100ef0d0     libvcruntimed:undname.obj
 0002:000060ec       ??_C@_08OBABFOLI@?$GAstring?8?$AA@ 100ef0ec     libvcruntimed:undname.obj
 0002:000060f8       ??_C@_0BD@JDLKDPAB@?$GAvbase?5destructor?8?$AA@ 100ef0f8     libvcruntimed:undname.obj
 0002:00006110       ??_C@_0BN@DEGPLNFK@?$GAvector?5deleting?5destructor?8?$AA@ 100ef110     libvcruntimed:undname.obj
 0002:00006134       ??_C@_0BO@OBMKPJIG@?$GAdefault?5constructor?5closure?8?$AA@ 100ef134     libvcruntimed:undname.obj
 0002:00006158       ??_C@_0BN@IMDCHIKM@?$GAscalar?5deleting?5destructor?8?$AA@ 100ef158     libvcruntimed:undname.obj
 0002:0000617c       ??_C@_0BO@PFGOCPJJ@?$GAvector?5constructor?5iterator?8?$AA@ 100ef17c     libvcruntimed:undname.obj
 0002:000061a0       ??_C@_0BN@LFPFMEDL@?$GAvector?5destructor?5iterator?8?$AA@ 100ef1a0     libvcruntimed:undname.obj
 0002:000061c4       ??_C@_0CE@IKBNEHA@?$GAvector?5vbase?5constructor?5iterat@ 100ef1c4     libvcruntimed:undname.obj
 0002:000061f0       ??_C@_0BL@NILFHHPC@?$GAvirtual?5displacement?5map?8?$AA@ 100ef1f0     libvcruntimed:undname.obj
 0002:00006210       ??_C@_0CB@JONCMFFK@?$GAeh?5vector?5constructor?5iterator?8@ 100ef210     libvcruntimed:undname.obj
 0002:00006238       ??_C@_0CA@GCEOPDGL@?$GAeh?5vector?5destructor?5iterator?8?$AA@ 100ef238     libvcruntimed:undname.obj
 0002:00006260       ??_C@_0CH@OOJPLCPH@?$GAeh?5vector?5vbase?5constructor?5ite@ 100ef260     libvcruntimed:undname.obj
 0002:00006290       ??_C@_0BL@LLKPOHJI@?$GAcopy?5constructor?5closure?8?$AA@ 100ef290     libvcruntimed:undname.obj
 0002:000062b0       ??_C@_0BA@KBCDOMBN@?$GAudt?5returning?8?$AA@ 100ef2b0     libvcruntimed:undname.obj
 0002:000062c4       ??_C@_03KLGMFNMG@?$GAEH?$AA@ 100ef2c4     libvcruntimed:undname.obj
 0002:000062c8       ??_C@_05KHLCHHI@?$GARTTI?$AA@ 100ef2c8     libvcruntimed:undname.obj
 0002:000062d0       ??_C@_0BA@KKLDJDLB@?$GAlocal?5vftable?8?$AA@ 100ef2d0     libvcruntimed:undname.obj
 0002:000062e4       ??_C@_0CE@IIHCMGGL@?$GAlocal?5vftable?5constructor?5closu@ 100ef2e4     libvcruntimed:undname.obj
 0002:00006310       ??_C@_06FHBGPFGH@?5new?$FL?$FN?$AA@ 100ef310     libvcruntimed:undname.obj
 0002:00006318       ??_C@_09LBNFPBCA@?5delete?$FL?$FN?$AA@ 100ef318     libvcruntimed:undname.obj
 0002:00006324       ??_C@_0P@HJKNJFNN@?$GAomni?5callsig?8?$AA@ 100ef324     libvcruntimed:undname.obj
 0002:00006338       ??_C@_0BL@CNOONJFP@?$GAplacement?5delete?5closure?8?$AA@ 100ef338     libvcruntimed:undname.obj
 0002:00006358       ??_C@_0BN@CKNJLHMB@?$GAplacement?5delete?$FL?$FN?5closure?8?$AA@ 100ef358     libvcruntimed:undname.obj
 0002:0000637c       ??_C@_0CG@CFDHKGGD@?$GAmanaged?5vector?5constructor?5iter@ 100ef37c     libvcruntimed:undname.obj
 0002:000063ac       ??_C@_0CF@IMGKMJNO@?$GAmanaged?5vector?5destructor?5itera@ 100ef3ac     libvcruntimed:undname.obj
 0002:000063d8       ??_C@_0CG@HLDDJMAG@?$GAeh?5vector?5copy?5constructor?5iter@ 100ef3d8     libvcruntimed:undname.obj
 0002:00006408       ??_C@_0CM@FCBBDIGB@?$GAeh?5vector?5vbase?5copy?5constructo@ 100ef408     libvcruntimed:undname.obj
 0002:0000643c       ??_C@_0BL@CLIPGLGB@?$GAdynamic?5initializer?5for?5?8?$AA@ 100ef43c     libvcruntimed:undname.obj
 0002:0000645c       ??_C@_0CB@PDBIFEP@?$GAdynamic?5atexit?5destructor?5for?5?8@ 100ef45c     libvcruntimed:undname.obj
 0002:00006484       ??_C@_0CD@CGAJBKEJ@?$GAvector?5copy?5constructor?5iterato@ 100ef484     libvcruntimed:undname.obj
 0002:000064b0       ??_C@_0CJ@GJELGAMM@?$GAvector?5vbase?5copy?5constructor?5i@ 100ef4b0     libvcruntimed:undname.obj
 0002:000064e4       ??_C@_0CL@FGIJHLCE@?$GAmanaged?5vector?5copy?5constructor@ 100ef4e4     libvcruntimed:undname.obj
 0002:00006518       ??_C@_0BM@PMGGMLDN@?$GAlocal?5static?5thread?5guard?8?$AA@ 100ef518     libvcruntimed:undname.obj
 0002:0000653c       ??_C@_0N@BDNMDMOL@operator?5?$CC?$CC?5?$AA@ 100ef53c     libvcruntimed:undname.obj
 0002:0000654c       ??_C@_0BC@DAFEJGAK@?5Type?5Descriptor?8?$AA@ 100ef54c     libvcruntimed:undname.obj
 0002:00006564       ??_C@_0BM@LDKODKLH@?5Base?5Class?5Descriptor?5at?5?$CI?$AA@ 100ef564     libvcruntimed:undname.obj
 0002:00006588       ??_C@_0BD@LGICGFMM@?5Base?5Class?5Array?8?$AA@ 100ef588     libvcruntimed:undname.obj
 0002:000065a0       ??_C@_0BN@MECKDCOJ@?5Class?5Hierarchy?5Descriptor?8?$AA@ 100ef5a0     libvcruntimed:undname.obj
 0002:000065c4       ??_C@_0BK@CFCOFLF@?5Complete?5Object?5Locator?8?$AA@ 100ef5c4     libvcruntimed:undname.obj
 0002:000065e4       ??_C@_04HEJADOOB@CV?3?5?$AA@ 100ef5e4     libvcruntimed:undname.obj
 0002:000065ec       ??_C@_02MOLJINC@?3?3?$AA@  100ef5ec     libvcruntimed:undname.obj
 0002:000065f0       ??_C@_0BE@JAEOCHPE@template?9parameter?9?$AA@ 100ef5f0     libvcruntimed:undname.obj
 0002:00006608       ??_C@_0O@KHGCOMHP@generic?9type?9?$AA@ 100ef608     libvcruntimed:undname.obj
 0002:00006618       ??_C@_01NLNLIGKH@?$GA?$AA@ 100ef618     libvcruntimed:undname.obj
 0002:0000661c       ??_C@_01GEODFPGF@?8?$AA@   100ef61c     libvcruntimed:undname.obj
 0002:00006620       ??_C@_0BG@JNJLAMPM@?$GAanonymous?5namespace?8?$AA@ 100ef620     libvcruntimed:undname.obj
 0002:0000663c       ??_C@_02OHHJMEON@?8?8?$AA@ 100ef63c     libvcruntimed:undname.obj
 0002:00006640       ??_C@_0BN@IBLMMFAP@?$GAnon?9type?9template?9parameter?$AA@ 100ef640     libvcruntimed:undname.obj
 0002:00006664       ??_C@_04GKJNKENE@void?$AA@ 100ef664     libvcruntimed:undname.obj
 0002:0000666c       ??_C@_0BE@EODMJLIF@?$GAtemplate?9parameter?$AA@ 100ef66c     libvcruntimed:undname.obj
 0002:00006684       ??_C@_03KHICJKCI@?4?4?4?$AA@ 100ef684     libvcruntimed:undname.obj
 0002:00006688       ??_C@_04HIBGFPH@NULL?$AA@  100ef688     libvcruntimed:undname.obj
 0002:00006690       ??_C@_02DPKJAMEF@?$CFd?$AA@ 100ef690     libvcruntimed:undname.obj
 0002:00006694       ??_C@_0BK@IHCCFNEL@?$GAtemplate?9type?9parameter?9?$AA@ 100ef694     libvcruntimed:undname.obj
 0002:000066b4       ??_C@_0BK@OFCNNNKO@?$GAgeneric?9class?9parameter?9?$AA@ 100ef6b4     libvcruntimed:undname.obj
 0002:000066d4       ??_C@_0BL@NGJBLFIL@?$GAgeneric?9method?9parameter?9?$AA@ 100ef6d4     libvcruntimed:undname.obj
 0002:000066f4       ??_C@_03OPGICMGF@?$HN?8?5?$AA@ 100ef6f4     libvcruntimed:undname.obj
 0002:000066f8       ??_C@_02IGFCGPIL@?$HN?8?$AA@ 100ef6f8     libvcruntimed:undname.obj
 0002:000066fc       ??_C@_01CLKCMJKC@?5?$AA@   100ef6fc     libvcruntimed:undname.obj
 0002:00006700       ??_C@_0N@CBHHHENL@?$GAvtordispex?$HL?$AA@ 100ef700     libvcruntimed:undname.obj
 0002:00006710       ??_C@_0L@GHPFDFH@?$GAvtordisp?$HL?$AA@ 100ef710     libvcruntimed:undname.obj
 0002:00006720       ??_C@_0L@HNGCOGAE@?$GAadjustor?$HL?$AA@ 100ef720     libvcruntimed:undname.obj
 0002:00006730       ??_C@_0CB@KJDOOODE@?$GAlocal?5static?5destructor?5helper?8@ 100ef730     libvcruntimed:undname.obj
 0002:00006758       ??_C@_0DB@ILEFOCIJ@?$GAtemplate?5static?5data?5member?5con@ 100ef758     libvcruntimed:undname.obj
 0002:00006794       ??_C@_0DA@HGFJFBBE@?$GAtemplate?5static?5data?5member?5des@ 100ef794     libvcruntimed:undname.obj
 0002:000067d0       ??_C@_07PGOEDBHP@static?5?$AA@ 100ef7d0     libvcruntimed:undname.obj
 0002:000067dc       ??_C@_08NIEOINHE@virtual?5?$AA@ 100ef7dc     libvcruntimed:undname.obj
 0002:000067e8       ??_C@_09LAPHOOG@private?3?5?$AA@ 100ef7e8     libvcruntimed:undname.obj
 0002:000067f4       ??_C@_0M@GAIFPFIP@protected?3?5?$AA@ 100ef7f4     libvcruntimed:undname.obj
 0002:00006804       ??_C@_08GPDDCMKI@public?3?5?$AA@ 100ef804     libvcruntimed:undname.obj
 0002:00006810       ??_C@_08KJLFOPNE@?$FLthunk?$FN?3?$AA@ 100ef810     libvcruntimed:undname.obj
 0002:0000681c       ??_C@_0M@DHNBOJMP@extern?5?$CCC?$CC?5?$AA@ 100ef81c     libvcruntimed:undname.obj
 0002:0000682c       ??_C@_02KCKGHPCA@?$CJ?5?$AA@ 100ef82c     libvcruntimed:undname.obj
 0002:00006830       ??_C@_05CIHEBHNO@char?5?$AA@ 100ef830     libvcruntimed:undname.obj
 0002:00006838       ??_C@_06EHJMALKF@short?5?$AA@ 100ef838     libvcruntimed:undname.obj
 0002:00006840       ??_C@_04LAHKHJMA@int?5?$AA@ 100ef840     libvcruntimed:undname.obj
 0002:00006848       ??_C@_05CJIMAING@long?5?$AA@ 100ef848     libvcruntimed:undname.obj
 0002:00006850       ??_C@_09EBBEKKIH@unsigned?5?$AA@ 100ef850     libvcruntimed:undname.obj
 0002:0000685c       ??_C@_05BEFAKPML@void?5?$AA@ 100ef85c     libvcruntimed:undname.obj
 0002:00006864       ??_C@_08PABEKFH@volatile?$AA@ 100ef864     libvcruntimed:undname.obj
 0002:00006870       ??_C@_0BA@LKIJLKPP@std?3?3nullptr_t?5?$AA@ 100ef870     libvcruntimed:undname.obj
 0002:00006884       ??_C@_0P@GCOCNKDM@std?3?3nullptr_t?$AA@ 100ef884     libvcruntimed:undname.obj
 0002:00006898       ??_C@_0L@EGPHHEKN@?$DMellipsis?$DO?$AA@ 100ef898     libvcruntimed:undname.obj
 0002:000068a8       ??_C@_04EENFHACM@?0?4?4?4?$AA@ 100ef8a8     libvcruntimed:undname.obj
 0002:000068b0       ??_C@_0M@ELJOJFFH@?0?$DMellipsis?$DO?$AA@ 100ef8b0     libvcruntimed:undname.obj
 0002:000068c0       ??_C@_07HDJPLPEK@?5throw?$CI?$AA@ 100ef8c0     libvcruntimed:undname.obj
 0002:000068cc       ??_C@_03PBJBJNON@cpu?$AA@  100ef8cc     libvcruntimed:undname.obj
 0002:000068d0       ??_C@_03DCBBJBAA@amp?$AA@  100ef8d0     libvcruntimed:undname.obj
 0002:000068d4       ??_C@_02KEGNLNML@?0?5?$AA@ 100ef8d4     libvcruntimed:undname.obj
 0002:000068d8       ??_C@_04ENMBGAPA@char?$AA@ 100ef8d8     libvcruntimed:undname.obj
 0002:000068e0       ??_C@_05BFKKPKCG@short?$AA@ 100ef8e0     libvcruntimed:undname.obj
 0002:000068e8       ??_C@_03JBIPMCLC@int?$AA@  100ef8e8     libvcruntimed:undname.obj
 0002:000068ec       ??_C@_04GOKPGOLB@long?$AA@ 100ef8ec     libvcruntimed:undname.obj
 0002:000068f4       ??_C@_05KNFBNCOH@float?$AA@ 100ef8f4     libvcruntimed:undname.obj
 0002:000068fc       ??_C@_06BNJCAIGJ@double?$AA@ 100ef8fc     libvcruntimed:undname.obj
 0002:00006904       ??_C@_06EBGKOKIG@__int8?$AA@ 100ef904     libvcruntimed:undname.obj
 0002:0000690c       ??_C@_07ICFHOGAF@__int16?$AA@ 100ef90c     libvcruntimed:undname.obj
 0002:00006918       ??_C@_07OFLPPHGP@__int32?$AA@ 100ef918     libvcruntimed:undname.obj
 0002:00006924       ??_C@_07LFCOJCAC@__int64?$AA@ 100ef924     libvcruntimed:undname.obj
 0002:00006930       ??_C@_08GAHOLHEO@__int128?$AA@ 100ef930     libvcruntimed:undname.obj
 0002:0000693c       ??_C@_09EEKGDCPH@?$DMunknown?$DO?$AA@ 100ef93c     libvcruntimed:undname.obj
 0002:00006948       ??_C@_08HBIPOFJB@char16_t?$AA@ 100ef948     libvcruntimed:undname.obj
 0002:00006954       ??_C@_08IECNCBKG@char32_t?$AA@ 100ef954     libvcruntimed:undname.obj
 0002:00006960       ??_C@_07CLGGIAMF@wchar_t?$AA@ 100ef960     libvcruntimed:undname.obj
 0002:0000696c       ??_C@_06GCICPBLB@__w64?5?$AA@ 100ef96c     libvcruntimed:undname.obj
 0002:00006974       ??_C@_07NFANNNEC@UNKNOWN?$AA@ 100ef974     libvcruntimed:undname.obj
 0002:00006980       ??_C@_07EDHNAJHC@signed?5?$AA@ 100ef980     libvcruntimed:undname.obj
 0002:0000698c       ??_C@_05BNCCCJPP@const?$AA@ 100ef98c     libvcruntimed:undname.obj
 0002:00006994       ??_C@_09EFNPDFFP@?5volatile?$AA@ 100ef994     libvcruntimed:undname.obj
 0002:000069a0       ??_C@_0P@GCIFDJCJ@?$GAunknown?5ecsu?8?$AA@ 100ef9a0     libvcruntimed:undname.obj
 0002:000069b4       ??_C@_06MOJHIBMG@union?5?$AA@ 100ef9b4     libvcruntimed:undname.obj
 0002:000069bc       ??_C@_07DIBCDNGL@struct?5?$AA@ 100ef9bc     libvcruntimed:undname.obj
 0002:000069c8       ??_C@_06LJBABKPM@class?5?$AA@ 100ef9c8     libvcruntimed:undname.obj
 0002:000069d0       ??_C@_08KOFANOFK@coclass?5?$AA@ 100ef9d0     libvcruntimed:undname.obj
 0002:000069dc       ??_C@_0N@DLIEFKNA@cointerface?5?$AA@ 100ef9dc     libvcruntimed:undname.obj
 0002:000069ec       ??_C@_05LJGMCFOG@enum?5?$AA@ 100ef9ec     libvcruntimed:undname.obj
 0002:000069f4       ??_C@_09GAIEOBLP@volatile?5?$AA@ 100ef9f4     libvcruntimed:undname.obj
 0002:00006a00       ??_C@_06LIJLOJAG@const?5?$AA@ 100efa00     libvcruntimed:undname.obj
 0002:00006a08       ??_C@_02KJPKDIBN@?$CG?5?$AA@ 100efa08     libvcruntimed:undname.obj
 0002:00006a0c       ??_C@_03PCKGMOPB@?$CG?$CG?5?$AA@ 100efa0c     libvcruntimed:undname.obj
 0002:00006a10       ??_C@_0M@EALIELKG@cli?3?3array?$DM?$AA@ 100efa10     libvcruntimed:undname.obj
 0002:00006a20       ??_C@_0O@GKABPPIF@cli?3?3pin_ptr?$DM?$AA@ 100efa20     libvcruntimed:undname.obj
 0002:00006a30       ??_C@_02GOGNNPBN@?$CJ?$FL?$AA@ 100efa30     libvcruntimed:undname.obj
 0002:00006a34       ??_C@_06EEGAIFAK@?$HLflat?$HN?$AA@ 100efa34     libvcruntimed:undname.obj
 0002:00006a3c       ??_C@_05JIBOFOHK@?$HLfor?5?$AA@ 100efa3c     libvcruntimed:undname.obj
 0002:00006a44       ??_C@_02MDINNEEG@s?5?$AA@  100efa44     libvcruntimed:undname.obj
 0002:00006a4c       ??_7DNameNode@@6B@         100efa4c     libvcruntimed:undname.obj
 0002:00006a60       ??_7charNode@@6B@          100efa60     libvcruntimed:undname.obj
 0002:00006a74       ??_7pcharNode@@6B@         100efa74     libvcruntimed:undname.obj
 0002:00006a88       ??_7pDNameNode@@6B@        100efa88     libvcruntimed:undname.obj
 0002:00006a9c       ??_7DNameStatusNode@@6B@   100efa9c     libvcruntimed:undname.obj
 0002:00006ab0       ??_7pairNode@@6B@          100efab0     libvcruntimed:undname.obj
 0002:00006ac0       ??_C@_04OKOHEJBO@?5?$DP?$DP?5?$AA@ 100efac0     libvcruntimed:undname.obj
 0002:00006ac8       ??_C@_0DN@JAECLCAP@f?3?2dd?2vctools?2crt?2vcruntime?2src?2@ 100efac8     libvcruntimed:per_thread_data.obj
 0002:00006b28       ??_C@_1BC@DNHGCMLG@?$AAa?$AAd?$AAv?$AAa?$AAp?$AAi?$AA3?$AA2?$AA?$AA@ 100efb28     libvcruntimed:winapi_downlevel.obj
 0002:00006b40       ??_C@_1DM@KHCHBNEB@?$AAa?$AAp?$AAi?$AA?9?$AAm?$AAs?$AA?9?$AAw?$AAi?$AAn?$AA?9?$AAc?$AAo?$AAr?$AAe?$AA?9?$AAf?$AAi?$AAb?$AAe?$AAr?$AAs?$AA?9?$AAl?$AA1?$AA?9?$AA1?$AA?9?$AA1?$AA?$AA@ 100efb40     libvcruntimed:winapi_downlevel.obj
 0002:00006b88       ??_C@_1DK@LPPGFMPP@?$AAa?$AAp?$AAi?$AA?9?$AAm?$AAs?$AA?9?$AAw?$AAi?$AAn?$AA?9?$AAc?$AAo?$AAr?$AAe?$AA?9?$AAs?$AAy?$AAn?$AAc?$AAh?$AA?9?$AAl?$AA1?$AA?9?$AA2?$AA?9?$AA0?$AA?$AA@ 100efb88     libvcruntimed:winapi_downlevel.obj
 0002:00006bd0       ??_C@_1BC@GDMECMAK@?$AAk?$AAe?$AAr?$AAn?$AAe?$AAl?$AA3?$AA2?$AA?$AA@ 100efbd0     libvcruntimed:winapi_downlevel.obj
 0002:00006be8       ??_C@_1EM@LBIFGLGH@?$AAc?$AAa?$AAc?$AAh?$AAe?$AAd?$AA_?$AAh?$AAa?$AAn?$AAd?$AAl?$AAe?$AA?5?$AA?$DN?$AA?$DN?$AA?5?$AAI?$AAN?$AAV?$AAA?$AAL?$AAI?$AAD?$AA_?$AAH?$AAA?$AAN?$AAD?$AAL?$AAE?$AA_@ 100efbe8     libvcruntimed:winapi_downlevel.obj
 0002:00006c48       ??_C@_1HM@FGPKDEPG@?$AAf?$AA?3?$AA?2?$AAd?$AAd?$AA?2?$AAv?$AAc?$AAt?$AAo?$AAo?$AAl?$AAs?$AA?2?$AAc?$AAr?$AAt?$AA?2?$AAv?$AAc?$AAr?$AAu?$AAn?$AAt?$AAi?$AAm?$AAe?$AA?2?$AAs?$AAr?$AAc?$AA?2@ 100efc48     libvcruntimed:winapi_downlevel.obj
 0002:00006cdc       ??_C@_1DI@MAHEDLDB@?$AAc?$AAa?$AAc?$AAh?$AAe?$AAd?$AA_?$AAh?$AAa?$AAn?$AAd?$AAl?$AAe?$AA?5?$AA?$DN?$AA?$DN?$AA?5?$AAn?$AAe?$AAw?$AA_?$AAh?$AAa?$AAn?$AAd?$AAl?$AAe?$AA?$AA@ 100efcdc     libvcruntimed:winapi_downlevel.obj
 0002:00006d20       ??_C@_1FC@IBNCGNKL@?$AAc?$AAa?$AAc?$AAh?$AAe?$AAd?$AA_?$AAf?$AAp?$AA?5?$AA?$DN?$AA?$DN?$AA?5?$AAi?$AAn?$AAv?$AAa?$AAl?$AAi?$AAd?$AA_?$AAf?$AAu?$AAn?$AAc?$AAt?$AAi?$AAo?$AAn?$AA_?$AAs?$AAe@ 100efd20     libvcruntimed:winapi_downlevel.obj
 0002:00006d84       ??_C@_1CI@GDJBAGLP@?$AAc?$AAa?$AAc?$AAh?$AAe?$AAd?$AA_?$AAf?$AAp?$AA?5?$AA?$DN?$AA?$DN?$AA?5?$AAn?$AAe?$AAw?$AA_?$AAf?$AAp?$AA?$AA@ 100efd84     libvcruntimed:winapi_downlevel.obj
 0002:00006db8       ??_C@_0O@BAMBGLIE@EventRegister?$AA@ 100efdb8     libvcruntimed:winapi_downlevel.obj
 0002:00006dcc       ??_C@_0BE@BJEEGHGK@EventSetInformation?$AA@ 100efdcc     libvcruntimed:winapi_downlevel.obj
 0002:00006de8       ??_C@_0BA@FAKLIPIC@EventUnregister?$AA@ 100efde8     libvcruntimed:winapi_downlevel.obj
 0002:00006e00       ??_C@_0BD@PKLHJPHD@EventWriteTransfer?$AA@ 100efe00     libvcruntimed:winapi_downlevel.obj
 0002:00006e24       ??_C@_08KNHFBNJ@FlsAlloc?$AA@ 100efe24     libvcruntimed:winapi_downlevel.obj
 0002:00006e3c       ??_C@_07PEJMOBNF@FlsFree?$AA@ 100efe3c     libvcruntimed:winapi_downlevel.obj
 0002:00006e54       ??_C@_0M@GDNOONDI@FlsGetValue?$AA@ 100efe54     libvcruntimed:winapi_downlevel.obj
 0002:00006e70       ??_C@_0M@JCPCPOEF@FlsSetValue?$AA@ 100efe70     libvcruntimed:winapi_downlevel.obj
 0002:00006e8c       ??_C@_0BM@HCFOFFN@InitializeCriticalSectionEx?$AA@ 100efe8c     libvcruntimed:winapi_downlevel.obj
 0002:00006eb4       __half                     100efeb4     libucrtd:pow.obj
 0002:00006f60       ??_C@_1BA@GLMCNLEM@?$AAW?$AAa?$AAr?$AAn?$AAi?$AAn?$AAg?$AA?$AA@ 100eff60     libucrtd:dbgrpt.obj
 0002:00006f74       ??_C@_1M@ILHOPKA@?$AAE?$AAr?$AAr?$AAo?$AAr?$AA?$AA@ 100eff74     libucrtd:dbgrpt.obj
 0002:00006f84       ??_C@_1CC@CGHMNGDG@?$AAA?$AAs?$AAs?$AAe?$AAr?$AAt?$AAi?$AAo?$AAn?$AA?5?$AAF?$AAa?$AAi?$AAl?$AAe?$AAd?$AA?$AA@ 100eff84     libucrtd:dbgrpt.obj
 0002:00006fb0       ??_C@_1OG@PMPPFHAF@?$AA?6?$AA?6?$AAF?$AAo?$AAr?$AA?5?$AAi?$AAn?$AAf?$AAo?$AAr?$AAm?$AAa?$AAt?$AAi?$AAo?$AAn?$AA?5?$AAo?$AAn?$AA?5?$AAh?$AAo?$AAw?$AA?5?$AAy?$AAo?$AAu?$AAr?$AA?5?$AAp?$AAr@ 100effb0     libucrtd:dbgrpt.obj
 0002:000070c8       ??_C@_1MG@LJLILFFD@?$AAD?$AAe?$AAb?$AAu?$AAg?$AA?5?$AA?$CF?$AAl?$AAs?$AA?$CB?$AA?6?$AA?6?$AAP?$AAr?$AAo?$AAg?$AAr?$AAa?$AAm?$AA?3?$AA?5?$AA?$CF?$AAh?$AAs?$AA?$CF?$AAl?$AAs?$AA?$CF?$AAl?$AAs?$AA?$CF?$AAh@ 100f00c8     libucrtd:dbgrpt.obj
 0002:000071b8       ??_C@_1MG@OODCADGL@?$AAD?$AAe?$AAb?$AAu?$AAg?$AA?5?$AA?$CF?$AAl?$AAs?$AA?$CB?$AA?6?$AA?6?$AAP?$AAr?$AAo?$AAg?$AAr?$AAa?$AAm?$AA?3?$AA?5?$AA?$CF?$AAl?$AAs?$AA?$CF?$AAl?$AAs?$AA?$CF?$AAl?$AAs?$AA?$CF?$AAl@ 100f01b8     libucrtd:dbgrpt.obj
 0002:000072a8       ??_C@_0BH@DNAGHKFM@?$DMprogram?5name?5unknown?$DO?$AA@ 100f02a8     libucrtd:dbgrpt.obj
 0002:000072c4       ??_C@_1CO@EAEJAADC@?$AA?$DM?$AAp?$AAr?$AAo?$AAg?$AAr?$AAa?$AAm?$AA?5?$AAn?$AAa?$AAm?$AAe?$AA?5?$AAu?$AAn?$AAk?$AAn?$AAo?$AAw?$AAn?$AA?$DO?$AA?$AA@ 100f02c4     libucrtd:dbgrpt.obj
 0002:00007300       ??_C@_1HI@OFEHGPPC@?$AAm?$AAo?$AAd?$AAe?$AA?5?$AA?$DN?$AA?$DN?$AA?5?$AA_?$AAC?$AAR?$AAT?$AA_?$AAR?$AAP?$AAT?$AAH?$AAO?$AAO?$AAK?$AA_?$AAI?$AAN?$AAS?$AAT?$AAA?$AAL?$AAL?$AA?5?$AA?$HM?$AA?$HM?$AA?5@ 100f0300     libucrtd:dbgrpt.obj
 0002:00007390       ??_C@_1FO@GMJDLAJD@?$AAm?$AAi?$AAn?$AAk?$AAe?$AAr?$AAn?$AAe?$AAl?$AA?2?$AAc?$AAr?$AAt?$AAs?$AA?2?$AAu?$AAc?$AAr?$AAt?$AA?2?$AAs?$AAr?$AAc?$AA?2?$AAa?$AAp?$AAp?$AAc?$AAr?$AAt?$AA?2?$AAm@ 100f0390     libucrtd:dbgrpt.obj
 0002:00007400       ??_C@_1CO@FFNKOJOG@?$AAc?$AAo?$AAm?$AAm?$AAo?$AAn?$AA_?$AAs?$AAe?$AAt?$AA_?$AAr?$AAe?$AAp?$AAo?$AAr?$AAt?$AA_?$AAh?$AAo?$AAo?$AAk?$AA?$AA@ 100f0400     libucrtd:dbgrpt.obj
 0002:00007438       ??_C@_1CI@ONEHFNHD@?$AAn?$AAe?$AAw?$AA_?$AAh?$AAo?$AAo?$AAk?$AA?5?$AA?$CB?$AA?$DN?$AA?5?$AAn?$AAu?$AAl?$AAl?$AAp?$AAt?$AAr?$AA?$AA@ 100f0438     libucrtd:dbgrpt.obj
 0002:00007468       ??_C@_1CM@EHMOGBJJ@?$AAc?$AAo?$AAm?$AAm?$AAo?$AAn?$AA_?$AAm?$AAe?$AAs?$AAs?$AAa?$AAg?$AAe?$AA_?$AAw?$AAi?$AAn?$AAd?$AAo?$AAw?$AA?$AA@ 100f0468     libucrtd:dbgrpt.obj
 0002:000074a0       ??_C@_1PE@ECNALGCA@?$AAt?$AAr?$AAa?$AAi?$AAt?$AAs?$AA?3?$AA?3?$AAt?$AAc?$AAs?$AAc?$AAp?$AAy?$AA_?$AAs?$AA?$CI?$AAp?$AAr?$AAo?$AAg?$AAr?$AAa?$AAm?$AA_?$AAn?$AAa?$AAm?$AAe?$AA?0?$AA?5?$AA?$CI@ 100f04a0     libucrtd:dbgrpt.obj
 0002:000075c8       ??_C@_11LOCGONAA@?$AA?$AA@ 100f05c8     libucrtd:dbgrpt.obj
 0002:000075cc       ??_C@_1BK@PEDCIPMA@?$AAE?$AAx?$AAp?$AAr?$AAe?$AAs?$AAs?$AAi?$AAo?$AAn?$AA?3?$AA?5?$AA?$AA@ 100f05cc     libucrtd:dbgrpt.obj
 0002:000075ec       ??_C@_15IABLJNFO@?$AA?6?$AA?6?$AA?$AA@ 100f05ec     libucrtd:dbgrpt.obj
 0002:000075f4       ??_C@_1BA@GLLGCPCK@?$AA?6?$AAL?$AAi?$AAn?$AAe?$AA?3?$AA?5?$AA?$AA@ 100f05f4     libucrtd:dbgrpt.obj
 0002:00007608       ??_C@_1BA@LNHECFIM@?$AA?6?$AAF?$AAi?$AAl?$AAe?$AA?3?$AA?5?$AA?$AA@ 100f0608     libucrtd:dbgrpt.obj
 0002:0000761c       ??_C@_17LGKOMLJ@?$AA?4?$AA?4?$AA?4?$AA?$AA@ 100f061c     libucrtd:dbgrpt.obj
 0002:00007628       ??_C@_1BE@CGCJKGHI@?$AA?6?$AAM?$AAo?$AAd?$AAu?$AAl?$AAe?$AA?3?$AA?5?$AA?$AA@ 100f0628     libucrtd:dbgrpt.obj
 0002:00007640       ??_C@_1BI@KALLJECN@?$AA?$CI?$AA?$CK?$AA_?$AAe?$AAr?$AAr?$AAn?$AAo?$AA?$CI?$AA?$CJ?$AA?$CJ?$AA?$AA@ 100f0640     libucrtd:dbgrpt.obj
 0002:00007660       ??_C@_1JM@IBOIJEOO@?$AAw?$AAc?$AAs?$AAc?$AAp?$AAy?$AA_?$AAs?$AA?$CI?$AAm?$AAe?$AAs?$AAs?$AAa?$AAg?$AAe?$AA_?$AAb?$AAu?$AAf?$AAf?$AAe?$AAr?$AA?0?$AA?5?$AA4?$AA0?$AA9?$AA6?$AA?0?$AA?5?$AAL@ 100f0660     libucrtd:dbgrpt.obj
 0002:00007720       ??_C@_1FG@BBOLDHGF@?$AA_?$AAC?$AAr?$AAt?$AAD?$AAb?$AAg?$AAR?$AAe?$AAp?$AAo?$AAr?$AAt?$AA?3?$AA?5?$AAS?$AAt?$AAr?$AAi?$AAn?$AAg?$AA?5?$AAt?$AAo?$AAo?$AA?5?$AAl?$AAo?$AAn?$AAg?$AA?5?$AAo@ 100f0720     libucrtd:dbgrpt.obj
 0002:00007788       ??_C@_1EK@MBDPDCGA@?$AAM?$AAi?$AAc?$AAr?$AAo?$AAs?$AAo?$AAf?$AAt?$AA?5?$AAV?$AAi?$AAs?$AAu?$AAa?$AAl?$AA?5?$AAC?$AA?$CL?$AA?$CL?$AA?5?$AAR?$AAu?$AAn?$AAt?$AAi?$AAm?$AAe?$AA?5?$AAL?$AAi?$AAb@ 100f0788     libucrtd:dbgrpt.obj
 0002:000077e8       ??_C@_1FK@BNNDOGMN@?$AA?$CI?$AA?$CC?$AAT?$AAh?$AAe?$AA?5?$AAh?$AAo?$AAo?$AAk?$AA?5?$AAf?$AAu?$AAn?$AAc?$AAt?$AAi?$AAo?$AAn?$AA?5?$AAi?$AAs?$AA?5?$AAn?$AAo?$AAt?$AA?5?$AAi?$AAn?$AA?5?$AAt?$AAh@ 100f07e8     libucrtd:dbgrpt.obj
 0002:00007854       ??_C@_0CP@HDJNPEFB@minkernel?2crts?2ucrt?2src?2appcrt?2m@ 100f0854     libucrtd:dbgrpt.obj
 0002:000079a8       ??_C@_03KHJOGHMM@exp?$AA@  100f09a8     libucrtd:fpexcept.obj
 0002:000079ac       ??_C@_03JGHBODFD@pow?$AA@  100f09ac     libucrtd:fpexcept.obj
 0002:000079b0       ??_C@_03MGHMBJCF@log?$AA@  100f09b0     libucrtd:fpexcept.obj
 0002:000079b4       ??_C@_05HGHHAHAP@log10?$AA@ 100f09b4     libucrtd:fpexcept.obj
 0002:000079bc       ??_C@_04COOMCNPB@sinh?$AA@ 100f09bc     libucrtd:fpexcept.obj
 0002:000079c4       ??_C@_04HPJJNFIM@cosh?$AA@ 100f09c4     libucrtd:fpexcept.obj
 0002:000079cc       ??_C@_04FJHINJAO@tanh?$AA@ 100f09cc     libucrtd:fpexcept.obj
 0002:000079d4       ??_C@_04FIHNOPOL@asin?$AA@ 100f09d4     libucrtd:fpexcept.obj
 0002:000079dc       ??_C@_04PDIFKINK@acos?$AA@ 100f09dc     libucrtd:fpexcept.obj
 0002:000079e4       ??_C@_04MLLJIGOK@atan?$AA@ 100f09e4     libucrtd:fpexcept.obj
 0002:000079ec       ??_C@_05KNGEOGJB@atan2?$AA@ 100f09ec     libucrtd:fpexcept.obj
 0002:000079f4       ??_C@_04EIAKFFMI@sqrt?$AA@ 100f09f4     libucrtd:fpexcept.obj
 0002:000079fc       ??_C@_03BLEJJJBH@sin?$AA@  100f09fc     libucrtd:fpexcept.obj
 0002:00007a00       ??_C@_03LALBNOCG@cos?$AA@  100f0a00     libucrtd:fpexcept.obj
 0002:00007a04       ??_C@_03IIINPABG@tan?$AA@  100f0a04     libucrtd:fpexcept.obj
 0002:00007a08       ??_C@_04GFPJNGEK@ceil?$AA@ 100f0a08     libucrtd:fpexcept.obj
 0002:00007a10       ??_C@_05PBJFFIGL@floor?$AA@ 100f0a10     libucrtd:fpexcept.obj
 0002:00007a18       ??_C@_04ODHECPBC@fabs?$AA@ 100f0a18     libucrtd:fpexcept.obj
 0002:00007a20       ??_C@_04EHEDPDJG@modf?$AA@ 100f0a20     libucrtd:fpexcept.obj
 0002:00007a28       ??_C@_05CEJMAHNP@ldexp?$AA@ 100f0a28     libucrtd:fpexcept.obj
 0002:00007a30       ??_C@_05KBKMEMPO@_cabs?$AA@ 100f0a30     libucrtd:fpexcept.obj
 0002:00007a38       ??_C@_06MEIMCGCF@_hypot?$AA@ 100f0a38     libucrtd:fpexcept.obj
 0002:00007a40       ??_C@_04KEPJIHGP@fmod?$AA@ 100f0a40     libucrtd:fpexcept.obj
 0002:00007a48       ??_C@_05GKKHEGJL@frexp?$AA@ 100f0a48     libucrtd:fpexcept.obj
 0002:00007a50       ??_C@_03MJLDFKDL@_y0?$AA@  100f0a50     libucrtd:fpexcept.obj
 0002:00007a54       ??_C@_03NAKIGLHK@_y1?$AA@  100f0a54     libucrtd:fpexcept.obj
 0002:00007a58       ??_C@_03ONILCKOB@_yn?$AA@  100f0a58     libucrtd:fpexcept.obj
 0002:00007a5c       ??_C@_05JGDBENOH@_logb?$AA@ 100f0a5c     libucrtd:fpexcept.obj
 0002:00007a64       ??_C@_0L@KDOEJCKC@_nextafter?$AA@ 100f0a64     libucrtd:fpexcept.obj
 0002:00007a74       ??_C@_1CC@LLFJPCJO@?$AAn?$AAe?$AAw?$AA_?$AAh?$AAa?$AAn?$AAd?$AAl?$AAe?$AAr?$AA?5?$AA?$DN?$AA?$DN?$AA?5?$AA0?$AA?$AA@ 100f0a74     libucrtd:new_handler.obj
 0002:00007aa0       ??_C@_1GI@GALDAPMM@?$AAm?$AAi?$AAn?$AAk?$AAe?$AAr?$AAn?$AAe?$AAl?$AA?2?$AAc?$AAr?$AAt?$AAs?$AA?2?$AAu?$AAc?$AAr?$AAt?$AA?2?$AAs?$AAr?$AAc?$AA?2?$AAa?$AAp?$AAp?$AAc?$AAr?$AAt?$AA?2?$AAh@ 100f0aa0     libucrtd:new_handler.obj
 0002:00007b34       ??_C@_04HJMOFLDF@Free?$AA@ 100f0b34     libucrtd:debug_heap.obj
 0002:00007b3c       ??_C@_06EFAGIKOH@Normal?$AA@ 100f0b3c     libucrtd:debug_heap.obj
 0002:00007b44       ??_C@_03OGPFLFLO@CRT?$AA@  100f0b44     libucrtd:debug_heap.obj
 0002:00007b48       ??_C@_06KMEJCCGM@Ignore?$AA@ 100f0b48     libucrtd:debug_heap.obj
 0002:00007b50       ??_C@_06PJIGMIJB@Client?$AA@ 100f0b50     libucrtd:debug_heap.obj
 0002:00007b58       ??_C@_1CE@LJFEPPMP@?$AA_?$AAC?$AAr?$AAt?$AAC?$AAh?$AAe?$AAc?$AAk?$AAM?$AAe?$AAm?$AAo?$AAr?$AAy?$AA?$CI?$AA?$CJ?$AA?$AA@ 100f0b58     libucrtd:debug_heap.obj
 0002:00007b88       ??_C@_1GG@OCLHPJPK@?$AAm?$AAi?$AAn?$AAk?$AAe?$AAr?$AAn?$AAe?$AAl?$AA?2?$AAc?$AAr?$AAt?$AAs?$AA?2?$AAu?$AAc?$AAr?$AAt?$AA?2?$AAs?$AAr?$AAc?$AA?2?$AAa?$AAp?$AAp?$AAc?$AAr?$AAt?$AA?2?$AAh@ 100f0b88     libucrtd:debug_heap.obj
 0002:00007c04       ??_C@_0DF@BBEGIFEK@Client?5hook?5allocation?5failure?5a@ 100f0c04     libucrtd:debug_heap.obj
 0002:00007c44       ??_C@_0CB@CCLOLAHO@Client?5hook?5allocation?5failure?4?6@ 100f0c44     libucrtd:debug_heap.obj
 0002:00007c6c       ??_C@_02DKCKIIND@?$CFs?$AA@ 100f0c6c     libucrtd:debug_heap.obj
 0002:00007c70       ??_C@_0DC@JEMAGEKG@Error?3?5memory?5allocation?3?5bad?5me@ 100f0c70     libucrtd:debug_heap.obj
 0002:00007cac       ??_C@_0DI@KKJPDPGM@Client?5hook?5re?9allocation?5failur@ 100f0cac     libucrtd:debug_heap.obj
 0002:00007cf0       ??_C@_0CE@DOFMDOL@Client?5hook?5re?9allocation?5failur@ 100f0cf0     libucrtd:debug_heap.obj
 0002:00007d20       ??_C@_0FA@EFEIGJKG@Error?3?5memory?5allocation?3?5bad?5me@ 100f0d20     libucrtd:debug_heap.obj
 0002:00007d80       ??_C@_0EM@LGFLMAGJ@The?5Block?5at?50x?$CFp?5was?5allocated?5@ 100f0d80     libucrtd:debug_heap.obj
 0002:00007ddc       ??_C@_1DM@DEDLGNML@?$AA_?$AAC?$AAr?$AAt?$AAI?$AAs?$AAV?$AAa?$AAl?$AAi?$AAd?$AAH?$AAe?$AAa?$AAp?$AAP?$AAo?$AAi?$AAn?$AAt?$AAe?$AAr?$AA?$CI?$AAb?$AAl?$AAo?$AAc?$AAk?$AA?$CJ?$AA?$AA@ 100f0ddc     libucrtd:debug_heap.obj
 0002:00007e28       ??_C@_1PC@MCGKJLN@?$AAo?$AAl?$AAd?$AA_?$AAh?$AAe?$AAa?$AAd?$AA?9?$AA?$DO?$AA_?$AAl?$AAi?$AAn?$AAe?$AA_?$AAn?$AAu?$AAm?$AAb?$AAe?$AAr?$AA?5?$AA?$DN?$AA?$DN?$AA?5?$AAl?$AAi?$AAn?$AAe?$AA_?$AAn@ 100f0e28     libucrtd:debug_heap.obj
 0002:00007f4c       ??_C@_0DA@HFBKENN@Error?3?5possible?5heap?5corruption?5@ 100f0f4c     libucrtd:debug_heap.obj
 0002:00007f88       ??_C@_1JM@MCMEPJEP@?$AAr?$AAe?$AAa?$AAl?$AAl?$AAo?$AAc?$AAa?$AAt?$AAi?$AAo?$AAn?$AA_?$AAi?$AAs?$AA_?$AAa?$AAl?$AAl?$AAo?$AAw?$AAe?$AAd?$AA?5?$AA?$HM?$AA?$HM?$AA?5?$AA?$CI?$AA?$CB?$AAr?$AAe?$AAa@ 100f0f88     libucrtd:debug_heap.obj
 0002:00008044       ??_C@_1DM@LNOPKAIJ@?$AA_?$AA_?$AAa?$AAc?$AAr?$AAt?$AA_?$AAl?$AAa?$AAs?$AAt?$AA_?$AAb?$AAl?$AAo?$AAc?$AAk?$AA?5?$AA?$DN?$AA?$DN?$AA?5?$AAo?$AAl?$AAd?$AA_?$AAh?$AAe?$AAa?$AAd?$AA?$AA@ 100f1044     libucrtd:debug_heap.obj
 0002:0000808c       ??_C@_1DO@HABCJBHO@?$AA_?$AA_?$AAa?$AAc?$AAr?$AAt?$AA_?$AAf?$AAi?$AAr?$AAs?$AAt?$AA_?$AAb?$AAl?$AAo?$AAc?$AAk?$AA?5?$AA?$DN?$AA?$DN?$AA?5?$AAo?$AAl?$AAd?$AA_?$AAh?$AAe?$AAa?$AAd?$AA?$AA@ 100f108c     libucrtd:debug_heap.obj
 0002:000080d8       ??_C@_1CC@CKEAHJPH@?$AAb?$AAl?$AAo?$AAc?$AAk?$AA?5?$AA?$CB?$AA?$DN?$AA?5?$AAn?$AAu?$AAl?$AAl?$AAp?$AAt?$AAr?$AA?$AA@ 100f10d8     libucrtd:debug_heap.obj
 0002:00008100       ??_C@_1BI@HAPNGHDP@?$AA_?$AAe?$AAx?$AAp?$AAa?$AAn?$AAd?$AA_?$AAd?$AAb?$AAg?$AA?$AA@ 100f1100     libucrtd:debug_heap.obj
 0002:00008120       ??_C@_0EJ@HEIBCIMJ@The?5Block?5at?50x?$CFp?5was?5allocated?5@ 100f1120     libucrtd:debug_heap.obj
 0002:00008178       ??_C@_0BL@KEIPLFAC@Client?5hook?5free?5failure?4?6?$AA@ 100f1178     libucrtd:debug_heap.obj
 0002:00008198       ??_C@_1FA@KDNEBILF@?$AAi?$AAs?$AA_?$AAb?$AAl?$AAo?$AAc?$AAk?$AA_?$AAt?$AAy?$AAp?$AAe?$AA_?$AAv?$AAa?$AAl?$AAi?$AAd?$AA?$CI?$AAh?$AAe?$AAa?$AAd?$AAe?$AAr?$AA?9?$AA?$DO?$AA_?$AAb?$AAl?$AAo@ 100f1198     libucrtd:debug_heap.obj
 0002:000081f8       ??_C@_0KI@JGFOHMEB@HEAP?5CORRUPTION?5DETECTED?3?5before@ 100f11f8     libucrtd:debug_heap.obj
 0002:000082c8       ??_C@_0IK@PJCGLBOB@HEAP?5CORRUPTION?5DETECTED?3?5before@ 100f12c8     libucrtd:debug_heap.obj
 0002:00008370       ??_C@_0KE@MBMNHHHN@HEAP?5CORRUPTION?5DETECTED?3?5after?5@ 100f1370     libucrtd:debug_heap.obj
 0002:00008438       ??_C@_0IG@LEMBDCJK@HEAP?5CORRUPTION?5DETECTED?3?5after?5@ 100f1438     libucrtd:debug_heap.obj
 0002:000084d8       ??_C@_1OK@GFEOEJAF@?$AAh?$AAe?$AAa?$AAd?$AAe?$AAr?$AA?9?$AA?$DO?$AA_?$AAl?$AAi?$AAn?$AAe?$AA_?$AAn?$AAu?$AAm?$AAb?$AAe?$AAr?$AA?5?$AA?$DN?$AA?$DN?$AA?5?$AAl?$AAi?$AAn?$AAe?$AA_?$AAn?$AAu?$AAm@ 100f14d8     libucrtd:debug_heap.obj
 0002:000085f0       ??_C@_1ME@GFALMLNA@?$AAh?$AAe?$AAa?$AAd?$AAe?$AAr?$AA?9?$AA?$DO?$AA_?$AAb?$AAl?$AAo?$AAc?$AAk?$AA_?$AAu?$AAs?$AAe?$AA?5?$AA?$DN?$AA?$DN?$AA?5?$AAb?$AAl?$AAo?$AAc?$AAk?$AA_?$AAu?$AAs?$AAe?$AA?5@ 100f15f0     libucrtd:debug_heap.obj
 0002:000086dc       ??_C@_1DI@ILNOPEPI@?$AA_?$AA_?$AAa?$AAc?$AAr?$AAt?$AA_?$AAl?$AAa?$AAs?$AAt?$AA_?$AAb?$AAl?$AAo?$AAc?$AAk?$AA?5?$AA?$DN?$AA?$DN?$AA?5?$AAh?$AAe?$AAa?$AAd?$AAe?$AAr?$AA?$AA@ 100f16dc     libucrtd:debug_heap.obj
 0002:00008720       ??_C@_1DK@KEHFGDIJ@?$AA_?$AA_?$AAa?$AAc?$AAr?$AAt?$AA_?$AAf?$AAi?$AAr?$AAs?$AAt?$AA_?$AAb?$AAl?$AAo?$AAc?$AAk?$AA?5?$AA?$DN?$AA?$DN?$AA?5?$AAh?$AAe?$AAa?$AAd?$AAe?$AAr?$AA?$AA@ 100f1720     libucrtd:debug_heap.obj
 0002:00008768       ??_C@_1BG@MBKOGDLD@?$AA_?$AAm?$AAs?$AAi?$AAz?$AAe?$AA_?$AAd?$AAb?$AAg?$AA?$AA@ 100f1768     libucrtd:debug_heap.obj
 0002:00008784       ??_C@_07OHKEFPKJ@DAMAGED?$AA@ 100f1784     libucrtd:debug_heap.obj
 0002:00008790       ??_C@_0KA@IHNJJKPL@HEAP?5CORRUPTION?5DETECTED?3?5on?5top@ 100f1790     libucrtd:debug_heap.obj
 0002:00008850       ??_C@_0IC@BBJIOOJH@HEAP?5CORRUPTION?5DETECTED?3?5on?5top@ 100f1850     libucrtd:debug_heap.obj
 0002:000088f0       ??_C@_0EG@DGJMPDBH@?$CFhs?5located?5at?50x?$CFp?5is?5?$CFIu?5bytes@ 100f18f0     libucrtd:debug_heap.obj
 0002:00008944       ??_C@_0CI@JMLBEDHJ@?$CFhs?5located?5at?50x?$CFp?5is?5?$CFIu?5bytes@ 100f1944     libucrtd:debug_heap.obj
 0002:00008978       ??_C@_0EG@GPFHANHO@Cycle?5in?5block?5list?5detected?5whi@ 100f1978     libucrtd:debug_heap.obj
 0002:000089cc       ??_C@_0BJ@ELMAOCAJ@Heap?5validation?5failed?4?6?$AA@ 100f19cc     libucrtd:debug_heap.obj
 0002:000089f0       ??_C@_1IE@BBIFDGEB@?$AAn?$AAe?$AAw?$AA_?$AAb?$AAi?$AAt?$AAs?$AA?5?$AA?$DN?$AA?$DN?$AA?5?$AA_?$AAC?$AAR?$AAT?$AAD?$AAB?$AAG?$AA_?$AAR?$AAE?$AAP?$AAO?$AAR?$AAT?$AA_?$AAF?$AAL?$AAA?$AAG?$AA?5@ 100f19f0     libucrtd:debug_heap.obj
 0002:00008a90       ??_C@_1BO@GJFDNMNF@?$AA_?$AAC?$AAr?$AAt?$AAS?$AAe?$AAt?$AAD?$AAb?$AAg?$AAF?$AAl?$AAa?$AAg?$AA?$AA@ 100f1a90     libucrtd:debug_heap.obj
 0002:00008ab4       ??_C@_1CI@CEIBPAIA@?$AAc?$AAa?$AAl?$AAl?$AAb?$AAa?$AAc?$AAk?$AA?5?$AA?$CB?$AA?$DN?$AA?5?$AAn?$AAu?$AAl?$AAl?$AAp?$AAt?$AAr?$AA?$AA@ 100f1ab4     libucrtd:debug_heap.obj
 0002:00008ae4       ??_C@_1DE@GJCKCKEC@?$AA_?$AAC?$AAr?$AAt?$AAD?$AAo?$AAF?$AAo?$AAr?$AAA?$AAl?$AAl?$AAC?$AAl?$AAi?$AAe?$AAn?$AAt?$AAO?$AAb?$AAj?$AAe?$AAc?$AAt?$AAs?$AA?$AA@ 100f1ae4     libucrtd:debug_heap.obj
 0002:00008b24       ??_C@_1CC@BBKMONGA@?$AAs?$AAt?$AAa?$AAt?$AAe?$AA?5?$AA?$CB?$AA?$DN?$AA?5?$AAn?$AAu?$AAl?$AAl?$AAp?$AAt?$AAr?$AA?$AA@ 100f1b24     libucrtd:debug_heap.obj
 0002:00008b4c       ??_C@_1CE@NJJKELF@?$AA_?$AAC?$AAr?$AAt?$AAM?$AAe?$AAm?$AAC?$AAh?$AAe?$AAc?$AAk?$AAp?$AAo?$AAi?$AAn?$AAt?$AA?$AA@ 100f1b4c     libucrtd:debug_heap.obj
 0002:00008b78       ??_C@_0DP@LEFMFBOD@Bad?5memory?5block?5found?5at?50x?$CFp?4?6@ 100f1b78     libucrtd:debug_heap.obj
 0002:00008bc4       ??_C@_0CB@EAAIGELO@Bad?5memory?5block?5found?5at?50x?$CFp?4?6@ 100f1bc4     libucrtd:debug_heap.obj
 0002:00008bec       ??_C@_1CE@PDIENACM@?$AA_?$AAC?$AAr?$AAt?$AAM?$AAe?$AAm?$AAD?$AAi?$AAf?$AAf?$AAe?$AAr?$AAe?$AAn?$AAc?$AAe?$AA?$AA@ 100f1bec     libucrtd:debug_heap.obj
 0002:00008c18       ??_C@_1CK@FFKLBHMD@?$AAo?$AAl?$AAd?$AA_?$AAs?$AAt?$AAa?$AAt?$AAe?$AA?5?$AA?$CB?$AA?$DN?$AA?5?$AAn?$AAu?$AAl?$AAl?$AAp?$AAt?$AAr?$AA?$AA@ 100f1c18     libucrtd:debug_heap.obj
 0002:00008c4c       ??_C@_1CK@NJPPHDJP@?$AAn?$AAe?$AAw?$AA_?$AAs?$AAt?$AAa?$AAt?$AAe?$AA?5?$AA?$CB?$AA?$DN?$AA?5?$AAn?$AAu?$AAl?$AAl?$AAp?$AAt?$AAr?$AA?$AA@ 100f1c4c     libucrtd:debug_heap.obj
 0002:00008c80       ??_C@_1CC@DIJAHFFJ@?$AAp?$AAr?$AAi?$AAn?$AAt?$AA_?$AAb?$AAl?$AAo?$AAc?$AAk?$AA_?$AAd?$AAa?$AAt?$AAa?$AA?$AA@ 100f1c80     libucrtd:debug_heap.obj
 0002:00008ca8       ??_C@_0BA@HJBKCELP@?5Data?3?5?$DM?$CFs?$DO?5?$CFs?6?$AA@ 100f1ca8     libucrtd:debug_heap.obj
 0002:00008cbc       ??_C@_0BE@KCIPKCIA@Dumping?5objects?5?9?$DO?6?$AA@ 100f1cbc     libucrtd:debug_heap.obj
 0002:00008cd4       ??_C@_0BE@OIEFNFL@?$CDFile?5Error?$CD?$CI?$CFd?$CJ?5?3?5?$AA@ 100f1cd4     libucrtd:debug_heap.obj
 0002:00008cec       ??_C@_0L@JMEFFCCJ@?$CFhs?$CI?$CFd?$CJ?5?3?5?$AA@ 100f1cec     libucrtd:debug_heap.obj
 0002:00008cfc       ??_C@_06PKLGBFGM@?$HL?$CFld?$HN?5?$AA@ 100f1cfc     libucrtd:debug_heap.obj
 0002:00008d04       ??_C@_0DD@GHNAAKBB@client?5block?5at?50x?$CFp?0?5subtype?5?$CFx@ 100f1d04     libucrtd:debug_heap.obj
 0002:00008d44       ??_C@_0CH@FAGDDGPN@normal?5block?5at?50x?$CFp?0?5?$CFIu?5bytes?5@ 100f1d44     libucrtd:debug_heap.obj
 0002:00008d74       ??_C@_0DA@MDLBNIBM@crt?5block?5at?50x?$CFp?0?5subtype?5?$CFx?0?5?$CF@ 100f1d74     libucrtd:debug_heap.obj
 0002:00008db0       ??_C@_0BH@GFGKJDCO@Object?5dump?5complete?4?6?$AA@ 100f1db0     libucrtd:debug_heap.obj
 0002:00008dcc       ??_C@_0BI@JBFPOEJA@Detected?5memory?5leaks?$CB?6?$AA@ 100f1dcc     libucrtd:debug_heap.obj
 0002:00008de8       ??_C@_1CM@MPNIBKGK@?$AA_?$AAC?$AAr?$AAt?$AAM?$AAe?$AAm?$AAD?$AAu?$AAm?$AAp?$AAS?$AAt?$AAa?$AAt?$AAi?$AAs?$AAt?$AAi?$AAc?$AAs?$AA?$AA@ 100f1de8     libucrtd:debug_heap.obj
 0002:00008e1c       ??_C@_0BO@DACNIABB@?$CFId?5bytes?5in?5?$CFId?5?$CFhs?5Blocks?4?6?$AA@ 100f1e1c     libucrtd:debug_heap.obj
 0002:00008e40       ??_C@_0CB@BLHDAFNE@Largest?5number?5used?3?5?$CFId?5bytes?4?6@ 100f1e40     libucrtd:debug_heap.obj
 0002:00008e68       ??_C@_0BP@DEDHGGGI@Total?5allocations?3?5?$CFId?5bytes?4?6?$AA@ 100f1e68     libucrtd:debug_heap.obj
 0002:00008e90       ??_C@_1CM@JKMDHENJ@?$AAI?$AAS?$AA_?$AA2?$AA_?$AAP?$AAO?$AAW?$AA_?$AAN?$AA?$CI?$AAa?$AAl?$AAi?$AAg?$AAn?$AAm?$AAe?$AAn?$AAt?$AA?$CJ?$AA?$AA@ 100f1e90     libucrtd:debug_heap.obj
 0002:00008ec4       ??_C@_1DG@DONCJBBJ@?$AA_?$AAa?$AAl?$AAi?$AAg?$AAn?$AAe?$AAd?$AA_?$AAo?$AAf?$AAf?$AAs?$AAe?$AAt?$AA_?$AAm?$AAa?$AAl?$AAl?$AAo?$AAc?$AA_?$AAd?$AAb?$AAg?$AA?$AA@ 100f1ec4     libucrtd:debug_heap.obj
 0002:00008f04       ??_C@_1DK@LFLKFPDA@?$AAo?$AAf?$AAf?$AAs?$AAe?$AAt?$AA?5?$AA?$DN?$AA?$DN?$AA?5?$AA0?$AA?5?$AA?$HM?$AA?$HM?$AA?5?$AAo?$AAf?$AAf?$AAs?$AAe?$AAt?$AA?5?$AA?$DM?$AA?5?$AAs?$AAi?$AAz?$AAe?$AA?$AA@ 100f1f04     libucrtd:debug_heap.obj
 0002:00008f50       ??_C@_0EI@NDNJMAJK@The?5block?5at?50x?$CFp?5was?5not?5alloca@ 100f1f50     libucrtd:debug_heap.obj
 0002:00008fa8       ??_C@_0DL@PGHMMKNE@Damage?5before?50x?$CFp?5which?5was?5all@ 100f1fa8     libucrtd:debug_heap.obj
 0002:00008ff0       ??_C@_1DI@NINIKFFK@?$AA_?$AAa?$AAl?$AAi?$AAg?$AAn?$AAe?$AAd?$AA_?$AAo?$AAf?$AAf?$AAs?$AAe?$AAt?$AA_?$AAr?$AAe?$AAa?$AAl?$AAl?$AAo?$AAc?$AA_?$AAd?$AAb?$AAg?$AA?$AA@ 100f1ff0     libucrtd:debug_heap.obj
 0002:00009034       ??_C@_1CG@CEGMHIMN@?$AA_?$AAa?$AAl?$AAi?$AAg?$AAn?$AAe?$AAd?$AA_?$AAm?$AAs?$AAi?$AAz?$AAe?$AA_?$AAd?$AAb?$AAg?$AA?$AA@ 100f2034     libucrtd:debug_heap.obj
 0002:00009068       ??_C@_0EF@PGELACII@The?5block?5at?50x?$CFp?5was?5not?5alloca@ 100f2068     libucrtd:debug_heap.obj
 0002:000090c0       ___acrt_exception_action_table 100f20c0     libucrtd:exception_filter.obj
 0002:0000916c       ___acrt_signal_action_table_count 100f216c     libucrtd:exception_filter.obj
 0002:00009170       ___acrt_signal_action_table_size 100f2170     libucrtd:exception_filter.obj
 0002:00009174       ___acrt_signal_action_first_fpe_index 100f2174     libucrtd:exception_filter.obj
 0002:00009178       ___acrt_signal_action_fpe_count 100f2178     libucrtd:exception_filter.obj
 0002:0000917c       _RtlNtPathSeperatorString  100f217c     libucrtd:exit.obj
 0002:00009188       ??_C@_13FPGAJAPJ@?$AA?2?$AA?$AA@ 100f2188     libucrtd:exit.obj
 0002:0000918c       _RtlDosPathSeperatorsString 100f218c     libucrtd:exit.obj
 0002:00009198       ??_C@_15MNCACJLI@?$AA?2?$AA?1?$AA?$AA@ 100f2198     libucrtd:exit.obj
 0002:000091a0       _RtlAlternateDosPathSeperatorString 100f21a0     libucrtd:exit.obj
 0002:000091ac       ??_C@_13CGOKJPIL@?$AA?1?$AA?$AA@ 100f21ac     libucrtd:exit.obj
 0002:000091b0       ??_C@_1BI@BGOHAHKC@?$AAm?$AAs?$AAc?$AAo?$AAr?$AAe?$AAe?$AA?4?$AAd?$AAl?$AAl?$AA?$AA@ 100f21b0     libucrtd:exit.obj
 0002:000091cc       ??_C@_0P@MIGLKIOC@CorExitProcess?$AA@ 100f21cc     libucrtd:exit.obj
 0002:000091e0       ??_C@_0DI@KNDIGDEP@minkernel?2crts?2ucrt?2src?2appcrt?2s@ 100f21e0     libucrtd:argv_parsing.obj
 0002:00009228       ??_C@_1JO@PGBIJBAM@?$AAm?$AAo?$AAd?$AAe?$AA?5?$AA?$DN?$AA?$DN?$AA?5?$AA_?$AAc?$AAr?$AAt?$AA_?$AAa?$AAr?$AAg?$AAv?$AA_?$AAe?$AAx?$AAp?$AAa?$AAn?$AAd?$AAe?$AAd?$AA_?$AAa?$AAr?$AAg?$AAu?$AAm@ 100f2228     libucrtd:argv_parsing.obj
 0002:000092e8       ??_C@_1HA@JMLCANEE@?$AAm?$AAi?$AAn?$AAk?$AAe?$AAr?$AAn?$AAe?$AAl?$AA?2?$AAc?$AAr?$AAt?$AAs?$AA?2?$AAu?$AAc?$AAr?$AAt?$AA?2?$AAs?$AAr?$AAc?$AA?2?$AAa?$AAp?$AAp?$AAc?$AAr?$AAt?$AA?2?$AAs@ 100f22e8     libucrtd:argv_parsing.obj
 0002:00009370       ??_C@_1CM@LHOJELIC@?$AAc?$AAo?$AAm?$AAm?$AAo?$AAn?$AA_?$AAc?$AAo?$AAn?$AAf?$AAi?$AAg?$AAu?$AAr?$AAe?$AA_?$AAa?$AAr?$AAg?$AAv?$AA?$AA@ 100f2370     libucrtd:argv_parsing.obj
 0002:000093a8       ??_C@_0EG@LEHKHOEH@minkernel?2crts?2ucrt?2src?2desktopc@ 100f23a8     libucrtd:environment_initialization.obj
 0002:00009400       ??_C@_1IM@IMOFFPLG@?$AAm?$AAi?$AAn?$AAk?$AAe?$AAr?$AAn?$AAe?$AAl?$AA?2?$AAc?$AAr?$AAt?$AAs?$AA?2?$AAu?$AAc?$AAr?$AAt?$AA?2?$AAs?$AAr?$AAc?$AA?2?$AAd?$AAe?$AAs?$AAk?$AAt?$AAo?$AAp?$AAc@ 100f2400     libucrtd:environment_initialization.obj
 0002:000094a8       ??_C@_1CG@MNNNBNAK@?$AAc?$AAr?$AAe?$AAa?$AAt?$AAe?$AA_?$AAe?$AAn?$AAv?$AAi?$AAr?$AAo?$AAn?$AAm?$AAe?$AAn?$AAt?$AA?$AA@ 100f24a8     libucrtd:environment_initialization.obj
 0002:000094d8       ??_C@_1HI@OOPIFFGA@?$AAt?$AAr?$AAa?$AAi?$AAt?$AAs?$AA?3?$AA?3?$AAt?$AAc?$AAs?$AAc?$AAp?$AAy?$AA_?$AAs?$AA?$CI?$AAv?$AAa?$AAr?$AAi?$AAa?$AAb?$AAl?$AAe?$AA?4?$AAg?$AAe?$AAt?$AA?$CI?$AA?$CJ?$AA?0@ 100f24d8     libucrtd:environment_initialization.obj
 0002:00009568       ??_C@_0DC@NBHMIIKL@minkernel?2crts?2ucrt?2src?2appcrt?2s@ 100f2568     libucrtd:onexit.obj
 0002:00009638       _standard_lookup_table     100f2638     libucrtd:output.obj
 0002:000096a8       _format_validation_lookup_table 100f26a8     libucrtd:output.obj
 0002:00009718       ??_C@_1BDG@MKBKGHOH@?$AA?$CI?$AA?5?$AA?$CI?$AA_?$AAS?$AAt?$AAr?$AAe?$AAa?$AAm?$AA?4?$AAi?$AAs?$AA_?$AAs?$AAt?$AAr?$AAi?$AAn?$AAg?$AA_?$AAb?$AAa?$AAc?$AAk?$AAe?$AAd?$AA?$CI?$AA?$CJ?$AA?$CJ?$AA?5?$AA?$HM@ 100f2718     libucrtd:output.obj
 0002:00009890       ??_C@_1GC@LCDLABEA@?$AAm?$AAi?$AAn?$AAk?$AAe?$AAr?$AAn?$AAe?$AAl?$AA?2?$AAc?$AAr?$AAt?$AAs?$AA?2?$AAu?$AAc?$AAr?$AAt?$AA?2?$AAi?$AAn?$AAc?$AA?2?$AAc?$AAo?$AAr?$AAe?$AAc?$AAr?$AAt?$AA_@ 100f2890     libucrtd:output.obj
 0002:00009908       ??_C@_1II@DIIMCJOK@?$AA_?$AA_?$AAa?$AAc?$AAr?$AAt?$AA_?$AAs?$AAt?$AAd?$AAi?$AAo?$AA_?$AAc?$AAh?$AAa?$AAr?$AA_?$AAt?$AAr?$AAa?$AAi?$AAt?$AAs?$AA?$DM?$AAc?$AAh?$AAa?$AAr?$AA?$DO?$AA?3?$AA?3@ 100f2908     libucrtd:output.obj
 0002:000099ac       ??_C@_1CE@JLIJLEKO@?$AAs?$AAt?$AAr?$AAe?$AAa?$AAm?$AA?5?$AA?$CB?$AA?$DN?$AA?5?$AAn?$AAu?$AAl?$AAl?$AAp?$AAt?$AAr?$AA?$AA@ 100f29ac     libucrtd:output.obj
 0002:000099d8       ??_C@_1GA@MOBAPGIO@?$AAm?$AAi?$AAn?$AAk?$AAe?$AAr?$AAn?$AAe?$AAl?$AA?2?$AAc?$AAr?$AAt?$AAs?$AA?2?$AAu?$AAc?$AAr?$AAt?$AA?2?$AAs?$AAr?$AAc?$AA?2?$AAa?$AAp?$AAp?$AAc?$AAr?$AAt?$AA?2?$AAs@ 100f29d8     libucrtd:output.obj
 0002:00009a4c       ??_C@_1CA@GELIJBMC@?$AAc?$AAo?$AAm?$AAm?$AAo?$AAn?$AA_?$AAv?$AAf?$AAp?$AAr?$AAi?$AAn?$AAt?$AAf?$AA?$AA@ 100f2a4c     libucrtd:output.obj
 0002:00009a74       ??_C@_1CE@EAKLPBKK@?$AAf?$AAo?$AAr?$AAm?$AAa?$AAt?$AA?5?$AA?$CB?$AA?$DN?$AA?5?$AAn?$AAu?$AAl?$AAl?$AAp?$AAt?$AAr?$AA?$AA@ 100f2a74     libucrtd:output.obj
 0002:00009aa0       ??_C@_1CA@PIMGHCEK@?$AAc?$AAo?$AAm?$AAm?$AAo?$AAn?$AA_?$AAv?$AAs?$AAp?$AAr?$AAi?$AAn?$AAt?$AAf?$AA?$AA@ 100f2aa0     libucrtd:output.obj
 0002:00009ac8       ??_C@_1EO@EGEEFEFM@?$AAb?$AAu?$AAf?$AAf?$AAe?$AAr?$AA_?$AAc?$AAo?$AAu?$AAn?$AAt?$AA?5?$AA?$DN?$AA?$DN?$AA?5?$AA0?$AA?5?$AA?$HM?$AA?$HM?$AA?5?$AAb?$AAu?$AAf?$AAf?$AAe?$AAr?$AA?5?$AA?$CB?$AA?$DN?$AA?5?$AAn@ 100f2ac8     libucrtd:output.obj
 0002:00009b28       ??_C@_1CE@JEILLNB@?$AAc?$AAo?$AAm?$AAm?$AAo?$AAn?$AA_?$AAv?$AAs?$AAp?$AAr?$AAi?$AAn?$AAt?$AAf?$AA_?$AAs?$AA?$AA@ 100f2b28     libucrtd:output.obj
 0002:00009b58       ??_C@_1EM@OAFHAOLH@?$AAb?$AAu?$AAf?$AAf?$AAe?$AAr?$AA?5?$AA?$CB?$AA?$DN?$AA?5?$AAn?$AAu?$AAl?$AAl?$AAp?$AAt?$AAr?$AA?5?$AA?$CG?$AA?$CG?$AA?5?$AAb?$AAu?$AAf?$AAf?$AAe?$AAr?$AA_?$AAc?$AAo?$AAu?$AAn@ 100f2b58     libucrtd:output.obj
 0002:00009bb4       ??_C@_1DA@HPBFKMEB@?$AA?$CI?$AA?$CC?$AAB?$AAu?$AAf?$AAf?$AAe?$AAr?$AA?5?$AAt?$AAo?$AAo?$AA?5?$AAs?$AAm?$AAa?$AAl?$AAl?$AA?$CC?$AA?0?$AA?5?$AA0?$AA?$CJ?$AA?$AA@ 100f2bb4     libucrtd:output.obj
 0002:00009bf0       ??_C@_1CG@LHFJHFBB@?$AAc?$AAo?$AAm?$AAm?$AAo?$AAn?$AA_?$AAv?$AAs?$AAn?$AAp?$AAr?$AAi?$AAn?$AAt?$AAf?$AA_?$AAs?$AA?$AA@ 100f2bf0     libucrtd:output.obj
 0002:00009c20       ??_C@_1CM@JOIJBMEM@?$AA_?$AAf?$AAo?$AAr?$AAm?$AAa?$AAt?$AA_?$AAi?$AAt?$AA?5?$AA?$CB?$AA?$DN?$AA?5?$AAn?$AAu?$AAl?$AAl?$AAp?$AAt?$AAr?$AA?$AA@ 100f2c20     libucrtd:output.obj
 0002:00009c58       ??_C@_1HA@DMAAKIJP@?$AAm?$AAi?$AAn?$AAk?$AAe?$AAr?$AAn?$AAe?$AAl?$AA?2?$AAc?$AAr?$AAt?$AAs?$AA?2?$AAu?$AAc?$AAr?$AAt?$AA?2?$AAi?$AAn?$AAc?$AA?2?$AAc?$AAo?$AAr?$AAe?$AAc?$AAr?$AAt?$AA_@ 100f2c58     libucrtd:output.obj
 0002:00009ce0       ??_C@_1BKA@IIAAOGBO@?$AA_?$AA_?$AAc?$AAr?$AAt?$AA_?$AAs?$AAt?$AAd?$AAi?$AAo?$AA_?$AAo?$AAu?$AAt?$AAp?$AAu?$AAt?$AA?3?$AA?3?$AAo?$AAu?$AAt?$AAp?$AAu?$AAt?$AA_?$AAp?$AAr?$AAo?$AAc?$AAe@ 100f2ce0     libucrtd:output.obj
 0002:00009ed8       ??_C@_1EE@DMAIGNBG@?$AA?$CI?$AA?$CC?$AAI?$AAn?$AAc?$AAo?$AAr?$AAr?$AAe?$AAc?$AAt?$AA?5?$AAf?$AAo?$AAr?$AAm?$AAa?$AAt?$AA?5?$AAs?$AAp?$AAe?$AAc?$AAi?$AAf?$AAi?$AAe?$AAr?$AA?$CC?$AA?0?$AA?5?$AA0@ 100f2ed8     libucrtd:output.obj
 0002:00009f30       ??_C@_1BLI@EEAAPJD@?$AA_?$AA_?$AAc?$AAr?$AAt?$AA_?$AAs?$AAt?$AAd?$AAi?$AAo?$AA_?$AAo?$AAu?$AAt?$AAp?$AAu?$AAt?$AA?3?$AA?3?$AAo?$AAu?$AAt?$AAp?$AAu?$AAt?$AA_?$AAp?$AAr?$AAo?$AAc?$AAe@ 100f2f30     libucrtd:output.obj
 0002:0000a140       ??_C@_1BLC@PMCLHHAE@?$AA_?$AA_?$AAc?$AAr?$AAt?$AA_?$AAs?$AAt?$AAd?$AAi?$AAo?$AA_?$AAo?$AAu?$AAt?$AAp?$AAu?$AAt?$AA?3?$AA?3?$AAo?$AAu?$AAt?$AAp?$AAu?$AAt?$AA_?$AAp?$AAr?$AAo?$AAc?$AAe@ 100f3140     libucrtd:output.obj
 0002:0000a348       ??_C@_1BMK@CPBKHDIH@?$AA_?$AA_?$AAc?$AAr?$AAt?$AA_?$AAs?$AAt?$AAd?$AAi?$AAo?$AA_?$AAo?$AAu?$AAt?$AAp?$AAu?$AAt?$AA?3?$AA?3?$AAo?$AAu?$AAt?$AAp?$AAu?$AAt?$AA_?$AAp?$AAr?$AAo?$AAc?$AAe@ 100f3348     libucrtd:output.obj
 0002:0000a570       ??_C@_1BLI@FOCNEPKJ@?$AA_?$AA_?$AAc?$AAr?$AAt?$AA_?$AAs?$AAt?$AAd?$AAi?$AAo?$AA_?$AAo?$AAu?$AAt?$AAp?$AAu?$AAt?$AA?3?$AA?3?$AAo?$AAu?$AAt?$AAp?$AAu?$AAt?$AA_?$AAp?$AAr?$AAo?$AAc?$AAe@ 100f3570     libucrtd:output.obj
 0002:0000a780       ??_C@_1BNA@HGLCOOBP@?$AA_?$AA_?$AAc?$AAr?$AAt?$AA_?$AAs?$AAt?$AAd?$AAi?$AAo?$AA_?$AAo?$AAu?$AAt?$AAp?$AAu?$AAt?$AA?3?$AA?3?$AAo?$AAu?$AAt?$AAp?$AAu?$AAt?$AA_?$AAp?$AAr?$AAo?$AAc?$AAe@ 100f3780     libucrtd:output.obj
 0002:0000a9b0       ??_C@_1BKA@DNADAJMC@?$AA_?$AA_?$AAc?$AAr?$AAt?$AA_?$AAs?$AAt?$AAd?$AAi?$AAo?$AA_?$AAo?$AAu?$AAt?$AAp?$AAu?$AAt?$AA?3?$AA?3?$AAo?$AAu?$AAt?$AAp?$AAu?$AAt?$AA_?$AAp?$AAr?$AAo?$AAc?$AAe@ 100f39b0     libucrtd:output.obj
 0002:0000aba8       ??_C@_1BLI@IKDKMDHI@?$AA_?$AA_?$AAc?$AAr?$AAt?$AA_?$AAs?$AAt?$AAd?$AAi?$AAo?$AA_?$AAo?$AAu?$AAt?$AAp?$AAu?$AAt?$AA?3?$AA?3?$AAo?$AAu?$AAt?$AAp?$AAu?$AAt?$AA_?$AAp?$AAr?$AAo?$AAc?$AAe@ 100f3ba8     libucrtd:output.obj
 0002:0000adb8       ??_C@_1BLI@EGFICANE@?$AA_?$AA_?$AAc?$AAr?$AAt?$AA_?$AAs?$AAt?$AAd?$AAi?$AAo?$AA_?$AAo?$AAu?$AAt?$AAp?$AAu?$AAt?$AA?3?$AA?3?$AAo?$AAu?$AAt?$AAp?$AAu?$AAt?$AA_?$AAp?$AAr?$AAo?$AAc?$AAe@ 100f3db8     libucrtd:output.obj
 0002:0000afc8       ??_C@_1BNA@OIIAGHJI@?$AA_?$AA_?$AAc?$AAr?$AAt?$AA_?$AAs?$AAt?$AAd?$AAi?$AAo?$AA_?$AAo?$AAu?$AAt?$AAp?$AAu?$AAt?$AA?3?$AA?3?$AAo?$AAu?$AAt?$AAp?$AAu?$AAt?$AA_?$AAp?$AAr?$AAo?$AAc?$AAe@ 100f3fc8     libucrtd:output.obj
 0002:0000b1f4       ??_C@_1CA@ONEGMNAN@?$AA_?$AAs?$AAt?$AAr?$AAe?$AAa?$AAm?$AA?4?$AAv?$AAa?$AAl?$AAi?$AAd?$AA?$CI?$AA?$CJ?$AA?$AA@ 100f41f4     libucrtd:output.obj
 0002:0000b220       ??_C@_1HE@FGKHNBNL@?$AA_?$AA_?$AAc?$AAr?$AAt?$AA_?$AAs?$AAt?$AAd?$AAi?$AAo?$AA_?$AAo?$AAu?$AAt?$AAp?$AAu?$AAt?$AA?3?$AA?3?$AAs?$AAt?$AAr?$AAe?$AAa?$AAm?$AA_?$AAo?$AAu?$AAt?$AAp?$AAu@ 100f4220     libucrtd:output.obj
 0002:0000b2ac       ??_C@_1DG@CEJKFDMO@?$AAs?$AAt?$AAa?$AAt?$AAe?$AA_?$AAc?$AAa?$AAs?$AAe?$AA_?$AAn?$AAo?$AAr?$AAm?$AAa?$AAl?$AA_?$AAc?$AAo?$AAm?$AAm?$AAo?$AAn?$AA?$CI?$AA?$CJ?$AA?$AA@ 100f42ac     libucrtd:output.obj
 0002:0000b2f0       ??_C@_1BLE@PAACOKDK@?$AA_?$AA_?$AAc?$AAr?$AAt?$AA_?$AAs?$AAt?$AAd?$AAi?$AAo?$AA_?$AAo?$AAu?$AAt?$AAp?$AAu?$AAt?$AA?3?$AA?3?$AAo?$AAu?$AAt?$AAp?$AAu?$AAt?$AA_?$AAp?$AAr?$AAo?$AAc?$AAe@ 100f42f0     libucrtd:output.obj
 0002:0000b500       ??_C@_1FG@OBJBDPAC@?$AA?$CI?$AA?$CC?$AAN?$AA?5?$AAl?$AAe?$AAn?$AAg?$AAt?$AAh?$AA?5?$AAm?$AAo?$AAd?$AAi?$AAf?$AAi?$AAe?$AAr?$AA?5?$AAn?$AAo?$AAt?$AA?5?$AAs?$AAp?$AAe?$AAc?$AAi?$AAf?$AAi?$AAe@ 100f4500     libucrtd:output.obj
 0002:0000b568       ??_C@_1BLA@GJNGKGIK@?$AA_?$AA_?$AAc?$AAr?$AAt?$AA_?$AAs?$AAt?$AAd?$AAi?$AAo?$AA_?$AAo?$AAu?$AAt?$AAp?$AAu?$AAt?$AA?3?$AA?3?$AAo?$AAu?$AAt?$AAp?$AAu?$AAt?$AA_?$AAp?$AAr?$AAo?$AAc?$AAe@ 100f4568     libucrtd:output.obj
 0002:0000b770       ??_C@_1EC@GJPNJDCN@?$AA_?$AAl?$AAe?$AAn?$AAg?$AAt?$AAh?$AA?5?$AA?$DN?$AA?$DN?$AA?5?$AAl?$AAe?$AAn?$AAg?$AAt?$AAh?$AA_?$AAm?$AAo?$AAd?$AAi?$AAf?$AAi?$AAe?$AAr?$AA?3?$AA?3?$AAn?$AAo?$AAn?$AAe@ 100f4770     libucrtd:output.obj
 0002:0000b7c0       ??_C@_1HK@MPBCDOK@?$AA_?$AA_?$AAc?$AAr?$AAt?$AA_?$AAs?$AAt?$AAd?$AAi?$AAo?$AA_?$AAo?$AAu?$AAt?$AAp?$AAu?$AAt?$AA?3?$AA?3?$AAs?$AAt?$AAr?$AAe?$AAa?$AAm?$AA_?$AAo?$AAu?$AAt?$AAp?$AAu@ 100f47c0     libucrtd:output.obj
 0002:0000b858       ??_C@_1BMM@JHGFKAND@?$AA_?$AA_?$AAc?$AAr?$AAt?$AA_?$AAs?$AAt?$AAd?$AAi?$AAo?$AA_?$AAo?$AAu?$AAt?$AAp?$AAu?$AAt?$AA?3?$AA?3?$AAo?$AAu?$AAt?$AAp?$AAu?$AAt?$AA_?$AAp?$AAr?$AAo?$AAc?$AAe@ 100f4858     libucrtd:output.obj
 0002:0000ba80       ??_C@_1BMI@DNMDMAAN@?$AA_?$AA_?$AAc?$AAr?$AAt?$AA_?$AAs?$AAt?$AAd?$AAi?$AAo?$AA_?$AAo?$AAu?$AAt?$AAp?$AAu?$AAt?$AA?3?$AA?3?$AAo?$AAu?$AAt?$AAp?$AAu?$AAt?$AA_?$AAp?$AAr?$AAo?$AAc?$AAe@ 100f4a80     libucrtd:output.obj
 0002:0000bca8       ??_C@_1BMG@KOENKAMB@?$AA_?$AA_?$AAc?$AAr?$AAt?$AA_?$AAs?$AAt?$AAd?$AAi?$AAo?$AA_?$AAo?$AAu?$AAt?$AAp?$AAu?$AAt?$AA?3?$AA?3?$AAo?$AAu?$AAt?$AAp?$AAu?$AAt?$AA_?$AAp?$AAr?$AAo?$AAc?$AAe@ 100f4ca8     libucrtd:output.obj
 0002:0000bec8       ??_C@_1BMC@DAENMDAD@?$AA_?$AA_?$AAc?$AAr?$AAt?$AA_?$AAs?$AAt?$AAd?$AAi?$AAo?$AA_?$AAo?$AAu?$AAt?$AAp?$AAu?$AAt?$AA?3?$AA?3?$AAo?$AAu?$AAt?$AAp?$AAu?$AAt?$AA_?$AAp?$AAr?$AAo?$AAc?$AAe@ 100f4ec8     libucrtd:output.obj
 0002:0000c0e8       ??_C@_1GC@BNMHNGKM@?$AA_?$AAs?$AAt?$AAa?$AAt?$AAe?$AA?5?$AA?$DN?$AA?$DN?$AA?5?$AAs?$AAt?$AAa?$AAt?$AAe?$AA?3?$AA?3?$AAn?$AAo?$AAr?$AAm?$AAa?$AAl?$AA?5?$AA?$HM?$AA?$HM?$AA?5?$AA_?$AAs?$AAt?$AAa?$AAt@ 100f50e8     libucrtd:output.obj
 0002:0000c160       ??_C@_1BDG@PLANJEFE@?$AA_?$AA_?$AAc?$AAr?$AAt?$AA_?$AAs?$AAt?$AAd?$AAi?$AAo?$AA_?$AAo?$AAu?$AAt?$AAp?$AAu?$AAt?$AA?3?$AA?3?$AAf?$AAo?$AAr?$AAm?$AAa?$AAt?$AA_?$AAv?$AAa?$AAl?$AAi?$AAd@ 100f5160     libucrtd:output.obj
 0002:0000c2d8       ??_C@_1BNO@LMMLJOOJ@?$AA_?$AA_?$AAc?$AAr?$AAt?$AA_?$AAs?$AAt?$AAd?$AAi?$AAo?$AA_?$AAo?$AAu?$AAt?$AAp?$AAu?$AAt?$AA?3?$AA?3?$AAo?$AAu?$AAt?$AAp?$AAu?$AAt?$AA_?$AAp?$AAr?$AAo?$AAc?$AAe@ 100f52d8     libucrtd:output.obj
 0002:0000c518       ??_C@_1BNK@ONPHCEAM@?$AA_?$AA_?$AAc?$AAr?$AAt?$AA_?$AAs?$AAt?$AAd?$AAi?$AAo?$AA_?$AAo?$AAu?$AAt?$AAp?$AAu?$AAt?$AA?3?$AA?3?$AAo?$AAu?$AAt?$AAp?$AAu?$AAt?$AA_?$AAp?$AAr?$AAo?$AAc?$AAe@ 100f5518     libucrtd:output.obj
 0002:0000c750       ??_C@_1BEC@FNIGNBHI@?$AA_?$AA_?$AAc?$AAr?$AAt?$AA_?$AAs?$AAt?$AAd?$AAi?$AAo?$AA_?$AAo?$AAu?$AAt?$AAp?$AAu?$AAt?$AA?3?$AA?3?$AAf?$AAo?$AAr?$AAm?$AAa?$AAt?$AA_?$AAv?$AAa?$AAl?$AAi?$AAd@ 100f5750     libucrtd:output.obj
 0002:0000c8d8       ??_C@_1BMM@BLBJDDIA@?$AA_?$AA_?$AAc?$AAr?$AAt?$AA_?$AAs?$AAt?$AAd?$AAi?$AAo?$AA_?$AAo?$AAu?$AAt?$AAp?$AAu?$AAt?$AA?3?$AA?3?$AAo?$AAu?$AAt?$AAp?$AAu?$AAt?$AA_?$AAp?$AAr?$AAo?$AAc?$AAe@ 100f58d8     libucrtd:output.obj
 0002:0000cb00       ??_C@_1BMI@PKGBOKJK@?$AA_?$AA_?$AAc?$AAr?$AAt?$AA_?$AAs?$AAt?$AAd?$AAi?$AAo?$AA_?$AAo?$AAu?$AAt?$AAp?$AAu?$AAt?$AA?3?$AA?3?$AAo?$AAu?$AAt?$AAp?$AAu?$AAt?$AA_?$AAp?$AAr?$AAo?$AAc?$AAe@ 100f5b00     libucrtd:output.obj
 0002:0000cd28       ??_C@_1FK@BCPANIEK@?$AA?$CI?$AA?$CC?$AAM?$AAi?$AAs?$AAs?$AAi?$AAn?$AAg?$AA?5?$AAp?$AAo?$AAs?$AAi?$AAt?$AAi?$AAo?$AAn?$AA?5?$AAi?$AAn?$AA?5?$AAt?$AAh?$AAe?$AA?5?$AAf?$AAo?$AAr?$AAm?$AAa?$AAt@ 100f5d28     libucrtd:output.obj
 0002:0000cd98       ??_C@_1BDM@FDOLKCHK@?$AA_?$AA_?$AAc?$AAr?$AAt?$AA_?$AAs?$AAt?$AAd?$AAi?$AAo?$AA_?$AAo?$AAu?$AAt?$AAp?$AAu?$AAt?$AA?3?$AA?3?$AAp?$AAo?$AAs?$AAi?$AAt?$AAi?$AAo?$AAn?$AAa?$AAl?$AA_?$AAp@ 100f5d98     libucrtd:output.obj
 0002:0000cf18       ??_C@_1IC@NLEOMCDL@?$AA_?$AAt?$AAy?$AAp?$AAe?$AA_?$AAi?$AAn?$AAd?$AAe?$AAx?$AA?5?$AA?$DO?$AA?$DN?$AA?5?$AA0?$AA?5?$AA?$CG?$AA?$CG?$AA?5?$AA?$CK?$AAe?$AAn?$AAd?$AA_?$AAp?$AAo?$AAi?$AAn?$AAt?$AAe?$AAr@ 100f5f18     libucrtd:output.obj
 0002:0000cfb8       ??_C@_1BEO@JEHLMMKB@?$AA_?$AA_?$AAc?$AAr?$AAt?$AA_?$AAs?$AAt?$AAd?$AAi?$AAo?$AA_?$AAo?$AAu?$AAt?$AAp?$AAu?$AAt?$AA?3?$AA?3?$AAp?$AAo?$AAs?$AAi?$AAt?$AAi?$AAo?$AAn?$AAa?$AAl?$AA_?$AAp@ 100f5fb8     libucrtd:output.obj
 0002:0000d148       ??_C@_1BOE@NLICFINO@?$AA_?$AA_?$AAc?$AAr?$AAt?$AA_?$AAs?$AAt?$AAd?$AAi?$AAo?$AA_?$AAo?$AAu?$AAt?$AAp?$AAu?$AAt?$AA?3?$AA?3?$AAo?$AAu?$AAt?$AAp?$AAu?$AAt?$AA_?$AAp?$AAr?$AAo?$AAc?$AAe@ 100f6148     libucrtd:output.obj
 0002:0000d390       ??_C@_1BOA@CBIEMBEE@?$AA_?$AA_?$AAc?$AAr?$AAt?$AA_?$AAs?$AAt?$AAd?$AAi?$AAo?$AA_?$AAo?$AAu?$AAt?$AAp?$AAu?$AAt?$AA?3?$AA?3?$AAo?$AAu?$AAt?$AAp?$AAu?$AAt?$AA_?$AAp?$AAr?$AAo?$AAc?$AAe@ 100f6390     libucrtd:output.obj
 0002:0000d5d0       ??_C@_1BEI@JNJAFAD@?$AA_?$AA_?$AAc?$AAr?$AAt?$AA_?$AAs?$AAt?$AAd?$AAi?$AAo?$AA_?$AAo?$AAu?$AAt?$AAp?$AAu?$AAt?$AA?3?$AA?3?$AAp?$AAo?$AAs?$AAi?$AAt?$AAi?$AAo?$AAn?$AAa?$AAl?$AA_?$AAp@ 100f65d0     libucrtd:output.obj
 0002:0000d760       ??_C@_1BFK@IOIDDMPJ@?$AA_?$AA_?$AAc?$AAr?$AAt?$AA_?$AAs?$AAt?$AAd?$AAi?$AAo?$AA_?$AAo?$AAu?$AAt?$AAp?$AAu?$AAt?$AA?3?$AA?3?$AAp?$AAo?$AAs?$AAi?$AAt?$AAi?$AAo?$AAn?$AAa?$AAl?$AA_?$AAp@ 100f6760     libucrtd:output.obj
 0002:0000d900       ??_C@_1CI@DDKMNCPP@?$AA_?$AAc?$AAo?$AAn?$AAt?$AAe?$AAx?$AAt?$AA?5?$AA?$CB?$AA?$DN?$AA?5?$AAn?$AAu?$AAl?$AAl?$AAp?$AAt?$AAr?$AA?$AA@ 100f6900     libucrtd:output.obj
 0002:0000d930       ??_C@_1HE@IACOMEJF@?$AA_?$AA_?$AAc?$AAr?$AAt?$AA_?$AAs?$AAt?$AAd?$AAi?$AAo?$AA_?$AAo?$AAu?$AAt?$AAp?$AAu?$AAt?$AA?3?$AA?3?$AAs?$AAt?$AAr?$AAi?$AAn?$AAg?$AA_?$AAo?$AAu?$AAt?$AAp?$AAu@ 100f6930     libucrtd:output.obj
 0002:0000d9c0       ??_C@_1BLE@LCKPBJON@?$AA_?$AA_?$AAc?$AAr?$AAt?$AA_?$AAs?$AAt?$AAd?$AAi?$AAo?$AA_?$AAo?$AAu?$AAt?$AAp?$AAu?$AAt?$AA?3?$AA?3?$AAo?$AAu?$AAt?$AAp?$AAu?$AAt?$AA_?$AAp?$AAr?$AAo?$AAc?$AAe@ 100f69c0     libucrtd:output.obj
 0002:0000dbd0       ??_C@_1BLA@MEDMHIOH@?$AA_?$AA_?$AAc?$AAr?$AAt?$AA_?$AAs?$AAt?$AAd?$AAi?$AAo?$AA_?$AAo?$AAu?$AAt?$AAp?$AAu?$AAt?$AA?3?$AA?3?$AAo?$AAu?$AAt?$AAp?$AAu?$AAt?$AA_?$AAp?$AAr?$AAo?$AAc?$AAe@ 100f6bd0     libucrtd:output.obj
 0002:0000ddd8       ??_C@_1HK@IIPGOADH@?$AA_?$AA_?$AAc?$AAr?$AAt?$AA_?$AAs?$AAt?$AAd?$AAi?$AAo?$AA_?$AAo?$AAu?$AAt?$AAp?$AAu?$AAt?$AA?3?$AA?3?$AAs?$AAt?$AAr?$AAi?$AAn?$AAg?$AA_?$AAo?$AAu?$AAt?$AAp?$AAu@ 100f6dd8     libucrtd:output.obj
 0002:0000de70       ??_C@_1BMM@PGHHMNDM@?$AA_?$AA_?$AAc?$AAr?$AAt?$AA_?$AAs?$AAt?$AAd?$AAi?$AAo?$AA_?$AAo?$AAu?$AAt?$AAp?$AAu?$AAt?$AA?3?$AA?3?$AAo?$AAu?$AAt?$AAp?$AAu?$AAt?$AA_?$AAp?$AAr?$AAo?$AAc?$AAe@ 100f6e70     libucrtd:output.obj
 0002:0000e098       ??_C@_1BMI@KBPJOJJI@?$AA_?$AA_?$AAc?$AAr?$AAt?$AA_?$AAs?$AAt?$AAd?$AAi?$AAo?$AA_?$AAo?$AAu?$AAt?$AAp?$AAu?$AAt?$AA?3?$AA?3?$AAo?$AAu?$AAt?$AAp?$AAu?$AAt?$AA_?$AAp?$AAr?$AAo?$AAc?$AAe@ 100f7098     libucrtd:output.obj
 0002:0000e2c0       ??_C@_1BMM@JGEKEBKL@?$AA_?$AA_?$AAc?$AAr?$AAt?$AA_?$AAs?$AAt?$AAd?$AAi?$AAo?$AA_?$AAo?$AAu?$AAt?$AAp?$AAu?$AAt?$AA?3?$AA?3?$AAo?$AAu?$AAt?$AAp?$AAu?$AAt?$AA_?$AAp?$AAr?$AAo?$AAc?$AAe@ 100f72c0     libucrtd:output.obj
 0002:0000e4e8       ??_C@_1BMI@LKDDDFDL@?$AA_?$AA_?$AAc?$AAr?$AAt?$AA_?$AAs?$AAt?$AAd?$AAi?$AAo?$AA_?$AAo?$AAu?$AAt?$AAp?$AAu?$AAt?$AA?3?$AA?3?$AAo?$AAu?$AAt?$AAp?$AAu?$AAt?$AA_?$AAp?$AAr?$AAo?$AAc?$AAe@ 100f74e8     libucrtd:output.obj
 0002:0000e710       ??_C@_1BDM@GFCGMNL@?$AA_?$AA_?$AAc?$AAr?$AAt?$AA_?$AAs?$AAt?$AAd?$AAi?$AAo?$AA_?$AAo?$AAu?$AAt?$AAp?$AAu?$AAt?$AA?3?$AA?3?$AAp?$AAo?$AAs?$AAi?$AAt?$AAi?$AAo?$AAn?$AAa?$AAl?$AA_?$AAp@ 100f7710     libucrtd:output.obj
 0002:0000e890       ??_C@_1BEO@ODGKIOAL@?$AA_?$AA_?$AAc?$AAr?$AAt?$AA_?$AAs?$AAt?$AAd?$AAi?$AAo?$AA_?$AAo?$AAu?$AAt?$AAp?$AAu?$AAt?$AA?3?$AA?3?$AAp?$AAo?$AAs?$AAi?$AAt?$AAi?$AAo?$AAn?$AAa?$AAl?$AA_?$AAp@ 100f7890     libucrtd:output.obj
 0002:0000ea20       ??_C@_1BOE@IPKNNOEE@?$AA_?$AA_?$AAc?$AAr?$AAt?$AA_?$AAs?$AAt?$AAd?$AAi?$AAo?$AA_?$AAo?$AAu?$AAt?$AAp?$AAu?$AAt?$AA?3?$AA?3?$AAo?$AAu?$AAt?$AAp?$AAu?$AAt?$AA_?$AAp?$AAr?$AAo?$AAc?$AAe@ 100f7a20     libucrtd:output.obj
 0002:0000ec68       ??_C@_1BOA@BMEGDMHF@?$AA_?$AA_?$AAc?$AAr?$AAt?$AA_?$AAs?$AAt?$AAd?$AAi?$AAo?$AA_?$AAo?$AAu?$AAt?$AAp?$AAu?$AAt?$AA?3?$AA?3?$AAo?$AAu?$AAt?$AAp?$AAu?$AAt?$AA_?$AAp?$AAr?$AAo?$AAc?$AAe@ 100f7c68     libucrtd:output.obj
 0002:0000eea8       ??_C@_1BEI@IHLBHMLJ@?$AA_?$AA_?$AAc?$AAr?$AAt?$AA_?$AAs?$AAt?$AAd?$AAi?$AAo?$AA_?$AAo?$AAu?$AAt?$AAp?$AAu?$AAt?$AA?3?$AA?3?$AAp?$AAo?$AAs?$AAi?$AAt?$AAi?$AAo?$AAn?$AAa?$AAl?$AA_?$AAp@ 100f7ea8     libucrtd:output.obj
 0002:0000f038       ??_C@_1BFK@KNCMELHH@?$AA_?$AA_?$AAc?$AAr?$AAt?$AA_?$AAs?$AAt?$AAd?$AAi?$AAo?$AA_?$AAo?$AAu?$AAt?$AAp?$AAu?$AAt?$AA?3?$AA?3?$AAp?$AAo?$AAs?$AAi?$AAt?$AAi?$AAo?$AAn?$AAa?$AAl?$AA_?$AAp@ 100f8038     libucrtd:output.obj
 0002:0000f1d8       ??_C@_1EK@PNGFDECN@?$AA?$CI?$AA?$CC?$AA?8?$AAn?$AA?8?$AA?5?$AAf?$AAo?$AAr?$AAm?$AAa?$AAt?$AA?5?$AAs?$AAp?$AAe?$AAc?$AAi?$AAf?$AAi?$AAe?$AAr?$AA?5?$AAd?$AAi?$AAs?$AAa?$AAb?$AAl?$AAe?$AAd?$AA?$CC@ 100f81d8     libucrtd:output.obj
 0002:0000f230       ??_C@_1BKI@NDKBCDGP@?$AA_?$AA_?$AAc?$AAr?$AAt?$AA_?$AAs?$AAt?$AAd?$AAi?$AAo?$AA_?$AAo?$AAu?$AAt?$AAp?$AAu?$AAt?$AA?3?$AA?3?$AAo?$AAu?$AAt?$AAp?$AAu?$AAt?$AA_?$AAp?$AAr?$AAo?$AAc?$AAe@ 100f8230     libucrtd:output.obj
 0002:0000f430       ??_C@_1EO@GHKFGFKL@?$AA?$CI?$AA?$CC?$AAI?$AAn?$AAv?$AAa?$AAl?$AAi?$AAd?$AA?5?$AAi?$AAn?$AAt?$AAe?$AAg?$AAe?$AAr?$AA?5?$AAl?$AAe?$AAn?$AAg?$AAt?$AAh?$AA?5?$AAm?$AAo?$AAd?$AAi?$AAf?$AAi?$AAe@ 100f8430     libucrtd:output.obj
 0002:0000f490       ??_C@_1BMA@PGOJAHFP@?$AA_?$AA_?$AAc?$AAr?$AAt?$AA_?$AAs?$AAt?$AAd?$AAi?$AAo?$AA_?$AAo?$AAu?$AAt?$AAp?$AAu?$AAt?$AA?3?$AA?3?$AAo?$AAu?$AAt?$AAp?$AAu?$AAt?$AA_?$AAp?$AAr?$AAo?$AAc?$AAe@ 100f8490     libucrtd:output.obj
 0002:0000f6b0       ??_C@_1BLK@BGFMMAPO@?$AA_?$AA_?$AAc?$AAr?$AAt?$AA_?$AAs?$AAt?$AAd?$AAi?$AAo?$AA_?$AAo?$AAu?$AAt?$AAp?$AAu?$AAt?$AA?3?$AA?3?$AAo?$AAu?$AAt?$AAp?$AAu?$AAt?$AA_?$AAp?$AAr?$AAo?$AAc?$AAe@ 100f86b0     libucrtd:output.obj
 0002:0000f8c8       ??_C@_1BNC@DONELHFF@?$AA_?$AA_?$AAc?$AAr?$AAt?$AA_?$AAs?$AAt?$AAd?$AAi?$AAo?$AA_?$AAo?$AAu?$AAt?$AAp?$AAu?$AAt?$AA?3?$AA?3?$AAo?$AAu?$AAt?$AAp?$AAu?$AAt?$AA_?$AAp?$AAr?$AAo?$AAc?$AAe@ 100f88c8     libucrtd:output.obj
 0002:0000faf8       ??_C@_1BMA@GACGPGHN@?$AA_?$AA_?$AAc?$AAr?$AAt?$AA_?$AAs?$AAt?$AAd?$AAi?$AAo?$AA_?$AAo?$AAu?$AAt?$AAp?$AAu?$AAt?$AA?3?$AA?3?$AAo?$AAu?$AAt?$AAp?$AAu?$AAt?$AA_?$AAp?$AAr?$AAo?$AAc?$AAe@ 100f8af8     libucrtd:output.obj
 0002:0000fd18       ??_C@_1IC@KGDNLBNC@?$AAw?$AAi?$AAd?$AAt?$AAh?$AA_?$AAi?$AAn?$AAd?$AAe?$AAx?$AA?5?$AA?$DO?$AA?$DN?$AA?5?$AA0?$AA?5?$AA?$CG?$AA?$CG?$AA?5?$AA?$CK?$AAe?$AAn?$AAd?$AA_?$AAp?$AAo?$AAi?$AAn?$AAt?$AAe?$AAr@ 100f8d18     libucrtd:output.obj
 0002:0000fdb8       ??_C@_1PO@LKIIANED@?$AA_?$AA_?$AAc?$AAr?$AAt?$AA_?$AAs?$AAt?$AAd?$AAi?$AAo?$AA_?$AAo?$AAu?$AAt?$AAp?$AAu?$AAt?$AA?3?$AA?3?$AAp?$AAo?$AAs?$AAi?$AAt?$AAi?$AAo?$AAn?$AAa?$AAl?$AA_?$AAp@ 100f8db8     libucrtd:output.obj
 0002:0000fee8       ??_C@_1JC@PMCLKCOC@?$AAp?$AAr?$AAe?$AAc?$AAi?$AAs?$AAi?$AAo?$AAn?$AA_?$AAi?$AAn?$AAd?$AAe?$AAx?$AA?5?$AA?$DO?$AA?$DN?$AA?5?$AA0?$AA?5?$AA?$CG?$AA?$CG?$AA?5?$AA?$CK?$AAe?$AAn?$AAd?$AA_?$AAp?$AAo?$AAi@ 100f8ee8     libucrtd:output.obj
 0002:0000ff98       ??_C@_1PK@KBJECIEM@?$AA_?$AA_?$AAc?$AAr?$AAt?$AA_?$AAs?$AAt?$AAd?$AAi?$AAo?$AA_?$AAo?$AAu?$AAt?$AAp?$AAu?$AAt?$AA?3?$AA?3?$AAp?$AAo?$AAs?$AAi?$AAt?$AAi?$AAo?$AAn?$AAa?$AAl?$AA_?$AAp@ 100f8f98     libucrtd:output.obj
 0002:000100c8       ??_C@_1BNI@IMOCDBNE@?$AA_?$AA_?$AAc?$AAr?$AAt?$AA_?$AAs?$AAt?$AAd?$AAi?$AAo?$AA_?$AAo?$AAu?$AAt?$AAp?$AAu?$AAt?$AA?3?$AA?3?$AAo?$AAu?$AAt?$AAp?$AAu?$AAt?$AA_?$AAp?$AAr?$AAo?$AAc?$AAe@ 100f90c8     libucrtd:output.obj
 0002:00010300       ??_C@_1BAK@DALINHHB@?$AA_?$AA_?$AAc?$AAr?$AAt?$AA_?$AAs?$AAt?$AAd?$AAi?$AAo?$AA_?$AAo?$AAu?$AAt?$AAp?$AAu?$AAt?$AA?3?$AA?3?$AAp?$AAo?$AAs?$AAi?$AAt?$AAi?$AAo?$AAn?$AAa?$AAl?$AA_?$AAp@ 100f9300     libucrtd:output.obj
 0002:00010440       ??_C@_1BAG@DOFNHDMF@?$AA_?$AA_?$AAc?$AAr?$AAt?$AA_?$AAs?$AAt?$AAd?$AAi?$AAo?$AA_?$AAo?$AAu?$AAt?$AAp?$AAu?$AAt?$AA?3?$AA?3?$AAp?$AAo?$AAs?$AAi?$AAt?$AAi?$AAo?$AAn?$AAa?$AAl?$AA_?$AAp@ 100f9440     libucrtd:output.obj
 0002:00010580       ??_C@_1BKI@CJEIGDAI@?$AA_?$AA_?$AAc?$AAr?$AAt?$AA_?$AAs?$AAt?$AAd?$AAi?$AAo?$AA_?$AAo?$AAu?$AAt?$AAp?$AAu?$AAt?$AA?3?$AA?3?$AAo?$AAu?$AAt?$AAp?$AAu?$AAt?$AA_?$AAp?$AAr?$AAo?$AAc?$AAe@ 100f9580     libucrtd:output.obj
 0002:00010780       ??_C@_1BMA@IHIBOLMD@?$AA_?$AA_?$AAc?$AAr?$AAt?$AA_?$AAs?$AAt?$AAd?$AAi?$AAo?$AA_?$AAo?$AAu?$AAt?$AAp?$AAu?$AAt?$AA?3?$AA?3?$AAo?$AAu?$AAt?$AAp?$AAu?$AAt?$AA_?$AAp?$AAr?$AAo?$AAc?$AAe@ 100f9780     libucrtd:output.obj
 0002:000109a0       ??_C@_1BMA@CBPCAOAB@?$AA_?$AA_?$AAc?$AAr?$AAt?$AA_?$AAs?$AAt?$AAd?$AAi?$AAo?$AA_?$AAo?$AAu?$AAt?$AAp?$AAu?$AAt?$AA?3?$AA?3?$AAo?$AAu?$AAt?$AAp?$AAu?$AAt?$AA_?$AAp?$AAr?$AAo?$AAc?$AAe@ 100f99a0     libucrtd:output.obj
 0002:00010bc0       ??_C@_1PO@PODEJAGE@?$AA_?$AA_?$AAc?$AAr?$AAt?$AA_?$AAs?$AAt?$AAd?$AAi?$AAo?$AA_?$AAo?$AAu?$AAt?$AAp?$AAu?$AAt?$AA?3?$AA?3?$AAp?$AAo?$AAs?$AAi?$AAt?$AAi?$AAo?$AAn?$AAa?$AAl?$AA_?$AAp@ 100f9bc0     libucrtd:output.obj
 0002:00010cf0       ??_C@_1PK@KBJLALII@?$AA_?$AA_?$AAc?$AAr?$AAt?$AA_?$AAs?$AAt?$AAd?$AAi?$AAo?$AA_?$AAo?$AAu?$AAt?$AAp?$AAu?$AAt?$AA?3?$AA?3?$AAp?$AAo?$AAs?$AAi?$AAt?$AAi?$AAo?$AAn?$AAa?$AAl?$AA_?$AAp@ 100f9cf0     libucrtd:output.obj
 0002:00010e20       ??_C@_1BDG@KOLEFKPF@?$AA_?$AA_?$AAc?$AAr?$AAt?$AA_?$AAs?$AAt?$AAd?$AAi?$AAo?$AA_?$AAo?$AAu?$AAt?$AAp?$AAu?$AAt?$AA?3?$AA?3?$AAf?$AAo?$AAr?$AAm?$AAa?$AAt?$AA_?$AAv?$AAa?$AAl?$AAi?$AAd@ 100f9e20     libucrtd:output.obj
 0002:00010f98       ??_C@_1BNI@OPBGCNOB@?$AA_?$AA_?$AAc?$AAr?$AAt?$AA_?$AAs?$AAt?$AAd?$AAi?$AAo?$AA_?$AAo?$AAu?$AAt?$AAp?$AAu?$AAt?$AA?3?$AA?3?$AAo?$AAu?$AAt?$AAp?$AAu?$AAt?$AA_?$AAp?$AAr?$AAo?$AAc?$AAe@ 100f9f98     libucrtd:output.obj
 0002:000111d0       ??_C@_1BAK@CDLANFGA@?$AA_?$AA_?$AAc?$AAr?$AAt?$AA_?$AAs?$AAt?$AAd?$AAi?$AAo?$AA_?$AAo?$AAu?$AAt?$AAp?$AAu?$AAt?$AA?3?$AA?3?$AAp?$AAo?$AAs?$AAi?$AAt?$AAi?$AAo?$AAn?$AAa?$AAl?$AA_?$AAp@ 100fa1d0     libucrtd:output.obj
 0002:00011310       ??_C@_1BAG@GKCGGKOF@?$AA_?$AA_?$AAc?$AAr?$AAt?$AA_?$AAs?$AAt?$AAd?$AAi?$AAo?$AA_?$AAo?$AAu?$AAt?$AAp?$AAu?$AAt?$AA?3?$AA?3?$AAp?$AAo?$AAs?$AAi?$AAt?$AAi?$AAo?$AAn?$AAa?$AAl?$AA_?$AAp@ 100fa310     libucrtd:output.obj
 0002:00011450       ??_C@_1BEC@NDOOKIMC@?$AA_?$AA_?$AAc?$AAr?$AAt?$AA_?$AAs?$AAt?$AAd?$AAi?$AAo?$AA_?$AAo?$AAu?$AAt?$AAp?$AAu?$AAt?$AA?3?$AA?3?$AAf?$AAo?$AAr?$AAm?$AAa?$AAt?$AA_?$AAv?$AAa?$AAl?$AAi?$AAd@ 100fa450     libucrtd:output.obj
 0002:000115d4       ??_C@_1CK@LGDCECDH@?$AA_?$AAf?$AAo?$AAr?$AAm?$AAa?$AAt?$AA_?$AAc?$AAh?$AAa?$AAr?$AA?5?$AA?$CB?$AA?$DN?$AA?5?$AA?8?$AA?2?$AA0?$AA?8?$AA?$AA@ 100fa5d4     libucrtd:output.obj
 0002:00011608       ??_C@_1BMA@MEBEEDJE@?$AA_?$AA_?$AAc?$AAr?$AAt?$AA_?$AAs?$AAt?$AAd?$AAi?$AAo?$AA_?$AAo?$AAu?$AAt?$AAp?$AAu?$AAt?$AA?3?$AA?3?$AAo?$AAu?$AAt?$AAp?$AAu?$AAt?$AA_?$AAp?$AAr?$AAo?$AAc?$AAe@ 100fa608     libucrtd:output.obj
 0002:00011828       ??_C@_1BLE@MHLEAOID@?$AA_?$AA_?$AAc?$AAr?$AAt?$AA_?$AAs?$AAt?$AAd?$AAi?$AAo?$AA_?$AAo?$AAu?$AAt?$AAp?$AAu?$AAt?$AA?3?$AA?3?$AAo?$AAu?$AAt?$AAp?$AAu?$AAt?$AA_?$AAp?$AAr?$AAo?$AAc?$AAe@ 100fa828     libucrtd:output.obj
 0002:00011a34       ??_C@_06OJHGLDPL@?$CInull?$CJ?$AA@ 100faa34     libucrtd:output.obj
 0002:00011a3c       ??_C@_1O@CEDCILHN@?$AA?$CI?$AAn?$AAu?$AAl?$AAl?$AA?$CJ?$AA?$AA@ 100faa3c     libucrtd:output.obj
 0002:00011a50       ??_C@_1BMM@KANDEEGK@?$AA_?$AA_?$AAc?$AAr?$AAt?$AA_?$AAs?$AAt?$AAd?$AAi?$AAo?$AA_?$AAo?$AAu?$AAt?$AAp?$AAu?$AAt?$AA?3?$AA?3?$AAo?$AAu?$AAt?$AAp?$AAu?$AAt?$AA_?$AAp?$AAr?$AAo?$AAc?$AAe@ 100faa50     libucrtd:output.obj
 0002:00011c78       ??_C@_1BNC@BAMNIOCM@?$AA_?$AA_?$AAc?$AAr?$AAt?$AA_?$AAs?$AAt?$AAd?$AAi?$AAo?$AA_?$AAo?$AAu?$AAt?$AAp?$AAu?$AAt?$AA?3?$AA?3?$AAo?$AAu?$AAt?$AAp?$AAu?$AAt?$AA_?$AAp?$AAr?$AAo?$AAc?$AAe@ 100fac78     libucrtd:output.obj
 0002:00011ea8       ??_C@_1BMG@JJPLEEHI@?$AA_?$AA_?$AAc?$AAr?$AAt?$AA_?$AAs?$AAt?$AAd?$AAi?$AAo?$AA_?$AAo?$AAu?$AAt?$AAp?$AAu?$AAt?$AA?3?$AA?3?$AAo?$AAu?$AAt?$AAp?$AAu?$AAt?$AA_?$AAp?$AAr?$AAo?$AAc?$AAe@ 100faea8     libucrtd:output.obj
 0002:000120c8       ??_C@_1BNO@ILHNHKFA@?$AA_?$AA_?$AAc?$AAr?$AAt?$AA_?$AAs?$AAt?$AAd?$AAi?$AAo?$AA_?$AAo?$AAu?$AAt?$AAp?$AAu?$AAt?$AA?3?$AA?3?$AAo?$AAu?$AAt?$AAp?$AAu?$AAt?$AA_?$AAp?$AAr?$AAo?$AAc?$AAe@ 100fb0c8     libucrtd:output.obj
 0002:00012308       ??_C@_1BNI@EJPCEBAG@?$AA_?$AA_?$AAc?$AAr?$AAt?$AA_?$AAs?$AAt?$AAd?$AAi?$AAo?$AA_?$AAo?$AAu?$AAt?$AAp?$AAu?$AAt?$AA?3?$AA?3?$AAo?$AAu?$AAt?$AAp?$AAu?$AAt?$AA_?$AAp?$AAr?$AAo?$AAc?$AAe@ 100fb308     libucrtd:output.obj
 0002:00012540       ??_C@_1BMM@CMKPNHDJ@?$AA_?$AA_?$AAc?$AAr?$AAt?$AA_?$AAs?$AAt?$AAd?$AAi?$AAo?$AA_?$AAo?$AAu?$AAt?$AAp?$AAu?$AAt?$AA?3?$AA?3?$AAo?$AAu?$AAt?$AAp?$AAu?$AAt?$AA_?$AAp?$AAr?$AAo?$AAc?$AAe@ 100fb540     libucrtd:output.obj
 0002:00012768       ??_C@_1FE@IAFJEKN@?$AA_?$AAt?$AAy?$AAp?$AAe?$AA_?$AAi?$AAn?$AAd?$AAe?$AAx?$AA?5?$AA?$DO?$AA?$DN?$AA?5?$AA0?$AA?5?$AA?$CG?$AA?$CG?$AA?5?$AA_?$AAt?$AAy?$AAp?$AAe?$AA_?$AAi?$AAn?$AAd?$AAe?$AAx?$AA?5@ 100fb768     libucrtd:output.obj
 0002:000127d0       ??_C@_1BBG@JLLDGFML@?$AA_?$AA_?$AAc?$AAr?$AAt?$AA_?$AAs?$AAt?$AAd?$AAi?$AAo?$AA_?$AAo?$AAu?$AAt?$AAp?$AAu?$AAt?$AA?3?$AA?3?$AAp?$AAo?$AAs?$AAi?$AAt?$AAi?$AAo?$AAn?$AAa?$AAl?$AA_?$AAp@ 100fb7d0     libucrtd:output.obj
 0002:00012920       ??_C@_1LO@HECDHMMI@?$AAi?$AAs?$AA_?$AAp?$AAo?$AAs?$AAi?$AAt?$AAi?$AAo?$AAn?$AAa?$AAl?$AA_?$AAp?$AAa?$AAr?$AAa?$AAm?$AAe?$AAt?$AAe?$AAr?$AA_?$AAr?$AAe?$AAa?$AAp?$AAp?$AAe?$AAa?$AAr@ 100fb920     libucrtd:output.obj
 0002:00012a08       ??_C@_1BBM@LLHBCDAF@?$AA_?$AA_?$AAc?$AAr?$AAt?$AA_?$AAs?$AAt?$AAd?$AAi?$AAo?$AA_?$AAo?$AAu?$AAt?$AAp?$AAu?$AAt?$AA?3?$AA?3?$AAp?$AAo?$AAs?$AAi?$AAt?$AAi?$AAo?$AAn?$AAa?$AAl?$AA_?$AAp@ 100fba08     libucrtd:output.obj
 0002:00012b60       ??_C@_1BOE@OMDELMGH@?$AA_?$AA_?$AAc?$AAr?$AAt?$AA_?$AAs?$AAt?$AAd?$AAi?$AAo?$AA_?$AAo?$AAu?$AAt?$AAp?$AAu?$AAt?$AA?3?$AA?3?$AAo?$AAu?$AAt?$AAp?$AAu?$AAt?$AA_?$AAp?$AAr?$AAo?$AAc?$AAe@ 100fbb60     libucrtd:output.obj
 0002:00012da8       ??_C@_1BCC@PDNLFIHK@?$AA_?$AA_?$AAc?$AAr?$AAt?$AA_?$AAs?$AAt?$AAd?$AAi?$AAo?$AA_?$AAo?$AAu?$AAt?$AAp?$AAu?$AAt?$AA?3?$AA?3?$AAp?$AAo?$AAs?$AAi?$AAt?$AAi?$AAo?$AAn?$AAa?$AAl?$AA_?$AAp@ 100fbda8     libucrtd:output.obj
 0002:00012f08       ??_C@_1BCI@ILAANKJG@?$AA_?$AA_?$AAc?$AAr?$AAt?$AA_?$AAs?$AAt?$AAd?$AAi?$AAo?$AA_?$AAo?$AAu?$AAt?$AAp?$AAu?$AAt?$AA?3?$AA?3?$AAp?$AAo?$AAs?$AAi?$AAt?$AAi?$AAo?$AAn?$AAa?$AAl?$AA_?$AAp@ 100fbf08     libucrtd:output.obj
 0002:00013070       ??_C@_1BMA@FANDDEHK@?$AA_?$AA_?$AAc?$AAr?$AAt?$AA_?$AAs?$AAt?$AAd?$AAi?$AAo?$AA_?$AAo?$AAu?$AAt?$AAp?$AAu?$AAt?$AA?3?$AA?3?$AAo?$AAu?$AAt?$AAp?$AAu?$AAt?$AA_?$AAp?$AAr?$AAo?$AAc?$AAe@ 100fc070     libucrtd:output.obj
 0002:00013290       ??_C@_1BLE@IFBJPNFE@?$AA_?$AA_?$AAc?$AAr?$AAt?$AA_?$AAs?$AAt?$AAd?$AAi?$AAo?$AA_?$AAo?$AAu?$AAt?$AAp?$AAu?$AAt?$AA?3?$AA?3?$AAo?$AAu?$AAt?$AAp?$AAu?$AAt?$AA_?$AAp?$AAr?$AAo?$AAc?$AAe@ 100fc290     libucrtd:output.obj
 0002:000134a0       ??_C@_1BMM@MBMBCJIF@?$AA_?$AA_?$AAc?$AAr?$AAt?$AA_?$AAs?$AAt?$AAd?$AAi?$AAo?$AA_?$AAo?$AAu?$AAt?$AAp?$AAu?$AAt?$AA?3?$AA?3?$AAo?$AAu?$AAt?$AAp?$AAu?$AAt?$AA_?$AAp?$AAr?$AAo?$AAc?$AAe@ 100fc4a0     libucrtd:output.obj
 0002:000136c8       ??_C@_1BNI@EDCGAPJB@?$AA_?$AA_?$AAc?$AAr?$AAt?$AA_?$AAs?$AAt?$AAd?$AAi?$AAo?$AA_?$AAo?$AAu?$AAt?$AAp?$AAu?$AAt?$AA?3?$AA?3?$AAo?$AAu?$AAt?$AAp?$AAu?$AAt?$AA_?$AAp?$AAr?$AAo?$AAc?$AAe@ 100fc6c8     libucrtd:output.obj
 0002:00013900       ??_C@_1BMM@KBPMKFBC@?$AA_?$AA_?$AAc?$AAr?$AAt?$AA_?$AAs?$AAt?$AAd?$AAi?$AAo?$AA_?$AAo?$AAu?$AAt?$AAp?$AAu?$AAt?$AA?3?$AA?3?$AAo?$AAu?$AAt?$AAp?$AAu?$AAt?$AA_?$AAp?$AAr?$AAo?$AAc?$AAe@ 100fc900     libucrtd:output.obj
 0002:00013b28       ??_C@_1BBG@KIHCHFIM@?$AA_?$AA_?$AAc?$AAr?$AAt?$AA_?$AAs?$AAt?$AAd?$AAi?$AAo?$AA_?$AAo?$AAu?$AAt?$AAp?$AAu?$AAt?$AA?3?$AA?3?$AAp?$AAo?$AAs?$AAi?$AAt?$AAi?$AAo?$AAn?$AAa?$AAl?$AA_?$AAp@ 100fcb28     libucrtd:output.obj
 0002:00013c78       ??_C@_1BBM@CBBAFMPJ@?$AA_?$AA_?$AAc?$AAr?$AAt?$AA_?$AAs?$AAt?$AAd?$AAi?$AAo?$AA_?$AAo?$AAu?$AAt?$AAp?$AAu?$AAt?$AA?3?$AA?3?$AAp?$AAo?$AAs?$AAi?$AAt?$AAi?$AAo?$AAn?$AAa?$AAl?$AA_?$AAp@ 100fcc78     libucrtd:output.obj
 0002:00013dd0       ??_C@_1BOE@LIBLDKPN@?$AA_?$AA_?$AAc?$AAr?$AAt?$AA_?$AAs?$AAt?$AAd?$AAi?$AAo?$AA_?$AAo?$AAu?$AAt?$AAp?$AAu?$AAt?$AA?3?$AA?3?$AAo?$AAu?$AAt?$AAp?$AAu?$AAt?$AA_?$AAp?$AAr?$AAo?$AAc?$AAe@ 100fcdd0     libucrtd:output.obj
 0002:00014018       ??_C@_1BCC@GJLKCHIG@?$AA_?$AA_?$AAc?$AAr?$AAt?$AA_?$AAs?$AAt?$AAd?$AAi?$AAo?$AA_?$AAo?$AAu?$AAt?$AAp?$AAu?$AAt?$AA?3?$AA?3?$AAp?$AAo?$AAs?$AAi?$AAt?$AAi?$AAo?$AAn?$AAa?$AAl?$AA_?$AAp@ 100fd018     libucrtd:output.obj
 0002:00014178       ??_C@_1BCI@OBMMNJKK@?$AA_?$AA_?$AAc?$AAr?$AAt?$AA_?$AAs?$AAt?$AAd?$AAi?$AAo?$AA_?$AAo?$AAu?$AAt?$AAp?$AAu?$AAt?$AA?3?$AA?3?$AAp?$AAo?$AAs?$AAi?$AAt?$AAi?$AAo?$AAn?$AAa?$AAl?$AA_?$AAp@ 100fd178     libucrtd:output.obj
 0002:000142dc       ??_C@_0DI@KIFBHMNO@minkernel?2crts?2ucrt?2inc?2corecrt_@ 100fd2dc     libucrtd:output.obj
 0002:00014320       ??_C@_1BBE@FLKADCDA@?$AA_?$AA_?$AAc?$AAr?$AAt?$AA_?$AAs?$AAt?$AAd?$AAi?$AAo?$AA_?$AAo?$AAu?$AAt?$AAp?$AAu?$AAt?$AA?3?$AA?3?$AAp?$AAo?$AAs?$AAi?$AAt?$AAi?$AAo?$AAn?$AAa?$AAl?$AA_?$AAp@ 100fd320     libucrtd:output.obj
 0002:00014470       ??_C@_1BCA@FCGNBIN@?$AA_?$AA_?$AAc?$AAr?$AAt?$AA_?$AAs?$AAt?$AAd?$AAi?$AAo?$AA_?$AAo?$AAu?$AAt?$AAp?$AAu?$AAt?$AA?3?$AA?3?$AAp?$AAo?$AAs?$AAi?$AAt?$AAi?$AAo?$AAn?$AAa?$AAl?$AA_?$AAp@ 100fd470     libucrtd:output.obj
 0002:000145d0       ??_C@_1BBE@IBPNPIIM@?$AA_?$AA_?$AAc?$AAr?$AAt?$AA_?$AAs?$AAt?$AAd?$AAi?$AAo?$AA_?$AAo?$AAu?$AAt?$AAp?$AAu?$AAt?$AA?3?$AA?3?$AAp?$AAo?$AAs?$AAi?$AAt?$AAi?$AAo?$AAn?$AAa?$AAl?$AA_?$AAp@ 100fd5d0     libucrtd:output.obj
 0002:00014720       ??_C@_1BCA@HCPCJFGA@?$AA_?$AA_?$AAc?$AAr?$AAt?$AA_?$AAs?$AAt?$AAd?$AAi?$AAo?$AA_?$AAo?$AAu?$AAt?$AAp?$AAu?$AAt?$AA?3?$AA?3?$AAp?$AAo?$AAs?$AAi?$AAt?$AAi?$AAo?$AAn?$AAa?$AAl?$AA_?$AAp@ 100fd720     libucrtd:output.obj
 0002:00014880       ??_C@_1BLC@INKIGOCN@?$AA_?$AA_?$AAc?$AAr?$AAt?$AA_?$AAs?$AAt?$AAd?$AAi?$AAo?$AA_?$AAo?$AAu?$AAt?$AAp?$AAu?$AAt?$AA?3?$AA?3?$AAo?$AAu?$AAt?$AAp?$AAu?$AAt?$AA_?$AAp?$AAr?$AAo?$AAc?$AAe@ 100fd880     libucrtd:output.obj
 0002:00014a88       ??_C@_1BMK@JGIBNIA@?$AA_?$AA_?$AAc?$AAr?$AAt?$AA_?$AAs?$AAt?$AAd?$AAi?$AAo?$AA_?$AAo?$AAu?$AAt?$AAp?$AAu?$AAt?$AA?3?$AA?3?$AAo?$AAu?$AAt?$AAp?$AAu?$AAt?$AA_?$AAp?$AAr?$AAo?$AAc?$AAe@ 100fda88     libucrtd:output.obj
 0002:00014cb0       ??_C@_1BMG@CGPDIFDK@?$AA_?$AA_?$AAc?$AAr?$AAt?$AA_?$AAs?$AAt?$AAd?$AAi?$AAo?$AA_?$AAo?$AAu?$AAt?$AAp?$AAu?$AAt?$AA?3?$AA?3?$AAo?$AAu?$AAt?$AAp?$AAu?$AAt?$AA_?$AAp?$AAr?$AAo?$AAc?$AAe@ 100fdcb0     libucrtd:output.obj
 0002:00014ed0       ??_C@_1BMC@FAGJFBLI@?$AA_?$AA_?$AAc?$AAr?$AAt?$AA_?$AAs?$AAt?$AAd?$AAi?$AAo?$AA_?$AAo?$AAu?$AAt?$AAp?$AAu?$AAt?$AA?3?$AA?3?$AAo?$AAu?$AAt?$AAp?$AAu?$AAt?$AA_?$AAp?$AAr?$AAo?$AAc?$AAe@ 100fded0     libucrtd:output.obj
 0002:000150f0       ??_C@_1BNO@OHFFMOOJ@?$AA_?$AA_?$AAc?$AAr?$AAt?$AA_?$AAs?$AAt?$AAd?$AAi?$AAo?$AA_?$AAo?$AAu?$AAt?$AAp?$AAu?$AAt?$AA?3?$AA?3?$AAo?$AAu?$AAt?$AAp?$AAu?$AAt?$AA_?$AAp?$AAr?$AAo?$AAc?$AAe@ 100fe0f0     libucrtd:output.obj
 0002:00015330       ??_C@_1BNK@KHNJGCCP@?$AA_?$AA_?$AAc?$AAr?$AAt?$AA_?$AAs?$AAt?$AAd?$AAi?$AAo?$AA_?$AAo?$AAu?$AAt?$AAp?$AAu?$AAt?$AA?3?$AA?3?$AAo?$AAu?$AAt?$AAp?$AAu?$AAt?$AA_?$AAp?$AAr?$AAo?$AAc?$AAe@ 100fe330     libucrtd:output.obj
 0002:00015568       ??_C@_1BLK@FOLFMPJH@?$AA_?$AA_?$AAc?$AAr?$AAt?$AA_?$AAs?$AAt?$AAd?$AAi?$AAo?$AA_?$AAo?$AAu?$AAt?$AAp?$AAu?$AAt?$AA?3?$AA?3?$AAo?$AAu?$AAt?$AAp?$AAu?$AAt?$AA_?$AAp?$AAr?$AAo?$AAc?$AAe@ 100fe568     libucrtd:output.obj
 0002:00015780       ??_C@_1BNC@OHPDPPJK@?$AA_?$AA_?$AAc?$AAr?$AAt?$AA_?$AAs?$AAt?$AAd?$AAi?$AAo?$AA_?$AAo?$AAu?$AAt?$AAp?$AAu?$AAt?$AA?3?$AA?3?$AAo?$AAu?$AAt?$AAp?$AAu?$AAt?$AA_?$AAp?$AAr?$AAo?$AAc?$AAe@ 100fe780     libucrtd:output.obj
 0002:000159b0       ??_C@_1BNC@JPKLPOHO@?$AA_?$AA_?$AAc?$AAr?$AAt?$AA_?$AAs?$AAt?$AAd?$AAi?$AAo?$AA_?$AAo?$AAu?$AAt?$AAp?$AAu?$AAt?$AA?3?$AA?3?$AAo?$AAu?$AAt?$AAp?$AAu?$AAt?$AA_?$AAp?$AAr?$AAo?$AAc?$AAe@ 100fe9b0     libucrtd:output.obj
 0002:00015be0       ??_C@_1BMG@BBEFGBID@?$AA_?$AA_?$AAc?$AAr?$AAt?$AA_?$AAs?$AAt?$AAd?$AAi?$AAo?$AA_?$AAo?$AAu?$AAt?$AAp?$AAu?$AAt?$AA?3?$AA?3?$AAo?$AAu?$AAt?$AAp?$AAu?$AAt?$AA_?$AAp?$AAr?$AAo?$AAc?$AAe@ 100febe0     libucrtd:output.obj
 0002:00015e00       ??_C@_1BNO@NAODCKFA@?$AA_?$AA_?$AAc?$AAr?$AAt?$AA_?$AAs?$AAt?$AAd?$AAi?$AAo?$AA_?$AAo?$AAu?$AAt?$AAp?$AAu?$AAt?$AA?3?$AA?3?$AAo?$AAu?$AAt?$AAp?$AAu?$AAt?$AA_?$AAp?$AAr?$AAo?$AAc?$AAe@ 100fee00     libucrtd:output.obj
 0002:00016040       ??_C@_1GE@IHIGNC@?$AA?$CI?$AA?$CI?$AAr?$AAe?$AAs?$AAu?$AAl?$AAt?$AA_?$AAb?$AAu?$AAf?$AAf?$AAe?$AAr?$AA?$CJ?$AA?$CJ?$AA?5?$AA?$CB?$AA?$DN?$AA?5?$AAN?$AAU?$AAL?$AAL?$AA?5?$AA?$CG?$AA?$CG?$AA?5?$AA?$CI?$AA?$CI?$AAr@ 100ff040     libucrtd:makepath.obj
 0002:000160b8       ??_C@_1GO@CPMBDHKK@?$AAm?$AAi?$AAn?$AAk?$AAe?$AAr?$AAn?$AAe?$AAl?$AA?2?$AAc?$AAr?$AAt?$AAs?$AA?2?$AAu?$AAc?$AAr?$AAt?$AA?2?$AAs?$AAr?$AAc?$AA?2?$AAa?$AAp?$AAp?$AAc?$AAr?$AAt?$AA?2?$AAf@ 100ff0b8     libucrtd:makepath.obj
 0002:0001613c       ??_C@_1CE@GNNMAAIL@?$AAc?$AAo?$AAm?$AAm?$AAo?$AAn?$AA_?$AAm?$AAa?$AAk?$AAe?$AAp?$AAa?$AAt?$AAh?$AA_?$AAs?$AA?$AA@ 100ff13c     libucrtd:makepath.obj
 0002:00016168       ??_C@_1CI@HCPHDDLE@?$AAB?$AAu?$AAf?$AAf?$AAe?$AAr?$AA?5?$AAi?$AAs?$AA?5?$AAt?$AAo?$AAo?$AA?5?$AAs?$AAm?$AAa?$AAl?$AAl?$AA?$AA@ 100ff168     libucrtd:makepath.obj
 0002:00016198       ??_C@_1DM@MADKGDLO@?$AA?$CI?$AAL?$AA?$CC?$AAB?$AAu?$AAf?$AAf?$AAe?$AAr?$AA?5?$AAi?$AAs?$AA?5?$AAt?$AAo?$AAo?$AA?5?$AAs?$AAm?$AAa?$AAl?$AAl?$AA?$CC?$AA?5?$AA?$CG?$AA?$CG?$AA?5?$AA0?$AA?$CJ?$AA?$AA@ 100ff198     libucrtd:makepath.obj
 0002:000161e0       ??_C@_1CI@KGHCCPCN@?$AAc?$AAl?$AAe?$AAa?$AAn?$AAu?$AAp?$AA_?$AAa?$AAf?$AAt?$AAe?$AAr?$AA_?$AAe?$AAr?$AAr?$AAo?$AAr?$AA?$AA@ 100ff1e0     libucrtd:makepath.obj
 0002:00016210       ??_C@_1M@HLGKFCJM@?$AAf?$AAa?$AAl?$AAs?$AAe?$AA?$AA@ 100ff210     libucrtd:splitpath.obj
 0002:00016220       ??_C@_1HA@BEJINBHO@?$AAm?$AAi?$AAn?$AAk?$AAe?$AAr?$AAn?$AAe?$AAl?$AA?2?$AAc?$AAr?$AAt?$AAs?$AA?2?$AAu?$AAc?$AAr?$AAt?$AA?2?$AAs?$AAr?$AAc?$AA?2?$AAa?$AAp?$AAp?$AAc?$AAr?$AAt?$AA?2?$AAf@ 100ff220     libucrtd:splitpath.obj
 0002:000162a8       ??_C@_1DE@EEECINKG@?$AAc?$AAo?$AAm?$AAm?$AAo?$AAn?$AA_?$AAs?$AAp?$AAl?$AAi?$AAt?$AAp?$AAa?$AAt?$AAh?$AA_?$AAi?$AAn?$AAt?$AAe?$AAr?$AAn?$AAa?$AAl?$AA?$AA@ 100ff2a8     libucrtd:splitpath.obj
 0002:000162e8       ??_C@_1GI@BBAEIKL@?$AA?$CI?$AA?$CI?$AAd?$AAe?$AAs?$AAt?$AAi?$AAn?$AAa?$AAt?$AAi?$AAo?$AAn?$AA?$CJ?$AA?$CJ?$AA?5?$AA?$CB?$AA?$DN?$AA?5?$AAN?$AAU?$AAL?$AAL?$AA?5?$AA?$CG?$AA?$CG?$AA?5?$AA?$CI?$AA?$CI?$AAs?$AAi?$AAz@ 100ff2e8     libucrtd:wcscpy_s.obj
 0002:00016368       ??_C@_1HI@PBJPCEBC@?$AAm?$AAi?$AAn?$AAk?$AAe?$AAr?$AAn?$AAe?$AAl?$AA?2?$AAc?$AAr?$AAt?$AAs?$AA?2?$AAu?$AAc?$AAr?$AAt?$AA?2?$AAi?$AAn?$AAc?$AA?2?$AAc?$AAo?$AAr?$AAe?$AAc?$AAr?$AAt?$AA_@ 100ff368     libucrtd:wcscpy_s.obj
 0002:000163f8       ??_C@_1CA@FHIAGDFH@?$AAc?$AAo?$AAm?$AAm?$AAo?$AAn?$AA_?$AAt?$AAc?$AAs?$AAc?$AAp?$AAy?$AA_?$AAs?$AA?$AA@ 100ff3f8     libucrtd:wcscpy_s.obj
 0002:00016420       ??_C@_1CK@EIOKGPJL@?$AA?$CI?$AA?$CI?$AA?$CI?$AAs?$AAo?$AAu?$AAr?$AAc?$AAe?$AA?$CJ?$AA?$CJ?$AA?$CJ?$AA?5?$AA?$CB?$AA?$DN?$AA?5?$AAN?$AAU?$AAL?$AAL?$AA?$AA@ 100ff420     libucrtd:wcscpy_s.obj
 0002:00016454       ??_C@_1DA@LLLMNMKI@?$AAa?$AAb?$AAo?$AAr?$AAt?$AA?$CI?$AA?$CJ?$AA?5?$AAh?$AAa?$AAs?$AA?5?$AAb?$AAe?$AAe?$AAn?$AA?5?$AAc?$AAa?$AAl?$AAl?$AAe?$AAd?$AA?$AA@ 100ff454     libucrtd:abort.obj
 0002:00016490       __Fenv0                    100ff490     libucrtd:atox.obj
 0002:000164a0       ??_C@_1GE@DPGDJKLM@?$AAm?$AAi?$AAn?$AAk?$AAe?$AAr?$AAn?$AAe?$AAl?$AA?2?$AAc?$AAr?$AAt?$AAs?$AA?2?$AAu?$AAc?$AAr?$AAt?$AA?2?$AAi?$AAn?$AAc?$AA?2?$AAc?$AAo?$AAr?$AAe?$AAc?$AAr?$AAt?$AA_@ 100ff4a0     libucrtd:atox.obj
 0002:00016518       ??_C@_1EO@MLJCKPIB@?$AAb?$AAa?$AAs?$AAe?$AA?5?$AA?$DN?$AA?$DN?$AA?5?$AA0?$AA?5?$AA?$HM?$AA?$HM?$AA?5?$AA?$CI?$AA2?$AA?5?$AA?$DM?$AA?$DN?$AA?5?$AAb?$AAa?$AAs?$AAe?$AA?5?$AA?$CG?$AA?$CG?$AA?5?$AAb?$AAa?$AAs?$AAe?$AA?5@ 100ff518     libucrtd:atox.obj
 0002:00016578       ??_C@_1DI@BANODKFL@?$AA_?$AA_?$AAc?$AAr?$AAt?$AA_?$AAs?$AAt?$AAr?$AAt?$AAo?$AAx?$AA?3?$AA?3?$AAp?$AAa?$AAr?$AAs?$AAe?$AA_?$AAi?$AAn?$AAt?$AAe?$AAg?$AAe?$AAr?$AA?$AA@ 100ff578     libucrtd:atox.obj
 0002:000165bc       ??_C@_1BM@PNEBBBDO@?$AA_?$AAp?$AA?5?$AA?$CB?$AA?$DN?$AA?5?$AAn?$AAu?$AAl?$AAl?$AAp?$AAt?$AAr?$AA?$AA@ 100ff5bc     libucrtd:atox.obj
 0002:000165e0       ??_C@_1HA@MKKIHBHP@?$AA_?$AA_?$AAc?$AAr?$AAt?$AA_?$AAs?$AAt?$AAr?$AAt?$AAo?$AAx?$AA?3?$AA?3?$AAc?$AA_?$AAs?$AAt?$AAr?$AAi?$AAn?$AAg?$AA_?$AAc?$AAh?$AAa?$AAr?$AAa?$AAc?$AAt?$AAe?$AAr@ 100ff5e0     libucrtd:atox.obj
 0002:00016668       ??_C@_1CM@GJENOOEJ@?$AAc?$AA?5?$AA?$DN?$AA?$DN?$AA?5?$AA?8?$AA?2?$AA0?$AA?8?$AA?5?$AA?$HM?$AA?$HM?$AA?5?$AA?$CK?$AA_?$AAp?$AA?5?$AA?$DN?$AA?$DN?$AA?5?$AAc?$AA?$AA@ 100ff668     libucrtd:atox.obj
 0002:000166a0       ??_C@_1GK@MNHIDABG@?$AA_?$AA_?$AAc?$AAr?$AAt?$AA_?$AAs?$AAt?$AAr?$AAt?$AAo?$AAx?$AA?3?$AA?3?$AAc?$AA_?$AAs?$AAt?$AAr?$AAi?$AAn?$AAg?$AA_?$AAc?$AAh?$AAa?$AAr?$AAa?$AAc?$AAt?$AAe?$AAr@ 100ff6a0     libucrtd:atox.obj
 0002:00016720       ??_C@_1HG@FCDBLOEG@?$AA_?$AA_?$AAc?$AAr?$AAt?$AA_?$AAs?$AAt?$AAr?$AAt?$AAo?$AAx?$AA?3?$AA?3?$AAc?$AA_?$AAs?$AAt?$AAr?$AAi?$AAn?$AAg?$AA_?$AAc?$AAh?$AAa?$AAr?$AAa?$AAc?$AAt?$AAe?$AAr@ 100ff720     libucrtd:atox.obj
 0002:000167b0       ??_C@_1HA@CONLANFI@?$AA_?$AA_?$AAc?$AAr?$AAt?$AA_?$AAs?$AAt?$AAr?$AAt?$AAo?$AAx?$AA?3?$AA?3?$AAc?$AA_?$AAs?$AAt?$AAr?$AAi?$AAn?$AAg?$AA_?$AAc?$AAh?$AAa?$AAr?$AAa?$AAc?$AAt?$AAe?$AAr@ 100ff7b0     libucrtd:atox.obj
 0002:00016838       __d_inf                    100ff838     libucrtd:util.obj
 0002:00016848       __d_ind                    100ff848     libucrtd:util.obj
 0002:00016858       __d_max                    100ff858     libucrtd:util.obj
 0002:00016868       __d_min                    100ff868     libucrtd:util.obj
 0002:00016878       __d_mzero                  100ff878     libucrtd:util.obj
 0002:000169a0       __infinity                 100ff9a0     libucrtd:87tran.obj
 0002:000169aa       __minfinity                100ff9aa     libucrtd:87tran.obj
 0002:000169b4       __logemax                  100ff9b4     libucrtd:87tran.obj
 0002:000169da       __OP_EXPjmptab             100ff9da     libucrtd:87tran.obj
 0002:00016a10       __indefinite               100ffa10     libucrtd:87disp.obj
 0002:00016a1a       __piby2                    100ffa1a     libucrtd:87disp.obj
 0002:00016a24       __piby4                    100ffa24     libucrtd:87disp.obj
 0002:00016a68       __DEFAULT_CW_in_mem        100ffa68     libucrtd:common.obj
 0002:00016a6a       __pi_by_2_to_61            100ffa6a     libucrtd:common.obj
 0002:00016c60       __OP_ATAN2jmptab           100ffc60     libucrtd:87triga.obj
 0002:00016d90       ??_C@_1FA@IFFFOLDJ@?$AAn?$AAR?$AAp?$AAt?$AAT?$AAy?$AAp?$AAe?$AA?5?$AA?$DO?$AA?$DN?$AA?5?$AA0?$AA?5?$AA?$CG?$AA?$CG?$AA?5?$AAn?$AAR?$AAp?$AAt?$AAT?$AAy?$AAp?$AAe?$AA?5?$AA?$DM?$AA?5?$AA_?$AAC?$AAR?$AAT@ 100ffd90     libucrtd:dbgrptt.obj
 0002:00016df0       ??_C@_1GA@LFAOKOOP@?$AAm?$AAi?$AAn?$AAk?$AAe?$AAr?$AAn?$AAe?$AAl?$AA?2?$AAc?$AAr?$AAt?$AAs?$AA?2?$AAu?$AAc?$AAr?$AAt?$AA?2?$AAs?$AAr?$AAc?$AA?2?$AAa?$AAp?$AAp?$AAc?$AAr?$AAt?$AA?2?$AAm@ 100ffdf0     libucrtd:dbgrptt.obj
 0002:00016e64       ??_C@_1CE@FIHIECNJ@?$AA_?$AAC?$AAr?$AAt?$AAS?$AAe?$AAt?$AAR?$AAe?$AAp?$AAo?$AAr?$AAt?$AAM?$AAo?$AAd?$AAe?$AA?$AA@ 100ffe64     libucrtd:dbgrptt.obj
 0002:00016e90       ??_C@_1NK@LOFHIHFC@?$AAf?$AAM?$AAo?$AAd?$AAe?$AA?5?$AA?$DN?$AA?$DN?$AA?5?$AA_?$AAC?$AAR?$AAT?$AAD?$AAB?$AAG?$AA_?$AAR?$AAE?$AAP?$AAO?$AAR?$AAT?$AA_?$AAM?$AAO?$AAD?$AAE?$AA?5?$AA?$HM?$AA?$HM?$AA?5@ 100ffe90     libucrtd:dbgrptt.obj
 0002:00016f98       ??_C@_1CE@IKKEDCME@?$AA_?$AAC?$AAr?$AAt?$AAS?$AAe?$AAt?$AAR?$AAe?$AAp?$AAo?$AAr?$AAt?$AAF?$AAi?$AAl?$AAe?$AA?$AA@ 100fff98     libucrtd:dbgrptt.obj
 0002:00016fc4       ??_C@_1CA@KHJHLKA@?$AA_?$AAV?$AAC?$AAr?$AAt?$AAD?$AAb?$AAg?$AAR?$AAe?$AAp?$AAo?$AAr?$AAt?$AAA?$AA?$AA@ 100fffc4     libucrtd:dbgrptt.obj
 0002:00016ff0       ??_C@_1FA@JPHJBHEM@?$AA_?$AAi?$AAt?$AAo?$AAa?$AA_?$AAs?$AA?$CI?$AAn?$AAL?$AAi?$AAn?$AAe?$AA?0?$AA?5?$AAs?$AAz?$AAL?$AAi?$AAn?$AAe?$AAM?$AAe?$AAs?$AAs?$AAa?$AAg?$AAe?$AA?0?$AA?5?$AA4?$AA0@ 100ffff0     libucrtd:dbgrptt.obj
 0002:00017050       ??_C@_0CG@BNGLOCEO@Second?5Chance?5Assertion?5Failed?3?5@ 10100050     libucrtd:dbgrptt.obj
 0002:00017080       ??_C@_0P@DFJNDPOP@?$DMfile?5unknown?$DO?$AA@ 10100080     libucrtd:dbgrptt.obj
 0002:00017094       ??_C@_07BHGABMGB@?0?5Line?5?$AA@ 10100094     libucrtd:dbgrptt.obj
 0002:000170a0       ??_C@_1JI@GAALPGBM@?$AAs?$AAt?$AAr?$AAc?$AAp?$AAy?$AA_?$AAs?$AA?$CI?$AAs?$AAz?$AAU?$AAs?$AAe?$AAr?$AAM?$AAe?$AAs?$AAs?$AAa?$AAg?$AAe?$AA?0?$AA?5?$AA4?$AA0?$AA9?$AA6?$AA?0?$AA?5?$AA?$CC?$AA_@ 101000a0     libucrtd:dbgrptt.obj
 0002:00017158       ??_C@_0CL@EACFGMNB@_CrtDbgReport?3?5String?5too?5long?5o@ 10100158     libucrtd:dbgrptt.obj
 0002:00017190       ??_C@_1KK@GIGAEDMO@?$AAs?$AAt?$AAr?$AAc?$AAp?$AAy?$AA_?$AAs?$AA?$CI?$AAs?$AAz?$AAL?$AAi?$AAn?$AAe?$AAM?$AAe?$AAs?$AAs?$AAa?$AAg?$AAe?$AA?0?$AA?5?$AA4?$AA0?$AA9?$AA6?$AA?0?$AA?5?$AAs?$AAz@ 10100190     libucrtd:dbgrptt.obj
 0002:0001725c       ??_C@_0BD@CAENFOHP@Assertion?5failed?3?5?$AA@ 1010025c     libucrtd:dbgrptt.obj
 0002:00017274       ??_C@_0BC@LAIDCHCH@Assertion?5failed?$CB?$AA@ 10100274     libucrtd:dbgrptt.obj
 0002:00017290       ??_C@_1FK@NPGBPOFO@?$AAs?$AAt?$AAr?$AAc?$AAa?$AAt?$AA_?$AAs?$AA?$CI?$AAs?$AAz?$AAL?$AAi?$AAn?$AAe?$AAM?$AAe?$AAs?$AAs?$AAa?$AAg?$AAe?$AA?0?$AA?5?$AA4?$AA0?$AA9?$AA6?$AA?0?$AA?5?$AAs?$AAz@ 10100290     libucrtd:dbgrptt.obj
 0002:00017300       ??_C@_1EI@CACDLAFK@?$AAs?$AAt?$AAr?$AAc?$AAa?$AAt?$AA_?$AAs?$AA?$CI?$AAs?$AAz?$AAL?$AAi?$AAn?$AAe?$AAM?$AAe?$AAs?$AAs?$AAa?$AAg?$AAe?$AA?0?$AA?5?$AA4?$AA0?$AA9?$AA6?$AA?0?$AA?5?$AA?$CC?$AA?2@ 10100300     libucrtd:dbgrptt.obj
 0002:00017358       ??_C@_01LIIJDEN@?$AN?$AA@  10100358     libucrtd:dbgrptt.obj
 0002:00017360       ??_C@_1EI@LDHJEDO@?$AAs?$AAt?$AAr?$AAc?$AAa?$AAt?$AA_?$AAs?$AA?$CI?$AAs?$AAz?$AAL?$AAi?$AAn?$AAe?$AAM?$AAe?$AAs?$AAs?$AAa?$AAg?$AAe?$AA?0?$AA?5?$AA4?$AA0?$AA9?$AA6?$AA?0?$AA?5?$AA?$CC?$AA?2@ 10100360     libucrtd:dbgrptt.obj
 0002:000173b8       ??_C@_0M@IPILFDFN@?$CFs?$CI?$CFd?$CJ?5?3?5?$CFs?$AA@ 101003b8     libucrtd:dbgrptt.obj
 0002:000173c8       ??_C@_1JG@CPKCIOEE@?$AAs?$AAt?$AAr?$AAc?$AAp?$AAy?$AA_?$AAs?$AA?$CI?$AAs?$AAz?$AAO?$AAu?$AAt?$AAM?$AAe?$AAs?$AAs?$AAa?$AAg?$AAe?$AA?0?$AA?5?$AA4?$AA0?$AA9?$AA6?$AA?0?$AA?5?$AA?$CC?$AA_?$AAC@ 101003c8     libucrtd:dbgrptt.obj
 0002:00017480       ??_C@_1FI@IBIOIHEG@?$AAs?$AAt?$AAr?$AAc?$AAp?$AAy?$AA_?$AAs?$AA?$CI?$AAs?$AAz?$AAO?$AAu?$AAt?$AAM?$AAe?$AAs?$AAs?$AAa?$AAg?$AAe?$AA?0?$AA?5?$AA4?$AA0?$AA9?$AA6?$AA?0?$AA?5?$AAs?$AAz?$AAL@ 10100480     libucrtd:dbgrptt.obj
 0002:000174f0       ??_C@_1IM@OOKIFKOH@?$AAe?$AA?5?$AA?$DN?$AA?5?$AAm?$AAb?$AAs?$AAt?$AAo?$AAw?$AAc?$AAs?$AA_?$AAs?$AA?$CI?$AA?$CG?$AAr?$AAe?$AAt?$AA?0?$AA?5?$AAs?$AAz?$AAO?$AAu?$AAt?$AAM?$AAe?$AAs?$AAs?$AAa?$AAg@ 101004f0     libucrtd:dbgrptt.obj
 0002:00017598       ??_C@_1MC@IGEECMDB@?$AAw?$AAc?$AAs?$AAc?$AAp?$AAy?$AA_?$AAs?$AA?$CI?$AAs?$AAz?$AAO?$AAu?$AAt?$AAM?$AAe?$AAs?$AAs?$AAa?$AAg?$AAe?$AA2?$AA?0?$AA?5?$AA4?$AA0?$AA9?$AA6?$AA?0?$AA?5?$AAL?$AA?$CC@ 10100598     libucrtd:dbgrptt.obj
 0002:00017680       ??_C@_1HO@PJOFIKFE@?$AA_?$AAC?$AAr?$AAt?$AAD?$AAb?$AAg?$AAR?$AAe?$AAp?$AAo?$AAr?$AAt?$AA?3?$AA?5?$AAS?$AAt?$AAr?$AAi?$AAn?$AAg?$AA?5?$AAt?$AAo?$AAo?$AA?5?$AAl?$AAo?$AAn?$AAg?$AA?5?$AAo@ 10100680     libucrtd:dbgrptt.obj
 0002:00017718       ??_C@_1CA@HPALHDOD@?$AA_?$AAV?$AAC?$AAr?$AAt?$AAD?$AAb?$AAg?$AAR?$AAe?$AAp?$AAo?$AAr?$AAt?$AAW?$AA?$AA@ 10100718     libucrtd:dbgrptt.obj
 0002:00017740       ??_C@_1FA@CNLLOMHI@?$AA_?$AAi?$AAt?$AAo?$AAw?$AA_?$AAs?$AA?$CI?$AAn?$AAL?$AAi?$AAn?$AAe?$AA?0?$AA?5?$AAs?$AAz?$AAL?$AAi?$AAn?$AAe?$AAM?$AAe?$AAs?$AAs?$AAa?$AAg?$AAe?$AA?0?$AA?5?$AA4?$AA0@ 10100740     libucrtd:dbgrptt.obj
 0002:000177a0       ??_C@_1EM@MJFLEDMB@?$AAS?$AAe?$AAc?$AAo?$AAn?$AAd?$AA?5?$AAC?$AAh?$AAa?$AAn?$AAc?$AAe?$AA?5?$AAA?$AAs?$AAs?$AAe?$AAr?$AAt?$AAi?$AAo?$AAn?$AA?5?$AAF?$AAa?$AAi?$AAl?$AAe?$AAd?$AA?3?$AA?5@ 101007a0     libucrtd:dbgrptt.obj
 0002:000177fc       ??_C@_1BO@OCHMLCAG@?$AA?$DM?$AAf?$AAi?$AAl?$AAe?$AA?5?$AAu?$AAn?$AAk?$AAn?$AAo?$AAw?$AAn?$AA?$DO?$AA?$AA@ 101007fc     libucrtd:dbgrptt.obj
 0002:00017820       ??_C@_1BA@ELMMDCFC@?$AA?0?$AA?5?$AAL?$AAi?$AAn?$AAe?$AA?5?$AA?$AA@ 10100820     libucrtd:dbgrptt.obj
 0002:00017834       ??_C@_13LBAGMAIH@?$AA?6?$AA?$AA@ 10100834     libucrtd:dbgrptt.obj
 0002:00017838       ??_C@_1JK@KHFABAEO@?$AAw?$AAc?$AAs?$AAc?$AAp?$AAy?$AA_?$AAs?$AA?$CI?$AAs?$AAz?$AAU?$AAs?$AAe?$AAr?$AAM?$AAe?$AAs?$AAs?$AAa?$AAg?$AAe?$AA?0?$AA?5?$AA4?$AA0?$AA9?$AA6?$AA?0?$AA?5?$AAL?$AA?$CC@ 10100838     libucrtd:dbgrptt.obj
 0002:000178f0       ??_C@_1KO@DGAHENCH@?$AAw?$AAc?$AAs?$AAc?$AAp?$AAy?$AA_?$AAs?$AA?$CI?$AAs?$AAz?$AAL?$AAi?$AAn?$AAe?$AAM?$AAe?$AAs?$AAs?$AAa?$AAg?$AAe?$AA?0?$AA?5?$AA4?$AA0?$AA9?$AA6?$AA?0?$AA?5?$AAs?$AAz@ 101008f0     libucrtd:dbgrptt.obj
 0002:000179c0       ??_C@_1CG@FFFGGODN@?$AAA?$AAs?$AAs?$AAe?$AAr?$AAt?$AAi?$AAo?$AAn?$AA?5?$AAf?$AAa?$AAi?$AAl?$AAe?$AAd?$AA?3?$AA?5?$AA?$AA@ 101009c0     libucrtd:dbgrptt.obj
 0002:000179f0       ??_C@_1CE@OJBNHDMO@?$AAA?$AAs?$AAs?$AAe?$AAr?$AAt?$AAi?$AAo?$AAn?$AA?5?$AAf?$AAa?$AAi?$AAl?$AAe?$AAd?$AA?$CB?$AA?$AA@ 101009f0     libucrtd:dbgrptt.obj
 0002:00017a20       ??_C@_1FK@HPADHBBD@?$AAw?$AAc?$AAs?$AAc?$AAa?$AAt?$AA_?$AAs?$AA?$CI?$AAs?$AAz?$AAL?$AAi?$AAn?$AAe?$AAM?$AAe?$AAs?$AAs?$AAa?$AAg?$AAe?$AA?0?$AA?5?$AA4?$AA0?$AA9?$AA6?$AA?0?$AA?5?$AAs?$AAz@ 10100a20     libucrtd:dbgrptt.obj
 0002:00017a90       ??_C@_1EK@NMDFGHMF@?$AAw?$AAc?$AAs?$AAc?$AAa?$AAt?$AA_?$AAs?$AA?$CI?$AAs?$AAz?$AAL?$AAi?$AAn?$AAe?$AAM?$AAe?$AAs?$AAs?$AAa?$AAg?$AAe?$AA?0?$AA?5?$AA4?$AA0?$AA9?$AA6?$AA?0?$AA?5?$AAL?$AA?$CC@ 10100a90     libucrtd:dbgrptt.obj
 0002:00017ae8       ??_C@_13CMNBPIDO@?$AA?$AN?$AA?$AA@ 10100ae8     libucrtd:dbgrptt.obj
 0002:00017af0       ??_C@_1EK@PHCBEDKB@?$AAw?$AAc?$AAs?$AAc?$AAa?$AAt?$AA_?$AAs?$AA?$CI?$AAs?$AAz?$AAL?$AAi?$AAn?$AAe?$AAM?$AAe?$AAs?$AAs?$AAa?$AAg?$AAe?$AA?0?$AA?5?$AA4?$AA0?$AA9?$AA6?$AA?0?$AA?5?$AAL?$AA?$CC@ 10100af0     libucrtd:dbgrptt.obj
 0002:00017b48       ??_C@_1BM@GIBPMLNL@?$AA?$CF?$AAl?$AAs?$AA?$CI?$AA?$CF?$AAd?$AA?$CJ?$AA?5?$AA?3?$AA?5?$AA?$CF?$AAl?$AAs?$AA?$AA@ 10100b48     libucrtd:dbgrptt.obj
 0002:00017b70       ??_C@_1JI@EACPGHID@?$AAw?$AAc?$AAs?$AAc?$AAp?$AAy?$AA_?$AAs?$AA?$CI?$AAs?$AAz?$AAO?$AAu?$AAt?$AAM?$AAe?$AAs?$AAs?$AAa?$AAg?$AAe?$AA?0?$AA?5?$AA4?$AA0?$AA9?$AA6?$AA?0?$AA?5?$AAL?$AA?$CC?$AA_@ 10100b70     libucrtd:dbgrptt.obj
 0002:00017c28       ??_C@_1FI@DBAIJPJE@?$AAw?$AAc?$AAs?$AAc?$AAp?$AAy?$AA_?$AAs?$AA?$CI?$AAs?$AAz?$AAO?$AAu?$AAt?$AAM?$AAe?$AAs?$AAs?$AAa?$AAg?$AAe?$AA?0?$AA?5?$AA4?$AA0?$AA9?$AA6?$AA?0?$AA?5?$AAs?$AAz?$AAL@ 10100c28     libucrtd:dbgrptt.obj
 0002:00017c98       ??_C@_1IK@LEBMBAP@?$AAw?$AAc?$AAs?$AAt?$AAo?$AAm?$AAb?$AAs?$AA_?$AAs?$AA?$CI?$AAn?$AAu?$AAl?$AAl?$AAp?$AAt?$AAr?$AA?0?$AA?5?$AAs?$AAz?$AAO?$AAu?$AAt?$AAM?$AAe?$AAs?$AAs?$AAa?$AAg?$AAe@ 10100c98     libucrtd:dbgrptt.obj
 0002:00017d40       ??_C@_1MA@LBAMNNOB@?$AAs?$AAt?$AAr?$AAc?$AAp?$AAy?$AA_?$AAs?$AA?$CI?$AAs?$AAz?$AAO?$AAu?$AAt?$AAM?$AAe?$AAs?$AAs?$AAa?$AAg?$AAe?$AA2?$AA?0?$AA?5?$AA4?$AA0?$AA9?$AA6?$AA?0?$AA?5?$AA?$CC?$AA_@ 10100d40     libucrtd:dbgrptt.obj
 0002:00017e28       ??_C@_0DP@GNPEPHJD@_CrtDbgReport?3?5String?5too?5long?5o@ 10100e28     libucrtd:dbgrptt.obj
 0002:00017e78       ??_C@_1IE@CPGKIAGP@?$AAw?$AAc?$AAs?$AAt?$AAo?$AAm?$AAb?$AAs?$AA_?$AAs?$AA?$CI?$AA?$CG?$AAr?$AAe?$AAt?$AA?0?$AA?5?$AAs?$AAz?$AAa?$AAO?$AAu?$AAt?$AAM?$AAe?$AAs?$AAs?$AAa?$AAg?$AAe?$AA?0?$AA?5@ 10100e78     libucrtd:dbgrptt.obj
 0002:000180c8       ??_C@_1CE@JMFACANE@?$AAr?$AAe?$AAs?$AAu?$AAl?$AAt?$AA?5?$AA?$CB?$AA?$DN?$AA?5?$AAn?$AAu?$AAl?$AAl?$AAp?$AAt?$AAr?$AA?$AA@ 101010c8     libucrtd:errno.obj
 0002:000180f8       ??_C@_1FM@MJJGEFKM@?$AAm?$AAi?$AAn?$AAk?$AAe?$AAr?$AAn?$AAe?$AAl?$AA?2?$AAc?$AAr?$AAt?$AAs?$AA?2?$AAu?$AAc?$AAr?$AAt?$AA?2?$AAs?$AAr?$AAc?$AA?2?$AAa?$AAp?$AAp?$AAc?$AAr?$AAt?$AA?2?$AAm@ 101010f8     libucrtd:errno.obj
 0002:00018168       ??_C@_1BG@KCMPBBDK@?$AA_?$AAg?$AAe?$AAt?$AA_?$AAe?$AAr?$AAr?$AAn?$AAo?$AA?$AA@ 10101168     libucrtd:errno.obj
 0002:00018184       ??_C@_1BM@INIPHHDD@?$AA_?$AAg?$AAe?$AAt?$AA_?$AAd?$AAo?$AAs?$AAe?$AAr?$AAr?$AAn?$AAo?$AA?$AA@ 10101184     libucrtd:errno.obj
 0002:000181a8       ??_C@_0CP@JIIONAG@minkernel?2crts?2ucrt?2src?2appcrt?2m@ 101011a8     libucrtd:signal.obj
 0002:000181e0       ??_C@_1DA@NBILLKNO@?$AAl?$AAo?$AAc?$AAa?$AAl?$AA_?$AAa?$AAc?$AAt?$AAi?$AAo?$AAn?$AA?5?$AA?$CB?$AA?$DN?$AA?5?$AAn?$AAu?$AAl?$AAl?$AAp?$AAt?$AAr?$AA?$AA@ 101011e0     libucrtd:signal.obj
 0002:00018220       ??_C@_1FO@CCGDPEKE@?$AAm?$AAi?$AAn?$AAk?$AAe?$AAr?$AAn?$AAe?$AAl?$AA?2?$AAc?$AAr?$AAt?$AAs?$AA?2?$AAu?$AAc?$AAr?$AAt?$AA?2?$AAs?$AAr?$AAc?$AA?2?$AAa?$AAp?$AAp?$AAc?$AAr?$AAt?$AA?2?$AAm@ 10101220     libucrtd:signal.obj
 0002:00018290       ??_C@_1M@DMJEIKHL@?$AAr?$AAa?$AAi?$AAs?$AAe?$AA?$AA@ 10101290     libucrtd:signal.obj
 0002:000182a0       ??_C@_1DO@MLNEDKGB@?$AA?$CI?$AA?$CC?$AAI?$AAn?$AAv?$AAa?$AAl?$AAi?$AAd?$AA?5?$AAs?$AAi?$AAg?$AAn?$AAa?$AAl?$AA?5?$AAo?$AAr?$AA?5?$AAe?$AAr?$AAr?$AAo?$AAr?$AA?$CC?$AA?0?$AA?5?$AA0?$AA?$CJ?$AA?$AA@ 101012a0     libucrtd:signal.obj
 0002:000182ec       ??_C@_1BG@HHIFPOEK@?$AAm?$AAs?$AAv?$AAc?$AAr?$AAt?$AA?4?$AAd?$AAl?$AAl?$AA?$AA@ 101012ec     libucrtd:free_base.obj
 0002:00018308       ??_C@_1CE@NPMGPNNP@?$AAI?$AAS?$AA_?$AA2?$AA_?$AAP?$AAO?$AAW?$AA_?$AAN?$AA?$CI?$AAa?$AAl?$AAi?$AAg?$AAn?$AA?$CJ?$AA?$AA@ 10101308     libucrtd:align.obj
 0002:00018338       ??_C@_1FM@GHAMPDNO@?$AAm?$AAi?$AAn?$AAk?$AAe?$AAr?$AAn?$AAe?$AAl?$AA?2?$AAc?$AAr?$AAt?$AAs?$AA?2?$AAu?$AAc?$AAr?$AAt?$AA?2?$AAs?$AAr?$AAc?$AA?2?$AAa?$AAp?$AAp?$AAc?$AAr?$AAt?$AA?2?$AAh@ 10101338     libucrtd:align.obj
 0002:000183a8       ??_C@_1DI@LCGAEAA@?$AA_?$AAa?$AAl?$AAi?$AAg?$AAn?$AAe?$AAd?$AA_?$AAo?$AAf?$AAf?$AAs?$AAe?$AAt?$AA_?$AAm?$AAa?$AAl?$AAl?$AAo?$AAc?$AA_?$AAb?$AAa?$AAs?$AAe?$AA?$AA@ 101013a8     libucrtd:align.obj
 0002:000183ec       ??_C@_1DK@PBMGAKHJ@?$AA_?$AAa?$AAl?$AAi?$AAg?$AAn?$AAe?$AAd?$AA_?$AAo?$AAf?$AAf?$AAs?$AAe?$AAt?$AA_?$AAr?$AAe?$AAa?$AAl?$AAl?$AAo?$AAc?$AA_?$AAb?$AAa?$AAs?$AAe?$AA?$AA@ 101013ec     libucrtd:align.obj
 0002:00018434       ??_C@_1CI@DHKEEEHJ@?$AA_?$AAa?$AAl?$AAi?$AAg?$AAn?$AAe?$AAd?$AA_?$AAm?$AAs?$AAi?$AAz?$AAe?$AA_?$AAb?$AAa?$AAs?$AAe?$AA?$AA@ 10101434     libucrtd:align.obj
 0002:00018464       ??_C@_1CI@JELMFMDH@?$AAc?$AA?5?$AA?$DO?$AA?$DN?$AA?5?$AA?9?$AA1?$AA?5?$AA?$CG?$AA?$CG?$AA?5?$AAc?$AA?5?$AA?$DM?$AA?$DN?$AA?5?$AA2?$AA5?$AA5?$AA?$AA@ 10101464     libucrtd:isctype.obj
 0002:00018498       ??_C@_1GG@KPBGDFHJ@?$AAm?$AAi?$AAn?$AAk?$AAe?$AAr?$AAn?$AAe?$AAl?$AA?2?$AAc?$AAr?$AAt?$AAs?$AA?2?$AAu?$AAc?$AAr?$AAt?$AA?2?$AAs?$AAr?$AAc?$AA?2?$AAa?$AAp?$AAp?$AAc?$AAr?$AAt?$AA?2?$AAc@ 10101498     libucrtd:isctype.obj
 0002:00018514       ??_C@_0DM@DKIFNNOL@minkernel?2crts?2ucrt?2src?2appcrt?2i@ 10101514     libucrtd:per_thread_data.obj
 0002:00018560       ??_C@_1FO@GEKPJHID@?$AAm?$AAi?$AAn?$AAk?$AAe?$AAr?$AAn?$AAe?$AAl?$AA?2?$AAc?$AAr?$AAt?$AAs?$AA?2?$AAu?$AAc?$AAr?$AAt?$AA?2?$AAs?$AAr?$AAc?$AA?2?$AAa?$AAp?$AAp?$AAc?$AAr?$AAt?$AA?2?$AAh@ 10101560     libucrtd:expand.obj
 0002:000185d0       ??_C@_1BK@JMCGJOCC@?$AA_?$AAe?$AAx?$AAp?$AAa?$AAn?$AAd?$AA_?$AAb?$AAa?$AAs?$AAe?$AA?$AA@ 101015d0     libucrtd:expand.obj
 0002:000185f0       ??_C@_1CO@JKFLNGDK@?$AAm?$AAo?$AAd?$AAe?$AA?5?$AA?$DN?$AA?$DN?$AA?5?$AA0?$AA?5?$AA?$HM?$AA?$HM?$AA?5?$AAm?$AAo?$AAd?$AAe?$AA?5?$AA?$DN?$AA?$DN?$AA?5?$AA1?$AA?$AA@ 101015f0     libucrtd:new_mode.obj
 0002:00018628       ??_C@_1GC@PJMKBHEK@?$AAm?$AAi?$AAn?$AAk?$AAe?$AAr?$AAn?$AAe?$AAl?$AA?2?$AAc?$AAr?$AAt?$AAs?$AA?2?$AAu?$AAc?$AAr?$AAt?$AA?2?$AAs?$AAr?$AAc?$AA?2?$AAa?$AAp?$AAp?$AAc?$AAr?$AAt?$AA?2?$AAh@ 10101628     libucrtd:new_mode.obj
 0002:000186a0       ??_C@_1BM@PDPAKJNF@?$AA_?$AAs?$AAe?$AAt?$AA_?$AAn?$AAe?$AAw?$AA_?$AAm?$AAo?$AAd?$AAe?$AA?$AA@ 101016a0     libucrtd:new_mode.obj
 0002:000186c8       ___lc_category             101016c8     libucrtd:wsetlocale.obj
 0002:00018720       ??_C@_1O@GIFLHMA@?$AAL?$AAC?$AA_?$AAA?$AAL?$AAL?$AA?$AA@ 10101720     libucrtd:wsetlocale.obj
 0002:00018730       ??_C@_1BG@PPOMIBNJ@?$AAL?$AAC?$AA_?$AAC?$AAO?$AAL?$AAL?$AAA?$AAT?$AAE?$AA?$AA@ 10101730     libucrtd:wsetlocale.obj
 0002:0001874c       ??_C@_1BC@FFJGAPJM@?$AAL?$AAC?$AA_?$AAC?$AAT?$AAY?$AAP?$AAE?$AA?$AA@ 1010174c     libucrtd:wsetlocale.obj
 0002:00018764       ??_C@_1BI@PCKFNJFB@?$AAL?$AAC?$AA_?$AAM?$AAO?$AAN?$AAE?$AAT?$AAA?$AAR?$AAY?$AA?$AA@ 10101764     libucrtd:wsetlocale.obj
 0002:00018780       ??_C@_1BG@ENIEDKID@?$AAL?$AAC?$AA_?$AAN?$AAU?$AAM?$AAE?$AAR?$AAI?$AAC?$AA?$AA@ 10101780     libucrtd:wsetlocale.obj
 0002:0001879c       ??_C@_1BA@HAAOMIIG@?$AAL?$AAC?$AA_?$AAT?$AAI?$AAM?$AAE?$AA?$AA@ 1010179c     libucrtd:wsetlocale.obj
 0002:00018848       ??_C@_1GA@LDEGDKD@?$AA?$CI?$AA?$CC?$AAI?$AAn?$AAv?$AAa?$AAl?$AAi?$AAd?$AA?5?$AAp?$AAa?$AAr?$AAa?$AAm?$AAe?$AAt?$AAe?$AAr?$AA?5?$AAf?$AAo?$AAr?$AA?5?$AA_?$AAc?$AAo?$AAn?$AAf?$AAi?$AAg?$AAt@ 10101848     libucrtd:wsetlocale.obj
 0002:000188c0       ??_C@_1GK@DPKNLBIE@?$AAm?$AAi?$AAn?$AAk?$AAe?$AAr?$AAn?$AAe?$AAl?$AA?2?$AAc?$AAr?$AAt?$AAs?$AA?2?$AAu?$AAc?$AAr?$AAt?$AA?2?$AAs?$AAr?$AAc?$AA?2?$AAa?$AAp?$AAp?$AAc?$AAr?$AAt?$AA?2?$AAl@ 101018c0     libucrtd:wsetlocale.obj
 0002:00018940       ??_C@_1CI@FGIONOJM@?$AA_?$AAc?$AAo?$AAn?$AAf?$AAi?$AAg?$AAt?$AAh?$AAr?$AAe?$AAa?$AAd?$AAl?$AAo?$AAc?$AAa?$AAl?$AAe?$AA?$AA@ 10101940     libucrtd:wsetlocale.obj
 0002:00018970       ??_C@_0DF@MKMHJGEJ@minkernel?2crts?2ucrt?2src?2appcrt?2l@ 10101970     libucrtd:wsetlocale.obj
 0002:000189b0       ??_C@_1FG@OHLFEKMC@?$AAL?$AAC?$AA_?$AAM?$AAI?$AAN?$AA?5?$AA?$DM?$AA?$DN?$AA?5?$AA_?$AAc?$AAa?$AAt?$AAe?$AAg?$AAo?$AAr?$AAy?$AA?5?$AA?$CG?$AA?$CG?$AA?5?$AA_?$AAc?$AAa?$AAt?$AAe?$AAg?$AAo?$AAr?$AAy@ 101019b0     libucrtd:wsetlocale.obj
 0002:00018a18       ??_C@_1BI@KJNPAEHL@?$AA_?$AAw?$AAs?$AAe?$AAt?$AAl?$AAo?$AAc?$AAa?$AAl?$AAe?$AA?$AA@ 10101a18     libucrtd:wsetlocale.obj
 0002:00018a34       ??_C@_15NBPDDFIP@?$AA?$DN?$AA?$DL?$AA?$AA@ 10101a34     libucrtd:wsetlocale.obj
 0002:00018a3c       ??_C@_13PJJBFPED@?$AA?$DL?$AA?$AA@ 10101a3c     libucrtd:wsetlocale.obj
 0002:00018a40       ??_C@_1CG@DKJCBBPP@?$AA_?$AAw?$AAs?$AAe?$AAt?$AAl?$AAo?$AAc?$AAa?$AAl?$AAe?$AA_?$AAn?$AAo?$AAl?$AAo?$AAc?$AAk?$AA?$AA@ 10101a40     libucrtd:wsetlocale.obj
 0002:00018a70       ??_C@_1IG@NGDCPCDE@?$AAw?$AAc?$AAs?$AAn?$AAc?$AAp?$AAy?$AA_?$AAs?$AA?$CI?$AAl?$AAc?$AAt?$AAe?$AAm?$AAp?$AA?0?$AA?5?$AA?$CI?$AAs?$AAi?$AAz?$AAe?$AAo?$AAf?$AA?$CI?$AA?$CK?$AA_?$AA_?$AAc?$AAo?$AAu@ 10101a70     libucrtd:wsetlocale.obj
 0002:00018b10       ??_C@_1CI@ODOPEMNJ@?$AA_?$AAw?$AAs?$AAe?$AAt?$AAl?$AAo?$AAc?$AAa?$AAl?$AAe?$AA_?$AAs?$AAe?$AAt?$AA_?$AAc?$AAa?$AAt?$AA?$AA@ 10101b10     libucrtd:wsetlocale.obj
 0002:00018b40       ??_C@_1EM@MHOCNIAA@?$AAw?$AAc?$AAs?$AAc?$AAp?$AAy?$AA_?$AAs?$AA?$CI?$AAp?$AAc?$AAh?$AA_?$AAc?$AAa?$AAt?$AA_?$AAl?$AAo?$AAc?$AAa?$AAl?$AAe?$AA?0?$AA?5?$AAc?$AAc?$AAh?$AA?0?$AA?5?$AAl?$AAc@ 10101b40     libucrtd:wsetlocale.obj
 0002:00018b9c       ??_C@_13NMPKAAJP@?$AA?$DN?$AA?$AA@ 10101b9c     libucrtd:wsetlocale.obj
 0002:00018ba0       ??_C@_1CI@LKOPFFBD@?$AA_?$AAw?$AAs?$AAe?$AAt?$AAl?$AAo?$AAc?$AAa?$AAl?$AAe?$AA_?$AAg?$AAe?$AAt?$AA_?$AAa?$AAl?$AAl?$AA?$AA@ 10101ba0     libucrtd:wsetlocale.obj
 0002:00018bd0       ??_C@_1DC@HMLJMODP@?$AAw?$AAc?$AAs?$AAc?$AAa?$AAt?$AA_?$AAs?$AA?$CI?$AAp?$AAc?$AAh?$AA?0?$AA?5?$AAc?$AAc?$AAh?$AA?0?$AA?5?$AAL?$AA?$CC?$AA?$DL?$AA?$CC?$AA?$CJ?$AA?$AA@ 10101bd0     libucrtd:wsetlocale.obj
 0002:00018c0c       ??_C@_1BM@OIIBLEFG@?$AA_?$AAe?$AAx?$AAp?$AAa?$AAn?$AAd?$AAl?$AAo?$AAc?$AAa?$AAl?$AAe?$AA?$AA@ 10101c0c     libucrtd:wsetlocale.obj
 0002:00018c30       ??_C@_1BCM@BOFLACKH@?$AAw?$AAc?$AAs?$AAn?$AAc?$AAp?$AAy?$AA_?$AAs?$AA?$CI?$AAl?$AAo?$AAc?$AAa?$AAl?$AAe?$AAN?$AAa?$AAm?$AAe?$AAO?$AAu?$AAt?$AAp?$AAu?$AAt?$AA?0?$AA?5?$AAl?$AAo?$AAc?$AAa@ 10101c30     libucrtd:wsetlocale.obj
 0002:00018d98       ??_C@_1EI@OCINLCHN@?$AAw?$AAc?$AAs?$AAc?$AAp?$AAy?$AA_?$AAs?$AA?$CI?$AAo?$AAu?$AAt?$AAp?$AAu?$AAt?$AA?0?$AA?5?$AAs?$AAi?$AAz?$AAe?$AAI?$AAn?$AAC?$AAh?$AAa?$AAr?$AAs?$AA?0?$AA?5?$AAL?$AA?$CC@ 10101d98     libucrtd:wsetlocale.obj
 0002:00018df0       ??_C@_13FHBKNHDA@?$AAC?$AA?$AA@ 10101df0     libucrtd:wsetlocale.obj
 0002:00018df8       ??_C@_1MO@NNCNEOAP@?$AAw?$AAc?$AAs?$AAn?$AAc?$AAp?$AAy?$AA_?$AAs?$AA?$CI?$AAl?$AAo?$AAc?$AAa?$AAl?$AAe?$AAN?$AAa?$AAm?$AAe?$AAO?$AAu?$AAt?$AAp?$AAu?$AAt?$AA?0?$AA?5?$AAl?$AAo?$AAc?$AAa@ 10101df8     libucrtd:wsetlocale.obj
 0002:00018ef0       ??_C@_1IG@MKDIEKFD@?$AAw?$AAc?$AAs?$AAn?$AAc?$AAp?$AAy?$AA_?$AAs?$AA?$CI?$AAc?$AAa?$AAc?$AAh?$AAe?$AAo?$AAu?$AAt?$AA?0?$AA?5?$AAc?$AAa?$AAc?$AAh?$AAe?$AAo?$AAu?$AAt?$AAL?$AAe?$AAn?$AA?0@ 10101ef0     libucrtd:wsetlocale.obj
 0002:00018f90       ??_C@_1KK@KMIFPBBC@?$AAw?$AAc?$AAs?$AAn?$AAc?$AAp?$AAy?$AA_?$AAs?$AA?$CI?$AAl?$AAo?$AAc?$AAa?$AAl?$AAe?$AAN?$AAa?$AAm?$AAe?$AAO?$AAu?$AAt?$AAp?$AAu?$AAt?$AA?0?$AA?5?$AAl?$AAo?$AAc?$AAa@ 10101f90     libucrtd:wsetlocale.obj
 0002:00019060       ??_C@_1BBO@MGLBPLBP@?$AAw?$AAc?$AAs?$AAn?$AAc?$AAp?$AAy?$AA_?$AAs?$AA?$CI?$AA_?$AAp?$AAs?$AAe?$AAt?$AAl?$AAo?$AAc?$AA_?$AAd?$AAa?$AAt?$AAa?$AA?9?$AA?$DO?$AA_?$AAc?$AAa?$AAc?$AAh?$AAe?$AAL@ 10102060     libucrtd:wsetlocale.obj
 0002:000191b8       ??_C@_1BDK@DHHMOMPJ@?$AAw?$AAc?$AAs?$AAn?$AAc?$AAp?$AAy?$AA_?$AAs?$AA?$CI?$AA_?$AAp?$AAs?$AAe?$AAt?$AAl?$AAo?$AAc?$AA_?$AAd?$AAa?$AAt?$AAa?$AA?9?$AA?$DO?$AA_?$AAc?$AAa?$AAc?$AAh?$AAe?$AAL@ 101021b8     libucrtd:wsetlocale.obj
 0002:00019330       ??_C@_1IC@FCCDBGLL@?$AAw?$AAc?$AAs?$AAn?$AAc?$AAp?$AAy?$AA_?$AAs?$AA?$CI?$AAc?$AAa?$AAc?$AAh?$AAe?$AAi?$AAn?$AA?0?$AA?5?$AAc?$AAa?$AAc?$AAh?$AAe?$AAi?$AAn?$AAL?$AAe?$AAn?$AA?0?$AA?5?$AAe@ 10102330     libucrtd:wsetlocale.obj
 0002:000193d0       ??_C@_1FA@HOOAAHFF@?$AAw?$AAc?$AAs?$AAc?$AAp?$AAy?$AA_?$AAs?$AA?$CI?$AAo?$AAu?$AAt?$AAp?$AAu?$AAt?$AA?0?$AA?5?$AAs?$AAi?$AAz?$AAe?$AAI?$AAn?$AAC?$AAh?$AAa?$AAr?$AAs?$AA?0?$AA?5?$AAc?$AAa@ 101023d0     libucrtd:wsetlocale.obj
 0002:00019430       ??_C@_1BC@LEOKFFML@?$AA_?$AAw?$AAc?$AAs?$AAc?$AAa?$AAt?$AAs?$AA?$AA@ 10102430     libucrtd:wsetlocale.obj
 0002:00019448       ??_C@_1BHK@BGMBCJOP@?$AAw?$AAc?$AAs?$AAc?$AAa?$AAt?$AA_?$AAs?$AA?$CI?$AAo?$AAu?$AAt?$AAs?$AAt?$AAr?$AA?0?$AA?5?$AAn?$AAu?$AAm?$AAb?$AAe?$AAr?$AAO?$AAf?$AAE?$AAl?$AAe?$AAm?$AAe?$AAn?$AAt@ 10102448     libucrtd:wsetlocale.obj
 0002:00019610       ??_C@_1BK@GNCHCGCN@?$AA_?$AA_?$AAl?$AAc?$AA_?$AAw?$AAc?$AAs?$AAt?$AAo?$AAl?$AAc?$AA?$AA@ 10102610     libucrtd:wsetlocale.obj
 0002:00019630       ??_C@_1MI@MGHKCMFH@?$AAw?$AAc?$AAs?$AAn?$AAc?$AAp?$AAy?$AA_?$AAs?$AA?$CI?$AAn?$AAa?$AAm?$AAe?$AAs?$AA?9?$AA?$DO?$AAs?$AAz?$AAC?$AAo?$AAd?$AAe?$AAP?$AAa?$AAg?$AAe?$AA?0?$AA?5?$AA?$CI?$AAs?$AAi@ 10102630     libucrtd:wsetlocale.obj
 0002:00019720       ??_C@_17MBJJLFDM@?$AA_?$AA?4?$AA?0?$AA?$AA@ 10102720     libucrtd:wsetlocale.obj
 0002:00019730       ??_C@_1LO@GGCCDNLJ@?$AAw?$AAc?$AAs?$AAn?$AAc?$AAp?$AAy?$AA_?$AAs?$AA?$CI?$AAn?$AAa?$AAm?$AAe?$AAs?$AA?9?$AA?$DO?$AAs?$AAz?$AAL?$AAa?$AAn?$AAg?$AAu?$AAa?$AAg?$AAe?$AA?0?$AA?5?$AA?$CI?$AAs?$AAi@ 10102730     libucrtd:wsetlocale.obj
 0002:00019818       ??_C@_1LK@JOIOCOID@?$AAw?$AAc?$AAs?$AAn?$AAc?$AAp?$AAy?$AA_?$AAs?$AA?$CI?$AAn?$AAa?$AAm?$AAe?$AAs?$AA?9?$AA?$DO?$AAs?$AAz?$AAC?$AAo?$AAu?$AAn?$AAt?$AAr?$AAy?$AA?0?$AA?5?$AA?$CI?$AAs?$AAi?$AAz@ 10102818     libucrtd:wsetlocale.obj
 0002:000198f8       ??_C@_1LO@OJICFEP@?$AAw?$AAc?$AAs?$AAn?$AAc?$AAp?$AAy?$AA_?$AAs?$AA?$CI?$AAn?$AAa?$AAm?$AAe?$AAs?$AA?9?$AA?$DO?$AAs?$AAz?$AAC?$AAo?$AAd?$AAe?$AAP?$AAa?$AAg?$AAe?$AA?0?$AA?5?$AA?$CI?$AAs?$AAi@ 101028f8     libucrtd:wsetlocale.obj
 0002:000199dc       ??_C@_1BK@HEBMGPEK@?$AA_?$AA_?$AAl?$AAc?$AA_?$AAl?$AAc?$AAt?$AAo?$AAw?$AAc?$AAs?$AA?$AA@ 101029dc     libucrtd:wsetlocale.obj
 0002:00019a00       ??_C@_1GM@FOFMGOEK@?$AAw?$AAc?$AAs?$AAc?$AAp?$AAy?$AA_?$AAs?$AA?$CI?$AAl?$AAo?$AAc?$AAa?$AAl?$AAe?$AA?0?$AA?5?$AAn?$AAu?$AAm?$AAb?$AAe?$AAr?$AAO?$AAf?$AAE?$AAl?$AAe?$AAm?$AAe?$AAn?$AAt@ 10102a00     libucrtd:wsetlocale.obj
 0002:00019a84       ??_C@_13ENNFDPBH@?$AA_?$AA?$AA@ 10102a84     libucrtd:wsetlocale.obj
 0002:00019a88       ??_C@_13JOFGPIOO@?$AA?4?$AA?$AA@ 10102a88     libucrtd:wsetlocale.obj
 0002:00019a8c       ??_C@_1DA@BBIOOKDN@?$AA_?$AA_?$AAa?$AAc?$AAr?$AAt?$AA_?$AAc?$AAo?$AAp?$AAy?$AA_?$AAl?$AAo?$AAc?$AAa?$AAl?$AAe?$AA_?$AAn?$AAa?$AAm?$AAe?$AA?$AA@ 10102a8c     libucrtd:wsetlocale.obj
 0002:00019ac8       ??_C@_1GI@HBNMCKGD@?$AAw?$AAc?$AAs?$AAn?$AAc?$AAp?$AAy?$AA_?$AAs?$AA?$CI?$AAl?$AAo?$AAc?$AAa?$AAl?$AAe?$AAN?$AAa?$AAm?$AAe?$AAC?$AAo?$AAp?$AAy?$AA?0?$AA?5?$AAc?$AAc?$AAh?$AA?$CL?$AA1?$AA?0@ 10102ac8     libucrtd:wsetlocale.obj
 0002:00019b44       ??_C@_03KOEHGMDN@Sun?$AA@  10102b44     libucrtd:nlsdata.obj
 0002:00019b48       ??_C@_03PDAGKDH@Mon?$AA@   10102b48     libucrtd:nlsdata.obj
 0002:00019b4c       ??_C@_03NAGEINEP@Tue?$AA@  10102b4c     libucrtd:nlsdata.obj
 0002:00019b50       ??_C@_03MHOMLAJA@Wed?$AA@  10102b50     libucrtd:nlsdata.obj
 0002:00019b54       ??_C@_03IOFIKPDN@Thu?$AA@  10102b54     libucrtd:nlsdata.obj
 0002:00019b58       ??_C@_03IDIOELNC@Fri?$AA@  10102b58     libucrtd:nlsdata.obj
 0002:00019b5c       ??_C@_03FEFJNEK@Sat?$AA@   10102b5c     libucrtd:nlsdata.obj
 0002:00019b60       ??_C@_06OOPIFAJ@Sunday?$AA@ 10102b60     libucrtd:nlsdata.obj
 0002:00019b68       ??_C@_06JLEDEDGH@Monday?$AA@ 10102b68     libucrtd:nlsdata.obj
 0002:00019b70       ??_C@_07BAAGCFCM@Tuesday?$AA@ 10102b70     libucrtd:nlsdata.obj
 0002:00019b7c       ??_C@_09DLIGFAKA@Wednesday?$AA@ 10102b7c     libucrtd:nlsdata.obj
 0002:00019b88       ??_C@_08HACCIKIA@Thursday?$AA@ 10102b88     libucrtd:nlsdata.obj
 0002:00019b94       ??_C@_06JECMNKMI@Friday?$AA@ 10102b94     libucrtd:nlsdata.obj
 0002:00019b9c       ??_C@_08INBOOONO@Saturday?$AA@ 10102b9c     libucrtd:nlsdata.obj
 0002:00019ba8       ??_C@_03JIHJHPIE@Jan?$AA@  10102ba8     libucrtd:nlsdata.obj
 0002:00019bac       ??_C@_03HJBDCHOM@Feb?$AA@  10102bac     libucrtd:nlsdata.obj
 0002:00019bb0       ??_C@_03ODNJBKGA@Mar?$AA@  10102bb0     libucrtd:nlsdata.obj
 0002:00019bb4       ??_C@_03LEOLGMJP@Apr?$AA@  10102bb4     libucrtd:nlsdata.obj
 0002:00019bb8       ??_C@_03CNMDKL@May?$AA@    10102bb8     libucrtd:nlsdata.obj
 0002:00019bbc       ??_C@_03IDFGHECI@Jun?$AA@  10102bbc     libucrtd:nlsdata.obj
 0002:00019bc0       ??_C@_03LBGABGKK@Jul?$AA@  10102bc0     libucrtd:nlsdata.obj
 0002:00019bc4       ??_C@_03IFJFEIGA@Aug?$AA@  10102bc4     libucrtd:nlsdata.obj
 0002:00019bc8       ??_C@_03GGCAPAJC@Sep?$AA@  10102bc8     libucrtd:nlsdata.obj
 0002:00019bcc       ??_C@_03BMAOKBAD@Oct?$AA@  10102bcc     libucrtd:nlsdata.obj
 0002:00019bd0       ??_C@_03JPJOFNIA@Nov?$AA@  10102bd0     libucrtd:nlsdata.obj
 0002:00019bd4       ??_C@_03MKABNOCG@Dec?$AA@  10102bd4     libucrtd:nlsdata.obj
 0002:00019bd8       ??_C@_07CGJPFGJA@January?$AA@ 10102bd8     libucrtd:nlsdata.obj
 0002:00019be4       ??_C@_08GNJGEPFN@February?$AA@ 10102be4     libucrtd:nlsdata.obj
 0002:00019bf0       ??_C@_05HPCKOFNC@March?$AA@ 10102bf0     libucrtd:nlsdata.obj
 0002:00019bf8       ??_C@_05DMJDNLEJ@April?$AA@ 10102bf8     libucrtd:nlsdata.obj
 0002:00019c00       ??_C@_04CNLMGBGM@June?$AA@ 10102c00     libucrtd:nlsdata.obj
 0002:00019c08       ??_C@_04MIEPOIFP@July?$AA@ 10102c08     libucrtd:nlsdata.obj
 0002:00019c10       ??_C@_06LBBHFDDG@August?$AA@ 10102c10     libucrtd:nlsdata.obj
 0002:00019c18       ??_C@_09BHHEALKD@September?$AA@ 10102c18     libucrtd:nlsdata.obj
 0002:00019c24       ??_C@_07JJNFCEND@October?$AA@ 10102c24     libucrtd:nlsdata.obj
 0002:00019c30       ??_C@_08HCHEGEOA@November?$AA@ 10102c30     libucrtd:nlsdata.obj
 0002:00019c3c       ??_C@_08EDHMEBNP@December?$AA@ 10102c3c     libucrtd:nlsdata.obj
 0002:00019c48       ??_C@_02DEDBPAFC@AM?$AA@   10102c48     libucrtd:nlsdata.obj
 0002:00019c4c       ??_C@_02CJNFDJBF@PM?$AA@   10102c4c     libucrtd:nlsdata.obj
 0002:00019c50       ??_C@_08BPBNCDIB@MM?1dd?1yy?$AA@ 10102c50     libucrtd:nlsdata.obj
 0002:00019c5c       ??_C@_0BE@CKGJFCPC@dddd?0?5MMMM?5dd?0?5yyyy?$AA@ 10102c5c     libucrtd:nlsdata.obj
 0002:00019c74       ??_C@_08JCCMCCIL@HH?3mm?3ss?$AA@ 10102c74     libucrtd:nlsdata.obj
 0002:00019c80       ??_C@_17MBGCMIPB@?$AAS?$AAu?$AAn?$AA?$AA@ 10102c80     libucrtd:nlsdata.obj
 0002:00019c8c       ??_C@_17KBOMKBF@?$AAM?$AAo?$AAn?$AA?$AA@ 10102c8c     libucrtd:nlsdata.obj
 0002:00019c98       ??_C@_17BMKGEGOJ@?$AAT?$AAu?$AAe?$AA?$AA@ 10102c98     libucrtd:nlsdata.obj
 0002:00019ca4       ??_C@_17CJEDCEPE@?$AAW?$AAe?$AAd?$AA?$AA@ 10102ca4     libucrtd:nlsdata.obj
 0002:00019cb0       ??_C@_17PDPHAADD@?$AAT?$AAh?$AAu?$AA?$AA@ 10102cb0     libucrtd:nlsdata.obj
 0002:00019cbc       ??_C@_17HFOLPPLP@?$AAF?$AAr?$AAi?$AA?$AA@ 10102cbc     libucrtd:nlsdata.obj
 0002:00019cc8       ??_C@_17GGIBDPIH@?$AAS?$AAa?$AAt?$AA?$AA@ 10102cc8     libucrtd:nlsdata.obj
 0002:00019cd4       ??_C@_1O@IHNHDHPB@?$AAS?$AAu?$AAn?$AAd?$AAa?$AAy?$AA?$AA@ 10102cd4     libucrtd:nlsdata.obj
 0002:00019ce4       ??_C@_1O@MMNBFLIA@?$AAM?$AAo?$AAn?$AAd?$AAa?$AAy?$AA?$AA@ 10102ce4     libucrtd:nlsdata.obj
 0002:00019cf4       ??_C@_1BA@ENFBFFEK@?$AAT?$AAu?$AAe?$AAs?$AAd?$AAa?$AAy?$AA?$AA@ 10102cf4     libucrtd:nlsdata.obj
 0002:00019d08       ??_C@_1BE@EBOGMDOH@?$AAW?$AAe?$AAd?$AAn?$AAe?$AAs?$AAd?$AAa?$AAy?$AA?$AA@ 10102d08     libucrtd:nlsdata.obj
 0002:00019d20       ??_C@_1BC@HHMNLIHE@?$AAT?$AAh?$AAu?$AAr?$AAs?$AAd?$AAa?$AAy?$AA?$AA@ 10102d20     libucrtd:nlsdata.obj
 0002:00019d38       ??_C@_1O@PDICJHAG@?$AAF?$AAr?$AAi?$AAd?$AAa?$AAy?$AA?$AA@ 10102d38     libucrtd:nlsdata.obj
 0002:00019d48       ??_C@_1BC@ENMNNPAJ@?$AAS?$AAa?$AAt?$AAu?$AAr?$AAd?$AAa?$AAy?$AA?$AA@ 10102d48     libucrtd:nlsdata.obj
 0002:00019d60       ??_C@_17DKNBKCHM@?$AAJ?$AAa?$AAn?$AA?$AA@ 10102d60     libucrtd:nlsdata.obj
 0002:00019d6c       ??_C@_17LMDJEKJN@?$AAF?$AAe?$AAb?$AA?$AA@ 10102d6c     libucrtd:nlsdata.obj
 0002:00019d78       ??_C@_17CKNLEDEC@?$AAM?$AAa?$AAr?$AA?$AA@ 10102d78     libucrtd:nlsdata.obj
 0002:00019d84       ??_C@_17LFPOIHDD@?$AAA?$AAp?$AAr?$AA?$AA@ 10102d84     libucrtd:nlsdata.obj
 0002:00019d90       ??_C@_17PNNKMEED@?$AAM?$AAa?$AAy?$AA?$AA@ 10102d90     libucrtd:nlsdata.obj
 0002:00019d9c       ??_C@_17KCJGOCPB@?$AAJ?$AAu?$AAn?$AA?$AA@ 10102d9c     libucrtd:nlsdata.obj
 0002:00019da8       ??_C@_17IJPCKHK@?$AAJ?$AAu?$AAl?$AA?$AA@ 10102da8     libucrtd:nlsdata.obj
 0002:00019db4       ??_C@_17ICPELBCN@?$AAA?$AAu?$AAg?$AA?$AA@ 10102db4     libucrtd:nlsdata.obj
 0002:00019dc0       ??_C@_17HCHCOKMG@?$AAS?$AAe?$AAp?$AA?$AA@ 10102dc0     libucrtd:nlsdata.obj
 0002:00019dcc       ??_C@_17FNLKOI@?$AAO?$AAc?$AAt?$AA?$AA@ 10102dcc     libucrtd:nlsdata.obj
 0002:00019dd8       ??_C@_17BBDMLCIG@?$AAN?$AAo?$AAv?$AA?$AA@ 10102dd8     libucrtd:nlsdata.obj
 0002:00019de4       ??_C@_17EGKACKIF@?$AAD?$AAe?$AAc?$AA?$AA@ 10102de4     libucrtd:nlsdata.obj
 0002:00019df0       ??_C@_1BA@EFMEIEBA@?$AAJ?$AAa?$AAn?$AAu?$AAa?$AAr?$AAy?$AA?$AA@ 10102df0     libucrtd:nlsdata.obj
 0002:00019e04       ??_C@_1BC@JGDDFFAM@?$AAF?$AAe?$AAb?$AAr?$AAu?$AAa?$AAr?$AAy?$AA?$AA@ 10102e04     libucrtd:nlsdata.obj
 0002:00019e1c       ??_C@_1M@IKEENEDF@?$AAM?$AAa?$AAr?$AAc?$AAh?$AA?$AA@ 10102e1c     libucrtd:nlsdata.obj
 0002:00019e2c       ??_C@_1M@GJNLMHFD@?$AAA?$AAp?$AAr?$AAi?$AAl?$AA?$AA@ 10102e2c     libucrtd:nlsdata.obj
 0002:00019e3c       ??_C@_19EPFLPGAP@?$AAJ?$AAu?$AAn?$AAe?$AA?$AA@ 10102e3c     libucrtd:nlsdata.obj
 0002:00019e48       ??_C@_19BIFMLPCD@?$AAJ?$AAu?$AAl?$AAy?$AA?$AA@ 10102e48     libucrtd:nlsdata.obj
 0002:00019e54       ??_C@_1O@PAHLKOAC@?$AAA?$AAu?$AAg?$AAu?$AAs?$AAt?$AA?$AA@ 10102e54     libucrtd:nlsdata.obj
 0002:00019e64       ??_C@_1BE@DKAAMBJL@?$AAS?$AAe?$AAp?$AAt?$AAe?$AAm?$AAb?$AAe?$AAr?$AA?$AA@ 10102e64     libucrtd:nlsdata.obj
 0002:00019e7c       ??_C@_1BA@EPANDLNG@?$AAO?$AAc?$AAt?$AAo?$AAb?$AAe?$AAr?$AA?$AA@ 10102e7c     libucrtd:nlsdata.obj
 0002:00019e90       ??_C@_1BC@BGLIFPF@?$AAN?$AAo?$AAv?$AAe?$AAm?$AAb?$AAe?$AAr?$AA?$AA@ 10102e90     libucrtd:nlsdata.obj
 0002:00019ea8       ??_C@_1BC@FEMKIFH@?$AAD?$AAe?$AAc?$AAe?$AAm?$AAb?$AAe?$AAr?$AA?$AA@ 10102ea8     libucrtd:nlsdata.obj
 0002:00019ec0       ??_C@_15ODEHAHHF@?$AAA?$AAM?$AA?$AA@ 10102ec0     libucrtd:nlsdata.obj
 0002:00019ec8       ??_C@_15CLMNNGEL@?$AAP?$AAM?$AA?$AA@ 10102ec8     libucrtd:nlsdata.obj
 0002:00019ed0       ??_C@_1BC@IEBCMHCM@?$AAM?$AAM?$AA?1?$AAd?$AAd?$AA?1?$AAy?$AAy?$AA?$AA@ 10102ed0     libucrtd:nlsdata.obj
 0002:00019ee8       ??_C@_1CI@KNAKOEBC@?$AAd?$AAd?$AAd?$AAd?$AA?0?$AA?5?$AAM?$AAM?$AAM?$AAM?$AA?5?$AAd?$AAd?$AA?0?$AA?5?$AAy?$AAy?$AAy?$AAy?$AA?$AA@ 10102ee8     libucrtd:nlsdata.obj
 0002:00019f18       ??_C@_1BC@GDGBMEMK@?$AAH?$AAH?$AA?3?$AAm?$AAm?$AA?3?$AAs?$AAs?$AA?$AA@ 10102f18     libucrtd:nlsdata.obj
 0002:00019f30       ??_C@_1M@BMHNFIME@?$AAe?$AAn?$AA?9?$AAU?$AAS?$AA?$AA@ 10102f30     libucrtd:nlsdata.obj
 0002:00019f40       ___lc_time_c               10102f40     libucrtd:nlsdata.obj
 0002:0001a0ec       ??_C@_1CO@HCPPKOH@?$AA_?$AA_?$AAa?$AAc?$AAr?$AAt?$AA_?$AAh?$AAe?$AAa?$AAp?$AA?5?$AA?$CB?$AA?$DN?$AA?5?$AAn?$AAu?$AAl?$AAl?$AAp?$AAt?$AAr?$AA?$AA@ 101030ec     libucrtd:heap_handle.obj
 0002:0001a128       ??_C@_1GI@OADBAEGE@?$AAm?$AAi?$AAn?$AAk?$AAe?$AAr?$AAn?$AAe?$AAl?$AA?2?$AAc?$AAr?$AAt?$AAs?$AA?2?$AAu?$AAc?$AAr?$AAt?$AA?2?$AAs?$AAr?$AAc?$AA?2?$AAa?$AAp?$AAp?$AAc?$AAr?$AAt?$AA?2?$AAh@ 10103128     libucrtd:heap_handle.obj
 0002:0001a208       ??_C@_1EG@CNNIPFIM@?$AAa?$AAp?$AAi?$AA?9?$AAm?$AAs?$AA?9?$AAw?$AAi?$AAn?$AA?9?$AAa?$AAp?$AAp?$AAm?$AAo?$AAd?$AAe?$AAl?$AA?9?$AAr?$AAu?$AAn?$AAt?$AAi?$AAm?$AAe?$AA?9?$AAl?$AA1?$AA?9?$AA1@ 10103208     libucrtd:winapi_thunks.obj
 0002:0001a260       ??_C@_1EA@JGEFHKEI@?$AAa?$AAp?$AAi?$AA?9?$AAm?$AAs?$AA?9?$AAw?$AAi?$AAn?$AA?9?$AAc?$AAo?$AAr?$AAe?$AA?9?$AAd?$AAa?$AAt?$AAe?$AAt?$AAi?$AAm?$AAe?$AA?9?$AAl?$AA1?$AA?9?$AA1?$AA?9?$AA1?$AA?$AA@ 10103260     libucrtd:winapi_thunks.obj
 0002:0001a2ac       ??_C@_1DI@GCIAAENM@?$AAa?$AAp?$AAi?$AA?9?$AAm?$AAs?$AA?9?$AAw?$AAi?$AAn?$AA?9?$AAc?$AAo?$AAr?$AAe?$AA?9?$AAf?$AAi?$AAl?$AAe?$AA?9?$AAl?$AA2?$AA?9?$AA1?$AA?9?$AA1?$AA?$AA@ 101032ac     libucrtd:winapi_thunks.obj
 0002:0001a2f0       ??_C@_1EI@MPIAOHOC@?$AAa?$AAp?$AAi?$AA?9?$AAm?$AAs?$AA?9?$AAw?$AAi?$AAn?$AA?9?$AAc?$AAo?$AAr?$AAe?$AA?9?$AAl?$AAo?$AAc?$AAa?$AAl?$AAi?$AAz?$AAa?$AAt?$AAi?$AAo?$AAn?$AA?9?$AAl?$AA1?$AA?9@ 101032f0     libucrtd:winapi_thunks.obj
 0002:0001a348       ??_C@_1FK@FPHCKFIE@?$AAa?$AAp?$AAi?$AA?9?$AAm?$AAs?$AA?9?$AAw?$AAi?$AAn?$AA?9?$AAc?$AAo?$AAr?$AAe?$AA?9?$AAl?$AAo?$AAc?$AAa?$AAl?$AAi?$AAz?$AAa?$AAt?$AAi?$AAo?$AAn?$AA?9?$AAo?$AAb?$AAs@ 10103348     libucrtd:winapi_thunks.obj
 0002:0001a3b8       ??_C@_1EM@DILCGIIO@?$AAa?$AAp?$AAi?$AA?9?$AAm?$AAs?$AA?9?$AAw?$AAi?$AAn?$AA?9?$AAc?$AAo?$AAr?$AAe?$AA?9?$AAp?$AAr?$AAo?$AAc?$AAe?$AAs?$AAs?$AAt?$AAh?$AAr?$AAe?$AAa?$AAd?$AAs?$AA?9?$AAl@ 101033b8     libucrtd:winapi_thunks.obj
 0002:0001a414       ??_C@_1DM@LNCGDDPN@?$AAa?$AAp?$AAi?$AA?9?$AAm?$AAs?$AA?9?$AAw?$AAi?$AAn?$AA?9?$AAc?$AAo?$AAr?$AAe?$AA?9?$AAs?$AAt?$AAr?$AAi?$AAn?$AAg?$AA?9?$AAl?$AA1?$AA?9?$AA1?$AA?9?$AA0?$AA?$AA@ 10103414     libucrtd:winapi_thunks.obj
 0002:0001a45c       ??_C@_1DO@FPAPJEMD@?$AAa?$AAp?$AAi?$AA?9?$AAm?$AAs?$AA?9?$AAw?$AAi?$AAn?$AA?9?$AAc?$AAo?$AAr?$AAe?$AA?9?$AAs?$AAy?$AAs?$AAi?$AAn?$AAf?$AAo?$AA?9?$AAl?$AA1?$AA?9?$AA2?$AA?9?$AA1?$AA?$AA@ 1010345c     libucrtd:winapi_thunks.obj
 0002:0001a4a8       ??_C@_1DK@NDHNAHIO@?$AAa?$AAp?$AAi?$AA?9?$AAm?$AAs?$AA?9?$AAw?$AAi?$AAn?$AA?9?$AAc?$AAo?$AAr?$AAe?$AA?9?$AAw?$AAi?$AAn?$AAr?$AAt?$AA?9?$AAl?$AA1?$AA?9?$AA1?$AA?9?$AA0?$AA?$AA@ 101034a8     libucrtd:winapi_thunks.obj
 0002:0001a4f0       ??_C@_1DM@KGHDGBCM@?$AAa?$AAp?$AAi?$AA?9?$AAm?$AAs?$AA?9?$AAw?$AAi?$AAn?$AA?9?$AAc?$AAo?$AAr?$AAe?$AA?9?$AAx?$AAs?$AAt?$AAa?$AAt?$AAe?$AA?9?$AAl?$AA2?$AA?9?$AA1?$AA?9?$AA0?$AA?$AA@ 101034f0     libucrtd:winapi_thunks.obj
 0002:0001a538       ??_C@_1EO@IJIOEFOH@?$AAa?$AAp?$AAi?$AA?9?$AAm?$AAs?$AA?9?$AAw?$AAi?$AAn?$AA?9?$AAr?$AAt?$AAc?$AAo?$AAr?$AAe?$AA?9?$AAn?$AAt?$AAu?$AAs?$AAe?$AAr?$AA?9?$AAw?$AAi?$AAn?$AAd?$AAo?$AAw?$AA?9@ 10103538     libucrtd:winapi_thunks.obj
 0002:0001a598       ??_C@_1FG@HHGEKANL@?$AAa?$AAp?$AAi?$AA?9?$AAm?$AAs?$AA?9?$AAw?$AAi?$AAn?$AA?9?$AAs?$AAe?$AAc?$AAu?$AAr?$AAi?$AAt?$AAy?$AA?9?$AAs?$AAy?$AAs?$AAt?$AAe?$AAm?$AAf?$AAu?$AAn?$AAc?$AAt?$AAi@ 10103598     libucrtd:winapi_thunks.obj
 0002:0001a600       ??_C@_1FG@NCKKOLKO@?$AAe?$AAx?$AAt?$AA?9?$AAm?$AAs?$AA?9?$AAw?$AAi?$AAn?$AA?9?$AAk?$AAe?$AAr?$AAn?$AAe?$AAl?$AA3?$AA2?$AA?9?$AAp?$AAa?$AAc?$AAk?$AAa?$AAg?$AAe?$AA?9?$AAc?$AAu?$AAr?$AAr@ 10103600     libucrtd:winapi_thunks.obj
 0002:0001a668       ??_C@_1EG@DBIOJECG@?$AAe?$AAx?$AAt?$AA?9?$AAm?$AAs?$AA?9?$AAw?$AAi?$AAn?$AA?9?$AAn?$AAt?$AAu?$AAs?$AAe?$AAr?$AA?9?$AAd?$AAi?$AAa?$AAl?$AAo?$AAg?$AAb?$AAo?$AAx?$AA?9?$AAl?$AA1?$AA?9?$AA1@ 10103668     libucrtd:winapi_thunks.obj
 0002:0001a6c0       ??_C@_1EO@FIHMJCLF@?$AAe?$AAx?$AAt?$AA?9?$AAm?$AAs?$AA?9?$AAw?$AAi?$AAn?$AA?9?$AAn?$AAt?$AAu?$AAs?$AAe?$AAr?$AA?9?$AAw?$AAi?$AAn?$AAd?$AAo?$AAw?$AAs?$AAt?$AAa?$AAt?$AAi?$AAo?$AAn?$AA?9@ 101036c0     libucrtd:winapi_thunks.obj
 0002:0001a720       ??_C@_1O@BCCLBEOE@?$AAu?$AAs?$AAe?$AAr?$AA3?$AA2?$AA?$AA@ 10103720     libucrtd:winapi_thunks.obj
 0002:0001a730       ??_C@_1HE@OILMBOBA@?$AAm?$AAi?$AAn?$AAk?$AAe?$AAr?$AAn?$AAe?$AAl?$AA?2?$AAc?$AAr?$AAt?$AAs?$AA?2?$AAu?$AAc?$AAr?$AAt?$AA?2?$AAs?$AAr?$AAc?$AA?2?$AAa?$AAp?$AAp?$AAc?$AAr?$AAt?$AA?2?$AAi@ 10103730     libucrtd:winapi_thunks.obj
 0002:0001a7c0       ??_C@_0BA@FHFNEAED@AreFileApisANSI?$AA@ 101037c0     libucrtd:winapi_thunks.obj
 0002:0001a7e0       ??_C@_0BA@IHGNDAEB@CompareStringEx?$AA@ 101037e0     libucrtd:winapi_thunks.obj
 0002:0001a800       ??_C@_0BE@LJANKFHF@EnumSystemLocalesEx?$AA@ 10103800     libucrtd:winapi_thunks.obj
 0002:0001a854       ??_C@_0BA@HNOPNCHB@GetActiveWindow?$AA@ 10103854     libucrtd:winapi_thunks.obj
 0002:0001a874       ??_C@_0BE@JOGNEJCI@GetCurrentPackageId?$AA@ 10103874     libucrtd:winapi_thunks.obj
 0002:0001a898       ??_C@_0BA@EPCJIIPD@GetDateFormatEx?$AA@ 10103898     libucrtd:winapi_thunks.obj
 0002:0001a8b8       ??_C@_0BJ@DIBIJBHA@GetEnabledXStateFeatures?$AA@ 101038b8     libucrtd:winapi_thunks.obj
 0002:0001a8e4       ??_C@_0BN@NEEHBBPO@GetFileInformationByHandleEx?$AA@ 101038e4     libucrtd:winapi_thunks.obj
 0002:0001a914       ??_C@_0BD@HHGDFDBJ@GetLastActivePopup?$AA@ 10103914     libucrtd:winapi_thunks.obj
 0002:0001a938       ??_C@_0BA@ONOKGCMP@GetLocaleInfoEx?$AA@ 10103938     libucrtd:winapi_thunks.obj
 0002:0001a958       ??_C@_0BI@DFKBFLJE@GetProcessWindowStation?$AA@ 10103958     libucrtd:winapi_thunks.obj
 0002:0001a978       ??_C@_0BP@FPNJPEJC@GetSystemTimePreciseAsFileTime?$AA@ 10103978     libucrtd:winapi_thunks.obj
 0002:0001a9ac       ??_C@_0BA@CIJJKCJJ@GetTimeFormatEx?$AA@ 101039ac     libucrtd:winapi_thunks.obj
 0002:0001a9cc       ??_C@_0BJ@PBCCBIPI@GetUserDefaultLocaleName?$AA@ 101039cc     libucrtd:winapi_thunks.obj
 0002:0001a9f8       ??_C@_0BK@DEKFELLI@GetUserObjectInformationW?$AA@ 101039f8     libucrtd:winapi_thunks.obj
 0002:0001aa24       ??_C@_0BG@IKLDMBLM@GetXStateFeaturesMask?$AA@ 10103a24     libucrtd:winapi_thunks.obj
 0002:0001aa58       ??_C@_0BC@CELBKLLA@IsValidLocaleName?$AA@ 10103a58     libucrtd:winapi_thunks.obj
 0002:0001aa7c       ??_C@_0O@KKBNKAPF@LCMapStringEx?$AA@ 10103a7c     libucrtd:winapi_thunks.obj
 0002:0001aa98       ??_C@_0BB@CDHDDLLP@LCIDToLocaleName?$AA@ 10103a98     libucrtd:winapi_thunks.obj
 0002:0001aab8       ??_C@_0BB@HBDEELFH@LocaleNameToLCID?$AA@ 10103ab8     libucrtd:winapi_thunks.obj
 0002:0001aad8       ??_C@_0BE@KINNKFDA@LocateXStateFeature?$AA@ 10103ad8     libucrtd:winapi_thunks.obj
 0002:0001aafc       ??_C@_0M@CHKKJDAI@MessageBoxA?$AA@ 10103afc     libucrtd:winapi_thunks.obj
 0002:0001ab18       ??_C@_0M@DLDCCGNP@MessageBoxW?$AA@ 10103b18     libucrtd:winapi_thunks.obj
 0002:0001ab2c       ??_C@_0N@PPOMPGGK@RoInitialize?$AA@ 10103b2c     libucrtd:winapi_thunks.obj
 0002:0001ab40       ??_C@_0P@LLFHBIJD@RoUninitialize?$AA@ 10103b40     libucrtd:winapi_thunks.obj
 0002:0001ab60       ??_C@_0BI@BKLFFAPO@SetThreadStackGuarantee?$AA@ 10103b60     libucrtd:winapi_thunks.obj
 0002:0001ab88       ??_C@_0BC@JEAENNKH@SystemFunction036?$AA@ 10103b88     libucrtd:winapi_thunks.obj
 0002:0001aba0       ??_C@_1DC@JKJAOJNC@?$AAc?$AAa?$AAc?$AAh?$AAe?$AAd?$AA_?$AAs?$AAt?$AAa?$AAt?$AAe?$AA?5?$AA?$DN?$AA?$DN?$AA?5?$AAp?$AAa?$AAc?$AAk?$AAa?$AAg?$AAe?$AAd?$AA?$AA@ 10103ba0     libucrtd:winapi_thunks.obj
 0002:0001abdc       ??_C@_1DK@JOPMHFDB@?$AAc?$AAa?$AAc?$AAh?$AAe?$AAd?$AA_?$AAs?$AAt?$AAa?$AAt?$AAe?$AA?5?$AA?$DN?$AA?$DN?$AA?5?$AAn?$AAo?$AAt?$AA_?$AAp?$AAa?$AAc?$AAk?$AAa?$AAg?$AAe?$AAd?$AA?$AA@ 10103bdc     libucrtd:winapi_thunks.obj
 0002:0001ac28       ??_C@_1HE@CEMHPOHH@?$AAm?$AAi?$AAn?$AAk?$AAe?$AAr?$AAn?$AAe?$AAl?$AA?2?$AAc?$AAr?$AAt?$AAs?$AA?2?$AAu?$AAc?$AAr?$AAt?$AA?2?$AAs?$AAr?$AAc?$AA?2?$AAa?$AAp?$AAp?$AAc?$AAr?$AAt?$AA?2?$AAs@ 10103c28     libucrtd:argv_wildcards.obj
 0002:0001acb4       ??_C@_1DK@IBFFOJGB@?$AAc?$AAo?$AAm?$AAm?$AAo?$AAn?$AA_?$AAe?$AAx?$AAp?$AAa?$AAn?$AAd?$AA_?$AAa?$AAr?$AAg?$AAv?$AA_?$AAw?$AAi?$AAl?$AAd?$AAc?$AAa?$AAr?$AAd?$AAs?$AA?$AA@ 10103cb4     libucrtd:argv_wildcards.obj
 0002:0001ad00       ??_C@_1MC@FLPKOFON@?$AAt?$AAr?$AAa?$AAi?$AAt?$AAs?$AA?3?$AA?3?$AAt?$AAc?$AAs?$AAn?$AAc?$AAp?$AAy?$AA_?$AAs?$AA?$CI?$AA?5?$AAc?$AAh?$AAa?$AAr?$AAa?$AAc?$AAt?$AAe?$AAr?$AA_?$AAi?$AAt?$AA?0@ 10103d00     libucrtd:argv_wildcards.obj
 0002:0001ade8       ??_C@_0DK@FPFMIIJB@minkernel?2crts?2ucrt?2src?2appcrt?2s@ 10103de8     libucrtd:argv_wildcards.obj
 0002:0001ae30       ??_C@_1EA@KOCCBLAD@?$AAc?$AAo?$AAp?$AAy?$AA_?$AAa?$AAn?$AAd?$AA_?$AAa?$AAd?$AAd?$AA_?$AAa?$AAr?$AAg?$AAu?$AAm?$AAe?$AAn?$AAt?$AA_?$AAt?$AAo?$AA_?$AAb?$AAu?$AAf?$AAf?$AAe?$AAr?$AA?$AA@ 10103e30     libucrtd:argv_wildcards.obj
 0002:0001ae80       ??_C@_1KM@GDJIGAGL@?$AAt?$AAr?$AAa?$AAi?$AAt?$AAs?$AA?3?$AA?3?$AAt?$AAc?$AAs?$AAn?$AAc?$AAp?$AAy?$AA_?$AAs?$AA?$CI?$AAa?$AAr?$AAg?$AAu?$AAm?$AAe?$AAn?$AAt?$AA_?$AAb?$AAu?$AAf?$AAf?$AAe@ 10103e80     libucrtd:argv_wildcards.obj
 0002:0001af50       ??_C@_1PI@FGFLAGCC@?$AAt?$AAr?$AAa?$AAi?$AAt?$AAs?$AA?3?$AA?3?$AAt?$AAc?$AAs?$AAn?$AAc?$AAp?$AAy?$AA_?$AAs?$AA?$CI?$AA?5?$AAa?$AAr?$AAg?$AAu?$AAm?$AAe?$AAn?$AAt?$AA_?$AAb?$AAu?$AAf?$AAf@ 10103f50     libucrtd:argv_wildcards.obj
 0002:0001b090       ??_C@_1M@HPNHIDJI@?$AAj?$AAa?$AA?9?$AAJ?$AAP?$AA?$AA@ 10104090     libucrtd:mbctype.obj
 0002:0001b0a0       ??_C@_1M@BIBDDEMK@?$AAz?$AAh?$AA?9?$AAC?$AAN?$AA?$AA@ 101040a0     libucrtd:mbctype.obj
 0002:0001b0b0       ??_C@_1M@JLOOOEGK@?$AAk?$AAo?$AA?9?$AAK?$AAR?$AA?$AA@ 101040b0     libucrtd:mbctype.obj
 0002:0001b0c0       ??_C@_1M@CLNBBOPM@?$AAz?$AAh?$AA?9?$AAT?$AAW?$AA?$AA@ 101040c0     libucrtd:mbctype.obj
 0002:0001b0d0       ??_C@_0DE@HGDKNBFD@minkernel?2crts?2ucrt?2src?2appcrt?2m@ 101040d0     libucrtd:mbctype.obj
 0002:0001b110       ??_C@_1GK@EMNILMBI@?$AAm?$AAi?$AAn?$AAk?$AAe?$AAr?$AAn?$AAe?$AAl?$AA?2?$AAc?$AAr?$AAt?$AAs?$AA?2?$AAu?$AAc?$AAr?$AAt?$AA?2?$AAs?$AAr?$AAc?$AA?2?$AAa?$AAp?$AAp?$AAc?$AAr?$AAt?$AA?2?$AAs@ 10104110     libucrtd:argv_data.obj
 0002:0001b190       ??_C@_1BK@PNLDCCDP@?$AA_?$AAg?$AAe?$AAt?$AA_?$AAw?$AAp?$AAg?$AAm?$AAp?$AAt?$AAr?$AA?$AA@ 10104190     libucrtd:argv_data.obj
 0002:0001b1b0       ??_C@_1CI@ENCADPBF@?$AA_?$AAw?$AAp?$AAg?$AAm?$AAp?$AAt?$AAr?$AA?5?$AA?$CB?$AA?$DN?$AA?5?$AAn?$AAu?$AAl?$AAl?$AAp?$AAt?$AAr?$AA?$AA@ 101041b0     libucrtd:argv_data.obj
 0002:0001b1e0       ??_C@_1BI@COAAPHJK@?$AA_?$AAg?$AAe?$AAt?$AA_?$AAp?$AAg?$AAm?$AAp?$AAt?$AAr?$AA?$AA@ 101041e0     libucrtd:argv_data.obj
 0002:0001b1fc       ??_C@_1CG@CKJHPBDG@?$AA_?$AAp?$AAg?$AAm?$AAp?$AAt?$AAr?$AA?5?$AA?$CB?$AA?$DN?$AA?5?$AAn?$AAu?$AAl?$AAl?$AAp?$AAt?$AAr?$AA?$AA@ 101041fc     libucrtd:argv_data.obj
 0002:0001b230       ??_C@_0ED@BLPEHJAI@minkernel?2crts?2ucrt?2src?2desktopc@ 10104230     libucrtd:get_environment_from_os.obj
 0002:0001b280       ??_C@_1DO@PANKIJNP@?$AAe?$AAq?$AAu?$AAa?$AAl?$AA_?$AAs?$AAi?$AAg?$AAn?$AA?5?$AA?9?$AA?5?$AAo?$AAp?$AAt?$AAi?$AAo?$AAn?$AA?5?$AA?$DM?$AA?5?$AA_?$AAM?$AAA?$AAX?$AA_?$AAE?$AAN?$AAV?$AA?$AA@ 10104280     libucrtd:setenv.obj
 0002:0001b2d0       ??_C@_1GE@MMOHBENP@?$AAm?$AAi?$AAn?$AAk?$AAe?$AAr?$AAn?$AAe?$AAl?$AA?2?$AAc?$AAr?$AAt?$AAs?$AA?2?$AAu?$AAc?$AAr?$AAt?$AA?2?$AAs?$AAr?$AAc?$AA?2?$AAd?$AAe?$AAs?$AAk?$AAt?$AAo?$AAp?$AAc@ 101042d0     libucrtd:setenv.obj
 0002:0001b348       ??_C@_1GK@KBABANDM@?$AAt?$AAr?$AAa?$AAi?$AAt?$AAs?$AA?3?$AA?3?$AAt?$AAc?$AAs?$AAn?$AAl?$AAe?$AAn?$AA?$CI?$AAe?$AAq?$AAu?$AAa?$AAl?$AA_?$AAs?$AAi?$AAg?$AAn?$AA?5?$AA?$CL?$AA?5?$AA1?$AA?0?$AA?5@ 10104348     libucrtd:setenv.obj
 0002:0001b3c8       ??_C@_0DC@NJKMKCIL@minkernel?2crts?2ucrt?2src?2desktopc@ 101043c8     libucrtd:setenv.obj
 0002:0001b408       ??_C@_1EC@IKJPFBIM@?$AA?$CI?$AA?$CC?$AAC?$AAR?$AAT?$AA?5?$AAl?$AAo?$AAg?$AAi?$AAc?$AA?5?$AAe?$AAr?$AAr?$AAo?$AAr?$AA?5?$AAi?$AAn?$AA?5?$AAs?$AAe?$AAt?$AAe?$AAn?$AAv?$AA?$CC?$AA?0?$AA?5?$AA0?$AA?$CJ@ 10104408     libucrtd:setenv.obj
 0002:0001b458       ??_C@_1FE@KHMDCEEJ@?$AAc?$AAo?$AAm?$AAm?$AAo?$AAn?$AA_?$AAs?$AAe?$AAt?$AA_?$AAv?$AAa?$AAr?$AAi?$AAa?$AAb?$AAl?$AAe?$AA_?$AAi?$AAn?$AA_?$AAe?$AAn?$AAv?$AAi?$AAr?$AAo?$AAn?$AAm?$AAe@ 10104458     libucrtd:setenv.obj
 0002:0001b4c0       ??_C@_1EM@NIOJJLEA@?$AAt?$AAr?$AAa?$AAi?$AAt?$AAs?$AA?3?$AA?3?$AAt?$AAc?$AAs?$AAc?$AAp?$AAy?$AA_?$AAs?$AA?$CI?$AAn?$AAa?$AAm?$AAe?$AA?0?$AA?5?$AAc?$AAo?$AAu?$AAn?$AAt?$AA?0?$AA?5?$AAo?$AAp@ 101044c0     libucrtd:setenv.obj
 0002:0001b51c       ??_C@_1CC@PIMGMDJH@?$AAc?$AAo?$AAp?$AAy?$AA_?$AAe?$AAn?$AAv?$AAi?$AAr?$AAo?$AAn?$AAm?$AAe?$AAn?$AAt?$AA?$AA@ 1010451c     libucrtd:setenv.obj
 0002:0001b548       ??_C@_1GG@EDHOMIDL@?$AAt?$AAr?$AAa?$AAi?$AAt?$AAs?$AA?3?$AA?3?$AAt?$AAc?$AAs?$AAc?$AAp?$AAy?$AA_?$AAs?$AA?$CI?$AA?$CK?$AAn?$AAe?$AAw?$AA_?$AAi?$AAt?$AA?0?$AA?5?$AAr?$AAe?$AAq?$AAu?$AAi?$AAr@ 10104548     libucrtd:setenv.obj
 0002:0001b5c4       ??_C@_1DC@OGOLMDEL@?$AAp?$AAu?$AAb?$AAl?$AAi?$AAc?$AA_?$AAs?$AAt?$AAr?$AAe?$AAa?$AAm?$AA?5?$AA?$CB?$AA?$DN?$AA?5?$AAn?$AAu?$AAl?$AAl?$AAp?$AAt?$AAr?$AA?$AA@ 101045c4     libucrtd:_sftbuf.obj
 0002:0001b600       ??_C@_1GC@GBMDABED@?$AAm?$AAi?$AAn?$AAk?$AAe?$AAr?$AAn?$AAe?$AAl?$AA?2?$AAc?$AAr?$AAt?$AAs?$AA?2?$AAu?$AAc?$AAr?$AAt?$AA?2?$AAs?$AAr?$AAc?$AA?2?$AAa?$AAp?$AAp?$AAc?$AAr?$AAt?$AA?2?$AAs@ 10104600     libucrtd:_sftbuf.obj
 0002:0001b678       ??_C@_0DB@EPIHMFLB@minkernel?2crts?2ucrt?2src?2appcrt?2s@ 10104678     libucrtd:_sftbuf.obj
 0002:0001b6b8       ??_C@_1BBC@DECGKMGJ@?$AA_?$AAl?$AAo?$AAc?$AA_?$AAu?$AAp?$AAd?$AAa?$AAt?$AAe?$AA?4?$AAG?$AAe?$AAt?$AAL?$AAo?$AAc?$AAa?$AAl?$AAe?$AAT?$AA?$CI?$AA?$CJ?$AA?9?$AA?$DO?$AAl?$AAo?$AAc?$AAi?$AAn?$AAf@ 101046b8     libucrtd:mbtowc.obj
 0002:0001b800       ??_C@_1GE@CGIHMDEJ@?$AAm?$AAi?$AAn?$AAk?$AAe?$AAr?$AAn?$AAe?$AAl?$AA?2?$AAc?$AAr?$AAt?$AAs?$AA?2?$AAu?$AAc?$AAr?$AAt?$AA?2?$AAs?$AAr?$AAc?$AA?2?$AAa?$AAp?$AAp?$AAc?$AAr?$AAt?$AA?2?$AAc@ 10104800     libucrtd:mbtowc.obj
 0002:0001b878       ??_C@_1DK@NBNOAGKB@?$AAd?$AAe?$AAs?$AAt?$AAi?$AAn?$AAa?$AAt?$AAi?$AAo?$AAn?$AA_?$AAc?$AAo?$AAu?$AAn?$AAt?$AA?5?$AA?$DM?$AA?$DN?$AA?5?$AAI?$AAN?$AAT?$AA_?$AAM?$AAA?$AAX?$AA?$AA@ 10104878     libucrtd:wctomb.obj
 0002:0001b8c0       ??_C@_1GE@FCCEPHFG@?$AAm?$AAi?$AAn?$AAk?$AAe?$AAr?$AAn?$AAe?$AAl?$AA?2?$AAc?$AAr?$AAt?$AAs?$AA?2?$AAu?$AAc?$AAr?$AAt?$AA?2?$AAs?$AAr?$AAc?$AA?2?$AAa?$AAp?$AAp?$AAc?$AAr?$AAt?$AA?2?$AAc@ 101048c0     libucrtd:wctomb.obj
 0002:0001b938       ??_C@_1BI@IEADNOHF@?$AA_?$AAw?$AAc?$AAt?$AAo?$AAm?$AAb?$AA_?$AAs?$AA_?$AAl?$AA?$AA@ 10104938     libucrtd:wctomb.obj
 0002:0001b954       ??_C@_1CM@ENFEGCNE@?$AAd?$AAe?$AAs?$AAt?$AAi?$AAn?$AAa?$AAt?$AAi?$AAo?$AAn?$AA_?$AAc?$AAo?$AAu?$AAn?$AAt?$AA?5?$AA?$DO?$AA?5?$AA0?$AA?$AA@ 10104954     libucrtd:wctomb.obj
 0002:0001b988       ??_C@_03OEIAHPBN@INF?$AA@  10104988     libucrtd:cvt.obj
 0002:0001b98c       ??_C@_03OJHLLCGB@inf?$AA@  1010498c     libucrtd:cvt.obj
 0002:0001b990       ??_C@_03LKNCIKJB@NAN?$AA@  10104990     libucrtd:cvt.obj
 0002:0001b994       ??_C@_03LHCJEHON@nan?$AA@  10104994     libucrtd:cvt.obj
 0002:0001b998       ??_C@_09OFJJIMPC@NAN?$CISNAN?$CJ?$AA@ 10104998     libucrtd:cvt.obj
 0002:0001b9a4       ??_C@_09IPFBKMDL@nan?$CIsnan?$CJ?$AA@ 101049a4     libucrtd:cvt.obj
 0002:0001b9b0       ??_C@_08IKHNHAJ@NAN?$CIIND?$CJ?$AA@ 101049b0     libucrtd:cvt.obj
 0002:0001b9bc       ??_C@_08OFCDMILK@nan?$CIind?$CJ?$AA@ 101049bc     libucrtd:cvt.obj
 0002:0001b9c8       ??_C@_1FO@GKAKAPLI@?$AAm?$AAi?$AAn?$AAk?$AAe?$AAr?$AAn?$AAe?$AAl?$AA?2?$AAc?$AAr?$AAt?$AAs?$AA?2?$AAu?$AAc?$AAr?$AAt?$AA?2?$AAs?$AAr?$AAc?$AA?2?$AAa?$AAp?$AAp?$AAc?$AAr?$AAt?$AA?2?$AAc@ 101049c8     libucrtd:cvt.obj
 0002:0001ba38       ??_C@_1DE@EHGIGIDK@?$AAf?$AAp?$AA_?$AAf?$AAo?$AAr?$AAm?$AAa?$AAt?$AA_?$AAn?$AAa?$AAn?$AA_?$AAo?$AAr?$AA_?$AAi?$AAn?$AAf?$AAi?$AAn?$AAi?$AAt?$AAy?$AA?$AA@ 10104a38     libucrtd:cvt.obj
 0002:0001ba78       ??_C@_1LI@PCMLJPCO@?$AAs?$AAt?$AAr?$AAc?$AAp?$AAy?$AA_?$AAs?$AA?$CI?$AA?5?$AAr?$AAe?$AAs?$AAu?$AAl?$AAt?$AA_?$AAb?$AAu?$AAf?$AAf?$AAe?$AAr?$AA?0?$AA?5?$AAr?$AAe?$AAs?$AAu?$AAl?$AAt?$AA_@ 10104a78     libucrtd:cvt.obj
 0002:0001bb58       ??_C@_1KO@LJHOFBCD@?$AAr?$AAe?$AAs?$AAu?$AAl?$AAt?$AA_?$AAb?$AAu?$AAf?$AAf?$AAe?$AAr?$AA_?$AAc?$AAo?$AAu?$AAn?$AAt?$AA?5?$AA?$DO?$AA?5?$AAs?$AAt?$AAa?$AAt?$AAi?$AAc?$AA_?$AAc?$AAa?$AAs@ 10104b58     libucrtd:cvt.obj
 0002:0001bc28       ??_C@_1CK@BOLHOMFO@?$AAf?$AAp?$AA_?$AAf?$AAo?$AAr?$AAm?$AAa?$AAt?$AA_?$AAe?$AA_?$AAi?$AAn?$AAt?$AAe?$AAr?$AAn?$AAa?$AAl?$AA?$AA@ 10104c28     libucrtd:cvt.obj
 0002:0001bc60       ??_C@_1BBA@FHDJNBGM@?$AAs?$AAt?$AAr?$AAc?$AAp?$AAy?$AA_?$AAs?$AA?$CI?$AA?5?$AAp?$AA?0?$AA?5?$AAr?$AAe?$AAs?$AAu?$AAl?$AAt?$AA_?$AAb?$AAu?$AAf?$AAf?$AAe?$AAr?$AA_?$AAc?$AAo?$AAu?$AAn?$AAt@ 10104c60     libucrtd:cvt.obj
 0002:0001bda8       ??_C@_05KLBDPFGC@e?$CL000?$AA@ 10104da8     libucrtd:cvt.obj
 0002:0001bdb0       ??_C@_1IC@FILKPBAB@?$AAr?$AAe?$AAs?$AAu?$AAl?$AAt?$AA_?$AAb?$AAu?$AAf?$AAf?$AAe?$AAr?$AA_?$AAc?$AAo?$AAu?$AAn?$AAt?$AA?5?$AA?$DO?$AA?5?$AAs?$AAt?$AAa?$AAt?$AAi?$AAc?$AA_?$AAc?$AAa?$AAs@ 10104db0     libucrtd:cvt.obj
 0002:0001be4c       ??_C@_1BI@PNBDLNBB@?$AAf?$AAp?$AA_?$AAf?$AAo?$AAr?$AAm?$AAa?$AAt?$AA_?$AAa?$AA?$AA@ 10104e4c     libucrtd:cvt.obj
 0002:0001be68       ??_C@_1DC@MGKAFPFD@?$AAr?$AAe?$AAs?$AAu?$AAl?$AAt?$AA_?$AAb?$AAu?$AAf?$AAf?$AAe?$AAr?$AA?5?$AA?$CB?$AA?$DN?$AA?5?$AAn?$AAu?$AAl?$AAl?$AAp?$AAt?$AAr?$AA?$AA@ 10104e68     libucrtd:cvt.obj
 0002:0001bea4       ??_C@_1CC@LDAHJAKK@?$AA_?$AA_?$AAa?$AAc?$AAr?$AAt?$AA_?$AAf?$AAp?$AA_?$AAf?$AAo?$AAr?$AAm?$AAa?$AAt?$AA?$AA@ 10104ea4     libucrtd:cvt.obj
 0002:0001becc       ??_C@_1DA@NMLJJOCO@?$AAr?$AAe?$AAs?$AAu?$AAl?$AAt?$AA_?$AAb?$AAu?$AAf?$AAf?$AAe?$AAr?$AA_?$AAc?$AAo?$AAu?$AAn?$AAt?$AA?5?$AA?$DO?$AA?5?$AA0?$AA?$AA@ 10104ecc     libucrtd:cvt.obj
 0002:0001bf08       ??_C@_1DE@MNOPBCOK@?$AAs?$AAc?$AAr?$AAa?$AAt?$AAc?$AAh?$AA_?$AAb?$AAu?$AAf?$AAf?$AAe?$AAr?$AA?5?$AA?$CB?$AA?$DN?$AA?5?$AAn?$AAu?$AAl?$AAl?$AAp?$AAt?$AAr?$AA?$AA@ 10104f08     libucrtd:cvt.obj
 0002:0001bf48       ??_C@_1DC@CKBKNFKH@?$AAs?$AAc?$AAr?$AAa?$AAt?$AAc?$AAh?$AA_?$AAb?$AAu?$AAf?$AAf?$AAe?$AAr?$AA_?$AAc?$AAo?$AAu?$AAn?$AAt?$AA?5?$AA?$DO?$AA?5?$AA0?$AA?$AA@ 10104f48     libucrtd:cvt.obj
 0002:0001bf88       ??_C@_1EI@JAHBOGIM@?$AA?$CI?$AA?$CC?$AAU?$AAn?$AAs?$AAu?$AAp?$AAp?$AAo?$AAr?$AAt?$AAe?$AAd?$AA?5?$AAf?$AAo?$AAr?$AAm?$AAa?$AAt?$AA?5?$AAs?$AAp?$AAe?$AAc?$AAi?$AAf?$AAi?$AAe?$AAr?$AA?$CC?$AA?0@ 10104f88     libucrtd:cvt.obj
 0002:0001bfe0       ??_C@_1GA@OJHMFOOJ@?$AAm?$AAi?$AAn?$AAk?$AAe?$AAr?$AAn?$AAe?$AAl?$AA?2?$AAc?$AAr?$AAt?$AAs?$AA?2?$AAu?$AAc?$AAr?$AAt?$AA?2?$AAs?$AAr?$AAc?$AA?2?$AAa?$AAp?$AAp?$AAc?$AAr?$AAt?$AA?2?$AAs@ 10104fe0     libucrtd:fputwc.obj
 0002:0001c054       ??_C@_1O@HJNPHHHB@?$AAf?$AAp?$AAu?$AAt?$AAw?$AAc?$AA?$AA@ 10105054     libucrtd:fputwc.obj
 0002:0001c064       ??_C@_1BO@MHPFFFJJ@?$AAs?$AAt?$AAr?$AAe?$AAa?$AAm?$AA?4?$AAv?$AAa?$AAl?$AAi?$AAd?$AA?$CI?$AA?$CJ?$AA?$AA@ 10105064     libucrtd:fileno.obj
 0002:0001c088       ??_C@_1GA@KCAHHNGP@?$AAm?$AAi?$AAn?$AAk?$AAe?$AAr?$AAn?$AAe?$AAl?$AA?2?$AAc?$AAr?$AAt?$AAs?$AA?2?$AAu?$AAc?$AAr?$AAt?$AA?2?$AAs?$AAr?$AAc?$AA?2?$AAa?$AAp?$AAp?$AAc?$AAr?$AAt?$AA?2?$AAs@ 10105088     libucrtd:fileno.obj
 0002:0001c0fc       ??_C@_1BA@JGHIEKKM@?$AA_?$AAf?$AAi?$AAl?$AAe?$AAn?$AAo?$AA?$AA@ 101050fc     libucrtd:fileno.obj
 0002:0001c110       ??_C@_0CP@GDJHIDC@minkernel?2crts?2ucrt?2src?2appcrt?2s@ 10105110     libucrtd:_file.obj
 0002:0001c148       ??_C@_1FO@IEGKHABE@?$AAm?$AAi?$AAn?$AAk?$AAe?$AAr?$AAn?$AAe?$AAl?$AA?2?$AAc?$AAr?$AAt?$AAs?$AA?2?$AAu?$AAc?$AAr?$AAt?$AA?2?$AAs?$AAr?$AAc?$AA?2?$AAa?$AAp?$AAp?$AAc?$AAr?$AAt?$AA?2?$AAs@ 10105148     libucrtd:_file.obj
 0002:0001c1b8       ??_C@_1DI@PJGMCDLC@?$AA_?$AAg?$AAe?$AAt?$AA_?$AAs?$AAt?$AAr?$AAe?$AAa?$AAm?$AA_?$AAb?$AAu?$AAf?$AAf?$AAe?$AAr?$AA_?$AAp?$AAo?$AAi?$AAn?$AAt?$AAe?$AAr?$AAs?$AA?$AA@ 101051b8     libucrtd:_file.obj
 0002:0001c200       ??_C@_1FO@FNOAOMLP@?$AAm?$AAi?$AAn?$AAk?$AAe?$AAr?$AAn?$AAe?$AAl?$AA?2?$AAc?$AAr?$AAt?$AAs?$AA?2?$AAu?$AAc?$AAr?$AAt?$AA?2?$AAs?$AAr?$AAc?$AA?2?$AAa?$AAp?$AAp?$AAc?$AAr?$AAt?$AA?2?$AAs@ 10105200     libucrtd:fputc.obj
 0002:0001c270       ??_C@_1M@OIJMPNCO@?$AAf?$AAp?$AAu?$AAt?$AAc?$AA?$AA@ 10105270     libucrtd:fputc.obj
 0002:0001c280       ??_C@_1CE@BLLJFLOH@?$AAs?$AAt?$AAr?$AAi?$AAn?$AAg?$AA?5?$AA?$CB?$AA?$DN?$AA?5?$AAn?$AAu?$AAl?$AAl?$AAp?$AAt?$AAr?$AA?$AA@ 10105280     libucrtd:mbsdec.obj
 0002:0001c2b0       ??_C@_1GO@DDOMFNGF@?$AAm?$AAi?$AAn?$AAk?$AAe?$AAr?$AAn?$AAe?$AAl?$AA?2?$AAc?$AAr?$AAt?$AAs?$AA?2?$AAu?$AAc?$AAr?$AAt?$AA?2?$AAs?$AAr?$AAc?$AA?2?$AAd?$AAe?$AAs?$AAk?$AAt?$AAo?$AAp?$AAc@ 101052b0     libucrtd:mbsdec.obj
 0002:0001c334       ??_C@_1BE@KLNCOLCD@?$AA_?$AAm?$AAb?$AAs?$AAd?$AAe?$AAc?$AA_?$AAl?$AA?$AA@ 10105334     libucrtd:mbsdec.obj
 0002:0001c34c       ??_C@_1CG@CMGPGAOD@?$AAc?$AAu?$AAr?$AAr?$AAe?$AAn?$AAt?$AA?5?$AA?$CB?$AA?$DN?$AA?5?$AAn?$AAu?$AAl?$AAl?$AAp?$AAt?$AAr?$AA?$AA@ 1010534c     libucrtd:mbsdec.obj
 0002:0001c37c       ??_C@_1CC@CHNFGJIC@?$AAc?$AAo?$AAm?$AAm?$AAo?$AAn?$AA_?$AAt?$AAc?$AAs?$AAn?$AAc?$AAp?$AAy?$AA_?$AAs?$AA?$AA@ 1010537c     libucrtd:wcsncpy_s.obj
 0002:0001c3a8       ??_C@_1IC@DCNEKBE@?$AAm?$AAi?$AAn?$AAk?$AAe?$AAr?$AAn?$AAe?$AAl?$AA?2?$AAc?$AAr?$AAt?$AAs?$AA?2?$AAu?$AAc?$AAr?$AAt?$AA?2?$AAs?$AAr?$AAc?$AA?2?$AAa?$AAp?$AAp?$AAc?$AAr?$AAt?$AA?2?$AAi@ 101053a8     libucrtd:report_runtime_error.obj
 0002:0001c444       ??_C@_1DI@BLFJHKKP@?$AA_?$AA_?$AAa?$AAc?$AAr?$AAt?$AA_?$AAr?$AAe?$AAp?$AAo?$AAr?$AAt?$AA_?$AAr?$AAu?$AAn?$AAt?$AAi?$AAm?$AAe?$AA_?$AAe?$AAr?$AAr?$AAo?$AAr?$AA?$AA@ 10105444     libucrtd:report_runtime_error.obj
 0002:0001c488       ??_C@_1LE@MHPGJGKE@?$AAw?$AAc?$AAs?$AAc?$AAp?$AAy?$AA_?$AAs?$AA?$CI?$AAo?$AAu?$AAt?$AAm?$AAs?$AAg?$AA?0?$AA?5?$AA?$CI?$AAs?$AAi?$AAz?$AAe?$AAo?$AAf?$AA?$CI?$AA?$CK?$AA_?$AA_?$AAc?$AAo?$AAu?$AAn@ 10105488     libucrtd:report_runtime_error.obj
 0002:0001c560       ??_C@_1DE@JNGNBFGO@?$AAR?$AAu?$AAn?$AAt?$AAi?$AAm?$AAe?$AA?5?$AAE?$AAr?$AAr?$AAo?$AAr?$AA?$CB?$AA?6?$AA?6?$AAP?$AAr?$AAo?$AAg?$AAr?$AAa?$AAm?$AA?3?$AA?5?$AA?$AA@ 10105560     libucrtd:report_runtime_error.obj
 0002:0001c5a0       ??_C@_1HK@FJJNAABO@?$AAw?$AAc?$AAs?$AAc?$AAp?$AAy?$AA_?$AAs?$AA?$CI?$AAp?$AAr?$AAo?$AAg?$AAn?$AAa?$AAm?$AAe?$AA?0?$AA?5?$AAp?$AAr?$AAo?$AAg?$AAn?$AAa?$AAm?$AAe?$AA_?$AAs?$AAi?$AAz?$AAe@ 101055a0     libucrtd:report_runtime_error.obj
 0002:0001c638       ??_C@_1HI@FLHKGEBE@?$AAw?$AAc?$AAs?$AAn?$AAc?$AAp?$AAy?$AA_?$AAs?$AA?$CI?$AAp?$AAc?$AAh?$AA?0?$AA?5?$AAp?$AAr?$AAo?$AAg?$AAn?$AAa?$AAm?$AAe?$AA_?$AAs?$AAi?$AAz?$AAe?$AA?5?$AA?9?$AA?5?$AA?$CI@ 10105638     libucrtd:report_runtime_error.obj
 0002:0001c6c8       ??_C@_1IG@MNNKBLBI@?$AAw?$AAc?$AAs?$AAc?$AAa?$AAt?$AA_?$AAs?$AA?$CI?$AAo?$AAu?$AAt?$AAm?$AAs?$AAg?$AA?0?$AA?5?$AA?$CI?$AAs?$AAi?$AAz?$AAe?$AAo?$AAf?$AA?$CI?$AA?$CK?$AA_?$AA_?$AAc?$AAo?$AAu?$AAn@ 101056c8     libucrtd:report_runtime_error.obj
 0002:0001c768       ??_C@_1IG@DFBBBDAN@?$AAw?$AAc?$AAs?$AAc?$AAa?$AAt?$AA_?$AAs?$AA?$CI?$AAo?$AAu?$AAt?$AAm?$AAs?$AAg?$AA?0?$AA?5?$AA?$CI?$AAs?$AAi?$AAz?$AAe?$AAo?$AAf?$AA?$CI?$AA?$CK?$AA_?$AA_?$AAc?$AAo?$AAu?$AAn@ 10105768     libucrtd:report_runtime_error.obj
 0002:0001c808       ___acrt_pow_rcp_t1         10105808     libucrtd:pow_tables.obj
 0002:0001ccf0       ___acrt_pow_log2_t1        10105cf0     libucrtd:pow_tables.obj
 0002:0001d6a0       ___acrt_pow_rcp_t2         101066a0     libucrtd:pow_tables.obj
 0002:0001db80       ___acrt_pow_log2_t2        10106b80     libucrtd:pow_tables.obj
 0002:0001e530       ___acrt_pow_rcp_t3         10107530     libucrtd:pow_tables.obj
 0002:0001eee0       ___acrt_pow_log2_t3        10107ee0     libucrtd:pow_tables.obj
 0002:00020230       ___acrt_pow_clv            10109230     libucrtd:pow_tables.obj
 0002:00020260       ___acrt_pow_exp2_tbl       10109260     libucrtd:pow_tables.obj
 0002:00020c00       ___acrt_cos_sin_ctable     10109c00     libucrtd:cos_sin_ctable.obj
 0002:0002159c       ??_C@_1CE@MCCHPLBM@?$AAb?$AAu?$AAf?$AAf?$AAe?$AAr?$AA?5?$AA?$CB?$AA?$DN?$AA?5?$AAn?$AAu?$AAl?$AAl?$AAp?$AAt?$AAr?$AA?$AA@ 1010a59c     libucrtd:xtoa.obj
 0002:000215c8       ??_C@_1GA@HBEFGMHK@?$AAm?$AAi?$AAn?$AAk?$AAe?$AAr?$AAn?$AAe?$AAl?$AA?2?$AAc?$AAr?$AAt?$AAs?$AA?2?$AAu?$AAc?$AAr?$AAt?$AA?2?$AAs?$AAr?$AAc?$AA?2?$AAa?$AAp?$AAp?$AAc?$AAr?$AAt?$AA?2?$AAc@ 1010a5c8     libucrtd:xtoa.obj
 0002:0002163c       ??_C@_1BM@HMPEMLNP@?$AAc?$AAo?$AAm?$AAm?$AAo?$AAn?$AA_?$AAx?$AAt?$AAo?$AAx?$AA_?$AAs?$AA?$AA@ 1010a63c     libucrtd:xtoa.obj
 0002:00021660       ??_C@_1CC@ONIJBMJF@?$AAb?$AAu?$AAf?$AAf?$AAe?$AAr?$AA_?$AAc?$AAo?$AAu?$AAn?$AAt?$AA?5?$AA?$DO?$AA?5?$AA0?$AA?$AA@ 1010a660     libucrtd:xtoa.obj
 0002:00021688       ??_C@_1HA@JFIOFNKD@?$AAb?$AAu?$AAf?$AAf?$AAe?$AAr?$AA_?$AAc?$AAo?$AAu?$AAn?$AAt?$AA?5?$AA?$DO?$AA?5?$AAs?$AAt?$AAa?$AAt?$AAi?$AAc?$AA_?$AAc?$AAa?$AAs?$AAt?$AA?$DM?$AAs?$AAi?$AAz?$AAe?$AA_@ 1010a688     libucrtd:xtoa.obj
 0002:00021710       ??_C@_1DE@PCJGDBBD@?$AA2?$AA?5?$AA?$DM?$AA?$DN?$AA?5?$AAr?$AAa?$AAd?$AAi?$AAx?$AA?5?$AA?$CG?$AA?$CG?$AA?5?$AAr?$AAa?$AAd?$AAi?$AAx?$AA?5?$AA?$DM?$AA?$DN?$AA?5?$AA3?$AA6?$AA?$AA@ 1010a710     libucrtd:xtoa.obj
 0002:00021750       ??_C@_1CM@LONILNIJ@?$AAl?$AAe?$AAn?$AAg?$AAt?$AAh?$AA?5?$AA?$DM?$AA?5?$AAb?$AAu?$AAf?$AAf?$AAe?$AAr?$AA_?$AAc?$AAo?$AAu?$AAn?$AAt?$AA?$AA@ 1010a750     libucrtd:xtoa.obj
 0002:00021784       ??_C@_1BI@OLPLFKOE@?$AAc?$AAo?$AAm?$AAm?$AAo?$AAn?$AA_?$AAx?$AAt?$AAo?$AAx?$AA?$AA@ 1010a784     libucrtd:xtoa.obj
 0002:000217a0       ??_C@_1BK@FPAMLIDG@?$AAs?$AA?5?$AA?$CB?$AA?$DN?$AA?5?$AAn?$AAu?$AAl?$AAl?$AAp?$AAt?$AAr?$AA?$AA@ 1010a7a0     libucrtd:mbstowcs.obj
 0002:000217c0       ??_C@_1GI@KABMHNPH@?$AAm?$AAi?$AAn?$AAk?$AAe?$AAr?$AAn?$AAe?$AAl?$AA?2?$AAc?$AAr?$AAt?$AAs?$AA?2?$AAu?$AAc?$AAr?$AAt?$AA?2?$AAs?$AAr?$AAc?$AA?2?$AAa?$AAp?$AAp?$AAc?$AAr?$AAt?$AA?2?$AAc@ 1010a7c0     libucrtd:mbstowcs.obj
 0002:0002183c       ??_C@_1CG@JEHFHLNG@?$AA_?$AAm?$AAb?$AAs?$AAt?$AAo?$AAw?$AAc?$AAs?$AA_?$AAl?$AA_?$AAh?$AAe?$AAl?$AAp?$AAe?$AAr?$AA?$AA@ 1010a83c     libucrtd:mbstowcs.obj
 0002:00021870       ??_C@_1JM@MEKBACIG@?$AA?$CI?$AAp?$AAw?$AAc?$AAs?$AA?5?$AA?$DN?$AA?$DN?$AA?5?$AAn?$AAu?$AAl?$AAl?$AAp?$AAt?$AAr?$AA?5?$AA?$CG?$AA?$CG?$AA?5?$AAs?$AAi?$AAz?$AAe?$AAI?$AAn?$AAW?$AAo?$AAr?$AAd?$AAs?$AA?5@ 1010a870     libucrtd:mbstowcs.obj
 0002:0002192c       ??_C@_1BM@PHENIGHD@?$AA_?$AAm?$AAb?$AAs?$AAt?$AAo?$AAw?$AAc?$AAs?$AA_?$AAs?$AA_?$AAl?$AA?$AA@ 1010a92c     libucrtd:mbstowcs.obj
 0002:00021950       ??_C@_1CM@LLECFMFH@?$AAb?$AAu?$AAf?$AAf?$AAe?$AAr?$AAS?$AAi?$AAz?$AAe?$AA?5?$AA?$DM?$AA?$DN?$AA?5?$AAI?$AAN?$AAT?$AA_?$AAM?$AAA?$AAX?$AA?$AA@ 1010a950     libucrtd:mbstowcs.obj
 0002:00021984       ??_C@_1CO@JNPEPJAL@?$AAr?$AAe?$AAt?$AAs?$AAi?$AAz?$AAe?$AA?5?$AA?$DM?$AA?$DN?$AA?5?$AAs?$AAi?$AAz?$AAe?$AAI?$AAn?$AAW?$AAo?$AAr?$AAd?$AAs?$AA?$AA@ 1010a984     libucrtd:mbstowcs.obj
 0002:000219bc       ??_C@_1CA@NOKNKDIG@?$AAp?$AAw?$AAc?$AAs?$AA?5?$AA?$CB?$AA?$DN?$AA?5?$AAn?$AAu?$AAl?$AAl?$AAp?$AAt?$AAr?$AA?$AA@ 1010a9bc     libucrtd:wcstombs.obj
 0002:000219e8       ??_C@_1GI@EEJDEALP@?$AAm?$AAi?$AAn?$AAk?$AAe?$AAr?$AAn?$AAe?$AAl?$AA?2?$AAc?$AAr?$AAt?$AAs?$AA?2?$AAu?$AAc?$AAr?$AAt?$AA?2?$AAs?$AAr?$AAc?$AA?2?$AAa?$AAp?$AAp?$AAc?$AAr?$AAt?$AA?2?$AAc@ 1010a9e8     libucrtd:wcstombs.obj
 0002:00021a64       ??_C@_1CG@LLJCAOHF@?$AA_?$AAw?$AAc?$AAs?$AAt?$AAo?$AAm?$AAb?$AAs?$AA_?$AAl?$AA_?$AAh?$AAe?$AAl?$AAp?$AAe?$AAr?$AA?$AA@ 1010aa64     libucrtd:wcstombs.obj
 0002:00021a98       ??_C@_1JI@DFNKFCLG@?$AA?$CI?$AAd?$AAs?$AAt?$AA?5?$AA?$CB?$AA?$DN?$AA?5?$AAn?$AAu?$AAl?$AAl?$AAp?$AAt?$AAr?$AA?5?$AA?$CG?$AA?$CG?$AA?5?$AAs?$AAi?$AAz?$AAe?$AAI?$AAn?$AAB?$AAy?$AAt?$AAe?$AAs?$AA?5?$AA?$DO@ 1010aa98     libucrtd:wcstombs.obj
 0002:00021b50       ??_C@_1BM@BDMCLLDL@?$AA_?$AAw?$AAc?$AAs?$AAt?$AAo?$AAm?$AAb?$AAs?$AA_?$AAs?$AA_?$AAl?$AA?$AA@ 1010ab50     libucrtd:wcstombs.obj
 0002:00021b74       ??_C@_1CM@KEOGBFLI@?$AAs?$AAi?$AAz?$AAe?$AAI?$AAn?$AAB?$AAy?$AAt?$AAe?$AAs?$AA?5?$AA?$DO?$AA?5?$AAr?$AAe?$AAt?$AAs?$AAi?$AAz?$AAe?$AA?$AA@ 1010ab74     libucrtd:wcstombs.obj
 0002:00021ba8       ??_C@_1CA@EOJJMFA@?$AAc?$AAo?$AAm?$AAm?$AAo?$AAn?$AA_?$AAt?$AAc?$AAs?$AAc?$AAa?$AAt?$AA_?$AAs?$AA?$AA@ 1010aba8     libucrtd:wcscat_s.obj
 0002:00021bd0       ??_C@_1DM@FHLMIEG@?$AAS?$AAt?$AAr?$AAi?$AAn?$AAg?$AA?5?$AAi?$AAs?$AA?5?$AAn?$AAo?$AAt?$AA?5?$AAn?$AAu?$AAl?$AAl?$AA?5?$AAt?$AAe?$AAr?$AAm?$AAi?$AAn?$AAa?$AAt?$AAe?$AAd?$AA?$AA@ 1010abd0     libucrtd:wcscat_s.obj
 0002:00021c18       ??_C@_1FA@MJKDNFFB@?$AA?$CI?$AAL?$AA?$CC?$AAS?$AAt?$AAr?$AAi?$AAn?$AAg?$AA?5?$AAi?$AAs?$AA?5?$AAn?$AAo?$AAt?$AA?5?$AAn?$AAu?$AAl?$AAl?$AA?5?$AAt?$AAe?$AAr?$AAm?$AAi?$AAn?$AAa?$AAt?$AAe?$AAd@ 1010ac18     libucrtd:wcscat_s.obj
 0002:00021c78       ??_C@_1FE@KNPCCODH@?$AA?$CI?$AA?$CC?$AAC?$AAo?$AAr?$AAr?$AAu?$AAp?$AAt?$AAe?$AAd?$AA?5?$AAp?$AAo?$AAi?$AAn?$AAt?$AAe?$AAr?$AA?5?$AAp?$AAa?$AAs?$AAs?$AAe?$AAd?$AA?5?$AAt?$AAo?$AA?5?$AA_?$AAf@ 1010ac78     libucrtd:getstringtypea.obj
 0002:00021ce0       ??_C@_1HG@NGPLHMCI@?$AAm?$AAi?$AAn?$AAk?$AAe?$AAr?$AAn?$AAe?$AAl?$AA?2?$AAc?$AAr?$AAt?$AAs?$AA?2?$AAu?$AAc?$AAr?$AAt?$AA?2?$AAd?$AAe?$AAv?$AAd?$AAi?$AAv?$AA?2?$AAv?$AAc?$AAr?$AAu?$AAn@ 1010ace0     libucrtd:getstringtypea.obj
 0002:00021d70       ??_C@_0DJ@HCPJODDK@minkernel?2crts?2ucrt?2src?2appcrt?2l@ 1010ad70     libucrtd:getstringtypea.obj
 0002:00021db8       ??_C@_1BKC@NBNHJIDM@?$AA?$CI?$AAp?$AAt?$AAl?$AAo?$AAc?$AAi?$AA?9?$AA?$DO?$AAl?$AAc?$AA_?$AAc?$AAa?$AAt?$AAe?$AAg?$AAo?$AAr?$AAy?$AA?$FL?$AAc?$AAa?$AAt?$AAe?$AAg?$AAo?$AAr?$AAy?$AA?$FN?$AA?4?$AAl@ 1010adb8     libucrtd:locale_refcounting.obj
 0002:00021fb0       ??_C@_1HK@HCNMEOLA@?$AAm?$AAi?$AAn?$AAk?$AAe?$AAr?$AAn?$AAe?$AAl?$AA?2?$AAc?$AAr?$AAt?$AAs?$AA?2?$AAu?$AAc?$AAr?$AAt?$AA?2?$AAs?$AAr?$AAc?$AA?2?$AAa?$AAp?$AAp?$AAc?$AAr?$AAt?$AA?2?$AAl@ 1010afb0     libucrtd:locale_refcounting.obj
 0002:00022048       __wctype                   1010b048     libucrtd:ctype.obj
 0002:000222b8       ___newctype                1010b2b8     libucrtd:ctype.obj
 0002:00022658       ___newclmap                1010b658     libucrtd:ctype.obj
 0002:00022828       ___newcumap                1010b828     libucrtd:ctype.obj
 0002:000229f4       ??_C@_0DE@PKCHMIOF@minkernel?2crts?2ucrt?2src?2appcrt?2l@ 1010b9f4     libucrtd:initctype.obj
 0002:00022a38       ??_C@_1GI@DPHPBMAL@?$AAm?$AAi?$AAn?$AAk?$AAe?$AAr?$AAn?$AAe?$AAl?$AA?2?$AAc?$AAr?$AAt?$AAs?$AA?2?$AAu?$AAc?$AAr?$AAt?$AA?2?$AAs?$AAr?$AAc?$AA?2?$AAa?$AAp?$AAp?$AAc?$AAr?$AAt?$AA?2?$AAl@ 1010ba38     libucrtd:initctype.obj
 0002:00022ab4       ??_C@_1DG@NMBGBDM@?$AAp?$AAl?$AAo?$AAc?$AAi?$AA?9?$AA?$DO?$AAc?$AAt?$AAy?$AAp?$AAe?$AA1?$AA_?$AAr?$AAe?$AAf?$AAc?$AAo?$AAu?$AAn?$AAt?$AA?5?$AA?$DO?$AA?5?$AA0?$AA?$AA@ 1010bab4     libucrtd:initctype.obj
 0002:00022af4       ??_C@_0DC@GMDOHFAP@minkernel?2crts?2ucrt?2src?2appcrt?2l@ 1010baf4     libucrtd:initmon.obj
 0002:00022b30       ??_C@_1DM@GKAPAMDO@?$AAp?$AAl?$AAo?$AAc?$AAi?$AA?9?$AA?$DO?$AAl?$AAc?$AAo?$AAn?$AAv?$AA_?$AAm?$AAo?$AAn?$AA_?$AAr?$AAe?$AAf?$AAc?$AAo?$AAu?$AAn?$AAt?$AA?5?$AA?$DO?$AA?5?$AA0?$AA?$AA@ 1010bb30     libucrtd:initmon.obj
 0002:00022b78       ??_C@_1GE@IEFGCKMH@?$AAm?$AAi?$AAn?$AAk?$AAe?$AAr?$AAn?$AAe?$AAl?$AA?2?$AAc?$AAr?$AAt?$AAs?$AA?2?$AAu?$AAc?$AAr?$AAt?$AA?2?$AAs?$AAr?$AAc?$AA?2?$AAa?$AAp?$AAp?$AAc?$AAr?$AAt?$AA?2?$AAl@ 1010bb78     libucrtd:initmon.obj
 0002:00022bf0       ??_C@_0DC@KHILMDMC@minkernel?2crts?2ucrt?2src?2appcrt?2l@ 1010bbf0     libucrtd:initnum.obj
 0002:00022c2c       ??_C@_1DM@IFKAINNE@?$AAp?$AAl?$AAo?$AAc?$AAi?$AA?9?$AA?$DO?$AAl?$AAc?$AAo?$AAn?$AAv?$AA_?$AAn?$AAu?$AAm?$AA_?$AAr?$AAe?$AAf?$AAc?$AAo?$AAu?$AAn?$AAt?$AA?5?$AA?$DO?$AA?5?$AA0?$AA?$AA@ 1010bc2c     libucrtd:initnum.obj
 0002:00022c78       ??_C@_1GE@GOIFKKDC@?$AAm?$AAi?$AAn?$AAk?$AAe?$AAr?$AAn?$AAe?$AAl?$AA?2?$AAc?$AAr?$AAt?$AAs?$AA?2?$AAu?$AAc?$AAr?$AAt?$AA?2?$AAs?$AAr?$AAc?$AA?2?$AAa?$AAp?$AAp?$AAc?$AAr?$AAt?$AA?2?$AAl@ 1010bc78     libucrtd:initnum.obj
 0002:00022cf0       ??_C@_0DD@MPFICDAE@minkernel?2crts?2ucrt?2src?2appcrt?2l@ 1010bcf0     libucrtd:inittime.obj
 0002:00022d30       ??_C@_1HK@HACABKKK@?$AA?$CI?$AA?$CC?$AAl?$AAc?$AA_?$AAt?$AAi?$AAm?$AAe?$AA_?$AAc?$AAu?$AAr?$AAr?$AA?5?$AAu?$AAn?$AAe?$AAx?$AAp?$AAe?$AAc?$AAt?$AAe?$AAd?$AAl?$AAy?$AA?5?$AAh?$AAa?$AAs?$AA?5@ 1010bd30     libucrtd:inittime.obj
 0002:00022dc8       ??_C@_1GG@BFOOANHJ@?$AAm?$AAi?$AAn?$AAk?$AAe?$AAr?$AAn?$AAe?$AAl?$AA?2?$AAc?$AAr?$AAt?$AAs?$AA?2?$AAu?$AAc?$AAr?$AAt?$AA?2?$AAs?$AAr?$AAc?$AA?2?$AAa?$AAp?$AAp?$AAc?$AAr?$AAt?$AA?2?$AAl@ 1010bdc8     libucrtd:inittime.obj
 0002:00022e44       ??_C@_1BC@LLOKLNP@?$AAa?$AAm?$AAe?$AAr?$AAi?$AAc?$AAa?$AAn?$AA?$AA@ 1010be44     libucrtd:get_qualified_locale.obj
 0002:00022e5c       ??_C@_1CC@HEIGCDGG@?$AAa?$AAm?$AAe?$AAr?$AAi?$AAc?$AAa?$AAn?$AA?5?$AAe?$AAn?$AAg?$AAl?$AAi?$AAs?$AAh?$AA?$AA@ 1010be5c     libucrtd:get_qualified_locale.obj
 0002:00022e84       ??_C@_1CC@IHCNOMIN@?$AAa?$AAm?$AAe?$AAr?$AAi?$AAc?$AAa?$AAn?$AA?9?$AAe?$AAn?$AAg?$AAl?$AAi?$AAs?$AAh?$AA?$AA@ 1010be84     libucrtd:get_qualified_locale.obj
 0002:00022eac       ??_C@_1BG@GKAGPCGG@?$AAa?$AAu?$AAs?$AAt?$AAr?$AAa?$AAl?$AAi?$AAa?$AAn?$AA?$AA@ 1010beac     libucrtd:get_qualified_locale.obj
 0002:00022ec8       ??_C@_1BA@GMENCENF@?$AAb?$AAe?$AAl?$AAg?$AAi?$AAa?$AAn?$AA?$AA@ 1010bec8     libucrtd:get_qualified_locale.obj
 0002:00022edc       ??_C@_1BC@PJMIIAAN@?$AAc?$AAa?$AAn?$AAa?$AAd?$AAi?$AAa?$AAn?$AA?$AA@ 1010bedc     libucrtd:get_qualified_locale.obj
 0002:00022ef4       ??_C@_17NOIMNFBF@?$AAc?$AAh?$AAh?$AA?$AA@ 1010bef4     libucrtd:get_qualified_locale.obj
 0002:00022f00       ??_C@_17GGDALCHA@?$AAc?$AAh?$AAi?$AA?$AA@ 1010bf00     libucrtd:get_qualified_locale.obj
 0002:00022f0c       ??_C@_1BA@NPNJKIBL@?$AAc?$AAh?$AAi?$AAn?$AAe?$AAs?$AAe?$AA?$AA@ 1010bf0c     libucrtd:get_qualified_locale.obj
 0002:00022f20       ??_C@_1CC@DINBAMMJ@?$AAc?$AAh?$AAi?$AAn?$AAe?$AAs?$AAe?$AA?9?$AAh?$AAo?$AAn?$AAg?$AAk?$AAo?$AAn?$AAg?$AA?$AA@ 1010bf20     libucrtd:get_qualified_locale.obj
 0002:00022f48       ??_C@_1CG@IOBJPACO@?$AAc?$AAh?$AAi?$AAn?$AAe?$AAs?$AAe?$AA?9?$AAs?$AAi?$AAm?$AAp?$AAl?$AAi?$AAf?$AAi?$AAe?$AAd?$AA?$AA@ 1010bf48     libucrtd:get_qualified_locale.obj
 0002:00022f78       ??_C@_1CE@GAJNDCKG@?$AAc?$AAh?$AAi?$AAn?$AAe?$AAs?$AAe?$AA?9?$AAs?$AAi?$AAn?$AAg?$AAa?$AAp?$AAo?$AAr?$AAe?$AA?$AA@ 1010bf78     libucrtd:get_qualified_locale.obj
 0002:00022fa4       ??_C@_1CI@PAJPIOOD@?$AAc?$AAh?$AAi?$AAn?$AAe?$AAs?$AAe?$AA?9?$AAt?$AAr?$AAa?$AAd?$AAi?$AAt?$AAi?$AAo?$AAn?$AAa?$AAl?$AA?$AA@ 1010bfa4     libucrtd:get_qualified_locale.obj
 0002:00022fd4       ??_C@_1BM@NILJBMMD@?$AAd?$AAu?$AAt?$AAc?$AAh?$AA?9?$AAb?$AAe?$AAl?$AAg?$AAi?$AAa?$AAn?$AA?$AA@ 1010bfd4     libucrtd:get_qualified_locale.obj
 0002:00022ff8       ??_C@_1CC@OOJPJNEJ@?$AAe?$AAn?$AAg?$AAl?$AAi?$AAs?$AAh?$AA?9?$AAa?$AAm?$AAe?$AAr?$AAi?$AAc?$AAa?$AAn?$AA?$AA@ 1010bff8     libucrtd:get_qualified_locale.obj
 0002:00023020       ??_C@_1BI@IOLFEEM@?$AAe?$AAn?$AAg?$AAl?$AAi?$AAs?$AAh?$AA?9?$AAa?$AAu?$AAs?$AA?$AA@ 1010c020     libucrtd:get_qualified_locale.obj
 0002:0002303c       ??_C@_1BO@HFFNLENJ@?$AAe?$AAn?$AAg?$AAl?$AAi?$AAs?$AAh?$AA?9?$AAb?$AAe?$AAl?$AAi?$AAz?$AAe?$AA?$AA@ 1010c03c     libucrtd:get_qualified_locale.obj
 0002:00023060       ??_C@_1BI@HAPKJMPO@?$AAe?$AAn?$AAg?$AAl?$AAi?$AAs?$AAh?$AA?9?$AAc?$AAa?$AAn?$AA?$AA@ 1010c060     libucrtd:get_qualified_locale.obj
 0002:0002307c       ??_C@_1CE@HLNDMIOJ@?$AAe?$AAn?$AAg?$AAl?$AAi?$AAs?$AAh?$AA?9?$AAc?$AAa?$AAr?$AAi?$AAb?$AAb?$AAe?$AAa?$AAn?$AA?$AA@ 1010c07c     libucrtd:get_qualified_locale.obj
 0002:000230a8       ??_C@_1BI@LDHJHHAC@?$AAe?$AAn?$AAg?$AAl?$AAi?$AAs?$AAh?$AA?9?$AAi?$AAr?$AAe?$AA?$AA@ 1010c0a8     libucrtd:get_qualified_locale.obj
 0002:000230c4       ??_C@_1CA@NJMMCFOC@?$AAe?$AAn?$AAg?$AAl?$AAi?$AAs?$AAh?$AA?9?$AAj?$AAa?$AAm?$AAa?$AAi?$AAc?$AAa?$AA?$AA@ 1010c0c4     libucrtd:get_qualified_locale.obj
 0002:000230ec       ??_C@_1BG@BHJEBBGG@?$AAe?$AAn?$AAg?$AAl?$AAi?$AAs?$AAh?$AA?9?$AAn?$AAz?$AA?$AA@ 1010c0ec     libucrtd:get_qualified_locale.obj
 0002:00023108       ??_C@_1CK@FGOEJJCO@?$AAe?$AAn?$AAg?$AAl?$AAi?$AAs?$AAh?$AA?9?$AAs?$AAo?$AAu?$AAt?$AAh?$AA?5?$AAa?$AAf?$AAr?$AAi?$AAc?$AAa?$AA?$AA@ 1010c108     libucrtd:get_qualified_locale.obj
 0002:0002313c       ??_C@_1DE@PDBJPCJ@?$AAe?$AAn?$AAg?$AAl?$AAi?$AAs?$AAh?$AA?9?$AAt?$AAr?$AAi?$AAn?$AAi?$AAd?$AAa?$AAd?$AA?5?$AAy?$AA?5?$AAt?$AAo?$AAb?$AAa?$AAg?$AAo?$AA?$AA@ 1010c13c     libucrtd:get_qualified_locale.obj
 0002:0002317c       ??_C@_1BG@JGCANDME@?$AAe?$AAn?$AAg?$AAl?$AAi?$AAs?$AAh?$AA?9?$AAu?$AAk?$AA?$AA@ 1010c17c     libucrtd:get_qualified_locale.obj
 0002:00023198       ??_C@_1BG@DINKMLE@?$AAe?$AAn?$AAg?$AAl?$AAi?$AAs?$AAh?$AA?9?$AAu?$AAs?$AA?$AA@ 1010c198     libucrtd:get_qualified_locale.obj
 0002:000231b4       ??_C@_1BI@NMFDBHJE@?$AAe?$AAn?$AAg?$AAl?$AAi?$AAs?$AAh?$AA?9?$AAu?$AAs?$AAa?$AA?$AA@ 1010c1b4     libucrtd:get_qualified_locale.obj
 0002:000231d0       ??_C@_1BO@OIHKJKII@?$AAf?$AAr?$AAe?$AAn?$AAc?$AAh?$AA?9?$AAb?$AAe?$AAl?$AAg?$AAi?$AAa?$AAn?$AA?$AA@ 1010c1d0     libucrtd:get_qualified_locale.obj
 0002:000231f4       ??_C@_1CA@NKAELJKI@?$AAf?$AAr?$AAe?$AAn?$AAc?$AAh?$AA?9?$AAc?$AAa?$AAn?$AAa?$AAd?$AAi?$AAa?$AAn?$AA?$AA@ 1010c1f4     libucrtd:get_qualified_locale.obj
 0002:0002321c       ??_C@_1CE@MGKCNLGN@?$AAf?$AAr?$AAe?$AAn?$AAc?$AAh?$AA?9?$AAl?$AAu?$AAx?$AAe?$AAm?$AAb?$AAo?$AAu?$AAr?$AAg?$AA?$AA@ 1010c21c     libucrtd:get_qualified_locale.obj
 0002:00023248       ??_C@_1BK@CEGEAILM@?$AAf?$AAr?$AAe?$AAn?$AAc?$AAh?$AA?9?$AAs?$AAw?$AAi?$AAs?$AAs?$AA?$AA@ 1010c248     libucrtd:get_qualified_locale.obj
 0002:00023268       ??_C@_1CA@PAFKEOCC@?$AAg?$AAe?$AAr?$AAm?$AAa?$AAn?$AA?9?$AAa?$AAu?$AAs?$AAt?$AAr?$AAi?$AAa?$AAn?$AA?$AA@ 1010c268     libucrtd:get_qualified_locale.obj
 0002:00023290       ??_C@_1CI@HCFHGOFD@?$AAg?$AAe?$AAr?$AAm?$AAa?$AAn?$AA?9?$AAl?$AAi?$AAc?$AAh?$AAt?$AAe?$AAn?$AAs?$AAt?$AAe?$AAi?$AAn?$AA?$AA@ 1010c290     libucrtd:get_qualified_locale.obj
 0002:000232c0       ??_C@_1CE@FEDDNPDG@?$AAg?$AAe?$AAr?$AAm?$AAa?$AAn?$AA?9?$AAl?$AAu?$AAx?$AAe?$AAm?$AAb?$AAo?$AAu?$AAr?$AAg?$AA?$AA@ 1010c2c0     libucrtd:get_qualified_locale.obj
 0002:000232ec       ??_C@_1BK@LIMINNMN@?$AAg?$AAe?$AAr?$AAm?$AAa?$AAn?$AA?9?$AAs?$AAw?$AAi?$AAs?$AAs?$AA?$AA@ 1010c2ec     libucrtd:get_qualified_locale.obj
 0002:0002330c       ??_C@_1BM@LGMDBEPD@?$AAi?$AAr?$AAi?$AAs?$AAh?$AA?9?$AAe?$AAn?$AAg?$AAl?$AAi?$AAs?$AAh?$AA?$AA@ 1010c30c     libucrtd:get_qualified_locale.obj
 0002:00023330       ??_C@_1BM@NNCFBAEE@?$AAi?$AAt?$AAa?$AAl?$AAi?$AAa?$AAn?$AA?9?$AAs?$AAw?$AAi?$AAs?$AAs?$AA?$AA@ 1010c330     libucrtd:get_qualified_locale.obj
 0002:00023354       ??_C@_1BE@FEDJNPIB@?$AAn?$AAo?$AAr?$AAw?$AAe?$AAg?$AAi?$AAa?$AAn?$AA?$AA@ 1010c354     libucrtd:get_qualified_locale.obj
 0002:0002336c       ??_C@_1CC@CILKDEIE@?$AAn?$AAo?$AAr?$AAw?$AAe?$AAg?$AAi?$AAa?$AAn?$AA?9?$AAb?$AAo?$AAk?$AAm?$AAa?$AAl?$AA?$AA@ 1010c36c     libucrtd:get_qualified_locale.obj
 0002:00023394       ??_C@_1CE@DHMMHEPL@?$AAn?$AAo?$AAr?$AAw?$AAe?$AAg?$AAi?$AAa?$AAn?$AA?9?$AAn?$AAy?$AAn?$AAo?$AAr?$AAs?$AAk?$AA?$AA@ 1010c394     libucrtd:get_qualified_locale.obj
 0002:000233c0       ??_C@_1CK@OPNMHECD@?$AAp?$AAo?$AAr?$AAt?$AAu?$AAg?$AAu?$AAe?$AAs?$AAe?$AA?9?$AAb?$AAr?$AAa?$AAz?$AAi?$AAl?$AAi?$AAa?$AAn?$AA?$AA@ 1010c3c0     libucrtd:get_qualified_locale.obj
 0002:000233f4       ??_C@_1CE@KEEHCDB@?$AAs?$AAp?$AAa?$AAn?$AAi?$AAs?$AAh?$AA?9?$AAa?$AAr?$AAg?$AAe?$AAn?$AAt?$AAi?$AAn?$AAa?$AA?$AA@ 1010c3f4     libucrtd:get_qualified_locale.obj
 0002:00023420       ??_C@_1CA@GIAOLHJD@?$AAs?$AAp?$AAa?$AAn?$AAi?$AAs?$AAh?$AA?9?$AAb?$AAo?$AAl?$AAi?$AAv?$AAi?$AAa?$AA?$AA@ 1010c420     libucrtd:get_qualified_locale.obj
 0002:00023448       ??_C@_1BM@OJNDFNPD@?$AAs?$AAp?$AAa?$AAn?$AAi?$AAs?$AAh?$AA?9?$AAc?$AAh?$AAi?$AAl?$AAe?$AA?$AA@ 1010c448     libucrtd:get_qualified_locale.obj
 0002:0002346c       ??_C@_1CC@OCOLPALL@?$AAs?$AAp?$AAa?$AAn?$AAi?$AAs?$AAh?$AA?9?$AAc?$AAo?$AAl?$AAo?$AAm?$AAb?$AAi?$AAa?$AA?$AA@ 1010c46c     libucrtd:get_qualified_locale.obj
 0002:00023494       ??_C@_1CG@BPOFMKBB@?$AAs?$AAp?$AAa?$AAn?$AAi?$AAs?$AAh?$AA?9?$AAc?$AAo?$AAs?$AAt?$AAa?$AA?5?$AAr?$AAi?$AAc?$AAa?$AA?$AA@ 1010c494     libucrtd:get_qualified_locale.obj
 0002:000234c4       ??_C@_1DG@IGOBAPBB@?$AAs?$AAp?$AAa?$AAn?$AAi?$AAs?$AAh?$AA?9?$AAd?$AAo?$AAm?$AAi?$AAn?$AAi?$AAc?$AAa?$AAn?$AA?5?$AAr?$AAe?$AAp?$AAu?$AAb?$AAl?$AAi?$AAc?$AA?$AA@ 1010c4c4     libucrtd:get_qualified_locale.obj
 0002:00023504       ??_C@_1CA@JHAPGEGI@?$AAs?$AAp?$AAa?$AAn?$AAi?$AAs?$AAh?$AA?9?$AAe?$AAc?$AAu?$AAa?$AAd?$AAo?$AAr?$AA?$AA@ 1010c504     libucrtd:get_qualified_locale.obj
 0002:0002352c       ??_C@_1CI@LAPALJPP@?$AAs?$AAp?$AAa?$AAn?$AAi?$AAs?$AAh?$AA?9?$AAe?$AAl?$AA?5?$AAs?$AAa?$AAl?$AAv?$AAa?$AAd?$AAo?$AAr?$AA?$AA@ 1010c52c     libucrtd:get_qualified_locale.obj
 0002:0002355c       ??_C@_1CE@PDGBOFOM@?$AAs?$AAp?$AAa?$AAn?$AAi?$AAs?$AAh?$AA?9?$AAg?$AAu?$AAa?$AAt?$AAe?$AAm?$AAa?$AAl?$AAa?$AA?$AA@ 1010c55c     libucrtd:get_qualified_locale.obj
 0002:00023588       ??_C@_1CC@NBEBAODI@?$AAs?$AAp?$AAa?$AAn?$AAi?$AAs?$AAh?$AA?9?$AAh?$AAo?$AAn?$AAd?$AAu?$AAr?$AAa?$AAs?$AA?$AA@ 1010c588     libucrtd:get_qualified_locale.obj
 0002:000235b0       ??_C@_1CA@LLKGHBMF@?$AAs?$AAp?$AAa?$AAn?$AAi?$AAs?$AAh?$AA?9?$AAm?$AAe?$AAx?$AAi?$AAc?$AAa?$AAn?$AA?$AA@ 1010c5b0     libucrtd:get_qualified_locale.obj
 0002:000235d8       ??_C@_1BO@LKNDOIGD@?$AAs?$AAp?$AAa?$AAn?$AAi?$AAs?$AAh?$AA?9?$AAm?$AAo?$AAd?$AAe?$AAr?$AAn?$AA?$AA@ 1010c5d8     libucrtd:get_qualified_locale.obj
 0002:000235fc       ??_C@_1CE@NMDMOEEB@?$AAs?$AAp?$AAa?$AAn?$AAi?$AAs?$AAh?$AA?9?$AAn?$AAi?$AAc?$AAa?$AAr?$AAa?$AAg?$AAu?$AAa?$AA?$AA@ 1010c5fc     libucrtd:get_qualified_locale.obj
 0002:00023628       ??_C@_1BO@LLCBEJGB@?$AAs?$AAp?$AAa?$AAn?$AAi?$AAs?$AAh?$AA?9?$AAp?$AAa?$AAn?$AAa?$AAm?$AAa?$AA?$AA@ 1010c628     libucrtd:get_qualified_locale.obj
 0002:0002364c       ??_C@_1CC@FKPGGIHO@?$AAs?$AAp?$AAa?$AAn?$AAi?$AAs?$AAh?$AA?9?$AAp?$AAa?$AAr?$AAa?$AAg?$AAu?$AAa?$AAy?$AA?$AA@ 1010c64c     libucrtd:get_qualified_locale.obj
 0002:00023674       ??_C@_1BK@CDEIHOOP@?$AAs?$AAp?$AAa?$AAn?$AAi?$AAs?$AAh?$AA?9?$AAp?$AAe?$AAr?$AAu?$AA?$AA@ 1010c674     libucrtd:get_qualified_locale.obj
 0002:00023694       ??_C@_1CI@GAHAKKGP@?$AAs?$AAp?$AAa?$AAn?$AAi?$AAs?$AAh?$AA?9?$AAp?$AAu?$AAe?$AAr?$AAt?$AAo?$AA?5?$AAr?$AAi?$AAc?$AAo?$AA?$AA@ 1010c694     libucrtd:get_qualified_locale.obj
 0002:000236c4       ??_C@_1CA@NKJBCAGP@?$AAs?$AAp?$AAa?$AAn?$AAi?$AAs?$AAh?$AA?9?$AAu?$AAr?$AAu?$AAg?$AAu?$AAa?$AAy?$AA?$AA@ 1010c6c4     libucrtd:get_qualified_locale.obj
 0002:000236ec       ??_C@_1CE@ODILCONM@?$AAs?$AAp?$AAa?$AAn?$AAi?$AAs?$AAh?$AA?9?$AAv?$AAe?$AAn?$AAe?$AAz?$AAu?$AAe?$AAl?$AAa?$AA?$AA@ 1010c6ec     libucrtd:get_qualified_locale.obj
 0002:00023718       ??_C@_1CA@OBNMCGFO@?$AAs?$AAw?$AAe?$AAd?$AAi?$AAs?$AAh?$AA?9?$AAf?$AAi?$AAn?$AAl?$AAa?$AAn?$AAd?$AA?$AA@ 1010c718     libucrtd:get_qualified_locale.obj
 0002:00023740       ??_C@_1M@PIPDDPPI@?$AAs?$AAw?$AAi?$AAs?$AAs?$AA?$AA@ 1010c740     libucrtd:get_qualified_locale.obj
 0002:00023750       ??_C@_15PJPFLCCM@?$AAu?$AAk?$AA?$AA@ 1010c750     libucrtd:get_qualified_locale.obj
 0002:00023758       ??_C@_15GMFIMNFM@?$AAu?$AAs?$AA?$AA@ 1010c758     libucrtd:get_qualified_locale.obj
 0002:00023760       ??_C@_17HAEBFAGL@?$AAu?$AAs?$AAa?$AA?$AA@ 1010c760     libucrtd:get_qualified_locale.obj
 0002:0002376c       ??_C@_1BA@DPFJEPHB@?$AAa?$AAm?$AAe?$AAr?$AAi?$AAc?$AAa?$AA?$AA@ 1010c76c     libucrtd:get_qualified_locale.obj
 0002:00023780       ??_C@_1BA@ELOGGFK@?$AAb?$AAr?$AAi?$AAt?$AAa?$AAi?$AAn?$AA?$AA@ 1010c780     libucrtd:get_qualified_locale.obj
 0002:00023794       ??_C@_1M@GHBGIGDA@?$AAc?$AAh?$AAi?$AAn?$AAa?$AA?$AA@ 1010c794     libucrtd:get_qualified_locale.obj
 0002:000237a4       ??_C@_1M@NCHEJOPO@?$AAc?$AAz?$AAe?$AAc?$AAh?$AA?$AA@ 1010c7a4     libucrtd:get_qualified_locale.obj
 0002:000237b4       ??_C@_1BA@BKPAPBLA@?$AAe?$AAn?$AAg?$AAl?$AAa?$AAn?$AAd?$AA?$AA@ 1010c7b4     libucrtd:get_qualified_locale.obj
 0002:000237c8       ??_C@_1BM@HKBCKIPC@?$AAg?$AAr?$AAe?$AAa?$AAt?$AA?5?$AAb?$AAr?$AAi?$AAt?$AAa?$AAi?$AAn?$AA?$AA@ 1010c7c8     libucrtd:get_qualified_locale.obj
 0002:000237ec       ??_C@_1BA@PPCHPGJB@?$AAh?$AAo?$AAl?$AAl?$AAa?$AAn?$AAd?$AA?$AA@ 1010c7ec     libucrtd:get_qualified_locale.obj
 0002:00023800       ??_C@_1BE@JBMPEGDG@?$AAh?$AAo?$AAn?$AAg?$AA?9?$AAk?$AAo?$AAn?$AAg?$AA?$AA@ 1010c800     libucrtd:get_qualified_locale.obj
 0002:00023818       ??_C@_1BI@KOELBBPJ@?$AAn?$AAe?$AAw?$AA?9?$AAz?$AAe?$AAa?$AAl?$AAa?$AAn?$AAd?$AA?$AA@ 1010c818     libucrtd:get_qualified_locale.obj
 0002:00023834       ??_C@_15HIEBHAIO@?$AAn?$AAz?$AA?$AA@ 1010c834     libucrtd:get_qualified_locale.obj
 0002:0002383c       ??_C@_1BC@CHBCPFPI@?$AAp?$AAr?$AA?5?$AAc?$AAh?$AAi?$AAn?$AAa?$AA?$AA@ 1010c83c     libucrtd:get_qualified_locale.obj
 0002:00023854       ??_C@_1BC@JAOIIFKD@?$AAp?$AAr?$AA?9?$AAc?$AAh?$AAi?$AAn?$AAa?$AA?$AA@ 1010c854     libucrtd:get_qualified_locale.obj
 0002:0002386c       ??_C@_1BI@BEHPPHKC@?$AAp?$AAu?$AAe?$AAr?$AAt?$AAo?$AA?9?$AAr?$AAi?$AAc?$AAo?$AA?$AA@ 1010c86c     libucrtd:get_qualified_locale.obj
 0002:00023888       ??_C@_1O@PAEOFKDI@?$AAs?$AAl?$AAo?$AAv?$AAa?$AAk?$AA?$AA@ 1010c888     libucrtd:get_qualified_locale.obj
 0002:00023898       ??_C@_1BK@FIHMCKAM@?$AAs?$AAo?$AAu?$AAt?$AAh?$AA?5?$AAa?$AAf?$AAr?$AAi?$AAc?$AAa?$AA?$AA@ 1010c898     libucrtd:get_qualified_locale.obj
 0002:000238b8       ??_C@_1BI@NAEOODKB@?$AAs?$AAo?$AAu?$AAt?$AAh?$AA?5?$AAk?$AAo?$AAr?$AAe?$AAa?$AA?$AA@ 1010c8b8     libucrtd:get_qualified_locale.obj
 0002:000238d4       ??_C@_1BK@FBDGGIFF@?$AAs?$AAo?$AAu?$AAt?$AAh?$AA?9?$AAa?$AAf?$AAr?$AAi?$AAc?$AAa?$AA?$AA@ 1010c8d4     libucrtd:get_qualified_locale.obj
 0002:000238f4       ??_C@_1BI@GHLEJDPK@?$AAs?$AAo?$AAu?$AAt?$AAh?$AA?9?$AAk?$AAo?$AAr?$AAe?$AAa?$AA?$AA@ 1010c8f4     libucrtd:get_qualified_locale.obj
 0002:00023910       ??_C@_1CE@PLHLOMJF@?$AAt?$AAr?$AAi?$AAn?$AAi?$AAd?$AAa?$AAd?$AA?5?$AA?$CG?$AA?5?$AAt?$AAo?$AAb?$AAa?$AAg?$AAo?$AA?$AA@ 1010c910     libucrtd:get_qualified_locale.obj
 0002:0002393c       ??_C@_1BO@MODIMHHI@?$AAu?$AAn?$AAi?$AAt?$AAe?$AAd?$AA?9?$AAk?$AAi?$AAn?$AAg?$AAd?$AAo?$AAm?$AA?$AA@ 1010c93c     libucrtd:get_qualified_locale.obj
 0002:00023960       ??_C@_1BM@FFHJONBJ@?$AAu?$AAn?$AAi?$AAt?$AAe?$AAd?$AA?9?$AAs?$AAt?$AAa?$AAt?$AAe?$AAs?$AA?$AA@ 1010c960     libucrtd:get_qualified_locale.obj
 0002:00023988       ___acrt_rg_language        1010c988     libucrtd:get_qualified_locale.obj
 0002:00023d30       ___acrt_rg_language_count  1010cd30     libucrtd:get_qualified_locale.obj
 0002:00023d38       ___acrt_rg_country         1010cd38     libucrtd:get_qualified_locale.obj
 0002:00023e84       ___acrt_rg_country_count   1010ce84     libucrtd:get_qualified_locale.obj
 0002:00023e88       ??_C@_1HO@CKHMGCFN@?$AAm?$AAi?$AAn?$AAk?$AAe?$AAr?$AAn?$AAe?$AAl?$AA?2?$AAc?$AAr?$AAt?$AAs?$AA?2?$AAu?$AAc?$AAr?$AAt?$AA?2?$AAs?$AAr?$AAc?$AA?2?$AAa?$AAp?$AAp?$AAc?$AAr?$AAt?$AA?2?$AAl@ 1010ce88     libucrtd:get_qualified_locale.obj
 0002:00023f20       ??_C@_1DI@HCPCNHHP@?$AA_?$AA_?$AAa?$AAc?$AAr?$AAt?$AA_?$AAg?$AAe?$AAt?$AA_?$AAq?$AAu?$AAa?$AAl?$AAi?$AAf?$AAi?$AAe?$AAd?$AA_?$AAl?$AAo?$AAc?$AAa?$AAl?$AAe?$AA?$AA@ 1010cf20     libucrtd:get_qualified_locale.obj
 0002:00023f68       ??_C@_1BFC@DEALMEIM@?$AAw?$AAc?$AAs?$AAn?$AAc?$AAp?$AAy?$AA_?$AAs?$AA?$CI?$AAl?$AAp?$AAO?$AAu?$AAt?$AAS?$AAt?$AAr?$AA?9?$AA?$DO?$AAs?$AAz?$AAL?$AAo?$AAc?$AAa?$AAl?$AAe?$AAN?$AAa?$AAm?$AAe@ 1010cf68     libucrtd:get_qualified_locale.obj
 0002:00024100       ??_C@_1CM@OGEMFJNJ@?$AAL?$AAa?$AAn?$AAg?$AAC?$AAo?$AAu?$AAn?$AAt?$AAr?$AAy?$AAE?$AAn?$AAu?$AAm?$AAP?$AAr?$AAo?$AAc?$AAE?$AAx?$AA?$AA@ 1010d100     libucrtd:get_qualified_locale.obj
 0002:00024138       ??_C@_1BDC@CGCEDIGP@?$AAw?$AAc?$AAs?$AAn?$AAc?$AAp?$AAy?$AA_?$AAs?$AA?$CI?$AA_?$AAp?$AAs?$AAe?$AAt?$AAl?$AAo?$AAc?$AA_?$AAd?$AAa?$AAt?$AAa?$AA?9?$AA?$DO?$AA_?$AAc?$AAa?$AAc?$AAh?$AAe?$AAL@ 1010d138     libucrtd:get_qualified_locale.obj
 0002:000242a8       ??_C@_1CG@PGLLICHO@?$AAL?$AAa?$AAn?$AAg?$AAu?$AAa?$AAg?$AAe?$AAE?$AAn?$AAu?$AAm?$AAP?$AAr?$AAo?$AAc?$AAE?$AAx?$AA?$AA@ 1010d2a8     libucrtd:get_qualified_locale.obj
 0002:000242d8       ??_C@_1DC@CPKFANGP@?$AAG?$AAe?$AAt?$AAL?$AAo?$AAc?$AAa?$AAl?$AAe?$AAN?$AAa?$AAm?$AAe?$AAF?$AAr?$AAo?$AAm?$AAD?$AAe?$AAf?$AAa?$AAu?$AAl?$AAt?$AA?$AA@ 1010d2d8     libucrtd:get_qualified_locale.obj
 0002:00024318       ??_C@_1BCC@GMJIFDHO@?$AAw?$AAc?$AAs?$AAn?$AAc?$AAp?$AAy?$AA_?$AAs?$AA?$CI?$AA_?$AAp?$AAs?$AAe?$AAt?$AAl?$AAo?$AAc?$AA_?$AAd?$AAa?$AAt?$AAa?$AA?9?$AA?$DO?$AA_?$AAc?$AAa?$AAc?$AAh?$AAe?$AAL@ 1010d318     libucrtd:get_qualified_locale.obj
 0002:00024474       ??_C@_17DNCLJFIF@?$AAA?$AAC?$AAP?$AA?$AA@ 1010d474     libucrtd:get_qualified_locale.obj
 0002:00024480       ??_C@_17CIKBIHLH@?$AAO?$AAC?$AAP?$AA?$AA@ 1010d480     libucrtd:get_qualified_locale.obj
 0002:0002448c       ___rglangidNotDefault      1010d48c     libucrtd:getqloc_downlevel.obj
 0002:00024d34       ??_C@_15EMKDOKLE@?$AAa?$AAr?$AA?$AA@ 1010dd34     libucrtd:lcidtoname_downlevel.obj
 0002:00024d3c       ??_C@_15KNPADPLH@?$AAb?$AAg?$AA?$AA@ 1010dd3c     libucrtd:lcidtoname_downlevel.obj
 0002:00024d44       ??_C@_15EDMHLDMO@?$AAc?$AAa?$AA?$AA@ 1010dd44     libucrtd:lcidtoname_downlevel.obj
 0002:00024d4c       ??_C@_1O@BPEAJADD@?$AAz?$AAh?$AA?9?$AAC?$AAH?$AAS?$AA?$AA@ 1010dd4c     libucrtd:lcidtoname_downlevel.obj
 0002:00024d5c       ??_C@_15LJNHCMNK@?$AAc?$AAs?$AA?$AA@ 1010dd5c     libucrtd:lcidtoname_downlevel.obj
 0002:00024d64       ??_C@_15FOMCIDHG@?$AAd?$AAa?$AA?$AA@ 1010dd64     libucrtd:lcidtoname_downlevel.obj
 0002:00024d6c       ??_C@_15NBKABECB@?$AAd?$AAe?$AA?$AA@ 1010dd6c     libucrtd:lcidtoname_downlevel.obj
 0002:00024d74       ??_C@_15GHPEIIAO@?$AAe?$AAl?$AA?$AA@ 1010dd74     libucrtd:lcidtoname_downlevel.obj
 0002:00024d7c       ??_C@_15MNPNEAIF@?$AAe?$AAn?$AA?$AA@ 1010dd7c     libucrtd:lcidtoname_downlevel.obj
 0002:00024d84       ??_C@_15GPIOMPMH@?$AAe?$AAs?$AA?$AA@ 1010dd84     libucrtd:lcidtoname_downlevel.obj
 0002:00024d8c       ??_C@_15NGLOAKJC@?$AAf?$AAi?$AA?$AA@ 1010dd8c     libucrtd:lcidtoname_downlevel.obj
 0002:00024d94       ??_C@_15FBKGNKAM@?$AAf?$AAr?$AA?$AA@ 1010dd94     libucrtd:lcidtoname_downlevel.obj
 0002:00024d9c       ??_C@_15KGGCNEFK@?$AAh?$AAe?$AA?$AA@ 1010dd9c     libucrtd:lcidtoname_downlevel.obj
 0002:00024da4       ??_C@_15PGHLIDMF@?$AAh?$AAu?$AA?$AA@ 1010dda4     libucrtd:lcidtoname_downlevel.obj
 0002:00024dac       ??_C@_15BIEMAPLM@?$AAi?$AAs?$AA?$AA@ 1010ddac     libucrtd:lcidtoname_downlevel.obj
 0002:00024db4       ??_C@_15IFJLDHAF@?$AAi?$AAt?$AA?$AA@ 1010ddb4     libucrtd:lcidtoname_downlevel.obj
 0002:00024dbc       ??_C@_15GEMIOCAG@?$AAj?$AAa?$AA?$AA@ 1010ddbc     libucrtd:lcidtoname_downlevel.obj
 0002:00024dc4       ??_C@_15EPELEGJA@?$AAk?$AAo?$AA?$AA@ 1010ddc4     libucrtd:lcidtoname_downlevel.obj
 0002:00024dcc       ??_C@_15NDDHIMN@?$AAn?$AAl?$AA?$AA@ 1010ddcc     libucrtd:lcidtoname_downlevel.obj
 0002:00024dd4       ??_C@_15BPIGNHCD@?$AAn?$AAo?$AA?$AA@ 1010ddd4     libucrtd:lcidtoname_downlevel.obj
 0002:00024ddc       ??_C@_15DEOPBLCG@?$AAp?$AAl?$AA?$AA@ 1010dddc     libucrtd:lcidtoname_downlevel.obj
 0002:00024de4       ??_C@_15KBECGEFG@?$AAp?$AAt?$AA?$AA@ 1010dde4     libucrtd:lcidtoname_downlevel.obj
 0002:00024dec       ??_C@_15GLJCBFMD@?$AAr?$AAo?$AA?$AA@ 1010ddec     libucrtd:lcidtoname_downlevel.obj
 0002:00024df4       ??_C@_15FEDGKCDI@?$AAr?$AAu?$AA?$AA@ 1010ddf4     libucrtd:lcidtoname_downlevel.obj
 0002:00024dfc       ??_C@_15GLKMLLHM@?$AAh?$AAr?$AA?$AA@ 1010ddfc     libucrtd:lcidtoname_downlevel.obj
 0002:00024e04       ??_C@_15CPKMFBDB@?$AAs?$AAk?$AA?$AA@ 1010de04     libucrtd:lcidtoname_downlevel.obj
 0002:00024e0c       ??_C@_15BAAIOGMK@?$AAs?$AAq?$AA?$AA@ 1010de0c     libucrtd:lcidtoname_downlevel.obj
 0002:00024e14       ??_C@_15INNPNOHD@?$AAs?$AAv?$AA?$AA@ 1010de14     libucrtd:lcidtoname_downlevel.obj
 0002:00024e1c       ??_C@_15CABMMOGH@?$AAt?$AAh?$AA?$AA@ 1010de1c     libucrtd:lcidtoname_downlevel.obj
 0002:00024e24       ??_C@_15BPLIHJJM@?$AAt?$AAr?$AA?$AA@ 1010de24     libucrtd:lcidtoname_downlevel.obj
 0002:00024e2c       ??_C@_15NEOEKKDJ@?$AAu?$AAr?$AA?$AA@ 1010de2c     libucrtd:lcidtoname_downlevel.obj
 0002:00024e34       ??_C@_15NFICGAJK@?$AAi?$AAd?$AA?$AA@ 1010de34     libucrtd:lcidtoname_downlevel.obj
 0002:00024e3c       ??_C@_15HPJPHDM@?$AAb?$AAe?$AA?$AA@ 1010de3c     libucrtd:lcidtoname_downlevel.obj
 0002:00024e44       ??_C@_15LCHLGJII@?$AAs?$AAl?$AA?$AA@ 1010de44     libucrtd:lcidtoname_downlevel.obj
 0002:00024e4c       ??_C@_15PCFJPHHO@?$AAe?$AAt?$AA?$AA@ 1010de4c     libucrtd:lcidtoname_downlevel.obj
 0002:00024e54       ??_C@_15HPFPGODN@?$AAl?$AAv?$AA?$AA@ 1010de54     libucrtd:lcidtoname_downlevel.obj
 0002:00024e5c       ??_C@_15NFFGKGLG@?$AAl?$AAt?$AA?$AA@ 1010de5c     libucrtd:lcidtoname_downlevel.obj
 0002:00024e64       ??_C@_15BDAKCCHN@?$AAf?$AAa?$AA?$AA@ 1010de64     libucrtd:lcidtoname_downlevel.obj
 0002:00024e6c       ??_C@_15NFGIAIAJ@?$AAv?$AAi?$AA?$AA@ 1010de6c     libucrtd:lcidtoname_downlevel.obj
 0002:00024e74       ??_C@_15LMKNDMHN@?$AAh?$AAy?$AA?$AA@ 1010de74     libucrtd:lcidtoname_downlevel.obj
 0002:00024e7c       ??_C@_15IJBHMCFL@?$AAa?$AAz?$AA?$AA@ 1010de7c     libucrtd:lcidtoname_downlevel.obj
 0002:00024e84       ??_C@_15EKOFJABL@?$AAe?$AAu?$AA?$AA@ 1010de84     libucrtd:lcidtoname_downlevel.obj
 0002:00024e8c       ??_C@_15BGHADCNK@?$AAm?$AAk?$AA?$AA@ 1010de8c     libucrtd:lcidtoname_downlevel.obj
 0002:00024e94       ??_C@_15JDNICKHM@?$AAa?$AAf?$AA?$AA@ 1010de94     libucrtd:lcidtoname_downlevel.obj
 0002:00024e9c       ??_C@_15KPJEDBKD@?$AAk?$AAa?$AA?$AA@ 1010de9c     libucrtd:lcidtoname_downlevel.obj
 0002:00024ea4       ??_C@_15PDNFFFEO@?$AAf?$AAo?$AA?$AA@ 1010dea4     libucrtd:lcidtoname_downlevel.obj
 0002:00024eac       ??_C@_15OMLEGLOC@?$AAh?$AAi?$AA?$AA@ 1010deac     libucrtd:lcidtoname_downlevel.obj
 0002:00024eb4       ??_C@_15IDNNENKK@?$AAm?$AAs?$AA?$AA@ 1010deb4     libucrtd:lcidtoname_downlevel.obj
 0002:00024ebc       ??_C@_15MACJNBMH@?$AAk?$AAk?$AA?$AA@ 1010debc     libucrtd:lcidtoname_downlevel.obj
 0002:00024ec4       ??_C@_15DKDJEOND@?$AAk?$AAy?$AA?$AA@ 1010dec4     libucrtd:lcidtoname_downlevel.obj
 0002:00024ecc       ??_C@_15DFGDLJBG@?$AAs?$AAw?$AA?$AA@ 1010decc     libucrtd:lcidtoname_downlevel.obj
 0002:00024ed4       ??_C@_15BBFAICNG@?$AAu?$AAz?$AA?$AA@ 1010ded4     libucrtd:lcidtoname_downlevel.obj
 0002:00024edc       ??_C@_15DKNDCGEA@?$AAt?$AAt?$AA?$AA@ 1010dedc     libucrtd:lcidtoname_downlevel.obj
 0002:00024ee4       ??_C@_15MGIFMDPL@?$AAp?$AAa?$AA?$AA@ 1010dee4     libucrtd:lcidtoname_downlevel.obj
 0002:00024eec       ??_C@_15HCNDBBA@?$AAg?$AAu?$AA?$AA@ 1010deec     libucrtd:lcidtoname_downlevel.obj
 0002:00024ef4       ??_C@_15FNBEIBON@?$AAt?$AAa?$AA?$AA@ 1010def4     libucrtd:lcidtoname_downlevel.obj
 0002:00024efc       ??_C@_15NCHGBGLK@?$AAt?$AAe?$AA?$AA@ 1010defc     libucrtd:lcidtoname_downlevel.obj
 0002:00024f04       ??_C@_15PHPHCBPF@?$AAk?$AAn?$AA?$AA@ 1010df04     libucrtd:lcidtoname_downlevel.obj
 0002:00024f0c       ??_C@_15DLGBCKMP@?$AAm?$AAr?$AA?$AA@ 1010df0c     libucrtd:lcidtoname_downlevel.obj
 0002:00024f14       ??_C@_15EABBLBFF@?$AAs?$AAa?$AA?$AA@ 1010df14     libucrtd:lcidtoname_downlevel.obj
 0002:00024f1c       ??_C@_15CBKOMCOI@?$AAm?$AAn?$AA?$AA@ 1010df1c     libucrtd:lcidtoname_downlevel.obj
 0002:00024f24       ??_C@_15CKDMCJAF@?$AAg?$AAl?$AA?$AA@ 1010df24     libucrtd:lcidtoname_downlevel.obj
 0002:00024f2c       ??_C@_17CNJFBPG@?$AAk?$AAo?$AAk?$AA?$AA@ 1010df2c     libucrtd:lcidtoname_downlevel.obj
 0002:00024f38       ??_C@_17FFBJICPL@?$AAs?$AAy?$AAr?$AA?$AA@ 1010df38     libucrtd:lcidtoname_downlevel.obj
 0002:00024f44       ??_C@_17KPNDCPAF@?$AAd?$AAi?$AAv?$AA?$AA@ 1010df44     libucrtd:lcidtoname_downlevel.obj
 0002:00024f50       ??_C@_1M@OKAHONE@?$AAa?$AAr?$AA?9?$AAS?$AAA?$AA?$AA@ 1010df50     libucrtd:lcidtoname_downlevel.obj
 0002:00024f60       ??_C@_1M@FFFIGIGK@?$AAb?$AAg?$AA?9?$AAB?$AAG?$AA?$AA@ 1010df60     libucrtd:lcidtoname_downlevel.obj
 0002:00024f70       ??_C@_1M@BJNKEDC@?$AAc?$AAa?$AA?9?$AAE?$AAS?$AA?$AA@ 1010df70     libucrtd:lcidtoname_downlevel.obj
 0002:00024f80       ??_C@_1M@IJJHFJHA@?$AAc?$AAs?$AA?9?$AAC?$AAZ?$AA?$AA@ 1010df80     libucrtd:lcidtoname_downlevel.obj
 0002:00024f90       ??_C@_1M@CLPEOBGI@?$AAd?$AAa?$AA?9?$AAD?$AAK?$AA?$AA@ 1010df90     libucrtd:lcidtoname_downlevel.obj
 0002:00024fa0       ??_C@_1M@MCMADGCB@?$AAd?$AAe?$AA?9?$AAD?$AAE?$AA?$AA@ 1010dfa0     libucrtd:lcidtoname_downlevel.obj
 0002:00024fb0       ??_C@_1M@OOCKEMAM@?$AAe?$AAl?$AA?9?$AAG?$AAR?$AA?$AA@ 1010dfb0     libucrtd:lcidtoname_downlevel.obj
 0002:00024fc0       ??_C@_1M@DDNJFGID@?$AAf?$AAi?$AA?9?$AAF?$AAI?$AA?$AA@ 1010dfc0     libucrtd:lcidtoname_downlevel.obj
 0002:00024fd0       ??_C@_1M@GLIPPMAC@?$AAf?$AAr?$AA?9?$AAF?$AAR?$AA?$AA@ 1010dfd0     libucrtd:lcidtoname_downlevel.obj
 0002:00024fe0       ??_C@_1M@GFMCHPE@?$AAh?$AAe?$AA?9?$AAI?$AAL?$AA?$AA@ 1010dfe0     libucrtd:lcidtoname_downlevel.obj
 0002:00024ff0       ??_C@_1M@MHLPGNKM@?$AAh?$AAu?$AA?9?$AAH?$AAU?$AA?$AA@ 1010dff0     libucrtd:lcidtoname_downlevel.obj
 0002:00025000       ??_C@_1M@LPDDNNPN@?$AAi?$AAs?$AA?9?$AAI?$AAS?$AA?$AA@ 1010e000     libucrtd:lcidtoname_downlevel.obj
 0002:00025010       ??_C@_1M@MADIPODN@?$AAi?$AAt?$AA?9?$AAI?$AAT?$AA?$AA@ 1010e010     libucrtd:lcidtoname_downlevel.obj
 0002:00025020       ??_C@_1M@IHBJJGG@?$AAn?$AAl?$AA?9?$AAN?$AAL?$AA?$AA@ 1010e020     libucrtd:lcidtoname_downlevel.obj
 0002:00025030       ??_C@_1M@EANAGDL@?$AAn?$AAb?$AA?9?$AAN?$AAO?$AA?$AA@ 1010e030     libucrtd:lcidtoname_downlevel.obj
 0002:00025040       ??_C@_1M@NEIEMEGP@?$AAp?$AAl?$AA?9?$AAP?$AAL?$AA?$AA@ 1010e040     libucrtd:lcidtoname_downlevel.obj
 0002:00025050       ??_C@_1M@BOCFIGEP@?$AAp?$AAt?$AA?9?$AAB?$AAR?$AA?$AA@ 1010e050     libucrtd:lcidtoname_downlevel.obj
 0002:00025060       ??_C@_1M@IMPFOPBG@?$AAr?$AAo?$AA?9?$AAR?$AAO?$AA?$AA@ 1010e060     libucrtd:lcidtoname_downlevel.obj
 0002:00025070       ??_C@_1M@IDNNEJMM@?$AAr?$AAu?$AA?9?$AAR?$AAU?$AA?$AA@ 1010e070     libucrtd:lcidtoname_downlevel.obj
 0002:00025080       ??_C@_1M@LILEEOGM@?$AAh?$AAr?$AA?9?$AAH?$AAR?$AA?$AA@ 1010e080     libucrtd:lcidtoname_downlevel.obj
 0002:00025090       ??_C@_1M@FKIFEHPB@?$AAs?$AAk?$AA?9?$AAS?$AAK?$AA?$AA@ 1010e090     libucrtd:lcidtoname_downlevel.obj
 0002:000250a0       ??_C@_1M@LJMAMNPJ@?$AAs?$AAq?$AA?9?$AAA?$AAL?$AA?$AA@ 1010e0a0     libucrtd:lcidtoname_downlevel.obj
 0002:000250b0       ??_C@_1M@GIAKDKJK@?$AAs?$AAv?$AA?9?$AAS?$AAE?$AA?$AA@ 1010e0b0     libucrtd:lcidtoname_downlevel.obj
 0002:000250c0       ??_C@_1M@MKJKIKCL@?$AAt?$AAh?$AA?9?$AAT?$AAH?$AA?$AA@ 1010e0c0     libucrtd:lcidtoname_downlevel.obj
 0002:000250d0       ??_C@_1M@MFLCCMPB@?$AAt?$AAr?$AA?9?$AAT?$AAR?$AA?$AA@ 1010e0d0     libucrtd:lcidtoname_downlevel.obj
 0002:000250e0       ??_C@_1M@OIJHDKJN@?$AAu?$AAr?$AA?9?$AAP?$AAK?$AA?$AA@ 1010e0e0     libucrtd:lcidtoname_downlevel.obj
 0002:000250f0       ??_C@_1M@LHIPCIEK@?$AAi?$AAd?$AA?9?$AAI?$AAD?$AA?$AA@ 1010e0f0     libucrtd:lcidtoname_downlevel.obj
 0002:00025100       ??_C@_1M@MFMOBGI@?$AAu?$AAk?$AA?9?$AAU?$AAA?$AA?$AA@ 1010e100     libucrtd:lcidtoname_downlevel.obj
 0002:00025110       ??_C@_1M@OBGLJIPL@?$AAb?$AAe?$AA?9?$AAB?$AAY?$AA?$AA@ 1010e110     libucrtd:lcidtoname_downlevel.obj
 0002:00025120       ??_C@_1M@BCFAJEAD@?$AAs?$AAl?$AA?9?$AAS?$AAI?$AA?$AA@ 1010e120     libucrtd:lcidtoname_downlevel.obj
 0002:00025130       ??_C@_1M@FKFFEDDN@?$AAe?$AAt?$AA?9?$AAE?$AAE?$AA?$AA@ 1010e130     libucrtd:lcidtoname_downlevel.obj
 0002:00025140       ??_C@_1M@KGKKAACI@?$AAl?$AAv?$AA?9?$AAL?$AAV?$AA?$AA@ 1010e140     libucrtd:lcidtoname_downlevel.obj
 0002:00025150       ??_C@_1M@IFGBIJO@?$AAl?$AAt?$AA?9?$AAL?$AAT?$AA?$AA@ 1010e150     libucrtd:lcidtoname_downlevel.obj
 0002:00025160       ??_C@_1M@FGEAHEDM@?$AAf?$AAa?$AA?9?$AAI?$AAR?$AA?$AA@ 1010e160     libucrtd:lcidtoname_downlevel.obj
 0002:00025170       ??_C@_1M@KBMAIBFN@?$AAv?$AAi?$AA?9?$AAV?$AAN?$AA?$AA@ 1010e170     libucrtd:lcidtoname_downlevel.obj
 0002:00025180       ??_C@_1M@GPCBKDJK@?$AAh?$AAy?$AA?9?$AAA?$AAM?$AA?$AA@ 1010e180     libucrtd:lcidtoname_downlevel.obj
 0002:00025190       ??_C@_1BG@BECMDDJB@?$AAa?$AAz?$AA?9?$AAA?$AAZ?$AA?9?$AAL?$AAa?$AAt?$AAn?$AA?$AA@ 1010e190     libucrtd:lcidtoname_downlevel.obj
 0002:000251ac       ??_C@_1M@MAOFCAEA@?$AAe?$AAu?$AA?9?$AAE?$AAS?$AA?$AA@ 1010e1ac     libucrtd:lcidtoname_downlevel.obj
 0002:000251bc       ??_C@_1M@IGHABKPI@?$AAm?$AAk?$AA?9?$AAM?$AAK?$AA?$AA@ 1010e1bc     libucrtd:lcidtoname_downlevel.obj
 0002:000251cc       ??_C@_1M@IAIGNEJG@?$AAt?$AAn?$AA?9?$AAZ?$AAA?$AA?$AA@ 1010e1cc     libucrtd:lcidtoname_downlevel.obj
 0002:000251dc       ??_C@_1M@IIJCOJFA@?$AAx?$AAh?$AA?9?$AAZ?$AAA?$AA?$AA@ 1010e1dc     libucrtd:lcidtoname_downlevel.obj
 0002:000251ec       ??_C@_1M@LGPJHNJH@?$AAz?$AAu?$AA?9?$AAZ?$AAA?$AA?$AA@ 1010e1ec     libucrtd:lcidtoname_downlevel.obj
 0002:000251fc       ??_C@_1M@HOKAOIO@?$AAa?$AAf?$AA?9?$AAZ?$AAA?$AA?$AA@ 1010e1fc     libucrtd:lcidtoname_downlevel.obj
 0002:0002520c       ??_C@_1M@DPCLHLIE@?$AAk?$AAa?$AA?9?$AAG?$AAE?$AA?$AA@ 1010e20c     libucrtd:lcidtoname_downlevel.obj
 0002:0002521c       ??_C@_1M@BLKMHJBI@?$AAf?$AAo?$AA?9?$AAF?$AAO?$AA?$AA@ 1010e21c     libucrtd:lcidtoname_downlevel.obj
 0002:0002522c       ??_C@_1M@LGGJAPPB@?$AAh?$AAi?$AA?9?$AAI?$AAN?$AA?$AA@ 1010e22c     libucrtd:lcidtoname_downlevel.obj
 0002:0002523c       ??_C@_1M@FIKPIHFE@?$AAm?$AAt?$AA?9?$AAM?$AAT?$AA?$AA@ 1010e23c     libucrtd:lcidtoname_downlevel.obj
 0002:0002524c       ??_C@_1M@HEGGPBFA@?$AAs?$AAe?$AA?9?$AAN?$AAO?$AA?$AA@ 1010e24c     libucrtd:lcidtoname_downlevel.obj
 0002:0002525c       ??_C@_1M@EIBJEEPA@?$AAm?$AAs?$AA?9?$AAM?$AAY?$AA?$AA@ 1010e25c     libucrtd:lcidtoname_downlevel.obj
 0002:0002526c       ??_C@_1M@FHLBGMPP@?$AAk?$AAk?$AA?9?$AAK?$AAZ?$AA?$AA@ 1010e26c     libucrtd:lcidtoname_downlevel.obj
 0002:0002527c       ??_C@_1M@NGJJLCGI@?$AAk?$AAy?$AA?9?$AAK?$AAG?$AA?$AA@ 1010e27c     libucrtd:lcidtoname_downlevel.obj
 0002:0002528c       ??_C@_1M@GIENNBFC@?$AAs?$AAw?$AA?9?$AAK?$AAE?$AA?$AA@ 1010e28c     libucrtd:lcidtoname_downlevel.obj
 0002:0002529c       ??_C@_1BG@NDGMJIMJ@?$AAu?$AAz?$AA?9?$AAU?$AAZ?$AA?9?$AAL?$AAa?$AAt?$AAn?$AA?$AA@ 1010e29c     libucrtd:lcidtoname_downlevel.obj
 0002:000252b8       ??_C@_1M@IDCCIHBC@?$AAt?$AAt?$AA?9?$AAR?$AAU?$AA?$AA@ 1010e2b8     libucrtd:lcidtoname_downlevel.obj
 0002:000252c8       ??_C@_1M@LOICPMOJ@?$AAb?$AAn?$AA?9?$AAI?$AAN?$AA?$AA@ 1010e2c8     libucrtd:lcidtoname_downlevel.obj
 0002:000252d8       ??_C@_1M@KPKKNEAH@?$AAp?$AAa?$AA?9?$AAI?$AAN?$AA?$AA@ 1010e2d8     libucrtd:lcidtoname_downlevel.obj
 0002:000252e8       ??_C@_1M@PJGPPBOG@?$AAg?$AAu?$AA?9?$AAI?$AAN?$AA?$AA@ 1010e2e8     libucrtd:lcidtoname_downlevel.obj
 0002:000252f8       ??_C@_1M@KMKMOPHI@?$AAt?$AAa?$AA?9?$AAI?$AAN?$AA?$AA@ 1010e2f8     libucrtd:lcidtoname_downlevel.obj
 0002:00025308       ??_C@_1M@KFEHEPAC@?$AAt?$AAe?$AA?9?$AAI?$AAN?$AA?$AA@ 1010e308     libucrtd:lcidtoname_downlevel.obj
 0002:00025318       ??_C@_1M@CDCLMGHI@?$AAk?$AAn?$AA?9?$AAI?$AAN?$AA?$AA@ 1010e318     libucrtd:lcidtoname_downlevel.obj
 0002:00025328       ??_C@_1M@MIODLDKF@?$AAm?$AAl?$AA?9?$AAI?$AAN?$AA?$AA@ 1010e328     libucrtd:lcidtoname_downlevel.obj
 0002:00025338       ??_C@_1M@PBIEACPO@?$AAm?$AAr?$AA?9?$AAI?$AAN?$AA?$AA@ 1010e338     libucrtd:lcidtoname_downlevel.obj
 0002:00025348       ??_C@_1M@NIDEAGPH@?$AAs?$AAa?$AA?9?$AAI?$AAN?$AA?$AA@ 1010e348     libucrtd:lcidtoname_downlevel.obj
 0002:00025358       ??_C@_1M@FHIHCBIO@?$AAm?$AAn?$AA?9?$AAM?$AAN?$AA?$AA@ 1010e358     libucrtd:lcidtoname_downlevel.obj
 0002:00025368       ??_C@_1M@JAIJPENP@?$AAc?$AAy?$AA?9?$AAG?$AAB?$AA?$AA@ 1010e368     libucrtd:lcidtoname_downlevel.obj
 0002:00025378       ??_C@_1M@PHGFBEPN@?$AAg?$AAl?$AA?9?$AAE?$AAS?$AA?$AA@ 1010e378     libucrtd:lcidtoname_downlevel.obj
 0002:00025388       ??_C@_1O@KPIPDNCP@?$AAk?$AAo?$AAk?$AA?9?$AAI?$AAN?$AA?$AA@ 1010e388     libucrtd:lcidtoname_downlevel.obj
 0002:00025398       ??_C@_1O@KNHJLDJA@?$AAs?$AAy?$AAr?$AA?9?$AAS?$AAY?$AA?$AA@ 1010e398     libucrtd:lcidtoname_downlevel.obj
 0002:000253a8       ??_C@_1O@MKEKBLAH@?$AAd?$AAi?$AAv?$AA?9?$AAM?$AAV?$AA?$AA@ 1010e3a8     libucrtd:lcidtoname_downlevel.obj
 0002:000253b8       ??_C@_1O@OHDCKDDF@?$AAq?$AAu?$AAz?$AA?9?$AAB?$AAO?$AA?$AA@ 1010e3b8     libucrtd:lcidtoname_downlevel.obj
 0002:000253c8       ??_C@_1M@LEPJNLFD@?$AAn?$AAs?$AA?9?$AAZ?$AAA?$AA?$AA@ 1010e3c8     libucrtd:lcidtoname_downlevel.obj
 0002:000253d8       ??_C@_1M@OMLEIIJB@?$AAm?$AAi?$AA?9?$AAN?$AAZ?$AA?$AA@ 1010e3d8     libucrtd:lcidtoname_downlevel.obj
 0002:000253e8       ??_C@_1M@PMPEAILG@?$AAa?$AAr?$AA?9?$AAI?$AAQ?$AA?$AA@ 1010e3e8     libucrtd:lcidtoname_downlevel.obj
 0002:000253f8       ??_C@_1M@CNKPNOEE@?$AAd?$AAe?$AA?9?$AAC?$AAH?$AA?$AA@ 1010e3f8     libucrtd:lcidtoname_downlevel.obj
 0002:00025408       ??_C@_1M@LKMGMLKO@?$AAe?$AAn?$AA?9?$AAG?$AAB?$AA?$AA@ 1010e408     libucrtd:lcidtoname_downlevel.obj
 0002:00025418       ??_C@_1M@PGKJFFGL@?$AAe?$AAs?$AA?9?$AAM?$AAX?$AA?$AA@ 1010e418     libucrtd:lcidtoname_downlevel.obj
 0002:00025428       ??_C@_1M@DNNANBDC@?$AAf?$AAr?$AA?9?$AAB?$AAE?$AA?$AA@ 1010e428     libucrtd:lcidtoname_downlevel.obj
 0002:00025438       ??_C@_1M@HLGMDFHM@?$AAi?$AAt?$AA?9?$AAC?$AAH?$AA?$AA@ 1010e438     libucrtd:lcidtoname_downlevel.obj
 0002:00025448       ??_C@_1M@CLLBGJH@?$AAn?$AAl?$AA?9?$AAB?$AAE?$AA?$AA@ 1010e448     libucrtd:lcidtoname_downlevel.obj
 0002:00025458       ??_C@_1M@BODBOGLF@?$AAn?$AAn?$AA?9?$AAN?$AAO?$AA?$AA@ 1010e458     libucrtd:lcidtoname_downlevel.obj
 0002:00025468       ??_C@_1M@HFFAHKAD@?$AAp?$AAt?$AA?9?$AAP?$AAT?$AA?$AA@ 1010e468     libucrtd:lcidtoname_downlevel.obj
 0002:00025478       ??_C@_1BG@LNOAKHIE@?$AAs?$AAr?$AA?9?$AAS?$AAP?$AA?9?$AAL?$AAa?$AAt?$AAn?$AA?$AA@ 1010e478     libucrtd:lcidtoname_downlevel.obj
 0002:00025494       ??_C@_1M@HBMHBGAK@?$AAs?$AAv?$AA?9?$AAF?$AAI?$AA?$AA@ 1010e494     libucrtd:lcidtoname_downlevel.obj
 0002:000254a4       ??_C@_1BG@DGCJGJBE@?$AAa?$AAz?$AA?9?$AAA?$AAZ?$AA?9?$AAC?$AAy?$AAr?$AAl?$AA?$AA@ 1010e4a4     libucrtd:lcidtoname_downlevel.obj
 0002:000254c0       ??_C@_1M@KEJDAAHB@?$AAs?$AAe?$AA?9?$AAS?$AAE?$AA?$AA@ 1010e4c0     libucrtd:lcidtoname_downlevel.obj
 0002:000254d0       ??_C@_1M@HEIBJJAD@?$AAm?$AAs?$AA?9?$AAB?$AAN?$AA?$AA@ 1010e4d0     libucrtd:lcidtoname_downlevel.obj
 0002:000254e0       ??_C@_1BG@PBGJMCEM@?$AAu?$AAz?$AA?9?$AAU?$AAZ?$AA?9?$AAC?$AAy?$AAr?$AAl?$AA?$AA@ 1010e4e0     libucrtd:lcidtoname_downlevel.obj
 0002:000254fc       ??_C@_1O@LAOBCMDF@?$AAq?$AAu?$AAz?$AA?9?$AAE?$AAC?$AA?$AA@ 1010e4fc     libucrtd:lcidtoname_downlevel.obj
 0002:0002550c       ??_C@_1M@POEEMAIO@?$AAa?$AAr?$AA?9?$AAE?$AAG?$AA?$AA@ 1010e50c     libucrtd:lcidtoname_downlevel.obj
 0002:0002551c       ??_C@_1M@EFAKDEDL@?$AAz?$AAh?$AA?9?$AAH?$AAK?$AA?$AA@ 1010e51c     libucrtd:lcidtoname_downlevel.obj
 0002:0002552c       ??_C@_1M@HKKIJHGI@?$AAd?$AAe?$AA?9?$AAA?$AAT?$AA?$AA@ 1010e52c     libucrtd:lcidtoname_downlevel.obj
 0002:0002553c       ??_C@_1M@KBFBEHJF@?$AAe?$AAn?$AA?9?$AAA?$AAU?$AA?$AA@ 1010e53c     libucrtd:lcidtoname_downlevel.obj
 0002:0002554c       ??_C@_1M@MNPLFAAH@?$AAe?$AAs?$AA?9?$AAE?$AAS?$AA?$AA@ 1010e54c     libucrtd:lcidtoname_downlevel.obj
 0002:0002555c       ??_C@_1M@HJOOJFMA@?$AAf?$AAr?$AA?9?$AAC?$AAA?$AA?$AA@ 1010e55c     libucrtd:lcidtoname_downlevel.obj
 0002:0002556c       ??_C@_1BG@JPOFPNAB@?$AAs?$AAr?$AA?9?$AAS?$AAP?$AA?9?$AAC?$AAy?$AAr?$AAl?$AA?$AA@ 1010e56c     libucrtd:lcidtoname_downlevel.obj
 0002:00025588       ??_C@_1M@LNFOCMOB@?$AAs?$AAe?$AA?9?$AAF?$AAI?$AA?$AA@ 1010e588     libucrtd:lcidtoname_downlevel.obj
 0002:00025598       ??_C@_1O@MGJBOAMB@?$AAq?$AAu?$AAz?$AA?9?$AAP?$AAE?$AA?$AA@ 1010e598     libucrtd:lcidtoname_downlevel.obj
 0002:000255a8       ??_C@_1M@GJINLBOK@?$AAa?$AAr?$AA?9?$AAL?$AAY?$AA?$AA@ 1010e5a8     libucrtd:lcidtoname_downlevel.obj
 0002:000255b8       ??_C@_1M@GGMNHJNL@?$AAz?$AAh?$AA?9?$AAS?$AAG?$AA?$AA@ 1010e5b8     libucrtd:lcidtoname_downlevel.obj
 0002:000255c8       ??_C@_1M@HOIKODND@?$AAd?$AAe?$AA?9?$AAL?$AAU?$AA?$AA@ 1010e5c8     libucrtd:lcidtoname_downlevel.obj
 0002:000255d8       ??_C@_1M@DDOCCGFG@?$AAe?$AAn?$AA?9?$AAC?$AAA?$AA?$AA@ 1010e5d8     libucrtd:lcidtoname_downlevel.obj
 0002:000255e8       ??_C@_1M@BNOEMJLF@?$AAe?$AAs?$AA?9?$AAG?$AAT?$AA?$AA@ 1010e5e8     libucrtd:lcidtoname_downlevel.obj
 0002:000255f8       ??_C@_1M@EOGNKEK@?$AAf?$AAr?$AA?9?$AAC?$AAH?$AA?$AA@ 1010e5f8     libucrtd:lcidtoname_downlevel.obj
 0002:00025608       ??_C@_1M@FLIDJFHL@?$AAh?$AAr?$AA?9?$AAB?$AAA?$AA?$AA@ 1010e608     libucrtd:lcidtoname_downlevel.obj
 0002:00025618       ??_C@_1O@FMCELNAJ@?$AAs?$AAm?$AAj?$AA?9?$AAN?$AAO?$AA?$AA@ 1010e618     libucrtd:lcidtoname_downlevel.obj
 0002:00025628       ??_C@_1M@JHGLJMGJ@?$AAa?$AAr?$AA?9?$AAD?$AAZ?$AA?$AA@ 1010e628     libucrtd:lcidtoname_downlevel.obj
 0002:00025638       ??_C@_1M@JKKFDCNP@?$AAz?$AAh?$AA?9?$AAM?$AAO?$AA?$AA@ 1010e638     libucrtd:lcidtoname_downlevel.obj
 0002:00025648       ??_C@_1M@GEEFALPE@?$AAd?$AAe?$AA?9?$AAL?$AAI?$AA?$AA@ 1010e648     libucrtd:lcidtoname_downlevel.obj
 0002:00025658       ??_C@_1M@IGEOFBG@?$AAe?$AAn?$AA?9?$AAN?$AAZ?$AA?$AA@ 1010e658     libucrtd:lcidtoname_downlevel.obj
 0002:00025668       ??_C@_1M@KDBONEHP@?$AAe?$AAs?$AA?9?$AAC?$AAR?$AA?$AA@ 1010e668     libucrtd:lcidtoname_downlevel.obj
 0002:00025678       ??_C@_1M@FHMDOHNN@?$AAf?$AAr?$AA?9?$AAL?$AAU?$AA?$AA@ 1010e678     libucrtd:lcidtoname_downlevel.obj
 0002:00025688       ??_C@_1BG@NFKKMAFG@?$AAb?$AAs?$AA?9?$AAB?$AAA?$AA?9?$AAL?$AAa?$AAt?$AAn?$AA?$AA@ 1010e688     libucrtd:lcidtoname_downlevel.obj
 0002:000256a4       ??_C@_1O@IMNBEMCI@?$AAs?$AAm?$AAj?$AA?9?$AAS?$AAE?$AA?$AA@ 1010e6a4     libucrtd:lcidtoname_downlevel.obj
 0002:000256b4       ??_C@_1M@DHHMBNDP@?$AAa?$AAr?$AA?9?$AAM?$AAA?$AA?$AA@ 1010e6b4     libucrtd:lcidtoname_downlevel.obj
 0002:000256c4       ??_C@_1M@BNBLJCGH@?$AAe?$AAn?$AA?9?$AAI?$AAE?$AA?$AA@ 1010e6c4     libucrtd:lcidtoname_downlevel.obj
 0002:000256d4       ??_C@_1M@GEPAFMDL@?$AAe?$AAs?$AA?9?$AAP?$AAA?$AA?$AA@ 1010e6d4     libucrtd:lcidtoname_downlevel.obj
 0002:000256e4       ??_C@_1M@OJONDMDL@?$AAf?$AAr?$AA?9?$AAM?$AAC?$AA?$AA@ 1010e6e4     libucrtd:lcidtoname_downlevel.obj
 0002:000256f4       ??_C@_1BG@OBCNFJB@?$AAs?$AAr?$AA?9?$AAB?$AAA?$AA?9?$AAL?$AAa?$AAt?$AAn?$AA?$AA@ 1010e6f4     libucrtd:lcidtoname_downlevel.obj
 0002:00025710       ??_C@_1O@KEMEEGPO@?$AAs?$AAm?$AAa?$AA?9?$AAN?$AAO?$AA?$AA@ 1010e710     libucrtd:lcidtoname_downlevel.obj
 0002:00025720       ??_C@_1M@ELMGFODK@?$AAa?$AAr?$AA?9?$AAT?$AAN?$AA?$AA@ 1010e720     libucrtd:lcidtoname_downlevel.obj
 0002:00025730       ??_C@_1M@BHDLHFAF@?$AAe?$AAn?$AA?9?$AAZ?$AAA?$AA?$AA@ 1010e730     libucrtd:lcidtoname_downlevel.obj
 0002:00025740       ??_C@_1M@BMGIGLIF@?$AAe?$AAs?$AA?9?$AAD?$AAO?$AA?$AA@ 1010e740     libucrtd:lcidtoname_downlevel.obj
 0002:00025750       ??_C@_1BG@CMBHIPBE@?$AAs?$AAr?$AA?9?$AAB?$AAA?$AA?9?$AAC?$AAy?$AAr?$AAl?$AA?$AA@ 1010e750     libucrtd:lcidtoname_downlevel.obj
 0002:0002576c       ??_C@_1O@HEDBLHNP@?$AAs?$AAm?$AAa?$AA?9?$AAS?$AAE?$AA?$AA@ 1010e76c     libucrtd:lcidtoname_downlevel.obj
 0002:0002577c       ??_C@_1M@DAGCADIM@?$AAa?$AAr?$AA?9?$AAO?$AAM?$AA?$AA@ 1010e77c     libucrtd:lcidtoname_downlevel.obj
 0002:0002578c       ??_C@_1M@FODLMICG@?$AAe?$AAn?$AA?9?$AAJ?$AAM?$AA?$AA@ 1010e78c     libucrtd:lcidtoname_downlevel.obj
 0002:0002579c       ??_C@_1M@DNMLCIHB@?$AAe?$AAs?$AA?9?$AAV?$AAE?$AA?$AA@ 1010e79c     libucrtd:lcidtoname_downlevel.obj
 0002:000257ac       ??_C@_1O@EOKHMKJK@?$AAs?$AAm?$AAs?$AA?9?$AAF?$AAI?$AA?$AA@ 1010e7ac     libucrtd:lcidtoname_downlevel.obj
 0002:000257bc       ??_C@_1M@CAFJMKOF@?$AAa?$AAr?$AA?9?$AAY?$AAE?$AA?$AA@ 1010e7bc     libucrtd:lcidtoname_downlevel.obj
 0002:000257cc       ??_C@_1M@CBFHIJLI@?$AAe?$AAn?$AA?9?$AAC?$AAB?$AA?$AA@ 1010e7cc     libucrtd:lcidtoname_downlevel.obj
 0002:000257dc       ??_C@_1M@BGNFLDN@?$AAe?$AAs?$AA?9?$AAC?$AAO?$AA?$AA@ 1010e7dc     libucrtd:lcidtoname_downlevel.obj
 0002:000257ec       ??_C@_1O@JMPHMAMC@?$AAs?$AAm?$AAn?$AA?9?$AAF?$AAI?$AA?$AA@ 1010e7ec     libucrtd:lcidtoname_downlevel.obj
 0002:000257fc       ??_C@_1M@JLANABKE@?$AAa?$AAr?$AA?9?$AAS?$AAY?$AA?$AA@ 1010e7fc     libucrtd:lcidtoname_downlevel.obj
 0002:0002580c       ??_C@_1M@HPKGCFGN@?$AAe?$AAn?$AA?9?$AAB?$AAZ?$AA?$AA@ 1010e80c     libucrtd:lcidtoname_downlevel.obj
 0002:0002581c       ??_C@_1M@OLJCMLGM@?$AAe?$AAs?$AA?9?$AAP?$AAE?$AA?$AA@ 1010e81c     libucrtd:lcidtoname_downlevel.obj
 0002:0002582c       ??_C@_1M@MKKGFKLE@?$AAa?$AAr?$AA?9?$AAJ?$AAO?$AA?$AA@ 1010e82c     libucrtd:lcidtoname_downlevel.obj
 0002:0002583c       ??_C@_1M@EKPGLDNI@?$AAe?$AAn?$AA?9?$AAT?$AAT?$AA?$AA@ 1010e83c     libucrtd:lcidtoname_downlevel.obj
 0002:0002584c       ??_C@_1M@OONGHFHE@?$AAe?$AAs?$AA?9?$AAA?$AAR?$AA?$AA@ 1010e84c     libucrtd:lcidtoname_downlevel.obj
 0002:0002585c       ??_C@_1M@OOJFGBHE@?$AAa?$AAr?$AA?9?$AAL?$AAB?$AA?$AA@ 1010e85c     libucrtd:lcidtoname_downlevel.obj
 0002:0002586c       ??_C@_1M@GCEJHNEG@?$AAe?$AAn?$AA?9?$AAZ?$AAW?$AA?$AA@ 1010e86c     libucrtd:lcidtoname_downlevel.obj
 0002:0002587c       ??_C@_1M@JNOCAHJI@?$AAe?$AAs?$AA?9?$AAE?$AAC?$AA?$AA@ 1010e87c     libucrtd:lcidtoname_downlevel.obj
 0002:0002588c       ??_C@_1M@JEFHPGGB@?$AAa?$AAr?$AA?9?$AAK?$AAW?$AA?$AA@ 1010e88c     libucrtd:lcidtoname_downlevel.obj
 0002:0002589c       ??_C@_1M@MLKIBJOJ@?$AAe?$AAn?$AA?9?$AAP?$AAH?$AA?$AA@ 1010e89c     libucrtd:lcidtoname_downlevel.obj
 0002:000258ac       ??_C@_1M@BDNIPEND@?$AAe?$AAs?$AA?9?$AAC?$AAL?$AA?$AA@ 1010e8ac     libucrtd:lcidtoname_downlevel.obj
 0002:000258bc       ??_C@_1M@MPNMEKBD@?$AAa?$AAr?$AA?9?$AAA?$AAE?$AA?$AA@ 1010e8bc     libucrtd:lcidtoname_downlevel.obj
 0002:000258cc       ??_C@_1M@KBJALCPI@?$AAe?$AAs?$AA?9?$AAU?$AAY?$AA?$AA@ 1010e8cc     libucrtd:lcidtoname_downlevel.obj
 0002:000258dc       ??_C@_1M@LLCCOAGA@?$AAa?$AAr?$AA?9?$AAB?$AAH?$AA?$AA@ 1010e8dc     libucrtd:lcidtoname_downlevel.obj
 0002:000258ec       ??_C@_1M@PBFNCDEL@?$AAe?$AAs?$AA?9?$AAP?$AAY?$AA?$AA@ 1010e8ec     libucrtd:lcidtoname_downlevel.obj
 0002:000258fc       ??_C@_1M@EDGINPNP@?$AAa?$AAr?$AA?9?$AAQ?$AAA?$AA?$AA@ 1010e8fc     libucrtd:lcidtoname_downlevel.obj
 0002:0002590c       ??_C@_1M@MKDBIIJI@?$AAe?$AAs?$AA?9?$AAB?$AAO?$AA?$AA@ 1010e90c     libucrtd:lcidtoname_downlevel.obj
 0002:0002591c       ??_C@_1M@CPKKEBLD@?$AAe?$AAs?$AA?9?$AAS?$AAV?$AA?$AA@ 1010e91c     libucrtd:lcidtoname_downlevel.obj
 0002:0002592c       ??_C@_1M@NDBGMMJL@?$AAe?$AAs?$AA?9?$AAH?$AAN?$AA?$AA@ 1010e92c     libucrtd:lcidtoname_downlevel.obj
 0002:0002593c       ??_C@_1M@JIJIBHDP@?$AAe?$AAs?$AA?9?$AAN?$AAI?$AA?$AA@ 1010e93c     libucrtd:lcidtoname_downlevel.obj
 0002:0002594c       ??_C@_1M@CGFMKEEK@?$AAe?$AAs?$AA?9?$AAP?$AAR?$AA?$AA@ 1010e94c     libucrtd:lcidtoname_downlevel.obj
 0002:0002595c       ??_C@_1O@ICJHKIIK@?$AAz?$AAh?$AA?9?$AAC?$AAH?$AAT?$AA?$AA@ 1010e95c     libucrtd:lcidtoname_downlevel.obj
 0002:0002596c       ??_C@_15CLNEJCE@?$AAs?$AAr?$AA?$AA@ 1010e96c     libucrtd:lcidtoname_downlevel.obj
 0002:00026204       ??_C@_1M@KAHEKEIG@?$AAa?$AAf?$AA?9?$AAz?$AAa?$AA?$AA@ 1010f204     libucrtd:lcidtoname_downlevel.obj
 0002:00026214       ??_C@_1M@GIECOABL@?$AAa?$AAr?$AA?9?$AAa?$AAe?$AA?$AA@ 1010f214     libucrtd:lcidtoname_downlevel.obj
 0002:00026224       ??_C@_1M@BMLMEKGI@?$AAa?$AAr?$AA?9?$AAb?$AAh?$AA?$AA@ 1010f224     libucrtd:lcidtoname_downlevel.obj
 0002:00026234       ??_C@_1M@DAPFDGGB@?$AAa?$AAr?$AA?9?$AAd?$AAz?$AA?$AA@ 1010f234     libucrtd:lcidtoname_downlevel.obj
 0002:00026244       ??_C@_1M@FJNKGKIG@?$AAa?$AAr?$AA?9?$AAe?$AAg?$AA?$AA@ 1010f244     libucrtd:lcidtoname_downlevel.obj
 0002:00026254       ??_C@_1M@FLGKKCLO@?$AAa?$AAr?$AA?9?$AAi?$AAq?$AA?$AA@ 1010f254     libucrtd:lcidtoname_downlevel.obj
 0002:00026264       ??_C@_1M@GNDIPALM@?$AAa?$AAr?$AA?9?$AAj?$AAo?$AA?$AA@ 1010f264     libucrtd:lcidtoname_downlevel.obj
 0002:00026274       ??_C@_1M@DDMJFMGJ@?$AAa?$AAr?$AA?9?$AAk?$AAw?$AA?$AA@ 1010f274     libucrtd:lcidtoname_downlevel.obj
 0002:00026284       ??_C@_1M@EJALMLHM@?$AAa?$AAr?$AA?9?$AAl?$AAb?$AA?$AA@ 1010f284     libucrtd:lcidtoname_downlevel.obj
 0002:00026294       ??_C@_1M@MOBDBLOC@?$AAa?$AAr?$AA?9?$AAl?$AAy?$AA?$AA@ 1010f294     libucrtd:lcidtoname_downlevel.obj
 0002:000262a4       ??_C@_1M@JAOCLHDH@?$AAa?$AAr?$AA?9?$AAm?$AAa?$AA?$AA@ 1010f2a4     libucrtd:lcidtoname_downlevel.obj
 0002:000262b4       ??_C@_1M@JHPMKJIE@?$AAa?$AAr?$AA?9?$AAo?$AAm?$AA?$AA@ 1010f2b4     libucrtd:lcidtoname_downlevel.obj
 0002:000262c4       ??_C@_1M@OEPGHFNH@?$AAa?$AAr?$AA?9?$AAq?$AAa?$AA?$AA@ 1010f2c4     libucrtd:lcidtoname_downlevel.obj
 0002:000262d4       ??_C@_1M@KJDONENM@?$AAa?$AAr?$AA?9?$AAs?$AAa?$AA?$AA@ 1010f2d4     libucrtd:lcidtoname_downlevel.obj
 0002:000262e4       ??_C@_1M@DMJDKLKM@?$AAa?$AAr?$AA?9?$AAs?$AAy?$AA?$AA@ 1010f2e4     libucrtd:lcidtoname_downlevel.obj
 0002:000262f4       ??_C@_1M@OMFIPEDC@?$AAa?$AAr?$AA?9?$AAt?$AAn?$AA?$AA@ 1010f2f4     libucrtd:lcidtoname_downlevel.obj
 0002:00026304       ??_C@_1M@IHMHGAON@?$AAa?$AAr?$AA?9?$AAy?$AAe?$AA?$AA@ 1010f304     libucrtd:lcidtoname_downlevel.obj
 0002:00026314       ??_C@_1BG@KDCPGJGB@?$AAa?$AAz?$AA?9?$AAa?$AAz?$AA?9?$AAc?$AAy?$AAr?$AAl?$AA?$AA@ 1010f314     libucrtd:lcidtoname_downlevel.obj
 0002:00026330       ??_C@_1BG@IBCKDDOE@?$AAa?$AAz?$AA?9?$AAa?$AAz?$AA?9?$AAl?$AAa?$AAt?$AAn?$AA?$AA@ 1010f330     libucrtd:lcidtoname_downlevel.obj
 0002:0002634c       ??_C@_1M@EGPFDCPD@?$AAb?$AAe?$AA?9?$AAb?$AAy?$AA?$AA@ 1010f34c     libucrtd:lcidtoname_downlevel.obj
 0002:0002635c       ??_C@_1M@PCMGMCGC@?$AAb?$AAg?$AA?9?$AAb?$AAg?$AA?$AA@ 1010f35c     libucrtd:lcidtoname_downlevel.obj
 0002:0002636c       ??_C@_1M@BJBMFGOB@?$AAb?$AAn?$AA?9?$AAi?$AAn?$AA?$AA@ 1010f36c     libucrtd:lcidtoname_downlevel.obj
 0002:0002637c       ??_C@_1BG@EAKMMACD@?$AAb?$AAs?$AA?9?$AAb?$AAa?$AA?9?$AAl?$AAa?$AAt?$AAn?$AA?$AA@ 1010f37c     libucrtd:lcidtoname_downlevel.obj
 0002:00026398       ??_C@_1M@KGADAODK@?$AAc?$AAa?$AA?9?$AAe?$AAs?$AA?$AA@ 1010f398     libucrtd:lcidtoname_downlevel.obj
 0002:000263a8       ??_C@_1M@COAJPDHI@?$AAc?$AAs?$AA?9?$AAc?$AAz?$AA?$AA@ 1010f3a8     libucrtd:lcidtoname_downlevel.obj
 0002:000263b8       ??_C@_1M@DHBHFONH@?$AAc?$AAy?$AA?9?$AAg?$AAb?$AA?$AA@ 1010f3b8     libucrtd:lcidtoname_downlevel.obj
 0002:000263c8       ??_C@_1M@IMGKELGA@?$AAd?$AAa?$AA?9?$AAd?$AAk?$AA?$AA@ 1010f3c8     libucrtd:lcidtoname_downlevel.obj
 0002:000263d8       ??_C@_1M@NNDGDNGA@?$AAd?$AAe?$AA?9?$AAa?$AAt?$AA?$AA@ 1010f3d8     libucrtd:lcidtoname_downlevel.obj
 0002:000263e8       ??_C@_1M@IKDBHEEM@?$AAd?$AAe?$AA?9?$AAc?$AAh?$AA?$AA@ 1010f3e8     libucrtd:lcidtoname_downlevel.obj
 0002:000263f8       ??_C@_1M@GFFOJMCJ@?$AAd?$AAe?$AA?9?$AAd?$AAe?$AA?$AA@ 1010f3f8     libucrtd:lcidtoname_downlevel.obj
 0002:00026408       ??_C@_1M@MDNLKBPM@?$AAd?$AAe?$AA?9?$AAl?$AAi?$AA?$AA@ 1010f408     libucrtd:lcidtoname_downlevel.obj
 0002:00026418       ??_C@_1M@NJBEEJNL@?$AAd?$AAe?$AA?9?$AAl?$AAu?$AA?$AA@ 1010f418     libucrtd:lcidtoname_downlevel.obj
 0002:00026428       ??_C@_1O@GNNELBAP@?$AAd?$AAi?$AAv?$AA?9?$AAm?$AAv?$AA?$AA@ 1010f428     libucrtd:lcidtoname_downlevel.obj
 0002:00026438       ??_C@_1M@EJLEOGAE@?$AAe?$AAl?$AA?9?$AAg?$AAr?$AA?$AA@ 1010f438     libucrtd:lcidtoname_downlevel.obj
 0002:00026448       ??_C@_1M@GMPONJN@?$AAe?$AAn?$AA?9?$AAa?$AAu?$AA?$AA@ 1010f448     libucrtd:lcidtoname_downlevel.obj
 0002:00026458       ??_C@_1M@NIDIIPGF@?$AAe?$AAn?$AA?9?$AAb?$AAz?$AA?$AA@ 1010f458     libucrtd:lcidtoname_downlevel.obj
 0002:00026468       ??_C@_1M@JEHMIMFO@?$AAe?$AAn?$AA?9?$AAc?$AAa?$AA?$AA@ 1010f468     libucrtd:lcidtoname_downlevel.obj
 0002:00026478       ??_C@_1M@IGMJCDLA@?$AAe?$AAn?$AA?9?$AAc?$AAb?$AA?$AA@ 1010f478     libucrtd:lcidtoname_downlevel.obj
 0002:00026488       ??_C@_1M@BNFIGBKG@?$AAe?$AAn?$AA?9?$AAg?$AAb?$AA?$AA@ 1010f488     libucrtd:lcidtoname_downlevel.obj
 0002:00026498       ??_C@_1M@LKIFDIGP@?$AAe?$AAn?$AA?9?$AAi?$AAe?$AA?$AA@ 1010f498     libucrtd:lcidtoname_downlevel.obj
 0002:000264a8       ??_C@_1M@PJKFGCCO@?$AAe?$AAn?$AA?9?$AAj?$AAm?$AA?$AA@ 1010f4a8     libucrtd:lcidtoname_downlevel.obj
 0002:000264b8       ??_C@_1M@KPPKEPBO@?$AAe?$AAn?$AA?9?$AAn?$AAz?$AA?$AA@ 1010f4b8     libucrtd:lcidtoname_downlevel.obj
 0002:000264c8       ??_C@_1M@GMDGLDOB@?$AAe?$AAn?$AA?9?$AAp?$AAh?$AA?$AA@ 1010f4c8     libucrtd:lcidtoname_downlevel.obj
 0002:000264d8       ??_C@_1M@ONGIBJNA@?$AAe?$AAn?$AA?9?$AAt?$AAt?$AA?$AA@ 1010f4d8     libucrtd:lcidtoname_downlevel.obj
 0002:000264e8       ??_C@_1M@LLODPCMM@?$AAe?$AAn?$AA?9?$AAu?$AAs?$AA?$AA@ 1010f4e8     libucrtd:lcidtoname_downlevel.obj
 0002:000264f8       ??_C@_1M@LAKFNPAN@?$AAe?$AAn?$AA?9?$AAz?$AAa?$AA?$AA@ 1010f4f8     libucrtd:lcidtoname_downlevel.obj
 0002:00026508       ??_C@_1M@MFNHNHEO@?$AAe?$AAn?$AA?9?$AAz?$AAw?$AA?$AA@ 1010f508     libucrtd:lcidtoname_downlevel.obj
 0002:00026518       ??_C@_1M@EJEINPHM@?$AAe?$AAs?$AA?9?$AAa?$AAr?$AA?$AA@ 1010f518     libucrtd:lcidtoname_downlevel.obj
 0002:00026528       ??_C@_1M@GNKPCCJA@?$AAe?$AAs?$AA?9?$AAb?$AAo?$AA?$AA@ 1010f528     libucrtd:lcidtoname_downlevel.obj
 0002:00026538       ??_C@_1M@LEEGFONL@?$AAe?$AAs?$AA?9?$AAc?$AAl?$AA?$AA@ 1010f538     libucrtd:lcidtoname_downlevel.obj
 0002:00026548       ??_C@_1M@KGPDPBDF@?$AAe?$AAs?$AA?9?$AAc?$AAo?$AA?$AA@ 1010f548     libucrtd:lcidtoname_downlevel.obj
 0002:00026558       ??_C@_1M@EIAHOHH@?$AAe?$AAs?$AA?9?$AAc?$AAr?$AA?$AA@ 1010f558     libucrtd:lcidtoname_downlevel.obj
 0002:00026568       ??_C@_1M@LLPGMBIN@?$AAe?$AAs?$AA?9?$AAd?$AAo?$AA?$AA@ 1010f568     libucrtd:lcidtoname_downlevel.obj
 0002:00026578       ??_C@_1M@DKHMKNJA@?$AAe?$AAs?$AA?9?$AAe?$AAc?$AA?$AA@ 1010f578     libucrtd:lcidtoname_downlevel.obj
 0002:00026588       ??_C@_1M@GKGFPKAP@?$AAe?$AAs?$AA?9?$AAe?$AAs?$AA?$AA@ 1010f588     libucrtd:lcidtoname_downlevel.obj
 0002:00026598       ??_C@_1M@LKHKGDLN@?$AAe?$AAs?$AA?9?$AAg?$AAt?$AA?$AA@ 1010f598     libucrtd:lcidtoname_downlevel.obj
 0002:000265a8       ??_C@_1M@HEIIGGJD@?$AAe?$AAs?$AA?9?$AAh?$AAn?$AA?$AA@ 1010f5a8     libucrtd:lcidtoname_downlevel.obj
 0002:000265b8       ??_C@_1M@FBDHPPGD@?$AAe?$AAs?$AA?9?$AAm?$AAx?$AA?$AA@ 1010f5b8     libucrtd:lcidtoname_downlevel.obj
 0002:000265c8       ??_C@_1M@DPAGLNDH@?$AAe?$AAs?$AA?9?$AAn?$AAi?$AA?$AA@ 1010f5c8     libucrtd:lcidtoname_downlevel.obj
 0002:000265d8       ??_C@_1M@MDGOPGDD@?$AAe?$AAs?$AA?9?$AAp?$AAa?$AA?$AA@ 1010f5d8     libucrtd:lcidtoname_downlevel.obj
 0002:000265e8       ??_C@_1M@EMAMGBGE@?$AAe?$AAs?$AA?9?$AAp?$AAe?$AA?$AA@ 1010f5e8     libucrtd:lcidtoname_downlevel.obj
 0002:000265f8       ??_C@_1M@IBMCAOEC@?$AAe?$AAs?$AA?9?$AAp?$AAr?$AA?$AA@ 1010f5f8     libucrtd:lcidtoname_downlevel.obj
 0002:00026608       ??_C@_1M@FGMDIJED@?$AAe?$AAs?$AA?9?$AAp?$AAy?$AA?$AA@ 1010f608     libucrtd:lcidtoname_downlevel.obj
 0002:00026618       ??_C@_1M@IIDEOLLL@?$AAe?$AAs?$AA?9?$AAs?$AAv?$AA?$AA@ 1010f618     libucrtd:lcidtoname_downlevel.obj
 0002:00026628       ??_C@_1M@GAOBIPA@?$AAe?$AAs?$AA?9?$AAu?$AAy?$AA?$AA@ 1010f628     libucrtd:lcidtoname_downlevel.obj
 0002:00026638       ??_C@_1M@JKFFICHJ@?$AAe?$AAs?$AA?9?$AAv?$AAe?$AA?$AA@ 1010f638     libucrtd:lcidtoname_downlevel.obj
 0002:00026648       ??_C@_1M@PNMLOJDF@?$AAe?$AAt?$AA?9?$AAe?$AAe?$AA?$AA@ 1010f648     libucrtd:lcidtoname_downlevel.obj
 0002:00026658       ??_C@_1M@GHHLIKEI@?$AAe?$AAu?$AA?9?$AAe?$AAs?$AA?$AA@ 1010f658     libucrtd:lcidtoname_downlevel.obj
 0002:00026668       ??_C@_1M@PBNONODE@?$AAf?$AAa?$AA?9?$AAi?$AAr?$AA?$AA@ 1010f668     libucrtd:lcidtoname_downlevel.obj
 0002:00026678       ??_C@_1M@JEEHPMIL@?$AAf?$AAi?$AA?9?$AAf?$AAi?$AA?$AA@ 1010f678     libucrtd:lcidtoname_downlevel.obj
 0002:00026688       ??_C@_1M@LMDCNDBA@?$AAf?$AAo?$AA?9?$AAf?$AAo?$AA?$AA@ 1010f688     libucrtd:lcidtoname_downlevel.obj
 0002:00026698       ??_C@_1M@JKEOHLDK@?$AAf?$AAr?$AA?9?$AAb?$AAe?$AA?$AA@ 1010f698     libucrtd:lcidtoname_downlevel.obj
 0002:000266a8       ??_C@_1M@NOHADPMI@?$AAf?$AAr?$AA?9?$AAc?$AAa?$AA?$AA@ 1010f6a8     libucrtd:lcidtoname_downlevel.obj
 0002:000266b8       ??_C@_1M@KDHIHAEC@?$AAf?$AAr?$AA?9?$AAc?$AAh?$AA?$AA@ 1010f6b8     libucrtd:lcidtoname_downlevel.obj
 0002:000266c8       ??_C@_1M@MMBBFGAK@?$AAf?$AAr?$AA?9?$AAf?$AAr?$AA?$AA@ 1010f6c8     libucrtd:lcidtoname_downlevel.obj
 0002:000266d8       ??_C@_1M@PAFNENNF@?$AAf?$AAr?$AA?9?$AAl?$AAu?$AA?$AA@ 1010f6d8     libucrtd:lcidtoname_downlevel.obj
 0002:000266e8       ??_C@_1M@EOHDJGDD@?$AAf?$AAr?$AA?9?$AAm?$AAc?$AA?$AA@ 1010f6e8     libucrtd:lcidtoname_downlevel.obj
 0002:000266f8       ??_C@_1M@FAPLLOPF@?$AAg?$AAl?$AA?9?$AAe?$AAs?$AA?$AA@ 1010f6f8     libucrtd:lcidtoname_downlevel.obj
 0002:00026708       ??_C@_1M@FOPBFLOO@?$AAg?$AAu?$AA?9?$AAi?$AAn?$AA?$AA@ 1010f708     libucrtd:lcidtoname_downlevel.obj
 0002:00026718       ??_C@_1M@KBMCINPM@?$AAh?$AAe?$AA?9?$AAi?$AAl?$AA?$AA@ 1010f718     libucrtd:lcidtoname_downlevel.obj
 0002:00026728       ??_C@_1M@BBPHKFPJ@?$AAh?$AAi?$AA?9?$AAi?$AAn?$AA?$AA@ 1010f728     libucrtd:lcidtoname_downlevel.obj
 0002:00026738       ??_C@_1M@PMBNDPHD@?$AAh?$AAr?$AA?9?$AAb?$AAa?$AA?$AA@ 1010f738     libucrtd:lcidtoname_downlevel.obj
 0002:00026748       ??_C@_1M@BPCKOEGE@?$AAh?$AAr?$AA?9?$AAh?$AAr?$AA?$AA@ 1010f748     libucrtd:lcidtoname_downlevel.obj
 0002:00026758       ??_C@_1M@GACBMHKE@?$AAh?$AAu?$AA?9?$AAh?$AAu?$AA?$AA@ 1010f758     libucrtd:lcidtoname_downlevel.obj
 0002:00026768       ??_C@_1M@MILPAJJC@?$AAh?$AAy?$AA?9?$AAa?$AAm?$AA?$AA@ 1010f768     libucrtd:lcidtoname_downlevel.obj
 0002:00026778       ??_C@_1M@BABBICEC@?$AAi?$AAd?$AA?9?$AAi?$AAd?$AA?$AA@ 1010f778     libucrtd:lcidtoname_downlevel.obj
 0002:00026788       ??_C@_1M@BIKNHHPF@?$AAi?$AAs?$AA?9?$AAi?$AAs?$AA?$AA@ 1010f788     libucrtd:lcidtoname_downlevel.obj
 0002:00026798       ??_C@_1M@NMPCJPHE@?$AAi?$AAt?$AA?9?$AAc?$AAh?$AA?$AA@ 1010f798     libucrtd:lcidtoname_downlevel.obj
 0002:000267a8       ??_C@_1M@GHKGFEDF@?$AAi?$AAt?$AA?9?$AAi?$AAt?$AA?$AA@ 1010f7a8     libucrtd:lcidtoname_downlevel.obj
 0002:000267b8       ??_C@_1M@NIEJCJJA@?$AAj?$AAa?$AA?9?$AAj?$AAp?$AA?$AA@ 1010f7b8     libucrtd:lcidtoname_downlevel.obj
 0002:000267c8       ??_C@_1M@JILFNBIM@?$AAk?$AAa?$AA?9?$AAg?$AAe?$AA?$AA@ 1010f7c8     libucrtd:lcidtoname_downlevel.obj
 0002:000267d8       ??_C@_1M@PACPMGPH@?$AAk?$AAk?$AA?9?$AAk?$AAz?$AA?$AA@ 1010f7d8     libucrtd:lcidtoname_downlevel.obj
 0002:000267e8       ??_C@_1M@IELFGMHA@?$AAk?$AAn?$AA?9?$AAi?$AAn?$AA?$AA@ 1010f7e8     libucrtd:lcidtoname_downlevel.obj
 0002:000267f8       ??_C@_1O@IBBJHCH@?$AAk?$AAo?$AAk?$AA?9?$AAi?$AAn?$AA?$AA@ 1010f7f8     libucrtd:lcidtoname_downlevel.obj
 0002:00026808       ??_C@_1M@DMHAEOGC@?$AAk?$AAo?$AA?9?$AAk?$AAr?$AA?$AA@ 1010f808     libucrtd:lcidtoname_downlevel.obj
 0002:00026818       ??_C@_1M@HBAHBIGA@?$AAk?$AAy?$AA?9?$AAk?$AAg?$AA?$AA@ 1010f818     libucrtd:lcidtoname_downlevel.obj
 0002:00026828       ??_C@_1M@KPMILCJG@?$AAl?$AAt?$AA?9?$AAl?$AAt?$AA?$AA@ 1010f828     libucrtd:lcidtoname_downlevel.obj
 0002:00026838       ??_C@_1M@BDEKKCA@?$AAl?$AAv?$AA?9?$AAl?$AAv?$AA?$AA@ 1010f838     libucrtd:lcidtoname_downlevel.obj
 0002:00026848       ??_C@_1M@ELCKCCJJ@?$AAm?$AAi?$AA?9?$AAn?$AAz?$AA?$AA@ 1010f848     libucrtd:lcidtoname_downlevel.obj
 0002:00026858       ??_C@_1M@CBOOLAPA@?$AAm?$AAk?$AA?9?$AAm?$AAk?$AA?$AA@ 1010f858     libucrtd:lcidtoname_downlevel.obj
 0002:00026868       ??_C@_1M@GPHNBJKN@?$AAm?$AAl?$AA?9?$AAi?$AAn?$AA?$AA@ 1010f868     libucrtd:lcidtoname_downlevel.obj
 0002:00026878       ??_C@_1M@PABJILIG@?$AAm?$AAn?$AA?9?$AAm?$AAn?$AA?$AA@ 1010f878     libucrtd:lcidtoname_downlevel.obj
 0002:00026888       ??_C@_1M@FGBKKIPG@?$AAm?$AAr?$AA?9?$AAi?$AAn?$AA?$AA@ 1010f888     libucrtd:lcidtoname_downlevel.obj
 0002:00026898       ??_C@_1M@NDBPDDAL@?$AAm?$AAs?$AA?9?$AAb?$AAn?$AA?$AA@ 1010f898     libucrtd:lcidtoname_downlevel.obj
 0002:000268a8       ??_C@_1M@OPIHOOPI@?$AAm?$AAs?$AA?9?$AAm?$AAy?$AA?$AA@ 1010f8a8     libucrtd:lcidtoname_downlevel.obj
 0002:000268b8       ??_C@_1M@PPDBCNFM@?$AAm?$AAt?$AA?9?$AAm?$AAt?$AA?$AA@ 1010f8b8     libucrtd:lcidtoname_downlevel.obj
 0002:000268c8       ??_C@_1M@KDJDKMDD@?$AAn?$AAb?$AA?9?$AAn?$AAo?$AA?$AA@ 1010f8c8     libucrtd:lcidtoname_downlevel.obj
 0002:000268d8       ??_C@_1M@KFCFLMJP@?$AAn?$AAl?$AA?9?$AAb?$AAe?$AA?$AA@ 1010f8d8     libucrtd:lcidtoname_downlevel.obj
 0002:000268e8       ??_C@_1M@KPOPDDGO@?$AAn?$AAl?$AA?9?$AAn?$AAl?$AA?$AA@ 1010f8e8     libucrtd:lcidtoname_downlevel.obj
 0002:000268f8       ??_C@_1M@LJKPEMLN@?$AAn?$AAn?$AA?9?$AAn?$AAo?$AA?$AA@ 1010f8f8     libucrtd:lcidtoname_downlevel.obj
 0002:00026908       ??_C@_1M@BDGHHBFL@?$AAn?$AAs?$AA?9?$AAz?$AAa?$AA?$AA@ 1010f908     libucrtd:lcidtoname_downlevel.obj
 0002:00026918       ??_C@_1M@IDEHOAP@?$AAp?$AAa?$AA?9?$AAi?$AAn?$AA?$AA@ 1010f918     libucrtd:lcidtoname_downlevel.obj
 0002:00026928       ??_C@_1M@HDBKGOGH@?$AAp?$AAl?$AA?9?$AAp?$AAl?$AA?$AA@ 1010f928     libucrtd:lcidtoname_downlevel.obj
 0002:00026938       ??_C@_1M@LJLLCMEH@?$AAp?$AAt?$AA?9?$AAb?$AAr?$AA?$AA@ 1010f938     libucrtd:lcidtoname_downlevel.obj
 0002:00026948       ??_C@_1M@NCMONAAL@?$AAp?$AAt?$AA?9?$AAp?$AAt?$AA?$AA@ 1010f948     libucrtd:lcidtoname_downlevel.obj
 0002:00026958       ??_C@_1O@EAKMAJDN@?$AAq?$AAu?$AAz?$AA?9?$AAb?$AAo?$AA?$AA@ 1010f958     libucrtd:lcidtoname_downlevel.obj
 0002:00026968       ??_C@_1O@BHHPIGDN@?$AAq?$AAu?$AAz?$AA?9?$AAe?$AAc?$AA?$AA@ 1010f968     libucrtd:lcidtoname_downlevel.obj
 0002:00026978       ??_C@_1O@GBAPEKMJ@?$AAq?$AAu?$AAz?$AA?9?$AAp?$AAe?$AA?$AA@ 1010f978     libucrtd:lcidtoname_downlevel.obj
 0002:00026988       ??_C@_1M@CLGLEFBO@?$AAr?$AAo?$AA?9?$AAr?$AAo?$AA?$AA@ 1010f988     libucrtd:lcidtoname_downlevel.obj
 0002:00026998       ??_C@_1M@CEEDODME@?$AAr?$AAu?$AA?9?$AAr?$AAu?$AA?$AA@ 1010f998     libucrtd:lcidtoname_downlevel.obj
 0002:000269a8       ??_C@_1M@HPKKKMPP@?$AAs?$AAa?$AA?9?$AAi?$AAn?$AA?$AA@ 1010f9a8     libucrtd:lcidtoname_downlevel.obj
 0002:000269b8       ??_C@_1M@BKMAIGOJ@?$AAs?$AAe?$AA?9?$AAf?$AAi?$AA?$AA@ 1010f9b8     libucrtd:lcidtoname_downlevel.obj
 0002:000269c8       ??_C@_1M@NDPIFLFI@?$AAs?$AAe?$AA?9?$AAn?$AAo?$AA?$AA@ 1010f9c8     libucrtd:lcidtoname_downlevel.obj
 0002:000269d8       ??_C@_1M@DANKKHJ@?$AAs?$AAe?$AA?9?$AAs?$AAe?$AA?$AA@ 1010f9d8     libucrtd:lcidtoname_downlevel.obj
 0002:000269e8       ??_C@_1M@PNBLONPJ@?$AAs?$AAk?$AA?9?$AAs?$AAk?$AA?$AA@ 1010f9e8     libucrtd:lcidtoname_downlevel.obj
 0002:000269f8       ??_C@_1M@LFMODOAL@?$AAs?$AAl?$AA?9?$AAs?$AAi?$AA?$AA@ 1010f9f8     libucrtd:lcidtoname_downlevel.obj
 0002:00026a08       ??_C@_1O@DFKOMPG@?$AAs?$AAm?$AAa?$AA?9?$AAn?$AAo?$AA?$AA@ 1010fa08     libucrtd:lcidtoname_downlevel.obj
 0002:00026a18       ??_C@_1O@NDKPBNNH@?$AAs?$AAm?$AAa?$AA?9?$AAs?$AAe?$AA?$AA@ 1010fa18     libucrtd:lcidtoname_downlevel.obj
 0002:00026a28       ??_C@_1O@PLLKBHAB@?$AAs?$AAm?$AAj?$AA?9?$AAn?$AAo?$AA?$AA@ 1010fa28     libucrtd:lcidtoname_downlevel.obj
 0002:00026a38       ??_C@_1O@CLEPOGCA@?$AAs?$AAm?$AAj?$AA?9?$AAs?$AAe?$AA?$AA@ 1010fa38     libucrtd:lcidtoname_downlevel.obj
 0002:00026a48       ??_C@_1O@DLGJGKMK@?$AAs?$AAm?$AAn?$AA?9?$AAf?$AAi?$AA?$AA@ 1010fa48     libucrtd:lcidtoname_downlevel.obj
 0002:00026a58       ??_C@_1O@OJDJGAJC@?$AAs?$AAm?$AAs?$AA?9?$AAf?$AAi?$AA?$AA@ 1010fa58     libucrtd:lcidtoname_downlevel.obj
 0002:00026a68       ??_C@_1M@BOFOGHPB@?$AAs?$AAq?$AA?9?$AAa?$AAl?$AA?$AA@ 1010fa68     libucrtd:lcidtoname_downlevel.obj
 0002:00026a78       ??_C@_1BG@LJBBIPGB@?$AAs?$AAr?$AA?9?$AAb?$AAa?$AA?9?$AAc?$AAy?$AAr?$AAl?$AA?$AA@ 1010fa78     libucrtd:lcidtoname_downlevel.obj
 0002:00026a94       ??_C@_1BG@JLBENFOE@?$AAs?$AAr?$AA?9?$AAb?$AAa?$AA?9?$AAl?$AAa?$AAt?$AAn?$AA?$AA@ 1010fa94     libucrtd:lcidtoname_downlevel.obj
 0002:00026ab0       ??_C@_1BG@KODPNHE@?$AAs?$AAr?$AA?9?$AAs?$AAp?$AA?9?$AAc?$AAy?$AAr?$AAl?$AA?$AA@ 1010fab0     libucrtd:lcidtoname_downlevel.obj
 0002:00026acc       ??_C@_1BG@CIOGKHPB@?$AAs?$AAr?$AA?9?$AAs?$AAp?$AA?9?$AAl?$AAa?$AAt?$AAn?$AA?$AA@ 1010facc     libucrtd:lcidtoname_downlevel.obj
 0002:00026ae8       ??_C@_1M@NGFJLMAC@?$AAs?$AAv?$AA?9?$AAf?$AAi?$AA?$AA@ 1010fae8     libucrtd:lcidtoname_downlevel.obj
 0002:00026af8       ??_C@_1M@MPJEJAJC@?$AAs?$AAv?$AA?9?$AAs?$AAe?$AA?$AA@ 1010faf8     libucrtd:lcidtoname_downlevel.obj
 0002:00026b08       ??_C@_1M@MPNDHLFK@?$AAs?$AAw?$AA?9?$AAk?$AAe?$AA?$AA@ 1010fb08     libucrtd:lcidtoname_downlevel.obj
 0002:00026b18       ??_C@_1O@KOHBJJI@?$AAs?$AAy?$AAr?$AA?9?$AAs?$AAy?$AA?$AA@ 1010fb18     libucrtd:lcidtoname_downlevel.obj
 0002:00026b28       ??_C@_1M@LDCEFHA@?$AAt?$AAa?$AA?9?$AAi?$AAn?$AA?$AA@ 1010fb28     libucrtd:lcidtoname_downlevel.obj
 0002:00026b38       ??_C@_1M@CNJOFAK@?$AAt?$AAe?$AA?9?$AAi?$AAn?$AA?$AA@ 1010fb38     libucrtd:lcidtoname_downlevel.obj
 0002:00026b48       ??_C@_1M@GNAECACD@?$AAt?$AAh?$AA?9?$AAt?$AAh?$AA?$AA@ 1010fb48     libucrtd:lcidtoname_downlevel.obj
 0002:00026b58       ??_C@_1M@CHBIHOJO@?$AAt?$AAn?$AA?9?$AAz?$AAa?$AA?$AA@ 1010fb58     libucrtd:lcidtoname_downlevel.obj
 0002:00026b68       ??_C@_1M@GCCMIGPJ@?$AAt?$AAr?$AA?9?$AAt?$AAr?$AA?$AA@ 1010fb68     libucrtd:lcidtoname_downlevel.obj
 0002:00026b78       ??_C@_1M@CELMCNBK@?$AAt?$AAt?$AA?9?$AAr?$AAu?$AA?$AA@ 1010fb78     libucrtd:lcidtoname_downlevel.obj
 0002:00026b88       ??_C@_1M@KLMCELGA@?$AAu?$AAk?$AA?9?$AAu?$AAa?$AA?$AA@ 1010fb88     libucrtd:lcidtoname_downlevel.obj
 0002:00026b98       ??_C@_1M@EPAJJAJF@?$AAu?$AAr?$AA?9?$AAp?$AAk?$AA?$AA@ 1010fb98     libucrtd:lcidtoname_downlevel.obj
 0002:00026ba8       ??_C@_1BG@GEGPMCDJ@?$AAu?$AAz?$AA?9?$AAu?$AAz?$AA?9?$AAc?$AAy?$AAr?$AAl?$AA?$AA@ 1010fba8     libucrtd:lcidtoname_downlevel.obj
 0002:00026bc4       ??_C@_1BG@EGGKJILM@?$AAu?$AAz?$AA?9?$AAu?$AAz?$AA?9?$AAl?$AAa?$AAt?$AAn?$AA?$AA@ 1010fbc4     libucrtd:lcidtoname_downlevel.obj
 0002:00026be0       ??_C@_1M@GFOCLFF@?$AAv?$AAi?$AA?9?$AAv?$AAn?$AA?$AA@ 1010fbe0     libucrtd:lcidtoname_downlevel.obj
 0002:00026bf0       ??_C@_1M@CPAMEDFI@?$AAx?$AAh?$AA?9?$AAz?$AAa?$AA?$AA@ 1010fbf0     libucrtd:lcidtoname_downlevel.obj
 0002:00026c00       ??_C@_1O@EBKIFIGN@?$AAz?$AAh?$AA?9?$AAc?$AAh?$AAs?$AA?$AA@ 1010fc00     libucrtd:lcidtoname_downlevel.obj
 0002:00026c10       ??_C@_1O@NMHPGANE@?$AAz?$AAh?$AA?9?$AAc?$AAh?$AAt?$AA?$AA@ 1010fc10     libucrtd:lcidtoname_downlevel.obj
 0002:00026c20       ??_C@_1M@LPINJOMC@?$AAz?$AAh?$AA?9?$AAc?$AAn?$AA?$AA@ 1010fc20     libucrtd:lcidtoname_downlevel.obj
 0002:00026c30       ??_C@_1M@OCJEJODD@?$AAz?$AAh?$AA?9?$AAh?$AAk?$AA?$AA@ 1010fc30     libucrtd:lcidtoname_downlevel.obj
 0002:00026c40       ??_C@_1M@DNDLJINH@?$AAz?$AAh?$AA?9?$AAm?$AAo?$AA?$AA@ 1010fc40     libucrtd:lcidtoname_downlevel.obj
 0002:00026c50       ??_C@_1M@MBFDNDND@?$AAz?$AAh?$AA?9?$AAs?$AAg?$AA?$AA@ 1010fc50     libucrtd:lcidtoname_downlevel.obj
 0002:00026c60       ??_C@_1M@IMEPLEPE@?$AAz?$AAh?$AA?9?$AAt?$AAw?$AA?$AA@ 1010fc60     libucrtd:lcidtoname_downlevel.obj
 0002:00026c70       ??_C@_1M@BBGHNHJP@?$AAz?$AAu?$AA?9?$AAz?$AAa?$AA?$AA@ 1010fc70     libucrtd:lcidtoname_downlevel.obj
 0002:00026c80       ??_C@_1HO@KHHMOCBO@?$AAm?$AAi?$AAn?$AAk?$AAe?$AAr?$AAn?$AAe?$AAl?$AA?2?$AAc?$AAr?$AAt?$AAs?$AA?2?$AAu?$AAc?$AAr?$AAt?$AA?2?$AAs?$AAr?$AAc?$AA?2?$AAa?$AAp?$AAp?$AAc?$AAr?$AAt?$AA?2?$AAl@ 1010fc80     libucrtd:lcidtoname_downlevel.obj
 0002:00026d18       ??_C@_1EC@MDFDCHIL@?$AA_?$AA_?$AAa?$AAc?$AAr?$AAt?$AA_?$AAD?$AAo?$AAw?$AAn?$AAl?$AAe?$AAv?$AAe?$AAl?$AAL?$AAC?$AAI?$AAD?$AAT?$AAo?$AAL?$AAo?$AAc?$AAa?$AAl?$AAe?$AAN?$AAa?$AAm?$AAe@ 1010fd18     libucrtd:lcidtoname_downlevel.obj
 0002:00026d68       ??_C@_1FO@LFACCMJH@?$AAw?$AAc?$AAs?$AAc?$AAp?$AAy?$AA_?$AAs?$AA?$CI?$AAo?$AAu?$AAt?$AAL?$AAo?$AAc?$AAa?$AAl?$AAe?$AAN?$AAa?$AAm?$AAe?$AA?0?$AA?5?$AAc?$AAc?$AAh?$AAL?$AAo?$AAc?$AAa?$AAl@ 1010fd68     libucrtd:lcidtoname_downlevel.obj
 0002:00026dd8       ??_C@_1DI@OOEEHOBJ@?$AAb?$AAa?$AAs?$AAe?$AA?5?$AA?$CB?$AA?$DN?$AA?5?$AAn?$AAu?$AAl?$AAl?$AAp?$AAt?$AAr?$AA?5?$AA?$HM?$AA?$HM?$AA?5?$AAn?$AAu?$AAm?$AA?5?$AA?$DN?$AA?$DN?$AA?5?$AA0?$AA?$AA@ 1010fdd8     libucrtd:qsort.obj
 0002:00026e20       ??_C@_1GA@KPPCKKGE@?$AAm?$AAi?$AAn?$AAk?$AAe?$AAr?$AAn?$AAe?$AAl?$AA?2?$AAc?$AAr?$AAt?$AAs?$AA?2?$AAu?$AAc?$AAr?$AAt?$AA?2?$AAs?$AAr?$AAc?$AA?2?$AAa?$AAp?$AAp?$AAc?$AAr?$AAt?$AA?2?$AAs@ 1010fe20     libucrtd:qsort.obj
 0002:00026e94       ??_C@_1M@INMHODIG@?$AAq?$AAs?$AAo?$AAr?$AAt?$AA?$AA@ 1010fe94     libucrtd:qsort.obj
 0002:00026ea4       ??_C@_1BE@NJBEBBME@?$AAw?$AAi?$AAd?$AAt?$AAh?$AA?5?$AA?$DO?$AA?5?$AA0?$AA?$AA@ 1010fea4     libucrtd:qsort.obj
 0002:00026ebc       ??_C@_1CA@LIDFOMIN@?$AAc?$AAo?$AAm?$AAp?$AA?5?$AA?$CB?$AA?$DN?$AA?5?$AAn?$AAu?$AAl?$AAl?$AAp?$AAt?$AAr?$AA?$AA@ 1010febc     libucrtd:qsort.obj
 0002:00026ee4       ??_C@_0DH@IKPCBLP@minkernel?2crts?2ucrt?2src?2appcrt?2l@ 1010fee4     libucrtd:lcmapstringa.obj
 0002:00026f28       ??_C@_1CI@CCKDLILB@?$AA_?$AAs?$AAt?$AAr?$AAi?$AAn?$AAg?$AA1?$AA?5?$AA?$CB?$AA?$DN?$AA?5?$AAn?$AAu?$AAl?$AAl?$AAp?$AAt?$AAr?$AA?$AA@ 1010ff28     libucrtd:wcsnicol.obj
 0002:00026f58       ??_C@_1GG@MDOKJCAE@?$AAm?$AAi?$AAn?$AAk?$AAe?$AAr?$AAn?$AAe?$AAl?$AA?2?$AAc?$AAr?$AAt?$AAs?$AA?2?$AAu?$AAc?$AAr?$AAt?$AA?2?$AAs?$AAr?$AAc?$AA?2?$AAa?$AAp?$AAp?$AAc?$AAr?$AAt?$AA?2?$AAs@ 1010ff58     libucrtd:wcsnicol.obj
 0002:00026fd4       ??_C@_1BK@EONLMOKH@?$AA_?$AAw?$AAc?$AAs?$AAn?$AAi?$AAc?$AAo?$AAl?$AAl?$AA_?$AAl?$AA?$AA@ 1010ffd4     libucrtd:wcsnicol.obj
 0002:00026ff4       ??_C@_1CI@NAPEFFEJ@?$AA_?$AAs?$AAt?$AAr?$AAi?$AAn?$AAg?$AA2?$AA?5?$AA?$CB?$AA?$DN?$AA?5?$AAn?$AAu?$AAl?$AAl?$AAp?$AAt?$AAr?$AA?$AA@ 1010fff4     libucrtd:wcsnicol.obj
 0002:00027024       ??_C@_1CC@JLPHKJPH@?$AAc?$AAo?$AAu?$AAn?$AAt?$AA?5?$AA?$DM?$AA?$DN?$AA?5?$AAI?$AAN?$AAT?$AA_?$AAM?$AAA?$AAX?$AA?$AA@ 10110024     libucrtd:wcsnicol.obj
 0002:0002704c       ??_C@_1BG@PCPANGGF@?$AA_?$AAw?$AAc?$AAs?$AAn?$AAi?$AAc?$AAo?$AAl?$AAl?$AA?$AA@ 1011004c     libucrtd:wcsnicol.obj
 0002:00027068       ??_C@_1GG@LACFCIFA@?$AAm?$AAi?$AAn?$AAk?$AAe?$AAr?$AAn?$AAe?$AAl?$AA?2?$AAc?$AAr?$AAt?$AAs?$AA?2?$AAu?$AAc?$AAr?$AAt?$AA?2?$AAs?$AAr?$AAc?$AA?2?$AAa?$AAp?$AAp?$AAc?$AAr?$AAt?$AA?2?$AAs@ 10110068     libucrtd:strnicol.obj
 0002:000270e4       ??_C@_1BK@IOJEBPLP@?$AA_?$AAs?$AAt?$AAr?$AAn?$AAi?$AAc?$AAo?$AAl?$AAl?$AA_?$AAl?$AA?$AA@ 101100e4     libucrtd:strnicol.obj
 0002:00027104       ??_C@_0DB@JFFPGLDM@minkernel?2crts?2ucrt?2src?2appcrt?2l@ 10110104     libucrtd:osfinfo.obj
 0002:00027140       ??_C@_1EM@BPODPNEJ@?$AAs?$AAt?$AAa?$AAt?$AAi?$AAc?$AA_?$AAc?$AAa?$AAs?$AAt?$AA?$DM?$AAu?$AAn?$AAs?$AAi?$AAg?$AAn?$AAe?$AAd?$AA?$DO?$AA?$CI?$AAf?$AAh?$AA?$CJ?$AA?5?$AA?$DM?$AA?5?$AA_?$AAN?$AAH?$AAA@ 10110140     libucrtd:osfinfo.obj
 0002:000271a0       ??_C@_1GC@LDGKBAFM@?$AAm?$AAi?$AAn?$AAk?$AAe?$AAr?$AAn?$AAe?$AAl?$AA?2?$AAc?$AAr?$AAt?$AAs?$AA?2?$AAu?$AAc?$AAr?$AAt?$AA?2?$AAs?$AAr?$AAc?$AA?2?$AAa?$AAp?$AAp?$AAc?$AAr?$AAt?$AA?2?$AAl@ 101101a0     libucrtd:osfinfo.obj
 0002:00027218       ??_C@_1DM@JELNOMLN@?$AA_?$AA_?$AAa?$AAc?$AAr?$AAt?$AA_?$AAl?$AAo?$AAw?$AAi?$AAo?$AA_?$AAe?$AAn?$AAs?$AAu?$AAr?$AAe?$AA_?$AAf?$AAh?$AA_?$AAe?$AAx?$AAi?$AAs?$AAt?$AAs?$AA?$AA@ 10110218     libucrtd:osfinfo.obj
 0002:00027260       ??_C@_1FK@MGHFJLAL@?$AAf?$AAh?$AA?5?$AA?$DO?$AA?$DN?$AA?5?$AA0?$AA?5?$AA?$CG?$AA?$CG?$AA?5?$AA?$CI?$AAu?$AAn?$AAs?$AAi?$AAg?$AAn?$AAe?$AAd?$AA?$CJ?$AAf?$AAh?$AA?5?$AA?$DM?$AA?5?$AA?$CI?$AAu?$AAn?$AAs?$AAi?$AAg@ 10110260     libucrtd:osfinfo.obj
 0002:000272cc       ??_C@_1BO@EMBOBGKE@?$AA_?$AAg?$AAe?$AAt?$AA_?$AAo?$AAs?$AAf?$AAh?$AAa?$AAn?$AAd?$AAl?$AAe?$AA?$AA@ 101102cc     libucrtd:osfinfo.obj
 0002:000272f0       ??_C@_1CI@ILOIOBLM@?$AA_?$AAo?$AAs?$AAf?$AAi?$AAl?$AAe?$AA?$CI?$AAf?$AAh?$AA?$CJ?$AA?5?$AA?$CG?$AA?5?$AAF?$AAO?$AAP?$AAE?$AAN?$AA?$AA@ 101102f0     libucrtd:osfinfo.obj
 0002:00027320       ??_C@_1FO@LPCLHKGE@?$AA?$CI?$AAf?$AAh?$AA?5?$AA?$DO?$AA?$DN?$AA?5?$AA0?$AA?5?$AA?$CG?$AA?$CG?$AA?5?$AA?$CI?$AAu?$AAn?$AAs?$AAi?$AAg?$AAn?$AAe?$AAd?$AA?$CJ?$AAf?$AAh?$AA?5?$AA?$DM?$AA?5?$AA?$CI?$AAu?$AAn?$AAs?$AAi@ 10110320     libucrtd:isatty.obj
 0002:00027390       ??_C@_1GA@DEPMKPD@?$AAm?$AAi?$AAn?$AAk?$AAe?$AAr?$AAn?$AAe?$AAl?$AA?2?$AAc?$AAr?$AAt?$AAs?$AA?2?$AAu?$AAc?$AAr?$AAt?$AA?2?$AAs?$AAr?$AAc?$AA?2?$AAa?$AAp?$AAp?$AAc?$AAr?$AAt?$AA?2?$AAl@ 10110390     libucrtd:isatty.obj
 0002:00027404       ??_C@_1BA@LEBDGIHM@?$AA_?$AAi?$AAs?$AAa?$AAt?$AAt?$AAy?$AA?$AA@ 10110404     libucrtd:isatty.obj
 0002:00027418       ??_C@_1GI@IMEEHIAK@?$AAm?$AAi?$AAn?$AAk?$AAe?$AAr?$AAn?$AAe?$AAl?$AA?2?$AAc?$AAr?$AAt?$AAs?$AA?2?$AAu?$AAc?$AAr?$AAt?$AA?2?$AAs?$AAr?$AAc?$AA?2?$AAa?$AAp?$AAp?$AAc?$AAr?$AAt?$AA?2?$AAc@ 10110418     libucrtd:_fptostr.obj
 0002:00027494       ??_C@_1DG@NMGBKPMI@?$AA_?$AA_?$AAa?$AAc?$AAr?$AAt?$AA_?$AAf?$AAp?$AA_?$AAs?$AAt?$AAr?$AAf?$AAl?$AAt?$AA_?$AAt?$AAo?$AA_?$AAs?$AAt?$AAr?$AAi?$AAn?$AAg?$AA?$AA@ 10110494     libucrtd:_fptostr.obj
 0002:000274d8       ??_C@_1IE@EAOKIIFP@?$AAb?$AAu?$AAf?$AAf?$AAe?$AAr?$AA_?$AAc?$AAo?$AAu?$AAn?$AAt?$AA?5?$AA?$DO?$AA?5?$AAs?$AAt?$AAa?$AAt?$AAi?$AAc?$AA_?$AAc?$AAa?$AAs?$AAt?$AA?$DM?$AAs?$AAi?$AAz?$AAe?$AA_@ 101104d8     libucrtd:_fptostr.obj
 0002:00027578       ??_C@_1CA@EDEEBMBB@?$AAp?$AAf?$AAl?$AAt?$AA?5?$AA?$CB?$AA?$DN?$AA?5?$AAn?$AAu?$AAl?$AAl?$AAp?$AAt?$AAr?$AA?$AA@ 10110578     libucrtd:_fptostr.obj
 0002:000275a0       ?large_power_data@?1??multiply_by_power_of_ten@__crt_strtox@@YA_NAAUbig_integer@2@I@Z@4QBIB 101105a0     libucrtd:cfout.obj
 0002:00028078       ?large_power_indices@?1??multiply_by_power_of_ten@__crt_strtox@@YA_NAAUbig_integer@2@I@Z@4QBUunpack_index@?1??12@YA_N0I@Z@B 10111078     libucrtd:cfout.obj
 0002:00028130       ?small_powers_of_ten@?6??multiply_by_power_of_ten@__crt_strtox@@YA_NAAUbig_integer@2@I@Z@4QBIB 10111130     libucrtd:cfout.obj
 0002:0002815c       ??_C@_1DI@GICAMMFM@?$AA?$CI?$AA?$CC?$AAD?$AAi?$AAv?$AAi?$AAs?$AAi?$AAo?$AAn?$AA?5?$AAb?$AAy?$AA?5?$AAz?$AAe?$AAr?$AAo?$AA?$CC?$AA?0?$AA?5?$AAf?$AAa?$AAl?$AAs?$AAe?$AA?$CJ?$AA?$AA@ 1011115c     libucrtd:cfout.obj
 0002:000281a0       ??_C@_1GO@BFGDDONN@?$AAm?$AAi?$AAn?$AAk?$AAe?$AAr?$AAn?$AAe?$AAl?$AA?2?$AAc?$AAr?$AAt?$AAs?$AA?2?$AAu?$AAc?$AAr?$AAt?$AA?2?$AAi?$AAn?$AAc?$AA?2?$AAc?$AAo?$AAr?$AAe?$AAc?$AAr?$AAt?$AA_@ 101111a0     libucrtd:cfout.obj
 0002:00028228       ??_C@_1GC@DDAKNBNC@?$AAm?$AAi?$AAn?$AAk?$AAe?$AAr?$AAn?$AAe?$AAl?$AA?2?$AAc?$AAr?$AAt?$AAs?$AA?2?$AAu?$AAc?$AAr?$AAt?$AA?2?$AAs?$AAr?$AAc?$AA?2?$AAa?$AAp?$AAp?$AAc?$AAr?$AAt?$AA?2?$AAc@ 10111228     libucrtd:cfout.obj
 0002:000282a0       ??_C@_1BM@FAAOAKKO@?$AA_?$AA_?$AAa?$AAc?$AAr?$AAt?$AA_?$AAf?$AAl?$AAt?$AAo?$AAu?$AAt?$AA?$AA@ 101112a0     libucrtd:cfout.obj
 0002:000282c8       ??_C@_1EI@OACEJKEP@?$AAs?$AAt?$AAr?$AAc?$AAp?$AAy?$AA_?$AAs?$AA?$CI?$AAr?$AAe?$AAs?$AAu?$AAl?$AAt?$AA?0?$AA?5?$AAr?$AAe?$AAs?$AAu?$AAl?$AAt?$AA_?$AAc?$AAo?$AAu?$AAn?$AAt?$AA?0?$AA?5?$AA?$CC@ 101112c8     libucrtd:cfout.obj
 0002:00028320       ??_C@_1FC@KIECGFMP@?$AAs?$AAt?$AAr?$AAc?$AAp?$AAy?$AA_?$AAs?$AA?$CI?$AAr?$AAe?$AAs?$AAu?$AAl?$AAt?$AA?0?$AA?5?$AAr?$AAe?$AAs?$AAu?$AAl?$AAt?$AA_?$AAc?$AAo?$AAu?$AAn?$AAt?$AA?0?$AA?5?$AA?$CC@ 10111320     libucrtd:cfout.obj
 0002:00028384       ??_C@_05DNEBIAHO@1?$CDINF?$AA@ 10111384     libucrtd:cfout.obj
 0002:00028390       ??_C@_1FC@NFPJEIBD@?$AAs?$AAt?$AAr?$AAc?$AAp?$AAy?$AA_?$AAs?$AA?$CI?$AAr?$AAe?$AAs?$AAu?$AAl?$AAt?$AA?0?$AA?5?$AAr?$AAe?$AAs?$AAu?$AAl?$AAt?$AA_?$AAc?$AAo?$AAu?$AAn?$AAt?$AA?0?$AA?5?$AA?$CC@ 10111390     libucrtd:cfout.obj
 0002:000283f4       ??_C@_06IMKFLFPG@1?$CDQNAN?$AA@ 101113f4     libucrtd:cfout.obj
 0002:00028400       ??_C@_1FC@DEJHIMLO@?$AAs?$AAt?$AAr?$AAc?$AAp?$AAy?$AA_?$AAs?$AA?$CI?$AAr?$AAe?$AAs?$AAu?$AAl?$AAt?$AA?0?$AA?5?$AAr?$AAe?$AAs?$AAu?$AAl?$AAt?$AA_?$AAc?$AAo?$AAu?$AAn?$AAt?$AA?0?$AA?5?$AA?$CC@ 10111400     libucrtd:cfout.obj
 0002:00028464       ??_C@_06PGGFOGJG@1?$CDSNAN?$AA@ 10111464     libucrtd:cfout.obj
 0002:00028470       ??_C@_1FC@KMLHLFPC@?$AAs?$AAt?$AAr?$AAc?$AAp?$AAy?$AA_?$AAs?$AA?$CI?$AAr?$AAe?$AAs?$AAu?$AAl?$AAt?$AA?0?$AA?5?$AAr?$AAe?$AAs?$AAu?$AAl?$AAt?$AA_?$AAc?$AAo?$AAu?$AAn?$AAt?$AA?0?$AA?5?$AA?$CC@ 10111470     libucrtd:cfout.obj
 0002:000284d4       ??_C@_05PHHOCPM@1?$CDIND?$AA@ 101114d4     libucrtd:cfout.obj
 0002:000284dc       ??_C@_1DE@KHKADFOO@?$AAm?$AAa?$AAn?$AAt?$AAi?$AAs?$AAs?$AAa?$AA_?$AAb?$AAu?$AAf?$AAf?$AAe?$AAr?$AA_?$AAc?$AAo?$AAu?$AAn?$AAt?$AA?5?$AA?$DO?$AA?5?$AA0?$AA?$AA@ 101114dc     libucrtd:cfout.obj
 0002:00028520       ??_C@_1FI@LFKLOPAC@?$AA?$CI?$AA?$CC?$AAu?$AAn?$AAe?$AAx?$AAp?$AAe?$AAc?$AAt?$AAe?$AAd?$AA?5?$AAi?$AAn?$AAp?$AAu?$AAt?$AA?5?$AAv?$AAa?$AAl?$AAu?$AAe?$AA?$DL?$AA?5?$AAl?$AAo?$AAg?$AA1?$AA0?$AA?5@ 10111520     libucrtd:cfout.obj
 0002:00028590       ??_C@_1FG@MLHBDPBG@?$AAq?$AAu?$AAo?$AAt?$AAi?$AAe?$AAn?$AAt?$AA?5?$AA?$DM?$AA?5?$AAd?$AAi?$AAg?$AAi?$AAt?$AAs?$AA_?$AAp?$AAe?$AAr?$AA_?$AAi?$AAt?$AAe?$AAr?$AAa?$AAt?$AAi?$AAo?$AAn?$AA_@ 10111590     libucrtd:cfout.obj
 0002:000285f8       ??_C@_1GC@DFIGBGJI@?$AAm?$AAi?$AAn?$AAk?$AAe?$AAr?$AAn?$AAe?$AAl?$AA?2?$AAc?$AAr?$AAt?$AAs?$AA?2?$AAu?$AAc?$AAr?$AAt?$AA?2?$AAs?$AAr?$AAc?$AA?2?$AAa?$AAp?$AAp?$AAc?$AAr?$AAt?$AA?2?$AAs@ 101115f8     libucrtd:_flsbuf.obj
 0002:00028670       ??_C@_1HO@MLMGPAFH@?$AA?$CI?$AA?$CC?$AAi?$AAn?$AAc?$AAo?$AAn?$AAs?$AAi?$AAs?$AAt?$AAe?$AAn?$AAt?$AA?5?$AAI?$AAO?$AAB?$AA?5?$AAf?$AAi?$AAe?$AAl?$AAd?$AAs?$AA?$CC?$AA?0?$AA?5?$AAs?$AAt?$AAr?$AAe@ 10111670     libucrtd:_flsbuf.obj
 0002:00028708       ??_C@_1GE@GPOPIOIG@?$AAm?$AAi?$AAn?$AAk?$AAe?$AAr?$AAn?$AAe?$AAl?$AA?2?$AAc?$AAr?$AAt?$AAs?$AA?2?$AAu?$AAc?$AAr?$AAt?$AA?2?$AAs?$AAr?$AAc?$AA?2?$AAa?$AAp?$AAp?$AAc?$AAr?$AAt?$AA?2?$AAs@ 10111708     libucrtd:_freebuf.obj
 0002:00028780       ??_C@_1DE@BCNCAIK@?$AA?$CI?$AA?$CC?$AAI?$AAn?$AAv?$AAa?$AAl?$AAi?$AAd?$AA?5?$AAe?$AAr?$AAr?$AAo?$AAr?$AA_?$AAm?$AAo?$AAd?$AAe?$AA?$CC?$AA?0?$AA?5?$AA0?$AA?$CJ?$AA?$AA@ 10111780     libucrtd:set_error_mode.obj
 0002:000287c0       ??_C@_1GO@EBFPMMIJ@?$AAm?$AAi?$AAn?$AAk?$AAe?$AAr?$AAn?$AAe?$AAl?$AA?2?$AAc?$AAr?$AAt?$AAs?$AA?2?$AAu?$AAc?$AAr?$AAt?$AA?2?$AAs?$AAr?$AAc?$AA?2?$AAa?$AAp?$AAp?$AAc?$AAr?$AAt?$AA?2?$AAm@ 101117c0     libucrtd:set_error_mode.obj
 0002:00028844       ??_C@_1CA@LFDHAMEM@?$AA_?$AAs?$AAe?$AAt?$AA_?$AAe?$AAr?$AAr?$AAo?$AAr?$AA_?$AAm?$AAo?$AAd?$AAe?$AA?$AA@ 10111844     libucrtd:set_error_mode.obj
 0002:000288dc       ??_C@_0DJ@JBBOOIAE@minkernel?2crts?2ucrt?2src?2appcrt?2l@ 101118dc     libucrtd:getlocaleinfoa.obj
 0002:00028920       ??_C@_1HC@KAIIOBKJ@?$AAm?$AAi?$AAn?$AAk?$AAe?$AAr?$AAn?$AAe?$AAl?$AA?2?$AAc?$AAr?$AAt?$AAs?$AA?2?$AAu?$AAc?$AAr?$AAt?$AA?2?$AAs?$AAr?$AAc?$AA?2?$AAa?$AAp?$AAp?$AAc?$AAr?$AAt?$AA?2?$AAl@ 10111920     libucrtd:getlocaleinfoa.obj
 0002:000289a8       ??_C@_1CM@LGLMFNOK@?$AA_?$AA_?$AAa?$AAc?$AAr?$AAt?$AA_?$AAG?$AAe?$AAt?$AAL?$AAo?$AAc?$AAa?$AAl?$AAe?$AAI?$AAn?$AAf?$AAo?$AAA?$AA?$AA@ 101119a8     libucrtd:getlocaleinfoa.obj
 0002:000289e0       ??_C@_1IM@HJPPDDKJ@?$AAs?$AAt?$AAr?$AAn?$AAc?$AAp?$AAy?$AA_?$AAs?$AA?$CI?$AA?$CK?$AAc?$AAh?$AAa?$AAr?$AA_?$AAr?$AAe?$AAs?$AAu?$AAl?$AAt?$AA?0?$AA?5?$AAl?$AAo?$AAc?$AAa?$AAl?$AA_?$AAl?$AAe@ 101119e0     libucrtd:getlocaleinfoa.obj
 0002:00028a88       ??_C@_1BO@GCPMHDON@?$AAd?$AAs?$AAt?$AA?5?$AA?$CB?$AA?$DN?$AA?5?$AAn?$AAu?$AAl?$AAl?$AAp?$AAt?$AAr?$AA?$AA@ 10111a88     libucrtd:wcsicmp.obj
 0002:00028ab0       ??_C@_1GE@FNNJGCGI@?$AAm?$AAi?$AAn?$AAk?$AAe?$AAr?$AAn?$AAe?$AAl?$AA?2?$AAc?$AAr?$AAt?$AAs?$AA?2?$AAu?$AAc?$AAr?$AAt?$AA?2?$AAs?$AAr?$AAc?$AA?2?$AAa?$AAp?$AAp?$AAc?$AAr?$AAt?$AA?2?$AAs@ 10111ab0     libucrtd:wcsicmp.obj
 0002:00028b28       ??_C@_1BG@EELGPCPD@?$AA_?$AAw?$AAc?$AAs?$AAi?$AAc?$AAm?$AAp?$AA_?$AAl?$AA?$AA@ 10111b28     libucrtd:wcsicmp.obj
 0002:00028b44       ??_C@_1BO@NEBGDLJE@?$AAs?$AAr?$AAc?$AA?5?$AA?$CB?$AA?$DN?$AA?5?$AAn?$AAu?$AAl?$AAl?$AAp?$AAt?$AAr?$AA?$AA@ 10111b44     libucrtd:wcsicmp.obj
 0002:00028b68       ??_C@_1BC@NHIBDOMC@?$AA_?$AAw?$AAc?$AAs?$AAi?$AAc?$AAm?$AAp?$AA?$AA@ 10111b68     libucrtd:wcsicmp.obj
 0002:00028b80       ??_C@_1CC@IBIHLDLG@?$AAf?$AAi?$AAr?$AAs?$AAt?$AA?5?$AA?$CB?$AA?$DN?$AA?5?$AAn?$AAu?$AAl?$AAl?$AAp?$AAt?$AAr?$AA?$AA@ 10111b80     libucrtd:wcsnicmp.obj
 0002:00028ba8       ??_C@_1GG@CLJGPGNE@?$AAm?$AAi?$AAn?$AAk?$AAe?$AAr?$AAn?$AAe?$AAl?$AA?2?$AAc?$AAr?$AAt?$AAs?$AA?2?$AAu?$AAc?$AAr?$AAt?$AA?2?$AAs?$AAr?$AAc?$AA?2?$AAa?$AAp?$AAp?$AAc?$AAr?$AAt?$AA?2?$AAs@ 10111ba8     libucrtd:wcsnicmp.obj
 0002:00028c24       ??_C@_1BI@KLMFNDBC@?$AA_?$AAw?$AAc?$AAs?$AAn?$AAi?$AAc?$AAm?$AAp?$AA_?$AAl?$AA?$AA@ 10111c24     libucrtd:wcsnicmp.obj
 0002:00028c40       ??_C@_1CA@GLFIDPNF@?$AAl?$AAa?$AAs?$AAt?$AA?5?$AA?$CB?$AA?$DN?$AA?5?$AAn?$AAu?$AAl?$AAl?$AAp?$AAt?$AAr?$AA?$AA@ 10111c40     libucrtd:wcsnicmp.obj
 0002:00028c68       ??_C@_1BE@JKOKKFEL@?$AA_?$AAw?$AAc?$AAs?$AAn?$AAi?$AAc?$AAm?$AAp?$AA?$AA@ 10111c68     libucrtd:wcsnicmp.obj
 0002:00028c80       ??_C@_1GG@FIFJEMIA@?$AAm?$AAi?$AAn?$AAk?$AAe?$AAr?$AAn?$AAe?$AAl?$AA?2?$AAc?$AAr?$AAt?$AAs?$AA?2?$AAu?$AAc?$AAr?$AAt?$AA?2?$AAs?$AAr?$AAc?$AA?2?$AAa?$AAp?$AAp?$AAc?$AAr?$AAt?$AA?2?$AAs@ 10111c80     libucrtd:strnicmp.obj
 0002:00028cfc       ??_C@_1BI@BJLEPLEF@?$AA_?$AAs?$AAt?$AAr?$AAn?$AAi?$AAc?$AAm?$AAp?$AA_?$AAl?$AA?$AA@ 10111cfc     libucrtd:strnicmp.obj
 0002:00028d18       ??_C@_1BE@BHJDFFNA@?$AA_?$AAs?$AAt?$AAr?$AAn?$AAi?$AAc?$AAm?$AAp?$AA?$AA@ 10111d18     libucrtd:strnicmp.obj
 0002:00028d30       ??_C@_1HK@ELDMAMK@?$AAc?$AAc?$AAh?$AAC?$AAo?$AAu?$AAn?$AAt?$AA1?$AA?$DN?$AA?$DN?$AA0?$AA?5?$AA?$CG?$AA?$CG?$AA?5?$AAc?$AAc?$AAh?$AAC?$AAo?$AAu?$AAn?$AAt?$AA2?$AA?$DN?$AA?$DN?$AA1?$AA?5?$AA?$HM?$AA?$HM?$AA?5@ 10111d30     libucrtd:comparestringa.obj
 0002:00028dc8       ??_C@_1HC@NLKDIKED@?$AAm?$AAi?$AAn?$AAk?$AAe?$AAr?$AAn?$AAe?$AAl?$AA?2?$AAc?$AAr?$AAt?$AAs?$AA?2?$AAu?$AAc?$AAr?$AAt?$AA?2?$AAs?$AAr?$AAc?$AA?2?$AAa?$AAp?$AAp?$AAc?$AAr?$AAt?$AA?2?$AAl@ 10111dc8     libucrtd:comparestringa.obj
 0002:00028e50       ??_C@_0DJ@MBLHFEOE@minkernel?2crts?2ucrt?2src?2appcrt?2l@ 10111e50     libucrtd:comparestringa.obj
 0002:00028e98       ??_C@_1GA@MPOOLHCO@?$AAm?$AAi?$AAn?$AAk?$AAe?$AAr?$AAn?$AAe?$AAl?$AA?2?$AAc?$AAr?$AAt?$AAs?$AA?2?$AAu?$AAc?$AAr?$AAt?$AA?2?$AAs?$AAr?$AAc?$AA?2?$AAa?$AAp?$AAp?$AAc?$AAr?$AAt?$AA?2?$AAl@ 10111e98     libucrtd:commit.obj
 0002:00028f0c       ??_C@_1BA@FLNMBBIM@?$AA_?$AAc?$AAo?$AAm?$AAm?$AAi?$AAt?$AA?$AA@ 10111f0c     libucrtd:commit.obj
 0002:00028f20       ??_C@_1CM@OKGMMMDH@?$AA?$CI?$AA_?$AAo?$AAs?$AAf?$AAi?$AAl?$AAe?$AA?$CI?$AAf?$AAh?$AA?$CJ?$AA?5?$AA?$CG?$AA?5?$AAF?$AAO?$AAP?$AAE?$AAN?$AA?$CJ?$AA?$AA@ 10111f20     libucrtd:commit.obj
 0002:00028f58       ??_C@_1JE@ECKHFIFP@?$AA?$CI?$AA?$CC?$AAI?$AAn?$AAv?$AAa?$AAl?$AAi?$AAd?$AA?5?$AAf?$AAi?$AAl?$AAe?$AA?5?$AAd?$AAe?$AAs?$AAc?$AAr?$AAi?$AAp?$AAt?$AAo?$AAr?$AA?4?$AA?5?$AAF?$AAi?$AAl?$AAe?$AA?5@ 10111f58     libucrtd:commit.obj
 0002:00029010       ??_C@_1FO@CAMPMGCN@?$AAm?$AAi?$AAn?$AAk?$AAe?$AAr?$AAn?$AAe?$AAl?$AA?2?$AAc?$AAr?$AAt?$AAs?$AA?2?$AAu?$AAc?$AAr?$AAt?$AA?2?$AAs?$AAr?$AAc?$AA?2?$AAa?$AAp?$AAp?$AAc?$AAr?$AAt?$AA?2?$AAl@ 10112010     libucrtd:write.obj
 0002:00029080       ??_C@_1O@KOFKDHPL@?$AA_?$AAw?$AAr?$AAi?$AAt?$AAe?$AA?$AA@ 10112080     libucrtd:write.obj
 0002:00029090       ??_C@_1DI@CNMHHHLG@?$AAi?$AAs?$AAl?$AAe?$AAa?$AAd?$AAb?$AAy?$AAt?$AAe?$AA?$CI?$AA_?$AAd?$AAb?$AAc?$AAs?$AAB?$AAu?$AAf?$AAf?$AAe?$AAr?$AA?$CI?$AAf?$AAh?$AA?$CJ?$AA?$CJ?$AA?$AA@ 10112090     libucrtd:write.obj
 0002:000290d4       ??_C@_1BM@NCANHCIP@?$AA_?$AAw?$AAr?$AAi?$AAt?$AAe?$AA_?$AAn?$AAo?$AAl?$AAo?$AAc?$AAk?$AA?$AA@ 101120d4     libucrtd:write.obj
 0002:000290f8       ??_C@_1CK@CPEAGIIP@?$AAb?$AAu?$AAf?$AAf?$AAe?$AAr?$AA_?$AAs?$AAi?$AAz?$AAe?$AA?5?$AA?$CF?$AA?5?$AA2?$AA?5?$AA?$DN?$AA?$DN?$AA?5?$AA0?$AA?$AA@ 101120f8     libucrtd:write.obj
 0002:00029198       ??_C@_1FO@KIIHJNFN@?$AAm?$AAi?$AAn?$AAk?$AAe?$AAr?$AAn?$AAe?$AAl?$AA?2?$AAc?$AAr?$AAt?$AAs?$AA?2?$AAu?$AAc?$AAr?$AAt?$AA?2?$AAs?$AAr?$AAc?$AA?2?$AAa?$AAp?$AAp?$AAc?$AAr?$AAt?$AA?2?$AAl@ 10112198     libucrtd:lseek.obj
 0002:00029208       ??_C@_1BK@JOMBNFIM@?$AAc?$AAo?$AAm?$AAm?$AAo?$AAn?$AA_?$AAl?$AAs?$AAe?$AAe?$AAk?$AA?$AA@ 10112208     libucrtd:lseek.obj
 0002:00029228       ??_C@_1DM@LMLOLGJ@?$AA?$CI?$AA?$CC?$AAI?$AAn?$AAv?$AAa?$AAl?$AAi?$AAd?$AA?5?$AAf?$AAi?$AAl?$AAe?$AA?5?$AAd?$AAe?$AAs?$AAc?$AAr?$AAi?$AAp?$AAt?$AAo?$AAr?$AA?$CC?$AA?0?$AA0?$AA?$CJ?$AA?$AA@ 10112228     libucrtd:lseek.obj
 0002:00029270       ??_C@_1GC@DLDMJFMI@?$AAm?$AAi?$AAn?$AAk?$AAe?$AAr?$AAn?$AAe?$AAl?$AA?2?$AAc?$AAr?$AAt?$AAs?$AA?2?$AAu?$AAc?$AAr?$AAt?$AA?2?$AAs?$AAr?$AAc?$AA?2?$AAa?$AAp?$AAp?$AAc?$AAr?$AAt?$AA?2?$AAs@ 10112270     libucrtd:_getbuf.obj
 0002:000292e8       ??_C@_0DB@LKJPMJPL@minkernel?2crts?2ucrt?2src?2appcrt?2s@ 101122e8     libucrtd:_getbuf.obj
 0002:00029328       ??_C@_1GA@DKNOMDCL@?$AAm?$AAi?$AAn?$AAk?$AAe?$AAr?$AAn?$AAe?$AAl?$AA?2?$AAc?$AAr?$AAt?$AAs?$AA?2?$AAu?$AAc?$AAr?$AAt?$AA?2?$AAs?$AAr?$AAc?$AA?2?$AAa?$AAp?$AAp?$AAc?$AAr?$AAt?$AA?2?$AAs@ 10112328     libucrtd:fclose.obj
 0002:0002939c       ??_C@_1O@EGMJNCOI@?$AAf?$AAc?$AAl?$AAo?$AAs?$AAe?$AA?$AA@ 1011239c     libucrtd:fclose.obj
 0002:000293ac       ??_C@_1BO@JINCABEC@?$AA_?$AAf?$AAc?$AAl?$AAo?$AAs?$AAe?$AA_?$AAn?$AAo?$AAl?$AAo?$AAc?$AAk?$AA?$AA@ 101123ac     libucrtd:fclose.obj
 0002:00029510       ??_C@_1GE@KFPKEKCH@?$AAm?$AAi?$AAn?$AAk?$AAe?$AAr?$AAn?$AAe?$AAl?$AA?2?$AAc?$AAr?$AAt?$AAs?$AA?2?$AAu?$AAc?$AAr?$AAt?$AA?2?$AAs?$AAr?$AAc?$AA?2?$AAa?$AAp?$AAp?$AAc?$AAr?$AAt?$AA?2?$AAt@ 10112510     libucrtd:ieee87.obj
 0002:00029588       ??_C@_1BO@OFDNCLL@?$AA_?$AAs?$AAe?$AAt?$AA_?$AAc?$AAo?$AAn?$AAt?$AAr?$AAo?$AAl?$AAf?$AAp?$AA?$AA@ 10112588     libucrtd:ieee87.obj
 0002:000295b0       ??_C@_1GO@OKJGOMCB@?$AA_?$AAc?$AAo?$AAn?$AAt?$AAr?$AAo?$AAl?$AAf?$AAp?$AA_?$AAs?$AA?$CI?$AA?$CI?$AA?$CI?$AAv?$AAo?$AAi?$AAd?$AA?5?$AA?$CK?$AA?$CJ?$AA0?$AA?$CJ?$AA?0?$AA?5?$AAn?$AAe?$AAw?$AAc?$AAt?$AAr@ 101125b0     libucrtd:ieee87.obj
 0002:00029638       ??_C@_1FO@IPDGALOE@?$AAm?$AAi?$AAn?$AAk?$AAe?$AAr?$AAn?$AAe?$AAl?$AA?2?$AAc?$AAr?$AAt?$AAs?$AA?2?$AAu?$AAc?$AAr?$AAt?$AA?2?$AAs?$AAr?$AAc?$AA?2?$AAa?$AAp?$AAp?$AAc?$AAr?$AAt?$AA?2?$AAl@ 10112638     libucrtd:close.obj
 0002:000296a8       ??_C@_1O@EDEJGJBM@?$AA_?$AAc?$AAl?$AAo?$AAs?$AAe?$AA?$AA@ 101126a8     libucrtd:close.obj
 0002:000296b8       ??_C@_0DA@OGKFKCBE@minkernel?2crts?2ucrt?2src?2appcrt?2s@ 101126b8     libucrtd:stream.obj
 0002:000296f4       ??_C@_1BA@BALFACEM@?$AAC?$AAO?$AAN?$AAO?$AAU?$AAT?$AA$?$AA?$AA@ 101126f4     libucrtd:initcon.obj
 0002:00029710       ___acrt_log10_table_t      10112710     libucrtd:log10_tables.obj
 0002:00029bf0       ___acrt_log10_table_cb     10112bf0     libucrtd:log10_tables.obj
 0002:0002a0d0       ??_C@_1DG@JNDMIEJL@?$AA?$CI?$AA?$CC?$AAI?$AAn?$AAv?$AAa?$AAl?$AAi?$AAd?$AA?5?$AAi?$AAn?$AAp?$AAu?$AAt?$AA?5?$AAv?$AAa?$AAl?$AAu?$AAe?$AA?$CC?$AA?0?$AA?5?$AA0?$AA?$CJ?$AA?$AA@ 101130d0     libucrtd:contrlfp.obj
 0002:0002a110       ??_C@_1FO@HHLKCIKB@?$AAm?$AAi?$AAn?$AAk?$AAe?$AAr?$AAn?$AAe?$AAl?$AA?2?$AAc?$AAr?$AAt?$AAs?$AA?2?$AAu?$AAc?$AAr?$AAt?$AA?2?$AAs?$AAr?$AAc?$AA?2?$AAa?$AAp?$AAp?$AAc?$AAr?$AAt?$AA?2?$AAt@ 10113110     libucrtd:contrlfp.obj
 0002:0002a180       ??_C@_1BK@CDOALEA@?$AA_?$AAc?$AAo?$AAn?$AAt?$AAr?$AAo?$AAl?$AAf?$AAp?$AA_?$AAs?$AA?$AA@ 10113180     libucrtd:contrlfp.obj
 0002:0002a1a0       __pDestructExceptionObject 101131a0     libvcruntimed:frame.obj
 0002:0002a1a8       ??_7bad_exception@std@@6B@ 101131a8     libvcruntimed:frame.obj
 0002:0002a1b4       ??_C@_0O@DPKOEFFH@bad?5exception?$AA@ 101131b4     libvcruntimed:frame.obj
 0002:0002a9d4       ??_R4type_info@@6B@        101139d4     LIBCMTD:std_type_info_static.obj
 0002:0002a9ec       ??_R3type_info@@8          101139ec     LIBCMTD:std_type_info_static.obj
 0002:0002aa00       ??_R2type_info@@8          10113a00     LIBCMTD:std_type_info_static.obj
 0002:0002aa08       ??_R1A@?0A@EA@type_info@@8 10113a08     LIBCMTD:std_type_info_static.obj
 0002:0002aa2c       ??_R4exception@std@@6B@    10113a2c     LIBCMTD:throw_bad_alloc.obj
 0002:0002aa44       ??_R3exception@std@@8      10113a44     LIBCMTD:throw_bad_alloc.obj
 0002:0002aa58       ??_R2exception@std@@8      10113a58     LIBCMTD:throw_bad_alloc.obj
 0002:0002aa60       ??_R1A@?0A@EA@exception@std@@8 10113a60     LIBCMTD:throw_bad_alloc.obj
 0002:0002aa84       ??_R4bad_alloc@std@@6B@    10113a84     LIBCMTD:throw_bad_alloc.obj
 0002:0002aa9c       ??_R3bad_alloc@std@@8      10113a9c     LIBCMTD:throw_bad_alloc.obj
 0002:0002aab0       ??_R2bad_alloc@std@@8      10113ab0     LIBCMTD:throw_bad_alloc.obj
 0002:0002aabc       ??_R1A@?0A@EA@bad_alloc@std@@8 10113abc     LIBCMTD:throw_bad_alloc.obj
 0002:0002aae0       ??_R4bad_array_new_length@std@@6B@ 10113ae0     LIBCMTD:throw_bad_alloc.obj
 0002:0002aaf8       ??_R3bad_array_new_length@std@@8 10113af8     LIBCMTD:throw_bad_alloc.obj
 0002:0002ab0c       ??_R2bad_array_new_length@std@@8 10113b0c     LIBCMTD:throw_bad_alloc.obj
 0002:0002ab1c       ??_R1A@?0A@EA@bad_array_new_length@std@@8 10113b1c     LIBCMTD:throw_bad_alloc.obj
 0002:0002ab40       ??_R4DNameNode@@6B@        10113b40     libvcruntimed:undname.obj
 0002:0002ab58       ??_R3DNameNode@@8          10113b58     libvcruntimed:undname.obj
 0002:0002ab6c       ??_R2DNameNode@@8          10113b6c     libvcruntimed:undname.obj
 0002:0002ab74       ??_R1A@?0A@EA@DNameNode@@8 10113b74     libvcruntimed:undname.obj
 0002:0002ab98       ??_R4charNode@@6B@         10113b98     libvcruntimed:undname.obj
 0002:0002abb0       ??_R3charNode@@8           10113bb0     libvcruntimed:undname.obj
 0002:0002abc4       ??_R2charNode@@8           10113bc4     libvcruntimed:undname.obj
 0002:0002abd0       ??_R1A@?0A@EA@charNode@@8  10113bd0     libvcruntimed:undname.obj
 0002:0002abf4       ??_R4pcharNode@@6B@        10113bf4     libvcruntimed:undname.obj
 0002:0002ac0c       ??_R3pcharNode@@8          10113c0c     libvcruntimed:undname.obj
 0002:0002ac20       ??_R2pcharNode@@8          10113c20     libvcruntimed:undname.obj
 0002:0002ac2c       ??_R1A@?0A@EA@pcharNode@@8 10113c2c     libvcruntimed:undname.obj
 0002:0002ac50       ??_R4pDNameNode@@6B@       10113c50     libvcruntimed:undname.obj
 0002:0002ac68       ??_R3pDNameNode@@8         10113c68     libvcruntimed:undname.obj
 0002:0002ac7c       ??_R2pDNameNode@@8         10113c7c     libvcruntimed:undname.obj
 0002:0002ac88       ??_R1A@?0A@EA@pDNameNode@@8 10113c88     libvcruntimed:undname.obj
 0002:0002acac       ??_R4DNameStatusNode@@6B@  10113cac     libvcruntimed:undname.obj
 0002:0002acc4       ??_R3DNameStatusNode@@8    10113cc4     libvcruntimed:undname.obj
 0002:0002acd8       ??_R2DNameStatusNode@@8    10113cd8     libvcruntimed:undname.obj
 0002:0002ace4       ??_R1A@?0A@EA@DNameStatusNode@@8 10113ce4     libvcruntimed:undname.obj
 0002:0002ad08       ??_R4pairNode@@6B@         10113d08     libvcruntimed:undname.obj
 0002:0002ad20       ??_R3pairNode@@8           10113d20     libvcruntimed:undname.obj
 0002:0002ad34       ??_R2pairNode@@8           10113d34     libvcruntimed:undname.obj
 0002:0002ad40       ??_R1A@?0A@EA@pairNode@@8  10113d40     libvcruntimed:undname.obj
 0002:0002ad64       ??_R4bad_exception@std@@6B@ 10113d64     libvcruntimed:frame.obj
 0002:0002ad7c       ??_R3bad_exception@std@@8  10113d7c     libvcruntimed:frame.obj
 0002:0002ad90       ??_R2bad_exception@std@@8  10113d90     libvcruntimed:frame.obj
 0002:0002ad9c       ??_R1A@?0A@EA@bad_exception@std@@8 10113d9c     libvcruntimed:frame.obj
 0002:0002aee0       ___safe_se_handler_table   10113ee0     <linker-defined>
 0002:0002b1a0       ___rtc_iaa                 101141a0     LIBCMTD:_initsect_.obj
 0002:0002b400       ___rtc_izz                 10114400     LIBCMTD:_initsect_.obj
 0002:0002b504       ___rtc_taa                 10114504     LIBCMTD:_initsect_.obj
 0002:0002b764       ___rtc_tzz                 10114764     LIBCMTD:_initsect_.obj
 0002:0002b928       __TI2?AVbad_alloc@std@@    10114928     LIBCMTD:throw_bad_alloc.obj
 0002:0002b93c       __CTA2?AVbad_alloc@std@@   1011493c     LIBCMTD:throw_bad_alloc.obj
 0002:0002b94c       __CT??_R0?AVbad_alloc@std@@@8??0bad_alloc@std@@QAE@ABV01@@Z12 1011494c     LIBCMTD:throw_bad_alloc.obj
 0002:0002b96c       __CT??_R0?AVexception@std@@@8??0exception@std@@QAE@ABV01@@Z12 1011496c     LIBCMTD:throw_bad_alloc.obj
 0002:0002b98c       __TI3?AVbad_array_new_length@std@@ 1011498c     LIBCMTD:throw_bad_alloc.obj
 0002:0002b9a0       __CTA3?AVbad_array_new_length@std@@ 101149a0     LIBCMTD:throw_bad_alloc.obj
 0002:0002b9b4       __CT??_R0?AVbad_array_new_length@std@@@8??0bad_array_new_length@std@@QAE@ABV01@@Z12 101149b4     LIBCMTD:throw_bad_alloc.obj
 0002:0002c478       __TI2?AVbad_exception@std@@ 10115478     libvcruntimed:frame.obj
 0002:0002c48c       __CTA2?AVbad_exception@std@@ 1011548c     libvcruntimed:frame.obj
 0002:0002c49c       __CT??_R0?AVbad_exception@std@@@8??0bad_exception@std@@QAE@ABV01@@Z12 1011549c     libvcruntimed:frame.obj
 0003:00000000       ___pfnDliNotifyHook2       10116000     WindowsCookingDelayLoadHook.obj
 0003:00000004       ?er@?1??neib@Tri@local@@QAEAAHHH@Z@4HA 10116004     InflationConvexHullLib.obj
 0003:00000008       __fltused                  10116008     LIBCMTD:fltused.obj
 0003:00000010       ___security_cookie_complement 10116010     LIBCMTD:gs_cookie.obj
 0003:00000014       ___security_cookie         10116014     LIBCMTD:gs_cookie.obj
 0003:0000001c       ___scrt_native_dllmain_reason 1011601c     LIBCMTD:utility.obj
 0003:00000020       ?_RTC_ErrorLevels@@3PAHA   10116020     LIBCMTD:_error_.obj
 0003:00000038       ___isa_enabled             10116038     LIBCMTD:_cpu_disp_.obj
 0003:00000050       __NLG_Destination          10116050     libvcruntimed:_exsup_.obj
 0003:00000074       __crtDbgFlag               10116074     libucrtd:debug_heap.obj
 0003:00000078       __crtBreakAlloc            10116078     libucrtd:debug_heap.obj
 0003:0000007c       ___abort_behavior          1011607c     libucrtd:abort.obj
 0003:00000090       __CrtDbgMode               10116090     libucrtd:dbgrptt.obj
 0003:000000a0       __CrtDbgFile               101160a0     libucrtd:dbgrptt.obj
 0003:000000b0       __crtAssertBusy            101160b0     libucrtd:dbgrptt.obj
 0003:000000c4       __pfnAllocHook             101160c4     libucrtd:debug_heap_hook.obj
 0003:000000cc       ___mb_cur_max              101160cc     libucrtd:nlsdata.obj
 0003:000000d0       ___acrt_initial_locale_data 101160d0     libucrtd:nlsdata.obj
 0003:000001ac       ___acrt_initial_locale_pointers 101161ac     libucrtd:nlsdata.obj
 0003:000001b8       ___acrt_wide_c_locale_string 101161b8     libucrtd:nlsdata.obj
 0003:000002e0       __mbctype                  101162e0     libucrtd:mbctype.obj
 0003:00000418       __mbcasemap                10116418     libucrtd:mbctype.obj
 0003:00000550       ___acrt_initial_multibyte_data 10116550     libucrtd:mbctype.obj
 0003:000007dc       ___acrt_current_multibyte_data 101167dc     libucrtd:mbctype.obj
 0003:000007e0       ___badioinfo               101167e0     libucrtd:ioinit.obj
 0003:00000820       __iob                      10116820     libucrtd:_file.obj
 0003:000008ec       ___globallocalestatus      101168ec     libucrtd:glstatus.obj
 0003:000008f0       __pctype                   101168f0     libucrtd:ctype.obj
 0003:000008f4       __pwctype                  101168f4     libucrtd:ctype.obj
 0003:000008f8       ___acrt_lconv_static_decimal 101168f8     libucrtd:localeconv.obj
 0003:000008fc       ___acrt_lconv_static_W_decimal 101168fc     libucrtd:localeconv.obj
 0003:00000900       ___acrt_lconv_c            10116900     libucrtd:localeconv.obj
 0003:00000960       ___acrt_lconv              10116960     libucrtd:localeconv.obj
 0003:00000970       ___dcrt_lowio_console_output_handle 10116970     libucrtd:initcon.obj
 0003:00000ab0       ??_R0?AVEdgeListBuilder@Gu@physx@@@8 10116ab0     TriangleMeshBuilder.obj
 0003:00000ae0       ??_R0?AVBV32Tree@Gu@physx@@@8 10116ae0     TriangleMeshBuilder.obj
 0003:00000b08       ??_R0E@8                   10116b08     TriangleMeshBuilder.obj
 0003:00000b18       ??_R0I@8                   10116b18     TriangleMeshBuilder.obj
 0003:00000b28       ??_R0G@8                   10116b28     TriangleMeshBuilder.obj
 0003:00000b38       ??_R0?AUValency@Gu@physx@@@8 10116b38     BigConvexDataBuilder.obj
 0003:00000b60       ??_R0?AUEdgeDescData@Gu@physx@@@8 10116b60     ConvexHullBuilder.obj
 0003:00000b8c       ??_R0_N@8                  10116b8c     ConvexHullBuilder.obj
 0003:00000b9c       ??_R0?AVConvexHull@physx@@@8 10116b9c     ConvexHullUtils.obj
 0003:00000bc4       ??_R0?AVBigConvexData@physx@@@8 10116bc4     ConvexMeshBuilder.obj
 0003:00000bec       ??_R0?AUHullTriangleData@physx@@@8 10116bec     ConvexPolygonsBuilder.obj
 0003:00000c18       ??_R0?AUPxHullPolygon@physx@@@8 10116c18     InflationConvexHullLib.obj
 0003:00000c40       ??_R0?AVTri@local@@@8      10116c40     InflationConvexHullLib.obj
 0003:00000c5c       ??_R0?AVQuickHull@local@@@8 10116c5c     QuickHullConvexHullLib.obj
 0003:00000c80       ??_R0?AVAdjEdge@@@8        10116c80     Adjacencies.obj
 0003:00000c9c       ??_R0?AVAdjTriangle@physx@@@8 10116c9c     Adjacencies.obj
 0003:00000cc4       ??_R0?AVHeightField@Gu@physx@@@8 10116cc4     Cooking.obj
 0003:00000cf0       ??_R0?AVCooking@physx@@@8  10116cf0     Cooking.obj
 0003:00000d14       ??_R0?AVQuickHullConvexHullLib@physx@@@8 10116d14     Cooking.obj
 0003:00000d48       ??_R0?AVInflationConvexHullLib@physx@@@8 10116d48     Cooking.obj
 0003:00000d7c       ??_R0M@8                   10116d7c     CookingUtils.obj
 0003:00000d8c       ??_R0?AUEdgeData@Gu@physx@@@8 10116d8c     EdgeList.obj
 0003:00000db4       ??_R0?AUEdgeTriangleData@Gu@physx@@@8 10116db4     EdgeList.obj
 0003:00000de4       ??_R0?AVQuantizerImpl@@@8  10116de4     Quantizer.obj
 0003:00000e08       ??_R0?AVtype_info@@@8      10116e08     LIBCMTD:std_type_info_static.obj
 0003:00000e24       ??_R0?AVbad_alloc@std@@@8  10116e24     LIBCMTD:throw_bad_alloc.obj
 0003:00000e48       ??_R0?AVexception@std@@@8  10116e48     LIBCMTD:throw_bad_alloc.obj
 0003:00000e6c       ??_R0?AVbad_array_new_length@std@@@8 10116e6c     LIBCMTD:throw_bad_alloc.obj
 0003:00000e9c       ??_R0?AVDNameNode@@@8      10116e9c     libvcruntimed:undname.obj
 0003:00000eb8       ??_R0?AVcharNode@@@8       10116eb8     libvcruntimed:undname.obj
 0003:00000ed4       ??_R0?AVpcharNode@@@8      10116ed4     libvcruntimed:undname.obj
 0003:00000ef0       ??_R0?AVpDNameNode@@@8     10116ef0     libvcruntimed:undname.obj
 0003:00000f10       ??_R0?AVDNameStatusNode@@@8 10116f10     libvcruntimed:undname.obj
 0003:00000f34       ??_R0?AVpairNode@@@8       10116f34     libvcruntimed:undname.obj
 0003:00000f50       ??_R0?AVbad_exception@std@@@8 10116f50     libvcruntimed:frame.obj
 0003:00001094       ?_ignore@?2???APxVec3@physx@@QBEABMI@Z@4_NA 10117094     HeightFieldCooking.obj
 0003:00001095       ?_ignore@?2??isInside@PxBounds3@physx@@QBE_NABV23@@Z@4_NA 10117095     RTreeCooking.obj
 0003:00001113       ?_ignore@?2??V4StoreA@aos@shdfnd@physx@@YAXT__m128@@PAM@Z@4_NA 10117113     RTreeCooking.obj
 0003:00001114       ?_ignore@?2??FStore@aos@shdfnd@physx@@YAXT__m128@@PIAM@Z@4_NA 10117114     RTreeCooking.obj
 0003:00001115       ?_ignore@?2??V3StoreA@aos@shdfnd@physx@@YAXT__m128@@AAVPxVec3@4@@Z@4_NA 10117115     RTreeCooking.obj
 0003:00001116       ?_ignore@?2??V3Splat@aos@shdfnd@physx@@YA?AT__m128@@T5@@Z@4_NA 10117116     RTreeCooking.obj
 0003:00001117       ?_ignore@?2??V3Add@aos@shdfnd@physx@@YA?AT__m128@@T5@0@Z@4_NA 10117117     RTreeCooking.obj
 0003:00001118       ?_ignore@?3??V3Add@aos@shdfnd@physx@@YA?AT__m128@@T5@0@Z@4_NA 10117118     RTreeCooking.obj
 0003:00001119       ?_ignore@?2??V3Sub@aos@shdfnd@physx@@YA?AT__m128@@T5@0@Z@4_NA 10117119     RTreeCooking.obj
 0003:0000111a       ?_ignore@?3??V3Sub@aos@shdfnd@physx@@YA?AT__m128@@T5@0@Z@4_NA 1011711a     RTreeCooking.obj
 0003:0000111b       ?_ignore@?2??V3Dot@aos@shdfnd@physx@@YA?AT__m128@@T5@0@Z@4_NA 1011711b     RTreeCooking.obj
 0003:0000111c       ?_ignore@?3??V3Dot@aos@shdfnd@physx@@YA?AT__m128@@T5@0@Z@4_NA 1011711c     RTreeCooking.obj
 0003:0000111d       ?_ignore@?2??V3Max@aos@shdfnd@physx@@YA?AT__m128@@T5@0@Z@4_NA 1011711d     RTreeCooking.obj
 0003:0000111e       ?_ignore@?3??V3Max@aos@shdfnd@physx@@YA?AT__m128@@T5@0@Z@4_NA 1011711e     RTreeCooking.obj
 0003:0000111f       ?_ignore@?2??V3Min@aos@shdfnd@physx@@YA?AT__m128@@T5@0@Z@4_NA 1011711f     RTreeCooking.obj
 0003:00001120       ?_ignore@?3??V3Min@aos@shdfnd@physx@@YA?AT__m128@@T5@0@Z@4_NA 10117120     RTreeCooking.obj
 0003:00001121       ?_ignore@?2??V3PermZXY@aos@shdfnd@physx@@YA?AT__m128@@T5@@Z@4_NA 10117121     RTreeCooking.obj
 0003:00001123       ?_ignore@?5??sort4@SubSortQuick@physx@@QAEXPIAIIAAV?$Array@URTreeNodeNQ@physx@@VNamedAllocator@shdfnd@2@@shdfnd@3@AAIAAUPxBounds3V@3@I@Z@4_NA 10117123     RTreeCooking.obj
 0003:00001124       ?_ignore@?6??sort4@SubSortQuick@physx@@QAEXPIAIIAAV?$Array@URTreeNodeNQ@physx@@VNamedAllocator@shdfnd@2@@shdfnd@3@AAIAAUPxBounds3V@3@I@Z@4_NA 10117124     RTreeCooking.obj
 0003:00001125       ?_ignore@?7??sort4@SubSortQuick@physx@@QAEXPIAIIAAV?$Array@URTreeNodeNQ@physx@@VNamedAllocator@shdfnd@2@@shdfnd@3@AAIAAUPxBounds3V@3@I@Z@4_NA 10117125     RTreeCooking.obj
 0003:00001126       ?_ignore@?8??sort4@SubSortQuick@physx@@QAEXPIAIIAAV?$Array@URTreeNodeNQ@physx@@VNamedAllocator@shdfnd@2@@shdfnd@3@AAIAAUPxBounds3V@3@I@Z@4_NA 10117126     RTreeCooking.obj
 0003:00001127       ?_ignore@?M@??sort4@SubSortQuick@physx@@QAEXPIAIIAAV?$Array@URTreeNodeNQ@physx@@VNamedAllocator@shdfnd@2@@shdfnd@3@AAIAAUPxBounds3V@3@I@Z@4_NA 10117127     RTreeCooking.obj
 0003:00001128       ?_ignore@?BH@??sort4@SubSortQuick@physx@@QAEXPIAIIAAV?$Array@URTreeNodeNQ@physx@@VNamedAllocator@shdfnd@2@@shdfnd@3@AAIAAUPxBounds3V@3@I@Z@4_NA 10117128     RTreeCooking.obj
 0003:00001129       ?_ignore@?6??split@SubSortSAH@physx@@QAEIPAII@Z@4_NA 10117129     RTreeCooking.obj
 0003:0000112a       ?_ignore@?7??split@SubSortSAH@physx@@QAEIPAII@Z@4_NA 1011712a     RTreeCooking.obj
 0003:0000112b       ?_ignore@?8??split@SubSortSAH@physx@@QAEIPAII@Z@4_NA 1011712b     RTreeCooking.obj
 0003:0000112c       ?_ignore@?9??split@SubSortSAH@physx@@QAEIPAII@Z@4_NA 1011712c     RTreeCooking.obj
 0003:0000112d       ?_ignore@?L@??split@SubSortSAH@physx@@QAEIPAII@Z@4_NA 1011712d     RTreeCooking.obj
 0003:0000112e       ?_ignore@?BO@??split@SubSortSAH@physx@@QAEIPAII@Z@4_NA 1011712e     RTreeCooking.obj
 0003:0000112f       ?_ignore@?CB@??split@SubSortSAH@physx@@QAEIPAII@Z@4_NA 1011712f     RTreeCooking.obj
 0003:00001130       ?_ignore@?2??computeSA@SubSortSAH@physx@@QAEMPBIABUInterval@3@@Z@4_NA 10117130     RTreeCooking.obj
 0003:00001131       ?_ignore@?BD@??sort4@SubSortSAH@physx@@QAEXPAIIAAV?$Array@URTreeNodeNQ@physx@@VNamedAllocator@shdfnd@2@@shdfnd@3@AAIIPAURTreeNodeNQ@3@@Z@4_NA 10117131     RTreeCooking.obj
 0003:00001132       ?_ignore@?BE@??sort4@SubSortSAH@physx@@QAEXPAIIAAV?$Array@URTreeNodeNQ@physx@@VNamedAllocator@shdfnd@2@@shdfnd@3@AAIIPAURTreeNodeNQ@3@@Z@4_NA 10117132     RTreeCooking.obj
 0003:00001133       ?_ignore@?BF@??sort4@SubSortSAH@physx@@QAEXPAIIAAV?$Array@URTreeNodeNQ@physx@@VNamedAllocator@shdfnd@2@@shdfnd@3@AAIIPAURTreeNodeNQ@3@@Z@4_NA 10117133     RTreeCooking.obj
 0003:00001134       ?_ignore@?BG@??sort4@SubSortSAH@physx@@QAEXPAIIAAV?$Array@URTreeNodeNQ@physx@@VNamedAllocator@shdfnd@2@@shdfnd@3@AAIIPAURTreeNodeNQ@3@@Z@4_NA 10117134     RTreeCooking.obj
 0003:00001135       ?_ignore@?BH@??sort4@SubSortSAH@physx@@QAEXPAIIAAV?$Array@URTreeNodeNQ@physx@@VNamedAllocator@shdfnd@2@@shdfnd@3@AAIIPAURTreeNodeNQ@3@@Z@4_NA 10117135     RTreeCooking.obj
 0003:00001136       ?_ignore@?BJ@??sort4@SubSortSAH@physx@@QAEXPAIIAAV?$Array@URTreeNodeNQ@physx@@VNamedAllocator@shdfnd@2@@shdfnd@3@AAIIPAURTreeNodeNQ@3@@Z@4_NA 10117136     RTreeCooking.obj
 0003:00001137       ?_ignore@?BP@??sort4@SubSortSAH@physx@@QAEXPAIIAAV?$Array@URTreeNodeNQ@physx@@VNamedAllocator@shdfnd@2@@shdfnd@3@AAIIPAURTreeNodeNQ@3@@Z@4_NA 10117137     RTreeCooking.obj
 0003:00001138       ?_ignore@?CA@??sort4@SubSortSAH@physx@@QAEXPAIIAAV?$Array@URTreeNodeNQ@physx@@VNamedAllocator@shdfnd@2@@shdfnd@3@AAIIPAURTreeNodeNQ@3@@Z@4_NA 10117138     RTreeCooking.obj
 0003:00001139       ?_ignore@?CB@??sort4@SubSortSAH@physx@@QAEXPAIIAAV?$Array@URTreeNodeNQ@physx@@VNamedAllocator@shdfnd@2@@shdfnd@3@AAIIPAURTreeNodeNQ@3@@Z@4_NA 10117139     RTreeCooking.obj
 0003:0000113a       ?_ignore@?CC@??sort4@SubSortSAH@physx@@QAEXPAIIAAV?$Array@URTreeNodeNQ@physx@@VNamedAllocator@shdfnd@2@@shdfnd@3@AAIIPAURTreeNodeNQ@3@@Z@4_NA 1011713a     RTreeCooking.obj
 0003:0000113b       ?_ignore@?CD@??sort4@SubSortSAH@physx@@QAEXPAIIAAV?$Array@URTreeNodeNQ@physx@@VNamedAllocator@shdfnd@2@@shdfnd@3@AAIIPAURTreeNodeNQ@3@@Z@4_NA 1011713b     RTreeCooking.obj
 0003:0000113c       ?_ignore@?DD@??sort4@SubSortSAH@physx@@QAEXPAIIAAV?$Array@URTreeNodeNQ@physx@@VNamedAllocator@shdfnd@2@@shdfnd@3@AAIIPAURTreeNodeNQ@3@@Z@4_NA 1011713c     RTreeCooking.obj
 0003:0000113d       ?_ignore@?DI@??sort4@SubSortSAH@physx@@QAEXPAIIAAV?$Array@URTreeNodeNQ@physx@@VNamedAllocator@shdfnd@2@@shdfnd@3@AAIIPAURTreeNodeNQ@3@@Z@4_NA 1011713d     RTreeCooking.obj
 0003:00001146       ?_ignore@?2???A?$Array@URTreeNodeQ@Gu@physx@@VNamedAllocator@shdfnd@3@@shdfnd@physx@@QAEAAURTreeNodeQ@Gu@3@I@Z@4_NA 10117146     RTreeCooking.obj
 0003:00001147       ?_ignore@?2??replaceWithLast@?$Array@UInterval@physx@@V?$InlineAllocator@$0CA@VNamedAllocator@shdfnd@physx@@@shdfnd@2@@shdfnd@physx@@QAEXI@Z@4_NA 10117147     RTreeCooking.obj
 0003:00001148       ?_ignore@?2???A?$Array@UInterval@physx@@V?$InlineAllocator@$0CA@VNamedAllocator@shdfnd@physx@@@shdfnd@2@@shdfnd@physx@@QAEAAUInterval@3@I@Z@4_NA 10117148     RTreeCooking.obj
 0003:00001149       ?_ignore@?2???A?$Array@URTreeNodeNQ@physx@@VNamedAllocator@shdfnd@2@@shdfnd@physx@@QAEAAURTreeNodeNQ@3@I@Z@4_NA 10117149     RTreeCooking.obj
 0003:0000114a       ?_ignore@?2??popBack@?$Array@IVNamedAllocator@shdfnd@physx@@@shdfnd@physx@@QAEIXZ@4_NA 1011714a     RTreeCooking.obj
 0003:0000114b       ?_ignore@?2???A?$Array@IVNamedAllocator@shdfnd@physx@@@shdfnd@physx@@QAEAAII@Z@4_NA 1011714b     RTreeCooking.obj
 0003:0000114c       ?_ignore@?2??grow@?$Array@URTreeNodeQ@Gu@physx@@VNamedAllocator@shdfnd@3@@shdfnd@physx@@IAEXI@Z@4_NA 1011714c     RTreeCooking.obj
 0003:0000114d       ?_ignore@?2??grow@?$Array@URTreeNodeNQ@physx@@VNamedAllocator@shdfnd@2@@shdfnd@physx@@IAEXI@Z@4_NA 1011714d     RTreeCooking.obj
 0003:0000114e       ?_ignore@?2??grow@?$Array@VPxVec3@physx@@VNamedAllocator@shdfnd@2@@shdfnd@physx@@IAEXI@Z@4_NA 1011714e     RTreeCooking.obj
 0003:0000114f       ?_ignore@?2??grow@?$Array@UPxBounds3V@physx@@VNamedAllocator@shdfnd@2@@shdfnd@physx@@IAEXI@Z@4_NA 1011714f     RTreeCooking.obj
 0003:00001150       ?_ignore@?2??grow@?$Array@IVNamedAllocator@shdfnd@physx@@@shdfnd@physx@@IAEXI@Z@4_NA 10117150     RTreeCooking.obj
 0003:00001151       ?_ignore@?2??growAndPushBack@?$Array@IVNamedAllocator@shdfnd@physx@@@shdfnd@physx@@IAEAAIABI@Z@4_NA 10117151     RTreeCooking.obj
 0003:00001152       ?_ignore@?2??recreate@?$Array@IVNamedAllocator@shdfnd@physx@@@shdfnd@physx@@IAEXI@Z@4_NA 10117152     RTreeCooking.obj
 0003:00001153       ?_ignore@?2??growAndPushBack@?$Array@UPxBounds3V@physx@@VNamedAllocator@shdfnd@2@@shdfnd@physx@@IAEAAUPxBounds3V@4@ABU54@@Z@4_NA 10117153     RTreeCooking.obj
 0003:00001154       ?_ignore@?2??recreate@?$Array@UPxBounds3V@physx@@VNamedAllocator@shdfnd@2@@shdfnd@physx@@IAEXI@Z@4_NA 10117154     RTreeCooking.obj
 0003:00001155       ?_ignore@?2??growAndPushBack@?$Array@VPxVec3@physx@@VNamedAllocator@shdfnd@2@@shdfnd@physx@@IAEAAVPxVec3@4@ABV54@@Z@4_NA 10117155     RTreeCooking.obj
 0003:00001156       ?_ignore@?2??recreate@?$Array@VPxVec3@physx@@VNamedAllocator@shdfnd@2@@shdfnd@physx@@IAEXI@Z@4_NA 10117156     RTreeCooking.obj
 0003:00001157       ?_ignore@?2??growAndPushBack@?$Array@URTreeNodeNQ@physx@@VNamedAllocator@shdfnd@2@@shdfnd@physx@@IAEAAURTreeNodeNQ@4@ABU54@@Z@4_NA 10117157     RTreeCooking.obj
 0003:00001158       ?_ignore@?2??recreate@?$Array@URTreeNodeNQ@physx@@VNamedAllocator@shdfnd@2@@shdfnd@physx@@IAEXI@Z@4_NA 10117158     RTreeCooking.obj
 0003:00001159       ?_ignore@?2???$quickSelectFirstK@UBoundsLTE@physx@@@quickSelect@physx@@YAXPIAIIIIABUBoundsLTE@2@@Z@4_NA 10117159     RTreeCooking.obj
 0003:0000115a       ?_ignore@?M@???$quickSelectFirstK@UBoundsLTE@physx@@@quickSelect@physx@@YAXPIAIIIIABUBoundsLTE@2@@Z@4_NA 1011715a     RTreeCooking.obj
 0003:0000115b       ?_ignore@?2??growAndPushBack@?$Array@UInterval@physx@@V?$InlineAllocator@$0CA@VNamedAllocator@shdfnd@physx@@@shdfnd@2@@shdfnd@physx@@IAEAAUInterval@4@ABU54@@Z@4_NA 1011715b     RTreeCooking.obj
 0003:0000115c       ?_ignore@?2??growAndPushBack@?$Array@URTreeNodeQ@Gu@physx@@VNamedAllocator@shdfnd@3@@shdfnd@physx@@IAEAAURTreeNodeQ@Gu@4@ABU564@@Z@4_NA 1011715c     RTreeCooking.obj
 0003:0000115d       ?_ignore@?2??recreate@?$Array@URTreeNodeQ@Gu@physx@@VNamedAllocator@shdfnd@3@@shdfnd@physx@@IAEXI@Z@4_NA 1011715d     RTreeCooking.obj
 0003:0000115e       ?_ignore@?2???$partition@UBoundsLTE@physx@@@quickSelect@physx@@YAIPIAIIIIABUBoundsLTE@2@@Z@4_NA 1011715e     RTreeCooking.obj
 0003:0000115f       ?_ignore@?M@???$partition@UBoundsLTE@physx@@@quickSelect@physx@@YAIPIAIIIIABUBoundsLTE@2@@Z@4_NA 1011715f     RTreeCooking.obj
 0003:00001160       ?_ignore@?O@???$partition@UBoundsLTE@physx@@@quickSelect@physx@@YAIPIAIIIIABUBoundsLTE@2@@Z@4_NA 10117160     RTreeCooking.obj
 0003:00001161       ?_ignore@?O@???$sort@IU?$Less@I@shdfnd@physx@@VNamedAllocator@23@@shdfnd@physx@@YAXPAIIABU?$Less@I@12@ABVNamedAllocator@12@I@Z@4_NA 10117161     RTreeCooking.obj
 0003:00001162       ?_ignore@?BM@???$sort@IU?$Less@I@shdfnd@physx@@VNamedAllocator@23@@shdfnd@physx@@YAXPAIIABU?$Less@I@12@ABVNamedAllocator@12@I@Z@4_NA 10117162     RTreeCooking.obj
 0003:00001163       ?_ignore@?O@???$sort@IUSortBoundsPredicate@physx@@VNamedAllocator@shdfnd@2@@shdfnd@physx@@YAXPAIIABUSortBoundsPredicate@2@ABVNamedAllocator@12@I@Z@4_NA 10117163     RTreeCooking.obj
 0003:00001164       ?_ignore@?BM@???$sort@IUSortBoundsPredicate@physx@@VNamedAllocator@shdfnd@2@@shdfnd@physx@@YAXPAIIABUSortBoundsPredicate@2@ABVNamedAllocator@12@I@Z@4_NA 10117164     RTreeCooking.obj
 0003:00001165       ?_ignore@?2??pop@?$Stack@VNamedAllocator@shdfnd@physx@@@internal@shdfnd@physx@@QAEXAAH0@Z@4_NA 10117165     RTreeCooking.obj
 0003:00001166       ?_ignore@?8???$partition@I$$CBU?$Less@I@shdfnd@physx@@@internal@shdfnd@physx@@YAHPAIHHABU?$Less@I@23@@Z@4_NA 10117166     RTreeCooking.obj
 0003:00001167       ?_ignore@?9???$partition@I$$CBU?$Less@I@shdfnd@physx@@@internal@shdfnd@physx@@YAHPAIHHABU?$Less@I@23@@Z@4_NA 10117167     RTreeCooking.obj
 0003:00001168       ?_ignore@?8???$partition@I$$CBUSortBoundsPredicate@physx@@@internal@shdfnd@physx@@YAHPAIHHABUSortBoundsPredicate@3@@Z@4_NA 10117168     RTreeCooking.obj
 0003:00001169       ?_ignore@?9???$partition@I$$CBUSortBoundsPredicate@physx@@@internal@shdfnd@physx@@YAHPAIHHABUSortBoundsPredicate@3@@Z@4_NA 10117169     RTreeCooking.obj
 0003:0000116a       ?_ignore@?2???APxVec3@physx@@QAEAAMI@Z@4_NA 1011716a     TriangleMeshBuilder.obj
 0003:000011e3       ?_ignore@?2??LeafSetData@Gu@physx@@YAIII@Z@4_NA 101171e3     TriangleMeshBuilder.obj
 0003:000011e4       ?_ignore@?3??LeafSetData@Gu@physx@@YAIII@Z@4_NA 101171e4     TriangleMeshBuilder.obj
 0003:000011e5       ?_ignore@?2??allocateVertices@TriangleMeshData@Gu@physx@@QAEPAVPxVec3@4@I@Z@4_NA 101171e5     TriangleMeshBuilder.obj
 0003:000011e6       ?_ignore@?2??allocateTriangles@TriangleMeshData@Gu@physx@@QAEPAXI_NI@Z@4_NA 101171e6     TriangleMeshBuilder.obj
 0003:000011e7       ?_ignore@?3??allocateTriangles@TriangleMeshData@Gu@physx@@QAEPAXI_NI@Z@4_NA 101171e7     TriangleMeshBuilder.obj
 0003:000011e8       ?_ignore@?2??allocateMaterials@TriangleMeshData@Gu@physx@@QAEPAGXZ@4_NA 101171e8     TriangleMeshBuilder.obj
 0003:000011e9       ?_ignore@?3??allocateMaterials@TriangleMeshData@Gu@physx@@QAEPAGXZ@4_NA 101171e9     TriangleMeshBuilder.obj
 0003:000011ea       ?_ignore@?2??setTriangleAdjacency@TriangleMeshData@Gu@physx@@QAEXIII@Z@4_NA 101171ea     TriangleMeshBuilder.obj
 0003:000011eb       ?_ignore@?2??to16@shdfnd@physx@@YAGI@Z@4_NA 101171eb     TriangleMeshBuilder.obj
 0003:00001200       ?_ignore@?2??remap@RTreeCookerRemap@physx@@UAEXPAIII@Z@4_NA 10117200     TriangleMeshBuilder.obj
 0003:00001201       ?_ignore@?3??remap@RTreeCookerRemap@physx@@UAEXPAIII@Z@4_NA 10117201     TriangleMeshBuilder.obj
 0003:00001202       ?_ignore@?4??remap@RTreeCookerRemap@physx@@UAEXPAIII@Z@4_NA 10117202     TriangleMeshBuilder.obj
 0003:00001203       ?_ignore@?5??remap@RTreeCookerRemap@physx@@UAEXPAIII@Z@4_NA 10117203     TriangleMeshBuilder.obj
 0003:00001204       ?_ignore@?6??remap@RTreeCookerRemap@physx@@UAEXPAIII@Z@4_NA 10117204     TriangleMeshBuilder.obj
 0003:00001206       ?_ignore@?2???A?$Array@USharpEdgeRange@GrbTrimeshCookerHelper@physx@@VNamedAllocator@shdfnd@3@@shdfnd@physx@@QAEAAUSharpEdgeRange@GrbTrimeshCookerHelper@3@I@Z@4_NA 10117206     TriangleMeshBuilder.obj
 0003:00001207       ?_ignore@?2???A?$Array@USortedNeighbor@GrbTrimeshCookerHelper@physx@@VNamedAllocator@shdfnd@3@@shdfnd@physx@@QAEAAUSortedNeighbor@GrbTrimeshCookerHelper@3@I@Z@4_NA 10117207     TriangleMeshBuilder.obj
 0003:00001208       ?_ignore@?2??growAndPushBack@?$Array@USortedNeighbor@GrbTrimeshCookerHelper@physx@@VNamedAllocator@shdfnd@3@@shdfnd@physx@@IAEAAUSortedNeighbor@GrbTrimeshCookerHelper@4@ABU564@@Z@4_NA 10117208     TriangleMeshBuilder.obj
 0003:00001209       ?_ignore@?2??grow@?$Array@USharpEdgeRange@GrbTrimeshCookerHelper@physx@@VNamedAllocator@shdfnd@3@@shdfnd@physx@@IAEXI@Z@4_NA 10117209     TriangleMeshBuilder.obj
 0003:0000120a       ?_ignore@?2??grow@?$Array@USortedNeighbor@GrbTrimeshCookerHelper@physx@@VNamedAllocator@shdfnd@3@@shdfnd@physx@@IAEXI@Z@4_NA 1011720a     TriangleMeshBuilder.obj
 0003:0000120b       ?_ignore@?2??recreate@?$Array@USortedNeighbor@GrbTrimeshCookerHelper@physx@@VNamedAllocator@shdfnd@3@@shdfnd@physx@@IAEXI@Z@4_NA 1011720b     TriangleMeshBuilder.obj
 0003:0000120c       ?_ignore@?2??recreate@?$Array@USharpEdgeRange@GrbTrimeshCookerHelper@physx@@VNamedAllocator@shdfnd@3@@shdfnd@physx@@IAEXI@Z@4_NA 1011720c     TriangleMeshBuilder.obj
 0003:0000120d       ?_ignore@?O@???$sort@UEdgeTriLookup@physx@@U?$Less@UEdgeTriLookup@physx@@@shdfnd@2@VNamedAllocator@42@@shdfnd@physx@@YAXPAUEdgeTriLookup@2@IABU?$Less@UEdgeTriLookup@physx@@@12@ABVNamedAllocator@12@I@Z@4_NA 1011720d     TriangleMeshBuilder.obj
 0003:0000120e       ?_ignore@?BM@???$sort@UEdgeTriLookup@physx@@U?$Less@UEdgeTriLookup@physx@@@shdfnd@2@VNamedAllocator@42@@shdfnd@physx@@YAXPAUEdgeTriLookup@2@IABU?$Less@UEdgeTriLookup@physx@@@12@ABVNamedAllocator@12@I@Z@4_NA 1011720e     TriangleMeshBuilder.obj
 0003:0000120f       ?_ignore@?O@???$sort@USortedNeighbor@GrbTrimeshCookerHelper@physx@@U?$Less@USortedNeighbor@GrbTrimeshCookerHelper@physx@@@shdfnd@3@VNamedAllocator@53@@shdfnd@physx@@YAXPAUSortedNeighbor@GrbTrimeshCookerHelper@2@IABU?$Less@USortedNeighbor@GrbTrimeshCookerHelper@physx@@@12@ABVNamedAllocator@12@I@Z@4_NA 1011720f     TriangleMeshBuilder.obj
 0003:00001210       ?_ignore@?BM@???$sort@USortedNeighbor@GrbTrimeshCookerHelper@physx@@U?$Less@USortedNeighbor@GrbTrimeshCookerHelper@physx@@@shdfnd@3@VNamedAllocator@53@@shdfnd@physx@@YAXPAUSortedNeighbor@GrbTrimeshCookerHelper@2@IABU?$Less@USortedNeighbor@GrbTrimeshCookerHelper@physx@@@12@ABVNamedAllocator@12@I@Z@4_NA 10117210     TriangleMeshBuilder.obj
 0003:00001211       ?_ignore@?8???$partition@UEdgeTriLookup@physx@@$$CBU?$Less@UEdgeTriLookup@physx@@@shdfnd@2@@internal@shdfnd@physx@@YAHPAUEdgeTriLookup@3@HHABU?$Less@UEdgeTriLookup@physx@@@23@@Z@4_NA 10117211     TriangleMeshBuilder.obj
 0003:00001212       ?_ignore@?9???$partition@UEdgeTriLookup@physx@@$$CBU?$Less@UEdgeTriLookup@physx@@@shdfnd@2@@internal@shdfnd@physx@@YAHPAUEdgeTriLookup@3@HHABU?$Less@UEdgeTriLookup@physx@@@23@@Z@4_NA 10117212     TriangleMeshBuilder.obj
 0003:00001213       ?_ignore@?8???$partition@USortedNeighbor@GrbTrimeshCookerHelper@physx@@$$CBU?$Less@USortedNeighbor@GrbTrimeshCookerHelper@physx@@@shdfnd@3@@internal@shdfnd@physx@@YAHPAUSortedNeighbor@GrbTrimeshCookerHelper@3@HHABU?$Less@USortedNeighbor@GrbTrimeshCookerHelper@physx@@@23@@Z@4_NA 10117213     TriangleMeshBuilder.obj
 0003:00001214       ?_ignore@?9???$partition@USortedNeighbor@GrbTrimeshCookerHelper@physx@@$$CBU?$Less@USortedNeighbor@GrbTrimeshCookerHelper@physx@@@shdfnd@3@@internal@shdfnd@physx@@YAHPAUSortedNeighbor@GrbTrimeshCookerHelper@3@HHABU?$Less@USortedNeighbor@GrbTrimeshCookerHelper@physx@@@23@@Z@4_NA 10117214     TriangleMeshBuilder.obj
 0003:00001298       ?_ignore@?2??to8@shdfnd@physx@@YAEI@Z@4_NA 10117298     ConvexHullBuilder.obj
 0003:00001299       ?_ignore@?2??computeNbPolygons@ConvexHullBuilder@physx@@QBEIXZ@4_NA 10117299     ConvexHullBuilder.obj
 0003:00001325       ?_ignore@?2??include@PxBounds3@physx@@QAEXABVPxVec3@3@@Z@4_NA 10117325     ConvexHullLib.obj
 0003:00001326       ?_ignore@?2??getCenter@PxBounds3@physx@@QBE?AVPxVec3@3@XZ@4_NA 10117326     ConvexHullLib.obj
 0003:00001327       ?_ignore@?2??getDimensions@PxBounds3@physx@@QBE?AVPxVec3@3@XZ@4_NA 10117327     ConvexHullLib.obj
 0003:0000132a       ?_ignore@?2???0PxQuat@physx@@QAE@MABVPxVec3@2@@Z@4_NA 1011732a     ConvexHullUtils.obj
 0003:0000132b       ?_ignore@?2??to8@shdfnd@physx@@YAEG@Z@4_NA 1011732b     ConvexHullUtils.obj
 0003:000013b6       ?_ignore@?2??FAdd@aos@shdfnd@physx@@YA?AT__m128@@T5@0@Z@4_NA 101173b6     ConvexHullUtils.obj
 0003:000013b7       ?_ignore@?3??FAdd@aos@shdfnd@physx@@YA?AT__m128@@T5@0@Z@4_NA 101173b7     ConvexHullUtils.obj
 0003:000013b8       ?_ignore@?2??FMul@aos@shdfnd@physx@@YA?AT__m128@@T5@0@Z@4_NA 101173b8     ConvexHullUtils.obj
 0003:000013b9       ?_ignore@?3??FMul@aos@shdfnd@physx@@YA?AT__m128@@T5@0@Z@4_NA 101173b9     ConvexHullUtils.obj
 0003:000013ba       ?_ignore@?2??FScaleAdd@aos@shdfnd@physx@@YA?AT__m128@@T5@00@Z@4_NA 101173ba     ConvexHullUtils.obj
 0003:000013bb       ?_ignore@?3??FScaleAdd@aos@shdfnd@physx@@YA?AT__m128@@T5@00@Z@4_NA 101173bb     ConvexHullUtils.obj
 0003:000013bc       ?_ignore@?4??FScaleAdd@aos@shdfnd@physx@@YA?AT__m128@@T5@00@Z@4_NA 101173bc     ConvexHullUtils.obj
 0003:000013bd       ?_ignore@?2??V3Scale@aos@shdfnd@physx@@YA?AT__m128@@T5@0@Z@4_NA 101173bd     ConvexHullUtils.obj
 0003:000013be       ?_ignore@?3??V3Scale@aos@shdfnd@physx@@YA?AT__m128@@T5@0@Z@4_NA 101173be     ConvexHullUtils.obj
 0003:000013bf       ?_ignore@?2??V3ScaleAdd@aos@shdfnd@physx@@YA?AT__m128@@T5@00@Z@4_NA 101173bf     ConvexHullUtils.obj
 0003:000013c0       ?_ignore@?3??V3ScaleAdd@aos@shdfnd@physx@@YA?AT__m128@@T5@00@Z@4_NA 101173c0     ConvexHullUtils.obj
 0003:000013c1       ?_ignore@?4??V3ScaleAdd@aos@shdfnd@physx@@YA?AT__m128@@T5@00@Z@4_NA 101173c1     ConvexHullUtils.obj
 0003:000013c2       ?_ignore@?2??V3NegScaleSub@aos@shdfnd@physx@@YA?AT__m128@@T5@00@Z@4_NA 101173c2     ConvexHullUtils.obj
 0003:000013c3       ?_ignore@?3??V3NegScaleSub@aos@shdfnd@physx@@YA?AT__m128@@T5@00@Z@4_NA 101173c3     ConvexHullUtils.obj
 0003:000013c4       ?_ignore@?4??V3NegScaleSub@aos@shdfnd@physx@@YA?AT__m128@@T5@00@Z@4_NA 101173c4     ConvexHullUtils.obj
 0003:000013c5       ?_ignore@?2??V3Cross@aos@shdfnd@physx@@YA?AT__m128@@T5@0@Z@4_NA 101173c5     ConvexHullUtils.obj
 0003:000013c6       ?_ignore@?3??V3Cross@aos@shdfnd@physx@@YA?AT__m128@@T5@0@Z@4_NA 101173c6     ConvexHullUtils.obj
 0003:000013d9       ?_ignore@?2???A?$Array@VHalfEdge@ConvexHull@physx@@VNamedAllocator@shdfnd@3@@shdfnd@physx@@QAEAAVHalfEdge@ConvexHull@3@I@Z@4_NA 101173d9     ConvexHullUtils.obj
 0003:000013da       ?_ignore@?2???A?$Array@VHalfEdge@ConvexHull@physx@@VNamedAllocator@shdfnd@3@@shdfnd@physx@@QBEABVHalfEdge@ConvexHull@3@I@Z@4_NA 101173da     ConvexHullUtils.obj
 0003:000013db       ?_ignore@?2???A?$Array@VPxVec3@physx@@VNamedAllocator@shdfnd@2@@shdfnd@physx@@QAEAAVPxVec3@3@I@Z@4_NA 101173db     ConvexHullUtils.obj
 0003:000013dc       ?_ignore@?2???A?$Array@VPxVec3@physx@@VNamedAllocator@shdfnd@2@@shdfnd@physx@@QBEABVPxVec3@3@I@Z@4_NA 101173dc     ConvexHullUtils.obj
 0003:000013dd       ?_ignore@?2???A?$Array@VPxPlane@physx@@VNamedAllocator@shdfnd@2@@shdfnd@physx@@QBEABVPxPlane@3@I@Z@4_NA 101173dd     ConvexHullUtils.obj
 0003:000013de       ?_ignore@?2??growAndPushBack@?$Array@VPxPlane@physx@@VNamedAllocator@shdfnd@2@@shdfnd@physx@@IAEAAVPxPlane@4@ABV54@@Z@4_NA 101173de     ConvexHullUtils.obj
 0003:000013df       ?_ignore@?2??growAndPushBack@?$Array@VHalfEdge@ConvexHull@physx@@VNamedAllocator@shdfnd@3@@shdfnd@physx@@IAEAAVHalfEdge@ConvexHull@4@ABV564@@Z@4_NA 101173df     ConvexHullUtils.obj
 0003:000013e0       ?_ignore@?2??grow@?$Array@VHalfEdge@ConvexHull@physx@@VNamedAllocator@shdfnd@3@@shdfnd@physx@@IAEXI@Z@4_NA 101173e0     ConvexHullUtils.obj
 0003:000013e1       ?_ignore@?2??grow@?$Array@VPxPlane@physx@@VNamedAllocator@shdfnd@2@@shdfnd@physx@@IAEXI@Z@4_NA 101173e1     ConvexHullUtils.obj
 0003:000013e2       ?_ignore@?2??recreate@?$Array@VPxPlane@physx@@VNamedAllocator@shdfnd@2@@shdfnd@physx@@IAEXI@Z@4_NA 101173e2     ConvexHullUtils.obj
 0003:000013e3       ?_ignore@?2??recreate@?$Array@VHalfEdge@ConvexHull@physx@@VNamedAllocator@shdfnd@3@@shdfnd@physx@@IAEXI@Z@4_NA 101173e3     ConvexHullUtils.obj
 0003:000013e4       ?_ignore@?2??getExtents@PxBounds3@physx@@QBE?AVPxVec3@3@XZ@4_NA 101173e4     ConvexMeshBuilder.obj
 0003:00001476       ?_ignore@?2??remove@?$Array@VPair@@VNamedAllocator@shdfnd@physx@@@shdfnd@physx@@QAEXI@Z@4_NA 10117476     ConvexPolygonsBuilder.obj
 0003:00001477       ?_ignore@?2???A?$Array@VPair@@VNamedAllocator@shdfnd@physx@@@shdfnd@physx@@QAEAAVPair@@I@Z@4_NA 10117477     ConvexPolygonsBuilder.obj
 0003:00001478       ?_ignore@?2??forceSize_Unsafe@?$Array@IVNamedAllocator@shdfnd@physx@@@shdfnd@physx@@QAEXI@Z@4_NA 10117478     ConvexPolygonsBuilder.obj
 0003:00001479       ?_ignore@?2??remove@?$Array@IVNamedAllocator@shdfnd@physx@@@shdfnd@physx@@QAEXI@Z@4_NA 10117479     ConvexPolygonsBuilder.obj
 0003:0000147a       ?_ignore@?2??growAndPushBack@?$Array@VPair@@VNamedAllocator@shdfnd@physx@@@shdfnd@physx@@IAEAAVPair@@ABV5@@Z@4_NA 1011747a     ConvexPolygonsBuilder.obj
 0003:0000147b       ?_ignore@?2??to8@shdfnd@physx@@YAEH@Z@4_NA 1011747b     InflationConvexHullLib.obj
 0003:0000147c       ?_ignore@?3??to8@shdfnd@physx@@YAEH@Z@4_NA 1011747c     InflationConvexHullLib.obj
 0003:00001482       ?_ignore@?8??neib@Tri@local@@QAEAAHHH@Z@4_NA 10117482     InflationConvexHullLib.obj
 0003:00001483       ?_ignore@?2??deleteTri@HullTriangles@local@@QAEXPAVTri@3@@Z@4_NA 10117483     InflationConvexHullLib.obj
 0003:00001484       ?_ignore@?2??checkit@HullTriangles@local@@QBEXPAVTri@3@@Z@4_NA 10117484     InflationConvexHullLib.obj
 0003:00001485       ?_ignore@?5??checkit@HullTriangles@local@@QBEXPAVTri@3@@Z@4_NA 10117485     InflationConvexHullLib.obj
 0003:00001486       ?_ignore@?6??checkit@HullTriangles@local@@QBEXPAVTri@3@@Z@4_NA 10117486     InflationConvexHullLib.obj
 0003:00001487       ?_ignore@?4??b2bfix@HullTriangles@local@@IAEXPAVTri@3@0@Z@4_NA 10117487     InflationConvexHullLib.obj
 0003:00001488       ?_ignore@?5??b2bfix@HullTriangles@local@@IAEXPAVTri@3@0@Z@4_NA 10117488     InflationConvexHullLib.obj
 0003:00001493       ?_ignore@?9??PlaneCheck@LocalTests@?1??expandHull@InflationConvexHullLib@physx@@IAE?AW4ErrorCode@ConvexHullLibResult@5@PBVPxVec3@5@IABVHullTriangles@local@@AAPAVConvexHull@5@@Z@SA_N0IAAV?$Array@UExpandPlane@local@@VNamedAllocator@shdfnd@physx@@@shdfnd@5@@Z@4_NA 10117493     InflationConvexHullLib.obj
 0003:0000149c       ?_ignore@?2???A?$Array@HVNamedAllocator@shdfnd@physx@@@shdfnd@physx@@QAEAAHI@Z@4_NA 1011749c     InflationConvexHullLib.obj
 0003:0000149d       ?_ignore@?2???A?$Array@UExpandPlane@local@@VNamedAllocator@shdfnd@physx@@@shdfnd@physx@@QAEAAUExpandPlane@local@@I@Z@4_NA 1011749d     InflationConvexHullLib.obj
 0003:0000149e       ?_ignore@?2???A?$Array@PAVTri@local@@VNamedAllocator@shdfnd@physx@@@shdfnd@physx@@QAEAAPAVTri@local@@I@Z@4_NA 1011749e     InflationConvexHullLib.obj
 0003:0000149f       ?_ignore@?2???A?$Array@PAVTri@local@@VNamedAllocator@shdfnd@physx@@@shdfnd@physx@@QBEABQAVTri@local@@I@Z@4_NA 1011749f     InflationConvexHullLib.obj
 0003:000014a0       ?_ignore@?2???A?$Array@EVNamedAllocator@shdfnd@physx@@@shdfnd@physx@@QAEAAEI@Z@4_NA 101174a0     InflationConvexHullLib.obj
 0003:000014a1       ?_ignore@?2???A?$Array@VPxPlane@physx@@VNamedAllocator@shdfnd@2@@shdfnd@physx@@QAEAAVPxPlane@3@I@Z@4_NA 101174a1     InflationConvexHullLib.obj
 0003:000014a2       ?_ignore@?2??grow@?$Array@PAVTri@local@@VNamedAllocator@shdfnd@physx@@@shdfnd@physx@@IAEXI@Z@4_NA 101174a2     InflationConvexHullLib.obj
 0003:000014a3       ?_ignore@?2??grow@?$Array@EVNamedAllocator@shdfnd@physx@@@shdfnd@physx@@IAEXI@Z@4_NA 101174a3     InflationConvexHullLib.obj
 0003:000014a4       ?_ignore@?2??growAndPushBack@?$Array@EVNamedAllocator@shdfnd@physx@@@shdfnd@physx@@IAEAAEABE@Z@4_NA 101174a4     InflationConvexHullLib.obj
 0003:000014a5       ?_ignore@?2??recreate@?$Array@EVNamedAllocator@shdfnd@physx@@@shdfnd@physx@@IAEXI@Z@4_NA 101174a5     InflationConvexHullLib.obj
 0003:000014a6       ?_ignore@?2??growAndPushBack@?$Array@PAVTri@local@@VNamedAllocator@shdfnd@physx@@@shdfnd@physx@@IAEAAPAVTri@local@@ABQAV56@@Z@4_NA 101174a6     InflationConvexHullLib.obj
 0003:000014a7       ?_ignore@?2??recreate@?$Array@PAVTri@local@@VNamedAllocator@shdfnd@physx@@@shdfnd@physx@@IAEXI@Z@4_NA 101174a7     InflationConvexHullLib.obj
 0003:000014a8       ?_ignore@?2??growAndPushBack@?$Array@UExpandPlane@local@@VNamedAllocator@shdfnd@physx@@@shdfnd@physx@@IAEAAUExpandPlane@local@@ABU56@@Z@4_NA 101174a8     InflationConvexHullLib.obj
 0003:000014a9       ?_ignore@?2??growAndPushBack@?$Array@HVNamedAllocator@shdfnd@physx@@@shdfnd@physx@@IAEAAHABH@Z@4_NA 101174a9     InflationConvexHullLib.obj
 0003:000014aa       ?_ignore@?2??grow@?$Array@HVNamedAllocator@shdfnd@physx@@@shdfnd@physx@@IAEXI@Z@4_NA 101174aa     InflationConvexHullLib.obj
 0003:000014ab       ?_ignore@?2??recreate@?$Array@HVNamedAllocator@shdfnd@physx@@@shdfnd@physx@@IAEXI@Z@4_NA 101174ab     InflationConvexHullLib.obj
 0003:000014b0       ?_ignore@?2??getHead@QuickHullHalfEdge@local@@QBEABUQuickHullVertex@3@XZ@4_NA 101174b0     QuickHullConvexHullLib.obj
 0003:000014b1       ?_ignore@?2??computeNormalAndCentroid@QuickHullFace@local@@QAEXXZ@4_NA 101174b1     QuickHullConvexHullLib.obj
 0003:000014b2       ?_ignore@?8??computeNormalAndCentroid@QuickHullFace@local@@QAEXXZ@4_NA 101174b2     QuickHullConvexHullLib.obj
 0003:000014cd       ?_ignore@?2???A?$Array@UExpandPoint@local@@VNamedAllocator@shdfnd@physx@@@shdfnd@physx@@QAEAAUExpandPoint@local@@I@Z@4_NA 101174cd     QuickHullConvexHullLib.obj
 0003:000014ce       ?_ignore@?2???A?$Array@IVNamedAllocator@shdfnd@physx@@@shdfnd@physx@@QBEABII@Z@4_NA 101174ce     QuickHullConvexHullLib.obj
 0003:000014cf       ?_ignore@?2??getFreeItem@?$MemBlock@UQuickHullFace@local@@$00@local@@QAEPAUQuickHullFace@3@XZ@4_NA 101174cf     QuickHullConvexHullLib.obj
 0003:000014d0       ?_ignore@?2??getItem@?$MemBlock@UQuickHullFace@local@@$00@local@@QAEPAUQuickHullFace@3@I@Z@4_NA 101174d0     QuickHullConvexHullLib.obj
 0003:000014d1       ?_ignore@?3??getItem@?$MemBlock@UQuickHullFace@local@@$00@local@@QAEPAUQuickHullFace@3@I@Z@4_NA 101174d1     QuickHullConvexHullLib.obj
 0003:000014d2       ?_ignore@?2??init@?$MemBlock@UQuickHullFace@local@@$00@local@@QAEXI@Z@4_NA 101174d2     QuickHullConvexHullLib.obj
 0003:000014d3       ?_ignore@?3??init@?$MemBlock@UQuickHullFace@local@@$00@local@@QAEXI@Z@4_NA 101174d3     QuickHullConvexHullLib.obj
 0003:000014d4       ?_ignore@?2??getFreeItem@?$MemBlock@UQuickHullHalfEdge@local@@$0A@@local@@QAEPAUQuickHullHalfEdge@3@XZ@4_NA 101174d4     QuickHullConvexHullLib.obj
 0003:000014d5       ?_ignore@?2??init@?$MemBlock@UQuickHullHalfEdge@local@@$0A@@local@@QAEXI@Z@4_NA 101174d5     QuickHullConvexHullLib.obj
 0003:000014d6       ?_ignore@?3??init@?$MemBlock@UQuickHullHalfEdge@local@@$0A@@local@@QAEXI@Z@4_NA 101174d6     QuickHullConvexHullLib.obj
 0003:000014d7       ?_ignore@?2???A?$Array@PAUQuickHullFace@local@@VNamedAllocator@shdfnd@physx@@@shdfnd@physx@@QAEAAPAUQuickHullFace@local@@I@Z@4_NA 101174d7     QuickHullConvexHullLib.obj
 0003:000014d8       ?_ignore@?2???A?$Array@PAUQuickHullFace@local@@VNamedAllocator@shdfnd@physx@@@shdfnd@physx@@QBEABQAUQuickHullFace@local@@I@Z@4_NA 101174d8     QuickHullConvexHullLib.obj
 0003:000014d9       ?_ignore@?2???A?$Array@PAUQuickHullHalfEdge@local@@VNamedAllocator@shdfnd@physx@@@shdfnd@physx@@QBEABQAUQuickHullHalfEdge@local@@I@Z@4_NA 101174d9     QuickHullConvexHullLib.obj
 0003:000014da       ?_ignore@?2???A?$Array@PAUQuickHullVertex@local@@VNamedAllocator@shdfnd@physx@@@shdfnd@physx@@QAEAAPAUQuickHullVertex@local@@I@Z@4_NA 101174da     QuickHullConvexHullLib.obj
 0003:000014db       ?_ignore@?2??grow@?$Array@UExpandPoint@local@@VNamedAllocator@shdfnd@physx@@@shdfnd@physx@@IAEXI@Z@4_NA 101174db     QuickHullConvexHullLib.obj
 0003:000014dc       ?_ignore@?2??grow@?$Array@PAUQuickHullFace@local@@VNamedAllocator@shdfnd@physx@@@shdfnd@physx@@IAEXI@Z@4_NA 101174dc     QuickHullConvexHullLib.obj
 0003:000014dd       ?_ignore@?2??grow@?$Array@PAUQuickHullHalfEdge@local@@VNamedAllocator@shdfnd@physx@@@shdfnd@physx@@IAEXI@Z@4_NA 101174dd     QuickHullConvexHullLib.obj
 0003:000014de       ?_ignore@?2???A?$Array@PAUQuickHullHalfEdge@local@@VNamedAllocator@shdfnd@physx@@@shdfnd@physx@@QAEAAPAUQuickHullHalfEdge@local@@I@Z@4_NA 101174de     QuickHullConvexHullLib.obj
 0003:000014df       ?_ignore@?2??grow@?$Array@PAUQuickHullVertex@local@@VNamedAllocator@shdfnd@physx@@@shdfnd@physx@@IAEXI@Z@4_NA 101174df     QuickHullConvexHullLib.obj
 0003:000014e0       ?_ignore@?2??growAndPushBack@?$Array@PAUQuickHullVertex@local@@VNamedAllocator@shdfnd@physx@@@shdfnd@physx@@IAEAAPAUQuickHullVertex@local@@ABQAU56@@Z@4_NA 101174e0     QuickHullConvexHullLib.obj
 0003:000014e1       ?_ignore@?2??recreate@?$Array@PAUQuickHullVertex@local@@VNamedAllocator@shdfnd@physx@@@shdfnd@physx@@IAEXI@Z@4_NA 101174e1     QuickHullConvexHullLib.obj
 0003:000014e2       ?_ignore@?2??growAndPushBack@?$Array@PAUQuickHullHalfEdge@local@@VNamedAllocator@shdfnd@physx@@@shdfnd@physx@@IAEAAPAUQuickHullHalfEdge@local@@ABQAU56@@Z@4_NA 101174e2     QuickHullConvexHullLib.obj
 0003:000014e3       ?_ignore@?2??recreate@?$Array@PAUQuickHullHalfEdge@local@@VNamedAllocator@shdfnd@physx@@@shdfnd@physx@@IAEXI@Z@4_NA 101174e3     QuickHullConvexHullLib.obj
 0003:000014e4       ?_ignore@?2??growAndPushBack@?$Array@PAUQuickHullFace@local@@VNamedAllocator@shdfnd@physx@@@shdfnd@physx@@IAEAAPAUQuickHullFace@local@@ABQAU56@@Z@4_NA 101174e4     QuickHullConvexHullLib.obj
 0003:000014e5       ?_ignore@?2??recreate@?$Array@PAUQuickHullFace@local@@VNamedAllocator@shdfnd@physx@@@shdfnd@physx@@IAEXI@Z@4_NA 101174e5     QuickHullConvexHullLib.obj
 0003:000014e6       ?_ignore@?2??growAndPushBack@?$Array@UExpandPoint@local@@VNamedAllocator@shdfnd@physx@@@shdfnd@physx@@IAEAAUExpandPoint@local@@ABU56@@Z@4_NA 101174e6     QuickHullConvexHullLib.obj
 0003:000014e7       ?_ignore@?2??recreate@?$Array@UExpandPoint@local@@VNamedAllocator@shdfnd@physx@@@shdfnd@physx@@IAEXI@Z@4_NA 101174e7     QuickHullConvexHullLib.obj
 0003:00001563       ?_ignore@?2??FAllGrtr@aos@shdfnd@physx@@YAIT__m128@@0@Z@4_NA 10117563     VolumeIntegration.obj
 0003:00001564       ?_ignore@?3??FAllGrtr@aos@shdfnd@physx@@YAIT__m128@@0@Z@4_NA 10117564     VolumeIntegration.obj
 0003:00001565       ?_ignore@?2??V4ScaleInv@aos@shdfnd@physx@@YA?AT__m128@@T5@0@Z@4_NA 10117565     VolumeIntegration.obj
 0003:000015ee       ?_ignore@?P@???$kmeans_cluster@VPxVec3@physx@@M@@YAIPBVPxVec3@physx@@IIPAV12@PAIMM@Z@4_NA 101175ee     Quantizer.obj
 0003:000015f0       __hmod__PxFoundationDEBUG_x86_dll 101175f0     PxFoundationDEBUG_x86:PxFoundationDEBUG_x86.dll
 0003:000015f4       __hmod__PhysX3CommonDEBUG_x86_dll 101175f4     PhysX3CommonDEBUG_x86:PhysX3CommonDEBUG_x86.dll
 0003:000015f8       ?DloadKernel32@@3PAUHINSTANCE__@@A 101175f8     delayimp:delayhlp.obj
 0003:000015fc       ?DloadAcquireSRWLockExclusive@@3P6GXPAK@ZA 101175fc     delayimp:delayhlp.obj
 0003:00001600       ?DloadReleaseSRWLockExclusive@@3P6GXPAK@ZA 10117600     delayimp:delayhlp.obj
 0003:00001604       ?DloadSrwLock@@3KA         10117604     delayimp:delayhlp.obj
 0003:00001608       ?DloadSectionLockCount@@3KA 10117608     delayimp:delayhlp.obj
 0003:0000160c       ?DloadSectionOldProtection@@3KA 1011760c     delayimp:delayhlp.obj
 0003:00001610       ?DloadSectionCommitPermanent@@3KA 10117610     delayimp:delayhlp.obj
 0003:00001620       ?__type_info_root_node@@3U__type_info_node@@A 10117620     LIBCMTD:tncleanup.obj
 0003:0000163c       ___scrt_current_native_startup_state 1011763c     LIBCMTD:utility.obj
 0003:00001640       ___scrt_native_startup_lock 10117640     LIBCMTD:utility.obj
 0003:00001668       ?_OptionsStorage@?1??__local_stdio_printf_options@@9@4_KA 10117668     LIBCMTD:default_local_stdio_options.obj
 0003:00001678       ?_OptionsStorage@?1??__local_stdio_scanf_options@@9@4_KA 10117678     LIBCMTD:default_local_stdio_options.obj
 0003:00001684       ___scrt_debugger_hook_flag 10117684     LIBCMTD:utility_desktop.obj
 0003:00001a44       ___isa_available           10117a44     LIBCMTD:_cpu_disp_.obj
 0003:00001a48       ___favor                   10117a48     LIBCMTD:_cpu_disp_.obj
 0003:00001a58       ___pPurecall               10117a58     libvcruntimed:purevirt_data.obj
 0003:00001a5c       ?pArgList@UnDecorator@@0PAVReplicator@@A 10117a5c     libvcruntimed:undname.obj
 0003:00001a60       ?pZNameList@UnDecorator@@0PAVReplicator@@A 10117a60     libvcruntimed:undname.obj
 0003:00001a64       ?pTemplateArgList@UnDecorator@@0PAVReplicator@@A 10117a64     libvcruntimed:undname.obj
 0003:00001a68       ?gName@UnDecorator@@0PBDB  10117a68     libvcruntimed:undname.obj
 0003:00001a6c       ?name@UnDecorator@@0PBDB   10117a6c     libvcruntimed:undname.obj
 0003:00001a70       ?outputString@UnDecorator@@0PADA 10117a70     libvcruntimed:undname.obj
 0003:00001a74       ?maxStringLength@UnDecorator@@0HA 10117a74     libvcruntimed:undname.obj
 0003:00001a78       ?disableFlags@UnDecorator@@0KA 10117a78     libvcruntimed:undname.obj
 0003:00001a7c       ?fExplicitTemplateParams@UnDecorator@@0_NA 10117a7c     libvcruntimed:undname.obj
 0003:00001a7d       ?fGetTemplateArgumentList@UnDecorator@@0_NA 10117a7d     libvcruntimed:undname.obj
 0003:00001a80       ?m_pGetParameter@UnDecorator@@0P6APADJ@ZA 10117a80     libvcruntimed:undname.obj
 0003:00001b08       ?nodes@?1??make@DNameStatusNode@@SAPAV2@W4DNameStatus@@@Z@4PAV2@A 10117b08     libvcruntimed:undname.obj
 0003:00001b44       ??_B?1??make@DNameStatusNode@@SAPAV1@W4DNameStatus@@@Z@51 10117b44     libvcruntimed:undname.obj
 0003:00001bfc       __pfnDumpClient            10117bfc     libucrtd:debug_heap.obj
 0003:00001fc4       __environ_table            10117fc4     libucrtd:environment_initialization.obj
 0003:00001fc8       __wenviron_table           10117fc8     libucrtd:environment_initialization.obj
 0003:00001fd0       ___dcrt_initial_wide_environment 10117fd0     libucrtd:environment_initialization.obj
 0003:00001fd4       ___dcrt_initial_narrow_environment 10117fd4     libucrtd:environment_initialization.obj
 0003:00001fd8       ___acrt_atexit_table       10117fd8     libucrtd:onexit.obj
 0003:00001fe8       ___acrt_at_quick_exit_table 10117fe8     libucrtd:onexit.obj
 0003:00001ff8       ___fastflag                10117ff8     libucrtd:fp_flags.obj
 0003:00002004       __pReportHookListW         10118004     libucrtd:dbgrptt.obj
 0003:00002008       __pfnReportHook            10118008     libucrtd:dbgrptt.obj
 0003:0000200c       __pReportHookList          1011800c     libucrtd:dbgrptt.obj
 0003:000021b0       ___acrt_locale_changed_data 101181b0     libucrtd:wsetlocale.obj
 0003:000021b4       ___acrt_current_locale_data 101181b4     libucrtd:nlsdata.obj
 0003:000021b8       ___acrt_heap               101181b8     libucrtd:heap_handle.obj
 0003:000022c4       ___mbcodepage              101182c4     libucrtd:mbctype.obj
 0003:000022c8       ___ismbcodepage            101182c8     libucrtd:mbctype.obj
 0003:000022cc       ___mbulinfo                101182cc     libucrtd:mbctype.obj
 0003:000022e0       ___mblocalename            101182e0     libucrtd:mbctype.obj
 0003:000022e8       ___argc                    101182e8     libucrtd:argv_data.obj
 0003:000022ec       ___argv                    101182ec     libucrtd:argv_data.obj
 0003:000022f0       ___wargv                   101182f0     libucrtd:argv_data.obj
 0003:000022f4       __acmdln                   101182f4     libucrtd:argv_data.obj
 0003:000022f8       __wcmdln                   101182f8     libucrtd:argv_data.obj
 0003:000022fc       __pgmptr                   101182fc     libucrtd:argv_data.obj
 0003:00002300       __wpgmptr                  10118300     libucrtd:argv_data.obj
 0003:00002308       ___pioinfo                 10118308     libucrtd:ioinit.obj
 0003:00002570       __nhandle                  10118570     libucrtd:ioinit.obj
 0003:00002574       ___acrt_stdout_buffer      10118574     libucrtd:_sftbuf.obj
 0003:00002578       ___acrt_stderr_buffer      10118578     libucrtd:_sftbuf.obj
 0003:0000257c       __nstream                  1011857c     libucrtd:_file.obj
 0003:00002580       ___piob                    10118580     libucrtd:_file.obj
 0003:00002588       __cflush                   10118588     libucrtd:_file.obj
 0003:00002cfb       ___acrt_lconv_static_null  10118cfb     libucrtd:localeconv.obj
 0003:00002cfc       ___acrt_lconv_static_W_null 10118cfc     libucrtd:localeconv.obj
 0003:00002d04       ?g_OutOfMemoryExceptionCallback@@3P6GPAXXZA 10118d04     libvcruntimed:frame.obj
 0003:00002d08       ___scrt_ucrt_dll_is_in_use 10118d08     <common>
 0003:00002d14       ___dyn_tls_init_callback   10118d14     <common>
 0003:00002d20       __pmatherr                 10118d20     <common>
 0003:00002d2c       ___use_sse2_mathfcns       10118d2c     <common>
 0004:00000000       __imp__LoadLibraryA@4      10119000     kernel32:KERNEL32.dll
 0004:00000004       __imp__RaiseException@16   10119004     kernel32:KERNEL32.dll
 0004:00000008       __imp__GetLastError@0      10119008     kernel32:KERNEL32.dll
 0004:0000000c       __imp__GetSystemInfo@4     1011900c     kernel32:KERNEL32.dll
 0004:00000010       __imp__VirtualProtect@16   10119010     kernel32:KERNEL32.dll
 0004:00000014       __imp__VirtualQuery@12     10119014     kernel32:KERNEL32.dll
 0004:00000018       __imp__FreeLibrary@4       10119018     kernel32:KERNEL32.dll
 0004:0000001c       __imp__GetModuleHandleW@4  1011901c     kernel32:KERNEL32.dll
 0004:00000020       __imp__GetProcAddress@8    10119020     kernel32:KERNEL32.dll
 0004:00000024       __imp__LoadLibraryExA@12   10119024     kernel32:KERNEL32.dll
 0004:00000028       __imp__InitializeSListHead@4 10119028     kernel32:KERNEL32.dll
 0004:0000002c       __imp__QueryPerformanceCounter@4 1011902c     kernel32:KERNEL32.dll
 0004:00000030       __imp__GetCurrentProcessId@0 10119030     kernel32:KERNEL32.dll
 0004:00000034       __imp__GetCurrentThreadId@0 10119034     kernel32:KERNEL32.dll
 0004:00000038       __imp__GetSystemTimeAsFileTime@4 10119038     kernel32:KERNEL32.dll
 0004:0000003c       __imp__IsDebuggerPresent@0 1011903c     kernel32:KERNEL32.dll
 0004:00000040       __imp__UnhandledExceptionFilter@4 10119040     kernel32:KERNEL32.dll
 0004:00000044       __imp__SetUnhandledExceptionFilter@4 10119044     kernel32:KERNEL32.dll
 0004:00000048       __imp__GetStartupInfoW@4   10119048     kernel32:KERNEL32.dll
 0004:0000004c       __imp__IsProcessorFeaturePresent@4 1011904c     kernel32:KERNEL32.dll
 0004:00000050       __imp__GetCurrentProcess@0 10119050     kernel32:KERNEL32.dll
 0004:00000054       __imp__TerminateProcess@8  10119054     kernel32:KERNEL32.dll
 0004:00000058       __imp__MultiByteToWideChar@24 10119058     kernel32:KERNEL32.dll
 0004:0000005c       __imp__WideCharToMultiByte@32 1011905c     kernel32:KERNEL32.dll
 0004:00000060       __imp__HeapAlloc@12        10119060     kernel32:KERNEL32.dll
 0004:00000064       __imp__HeapFree@12         10119064     kernel32:KERNEL32.dll
 0004:00000068       __imp__GetProcessHeap@0    10119068     kernel32:KERNEL32.dll
 0004:0000006c       __imp__InterlockedPushEntrySList@8 1011906c     kernel32:KERNEL32.dll
 0004:00000070       __imp__InterlockedFlushSList@4 10119070     kernel32:KERNEL32.dll
 0004:00000074       __imp__GetModuleFileNameW@12 10119074     kernel32:KERNEL32.dll
 0004:00000078       __imp__LoadLibraryExW@12   10119078     kernel32:KERNEL32.dll
 0004:0000007c       __imp__RtlUnwind@16        1011907c     kernel32:KERNEL32.dll
 0004:00000080       __imp__SetLastError@4      10119080     kernel32:KERNEL32.dll
 0004:00000084       __imp__EnterCriticalSection@4 10119084     kernel32:KERNEL32.dll
 0004:00000088       __imp__LeaveCriticalSection@4 10119088     kernel32:KERNEL32.dll
 0004:0000008c       __imp__DeleteCriticalSection@4 1011908c     kernel32:KERNEL32.dll
 0004:00000090       __imp__InitializeCriticalSectionAndSpinCount@8 10119090     kernel32:KERNEL32.dll
 0004:00000094       __imp__TlsAlloc@0          10119094     kernel32:KERNEL32.dll
 0004:00000098       __imp__TlsGetValue@4       10119098     kernel32:KERNEL32.dll
 0004:0000009c       __imp__TlsSetValue@8       1011909c     kernel32:KERNEL32.dll
 0004:000000a0       __imp__TlsFree@4           101190a0     kernel32:KERNEL32.dll
 0004:000000a4       __imp__GetModuleFileNameA@12 101190a4     kernel32:KERNEL32.dll
 0004:000000a8       __imp__GetModuleHandleExW@12 101190a8     kernel32:KERNEL32.dll
 0004:000000ac       __imp__HeapValidate@12     101190ac     kernel32:KERNEL32.dll
 0004:000000b0       __imp__ExitProcess@4       101190b0     kernel32:KERNEL32.dll
 0004:000000b4       __imp__EncodePointer@4     101190b4     kernel32:KERNEL32.dll
 0004:000000b8       __imp__DecodePointer@4     101190b8     kernel32:KERNEL32.dll
 0004:000000bc       __imp__GetStdHandle@4      101190bc     kernel32:KERNEL32.dll
 0004:000000c0       __imp__GetFileType@4       101190c0     kernel32:KERNEL32.dll
 0004:000000c4       __imp__WriteFile@20        101190c4     kernel32:KERNEL32.dll
 0004:000000c8       __imp__OutputDebugStringA@4 101190c8     kernel32:KERNEL32.dll
 0004:000000cc       __imp__OutputDebugStringW@4 101190cc     kernel32:KERNEL32.dll
 0004:000000d0       __imp__WriteConsoleW@20    101190d0     kernel32:KERNEL32.dll
 0004:000000d4       __imp__CloseHandle@4       101190d4     kernel32:KERNEL32.dll
 0004:000000d8       __imp__WaitForSingleObjectEx@12 101190d8     kernel32:KERNEL32.dll
 0004:000000dc       __imp__CreateThread@24     101190dc     kernel32:KERNEL32.dll
 0004:000000e0       __imp__SetConsoleCtrlHandler@8 101190e0     kernel32:KERNEL32.dll
 0004:000000e4       __imp__HeapReAlloc@16      101190e4     kernel32:KERNEL32.dll
 0004:000000e8       __imp__GetCurrentThread@0  101190e8     kernel32:KERNEL32.dll
 0004:000000ec       __imp__HeapSize@12         101190ec     kernel32:KERNEL32.dll
 0004:000000f0       __imp__HeapQueryInformation@20 101190f0     kernel32:KERNEL32.dll
 0004:000000f4       __imp__GetACP@0            101190f4     kernel32:KERNEL32.dll
 0004:000000f8       __imp__GetDateFormatW@24   101190f8     kernel32:KERNEL32.dll
 0004:000000fc       __imp__GetTimeFormatW@24   101190fc     kernel32:KERNEL32.dll
 0004:00000100       __imp__CompareStringW@24   10119100     kernel32:KERNEL32.dll
 0004:00000104       __imp__LCMapStringW@24     10119104     kernel32:KERNEL32.dll
 0004:00000108       __imp__GetLocaleInfoW@16   10119108     kernel32:KERNEL32.dll
 0004:0000010c       __imp__IsValidLocale@8     1011910c     kernel32:KERNEL32.dll
 0004:00000110       __imp__GetUserDefaultLCID@0 10119110     kernel32:KERNEL32.dll
 0004:00000114       __imp__EnumSystemLocalesW@8 10119114     kernel32:KERNEL32.dll
 0004:00000118       __imp__FindClose@4         10119118     kernel32:KERNEL32.dll
 0004:0000011c       __imp__FindFirstFileExA@24 1011911c     kernel32:KERNEL32.dll
 0004:00000120       __imp__FindFirstFileExW@24 10119120     kernel32:KERNEL32.dll
 0004:00000124       __imp__FindNextFileA@8     10119124     kernel32:KERNEL32.dll
 0004:00000128       __imp__FindNextFileW@8     10119128     kernel32:KERNEL32.dll
 0004:0000012c       __imp__IsValidCodePage@4   1011912c     kernel32:KERNEL32.dll
 0004:00000130       __imp__GetOEMCP@0          10119130     kernel32:KERNEL32.dll
 0004:00000134       __imp__GetCPInfo@8         10119134     kernel32:KERNEL32.dll
 0004:00000138       __imp__GetCommandLineA@0   10119138     kernel32:KERNEL32.dll
 0004:0000013c       __imp__GetCommandLineW@0   1011913c     kernel32:KERNEL32.dll
 0004:00000140       __imp__GetEnvironmentStringsW@0 10119140     kernel32:KERNEL32.dll
 0004:00000144       __imp__FreeEnvironmentStringsW@4 10119144     kernel32:KERNEL32.dll
 0004:00000148       __imp__SetEnvironmentVariableA@8 10119148     kernel32:KERNEL32.dll
 0004:0000014c       __imp__SetEnvironmentVariableW@8 1011914c     kernel32:KERNEL32.dll
 0004:00000150       __imp__GetStringTypeW@16   10119150     kernel32:KERNEL32.dll
 0004:00000154       __imp__SetStdHandle@8      10119154     kernel32:KERNEL32.dll
 0004:00000158       __imp__FlushFileBuffers@4  10119158     kernel32:KERNEL32.dll
 0004:0000015c       __imp__GetConsoleCP@0      1011915c     kernel32:KERNEL32.dll
 0004:00000160       __imp__GetConsoleMode@8    10119160     kernel32:KERNEL32.dll
 0004:00000164       __imp__SetFilePointerEx@20 10119164     kernel32:KERNEL32.dll
 0004:00000168       __imp__CreateFileW@28      10119168     kernel32:KERNEL32.dll
 0004:0000016c       \177KERNEL32_NULL_THUNK_DATA 1011916c     kernel32:KERNEL32.dll
 0004:000001e0       __IMPORT_DESCRIPTOR_KERNEL32 101191e0     kernel32:KERNEL32.dll
 0004:000001f4       __NULL_IMPORT_DESCRIPTOR   101191f4     kernel32:KERNEL32.dll
 0005:00000000       __DELAY_IMPORT_DESCRIPTOR_PxFoundationDEBUG_x86_dll 1011a000     PxFoundationDEBUG_x86:PxFoundationDEBUG_x86.dll
 0005:00000020       __DELAY_IMPORT_DESCRIPTOR_PhysX3CommonDEBUG_x86_dll 1011a020     PhysX3CommonDEBUG_x86:PhysX3CommonDEBUG_x86.dll
 0005:00000040       __NULL_DELAY_IMPORT_DESCRIPTOR 1011a040     PxFoundationDEBUG_x86:PxFoundationDEBUG_x86.dll
 0005:000000ec       \177PhysX3CommonDEBUG_x86_NULL_THUNK_DATA_DLN 1011a0ec     PhysX3CommonDEBUG_x86:PhysX3CommonDEBUG_x86.dll
 0005:00000178       \177PxFoundationDEBUG_x86_NULL_THUNK_DATA_DLN 1011a178     PxFoundationDEBUG_x86:PxFoundationDEBUG_x86.dll
 0005:000001b0       __imp_??1BV4Tree@Gu@physx@@QAE@XZ 1011a1b0     PhysX3CommonDEBUG_x86:PhysX3CommonDEBUG_x86.dll
 0005:000001b4       __imp_?releaseMemory@HeightField@Gu@physx@@QAEXXZ 1011a1b4     PhysX3CommonDEBUG_x86:PhysX3CommonDEBUG_x86.dll
 0005:000001b8       __imp_?loadFromDesc@HeightField@Gu@physx@@QAE_NABVPxHeightFieldDesc@3@@Z 1011a1b8     PhysX3CommonDEBUG_x86:PhysX3CommonDEBUG_x86.dll
 0005:000001bc       __imp_??0HeightField@Gu@physx@@QAE@PAVGuMeshFactory@2@@Z 1011a1bc     PhysX3CommonDEBUG_x86:PhysX3CommonDEBUG_x86.dll
 0005:000001c0       __imp_?ReadHeader@Gu@physx@@YA_NEEEEAAIAA_NAAVPxInputStream@2@@Z 1011a1c0     PhysX3CommonDEBUG_x86:PhysX3CommonDEBUG_x86.dll
 0005:000001c4       __imp_?readDword@physx@@YAI_NAAVPxInputStream@1@@Z 1011a1c4     PhysX3CommonDEBUG_x86:PhysX3CommonDEBUG_x86.dll
 0005:000001c8       __imp_??1BigConvexData@physx@@QAE@XZ 1011a1c8     PhysX3CommonDEBUG_x86:PhysX3CommonDEBUG_x86.dll
 0005:000001cc       __imp_??0BigConvexData@physx@@QAE@XZ 1011a1cc     PhysX3CommonDEBUG_x86:PhysX3CommonDEBUG_x86.dll
 0005:000001d0       __imp_?computeOBBPoints@Gu@physx@@YAXPIAVPxVec3@2@ABV32@1111@Z 1011a1d0     PhysX3CommonDEBUG_x86:PhysX3CommonDEBUG_x86.dll
 0005:000001d4       __imp_?Sort@RadixSortBuffered@Cm@physx@@QAEAAV123@PBIIW4RadixHint@23@@Z 1011a1d4     PhysX3CommonDEBUG_x86:PhysX3CommonDEBUG_x86.dll
 0005:000001d8       __imp_??1RadixSortBuffered@Cm@physx@@UAE@XZ 1011a1d8     PhysX3CommonDEBUG_x86:PhysX3CommonDEBUG_x86.dll
 0005:000001dc       __imp_??0RadixSortBuffered@Cm@physx@@QAE@XZ 1011a1dc     PhysX3CommonDEBUG_x86:PhysX3CommonDEBUG_x86.dll
 0005:000001e0       __imp_?GetRanks@RadixSort@Cm@physx@@QBEPBIXZ 1011a1e0     PhysX3CommonDEBUG_x86:PhysX3CommonDEBUG_x86.dll
 0005:000001e4       __imp_?CreateOffsets@BigConvexData@physx@@IAEXXZ 1011a1e4     PhysX3CommonDEBUG_x86:PhysX3CommonDEBUG_x86.dll
 0005:000001e8       __imp_?StoreIndices@Gu@physx@@YAXGIPBGAAVPxOutputStream@2@_N@Z 1011a1e8     PhysX3CommonDEBUG_x86:PhysX3CommonDEBUG_x86.dll
 0005:000001ec       __imp_?WriteHeader@Gu@physx@@YA_NEEEEI_NAAVPxOutputStream@2@@Z 1011a1ec     PhysX3CommonDEBUG_x86:PhysX3CommonDEBUG_x86.dll
 0005:000001f0       __imp_?computeMaxIndex@physx@@YAGPBGI@Z 1011a1f0     PhysX3CommonDEBUG_x86:PhysX3CommonDEBUG_x86.dll
 0005:000001f4       __imp_?BuildBV32Ex@Gu@physx@@YA_NAAVBV32Tree@12@AAVSourceMesh@12@MI@Z 1011a1f4     PhysX3CommonDEBUG_x86:PhysX3CommonDEBUG_x86.dll
 0005:000001f8       __imp_?writeWord@physx@@YAXG_NAAVPxOutputStream@1@@Z 1011a1f8     PhysX3CommonDEBUG_x86:PhysX3CommonDEBUG_x86.dll
 0005:000001fc       __imp_?writeDword@physx@@YAXI_NAAVPxOutputStream@1@@Z 1011a1fc     PhysX3CommonDEBUG_x86:PhysX3CommonDEBUG_x86.dll
 0005:00000200       __imp_?writeFloat@physx@@YAXM_NAAVPxOutputStream@1@@Z 1011a200     PhysX3CommonDEBUG_x86:PhysX3CommonDEBUG_x86.dll
 0005:00000204       __imp_?writeHeader@physx@@YA_NCCCCI_NAAVPxOutputStream@1@@Z 1011a204     PhysX3CommonDEBUG_x86:PhysX3CommonDEBUG_x86.dll
 0005:00000208       __imp_?validate@RTree@Gu@physx@@QAEXPAUCallbackRefit@123@@Z 1011a208     PhysX3CommonDEBUG_x86:PhysX3CommonDEBUG_x86.dll
 0005:0000020c       __imp_??0SourceMesh@Gu@physx@@QAE@XZ 1011a20c     PhysX3CommonDEBUG_x86:PhysX3CommonDEBUG_x86.dll
 0005:00000210       __imp_??1SourceMesh@Gu@physx@@QAE@XZ 1011a210     PhysX3CommonDEBUG_x86:PhysX3CommonDEBUG_x86.dll
 0005:00000214       __imp_??0BV4Tree@Gu@physx@@QAE@XZ 1011a214     PhysX3CommonDEBUG_x86:PhysX3CommonDEBUG_x86.dll
 0005:00000218       __imp_??1HeightField@Gu@physx@@UAE@XZ 1011a218     PhysX3CommonDEBUG_x86:PhysX3CommonDEBUG_x86.dll
 0005:0000021c       __imp_??0BV32Tree@Gu@physx@@QAE@XZ 1011a21c     PhysX3CommonDEBUG_x86:PhysX3CommonDEBUG_x86.dll
 0005:00000220       __imp_??1BV32Tree@Gu@physx@@QAE@XZ 1011a220     PhysX3CommonDEBUG_x86:PhysX3CommonDEBUG_x86.dll
 0005:00000224       __imp_?writeFloatBuffer@physx@@YAXPBMI_NAAVPxOutputStream@1@@Z 1011a224     PhysX3CommonDEBUG_x86:PhysX3CommonDEBUG_x86.dll
 0005:00000228       __imp_?writeWordBuffer@physx@@YAXPBGI_NAAVPxOutputStream@1@@Z 1011a228     PhysX3CommonDEBUG_x86:PhysX3CommonDEBUG_x86.dll
 0005:0000022c       __imp_?computeMaxIndex@physx@@YAIPBII@Z 1011a22c     PhysX3CommonDEBUG_x86:PhysX3CommonDEBUG_x86.dll
 0005:00000230       __imp_?storeIndices@physx@@YAXIIPBIAAVPxOutputStream@1@_N@Z 1011a230     PhysX3CommonDEBUG_x86:PhysX3CommonDEBUG_x86.dll
 0005:00000234       __imp_?computeBoundsAroundVertices@Gu@physx@@YAXAAVPxBounds3@2@IPIBVPxVec3@2@@Z 1011a234     PhysX3CommonDEBUG_x86:PhysX3CommonDEBUG_x86.dll
 0005:00000238       __imp_?BuildBV4Ex@Gu@physx@@YA_NAAVBV4Tree@12@AAVSourceMesh@12@MI@Z 1011a238     PhysX3CommonDEBUG_x86:PhysX3CommonDEBUG_x86.dll
 0005:0000023c       \177PhysX3CommonDEBUG_x86_NULL_THUNK_DATA_DLA 1011a23c     PhysX3CommonDEBUG_x86:PhysX3CommonDEBUG_x86.dll
 0005:00000284       __imp_??1FPUGuard@shdfnd@physx@@QAE@XZ 1011a284     PxFoundationDEBUG_x86:PxFoundationDEBUG_x86.dll
 0005:00000288       __imp_??0FPUGuard@shdfnd@physx@@QAE@XZ 1011a288     PxFoundationDEBUG_x86:PxFoundationDEBUG_x86.dll
 0005:0000028c       __imp_?decRefCount@Foundation@shdfnd@physx@@SAXXZ 1011a28c     PxFoundationDEBUG_x86:PxFoundationDEBUG_x86.dll
 0005:00000290       __imp_?incRefCount@Foundation@shdfnd@physx@@SAXXZ 1011a290     PxFoundationDEBUG_x86:PxFoundationDEBUG_x86.dll
 0005:00000294       __imp_?PxDiagonalize@physx@@YA?AVPxVec3@1@ABVPxMat33@1@AAVPxQuat@1@@Z 1011a294     PxFoundationDEBUG_x86:PxFoundationDEBUG_x86.dll
 0005:00000298       __imp_?error@Foundation@shdfnd@physx@@QAAXW4Enum@PxErrorCode@3@PBDH1ZZ 1011a298     PxFoundationDEBUG_x86:PxFoundationDEBUG_x86.dll
 0005:0000029c       __imp_?getInstance@Foundation@shdfnd@physx@@SAAAV123@XZ 1011a29c     PxFoundationDEBUG_x86:PxFoundationDEBUG_x86.dll
 0005:000002a0       __imp__PxGetFoundation     1011a2a0     PxFoundationDEBUG_x86:PxFoundationDEBUG_x86.dll
 0005:000002a4       __imp_?deallocate@TempAllocator@shdfnd@physx@@QAEXPAX@Z 1011a2a4     PxFoundationDEBUG_x86:PxFoundationDEBUG_x86.dll
 0005:000002a8       __imp_?allocate@TempAllocator@shdfnd@physx@@QAEPAXIPBDH@Z 1011a2a8     PxFoundationDEBUG_x86:PxFoundationDEBUG_x86.dll
 0005:000002ac       __imp_?deallocate@NamedAllocator@shdfnd@physx@@QAEXPAX@Z 1011a2ac     PxFoundationDEBUG_x86:PxFoundationDEBUG_x86.dll
 0005:000002b0       __imp_?allocate@NamedAllocator@shdfnd@physx@@QAEPAXIPBDH@Z 1011a2b0     PxFoundationDEBUG_x86:PxFoundationDEBUG_x86.dll
 0005:000002b4       __imp_??1NamedAllocator@shdfnd@physx@@QAE@XZ 1011a2b4     PxFoundationDEBUG_x86:PxFoundationDEBUG_x86.dll
 0005:000002b8       __imp_??0NamedAllocator@shdfnd@physx@@QAE@ABV012@@Z 1011a2b8     PxFoundationDEBUG_x86:PxFoundationDEBUG_x86.dll
 0005:000002bc       __imp_??0NamedAllocator@shdfnd@physx@@QAE@PBD@Z 1011a2bc     PxFoundationDEBUG_x86:PxFoundationDEBUG_x86.dll
 0005:000002c0       __imp_?getAllocator@shdfnd@physx@@YAAAVPxAllocatorCallback@2@XZ 1011a2c0     PxFoundationDEBUG_x86:PxFoundationDEBUG_x86.dll
 0005:000002c4       __imp_?PxGetAssertHandler@physx@@YAAAVPxAssertHandler@1@XZ 1011a2c4     PxFoundationDEBUG_x86:PxFoundationDEBUG_x86.dll
 0005:000002c8       \177PxFoundationDEBUG_x86_NULL_THUNK_DATA_DLA 1011a2c8     PxFoundationDEBUG_x86:PxFoundationDEBUG_x86.dll
 0005:00000eec       \177PxFoundationDEBUG_x86_NULL_THUNK_DATA_DLB 1011aeec     PxFoundationDEBUG_x86:PxFoundationDEBUG_x86.dll
 0005:00000f34       \177PhysX3CommonDEBUG_x86_NULL_THUNK_DATA_DLB 1011af34     PhysX3CommonDEBUG_x86:PhysX3CommonDEBUG_x86.dll
 0007:00000000       ___guard_check_icall_fptr  1011d000     LIBCMTD:guard_support.obj
