 PhysX3CharacterKinematicDEBUG_x64

 Timestamp is 58ca81eb (Thu Mar 16 12:15:39 2017)

 Preferred load address is 0000000180000000

 Start         Length     Name                   Class
 0001:00000000 00008bd0H .text$di                CODE
 0001:00008bd0 000ef790H .text$mn                CODE
 0001:000f8360 00001020H .text$mn$00             CODE
 0001:000f9380 00002069H .text$x                 CODE
 0002:00000000 00000110H .CRT$XCA                DATA
 0002:00000110 00000140H .CRT$XCU                DATA
 0002:00000250 00000110H .CRT$XCZ                DATA
 0002:00000360 00000110H .CRT$XIA                DATA
 0002:00000470 00000130H .CRT$XIC                DATA
 0002:000005a0 00000110H .CRT$XIZ                DATA
 0002:000006b0 00000110H .CRT$XPA                DATA
 0002:000007c0 00000120H .CRT$XPX                DATA
 0002:000008e0 00000110H .CRT$XPXA               DATA
 0002:000009f0 00000110H .CRT$XPZ                DATA
 0002:00000b00 00000110H .CRT$XTA                DATA
 0002:00000c10 00000110H .CRT$XTZ                DATA
 0002:00000d20 00027488H .rdata                  DATA
 0002:000281a8 0000060cH .rdata$r                DATA
 0002:000287b4 000001a4H .rdata$zzzdbg           DATA
 0002:00028958 00000110H .rtc$IAA                DATA
 0002:00028a68 000001d0H .rtc$IMZ                DATA
 0002:00028c38 00000110H .rtc$IZZ                DATA
 0002:00028d48 00000110H .rtc$TAA                DATA
 0002:00028e58 000001d0H .rtc$TMZ                DATA
 0002:00029028 00000118H .rtc$TZZ                DATA
 0002:00029140 000089b0H .xdata                  DATA
 0002:00031af0 000001a0H .xdata$x                DATA
 0002:00031c90 00000b11H .edata                  DATA
 0003:00000000 00000d70H .data                   DATA
 0003:00000d70 00000430H .data$r                 DATA
 0003:000011a0 00002291H .bss                    DATA
 0004:00000000 0000ae54H .pdata                  DATA
 0005:00000000 00000608H .idata$5                DATA
 0005:00000608 0000003cH .idata$2                DATA
 0005:00000644 00000014H .idata$3                DATA
 0005:00000658 00000608H .idata$4                DATA
 0005:00000c60 000015a6H .idata$6                DATA
 0006:00000000 000001f4H .gfids$x                DATA
 0006:000001f4 000001c2H .gfids$y                DATA
 0007:00000000 0000011bH .00cfg                  DATA
 0008:00000000 000001c0H .rsrc$01                DATA
 0008:000001c0 00000700H .rsrc$02                DATA

  Address         Publics by Value              Rva+Base               Lib:Object

 0000:00000000       __guard_iat_table          0000000000000000     <absolute>
 0000:00000000       __dynamic_value_reloc_table 0000000000000000     <absolute>
 0000:00000000       __guard_fids_table         0000000000000000     <absolute>
 0000:00000000       __guard_longjmp_count      0000000000000000     <absolute>
 0000:00000000       ___safe_se_handler_table   0000000000000000     <absolute>
 0000:00000000       ___safe_se_handler_count   0000000000000000     <absolute>
 0000:00000000       __guard_longjmp_table      0000000000000000     <absolute>
 0000:00000000       __guard_iat_count          0000000000000000     <absolute>
 0000:00000000       __guard_fids_count         0000000000000000     <absolute>
 0000:00000100       __guard_flags              0000000000000100     <absolute>
 0000:00000000       __ImageBase                0000000180000000     <linker-defined>
 0001:00008bd0       ??0BoxController@Cct@physx@@QEAA@AEBVPxControllerDesc@2@AEAVPxPhysics@2@PEAVPxScene@2@@Z 0000000180009bd0 f   CctBoxController.obj
 0001:00008d30       ??1BoxController@Cct@physx@@UEAA@XZ 0000000180009d30 f   CctBoxController.obj
 0001:00008d80       ?getWorldBox@BoxController@Cct@physx@@UEBA_NAEAUPxExtendedBounds3@3@@Z 0000000180009d80 f   CctBoxController.obj
 0001:00008df0       ?setFootPosition@BoxController@Cct@physx@@UEAA_NAEBUPxExtendedVec3@3@@Z 0000000180009df0 f   CctBoxController.obj
 0001:00008e80       ?getFootPosition@BoxController@Cct@physx@@UEBA?AUPxExtendedVec3@3@XZ 0000000180009e80 f   CctBoxController.obj
 0001:00008f10       ?invalidateCache@BoxController@Cct@physx@@UEAAXXZ 0000000180009f10 f   CctBoxController.obj
 0001:00008f90       ?resize@BoxController@Cct@physx@@UEAAXM@Z 0000000180009f90 f   CctBoxController.obj
 0001:00009060       ?getHalfHeight@BoxController@Cct@physx@@UEBAMXZ 000000018000a060 f   CctBoxController.obj
 0001:00009080       ?getHalfSideExtent@BoxController@Cct@physx@@UEBAMXZ 000000018000a080 f   CctBoxController.obj
 0001:000090a0       ?getHalfForwardExtent@BoxController@Cct@physx@@UEBAMXZ 000000018000a0a0 f   CctBoxController.obj
 0001:000090c0       ?setHalfHeight@BoxController@Cct@physx@@UEAA_NM@Z 000000018000a0c0 f   CctBoxController.obj
 0001:00009110       ?setHalfSideExtent@BoxController@Cct@physx@@UEAA_NM@Z 000000018000a110 f   CctBoxController.obj
 0001:00009160       ?setHalfForwardExtent@BoxController@Cct@physx@@UEAA_NM@Z 000000018000a160 f   CctBoxController.obj
 0001:000091b0       ?updateKinematicProxy@BoxController@Cct@physx@@QEAA_NXZ 000000018000a1b0 f   CctBoxController.obj
 0001:000092d0       ?getOBB@BoxController@Cct@physx@@QEBAXAEAVPxExtendedBox@3@@Z 000000018000a2d0 f   CctBoxController.obj
 0001:000095d0       ??0Allocator@shdfnd@physx@@QEAA@PEBD@Z 000000018000a5d0 f i CctBoxController.obj
 0001:000095f0       ??0NonTrackingAllocator@shdfnd@physx@@QEAA@PEBD@Z 000000018000a5f0 f i CctBoxController.obj
 0001:00009610       ??0PxBoxController@physx@@IEAA@XZ 000000018000a610 f i CctBoxController.obj
 0001:00009650       ??0PxBoxGeometry@physx@@QEAA@XZ 000000018000a650 f i CctBoxController.obj
 0001:000096a0       ??0PxController@physx@@IEAA@XZ 000000018000a6a0 f i CctBoxController.obj
 0001:000096c0       ??0PxControllerManager@physx@@IEAA@XZ 000000018000a6c0 f i CctBoxController.obj
 0001:000096e0       ??0PxControllerManager@physx@@QEAA@AEBV01@@Z 000000018000a6e0 f i CctBoxController.obj
 0001:00009710       ??0PxExtendedBounds3@physx@@QEAA@XZ 000000018000a710 f i CctBoxController.obj
 0001:00009750       ??0PxExtendedVec3@physx@@QEAA@NNN@Z 000000018000a750 f i CctBoxController.obj
 0001:000097b0       ??0PxExtendedVec3@physx@@QEAA@XZ 000000018000a7b0 f i CctBoxController.obj
 0001:000097c0       ??0PxFoundation@physx@@QEAA@AEBV01@@Z 000000018000a7c0 f i CctBoxController.obj
 0001:000097f0       ??0PxFoundation@physx@@QEAA@XZ 000000018000a7f0 f i CctBoxController.obj
 0001:00009810       ??0PxGeometry@physx@@IEAA@W4Enum@PxGeometryType@1@@Z 000000018000a810 f i CctBoxController.obj
 0001:00009830       ??0PxVec3@physx@@QEAA@AEBV01@@Z 000000018000a830 f i CctBoxController.obj
 0001:00009890       ??0PxVec3@physx@@QEAA@MMM@Z 000000018000a890 f i CctBoxController.obj
 0001:000098f0       ??1PxBoxController@physx@@MEAA@XZ 000000018000a8f0 f i CctBoxController.obj
 0001:00009920       ??1PxController@physx@@MEAA@XZ 000000018000a920 f i CctBoxController.obj
 0001:00009940       ??1PxControllerManager@physx@@MEAA@XZ 000000018000a940 f i CctBoxController.obj
 0001:00009960       ??1PxFoundation@physx@@MEAA@XZ 000000018000a960 f i CctBoxController.obj
 0001:00009980       ??3UserAllocated@shdfnd@physx@@SAXPEAX@Z 000000018000a980 f i CctBoxController.obj
 0001:000099b0       ??4Allocator@shdfnd@physx@@QEAAAEAV012@$$QEAV012@@Z 000000018000a9b0 f i CctBoxController.obj
 0001:000099d0       ??4Allocator@shdfnd@physx@@QEAAAEAV012@AEBV012@@Z 000000018000a9d0 f i CctBoxController.obj
 0001:000099f0       ??4MutexImpl@shdfnd@physx@@QEAAAEAV012@AEBV012@@Z 000000018000a9f0 f i CctBoxController.obj
 0001:00009a10       ??4PxControllerManager@physx@@QEAAAEAV01@AEBV01@@Z 000000018000aa10 f i CctBoxController.obj
 0001:00009a30       ??4PxFoundation@physx@@QEAAAEAV01@AEBV01@@Z 000000018000aa30 f i CctBoxController.obj
 0001:00009a50       ??4PxQuat@physx@@QEAAAEAV01@AEBV01@@Z 000000018000aa50 f i CctBoxController.obj
 0001:00009ad0       ??4PxVec3@physx@@QEAAAEAV01@AEBV01@@Z 000000018000aad0 f i CctBoxController.obj
 0001:00009b30       ??DPxVec3@physx@@QEBA?AV01@M@Z 000000018000ab30 f i CctBoxController.obj
 0001:00009bc0       ??GPxExtendedVec3@physx@@QEBA?AVPxVec3@1@AEBU01@@Z 000000018000abc0 f i CctBoxController.obj
 0001:00009c70       ??HPxExtendedVec3@physx@@QEBA?AU01@AEBU01@@Z 000000018000ac70 f i CctBoxController.obj
 0001:00009d10       ??XPxExtendedVec3@physx@@QEAAAEAU01@AEBM@Z 000000018000ad10 f i CctBoxController.obj
 0001:00009db0       ??XPxVec3@physx@@QEAAAEAV01@M@Z 000000018000adb0 f i CctBoxController.obj
 0001:00009e30       ??YPxExtendedVec3@physx@@QEAAAEAU01@AEBVPxVec3@1@@Z 000000018000ae30 f i CctBoxController.obj
 0001:00009ed0       ??ZPxExtendedVec3@physx@@QEAAAEAU01@AEBVPxVec3@1@@Z 000000018000aed0 f i CctBoxController.obj
 0001:00009f6c       ??_EBoxController@Cct@physx@@W7EAAPEAXI@Z 000000018000af6c f i CctBoxController.obj
 0001:00009f80       ??_EPxControllerManager@physx@@MEAAPEAXI@Z 000000018000af80 f i CctBoxController.obj
 0001:0000a050       ??_EPxFoundation@physx@@MEAAPEAXI@Z 000000018000b050 f i CctBoxController.obj
 0001:0000a120       ??_FAllocator@shdfnd@physx@@QEAAXXZ 000000018000b120 f i CctBoxController.obj
 0001:0000a140       ??_FNamedAllocator@shdfnd@physx@@QEAAXXZ 000000018000b140 f i CctBoxController.obj
 0001:0000a160       ??_GBoxController@Cct@physx@@UEAAPEAXI@Z 000000018000b160 f i CctBoxController.obj
 0001:0000a160       ??_EBoxController@Cct@physx@@UEAAPEAXI@Z 000000018000b160 f i CctBoxController.obj
 0001:0000a1d0       ??_EPxBoxController@physx@@MEAAPEAXI@Z 000000018000b1d0 f i CctBoxController.obj
 0001:0000a1d0       ??_GPxBoxController@physx@@MEAAPEAXI@Z 000000018000b1d0 f i CctBoxController.obj
 0001:0000a220       ??_EPxController@physx@@MEAAPEAXI@Z 000000018000b220 f i CctBoxController.obj
 0001:0000a220       ??_GPxController@physx@@MEAAPEAXI@Z 000000018000b220 f i CctBoxController.obj
 0001:0000a270       ??_GPxControllerManager@physx@@MEAAPEAXI@Z 000000018000b270 f i CctBoxController.obj
 0001:0000a2c0       ??_GPxFoundation@physx@@MEAAPEAXI@Z 000000018000b2c0 f i CctBoxController.obj
 0001:0000a310       ??_H@YAXPEAX_K1P6APEAX0@Z@Z 000000018000b310 f i CctBoxController.obj
 0001:0000a3b0       ??_I@YAXPEAX_K1P6AX0@Z@Z   000000018000b3b0 f i CctBoxController.obj
 0001:0000a470       ?__empty_global_delete@@YAXPEAX@Z 000000018000b470 f i CctBoxController.obj
 0001:0000a480       ?__empty_global_delete@@YAXPEAX_K@Z 000000018000b480 f i CctBoxController.obj
 0001:0000a480       ?__global_delete@@YAXPEAX_K@Z 000000018000b480 f i CctBoxController.obj
 0001:0000a490       ?deallocate@NonTrackingAllocator@shdfnd@physx@@QEAAXPEAX@Z 000000018000b490 f i CctBoxController.obj
 0001:0000a4e0       ?getActor@BoxController@Cct@physx@@UEBAPEAVPxRigidDynamic@3@XZ 000000018000b4e0 f i CctBoxController.obj
 0001:0000a500       ?getCenter@physx@@YAXAEBUPxExtendedBounds3@1@AEAUPxExtendedVec3@1@@Z 000000018000b500 f i CctBoxController.obj
 0001:0000a580       ?getContactOffset@BoxController@Cct@physx@@UEBAMXZ 000000018000b580 f i CctBoxController.obj
 0001:0000a5a0       ?getExtents@physx@@YAXAEBUPxExtendedBounds3@1@AEAVPxVec3@1@@Z 000000018000b5a0 f i CctBoxController.obj
 0001:0000a600       ?getHalfHeightInternal@BoxController@Cct@physx@@UEBAMXZ 000000018000b600 f i CctBoxController.obj
 0001:0000a620       ?getNonWalkableMode@BoxController@Cct@physx@@UEBA?AW4Enum@PxControllerNonWalkableMode@3@XZ 000000018000b620 f i CctBoxController.obj
 0001:0000a640       ?getPosition@BoxController@Cct@physx@@UEBAAEBUPxExtendedVec3@3@XZ 000000018000b640 f i CctBoxController.obj
 0001:0000a660       ?getPxController@BoxController@Cct@physx@@UEAAPEAVPxController@3@XZ 000000018000b660 f i CctBoxController.obj
 0001:0000a680       ?getScene@BoxController@Cct@physx@@UEAAPEAVPxScene@3@XZ 000000018000b680 f i CctBoxController.obj
 0001:0000a6a0       ?getSlopeLimit@BoxController@Cct@physx@@UEBAMXZ 000000018000b6a0 f i CctBoxController.obj
 0001:0000a6c0       ?getState@BoxController@Cct@physx@@UEBAXAEAUPxControllerState@3@@Z 000000018000b6c0 f i CctBoxController.obj
 0001:0000a700       ?getStats@BoxController@Cct@physx@@UEBAXAEAUPxControllerStats@3@@Z 000000018000b700 f i CctBoxController.obj
 0001:0000a740       ?getStepOffset@BoxController@Cct@physx@@UEBAMXZ 000000018000b740 f i CctBoxController.obj
 0001:0000a760       ?getType@BoxController@Cct@physx@@UEBA?AW4Enum@PxControllerShapeType@3@XZ 000000018000b760 f i CctBoxController.obj
 0001:0000a780       ?getUpDirection@BoxController@Cct@physx@@UEBA?AVPxVec3@3@XZ 000000018000b780 f i CctBoxController.obj
 0001:0000a7c0       ?getUserData@BoxController@Cct@physx@@UEBAPEAXXZ 000000018000b7c0 f i CctBoxController.obj
 0001:0000a7e0       ?lock@?$MutexT@V?$ReflectionAllocator@VMutexImpl@shdfnd@physx@@@shdfnd@physx@@@shdfnd@physx@@QEBAXXZ 000000018000b7e0 f i CctBoxController.obj
 0001:0000a810       ?release@BoxController@Cct@physx@@UEAAXXZ 000000018000b810 f i CctBoxController.obj
 0001:0000a840       ?setCenterExtents@physx@@YAXAEAUPxExtendedBounds3@1@AEBUPxExtendedVec3@1@AEBVPxVec3@1@@Z 000000018000b840 f i CctBoxController.obj
 0001:0000a8d0       ?setContactOffset@BoxController@Cct@physx@@UEAAXM@Z 000000018000b8d0 f i CctBoxController.obj
 0001:0000a910       ?setNonWalkableMode@BoxController@Cct@physx@@UEAAXW4Enum@PxControllerNonWalkableMode@3@@Z 000000018000b910 f i CctBoxController.obj
 0001:0000a930       ?setPosition@BoxController@Cct@physx@@UEAA_NAEBUPxExtendedVec3@3@@Z 000000018000b930 f i CctBoxController.obj
 0001:0000a970       ?setSlopeLimit@BoxController@Cct@physx@@UEAAXM@Z 000000018000b970 f i CctBoxController.obj
 0001:0000a9b0       ?setStepOffset@BoxController@Cct@physx@@UEAAXM@Z 000000018000b9b0 f i CctBoxController.obj
 0001:0000a9f0       ?setUpDirection@BoxController@Cct@physx@@UEAAXAEBVPxVec3@3@@Z 000000018000b9f0 f i CctBoxController.obj
 0001:0000aa30       ?setUserData@BoxController@Cct@physx@@UEAAXPEAX@Z 000000018000ba30 f i CctBoxController.obj
 0001:0000aa50       ?unlock@?$MutexT@V?$ReflectionAllocator@VMutexImpl@shdfnd@physx@@@shdfnd@physx@@@shdfnd@physx@@QEBAXXZ 000000018000ba50 f i CctBoxController.obj
 0001:0000aa80       ??0CapsuleController@Cct@physx@@QEAA@AEBVPxControllerDesc@2@AEAVPxPhysics@2@PEAVPxScene@2@@Z 000000018000ba80 f   CctCapsuleController.obj
 0001:0000abd0       ??1CapsuleController@Cct@physx@@UEAA@XZ 000000018000bbd0 f   CctCapsuleController.obj
 0001:0000ac20       ?getWorldBox@CapsuleController@Cct@physx@@UEBA_NAEAUPxExtendedBounds3@3@@Z 000000018000bc20 f   CctCapsuleController.obj
 0001:0000acb0       ?setFootPosition@CapsuleController@Cct@physx@@UEAA_NAEBUPxExtendedVec3@3@@Z 000000018000bcb0 f   CctCapsuleController.obj
 0001:0000ad50       ?getFootPosition@CapsuleController@Cct@physx@@UEBA?AUPxExtendedVec3@3@XZ 000000018000bd50 f   CctCapsuleController.obj
 0001:0000ae00       ?invalidateCache@CapsuleController@Cct@physx@@UEAAXXZ 000000018000be00 f   CctCapsuleController.obj
 0001:0000ae80       ?resize@CapsuleController@Cct@physx@@UEAAXM@Z 000000018000be80 f   CctCapsuleController.obj
 0001:0000af80       ?getClimbingMode@CapsuleController@Cct@physx@@UEBA?AW4Enum@PxCapsuleClimbingMode@3@XZ 000000018000bf80 f   CctCapsuleController.obj
 0001:0000afa0       ?setRadius@CapsuleController@Cct@physx@@UEAA_NM@Z 000000018000bfa0 f   CctCapsuleController.obj
 0001:0000b0b0       ?setHeight@CapsuleController@Cct@physx@@UEAA_NM@Z 000000018000c0b0 f   CctCapsuleController.obj
 0001:0000b1c0       ?setClimbingMode@CapsuleController@Cct@physx@@UEAA_NW4Enum@PxCapsuleClimbingMode@3@@Z 000000018000c1c0 f   CctCapsuleController.obj
 0001:0000b1f0       ?getCapsule@CapsuleController@Cct@physx@@QEBAXAEAUPxExtendedCapsule@3@@Z 000000018000c1f0 f   CctCapsuleController.obj
 0001:0000b580       ??0PxCapsuleController@physx@@IEAA@XZ 000000018000c580 f i CctCapsuleController.obj
 0001:0000b5c0       ??0PxCapsuleGeometry@physx@@QEAA@XZ 000000018000c5c0 f i CctCapsuleController.obj
 0001:0000b610       ??1PxCapsuleController@physx@@MEAA@XZ 000000018000c610 f i CctCapsuleController.obj
 0001:0000b640       ??_ECapsuleController@Cct@physx@@W7EAAPEAXI@Z 000000018000c640 f i CctCapsuleController.obj
 0001:0000b650       ??_ECapsuleController@Cct@physx@@UEAAPEAXI@Z 000000018000c650 f i CctCapsuleController.obj
 0001:0000b650       ??_GCapsuleController@Cct@physx@@UEAAPEAXI@Z 000000018000c650 f i CctCapsuleController.obj
 0001:0000b6c0       ??_GPxCapsuleController@physx@@MEAAPEAXI@Z 000000018000c6c0 f i CctCapsuleController.obj
 0001:0000b6c0       ??_EPxCapsuleController@physx@@MEAAPEAXI@Z 000000018000c6c0 f i CctCapsuleController.obj
 0001:0000b710       ?getActor@CapsuleController@Cct@physx@@UEBAPEAVPxRigidDynamic@3@XZ 000000018000c710 f i CctCapsuleController.obj
 0001:0000b730       ?getContactOffset@CapsuleController@Cct@physx@@UEBAMXZ 000000018000c730 f i CctCapsuleController.obj
 0001:0000b750       ?getHalfHeightInternal@CapsuleController@Cct@physx@@UEBAMXZ 000000018000c750 f i CctCapsuleController.obj
 0001:0000b790       ?getHeight@CapsuleController@Cct@physx@@UEBAMXZ 000000018000c790 f i CctCapsuleController.obj
 0001:0000b7b0       ?getNonWalkableMode@CapsuleController@Cct@physx@@UEBA?AW4Enum@PxControllerNonWalkableMode@3@XZ 000000018000c7b0 f i CctCapsuleController.obj
 0001:0000b7d0       ?getPosition@CapsuleController@Cct@physx@@UEBAAEBUPxExtendedVec3@3@XZ 000000018000c7d0 f i CctCapsuleController.obj
 0001:0000b7f0       ?getPxController@CapsuleController@Cct@physx@@UEAAPEAVPxController@3@XZ 000000018000c7f0 f i CctCapsuleController.obj
 0001:0000b810       ?getRadius@CapsuleController@Cct@physx@@UEBAMXZ 000000018000c810 f i CctCapsuleController.obj
 0001:0000b830       ?getScene@CapsuleController@Cct@physx@@UEAAPEAVPxScene@3@XZ 000000018000c830 f i CctCapsuleController.obj
 0001:0000b850       ?getSlopeLimit@CapsuleController@Cct@physx@@UEBAMXZ 000000018000c850 f i CctCapsuleController.obj
 0001:0000b870       ?getState@CapsuleController@Cct@physx@@UEBAXAEAUPxControllerState@3@@Z 000000018000c870 f i CctCapsuleController.obj
 0001:0000b8b0       ?getStats@CapsuleController@Cct@physx@@UEBAXAEAUPxControllerStats@3@@Z 000000018000c8b0 f i CctCapsuleController.obj
 0001:0000b8f0       ?getStepOffset@CapsuleController@Cct@physx@@UEBAMXZ 000000018000c8f0 f i CctCapsuleController.obj
 0001:0000b910       ?getType@CapsuleController@Cct@physx@@UEBA?AW4Enum@PxControllerShapeType@3@XZ 000000018000c910 f i CctCapsuleController.obj
 0001:0000b930       ?getUpDirection@CapsuleController@Cct@physx@@UEBA?AVPxVec3@3@XZ 000000018000c930 f i CctCapsuleController.obj
 0001:0000b970       ?getUserData@CapsuleController@Cct@physx@@UEBAPEAXXZ 000000018000c970 f i CctCapsuleController.obj
 0001:0000b990       ?release@CapsuleController@Cct@physx@@UEAAXXZ 000000018000c990 f i CctCapsuleController.obj
 0001:0000b9c0       ?setContactOffset@CapsuleController@Cct@physx@@UEAAXM@Z 000000018000c9c0 f i CctCapsuleController.obj
 0001:0000ba00       ?setNonWalkableMode@CapsuleController@Cct@physx@@UEAAXW4Enum@PxControllerNonWalkableMode@3@@Z 000000018000ca00 f i CctCapsuleController.obj
 0001:0000ba20       ?setPosition@CapsuleController@Cct@physx@@UEAA_NAEBUPxExtendedVec3@3@@Z 000000018000ca20 f i CctCapsuleController.obj
 0001:0000ba60       ?setSlopeLimit@CapsuleController@Cct@physx@@UEAAXM@Z 000000018000ca60 f i CctCapsuleController.obj
 0001:0000baa0       ?setStepOffset@CapsuleController@Cct@physx@@UEAAXM@Z 000000018000caa0 f i CctCapsuleController.obj
 0001:0000bae0       ?setUpDirection@CapsuleController@Cct@physx@@UEAAXAEBVPxVec3@3@@Z 000000018000cae0 f i CctCapsuleController.obj
 0001:0000bb20       ?setUserData@CapsuleController@Cct@physx@@UEAAXPEAX@Z 000000018000cb20 f i CctCapsuleController.obj
 0001:0000bb40       ??0CCTParams@Cct@physx@@QEAA@XZ 000000018000cb40 f   CctCharacterController.obj
 0001:0000bc10       ??0SweepTest@Cct@physx@@QEAA@_N@Z 000000018000cc10 f   CctCharacterController.obj
 0001:0000c040       ??1SweepTest@Cct@physx@@QEAA@XZ 000000018000d040 f   CctCharacterController.obj
 0001:0000c0c0       ?moveCharacter@SweepTest@Cct@physx@@QEAA?AV?$PxFlags@W4Enum@PxControllerCollisionFlag@physx@@E@3@PEBUInternalCBData_FindTouchedGeom@23@PEAUInternalCBData_OnHit@23@AEAVSweptVolume@23@AEBVPxVec3@3@AEBUUserObstacles@23@MAEBVPxControllerFilters@3@_N6AEAPEBVPxRigidActor@3@AEAPEBVPxShape@3@_K@Z 000000018000d0c0 f   CctCharacterController.obj
 0001:0000d000       ?doSweepTest@SweepTest@Cct@physx@@QEAA_NPEBUInternalCBData_FindTouchedGeom@23@PEAUInternalCBData_OnHit@23@AEBUUserObstacles@23@AEAVSweptVolume@23@AEBVPxVec3@3@4IPEAIMAEBVPxControllerFilters@3@W4SweepPass@23@AEAPEBVPxRigidActor@3@AEAPEBVPxShape@3@_K@Z 000000018000e000 f   CctCharacterController.obj
 0001:0000de10       ?findTouchedObstacles@SweepTest@Cct@physx@@QEAAXAEBUUserObstacles@23@AEBUPxExtendedBounds3@3@@Z 000000018000ee10 f   CctCharacterController.obj
 0001:0000e470       ?voidTestCache@SweepTest@Cct@physx@@QEAAXXZ 000000018000f470 f   CctCharacterController.obj
 0001:0000e4d0       ?onRelease@SweepTest@Cct@physx@@QEAAXAEBVPxBase@3@@Z 000000018000f4d0 f   CctCharacterController.obj
 0001:0000e5a0       ?updateCachedShapesRegistration@SweepTest@Cct@physx@@QEAAXI_N@Z 000000018000f5a0 f   CctCharacterController.obj
 0001:0000e740       ?onObstacleRemoved@SweepTest@Cct@physx@@QEAAXI@Z 000000018000f740 f   CctCharacterController.obj
 0001:0000e770       ?onObstacleUpdated@SweepTest@Cct@physx@@QEAAXIPEBVPxObstacleContext@3@AEBVPxVec3@3@1M@Z 000000018000f770 f   CctCharacterController.obj
 0001:0000e960       ?onObstacleAdded@SweepTest@Cct@physx@@QEAAXIPEBVPxObstacleContext@3@AEBVPxVec3@3@1M@Z 000000018000f960 f   CctCharacterController.obj
 0001:0000eb80       ?onOriginShift@SweepTest@Cct@physx@@QEAAXAEBVPxVec3@3@@Z 000000018000fb80 f   CctCharacterController.obj
 0001:0000ed00       ?updateTouchedGeoms@SweepTest@Cct@physx@@AEAAXPEBUInternalCBData_FindTouchedGeom@23@AEBUUserObstacles@23@AEBUPxExtendedBounds3@3@AEBVPxControllerFilters@3@AEBVPxVec3@3@@Z 000000018000fd00 f   CctCharacterController.obj
 0001:0000f6a0       ?findTouchedObject@Controller@Cct@physx@@IEAAXAEBVPxControllerFilters@3@PEBVPxObstacleContext@3@AEBVPxVec3@3@@Z 00000001800106a0 f   CctCharacterController.obj
 0001:0000ff20       ?rideOnTouchedObject@Controller@Cct@physx@@IEAA_NAEAVSweptVolume@23@AEBVPxVec3@3@AEAV53@PEBVPxObstacleContext@3@@Z 0000000180010f20 f   CctCharacterController.obj
 0001:000105a0       ?move@Controller@Cct@physx@@IEAA?AV?$PxFlags@W4Enum@PxControllerCollisionFlag@physx@@E@3@AEAVSweptVolume@23@AEBVPxVec3@3@MMAEBVPxControllerFilters@3@PEBVPxObstacleContext@3@_N@Z 00000001800115a0 f   CctCharacterController.obj
 0001:00011ce0       ?filterTouchedShape@Controller@Cct@physx@@IEAA_NAEBVPxControllerFilters@3@@Z 0000000180012ce0 f   CctCharacterController.obj
 0001:000153a0       ?move@BoxController@Cct@physx@@UEAA?AV?$PxFlags@W4Enum@PxControllerCollisionFlag@physx@@E@3@AEBVPxVec3@3@MMAEBVPxControllerFilters@3@PEBVPxObstacleContext@3@@Z 00000001800163a0 f   CctCharacterController.obj
 0001:00015520       ?move@CapsuleController@Cct@physx@@UEAA?AV?$PxFlags@W4Enum@PxControllerCollisionFlag@physx@@E@3@AEBVPxVec3@3@MMAEBVPxControllerFilters@3@PEBVPxObstacleContext@3@@Z 0000000180016520 f   CctCharacterController.obj
 0001:00017db0       ??$PX_UNUSED@I@@YAXAEBI@Z  0000000180018db0 f i CctCharacterController.obj
 0001:00017dc0       ??$PX_UNUSED@PEBUPxRaycastHit@physx@@@@YAXAEBQEBUPxRaycastHit@physx@@@Z 0000000180018dc0 f i CctCharacterController.obj
 0001:00017dd0       ??$PX_UNUSED@W4PxIDENTITY@physx@@@@YAXAEBW4PxIDENTITY@physx@@@Z 0000000180018dd0 f i CctCharacterController.obj
 0001:00017de0       ??$PX_UNUSED@_K@@YAXAEB_K@Z 0000000180018de0 f i CctCharacterController.obj
 0001:00017df0       ??$PxMax@I@physx@@YAIII@Z  0000000180018df0 f i CctCharacterController.obj
 0001:00017e30       ??$PxMax@N@physx@@YANNN@Z  0000000180018e30 f i CctCharacterController.obj
 0001:00017e80       ??$PxMin@N@physx@@YANNN@Z  0000000180018e80 f i CctCharacterController.obj
 0001:00017ed0       ??$PxUnionCast@PEBVPxGeometry@physx@@PEAY03$$CBE@physx@@YAPEBVPxGeometry@0@PEAY03$$CBE@Z 0000000180018ed0 f i CctCharacterController.obj
 0001:00017f00       ??0?$Array@IVNamedAllocator@shdfnd@physx@@@shdfnd@physx@@QEAA@AEBVNamedAllocator@12@@Z 0000000180018f00 f i CctCharacterController.obj
 0001:00017f60       ??0?$Array@VPxTriangle@physx@@VNamedAllocator@shdfnd@2@@shdfnd@physx@@QEAA@AEBVNamedAllocator@12@@Z 0000000180018f60 f i CctCharacterController.obj
 0001:00017fc0       ??0?$PxFlags@W4Enum@PxControllerCollisionFlag@physx@@E@physx@@QEAA@AEBV01@@Z 0000000180018fc0 f i CctCharacterController.obj
 0001:00017ff0       ??0?$PxFlags@W4Enum@PxControllerCollisionFlag@physx@@E@physx@@QEAA@E@Z 0000000180018ff0 f i CctCharacterController.obj
 0001:00018020       ??0?$PxFlags@W4Enum@PxHitFlag@physx@@G@physx@@QEAA@AEBV01@@Z 0000000180019020 f i CctCharacterController.obj
 0001:00018050       ??0?$PxFlags@W4Enum@PxHitFlag@physx@@G@physx@@QEAA@G@Z 0000000180019050 f i CctCharacterController.obj
 0001:00018080       ??0?$PxFlags@W4Enum@PxHitFlag@physx@@G@physx@@QEAA@W4Enum@PxHitFlag@1@@Z 0000000180019080 f i CctCharacterController.obj
 0001:000180b0       ??0?$PxFlags@W4Enum@PxQueryFlag@physx@@G@physx@@QEAA@AEBV01@@Z 00000001800190b0 f i CctCharacterController.obj
 0001:000180e0       ??0?$PxFlags@W4Enum@PxQueryFlag@physx@@G@physx@@QEAA@W4Enum@PxQueryFlag@1@@Z 00000001800190e0 f i CctCharacterController.obj
 0001:00018110       ??0?$PxFlags@W4Enum@PxQueryFlag@physx@@G@physx@@QEAA@XZ 0000000180019110 f i CctCharacterController.obj
 0001:00018130       ??0?$PxFlags@W4Enum@PxRigidBodyFlag@physx@@E@physx@@QEAA@AEBV01@@Z 0000000180019130 f i CctCharacterController.obj
 0001:00018160       ??0?$PxFlags@W4Enum@PxShapeFlag@physx@@E@physx@@QEAA@AEBV01@@Z 0000000180019160 f i CctCharacterController.obj
 0001:00018190       ??0?$PxHitBuffer@UPxRaycastHit@physx@@@physx@@QEAA@PEAUPxRaycastHit@1@I@Z 0000000180019190 f i CctCharacterController.obj
 0001:000181e0       ??0?$PxHitCallback@UPxRaycastHit@physx@@@physx@@QEAA@PEAUPxRaycastHit@1@I@Z 00000001800191e0 f i CctCharacterController.obj
 0001:00018270       ??0?$TouchedObject@VPxRigidActor@physx@@@Cct@physx@@QEAA@_N@Z 0000000180019270 f i CctCharacterController.obj
 0001:000182c0       ??0?$TouchedObject@VPxShape@physx@@@Cct@physx@@QEAA@_N@Z 00000001800192c0 f i CctCharacterController.obj
 0001:00018340       ??0CCTFilter@Cct@physx@@QEAA@XZ 0000000180019340 f i CctCharacterController.obj
 0001:000183b0       ??0ControllerFilter@@QEAA@XZ 00000001800193b0 f i CctCharacterController.obj
 0001:00018400       ??0DebugBox@Cm@physx@@QEAA@AEBVPxBounds3@2@_N@Z 0000000180019400 f i CctCharacterController.obj
 0001:00018470       ??0DebugBox@Cm@physx@@QEAA@AEBVPxVec3@2@_N@Z 0000000180019470 f i CctCharacterController.obj
 0001:000184e0       ??0PxActorShape@physx@@QEAA@XZ 00000001800194e0 f i CctCharacterController.obj
 0001:00018510       ??0PxBounds3@physx@@QEAA@AEBVPxVec3@1@0@Z 0000000180019510 f i CctCharacterController.obj
 0001:00018570       ??0PxBoxGeometry@physx@@QEAA@VPxVec3@1@@Z 0000000180019570 f i CctCharacterController.obj
 0001:000185c0       ??0PxCapsuleGeometry@physx@@QEAA@MM@Z 00000001800195c0 f i CctCharacterController.obj
 0001:00018630       ??0PxExtendedBox@physx@@QEAA@AEBV01@@Z 0000000180019630 f i CctCharacterController.obj
 0001:000186b0       ??0PxExtendedBox@physx@@QEAA@XZ 00000001800196b0 f i CctCharacterController.obj
 0001:00018710       ??0PxExtendedCapsule@physx@@QEAA@XZ 0000000180019710 f i CctCharacterController.obj
 0001:00018740       ??0PxExtendedSegment@physx@@QEAA@XZ 0000000180019740 f i CctCharacterController.obj
 0001:00018780       ??0PxFilterData@physx@@QEAA@XZ 0000000180019780 f i CctCharacterController.obj
 0001:000187d0       ??0PxLocationHit@physx@@QEAA@XZ 00000001800197d0 f i CctCharacterController.obj
 0001:00018860       ??0PxMat33@physx@@QEAA@AEBVPxQuat@1@@Z 0000000180019860 f i CctCharacterController.obj
 0001:00018ba0       ??0PxMat33@physx@@QEAA@W4PxIDENTITY@1@@Z 0000000180019ba0 f i CctCharacterController.obj
 0001:00018c40       ??0PxMat44@physx@@QEAA@AEBVPxMat33@1@AEBVPxVec3@1@@Z 0000000180019c40 f i CctCharacterController.obj
 0001:00018cf0       ??0PxMat44@physx@@QEAA@AEBVPxTransform@1@@Z 0000000180019cf0 f i CctCharacterController.obj
 0001:00018de0       ??0PxProfileScoped@physx@@QEAA@PEBD_N_K@Z 0000000180019de0 f i CctCharacterController.obj
 0001:00018eb0       ??0PxQuat@physx@@QEAA@AEBV01@@Z 0000000180019eb0 f i CctCharacterController.obj
 0001:00018f30       ??0PxQuat@physx@@QEAA@MMMM@Z 0000000180019f30 f i CctCharacterController.obj
 0001:00018fb0       ??0PxQuat@physx@@QEAA@W4PxIDENTITY@1@@Z 0000000180019fb0 f i CctCharacterController.obj
 0001:00019020       ??0PxQuat@physx@@QEAA@XZ   000000018001a020 f i CctCharacterController.obj
 0001:00019030       ??0PxQueryFilterCallback@physx@@QEAA@XZ 000000018001a030 f i CctCharacterController.obj
 0001:00019050       ??0PxQueryFilterData@physx@@QEAA@AEBUPxFilterData@1@V?$PxFlags@W4Enum@PxQueryFlag@physx@@G@1@@Z 000000018001a050 f i CctCharacterController.obj
 0001:000190c0       ??0PxQueryHit@physx@@QEAA@XZ 000000018001a0c0 f i CctCharacterController.obj
 0001:00019100       ??0PxRaycastHit@physx@@QEAA@XZ 000000018001a100 f i CctCharacterController.obj
 0001:00019150       ??0PxSphereGeometry@physx@@QEAA@XZ 000000018001a150 f i CctCharacterController.obj
 0001:00019190       ??0PxSweepHit@physx@@QEAA@XZ 000000018001a190 f i CctCharacterController.obj
 0001:000191c0       ??0PxTransform@physx@@QEAA@AEBVPxVec3@1@AEBVPxQuat@1@@Z 000000018001a1c0 f i CctCharacterController.obj
 0001:00019290       ??0PxTransform@physx@@QEAA@XZ 000000018001a290 f i CctCharacterController.obj
 0001:000192d0       ??0PxVec3@physx@@QEAA@M@Z  000000018001a2d0 f i CctCharacterController.obj
 0001:00019320       ??0PxVec3@physx@@QEAA@XZ   000000018001a320 f i CctCharacterController.obj
 0001:00019330       ??0PxVec4@physx@@QEAA@AEBVPxVec3@1@M@Z 000000018001a330 f i CctCharacterController.obj
 0001:000193b0       ??0PxVec4@physx@@QEAA@XZ   000000018001a3b0 f i CctCharacterController.obj
 0001:000193c0       ??0SIMDGuard@shdfnd@physx@@QEAA@XZ 000000018001a3c0 f i CctCharacterController.obj
 0001:00019400       ??0SweptContact@Cct@physx@@QEAA@XZ 000000018001a400 f i CctCharacterController.obj
 0001:00019440       ??0TriArray@Cct@physx@@QEAA@XZ 000000018001a440 f i CctCharacterController.obj
 0001:00019490       ??1?$Array@IVNamedAllocator@shdfnd@physx@@@shdfnd@physx@@QEAA@XZ 000000018001a490 f i CctCharacterController.obj
 0001:00019520       ??1?$Array@VPxTriangle@physx@@VNamedAllocator@shdfnd@2@@shdfnd@physx@@QEAA@XZ 000000018001a520 f i CctCharacterController.obj
 0001:000195b0       ??1?$PxHitBuffer@UPxRaycastHit@physx@@@physx@@UEAA@XZ 000000018001a5b0 f i CctCharacterController.obj
 0001:000195e0       ??1?$PxHitCallback@UPxRaycastHit@physx@@@physx@@UEAA@XZ 000000018001a5e0 f i CctCharacterController.obj
 0001:00019600       ??1ControllerFilter@@UEAA@XZ 000000018001a600 f i CctCharacterController.obj
 0001:00019620       ??1PxExtendedBox@physx@@QEAA@XZ 000000018001a620 f i CctCharacterController.obj
 0001:00019630       ??1PxProfileScoped@physx@@QEAA@XZ 000000018001a630 f i CctCharacterController.obj
 0001:000196a0       ??1PxQueryFilterCallback@physx@@UEAA@XZ 000000018001a6a0 f i CctCharacterController.obj
 0001:000196c0       ??1PxTriangle@physx@@QEAA@XZ 000000018001a6c0 f i CctCharacterController.obj
 0001:000196d0       ??1SIMDGuard@shdfnd@physx@@QEAA@XZ 000000018001a6d0 f i CctCharacterController.obj
 0001:00019700       ??1TriArray@Cct@physx@@QEAA@XZ 000000018001a700 f i CctCharacterController.obj
 0001:00019720       ??2@YAPEAX_KPEAX@Z         000000018001a720 f i CctCharacterController.obj
 0001:00019740       ??4?$PxFlags@W4Enum@PxControllerCollisionFlag@physx@@E@physx@@QEAAAEAV01@AEBV01@@Z 000000018001a740 f i CctCharacterController.obj
 0001:00019770       ??4?$PxFlags@W4Enum@PxHitFlag@physx@@G@physx@@QEAAAEAV01@AEBV01@@Z 000000018001a770 f i CctCharacterController.obj
 0001:000197a0       ??4?$PxFlags@W4Enum@PxQueryFlag@physx@@G@physx@@QEAAAEAV01@AEBV01@@Z 000000018001a7a0 f i CctCharacterController.obj
 0001:000197d0       ??4?$TouchedObject@VPxRigidActor@physx@@@Cct@physx@@QEAAAEAU012@PEBVPxRigidActor@2@@Z 000000018001a7d0 f i CctCharacterController.obj
 0001:00019870       ??4?$TouchedObject@VPxShape@physx@@@Cct@physx@@QEAAAEAU012@PEBVPxShape@2@@Z 000000018001a870 f i CctCharacterController.obj
 0001:00019910       ??4CCTParams@Cct@physx@@QEAAAEAU012@AEBU012@@Z 000000018001a910 f i CctCharacterController.obj
 0001:00019a80       ??4FPUGuard@shdfnd@physx@@QEAAAEAV012@AEBV012@@Z 000000018001aa80 f i CctCharacterController.obj
 0001:00019ab0       ??4PxExtendedBox@physx@@QEAAAEAV01@AEBV01@@Z 000000018001aab0 f i CctCharacterController.obj
 0001:00019b30       ??4PxLocationHit@physx@@QEAAAEAU01@AEBU01@@Z 000000018001ab30 f i CctCharacterController.obj
 0001:00019bf0       ??4PxMat44@physx@@QEAAAEAV01@AEBV01@@Z 000000018001abf0 f i CctCharacterController.obj
 0001:00019c90       ??4PxRaycastHit@physx@@QEAAAEAU01@AEBU01@@Z 000000018001ac90 f i CctCharacterController.obj
 0001:00019d00       ??4PxTransform@physx@@QEAAAEAV01@$$QEAV01@@Z 000000018001ad00 f i CctCharacterController.obj
 0001:00019d60       ??4PxVec4@physx@@QEAAAEAV01@AEBV01@@Z 000000018001ad60 f i CctCharacterController.obj
 0001:00019de0       ??4SweptContact@Cct@physx@@QEAAAEAU012@AEBU012@@Z 000000018001ade0 f i CctCharacterController.obj
 0001:00019e90       ??8?$TouchedObject@VPxRigidActor@physx@@@Cct@physx@@QEAA_NPEBVPxBase@2@@Z 000000018001ae90 f i CctCharacterController.obj
 0001:00019ee0       ??8?$TouchedObject@VPxShape@physx@@@Cct@physx@@QEAA_NPEBVPxBase@2@@Z 000000018001aee0 f i CctCharacterController.obj
 0001:00019f30       ??8?$TouchedObject@VPxShape@physx@@@Cct@physx@@QEAA_NPEBVPxShape@2@@Z 000000018001af30 f i CctCharacterController.obj
 0001:00019f80       ??A?$Array@IVNamedAllocator@shdfnd@physx@@@shdfnd@physx@@QEAAAEAII@Z 000000018001af80 f i CctCharacterController.obj
 0001:0001a020       ??A?$Array@IVNamedAllocator@shdfnd@physx@@@shdfnd@physx@@QEBAAEBII@Z 000000018001b020 f i CctCharacterController.obj
 0001:0001a0c0       ??A?$Array@UInternalBoxObstacle@ObstacleContext@Cct@physx@@VNamedAllocator@shdfnd@4@@shdfnd@physx@@QEBAAEBUInternalBoxObstacle@ObstacleContext@Cct@2@I@Z 000000018001b0c0 f i CctCharacterController.obj
 0001:0001a160       ??A?$Array@UInternalCapsuleObstacle@ObstacleContext@Cct@physx@@VNamedAllocator@shdfnd@4@@shdfnd@physx@@QEBAAEBUInternalCapsuleObstacle@ObstacleContext@Cct@2@I@Z 000000018001b160 f i CctCharacterController.obj
 0001:0001a200       ??A?$Array@VPxTriangle@physx@@VNamedAllocator@shdfnd@2@@shdfnd@physx@@QEBAAEBVPxTriangle@2@I@Z 000000018001b200 f i CctCharacterController.obj
 0001:0001a2a0       ??B?$PxFlags@W4Enum@PxControllerBehaviorFlag@physx@@E@physx@@QEBAIXZ 000000018001b2a0 f i CctCharacterController.obj
 0001:0001a2c0       ??B?$PxFlags@W4Enum@PxControllerDebugRenderFlag@physx@@I@physx@@QEBAIXZ 000000018001b2c0 f i CctCharacterController.obj
 0001:0001a2d0       ??B?$PxFlags@W4Enum@PxQueryFlag@physx@@G@physx@@QEBA_NXZ 000000018001b2d0 f i CctCharacterController.obj
 0001:0001a310       ??B?$PxFlags@W4Enum@PxRigidBodyFlag@physx@@E@physx@@QEBA_NXZ 000000018001b310 f i CctCharacterController.obj
 0001:0001a350       ??B?$PxFlags@W4Enum@PxShapeFlag@physx@@E@physx@@QEBA_NXZ 000000018001b350 f i CctCharacterController.obj
 0001:0001a390       ??B?$TouchedObject@VPxRigidActor@physx@@@Cct@physx@@QEBA_NXZ 000000018001b390 f i CctCharacterController.obj
 0001:0001a3d0       ??B?$TouchedObject@VPxShape@physx@@@Cct@physx@@QEBA_NXZ 000000018001b3d0 f i CctCharacterController.obj
 0001:0001a410       ??C?$TouchedObject@VPxRigidActor@physx@@@Cct@physx@@QEBAPEBVPxRigidActor@2@XZ 000000018001b410 f i CctCharacterController.obj
 0001:0001a430       ??C?$TouchedObject@VPxShape@physx@@@Cct@physx@@QEBAPEBVPxShape@2@XZ 000000018001b430 f i CctCharacterController.obj
 0001:0001a450       ??DPxQuat@physx@@QEBA?AV01@AEBV01@@Z 000000018001b450 f i CctCharacterController.obj
 0001:0001a660       ??DPxTransform@physx@@QEBA?AV01@AEBV01@@Z 000000018001b660 f i CctCharacterController.obj
 0001:0001a710       ??GPxVec3@physx@@QEBA?AV01@AEBV01@@Z 000000018001b710 f i CctCharacterController.obj
 0001:0001a7b0       ??GPxVec3@physx@@QEBA?AV01@XZ 000000018001b7b0 f i CctCharacterController.obj
 0001:0001a840       ??HPxVec3@physx@@QEBA?AV01@AEBV01@@Z 000000018001b840 f i CctCharacterController.obj
 0001:0001a8e0       ??I?$PxFlags@W4Enum@PxQueryFlag@physx@@G@physx@@QEBA?AV01@W4Enum@PxQueryFlag@1@@Z 000000018001b8e0 f i CctCharacterController.obj
 0001:0001a950       ??I?$PxFlags@W4Enum@PxRigidBodyFlag@physx@@E@physx@@QEBA?AV01@W4Enum@PxRigidBodyFlag@1@@Z 000000018001b950 f i CctCharacterController.obj
 0001:0001a9b0       ??I?$PxFlags@W4Enum@PxShapeFlag@physx@@E@physx@@QEBA?AV01@W4Enum@PxShapeFlag@1@@Z 000000018001b9b0 f i CctCharacterController.obj
 0001:0001aa10       ??R?$Hash@PEAVPxShape@physx@@@shdfnd@physx@@QEBAIAEBQEAVPxShape@2@@Z 000000018001ba10 f i CctCharacterController.obj
 0001:0001aa40       ??RGetKey@?$HashSetBase@PEAVPxShape@physx@@U?$Hash@PEAVPxShape@physx@@@shdfnd@2@VNonTrackingAllocator@42@$0A@@internal@shdfnd@physx@@QEAAAEBQEAVPxShape@4@AEBQEAV54@@Z 000000018001ba40 f i CctCharacterController.obj
 0001:0001aa60       ??U?$PxFlags@W4Enum@PxQueryFlag@physx@@G@physx@@QEBA?AV01@W4Enum@PxQueryFlag@1@@Z 000000018001ba60 f i CctCharacterController.obj
 0001:0001aac0       ??Uphysx@@YA?AV?$PxFlags@W4Enum@PxQueryFlag@physx@@G@0@W4Enum@PxQueryFlag@0@0@Z 000000018001bac0 f i CctCharacterController.obj
 0001:0001ab20       ??YPxVec3@physx@@QEAAAEAV01@AEBV01@@Z 000000018001bb20 f i CctCharacterController.obj
 0001:0001aba0       ??ZPxVec3@physx@@QEAAAEAV01@AEBV01@@Z 000000018001bba0 f i CctCharacterController.obj
 0001:0001ac20       ??_0PxVec3@physx@@QEAAAEAV01@M@Z 000000018001bc20 f i CctCharacterController.obj
 0001:0001acb0       ??_5?$PxFlags@W4Enum@PxControllerCollisionFlag@physx@@E@physx@@QEAAAEAV01@W4Enum@PxControllerCollisionFlag@1@@Z 000000018001bcb0 f i CctCharacterController.obj
 0001:0001ace0       ??_5?$PxFlags@W4Enum@PxHitFlag@physx@@G@physx@@QEAAAEAV01@W4Enum@PxHitFlag@1@@Z 000000018001bce0 f i CctCharacterController.obj
 0001:0001ad20       ??_5?$PxFlags@W4Enum@PxQueryFlag@physx@@G@physx@@QEAAAEAV01@W4Enum@PxQueryFlag@1@@Z 000000018001bd20 f i CctCharacterController.obj
 0001:0001ad60       ??_E?$PxHitBuffer@UPxRaycastHit@physx@@@physx@@UEAAPEAXI@Z 000000018001bd60 f i CctCharacterController.obj
 0001:0001ad60       ??_G?$PxHitBuffer@UPxRaycastHit@physx@@@physx@@UEAAPEAXI@Z 000000018001bd60 f i CctCharacterController.obj
 0001:0001adb0       ??_E?$PxHitCallback@UPxRaycastHit@physx@@@physx@@UEAAPEAXI@Z 000000018001bdb0 f i CctCharacterController.obj
 0001:0001adb0       ??_G?$PxHitCallback@UPxRaycastHit@physx@@@physx@@UEAAPEAXI@Z 000000018001bdb0 f i CctCharacterController.obj
 0001:0001ae00       ??_EControllerFilter@@UEAAPEAXI@Z 000000018001be00 f i CctCharacterController.obj
 0001:0001ae00       ??_GControllerFilter@@UEAAPEAXI@Z 000000018001be00 f i CctCharacterController.obj
 0001:0001ae50       ??_GPxExtendedBox@physx@@QEAAPEAXI@Z 000000018001be50 f i CctCharacterController.obj
 0001:0001aea0       ??_EPxQueryFilterCallback@physx@@UEAAPEAXI@Z 000000018001bea0 f i CctCharacterController.obj
 0001:0001aea0       ??_GPxQueryFilterCallback@physx@@UEAAPEAXI@Z 000000018001bea0 f i CctCharacterController.obj
 0001:0001aef0       ??_GPxTriangle@physx@@QEAAPEAXI@Z 000000018001bef0 f i CctCharacterController.obj
 0001:0001af40       ?PxAbs@physx@@YAMM@Z       000000018001bf40 f i CctCharacterController.obj
 0001:0001af60       ?PxIsFinite@physx@@YA_NM@Z 000000018001bf60 f i CctCharacterController.obj
 0001:0001af80       ?PxRecipSqrt@physx@@YAMM@Z 000000018001bf80 f i CctCharacterController.obj
 0001:0001afa0       ?PxSqrt@physx@@YAMM@Z      000000018001bfa0 f i CctCharacterController.obj
 0001:0001afc0       ?abs@intrinsics@physx@@YAMM@Z 000000018001bfc0 f i CctCharacterController.obj
 0001:0001afe0       ?add@physx@@YAXAEAUPxExtendedBounds3@1@AEBU21@@Z 000000018001bfe0 f i CctCharacterController.obj
 0001:0001b030       ?allocate@?$Array@IVNamedAllocator@shdfnd@physx@@@shdfnd@physx@@IEAAPEAII@Z 000000018001c030 f i CctCharacterController.obj
 0001:0001b0e0       ?allocate@?$Array@PEBXVNamedAllocator@shdfnd@physx@@@shdfnd@physx@@IEAAPEAPEBXI@Z 000000018001c0e0 f i CctCharacterController.obj
 0001:0001b190       ?allocate@?$Array@UPxExtendedCapsule@physx@@VNamedAllocator@shdfnd@2@@shdfnd@physx@@IEAAPEAUPxExtendedCapsule@3@I@Z 000000018001c190 f i CctCharacterController.obj
 0001:0001b240       ?allocate@?$Array@VPxExtendedBox@physx@@VNamedAllocator@shdfnd@2@@shdfnd@physx@@IEAAPEAVPxExtendedBox@3@I@Z 000000018001c240 f i CctCharacterController.obj
 0001:0001b2f0       ?any@PxGeometryHolder@physx@@QEBAAEBVPxGeometry@2@XZ 000000018001c2f0 f i CctCharacterController.obj
 0001:0001b320       ?begin@?$Array@IVNamedAllocator@shdfnd@physx@@@shdfnd@physx@@QEAAPEAIXZ 000000018001c320 f i CctCharacterController.obj
 0001:0001b340       ?begin@?$Array@IVNamedAllocator@shdfnd@physx@@@shdfnd@physx@@QEBAPEBIXZ 000000018001c340 f i CctCharacterController.obj
 0001:0001b360       ?begin@?$Array@PEBXVNamedAllocator@shdfnd@physx@@@shdfnd@physx@@QEAAPEAPEBXXZ 000000018001c360 f i CctCharacterController.obj
 0001:0001b380       ?begin@?$Array@UPxExtendedCapsule@physx@@VNamedAllocator@shdfnd@2@@shdfnd@physx@@QEAAPEAUPxExtendedCapsule@3@XZ 000000018001c380 f i CctCharacterController.obj
 0001:0001b3a0       ?begin@?$Array@VPxExtendedBox@physx@@VNamedAllocator@shdfnd@2@@shdfnd@physx@@QEAAPEAVPxExtendedBox@3@XZ 000000018001c3a0 f i CctCharacterController.obj
 0001:0001b3c0       ?capacity@?$Array@IVNamedAllocator@shdfnd@physx@@@shdfnd@physx@@QEBAIXZ 000000018001c3c0 f i CctCharacterController.obj
 0001:0001b3e0       ?capacity@?$Array@PEBXVNamedAllocator@shdfnd@physx@@@shdfnd@physx@@QEBAIXZ 000000018001c3e0 f i CctCharacterController.obj
 0001:0001b400       ?capacity@?$Array@UPxExtendedCapsule@physx@@VNamedAllocator@shdfnd@2@@shdfnd@physx@@QEBAIXZ 000000018001c400 f i CctCharacterController.obj
 0001:0001b420       ?capacity@?$Array@VPxExtendedBox@physx@@VNamedAllocator@shdfnd@2@@shdfnd@physx@@QEBAIXZ 000000018001c420 f i CctCharacterController.obj
 0001:0001b440       ?capacity@?$Array@VPxTriangle@physx@@VNamedAllocator@shdfnd@2@@shdfnd@physx@@QEBAIXZ 000000018001c440 f i CctCharacterController.obj
 0001:0001b460       ?capacityIncrement@?$Array@PEBXVNamedAllocator@shdfnd@physx@@@shdfnd@physx@@IEBAIXZ 000000018001c460 f i CctCharacterController.obj
 0001:0001b4b0       ?capacityIncrement@?$Array@UPxExtendedCapsule@physx@@VNamedAllocator@shdfnd@2@@shdfnd@physx@@IEBAIXZ 000000018001c4b0 f i CctCharacterController.obj
 0001:0001b500       ?capacityIncrement@?$Array@VPxExtendedBox@physx@@VNamedAllocator@shdfnd@2@@shdfnd@physx@@IEBAIXZ 000000018001c500 f i CctCharacterController.obj
 0001:0001b550       ?clear@?$Array@IVNamedAllocator@shdfnd@physx@@@shdfnd@physx@@QEAAXXZ 000000018001c550 f i CctCharacterController.obj
 0001:0001b5a0       ?clear@?$Array@VPxTriangle@physx@@VNamedAllocator@shdfnd@2@@shdfnd@physx@@QEAAXXZ 000000018001c5a0 f i CctCharacterController.obj
 0001:0001b5f0       ?clear@TriArray@Cct@physx@@QEAAXXZ 000000018001c5f0 f i CctCharacterController.obj
 0001:0001b610       ?computeTimeCoeff@Controller@Cct@physx@@IEAAMXZ 000000018001c610 f i CctCharacterController.obj
 0001:0001b680       ?contains@?$HashSetBase@PEAVPxShape@physx@@U?$Hash@PEAVPxShape@physx@@@shdfnd@2@VNonTrackingAllocator@42@$0A@@internal@shdfnd@physx@@QEBA_NAEBQEAVPxShape@4@@Z 000000018001c680 f i CctCharacterController.obj
 0001:0001b6e0       ?copy@?$Array@IVNamedAllocator@shdfnd@physx@@@shdfnd@physx@@KAXPEAI0PEBI@Z 000000018001c6e0 f i CctCharacterController.obj
 0001:0001b7e0       ?copy@?$Array@PEBXVNamedAllocator@shdfnd@physx@@@shdfnd@physx@@KAXPEAPEBX0PEBQEBX@Z 000000018001c7e0 f i CctCharacterController.obj
 0001:0001b8f0       ?copy@?$Array@UPxExtendedCapsule@physx@@VNamedAllocator@shdfnd@2@@shdfnd@physx@@KAXPEAUPxExtendedCapsule@3@0PEBU43@@Z 000000018001c8f0 f i CctCharacterController.obj
 0001:0001ba00       ?copy@?$Array@VPxExtendedBox@physx@@VNamedAllocator@shdfnd@2@@shdfnd@physx@@KAXPEAVPxExtendedBox@3@0PEBV43@@Z 000000018001ca00 f i CctCharacterController.obj
 0001:0001bb10       ?cross@PxVec3@physx@@QEBA?AV12@AEBV12@@Z 000000018001cb10 f i CctCharacterController.obj
 0001:0001bc00       ?deallocate@?$Array@IVNamedAllocator@shdfnd@physx@@@shdfnd@physx@@IEAAXPEAX@Z 000000018001cc00 f i CctCharacterController.obj
 0001:0001bc30       ?deallocate@?$Array@PEBXVNamedAllocator@shdfnd@physx@@@shdfnd@physx@@IEAAXPEAX@Z 000000018001cc30 f i CctCharacterController.obj
 0001:0001bc60       ?deallocate@?$Array@UPxExtendedCapsule@physx@@VNamedAllocator@shdfnd@2@@shdfnd@physx@@IEAAXPEAX@Z 000000018001cc60 f i CctCharacterController.obj
 0001:0001bc90       ?deallocate@?$Array@VPxExtendedBox@physx@@VNamedAllocator@shdfnd@2@@shdfnd@physx@@IEAAXPEAX@Z 000000018001cc90 f i CctCharacterController.obj
 0001:0001bcc0       ?deallocate@?$Array@VPxTriangle@physx@@VNamedAllocator@shdfnd@2@@shdfnd@physx@@IEAAXPEAX@Z 000000018001ccc0 f i CctCharacterController.obj
 0001:0001bcf0       ?decomposeVector@shdfnd@physx@@YAXAEAVPxVec3@2@0AEBV32@1@Z 000000018001ccf0 f i CctCharacterController.obj
 0001:0001bd80       ?destroy@?$Array@IVNamedAllocator@shdfnd@physx@@@shdfnd@physx@@KAXPEAI0@Z 000000018001cd80 f i CctCharacterController.obj
 0001:0001bdd0       ?destroy@?$Array@PEBXVNamedAllocator@shdfnd@physx@@@shdfnd@physx@@KAXPEAPEBX0@Z 000000018001cdd0 f i CctCharacterController.obj
 0001:0001be20       ?destroy@?$Array@UPxExtendedCapsule@physx@@VNamedAllocator@shdfnd@2@@shdfnd@physx@@KAXPEAUPxExtendedCapsule@3@0@Z 000000018001ce20 f i CctCharacterController.obj
 0001:0001be70       ?destroy@?$Array@VPxExtendedBox@physx@@VNamedAllocator@shdfnd@2@@shdfnd@physx@@KAXPEAVPxExtendedBox@3@0@Z 000000018001ce70 f i CctCharacterController.obj
 0001:0001bed0       ?destroy@?$Array@VPxTriangle@physx@@VNamedAllocator@shdfnd@2@@shdfnd@physx@@KAXPEAVPxTriangle@3@0@Z 000000018001ced0 f i CctCharacterController.obj
 0001:0001bf30       ?dot@PxExtendedVec3@physx@@QEBANAEBVPxVec3@2@@Z 000000018001cf30 f i CctCharacterController.obj
 0001:0001bfb0       ?dot@PxVec3@physx@@QEBAMAEBV12@@Z 000000018001cfb0 f i CctCharacterController.obj
 0001:0001c010       ?encodeUserObject@Cct@physx@@YAIIW4UserObjectType@12@@Z 000000018001d010 f i CctCharacterController.obj
 0001:0001c100       ?end@?$Array@IVNamedAllocator@shdfnd@physx@@@shdfnd@physx@@QEAAPEAIXZ 000000018001d100 f i CctCharacterController.obj
 0001:0001c120       ?end@?$Array@IVNamedAllocator@shdfnd@physx@@@shdfnd@physx@@QEBAPEBIXZ 000000018001d120 f i CctCharacterController.obj
 0001:0001c140       ?equal@?$Hash@PEAVPxShape@physx@@@shdfnd@physx@@QEBA_NAEBQEAVPxShape@3@0@Z 000000018001d140 f i CctCharacterController.obj
 0001:0001c190       ?finalizeQuery@?$PxHitCallback@UPxRaycastHit@physx@@@physx@@UEAAXXZ 000000018001d190 f i CctCharacterController.obj
 0001:0001c1a0       ?find@?$HashBase@PEAVPxShape@physx@@PEAV12@U?$Hash@PEAVPxShape@physx@@@shdfnd@2@UGetKey@?$HashSetBase@PEAVPxShape@physx@@U?$Hash@PEAVPxShape@physx@@@shdfnd@2@VNonTrackingAllocator@42@$0A@@internal@42@VNonTrackingAllocator@42@$0A@@internal@shdfnd@physx@@QEBAPEBQEAVPxShape@4@AEBQEAV54@@Z 000000018001d1a0 f i CctCharacterController.obj
 0001:0001c2a0       ?forceSize_Unsafe@?$Array@IVNamedAllocator@shdfnd@physx@@@shdfnd@physx@@QEAAXI@Z 000000018001d2a0 f i CctCharacterController.obj
 0001:0001c330       ?forceSize_Unsafe@?$Array@VPxTriangle@physx@@VNamedAllocator@shdfnd@2@@shdfnd@physx@@QEAAXI@Z 000000018001d330 f i CctCharacterController.obj
 0001:0001c3c0       ?forceSize_Unsafe@TriArray@Cct@physx@@QEAAXI@Z 000000018001d3c0 f i CctCharacterController.obj
 0001:0001c3f0       ?get@?$TouchedObject@VPxRigidActor@physx@@@Cct@physx@@QEBAPEBVPxRigidActor@3@XZ 000000018001d3f0 f i CctCharacterController.obj
 0001:0001c410       ?get@?$TouchedObject@VPxShape@physx@@@Cct@physx@@QEBAPEBVPxShape@3@XZ 000000018001d410 f i CctCharacterController.obj
 0001:0001c430       ?getAnyHit@?$PxHitBuffer@UPxRaycastHit@physx@@@physx@@QEBAAEBUPxRaycastHit@2@I@Z 000000018001d430 f i CctCharacterController.obj
 0001:0001c520       ?getBasisVector0@PxQuat@physx@@QEBA?AVPxVec3@2@XZ 000000018001d520 f i CctCharacterController.obj
 0001:0001c640       ?getCenter@PxBounds3@physx@@QEBA?AVPxVec3@2@XZ 000000018001d640 f i CctCharacterController.obj
 0001:0001c710       ?getConcreteType@PxBase@physx@@QEBAGXZ 000000018001d710 f i CctCharacterController.obj
 0001:0001c730       ?getContextId@Controller@Cct@physx@@QEBA_KXZ 000000018001d730 f i CctCharacterController.obj
 0001:0001c750       ?getDimensions@PxBounds3@physx@@QEBA?AVPxVec3@2@XZ 000000018001d750 f i CctCharacterController.obj
 0001:0001c800       ?getExtents@PxBounds3@physx@@QEBA?AVPxVec3@2@XZ 000000018001d800 f i CctCharacterController.obj
 0001:0001c8c0       ?getGlobalPose@PxShapeExt@physx@@SA?AVPxTransform@2@AEBVPxShape@2@AEBVPxRigidActor@2@@Z 000000018001d8c0 f i CctCharacterController.obj
 0001:0001c970       ?getNbTouches@?$PxHitBuffer@UPxRaycastHit@physx@@@physx@@QEBAIXZ 000000018001d970 f i CctCharacterController.obj
 0001:0001c990       ?getNormalized@PxVec3@physx@@QEBA?AV12@XZ 000000018001d990 f i CctCharacterController.obj
 0001:0001ca40       ?getShapeGlobalPose@physx@@YA?AVPxTransform@1@AEBVPxShape@1@AEBVPxRigidActor@1@@Z 000000018001da40 f i CctCharacterController.obj
 0001:0001ca80       ?getTouches@?$PxHitBuffer@UPxRaycastHit@physx@@@physx@@QEBAPEBUPxRaycastHit@2@XZ 000000018001da80 f i CctCharacterController.obj
 0001:0001caa0       ?getTriangle@TriArray@Cct@physx@@QEBAAEBVPxTriangle@3@I@Z 000000018001daa0 f i CctCharacterController.obj
 0001:0001cad0       ?getType@SweptVolume@Cct@physx@@QEBA?AW4Enum@SweptVolumeType@23@XZ 000000018001dad0 f i CctCharacterController.obj
 0001:0001caf0       ?grow@?$Array@IVNamedAllocator@shdfnd@physx@@@shdfnd@physx@@IEAAXI@Z 000000018001daf0 f i CctCharacterController.obj
 0001:0001cb90       ?growAndPushBack@?$Array@PEBXVNamedAllocator@shdfnd@physx@@@shdfnd@physx@@IEAAAEAPEBXAEBQEBX@Z 000000018001db90 f i CctCharacterController.obj
 0001:0001cda0       ?growAndPushBack@?$Array@UPxExtendedCapsule@physx@@VNamedAllocator@shdfnd@2@@shdfnd@physx@@IEAAAEAUPxExtendedCapsule@3@AEBU43@@Z 000000018001dda0 f i CctCharacterController.obj
 0001:0001d000       ?growAndPushBack@?$Array@VPxExtendedBox@physx@@VNamedAllocator@shdfnd@2@@shdfnd@physx@@IEAAAEAVPxExtendedBox@3@AEBV43@@Z 000000018001e000 f i CctCharacterController.obj
 0001:0001d210       ?hash@?$HashBase@PEAVPxShape@physx@@PEAV12@U?$Hash@PEAVPxShape@physx@@@shdfnd@2@UGetKey@?$HashSetBase@PEAVPxShape@physx@@U?$Hash@PEAVPxShape@physx@@@shdfnd@2@VNonTrackingAllocator@42@$0A@@internal@42@VNonTrackingAllocator@42@$0A@@internal@shdfnd@physx@@AEBAIAEBQEAVPxShape@4@@Z 000000018001e210 f i CctCharacterController.obj
 0001:0001d250       ?hash@?$HashBase@PEAVPxShape@physx@@PEAV12@U?$Hash@PEAVPxShape@physx@@@shdfnd@2@UGetKey@?$HashSetBase@PEAVPxShape@physx@@U?$Hash@PEAVPxShape@physx@@@shdfnd@2@VNonTrackingAllocator@42@$0A@@internal@42@VNonTrackingAllocator@42@$0A@@internal@shdfnd@physx@@AEBAIAEBQEAVPxShape@4@I@Z 000000018001e250 f i CctCharacterController.obj
 0001:0001d290       ?hash@shdfnd@physx@@YAIPEBX@Z 000000018001e290 f i CctCharacterController.obj
 0001:0001d2b0       ?hash@shdfnd@physx@@YAI_K@Z 000000018001e2b0 f i CctCharacterController.obj
 0001:0001d3c0       ?intersectOBBAABB@Gu@physx@@YA_NAEBVBox@12@AEBVPxBounds3@2@@Z 000000018001e3c0 f i CctCharacterController.obj
 0001:0001d480       ?isAlmostZero@shdfnd@physx@@YA_NAEBVPxVec3@2@@Z 000000018001e480 f i CctCharacterController.obj
 0001:0001d500       ?isArrayOfPOD@?$Array@IVNamedAllocator@shdfnd@physx@@@shdfnd@physx@@SA_NXZ 000000018001e500 f i CctCharacterController.obj
 0001:0001d510       ?isArrayOfPOD@?$Array@PEBXVNamedAllocator@shdfnd@physx@@@shdfnd@physx@@SA_NXZ 000000018001e510 f i CctCharacterController.obj
 0001:0001d520       ?isArrayOfPOD@?$Array@UPxExtendedCapsule@physx@@VNamedAllocator@shdfnd@2@@shdfnd@physx@@SA_NXZ 000000018001e520 f i CctCharacterController.obj
 0001:0001d530       ?isArrayOfPOD@?$Array@VPxExtendedBox@physx@@VNamedAllocator@shdfnd@2@@shdfnd@physx@@SA_NXZ 000000018001e530 f i CctCharacterController.obj
 0001:0001d540       ?isArrayOfPOD@?$Array@VPxTriangle@physx@@VNamedAllocator@shdfnd@2@@shdfnd@physx@@SA_NXZ 000000018001e540 f i CctCharacterController.obj
 0001:0001d550       ?isFinite@PxBounds3@physx@@QEBA_NXZ 000000018001e550 f i CctCharacterController.obj
 0001:0001d5c0       ?isFinite@PxQuat@physx@@QEBA_NXZ 000000018001e5c0 f i CctCharacterController.obj
 0001:0001d660       ?isFinite@PxTransform@physx@@QEBA_NXZ 000000018001e660 f i CctCharacterController.obj
 0001:0001d6d0       ?isFinite@PxVec3@physx@@QEBA_NXZ 000000018001e6d0 f i CctCharacterController.obj
 0001:0001d750       ?isFinite@intrinsics@physx@@YA_NM@Z 000000018001e750 f i CctCharacterController.obj
 0001:0001d7a0       ?isInUserMemory@?$Array@IVNamedAllocator@shdfnd@physx@@@shdfnd@physx@@QEBAIXZ 000000018001e7a0 f i CctCharacterController.obj
 0001:0001d7c0       ?isInUserMemory@?$Array@PEBXVNamedAllocator@shdfnd@physx@@@shdfnd@physx@@QEBAIXZ 000000018001e7c0 f i CctCharacterController.obj
 0001:0001d7e0       ?isInUserMemory@?$Array@UPxExtendedCapsule@physx@@VNamedAllocator@shdfnd@2@@shdfnd@physx@@QEBAIXZ 000000018001e7e0 f i CctCharacterController.obj
 0001:0001d800       ?isInUserMemory@?$Array@VPxExtendedBox@physx@@VNamedAllocator@shdfnd@2@@shdfnd@physx@@QEBAIXZ 000000018001e800 f i CctCharacterController.obj
 0001:0001d820       ?isInUserMemory@?$Array@VPxTriangle@physx@@VNamedAllocator@shdfnd@2@@shdfnd@physx@@QEBAIXZ 000000018001e820 f i CctCharacterController.obj
 0001:0001d840       ?isInside@PxExtendedBounds3@physx@@QEBA_NAEBU12@@Z 000000018001e840 f i CctCharacterController.obj
 0001:0001d920       ?isSane@PxQuat@physx@@QEBA_NXZ 000000018001e920 f i CctCharacterController.obj
 0001:0001d9a0       ?isSane@PxTransform@physx@@QEBA_NXZ 000000018001e9a0 f i CctCharacterController.obj
 0001:0001da00       ?isValid@PxBounds3@physx@@QEBA_NXZ 000000018001ea00 f i CctCharacterController.obj
 0001:0001db30       ?isZero@PxVec3@physx@@QEBA_NXZ 000000018001eb30 f i CctCharacterController.obj
 0001:0001db90       ?magnitude@PxQuat@physx@@QEBAMXZ 000000018001eb90 f i CctCharacterController.obj
 0001:0001dbc0       ?magnitude@PxVec3@physx@@QEBAMXZ 000000018001ebc0 f i CctCharacterController.obj
 0001:0001dbf0       ?magnitudeSquared@PxQuat@physx@@QEBAMXZ 000000018001ebf0 f i CctCharacterController.obj
 0001:0001dc70       ?magnitudeSquared@PxVec3@physx@@QEBAMXZ 000000018001ec70 f i CctCharacterController.obj
 0001:0001dcd0       ?maximum@PxExtendedVec3@physx@@QEAAXAEBU12@@Z 000000018001ecd0 f i CctCharacterController.obj
 0001:0001dd80       ?memCopy@intrinsics@physx@@YAPEAXPEIAXPEIBXI@Z 000000018001ed80 f i CctCharacterController.obj
 0001:0001ddc0       ?minimum@PxExtendedVec3@physx@@QEAAXAEBU12@@Z 000000018001edc0 f i CctCharacterController.obj
 0001:0001de70       ?normal@PxTriangle@physx@@QEBAXAEAVPxVec3@2@@Z 000000018001ee70 f i CctCharacterController.obj
 0001:0001df60       ?normalize@PxVec3@physx@@QEAAMXZ 000000018001ef60 f i CctCharacterController.obj
 0001:0001dfc0       ?postFilter@ControllerFilter@@UEAA?AW4Enum@PxQueryHitType@physx@@AEBUPxFilterData@4@AEBUPxQueryHit@4@@Z 000000018001efc0 f i CctCharacterController.obj
 0001:0001e0c0       ?preFilter@ControllerFilter@@UEAA?AW4Enum@PxQueryHitType@physx@@AEBUPxFilterData@4@PEBVPxShape@4@PEBVPxRigidActor@4@AEAV?$PxFlags@W4Enum@PxHitFlag@physx@@G@4@@Z 000000018001f0c0 f i CctCharacterController.obj
 0001:0001e200       ?processTouches@?$PxHitBuffer@UPxRaycastHit@physx@@@physx@@MEAA_NPEBUPxRaycastHit@2@I@Z 000000018001f200 f i CctCharacterController.obj
 0001:0001e240       ?pushBack@?$Array@PEBXVNamedAllocator@shdfnd@physx@@@shdfnd@physx@@QEAAAEAPEBXAEBQEBX@Z 000000018001f240 f i CctCharacterController.obj
 0001:0001e330       ?pushBack@?$Array@UPxExtendedCapsule@physx@@VNamedAllocator@shdfnd@2@@shdfnd@physx@@QEAAAEAUPxExtendedCapsule@3@AEBU43@@Z 000000018001f330 f i CctCharacterController.obj
 0001:0001e430       ?pushBack@?$Array@VPxExtendedBox@physx@@VNamedAllocator@shdfnd@2@@shdfnd@physx@@QEAAAEAVPxExtendedBox@3@AEBV43@@Z 000000018001f430 f i CctCharacterController.obj
 0001:0001e520       ?recipSqrt@intrinsics@physx@@YAMM@Z 000000018001f520 f i CctCharacterController.obj
 0001:0001e560       ?recreate@?$Array@IVNamedAllocator@shdfnd@physx@@@shdfnd@physx@@IEAAXI@Z 000000018001f560 f i CctCharacterController.obj
 0001:0001e6b0       ?reserve@?$Array@IVNamedAllocator@shdfnd@physx@@@shdfnd@physx@@QEAAXI@Z 000000018001f6b0 f i CctCharacterController.obj
 0001:0001e6f0       ?resetStats@SweepTest@Cct@physx@@QEAAXXZ 000000018001f6f0 f i CctCharacterController.obj
 0001:0001e740       ?rotate@PxQuat@physx@@QEBA?BVPxVec3@2@AEBV32@@Z 000000018001f740 f i CctCharacterController.obj
 0001:0001e990       ?rotateInv@PxQuat@physx@@QEBA?BVPxVec3@2@AEBV32@@Z 000000018001f990 f i CctCharacterController.obj
 0001:0001ebe0       ?selectMax@intrinsics@physx@@YAMMM@Z 000000018001fbe0 f i CctCharacterController.obj
 0001:0001ec30       ?selectMin@intrinsics@physx@@YAMMM@Z 000000018001fc30 f i CctCharacterController.obj
 0001:0001ec80       ?set@PxExtendedBounds3@physx@@QEAAXNNNNNN@Z 000000018001fc80 f i CctCharacterController.obj
 0001:0001ed00       ?set@PxExtendedVec3@physx@@QEAAXNNN@Z 000000018001fd00 f i CctCharacterController.obj
 0001:0001ed60       ?setEmpty@PxExtendedBounds3@physx@@QEAAXXZ 000000018001fd60 f i CctCharacterController.obj
 0001:0001edd0       ?setWorldPos@SweptContact@Cct@physx@@QEAAXAEBVPxVec3@3@AEBUPxExtendedVec3@3@@Z 000000018001fdd0 f i CctCharacterController.obj
 0001:0001ee50       ?size@?$Array@IVNamedAllocator@shdfnd@physx@@@shdfnd@physx@@QEBAIXZ 000000018001fe50 f i CctCharacterController.obj
 0001:0001ee70       ?size@?$Array@PEBXVNamedAllocator@shdfnd@physx@@@shdfnd@physx@@QEBAIXZ 000000018001fe70 f i CctCharacterController.obj
 0001:0001ee90       ?size@?$Array@UInternalBoxObstacle@ObstacleContext@Cct@physx@@VNamedAllocator@shdfnd@4@@shdfnd@physx@@QEBAIXZ 000000018001fe90 f i CctCharacterController.obj
 0001:0001eeb0       ?size@?$Array@UInternalCapsuleObstacle@ObstacleContext@Cct@physx@@VNamedAllocator@shdfnd@4@@shdfnd@physx@@QEBAIXZ 000000018001feb0 f i CctCharacterController.obj
 0001:0001eed0       ?size@?$Array@UPxExtendedCapsule@physx@@VNamedAllocator@shdfnd@2@@shdfnd@physx@@QEBAIXZ 000000018001fed0 f i CctCharacterController.obj
 0001:0001eef0       ?size@?$Array@VPxExtendedBox@physx@@VNamedAllocator@shdfnd@2@@shdfnd@physx@@QEBAIXZ 000000018001fef0 f i CctCharacterController.obj
 0001:0001ef10       ?size@?$Array@VPxTriangle@physx@@VNamedAllocator@shdfnd@2@@shdfnd@physx@@QEBAIXZ 000000018001ff10 f i CctCharacterController.obj
 0001:0001ef30       ?size@TriArray@Cct@physx@@QEBAIXZ 000000018001ff30 f i CctCharacterController.obj
 0001:0001ef50       ?sqrt@intrinsics@physx@@YAMM@Z 000000018001ff50 f i CctCharacterController.obj
 0001:0001ef70       ?testSlope@physx@@YA_NAEBVPxVec3@1@0M@Z 000000018001ff70 f i CctCharacterController.obj
 0001:0001eff0       ?toVec3@physx@@YA?AVPxVec3@1@AEBUPxExtendedVec3@1@@Z 000000018001fff0 f i CctCharacterController.obj
 0001:0001f060       ?transform@PxTransform@physx@@QEBA?AV12@AEBV12@@Z 0000000180020060 f i CctCharacterController.obj
 0001:0001f230       ?transform@PxTransform@physx@@QEBA?AVPxVec3@2@AEBV32@@Z 0000000180020230 f i CctCharacterController.obj
 0001:0001f310       ?transformInv@PxTransform@physx@@QEBA?AVPxVec3@2@AEBV32@@Z 0000000180020310 f i CctCharacterController.obj
 0001:0001f3e0       fabsf                      00000001800203e0 f i CctCharacterController.obj
 0001:0001f490       ?getSceneTimestamp@Cct@physx@@YAIPEBUInternalCBData_FindTouchedGeom@12@@Z 0000000180020490 f   CctCharacterControllerCallbacks.obj
 0001:0001f520       ?findTouchedGeometry@Cct@physx@@YAXPEBUInternalCBData_FindTouchedGeom@12@AEBUPxExtendedBounds3@2@AEAVTriArray@12@AEAV?$Array@IVNamedAllocator@shdfnd@physx@@@shdfnd@2@3AEBVCCTFilter@12@AEBUCCTParams@12@AEAG@Z 0000000180020520 f   CctCharacterControllerCallbacks.obj
 0001:0001fd10       ?shapeHitCallback@Cct@physx@@YAIPEBUInternalCBData_OnHit@12@AEBUSweptContact@12@AEBVPxVec3@2@M@Z 0000000180020d10 f   CctCharacterControllerCallbacks.obj
 0001:0001fe40       ?userHitCallback@Cct@physx@@YAIPEBUInternalCBData_OnHit@12@AEBUSweptContact@12@AEBVPxVec3@2@M@Z 0000000180020e40 f   CctCharacterControllerCallbacks.obj
 0001:000255d0       ??$PX_UNUSED@PEBUPxOverlapHit@physx@@@@YAXAEBQEBUPxOverlapHit@physx@@@Z 00000001800265d0 f i CctCharacterControllerCallbacks.obj
 0001:000255e0       ??0?$PxFlags@W4Enum@PxConvexMeshGeometryFlag@physx@@E@physx@@QEAA@XZ 00000001800265e0 f i CctCharacterControllerCallbacks.obj
 0001:00025600       ??0?$PxFlags@W4Enum@PxMeshGeometryFlag@physx@@E@physx@@QEAA@E@Z 0000000180026600 f i CctCharacterControllerCallbacks.obj
 0001:00025630       ??0?$PxFlags@W4Enum@PxMeshGeometryFlag@physx@@E@physx@@QEAA@XZ 0000000180026630 f i CctCharacterControllerCallbacks.obj
 0001:00025650       ??0?$PxHitBuffer@UPxOverlapHit@physx@@@physx@@QEAA@PEAUPxOverlapHit@1@I@Z 0000000180026650 f i CctCharacterControllerCallbacks.obj
 0001:000256a0       ??0?$PxHitCallback@UPxOverlapHit@physx@@@physx@@QEAA@PEAUPxOverlapHit@1@I@Z 00000001800266a0 f i CctCharacterControllerCallbacks.obj
 0001:00025730       ??0?$PxPadding@$02@physx@@QEAA@XZ 0000000180026730 f i CctCharacterControllerCallbacks.obj
 0001:00025780       ??0PxControllerHit@physx@@QEAA@XZ 0000000180026780 f i CctCharacterControllerCallbacks.obj
 0001:000257e0       ??0PxControllerObstacleHit@physx@@QEAA@XZ 00000001800267e0 f i CctCharacterControllerCallbacks.obj
 0001:00025810       ??0PxControllerShapeHit@physx@@QEAA@XZ 0000000180026810 f i CctCharacterControllerCallbacks.obj
 0001:00025840       ??0PxControllersHit@physx@@QEAA@XZ 0000000180026840 f i CctCharacterControllerCallbacks.obj
 0001:00025870       ??0PxConvexMeshGeometry@physx@@QEAA@XZ 0000000180026870 f i CctCharacterControllerCallbacks.obj
 0001:00025900       ??0PxExtendedSphere@physx@@QEAA@XZ 0000000180026900 f i CctCharacterControllerCallbacks.obj
 0001:00025930       ??0PxHeightFieldGeometry@physx@@QEAA@XZ 0000000180026930 f i CctCharacterControllerCallbacks.obj
 0001:000259e0       ??0PxMat33@physx@@QEAA@AEBVPxVec3@1@00@Z 00000001800269e0 f i CctCharacterControllerCallbacks.obj
 0001:00025a60       ??0PxMeshScale@physx@@QEAA@M@Z 0000000180026a60 f i CctCharacterControllerCallbacks.obj
 0001:00025ab0       ??0PxMeshScale@physx@@QEAA@XZ 0000000180026ab0 f i CctCharacterControllerCallbacks.obj
 0001:00025b00       ??0PxOverlapHit@physx@@QEAA@XZ 0000000180026b00 f i CctCharacterControllerCallbacks.obj
 0001:00025b30       ??0PxPlane@physx@@QEAA@AEBVPxVec3@1@M@Z 0000000180026b30 f i CctCharacterControllerCallbacks.obj
 0001:00025b80       ??0PxPlane@physx@@QEAA@MMMM@Z 0000000180026b80 f i CctCharacterControllerCallbacks.obj
 0001:00025bf0       ??0PxQueryFilterData@physx@@QEAA@$$QEAU01@@Z 0000000180026bf0 f i CctCharacterControllerCallbacks.obj
 0001:00025c60       ??0PxQueryFilterData@physx@@QEAA@V?$PxFlags@W4Enum@PxQueryFlag@physx@@G@1@@Z 0000000180026c60 f i CctCharacterControllerCallbacks.obj
 0001:00025cc0       ??0PxTransform@physx@@QEAA@AEBVPxVec3@1@@Z 0000000180026cc0 f i CctCharacterControllerCallbacks.obj
 0001:00025d10       ??0PxTriangle@physx@@QEAA@AEBV01@@Z 0000000180026d10 f i CctCharacterControllerCallbacks.obj
 0001:00025e10       ??0PxTriangle@physx@@QEAA@AEBVPxVec3@1@00@Z 0000000180026e10 f i CctCharacterControllerCallbacks.obj
 0001:00025ee0       ??0PxTriangle@physx@@QEAA@XZ 0000000180026ee0 f i CctCharacterControllerCallbacks.obj
 0001:00025f20       ??0PxTriangleMeshGeometry@physx@@QEAA@XZ 0000000180026f20 f i CctCharacterControllerCallbacks.obj
 0001:00025fa0       ??0PxVec4@physx@@QEAA@MMMM@Z 0000000180026fa0 f i CctCharacterControllerCallbacks.obj
 0001:00026020       ??0TessParams@@QEAA@XZ     0000000180027020 f i CctCharacterControllerCallbacks.obj
 0001:00026070       ??0TrianglePadded@Gu@physx@@QEAA@XZ 0000000180027070 f i CctCharacterControllerCallbacks.obj
 0001:000260a0       ??0Vec3p@Gu@physx@@QEAA@AEBVPxVec3@2@@Z 00000001800270a0 f i CctCharacterControllerCallbacks.obj
 0001:000260d0       ??1?$PxHitBuffer@UPxOverlapHit@physx@@@physx@@UEAA@XZ 00000001800270d0 f i CctCharacterControllerCallbacks.obj
 0001:00026100       ??1?$PxHitCallback@UPxOverlapHit@physx@@@physx@@UEAA@XZ 0000000180027100 f i CctCharacterControllerCallbacks.obj
 0001:00026120       ??1PxExtendedSphere@physx@@QEAA@XZ 0000000180027120 f i CctCharacterControllerCallbacks.obj
 0001:00026130       ??1TrianglePadded@Gu@physx@@QEAA@XZ 0000000180027130 f i CctCharacterControllerCallbacks.obj
 0001:00026150       ??1Vec3p@Gu@physx@@QEAA@XZ 0000000180027150 f i CctCharacterControllerCallbacks.obj
 0001:00026160       ??APxVec3@physx@@QEBAAEBMI@Z 0000000180027160 f i CctCharacterControllerCallbacks.obj
 0001:000261f0       ??DPxMat33@physx@@QEBA?BV01@AEBV01@@Z 00000001800271f0 f i CctCharacterControllerCallbacks.obj
 0001:000262b0       ??DPxVec4@physx@@QEBA?AV01@M@Z 00000001800272b0 f i CctCharacterControllerCallbacks.obj
 0001:00026350       ??HPxVec4@physx@@QEBA?AV01@AEBV01@@Z 0000000180027350 f i CctCharacterControllerCallbacks.obj
 0001:00026400       ??_E?$PxHitBuffer@UPxOverlapHit@physx@@@physx@@UEAAPEAXI@Z 0000000180027400 f i CctCharacterControllerCallbacks.obj
 0001:00026400       ??_G?$PxHitBuffer@UPxOverlapHit@physx@@@physx@@UEAAPEAXI@Z 0000000180027400 f i CctCharacterControllerCallbacks.obj
 0001:00026450       ??_G?$PxHitCallback@UPxOverlapHit@physx@@@physx@@UEAAPEAXI@Z 0000000180027450 f i CctCharacterControllerCallbacks.obj
 0001:00026450       ??_E?$PxHitCallback@UPxOverlapHit@physx@@@physx@@UEAAPEAXI@Z 0000000180027450 f i CctCharacterControllerCallbacks.obj
 0001:000264a0       ?FLoad@aos@shdfnd@physx@@YA?AT__m128@@M@Z 00000001800274a0 f i CctCharacterControllerCallbacks.obj
 0001:000264d0       ?PxPlaneEquationFromTransform@physx@@YA?AVPxPlane@1@AEBVPxTransform@1@@Z 00000001800274d0 f i CctCharacterControllerCallbacks.obj
 0001:00026530       ?V3Load@aos@shdfnd@physx@@YA?AT__m128@@M@Z 0000000180027530 f i CctCharacterControllerCallbacks.obj
 0001:00026580       ?V4Load@aos@shdfnd@physx@@YA?AT__m128@@M@Z 0000000180027580 f i CctCharacterControllerCallbacks.obj
 0001:000265b0       ?allocate@?$Array@VPxTriangle@physx@@VNamedAllocator@shdfnd@2@@shdfnd@physx@@IEAAPEAVPxTriangle@3@I@Z 00000001800275b0 f i CctCharacterControllerCallbacks.obj
 0001:00026660       ?capacityIncrement@?$Array@IVNamedAllocator@shdfnd@physx@@@shdfnd@physx@@IEBAIXZ 0000000180027660 f i CctCharacterControllerCallbacks.obj
 0001:000266b0       ?centerExtents@PxBounds3@physx@@SA?AV12@AEBVPxVec3@2@0@Z 00000001800276b0 f i CctCharacterControllerCallbacks.obj
 0001:00026730       ?computeBasis@shdfnd@physx@@YAXAEBVPxVec3@2@AEAV32@1@Z 0000000180027730 f i CctCharacterControllerCallbacks.obj
 0001:00026900       ?copy@?$Array@VPxTriangle@physx@@VNamedAllocator@shdfnd@2@@shdfnd@physx@@KAXPEAVPxTriangle@3@0PEBV43@@Z 0000000180027900 f i CctCharacterControllerCallbacks.obj
 0001:00026a10       ?decodeIndex@Cct@physx@@YAII@Z 0000000180027a10 f i CctCharacterControllerCallbacks.obj
 0001:00026a20       ?decodeType@Cct@physx@@YA?AW4UserObjectType@12@I@Z 0000000180027a20 f i CctCharacterControllerCallbacks.obj
 0001:00026a40       ?distance@PxPlane@physx@@QEBAMAEBVPxVec3@2@@Z 0000000180027a40 f i CctCharacterControllerCallbacks.obj
 0001:00026a80       ?end@?$Array@VPxTriangle@physx@@VNamedAllocator@shdfnd@2@@shdfnd@physx@@QEAAPEAVPxTriangle@3@XZ 0000000180027a80 f i CctCharacterControllerCallbacks.obj
 0001:00026aa0       ?finalizeQuery@?$PxHitCallback@UPxOverlapHit@physx@@@physx@@UEAAXXZ 0000000180027aa0 f i CctCharacterControllerCallbacks.obj
 0001:00026ab0       ?getAnyHit@?$PxHitBuffer@UPxOverlapHit@physx@@@physx@@QEBAAEBUPxOverlapHit@2@I@Z 0000000180027ab0 f i CctCharacterControllerCallbacks.obj
 0001:00026ba0       ?getCctManager@Controller@Cct@physx@@QEAAPEAVCharacterControllerManager@23@XZ 0000000180027ba0 f i CctCharacterControllerCallbacks.obj
 0001:00026bc0       ?getNbAnyHits@?$PxHitBuffer@UPxOverlapHit@physx@@@physx@@QEBAIXZ 0000000180027bc0 f i CctCharacterControllerCallbacks.obj
 0001:00026bf0       ?getNbTouches@?$PxHitBuffer@UPxOverlapHit@physx@@@physx@@QEBAIXZ 0000000180027bf0 f i CctCharacterControllerCallbacks.obj
 0001:00026c10       ?getPosition@PxMat44@physx@@QEBA?BVPxVec3@2@XZ 0000000180027c10 f i CctCharacterControllerCallbacks.obj
 0001:00026c50       ?getResults@PxMeshOverlapUtil@physx@@QEBAPEBIXZ 0000000180027c50 f i CctCharacterControllerCallbacks.obj
 0001:00026c70       ?getTouches@?$PxHitBuffer@UPxOverlapHit@physx@@@physx@@QEBAPEBUPxOverlapHit@2@XZ 0000000180027c70 f i CctCharacterControllerCallbacks.obj
 0001:00026c90       ?getTranspose@PxMat33@physx@@QEBA?BV12@XZ 0000000180027c90 f i CctCharacterControllerCallbacks.obj
 0001:00026d70       ?getXYZ@PxVec4@physx@@QEBA?AVPxVec3@2@XZ 0000000180027d70 f i CctCharacterControllerCallbacks.obj
 0001:00026dc0       ?grow@?$Array@VPxTriangle@physx@@VNamedAllocator@shdfnd@2@@shdfnd@physx@@IEAAXI@Z 0000000180027dc0 f i CctCharacterControllerCallbacks.obj
 0001:00026e60       ?growAndPushBack@?$Array@IVNamedAllocator@shdfnd@physx@@@shdfnd@physx@@IEAAAEAIAEBI@Z 0000000180027e60 f i CctCharacterControllerCallbacks.obj
 0001:00027060       ?processTouches@?$PxHitBuffer@UPxOverlapHit@physx@@@physx@@MEAA_NPEBUPxOverlapHit@2@I@Z 0000000180028060 f i CctCharacterControllerCallbacks.obj
 0001:000270a0       ?project@PxPlane@physx@@QEBA?AVPxVec3@2@AEBV32@@Z 00000001800280a0 f i CctCharacterControllerCallbacks.obj
 0001:00027110       ?pushBack@?$Array@IVNamedAllocator@shdfnd@physx@@@shdfnd@physx@@QEAAAEAIAEBI@Z 0000000180028110 f i CctCharacterControllerCallbacks.obj
 0001:00027200       ?pushBack@TriArray@Cct@physx@@QEAAXAEBVPxTriangle@3@@Z 0000000180028200 f i CctCharacterControllerCallbacks.obj
 0001:000272f0       ?recreate@?$Array@VPxTriangle@physx@@VNamedAllocator@shdfnd@2@@shdfnd@physx@@IEAAXI@Z 00000001800282f0 f i CctCharacterControllerCallbacks.obj
 0001:00027450       ?reserve@?$Array@VPxTriangle@physx@@VNamedAllocator@shdfnd@2@@shdfnd@physx@@QEAAXI@Z 0000000180028450 f i CctCharacterControllerCallbacks.obj
 0001:00027490       ?reserve@TriArray@Cct@physx@@QEAAPEAVPxTriangle@3@I@Z 0000000180028490 f i CctCharacterControllerCallbacks.obj
 0001:00027570       ?rotate@PxMat44@physx@@QEBA?BVPxVec3@2@AEBV32@@Z 0000000180028570 f i CctCharacterControllerCallbacks.obj
 0001:000275e0       ?rotate@PxMat44@physx@@QEBA?BVPxVec4@2@AEBV32@@Z 00000001800285e0 f i CctCharacterControllerCallbacks.obj
 0001:000276d0       ?rotate@PxTransform@physx@@QEBA?AVPxVec3@2@AEBV32@@Z 00000001800286d0 f i CctCharacterControllerCallbacks.obj
 0001:00027780       ?toMat33@PxMeshScale@physx@@QEBA?AVPxMat33@2@XZ 0000000180028780 f i CctCharacterControllerCallbacks.obj
 0001:00027870       ?transform@PxMat33@physx@@QEBA?BVPxVec3@2@AEBV32@@Z 0000000180028870 f i CctCharacterControllerCallbacks.obj
 0001:00027950       ?transform@PxTransform@physx@@QEBA?AVPxPlane@2@AEBV32@@Z 0000000180028950 f i CctCharacterControllerCallbacks.obj
 0001:00027a60       PxCreateControllerManager  0000000180028a60 f   CctCharacterControllerManager.obj
 0001:00027af0       ??0CharacterControllerManager@Cct@physx@@QEAA@AEAVPxScene@2@_N@Z 0000000180028af0 f   CctCharacterControllerManager.obj
 0001:00027d80       ??1CharacterControllerManager@Cct@physx@@UEAA@XZ 0000000180028d80 f   CctCharacterControllerManager.obj
 0001:00027ed0       ?release@CharacterControllerManager@Cct@physx@@UEAAXXZ 0000000180028ed0 f   CctCharacterControllerManager.obj
 0001:00028000       ?getScene@CharacterControllerManager@Cct@physx@@UEBAAEAVPxScene@3@XZ 0000000180029000 f   CctCharacterControllerManager.obj
 0001:00028020       ?getNbControllers@CharacterControllerManager@Cct@physx@@UEBAIXZ 0000000180029020 f   CctCharacterControllerManager.obj
 0001:00028050       ?getController@CharacterControllerManager@Cct@physx@@UEAAPEAVPxController@3@I@Z 0000000180029050 f   CctCharacterControllerManager.obj
 0001:00028140       ?createController@CharacterControllerManager@Cct@physx@@UEAAPEAVPxController@3@AEBVPxControllerDesc@3@@Z 0000000180029140 f   CctCharacterControllerManager.obj
 0001:000284d0       ?purgeControllers@CharacterControllerManager@Cct@physx@@UEAAXXZ 00000001800294d0 f   CctCharacterControllerManager.obj
 0001:00028540       ?getRenderBuffer@CharacterControllerManager@Cct@physx@@UEAAAEAVPxRenderBuffer@3@XZ 0000000180029540 f   CctCharacterControllerManager.obj
 0001:000285d0       ?setDebugRenderingFlags@CharacterControllerManager@Cct@physx@@UEAAXV?$PxFlags@W4Enum@PxControllerDebugRenderFlag@physx@@I@3@@Z 00000001800295d0 f   CctCharacterControllerManager.obj
 0001:00028670       ?getNbObstacleContexts@CharacterControllerManager@Cct@physx@@UEBAIXZ 0000000180029670 f   CctCharacterControllerManager.obj
 0001:000286a0       ?getObstacleContext@CharacterControllerManager@Cct@physx@@UEAAPEAVPxObstacleContext@3@I@Z 00000001800296a0 f   CctCharacterControllerManager.obj
 0001:00028780       ?createObstacleContext@CharacterControllerManager@Cct@physx@@UEAAPEAVPxObstacleContext@3@XZ 0000000180029780 f   CctCharacterControllerManager.obj
 0001:00028820       ?computeInteractions@CharacterControllerManager@Cct@physx@@UEAAXMPEAVPxControllerFilterCallback@3@@Z 0000000180029820 f   CctCharacterControllerManager.obj
 0001:00028bb0       ?setTessellation@CharacterControllerManager@Cct@physx@@UEAAX_NM@Z 0000000180029bb0 f   CctCharacterControllerManager.obj
 0001:00028bf0       ?setOverlapRecoveryModule@CharacterControllerManager@Cct@physx@@UEAAX_N@Z 0000000180029bf0 f   CctCharacterControllerManager.obj
 0001:00028c10       ?setPreciseSweeps@CharacterControllerManager@Cct@physx@@UEAAX_N@Z 0000000180029c10 f   CctCharacterControllerManager.obj
 0001:00028c30       ?setPreventVerticalSlidingAgainstCeiling@CharacterControllerManager@Cct@physx@@UEAAX_N@Z 0000000180029c30 f   CctCharacterControllerManager.obj
 0001:00028c50       ?shiftOrigin@CharacterControllerManager@Cct@physx@@UEAAXAEBVPxVec3@3@@Z 0000000180029c50 f   CctCharacterControllerManager.obj
 0001:00028df0       ?onRelease@CharacterControllerManager@Cct@physx@@UEAAXPEBVPxBase@3@PEAXW4Enum@PxDeletionEventFlag@3@@Z 0000000180029df0 f   CctCharacterControllerManager.obj
 0001:00028fc0       ?registerObservedObject@CharacterControllerManager@Cct@physx@@QEAAXPEBVPxBase@3@@Z 0000000180029fc0 f   CctCharacterControllerManager.obj
 0001:00029050       ?unregisterObservedObject@CharacterControllerManager@Cct@physx@@QEAAXPEBVPxBase@3@@Z 000000018002a050 f   CctCharacterControllerManager.obj
 0001:00029150       ?onObstacleRemoved@CharacterControllerManager@Cct@physx@@QEBAXI@Z 000000018002a150 f   CctCharacterControllerManager.obj
 0001:000291c0       ?onObstacleUpdated@CharacterControllerManager@Cct@physx@@QEBAXIPEBVPxObstacleContext@3@@Z 000000018002a1c0 f   CctCharacterControllerManager.obj
 0001:00029300       ?onObstacleAdded@CharacterControllerManager@Cct@physx@@QEBAXIPEBVPxObstacleContext@3@@Z 000000018002a300 f   CctCharacterControllerManager.obj
 0001:00029440       ?releaseController@CharacterControllerManager@Cct@physx@@QEAAXAEAVPxController@3@@Z 000000018002a440 f   CctCharacterControllerManager.obj
 0001:000296e0       ?getControllers@CharacterControllerManager@Cct@physx@@QEAAPEAPEAVController@23@XZ 000000018002a6e0 f   CctCharacterControllerManager.obj
 0001:00029710       ?releaseObstacleContext@CharacterControllerManager@Cct@physx@@QEAAXAEAVObstacleContext@23@@Z 000000018002a710 f   CctCharacterControllerManager.obj
 0001:00029830       ?resetObstaclesBuffers@CharacterControllerManager@Cct@physx@@QEAAXXZ 000000018002a830 f   CctCharacterControllerManager.obj
 0001:0002b6d0       ??$?2V?$ReflectionAllocator@VBoxController@Cct@physx@@@shdfnd@physx@@@UserAllocated@shdfnd@physx@@SAPEAX_KV?$ReflectionAllocator@VBoxController@Cct@physx@@@12@PEBDH@Z 000000018002c6d0 f i CctCharacterControllerManager.obj
 0001:0002b720       ??$?2V?$ReflectionAllocator@VCapsuleController@Cct@physx@@@shdfnd@physx@@@UserAllocated@shdfnd@physx@@SAPEAX_KV?$ReflectionAllocator@VCapsuleController@Cct@physx@@@12@PEBDH@Z 000000018002c720 f i CctCharacterControllerManager.obj
 0001:0002b770       ??$?2V?$ReflectionAllocator@VCharacterControllerManager@Cct@physx@@@shdfnd@physx@@@UserAllocated@shdfnd@physx@@SAPEAX_KV?$ReflectionAllocator@VCharacterControllerManager@Cct@physx@@@12@PEBDH@Z 000000018002c770 f i CctCharacterControllerManager.obj
 0001:0002b7c0       ??$?2V?$ReflectionAllocator@VObstacleContext@Cct@physx@@@shdfnd@physx@@@UserAllocated@shdfnd@physx@@SAPEAX_KV?$ReflectionAllocator@VObstacleContext@Cct@physx@@@12@PEBDH@Z 000000018002c7c0 f i CctCharacterControllerManager.obj
 0001:0002b810       ??$?2V?$ReflectionAllocator@VRenderBuffer@Cm@physx@@@shdfnd@physx@@@UserAllocated@shdfnd@physx@@SAPEAX_KV?$ReflectionAllocator@VRenderBuffer@Cm@physx@@@12@PEBDH@Z 000000018002c810 f i CctCharacterControllerManager.obj
 0001:0002b860       ??$PX_UNUSED@W4Enum@PxDeletionEventFlag@physx@@@@YAXAEBW4Enum@PxDeletionEventFlag@physx@@@Z 000000018002c860 f i CctCharacterControllerManager.obj
 0001:0002b870       ??$append@UPxDebugLine@physx@@@RenderBuffer@Cm@physx@@AEAAXAEAV?$Array@UPxDebugLine@physx@@VNamedAllocator@shdfnd@2@@shdfnd@2@PEBUPxDebugLine@2@I@Z 000000018002c870 f i CctCharacterControllerManager.obj
 0001:0002b910       ??$append@UPxDebugPoint@physx@@@RenderBuffer@Cm@physx@@AEAAXAEAV?$Array@UPxDebugPoint@physx@@VNamedAllocator@shdfnd@2@@shdfnd@2@PEBUPxDebugPoint@2@I@Z 000000018002c910 f i CctCharacterControllerManager.obj
 0001:0002b9b0       ??$append@UPxDebugText@physx@@@RenderBuffer@Cm@physx@@AEAAXAEAV?$Array@UPxDebugText@physx@@VNamedAllocator@shdfnd@2@@shdfnd@2@PEBUPxDebugText@2@I@Z 000000018002c9b0 f i CctCharacterControllerManager.obj
 0001:0002ba50       ??$append@UPxDebugTriangle@physx@@@RenderBuffer@Cm@physx@@AEAAXAEAV?$Array@UPxDebugTriangle@physx@@VNamedAllocator@shdfnd@2@@shdfnd@2@PEBUPxDebugTriangle@2@I@Z 000000018002ca50 f i CctCharacterControllerManager.obj
 0001:0002baf0       ??$resetOrClear@V?$Array@PEBXVNamedAllocator@shdfnd@physx@@@shdfnd@physx@@@@YAXAEAV?$Array@PEBXVNamedAllocator@shdfnd@physx@@@shdfnd@physx@@@Z 000000018002caf0 f i CctCharacterControllerManager.obj
 0001:0002bb70       ??$resetOrClear@V?$Array@UPxExtendedCapsule@physx@@VNamedAllocator@shdfnd@2@@shdfnd@physx@@@@YAXAEAV?$Array@UPxExtendedCapsule@physx@@VNamedAllocator@shdfnd@2@@shdfnd@physx@@@Z 000000018002cb70 f i CctCharacterControllerManager.obj
 0001:0002bbf0       ??$resetOrClear@V?$Array@VPxExtendedBox@physx@@VNamedAllocator@shdfnd@2@@shdfnd@physx@@@@YAXAEAV?$Array@VPxExtendedBox@physx@@VNamedAllocator@shdfnd@2@@shdfnd@physx@@@Z 000000018002cbf0 f i CctCharacterControllerManager.obj
 0001:0002bc70       ??$swap@PEAVController@Cct@physx@@@shdfnd@physx@@YAXAEAPEAVController@Cct@1@0@Z 000000018002cc70 f i CctCharacterControllerManager.obj
 0001:0002bcc0       ??0?$Array@DVNamedAllocator@shdfnd@physx@@@shdfnd@physx@@QEAA@AEBVNamedAllocator@12@@Z 000000018002ccc0 f i CctCharacterControllerManager.obj
 0001:0002bd20       ??0?$Array@PEAVController@Cct@physx@@VNamedAllocator@shdfnd@3@@shdfnd@physx@@QEAA@AEBVNamedAllocator@12@@Z 000000018002cd20 f i CctCharacterControllerManager.obj
 0001:0002bd80       ??0?$Array@PEAVObstacleContext@Cct@physx@@VNamedAllocator@shdfnd@3@@shdfnd@physx@@QEAA@AEBVNamedAllocator@12@@Z 000000018002cd80 f i CctCharacterControllerManager.obj
 0001:0002bde0       ??0?$Array@PEBXVNamedAllocator@shdfnd@physx@@@shdfnd@physx@@QEAA@AEBVNamedAllocator@12@@Z 000000018002cde0 f i CctCharacterControllerManager.obj
 0001:0002be40       ??0?$Array@UPxDebugLine@physx@@VNamedAllocator@shdfnd@2@@shdfnd@physx@@QEAA@AEBVNamedAllocator@12@@Z 000000018002ce40 f i CctCharacterControllerManager.obj
 0001:0002bea0       ??0?$Array@UPxDebugPoint@physx@@VNamedAllocator@shdfnd@2@@shdfnd@physx@@QEAA@AEBVNamedAllocator@12@@Z 000000018002cea0 f i CctCharacterControllerManager.obj
 0001:0002bf00       ??0?$Array@UPxDebugText@physx@@VNamedAllocator@shdfnd@2@@shdfnd@physx@@QEAA@AEBVNamedAllocator@12@@Z 000000018002cf00 f i CctCharacterControllerManager.obj
 0001:0002bf60       ??0?$Array@UPxDebugTriangle@physx@@VNamedAllocator@shdfnd@2@@shdfnd@physx@@QEAA@AEBVNamedAllocator@12@@Z 000000018002cf60 f i CctCharacterControllerManager.obj
 0001:0002bfc0       ??0?$Array@UPxExtendedCapsule@physx@@VNamedAllocator@shdfnd@2@@shdfnd@physx@@QEAA@AEBVNamedAllocator@12@@Z 000000018002cfc0 f i CctCharacterControllerManager.obj
 0001:0002c020       ??0?$Array@VPxExtendedBox@physx@@VNamedAllocator@shdfnd@2@@shdfnd@physx@@QEAA@AEBVNamedAllocator@12@@Z 000000018002d020 f i CctCharacterControllerManager.obj
 0001:0002c080       ??0?$HashBase@PEAVPxShape@physx@@PEAV12@U?$Hash@PEAVPxShape@physx@@@shdfnd@2@UGetKey@?$HashSetBase@PEAVPxShape@physx@@U?$Hash@PEAVPxShape@physx@@@shdfnd@2@VNonTrackingAllocator@42@$0A@@internal@42@VNonTrackingAllocator@42@$0A@@internal@shdfnd@physx@@QEAA@IM@Z 000000018002d080 f i CctCharacterControllerManager.obj
 0001:0002c0e0       ??0?$HashBase@V?$Pair@QEBVPxBase@physx@@UObservedRefCounter@Cct@2@@shdfnd@physx@@PEBVPxBase@3@U?$Hash@PEBVPxBase@physx@@@23@UGetKey@?$HashMapBase@PEBVPxBase@physx@@UObservedRefCounter@Cct@2@U?$Hash@PEBVPxBase@physx@@@shdfnd@2@VNonTrackingAllocator@62@@internal@23@VNonTrackingAllocator@23@$00@internal@shdfnd@physx@@QEAA@IM@Z 000000018002d0e0 f i CctCharacterControllerManager.obj
 0001:0002c140       ??0?$HashMap@PEBVPxBase@physx@@UObservedRefCounter@Cct@2@U?$Hash@PEBVPxBase@physx@@@shdfnd@2@VNonTrackingAllocator@62@@shdfnd@physx@@QEAA@IM@Z 000000018002d140 f i CctCharacterControllerManager.obj
 0001:0002c180       ??0?$HashMapBase@PEBVPxBase@physx@@UObservedRefCounter@Cct@2@U?$Hash@PEBVPxBase@physx@@@shdfnd@2@VNonTrackingAllocator@62@@internal@shdfnd@physx@@QEAA@IM@Z 000000018002d180 f i CctCharacterControllerManager.obj
 0001:0002c1d0       ??0?$HashSet@PEAVPxShape@physx@@U?$Hash@PEAVPxShape@physx@@@shdfnd@2@VNonTrackingAllocator@42@@shdfnd@physx@@QEAA@IM@Z 000000018002d1d0 f i CctCharacterControllerManager.obj
 0001:0002c210       ??0?$HashSetBase@PEAVPxShape@physx@@U?$Hash@PEAVPxShape@physx@@@shdfnd@2@VNonTrackingAllocator@42@$0A@@internal@shdfnd@physx@@QEAA@IM@Z 000000018002d210 f i CctCharacterControllerManager.obj
 0001:0002c260       ??0?$MutexT@V?$ReflectionAllocator@VMutexImpl@shdfnd@physx@@@shdfnd@physx@@@shdfnd@physx@@QEAA@AEBV?$ReflectionAllocator@VMutexImpl@shdfnd@physx@@@12@@Z 000000018002d260 f i CctCharacterControllerManager.obj
 0001:0002c310       ??0?$Pair@QEBVPxBase@physx@@UObservedRefCounter@Cct@2@@shdfnd@physx@@QEAA@AEBQEBVPxBase@2@AEBUObservedRefCounter@Cct@2@@Z 000000018002d310 f i CctCharacterControllerManager.obj
 0001:0002c360       ??0?$Pair@QEBVPxBase@physx@@UObservedRefCounter@Cct@2@@shdfnd@physx@@QEAA@AEBV012@@Z 000000018002d360 f i CctCharacterControllerManager.obj
 0001:0002c3a0       ??0?$PxFlags@W4Enum@PxControllerDebugRenderFlag@physx@@I@physx@@QEAA@I@Z 000000018002d3a0 f i CctCharacterControllerManager.obj
 0001:0002c3c0       ??0?$PxFlags@W4Enum@PxDeletionEventFlag@physx@@E@physx@@QEAA@W4Enum@PxDeletionEventFlag@1@@Z 000000018002d3c0 f i CctCharacterControllerManager.obj
 0001:0002c3f0       ??0?$ReflectionAllocator@VBoxController@Cct@physx@@@shdfnd@physx@@QEAA@PEBD@Z 000000018002d3f0 f i CctCharacterControllerManager.obj
 0001:0002c410       ??0?$ReflectionAllocator@VCapsuleController@Cct@physx@@@shdfnd@physx@@QEAA@PEBD@Z 000000018002d410 f i CctCharacterControllerManager.obj
 0001:0002c430       ??0?$ReflectionAllocator@VCharacterControllerManager@Cct@physx@@@shdfnd@physx@@QEAA@PEBD@Z 000000018002d430 f i CctCharacterControllerManager.obj
 0001:0002c450       ??0?$ReflectionAllocator@VMutexImpl@shdfnd@physx@@@shdfnd@physx@@QEAA@AEBV012@@Z 000000018002d450 f i CctCharacterControllerManager.obj
 0001:0002c470       ??0?$ReflectionAllocator@VMutexImpl@shdfnd@physx@@@shdfnd@physx@@QEAA@PEBD@Z 000000018002d470 f i CctCharacterControllerManager.obj
 0001:0002c490       ??0?$ReflectionAllocator@VObstacleContext@Cct@physx@@@shdfnd@physx@@QEAA@PEBD@Z 000000018002d490 f i CctCharacterControllerManager.obj
 0001:0002c4b0       ??0?$ReflectionAllocator@VRenderBuffer@Cm@physx@@@shdfnd@physx@@QEAA@PEBD@Z 000000018002d4b0 f i CctCharacterControllerManager.obj
 0001:0002c4d0       ??0Axes@Gu@physx@@QEAA@W4AxisOrder@12@@Z 000000018002d4d0 f i CctCharacterControllerManager.obj
 0001:0002c530       ??0ObservedRefCounter@Cct@physx@@QEAA@XZ 000000018002d530 f i CctCharacterControllerManager.obj
 0001:0002c550       ??0PxDebugLine@physx@@QEAA@AEBU01@@Z 000000018002d550 f i CctCharacterControllerManager.obj
 0001:0002c5d0       ??0PxDebugPoint@physx@@QEAA@AEBU01@@Z 000000018002d5d0 f i CctCharacterControllerManager.obj
 0001:0002c620       ??0PxDebugText@physx@@QEAA@AEBU01@@Z 000000018002d620 f i CctCharacterControllerManager.obj
 0001:0002c6a0       ??0PxDebugTriangle@physx@@QEAA@AEBU01@@Z 000000018002d6a0 f i CctCharacterControllerManager.obj
 0001:0002c760       ??0PxDeletionListener@physx@@IEAA@XZ 000000018002d760 f i CctCharacterControllerManager.obj
 0001:0002c780       ??0PxRenderBuffer@physx@@QEAA@XZ 000000018002d780 f i CctCharacterControllerManager.obj
 0001:0002c7a0       ??0RenderBuffer@Cm@physx@@QEAA@XZ 000000018002d7a0 f i CctCharacterControllerManager.obj
 0001:0002c910       ??1?$Array@DVNamedAllocator@shdfnd@physx@@@shdfnd@physx@@QEAA@XZ 000000018002d910 f i CctCharacterControllerManager.obj
 0001:0002c990       ??1?$Array@PEAVController@Cct@physx@@VNamedAllocator@shdfnd@3@@shdfnd@physx@@QEAA@XZ 000000018002d990 f i CctCharacterControllerManager.obj
 0001:0002ca20       ??1?$Array@PEAVObstacleContext@Cct@physx@@VNamedAllocator@shdfnd@3@@shdfnd@physx@@QEAA@XZ 000000018002da20 f i CctCharacterControllerManager.obj
 0001:0002cab0       ??1?$Array@PEBXVNamedAllocator@shdfnd@physx@@@shdfnd@physx@@QEAA@XZ 000000018002dab0 f i CctCharacterControllerManager.obj
 0001:0002cb40       ??1?$Array@UPxDebugLine@physx@@VNamedAllocator@shdfnd@2@@shdfnd@physx@@QEAA@XZ 000000018002db40 f i CctCharacterControllerManager.obj
 0001:0002cbd0       ??1?$Array@UPxDebugPoint@physx@@VNamedAllocator@shdfnd@2@@shdfnd@physx@@QEAA@XZ 000000018002dbd0 f i CctCharacterControllerManager.obj
 0001:0002cc60       ??1?$Array@UPxDebugText@physx@@VNamedAllocator@shdfnd@2@@shdfnd@physx@@QEAA@XZ 000000018002dc60 f i CctCharacterControllerManager.obj
 0001:0002ccf0       ??1?$Array@UPxDebugTriangle@physx@@VNamedAllocator@shdfnd@2@@shdfnd@physx@@QEAA@XZ 000000018002dcf0 f i CctCharacterControllerManager.obj
 0001:0002cd80       ??1?$Array@UPxExtendedCapsule@physx@@VNamedAllocator@shdfnd@2@@shdfnd@physx@@QEAA@XZ 000000018002dd80 f i CctCharacterControllerManager.obj
 0001:0002ce10       ??1?$Array@VPxExtendedBox@physx@@VNamedAllocator@shdfnd@2@@shdfnd@physx@@QEAA@XZ 000000018002de10 f i CctCharacterControllerManager.obj
 0001:0002cea0       ??1?$HashBase@PEAVPxShape@physx@@PEAV12@U?$Hash@PEAVPxShape@physx@@@shdfnd@2@UGetKey@?$HashSetBase@PEAVPxShape@physx@@U?$Hash@PEAVPxShape@physx@@@shdfnd@2@VNonTrackingAllocator@42@$0A@@internal@42@VNonTrackingAllocator@42@$0A@@internal@shdfnd@physx@@QEAA@XZ 000000018002dea0 f i CctCharacterControllerManager.obj
 0001:0002cef0       ??1?$HashBase@V?$Pair@QEBVPxBase@physx@@UObservedRefCounter@Cct@2@@shdfnd@physx@@PEBVPxBase@3@U?$Hash@PEBVPxBase@physx@@@23@UGetKey@?$HashMapBase@PEBVPxBase@physx@@UObservedRefCounter@Cct@2@U?$Hash@PEBVPxBase@physx@@@shdfnd@2@VNonTrackingAllocator@62@@internal@23@VNonTrackingAllocator@23@$00@internal@shdfnd@physx@@QEAA@XZ 000000018002def0 f i CctCharacterControllerManager.obj
 0001:0002cf40       ??1?$HashMap@PEBVPxBase@physx@@UObservedRefCounter@Cct@2@U?$Hash@PEBVPxBase@physx@@@shdfnd@2@VNonTrackingAllocator@62@@shdfnd@physx@@QEAA@XZ 000000018002df40 f i CctCharacterControllerManager.obj
 0001:0002cf60       ??1?$HashMapBase@PEBVPxBase@physx@@UObservedRefCounter@Cct@2@U?$Hash@PEBVPxBase@physx@@@shdfnd@2@VNonTrackingAllocator@62@@internal@shdfnd@physx@@QEAA@XZ 000000018002df60 f i CctCharacterControllerManager.obj
 0001:0002cf90       ??1?$HashSet@PEAVPxShape@physx@@U?$Hash@PEAVPxShape@physx@@@shdfnd@2@VNonTrackingAllocator@42@@shdfnd@physx@@QEAA@XZ 000000018002df90 f i CctCharacterControllerManager.obj
 0001:0002cfb0       ??1?$HashSetBase@PEAVPxShape@physx@@U?$Hash@PEAVPxShape@physx@@@shdfnd@2@VNonTrackingAllocator@42@$0A@@internal@shdfnd@physx@@QEAA@XZ 000000018002dfb0 f i CctCharacterControllerManager.obj
 0001:0002cfe0       ??1?$MutexT@V?$ReflectionAllocator@VMutexImpl@shdfnd@physx@@@shdfnd@physx@@@shdfnd@physx@@QEAA@XZ 000000018002dfe0 f i CctCharacterControllerManager.obj
 0001:0002d020       ??1Axes@Gu@physx@@QEAA@XZ  000000018002e020 f i CctCharacterControllerManager.obj
 0001:0002d030       ??1PxDeletionListener@physx@@MEAA@XZ 000000018002e030 f i CctCharacterControllerManager.obj
 0001:0002d050       ??1PxRenderBuffer@physx@@UEAA@XZ 000000018002e050 f i CctCharacterControllerManager.obj
 0001:0002d070       ??1RenderBuffer@Cm@physx@@UEAA@XZ 000000018002e070 f i CctCharacterControllerManager.obj
 0001:0002d100       ??4?$PxFlags@W4Enum@PxControllerDebugRenderFlag@physx@@I@physx@@QEAAAEAV01@AEBV01@@Z 000000018002e100 f i CctCharacterControllerManager.obj
 0001:0002d130       ??4PxBounds3@physx@@QEAAAEAV01@$$QEAV01@@Z 000000018002e130 f i CctCharacterControllerManager.obj
 0001:0002d190       ??A?$Array@PEAVController@Cct@physx@@VNamedAllocator@shdfnd@3@@shdfnd@physx@@QEAAAEAPEAVController@Cct@2@I@Z 000000018002e190 f i CctCharacterControllerManager.obj
 0001:0002d230       ??A?$Array@PEAVController@Cct@physx@@VNamedAllocator@shdfnd@3@@shdfnd@physx@@QEBAAEBQEAVController@Cct@2@I@Z 000000018002e230 f i CctCharacterControllerManager.obj
 0001:0002d2d0       ??A?$Array@PEAVObstacleContext@Cct@physx@@VNamedAllocator@shdfnd@3@@shdfnd@physx@@QEAAAEAPEAVObstacleContext@Cct@2@I@Z 000000018002e2d0 f i CctCharacterControllerManager.obj
 0001:0002d370       ??A?$Array@UPxDebugLine@physx@@VNamedAllocator@shdfnd@2@@shdfnd@physx@@QEAAAEAUPxDebugLine@2@I@Z 000000018002e370 f i CctCharacterControllerManager.obj
 0001:0002d410       ??A?$Array@UPxDebugPoint@physx@@VNamedAllocator@shdfnd@2@@shdfnd@physx@@QEAAAEAUPxDebugPoint@2@I@Z 000000018002e410 f i CctCharacterControllerManager.obj
 0001:0002d4b0       ??A?$Array@UPxDebugText@physx@@VNamedAllocator@shdfnd@2@@shdfnd@physx@@QEAAAEAUPxDebugText@2@I@Z 000000018002e4b0 f i CctCharacterControllerManager.obj
 0001:0002d550       ??A?$Array@UPxDebugTriangle@physx@@VNamedAllocator@shdfnd@2@@shdfnd@physx@@QEAAAEAUPxDebugTriangle@2@I@Z 000000018002e550 f i CctCharacterControllerManager.obj
 0001:0002d5f0       ??A?$HashMapBase@PEBVPxBase@physx@@UObservedRefCounter@Cct@2@U?$Hash@PEBVPxBase@physx@@@shdfnd@2@VNonTrackingAllocator@62@@internal@shdfnd@physx@@QEAAAEAUObservedRefCounter@Cct@3@AEBQEBVPxBase@3@@Z 000000018002e5f0 f i CctCharacterControllerManager.obj
 0001:0002d6a0       ??APxMat33@physx@@QEBAAEBVPxVec3@1@I@Z 000000018002e6a0 f i CctCharacterControllerManager.obj
 0001:0002d6d0       ??B?$PxFlags@W4Enum@PxControllerDebugRenderFlag@physx@@I@physx@@QEBA_NXZ 000000018002e6d0 f i CctCharacterControllerManager.obj
 0001:0002d700       ??R?$Hash@PEBVPxBase@physx@@@shdfnd@physx@@QEBAIAEBQEBVPxBase@2@@Z 000000018002e700 f i CctCharacterControllerManager.obj
 0001:0002d730       ??RGetKey@?$HashMapBase@PEBVPxBase@physx@@UObservedRefCounter@Cct@2@U?$Hash@PEBVPxBase@physx@@@shdfnd@2@VNonTrackingAllocator@62@@internal@shdfnd@physx@@QEAAAEBQEBVPxBase@4@AEBV?$Pair@QEBVPxBase@physx@@UObservedRefCounter@Cct@2@@34@@Z 000000018002e730 f i CctCharacterControllerManager.obj
 0001:0002d744       ??_ECharacterControllerManager@Cct@physx@@W7EAAPEAXI@Z 000000018002e744 f i CctCharacterControllerManager.obj
 0001:0002d750       ??_ECharacterControllerManager@Cct@physx@@UEAAPEAXI@Z 000000018002e750 f i CctCharacterControllerManager.obj
 0001:0002d750       ??_GCharacterControllerManager@Cct@physx@@UEAAPEAXI@Z 000000018002e750 f i CctCharacterControllerManager.obj
 0001:0002d7c0       ??_GMutexImpl@shdfnd@physx@@QEAAPEAXI@Z 000000018002e7c0 f i CctCharacterControllerManager.obj
 0001:0002d810       ??_EPxDeletionListener@physx@@MEAAPEAXI@Z 000000018002e810 f i CctCharacterControllerManager.obj
 0001:0002d810       ??_GPxDeletionListener@physx@@MEAAPEAXI@Z 000000018002e810 f i CctCharacterControllerManager.obj
 0001:0002d860       ??_EPxRenderBuffer@physx@@UEAAPEAXI@Z 000000018002e860 f i CctCharacterControllerManager.obj
 0001:0002d860       ??_GPxRenderBuffer@physx@@UEAAPEAXI@Z 000000018002e860 f i CctCharacterControllerManager.obj
 0001:0002d8b0       ??_ERenderBuffer@Cm@physx@@UEAAPEAXI@Z 000000018002e8b0 f i CctCharacterControllerManager.obj
 0001:0002d8b0       ??_GRenderBuffer@Cm@physx@@UEAAPEAXI@Z 000000018002e8b0 f i CctCharacterControllerManager.obj
 0001:0002d920       ?allocate@?$Array@PEAVController@Cct@physx@@VNamedAllocator@shdfnd@3@@shdfnd@physx@@IEAAPEAPEAVController@Cct@3@I@Z 000000018002e920 f i CctCharacterControllerManager.obj
 0001:0002d9d0       ?allocate@?$Array@PEAVObstacleContext@Cct@physx@@VNamedAllocator@shdfnd@3@@shdfnd@physx@@IEAAPEAPEAVObstacleContext@Cct@3@I@Z 000000018002e9d0 f i CctCharacterControllerManager.obj
 0001:0002da80       ?allocate@?$Array@UPxDebugLine@physx@@VNamedAllocator@shdfnd@2@@shdfnd@physx@@IEAAPEAUPxDebugLine@3@I@Z 000000018002ea80 f i CctCharacterControllerManager.obj
 0001:0002db30       ?allocate@?$Array@UPxDebugPoint@physx@@VNamedAllocator@shdfnd@2@@shdfnd@physx@@IEAAPEAUPxDebugPoint@3@I@Z 000000018002eb30 f i CctCharacterControllerManager.obj
 0001:0002dbe0       ?allocate@?$Array@UPxDebugText@physx@@VNamedAllocator@shdfnd@2@@shdfnd@physx@@IEAAPEAUPxDebugText@3@I@Z 000000018002ebe0 f i CctCharacterControllerManager.obj
 0001:0002dc90       ?allocate@?$Array@UPxDebugTriangle@physx@@VNamedAllocator@shdfnd@2@@shdfnd@physx@@IEAAPEAUPxDebugTriangle@3@I@Z 000000018002ec90 f i CctCharacterControllerManager.obj
 0001:0002dd40       ?allocate@?$ReflectionAllocator@VBoxController@Cct@physx@@@shdfnd@physx@@QEAAPEAX_KPEBDH@Z 000000018002ed40 f i CctCharacterControllerManager.obj
 0001:0002dde0       ?allocate@?$ReflectionAllocator@VCapsuleController@Cct@physx@@@shdfnd@physx@@QEAAPEAX_KPEBDH@Z 000000018002ede0 f i CctCharacterControllerManager.obj
 0001:0002de80       ?allocate@?$ReflectionAllocator@VCharacterControllerManager@Cct@physx@@@shdfnd@physx@@QEAAPEAX_KPEBDH@Z 000000018002ee80 f i CctCharacterControllerManager.obj
 0001:0002df20       ?allocate@?$ReflectionAllocator@VMutexImpl@shdfnd@physx@@@shdfnd@physx@@QEAAPEAX_KPEBDH@Z 000000018002ef20 f i CctCharacterControllerManager.obj
 0001:0002dfc0       ?allocate@?$ReflectionAllocator@VObstacleContext@Cct@physx@@@shdfnd@physx@@QEAAPEAX_KPEBDH@Z 000000018002efc0 f i CctCharacterControllerManager.obj
 0001:0002e060       ?allocate@?$ReflectionAllocator@VRenderBuffer@Cm@physx@@@shdfnd@physx@@QEAAPEAX_KPEBDH@Z 000000018002f060 f i CctCharacterControllerManager.obj
 0001:0002e100       ?allocate@NonTrackingAllocator@shdfnd@physx@@QEAAPEAX_KPEBDH@Z 000000018002f100 f i CctCharacterControllerManager.obj
 0001:0002e190       ?append@RenderBuffer@Cm@physx@@UEAAXAEBVPxRenderBuffer@3@@Z 000000018002f190 f i CctCharacterControllerManager.obj
 0001:0002e330       ?begin@?$Array@PEAVController@Cct@physx@@VNamedAllocator@shdfnd@3@@shdfnd@physx@@QEAAPEAPEAVController@Cct@3@XZ 000000018002f330 f i CctCharacterControllerManager.obj
 0001:0002e350       ?begin@?$Array@UPxDebugLine@physx@@VNamedAllocator@shdfnd@2@@shdfnd@physx@@QEBAPEBUPxDebugLine@3@XZ 000000018002f350 f i CctCharacterControllerManager.obj
 0001:0002e370       ?begin@?$Array@UPxDebugPoint@physx@@VNamedAllocator@shdfnd@2@@shdfnd@physx@@QEBAPEBUPxDebugPoint@3@XZ 000000018002f370 f i CctCharacterControllerManager.obj
 0001:0002e390       ?begin@?$Array@UPxDebugText@physx@@VNamedAllocator@shdfnd@2@@shdfnd@physx@@QEBAPEBUPxDebugText@3@XZ 000000018002f390 f i CctCharacterControllerManager.obj
 0001:0002e3b0       ?begin@?$Array@UPxDebugTriangle@physx@@VNamedAllocator@shdfnd@2@@shdfnd@physx@@QEBAPEBUPxDebugTriangle@3@XZ 000000018002f3b0 f i CctCharacterControllerManager.obj
 0001:0002e3d0       ?capacity@?$Array@DVNamedAllocator@shdfnd@physx@@@shdfnd@physx@@QEBAIXZ 000000018002f3d0 f i CctCharacterControllerManager.obj
 0001:0002e3f0       ?capacity@?$Array@PEAVController@Cct@physx@@VNamedAllocator@shdfnd@3@@shdfnd@physx@@QEBAIXZ 000000018002f3f0 f i CctCharacterControllerManager.obj
 0001:0002e410       ?capacity@?$Array@PEAVObstacleContext@Cct@physx@@VNamedAllocator@shdfnd@3@@shdfnd@physx@@QEBAIXZ 000000018002f410 f i CctCharacterControllerManager.obj
 0001:0002e430       ?capacity@?$Array@UPxDebugLine@physx@@VNamedAllocator@shdfnd@2@@shdfnd@physx@@QEBAIXZ 000000018002f430 f i CctCharacterControllerManager.obj
 0001:0002e450       ?capacity@?$Array@UPxDebugPoint@physx@@VNamedAllocator@shdfnd@2@@shdfnd@physx@@QEBAIXZ 000000018002f450 f i CctCharacterControllerManager.obj
 0001:0002e470       ?capacity@?$Array@UPxDebugText@physx@@VNamedAllocator@shdfnd@2@@shdfnd@physx@@QEBAIXZ 000000018002f470 f i CctCharacterControllerManager.obj
 0001:0002e490       ?capacity@?$Array@UPxDebugTriangle@physx@@VNamedAllocator@shdfnd@2@@shdfnd@physx@@QEBAIXZ 000000018002f490 f i CctCharacterControllerManager.obj
 0001:0002e4b0       ?capacityIncrement@?$Array@PEAVController@Cct@physx@@VNamedAllocator@shdfnd@3@@shdfnd@physx@@IEBAIXZ 000000018002f4b0 f i CctCharacterControllerManager.obj
 0001:0002e500       ?capacityIncrement@?$Array@PEAVObstacleContext@Cct@physx@@VNamedAllocator@shdfnd@3@@shdfnd@physx@@IEBAIXZ 000000018002f500 f i CctCharacterControllerManager.obj
 0001:0002e550       ?capacityIncrement@?$Array@UPxDebugLine@physx@@VNamedAllocator@shdfnd@2@@shdfnd@physx@@IEBAIXZ 000000018002f550 f i CctCharacterControllerManager.obj
 0001:0002e5a0       ?capacityIncrement@?$Array@UPxDebugPoint@physx@@VNamedAllocator@shdfnd@2@@shdfnd@physx@@IEBAIXZ 000000018002f5a0 f i CctCharacterControllerManager.obj
 0001:0002e5f0       ?capacityIncrement@?$Array@UPxDebugText@physx@@VNamedAllocator@shdfnd@2@@shdfnd@physx@@IEBAIXZ 000000018002f5f0 f i CctCharacterControllerManager.obj
 0001:0002e640       ?capacityIncrement@?$Array@UPxDebugTriangle@physx@@VNamedAllocator@shdfnd@2@@shdfnd@physx@@IEBAIXZ 000000018002f640 f i CctCharacterControllerManager.obj
 0001:0002e690       ?clear@?$Array@DVNamedAllocator@shdfnd@physx@@@shdfnd@physx@@QEAAXXZ 000000018002f690 f i CctCharacterControllerManager.obj
 0001:0002e6e0       ?clear@?$Array@PEBXVNamedAllocator@shdfnd@physx@@@shdfnd@physx@@QEAAXXZ 000000018002f6e0 f i CctCharacterControllerManager.obj
 0001:0002e730       ?clear@?$Array@UPxDebugLine@physx@@VNamedAllocator@shdfnd@2@@shdfnd@physx@@QEAAXXZ 000000018002f730 f i CctCharacterControllerManager.obj
 0001:0002e780       ?clear@?$Array@UPxDebugPoint@physx@@VNamedAllocator@shdfnd@2@@shdfnd@physx@@QEAAXXZ 000000018002f780 f i CctCharacterControllerManager.obj
 0001:0002e7d0       ?clear@?$Array@UPxDebugText@physx@@VNamedAllocator@shdfnd@2@@shdfnd@physx@@QEAAXXZ 000000018002f7d0 f i CctCharacterControllerManager.obj
 0001:0002e820       ?clear@?$Array@UPxDebugTriangle@physx@@VNamedAllocator@shdfnd@2@@shdfnd@physx@@QEAAXXZ 000000018002f820 f i CctCharacterControllerManager.obj
 0001:0002e870       ?clear@?$Array@UPxExtendedCapsule@physx@@VNamedAllocator@shdfnd@2@@shdfnd@physx@@QEAAXXZ 000000018002f870 f i CctCharacterControllerManager.obj
 0001:0002e8c0       ?clear@?$Array@VPxExtendedBox@physx@@VNamedAllocator@shdfnd@2@@shdfnd@physx@@QEAAXXZ 000000018002f8c0 f i CctCharacterControllerManager.obj
 0001:0002e910       ?clear@RenderBuffer@Cm@physx@@UEAAXXZ 000000018002f910 f i CctCharacterControllerManager.obj
 0001:0002e990       ?copy@?$Array@PEAVController@Cct@physx@@VNamedAllocator@shdfnd@3@@shdfnd@physx@@KAXPEAPEAVController@Cct@3@0PEBQEAV453@@Z 000000018002f990 f i CctCharacterControllerManager.obj
 0001:0002eaa0       ?copy@?$Array@PEAVObstacleContext@Cct@physx@@VNamedAllocator@shdfnd@3@@shdfnd@physx@@KAXPEAPEAVObstacleContext@Cct@3@0PEBQEAV453@@Z 000000018002faa0 f i CctCharacterControllerManager.obj
 0001:0002ebb0       ?copy@?$Array@UPxDebugLine@physx@@VNamedAllocator@shdfnd@2@@shdfnd@physx@@KAXPEAUPxDebugLine@3@0PEBU43@@Z 000000018002fbb0 f i CctCharacterControllerManager.obj
 0001:0002ecb0       ?copy@?$Array@UPxDebugPoint@physx@@VNamedAllocator@shdfnd@2@@shdfnd@physx@@KAXPEAUPxDebugPoint@3@0PEBU43@@Z 000000018002fcb0 f i CctCharacterControllerManager.obj
 0001:0002edb0       ?copy@?$Array@UPxDebugText@physx@@VNamedAllocator@shdfnd@2@@shdfnd@physx@@KAXPEAUPxDebugText@3@0PEBU43@@Z 000000018002fdb0 f i CctCharacterControllerManager.obj
 0001:0002eeb0       ?copy@?$Array@UPxDebugTriangle@physx@@VNamedAllocator@shdfnd@2@@shdfnd@physx@@KAXPEAUPxDebugTriangle@3@0PEBU43@@Z 000000018002feb0 f i CctCharacterControllerManager.obj
 0001:0002efc0       ?create@?$Array@PEBXVNamedAllocator@shdfnd@physx@@@shdfnd@physx@@KAXPEAPEBX0AEBQEBX@Z 000000018002ffc0 f i CctCharacterControllerManager.obj
 0001:0002f0b0       ?create@?$Array@UPxExtendedCapsule@physx@@VNamedAllocator@shdfnd@2@@shdfnd@physx@@KAXPEAUPxExtendedCapsule@3@0AEBU43@@Z 00000001800300b0 f i CctCharacterControllerManager.obj
 0001:0002f1b0       ?create@?$Array@VPxExtendedBox@physx@@VNamedAllocator@shdfnd@2@@shdfnd@physx@@KAXPEAVPxExtendedBox@3@0AEBV43@@Z 00000001800301b0 f i CctCharacterControllerManager.obj
 0001:0002f2a0       ?create@?$HashBase@PEAVPxShape@physx@@PEAV12@U?$Hash@PEAVPxShape@physx@@@shdfnd@2@UGetKey@?$HashSetBase@PEAVPxShape@physx@@U?$Hash@PEAVPxShape@physx@@@shdfnd@2@VNonTrackingAllocator@42@$0A@@internal@42@VNonTrackingAllocator@42@$0A@@internal@shdfnd@physx@@QEAAPEAPEAVPxShape@4@AEBQEAV54@AEA_N@Z 00000001800302a0 f i CctCharacterControllerManager.obj
 0001:0002f4b0       ?create@?$HashBase@V?$Pair@QEBVPxBase@physx@@UObservedRefCounter@Cct@2@@shdfnd@physx@@PEBVPxBase@3@U?$Hash@PEBVPxBase@physx@@@23@UGetKey@?$HashMapBase@PEBVPxBase@physx@@UObservedRefCounter@Cct@2@U?$Hash@PEBVPxBase@physx@@@shdfnd@2@VNonTrackingAllocator@62@@internal@23@VNonTrackingAllocator@23@$00@internal@shdfnd@physx@@QEAAPEAV?$Pair@QEBVPxBase@physx@@UObservedRefCounter@Cct@2@@34@AEBQEBVPxBase@4@AEA_N@Z 00000001800304b0 f i CctCharacterControllerManager.obj
 0001:0002f6c0       ?deallocate@?$Array@DVNamedAllocator@shdfnd@physx@@@shdfnd@physx@@IEAAXPEAX@Z 00000001800306c0 f i CctCharacterControllerManager.obj
 0001:0002f6f0       ?deallocate@?$Array@PEAVController@Cct@physx@@VNamedAllocator@shdfnd@3@@shdfnd@physx@@IEAAXPEAX@Z 00000001800306f0 f i CctCharacterControllerManager.obj
 0001:0002f720       ?deallocate@?$Array@PEAVObstacleContext@Cct@physx@@VNamedAllocator@shdfnd@3@@shdfnd@physx@@IEAAXPEAX@Z 0000000180030720 f i CctCharacterControllerManager.obj
 0001:0002f750       ?deallocate@?$Array@UPxDebugLine@physx@@VNamedAllocator@shdfnd@2@@shdfnd@physx@@IEAAXPEAX@Z 0000000180030750 f i CctCharacterControllerManager.obj
 0001:0002f780       ?deallocate@?$Array@UPxDebugPoint@physx@@VNamedAllocator@shdfnd@2@@shdfnd@physx@@IEAAXPEAX@Z 0000000180030780 f i CctCharacterControllerManager.obj
 0001:0002f7b0       ?deallocate@?$Array@UPxDebugText@physx@@VNamedAllocator@shdfnd@2@@shdfnd@physx@@IEAAXPEAX@Z 00000001800307b0 f i CctCharacterControllerManager.obj
 0001:0002f7e0       ?deallocate@?$Array@UPxDebugTriangle@physx@@VNamedAllocator@shdfnd@2@@shdfnd@physx@@IEAAXPEAX@Z 00000001800307e0 f i CctCharacterControllerManager.obj
 0001:0002f810       ?deallocate@?$ReflectionAllocator@VMutexImpl@shdfnd@physx@@@shdfnd@physx@@QEAAXPEAX@Z 0000000180030810 f i CctCharacterControllerManager.obj
 0001:0002f860       ?destroy@?$Array@DVNamedAllocator@shdfnd@physx@@@shdfnd@physx@@KAXPEAD0@Z 0000000180030860 f i CctCharacterControllerManager.obj
 0001:0002f8b0       ?destroy@?$Array@PEAVController@Cct@physx@@VNamedAllocator@shdfnd@3@@shdfnd@physx@@KAXPEAPEAVController@Cct@3@0@Z 00000001800308b0 f i CctCharacterControllerManager.obj
 0001:0002f900       ?destroy@?$Array@PEAVObstacleContext@Cct@physx@@VNamedAllocator@shdfnd@3@@shdfnd@physx@@KAXPEAPEAVObstacleContext@Cct@3@0@Z 0000000180030900 f i CctCharacterControllerManager.obj
 0001:0002f950       ?destroy@?$Array@UPxDebugLine@physx@@VNamedAllocator@shdfnd@2@@shdfnd@physx@@KAXPEAUPxDebugLine@3@0@Z 0000000180030950 f i CctCharacterControllerManager.obj
 0001:0002f9a0       ?destroy@?$Array@UPxDebugPoint@physx@@VNamedAllocator@shdfnd@2@@shdfnd@physx@@KAXPEAUPxDebugPoint@3@0@Z 00000001800309a0 f i CctCharacterControllerManager.obj
 0001:0002f9f0       ?destroy@?$Array@UPxDebugText@physx@@VNamedAllocator@shdfnd@2@@shdfnd@physx@@KAXPEAUPxDebugText@3@0@Z 00000001800309f0 f i CctCharacterControllerManager.obj
 0001:0002fa40       ?destroy@?$Array@UPxDebugTriangle@physx@@VNamedAllocator@shdfnd@2@@shdfnd@physx@@KAXPEAUPxDebugTriangle@3@0@Z 0000000180030a40 f i CctCharacterControllerManager.obj
 0001:0002fa90       ?destroy@?$HashBase@PEAVPxShape@physx@@PEAV12@U?$Hash@PEAVPxShape@physx@@@shdfnd@2@UGetKey@?$HashSetBase@PEAVPxShape@physx@@U?$Hash@PEAVPxShape@physx@@@shdfnd@2@VNonTrackingAllocator@42@$0A@@internal@42@VNonTrackingAllocator@42@$0A@@internal@shdfnd@physx@@AEAAXXZ 0000000180030a90 f i CctCharacterControllerManager.obj
 0001:0002fb10       ?destroy@?$HashBase@V?$Pair@QEBVPxBase@physx@@UObservedRefCounter@Cct@2@@shdfnd@physx@@PEBVPxBase@3@U?$Hash@PEBVPxBase@physx@@@23@UGetKey@?$HashMapBase@PEBVPxBase@physx@@UObservedRefCounter@Cct@2@U?$Hash@PEBVPxBase@physx@@@shdfnd@2@VNonTrackingAllocator@62@@internal@23@VNonTrackingAllocator@23@$00@internal@shdfnd@physx@@AEAAXXZ 0000000180030b10 f i CctCharacterControllerManager.obj
 0001:0002fb90       ?end@?$Array@PEAVObstacleContext@Cct@physx@@VNamedAllocator@shdfnd@3@@shdfnd@physx@@QEAAPEAPEAVObstacleContext@Cct@3@XZ 0000000180030b90 f i CctCharacterControllerManager.obj
 0001:0002fbb0       ?equal@?$Hash@PEBVPxBase@physx@@@shdfnd@physx@@QEBA_NAEBQEBVPxBase@3@0@Z 0000000180030bb0 f i CctCharacterControllerManager.obj
 0001:0002fc00       ?erase@?$HashBase@PEAVPxShape@physx@@PEAV12@U?$Hash@PEAVPxShape@physx@@@shdfnd@2@UGetKey@?$HashSetBase@PEAVPxShape@physx@@U?$Hash@PEAVPxShape@physx@@@shdfnd@2@VNonTrackingAllocator@42@$0A@@internal@42@VNonTrackingAllocator@42@$0A@@internal@shdfnd@physx@@QEAA_NAEBQEAVPxShape@4@@Z 0000000180030c00 f i CctCharacterControllerManager.obj
 0001:0002fd00       ?erase@?$HashBase@V?$Pair@QEBVPxBase@physx@@UObservedRefCounter@Cct@2@@shdfnd@physx@@PEBVPxBase@3@U?$Hash@PEBVPxBase@physx@@@23@UGetKey@?$HashMapBase@PEBVPxBase@physx@@UObservedRefCounter@Cct@2@U?$Hash@PEBVPxBase@physx@@@shdfnd@2@VNonTrackingAllocator@62@@internal@23@VNonTrackingAllocator@23@$00@internal@shdfnd@physx@@QEAA_NAEBQEBVPxBase@4@@Z 0000000180030d00 f i CctCharacterControllerManager.obj
 0001:0002fe00       ?erase@?$HashMapBase@PEBVPxBase@physx@@UObservedRefCounter@Cct@2@U?$Hash@PEBVPxBase@physx@@@shdfnd@2@VNonTrackingAllocator@62@@internal@shdfnd@physx@@QEAA_NAEBQEBVPxBase@4@@Z 0000000180030e00 f i CctCharacterControllerManager.obj
 0001:0002fe30       ?erase@?$HashSetBase@PEAVPxShape@physx@@U?$Hash@PEAVPxShape@physx@@@shdfnd@2@VNonTrackingAllocator@42@$0A@@internal@shdfnd@physx@@QEAA_NAEBQEAVPxShape@4@@Z 0000000180030e30 f i CctCharacterControllerManager.obj
 0001:0002fe60       ?eraseInternal@?$HashBase@PEAVPxShape@physx@@PEAV12@U?$Hash@PEAVPxShape@physx@@@shdfnd@2@UGetKey@?$HashSetBase@PEAVPxShape@physx@@U?$Hash@PEAVPxShape@physx@@@shdfnd@2@VNonTrackingAllocator@42@$0A@@internal@42@VNonTrackingAllocator@42@$0A@@internal@shdfnd@physx@@AEAA_NPEAI@Z 0000000180030e60 f i CctCharacterControllerManager.obj
 0001:0002ff00       ?eraseInternal@?$HashBase@V?$Pair@QEBVPxBase@physx@@UObservedRefCounter@Cct@2@@shdfnd@physx@@PEBVPxBase@3@U?$Hash@PEBVPxBase@physx@@@23@UGetKey@?$HashMapBase@PEBVPxBase@physx@@UObservedRefCounter@Cct@2@U?$Hash@PEBVPxBase@physx@@@shdfnd@2@VNonTrackingAllocator@62@@internal@23@VNonTrackingAllocator@23@$00@internal@shdfnd@physx@@AEAA_NPEAI@Z 0000000180030f00 f i CctCharacterControllerManager.obj
 0001:0002ffb0       ?find@?$Array@PEAVObstacleContext@Cct@physx@@VNamedAllocator@shdfnd@3@@shdfnd@physx@@QEAAPEAPEAVObstacleContext@Cct@3@AEBQEAV453@@Z 0000000180030fb0 f i CctCharacterControllerManager.obj
 0001:00030030       ?find@?$HashBase@V?$Pair@QEBVPxBase@physx@@UObservedRefCounter@Cct@2@@shdfnd@physx@@PEBVPxBase@3@U?$Hash@PEBVPxBase@physx@@@23@UGetKey@?$HashMapBase@PEBVPxBase@physx@@UObservedRefCounter@Cct@2@U?$Hash@PEBVPxBase@physx@@@shdfnd@2@VNonTrackingAllocator@62@@internal@23@VNonTrackingAllocator@23@$00@internal@shdfnd@physx@@QEBAPEBV?$Pair@QEBVPxBase@physx@@UObservedRefCounter@Cct@2@@34@AEBQEBVPxBase@4@@Z 0000000180031030 f i CctCharacterControllerManager.obj
 0001:00030130       ?find@?$HashMapBase@PEBVPxBase@physx@@UObservedRefCounter@Cct@2@U?$Hash@PEBVPxBase@physx@@@shdfnd@2@VNonTrackingAllocator@62@@internal@shdfnd@physx@@QEBAPEBV?$Pair@QEBVPxBase@physx@@UObservedRefCounter@Cct@2@@34@AEBQEBVPxBase@4@@Z 0000000180031130 f i CctCharacterControllerManager.obj
 0001:00030160       ?findAndReplaceWithLast@?$Array@PEAVObstacleContext@Cct@physx@@VNamedAllocator@shdfnd@3@@shdfnd@physx@@QEAA_NAEBQEAVObstacleContext@Cct@3@@Z 0000000180031160 f i CctCharacterControllerManager.obj
 0001:000301f0       ?freeListAdd@?$HashBase@PEAVPxShape@physx@@PEAV12@U?$Hash@PEAVPxShape@physx@@@shdfnd@2@UGetKey@?$HashSetBase@PEAVPxShape@physx@@U?$Hash@PEAVPxShape@physx@@@shdfnd@2@VNonTrackingAllocator@42@$0A@@internal@42@VNonTrackingAllocator@42@$0A@@internal@shdfnd@physx@@AEAAXI@Z 00000001800311f0 f i CctCharacterControllerManager.obj
 0001:000302d0       ?freeListAdd@?$HashBase@PEAVPxShape@physx@@PEAV12@U?$Hash@PEAVPxShape@physx@@@shdfnd@2@UGetKey@?$HashSetBase@PEAVPxShape@physx@@U?$Hash@PEAVPxShape@physx@@@shdfnd@2@VNonTrackingAllocator@42@$0A@@internal@42@VNonTrackingAllocator@42@$0A@@internal@shdfnd@physx@@AEAAXII@Z 00000001800312d0 f i CctCharacterControllerManager.obj
 0001:00030400       ?freeListAdd@?$HashBase@V?$Pair@QEBVPxBase@physx@@UObservedRefCounter@Cct@2@@shdfnd@physx@@PEBVPxBase@3@U?$Hash@PEBVPxBase@physx@@@23@UGetKey@?$HashMapBase@PEBVPxBase@physx@@UObservedRefCounter@Cct@2@U?$Hash@PEBVPxBase@physx@@@shdfnd@2@VNonTrackingAllocator@62@@internal@23@VNonTrackingAllocator@23@$00@internal@shdfnd@physx@@AEAAXI@Z 0000000180031400 f i CctCharacterControllerManager.obj
 0001:000304e0       ?freeListAdd@?$HashBase@V?$Pair@QEBVPxBase@physx@@UObservedRefCounter@Cct@2@@shdfnd@physx@@PEBVPxBase@3@U?$Hash@PEBVPxBase@physx@@@23@UGetKey@?$HashMapBase@PEBVPxBase@physx@@UObservedRefCounter@Cct@2@U?$Hash@PEBVPxBase@physx@@@shdfnd@2@VNonTrackingAllocator@62@@internal@23@VNonTrackingAllocator@23@$00@internal@shdfnd@physx@@AEAAXII@Z 00000001800314e0 f i CctCharacterControllerManager.obj
 0001:00030610       ?freeListEmpty@?$HashBase@PEAVPxShape@physx@@PEAV12@U?$Hash@PEAVPxShape@physx@@@shdfnd@2@UGetKey@?$HashSetBase@PEAVPxShape@physx@@U?$Hash@PEAVPxShape@physx@@@shdfnd@2@VNonTrackingAllocator@42@$0A@@internal@42@VNonTrackingAllocator@42@$0A@@internal@shdfnd@physx@@AEBA_NXZ 0000000180031610 f i CctCharacterControllerManager.obj
 0001:00030690       ?freeListEmpty@?$HashBase@V?$Pair@QEBVPxBase@physx@@UObservedRefCounter@Cct@2@@shdfnd@physx@@PEBVPxBase@3@U?$Hash@PEBVPxBase@physx@@@23@UGetKey@?$HashMapBase@PEBVPxBase@physx@@UObservedRefCounter@Cct@2@U?$Hash@PEBVPxBase@physx@@@shdfnd@2@VNonTrackingAllocator@62@@internal@23@VNonTrackingAllocator@23@$00@internal@shdfnd@physx@@AEBA_NXZ 0000000180031690 f i CctCharacterControllerManager.obj
 0001:00030710       ?freeListGetNext@?$HashBase@PEAVPxShape@physx@@PEAV12@U?$Hash@PEAVPxShape@physx@@@shdfnd@2@UGetKey@?$HashSetBase@PEAVPxShape@physx@@U?$Hash@PEAVPxShape@physx@@@shdfnd@2@VNonTrackingAllocator@42@$0A@@internal@42@VNonTrackingAllocator@42@$0A@@internal@shdfnd@physx@@AEAAIXZ 0000000180031710 f i CctCharacterControllerManager.obj
 0001:00030870       ?freeListGetNext@?$HashBase@V?$Pair@QEBVPxBase@physx@@UObservedRefCounter@Cct@2@@shdfnd@physx@@PEBVPxBase@3@U?$Hash@PEBVPxBase@physx@@@23@UGetKey@?$HashMapBase@PEBVPxBase@physx@@UObservedRefCounter@Cct@2@U?$Hash@PEBVPxBase@physx@@@shdfnd@2@VNonTrackingAllocator@62@@internal@23@VNonTrackingAllocator@23@$00@internal@shdfnd@physx@@AEAAIXZ 0000000180031870 f i CctCharacterControllerManager.obj
 0001:000309d0       ?getAllocator@Foundation@shdfnd@physx@@QEAAAEAVPxAllocatorCallback@3@XZ 00000001800319d0 f i CctCharacterControllerManager.obj
 0001:000309f0       ?getAllocatorCallback@Foundation@shdfnd@physx@@UEAAAEAVPxAllocatorCallback@3@XZ 00000001800319f0 f i CctCharacterControllerManager.obj
 0001:00030a10       ?getErrorCallback@Foundation@shdfnd@physx@@UEAAAEAVPxErrorCallback@3@XZ 0000000180031a10 f i CctCharacterControllerManager.obj
 0001:00030a30       ?getErrorLevel@Foundation@shdfnd@physx@@UEBA?AW4Enum@PxErrorCode@3@XZ 0000000180031a30 f i CctCharacterControllerManager.obj
 0001:00030a50       ?getFoundation@shdfnd@physx@@YAAEAVFoundation@12@XZ 0000000180031a50 f i CctCharacterControllerManager.obj
 0001:00030a70       ?getInternalErrorCallback@Foundation@shdfnd@physx@@QEAAAEAVPxErrorCallback@3@XZ 0000000180031a70 f i CctCharacterControllerManager.obj
 0001:00030a90       ?getLines@RenderBuffer@Cm@physx@@UEBAPEBUPxDebugLine@3@XZ 0000000180031a90 f i CctCharacterControllerManager.obj
 0001:00030ac0       ?getName@?$ReflectionAllocator@VBoxController@Cct@physx@@@shdfnd@physx@@CAPEBDXZ 0000000180031ac0 f i CctCharacterControllerManager.obj
 0001:00030b10       ?getName@?$ReflectionAllocator@VCapsuleController@Cct@physx@@@shdfnd@physx@@CAPEBDXZ 0000000180031b10 f i CctCharacterControllerManager.obj
 0001:00030b60       ?getName@?$ReflectionAllocator@VCharacterControllerManager@Cct@physx@@@shdfnd@physx@@CAPEBDXZ 0000000180031b60 f i CctCharacterControllerManager.obj
 0001:00030bb0       ?getName@?$ReflectionAllocator@VMutexImpl@shdfnd@physx@@@shdfnd@physx@@CAPEBDXZ 0000000180031bb0 f i CctCharacterControllerManager.obj
 0001:00030c00       ?getName@?$ReflectionAllocator@VObstacleContext@Cct@physx@@@shdfnd@physx@@CAPEBDXZ 0000000180031c00 f i CctCharacterControllerManager.obj
 0001:00030c50       ?getName@?$ReflectionAllocator@VRenderBuffer@Cm@physx@@@shdfnd@physx@@CAPEBDXZ 0000000180031c50 f i CctCharacterControllerManager.obj
 0001:00030ca0       ?getNamedAllocMap@Foundation@shdfnd@physx@@QEAAAEAV?$HashMap@PEBVNamedAllocator@shdfnd@physx@@PEBDU?$Hash@PEBVNamedAllocator@shdfnd@physx@@@23@VNonTrackingAllocator@23@@23@XZ 0000000180031ca0 f i CctCharacterControllerManager.obj
 0001:00030cc0       ?getNamedAllocMutex@Foundation@shdfnd@physx@@QEAAAEAV?$MutexT@VAllocator@shdfnd@physx@@@23@XZ 0000000180031cc0 f i CctCharacterControllerManager.obj
 0001:00030ce0       ?getNbLines@RenderBuffer@Cm@physx@@UEBAIXZ 0000000180031ce0 f i CctCharacterControllerManager.obj
 0001:00030d10       ?getNbPoints@RenderBuffer@Cm@physx@@UEBAIXZ 0000000180031d10 f i CctCharacterControllerManager.obj
 0001:00030d40       ?getNbTexts@RenderBuffer@Cm@physx@@UEBAIXZ 0000000180031d40 f i CctCharacterControllerManager.obj
 0001:00030d70       ?getNbTriangles@RenderBuffer@Cm@physx@@UEBAIXZ 0000000180031d70 f i CctCharacterControllerManager.obj
 0001:00030da0       ?getPoints@RenderBuffer@Cm@physx@@UEBAPEBUPxDebugPoint@3@XZ 0000000180031da0 f i CctCharacterControllerManager.obj
 0001:00030dd0       ?getReportAllocationNames@Foundation@shdfnd@physx@@UEBA_NXZ 0000000180031dd0 f i CctCharacterControllerManager.obj
 0001:00030df0       ?getTempAllocFreeTable@Foundation@shdfnd@physx@@QEAAAEAV?$Array@PEATTempAllocatorChunk@shdfnd@physx@@VAllocator@23@@23@XZ 0000000180031df0 f i CctCharacterControllerManager.obj
 0001:00030e10       ?getTempAllocMutex@Foundation@shdfnd@physx@@QEAAAEAV?$MutexT@VAllocator@shdfnd@physx@@@23@XZ 0000000180031e10 f i CctCharacterControllerManager.obj
 0001:00030e30       ?getTexts@RenderBuffer@Cm@physx@@UEBAPEBUPxDebugText@3@XZ 0000000180031e30 f i CctCharacterControllerManager.obj
 0001:00030e60       ?getTriangles@RenderBuffer@Cm@physx@@UEBAPEBUPxDebugTriangle@3@XZ 0000000180031e60 f i CctCharacterControllerManager.obj
 0001:00030e90       ?getType@PxControllerDesc@physx@@QEBA?AW4Enum@PxControllerShapeType@2@XZ 0000000180031e90 f i CctCharacterControllerManager.obj
 0001:00030eb0       ?grow@?$Array@PEBXVNamedAllocator@shdfnd@physx@@@shdfnd@physx@@IEAAXI@Z 0000000180031eb0 f i CctCharacterControllerManager.obj
 0001:00030f50       ?grow@?$Array@UPxDebugLine@physx@@VNamedAllocator@shdfnd@2@@shdfnd@physx@@IEAAXI@Z 0000000180031f50 f i CctCharacterControllerManager.obj
 0001:00030ff0       ?grow@?$Array@UPxDebugPoint@physx@@VNamedAllocator@shdfnd@2@@shdfnd@physx@@IEAAXI@Z 0000000180031ff0 f i CctCharacterControllerManager.obj
 0001:00031090       ?grow@?$Array@UPxDebugText@physx@@VNamedAllocator@shdfnd@2@@shdfnd@physx@@IEAAXI@Z 0000000180032090 f i CctCharacterControllerManager.obj
 0001:00031130       ?grow@?$Array@UPxDebugTriangle@physx@@VNamedAllocator@shdfnd@2@@shdfnd@physx@@IEAAXI@Z 0000000180032130 f i CctCharacterControllerManager.obj
 0001:000311d0       ?grow@?$Array@UPxExtendedCapsule@physx@@VNamedAllocator@shdfnd@2@@shdfnd@physx@@IEAAXI@Z 00000001800321d0 f i CctCharacterControllerManager.obj
 0001:00031270       ?grow@?$Array@VPxExtendedBox@physx@@VNamedAllocator@shdfnd@2@@shdfnd@physx@@IEAAXI@Z 0000000180032270 f i CctCharacterControllerManager.obj
 0001:00031310       ?grow@?$HashBase@PEAVPxShape@physx@@PEAV12@U?$Hash@PEAVPxShape@physx@@@shdfnd@2@UGetKey@?$HashSetBase@PEAVPxShape@physx@@U?$Hash@PEAVPxShape@physx@@@shdfnd@2@VNonTrackingAllocator@42@$0A@@internal@42@VNonTrackingAllocator@42@$0A@@internal@shdfnd@physx@@AEAAXXZ 0000000180032310 f i CctCharacterControllerManager.obj
 0001:000313e0       ?grow@?$HashBase@V?$Pair@QEBVPxBase@physx@@UObservedRefCounter@Cct@2@@shdfnd@physx@@PEBVPxBase@3@U?$Hash@PEBVPxBase@physx@@@23@UGetKey@?$HashMapBase@PEBVPxBase@physx@@UObservedRefCounter@Cct@2@U?$Hash@PEBVPxBase@physx@@@shdfnd@2@VNonTrackingAllocator@62@@internal@23@VNonTrackingAllocator@23@$00@internal@shdfnd@physx@@AEAAXXZ 00000001800323e0 f i CctCharacterControllerManager.obj
 0001:000314c0       ?growAndPushBack@?$Array@PEAVController@Cct@physx@@VNamedAllocator@shdfnd@3@@shdfnd@physx@@IEAAAEAPEAVController@Cct@3@AEBQEAV453@@Z 00000001800324c0 f i CctCharacterControllerManager.obj
 0001:000316d0       ?growAndPushBack@?$Array@PEAVObstacleContext@Cct@physx@@VNamedAllocator@shdfnd@3@@shdfnd@physx@@IEAAAEAPEAVObstacleContext@Cct@3@AEBQEAV453@@Z 00000001800326d0 f i CctCharacterControllerManager.obj
 0001:000318e0       ?growAndPushBack@?$Array@UPxDebugLine@physx@@VNamedAllocator@shdfnd@2@@shdfnd@physx@@IEAAAEAUPxDebugLine@3@AEBU43@@Z 00000001800328e0 f i CctCharacterControllerManager.obj
 0001:00031af0       ?growAndPushBack@?$Array@UPxDebugPoint@physx@@VNamedAllocator@shdfnd@2@@shdfnd@physx@@IEAAAEAUPxDebugPoint@3@AEBU43@@Z 0000000180032af0 f i CctCharacterControllerManager.obj
 0001:00031d00       ?growAndPushBack@?$Array@UPxDebugText@physx@@VNamedAllocator@shdfnd@2@@shdfnd@physx@@IEAAAEAUPxDebugText@3@AEBU43@@Z 0000000180032d00 f i CctCharacterControllerManager.obj
 0001:00031f10       ?growAndPushBack@?$Array@UPxDebugTriangle@physx@@VNamedAllocator@shdfnd@2@@shdfnd@physx@@IEAAAEAUPxDebugTriangle@3@AEBU43@@Z 0000000180032f10 f i CctCharacterControllerManager.obj
 0001:00032120       ?hash@?$HashBase@V?$Pair@QEBVPxBase@physx@@UObservedRefCounter@Cct@2@@shdfnd@physx@@PEBVPxBase@3@U?$Hash@PEBVPxBase@physx@@@23@UGetKey@?$HashMapBase@PEBVPxBase@physx@@UObservedRefCounter@Cct@2@U?$Hash@PEBVPxBase@physx@@@shdfnd@2@VNonTrackingAllocator@62@@internal@23@VNonTrackingAllocator@23@$00@internal@shdfnd@physx@@AEBAIAEBQEBVPxBase@4@@Z 0000000180033120 f i CctCharacterControllerManager.obj
 0001:00032160       ?hash@?$HashBase@V?$Pair@QEBVPxBase@physx@@UObservedRefCounter@Cct@2@@shdfnd@physx@@PEBVPxBase@3@U?$Hash@PEBVPxBase@physx@@@23@UGetKey@?$HashMapBase@PEBVPxBase@physx@@UObservedRefCounter@Cct@2@U?$Hash@PEBVPxBase@physx@@@shdfnd@2@VNonTrackingAllocator@62@@internal@23@VNonTrackingAllocator@23@$00@internal@shdfnd@physx@@AEBAIAEBQEBVPxBase@4@I@Z 0000000180033160 f i CctCharacterControllerManager.obj
 0001:000321a0       ?init@?$HashBase@PEAVPxShape@physx@@PEAV12@U?$Hash@PEAVPxShape@physx@@@shdfnd@2@UGetKey@?$HashSetBase@PEAVPxShape@physx@@U?$Hash@PEAVPxShape@physx@@@shdfnd@2@VNonTrackingAllocator@42@$0A@@internal@42@VNonTrackingAllocator@42@$0A@@internal@shdfnd@physx@@AEAAXIM@Z 00000001800331a0 f i CctCharacterControllerManager.obj
 0001:00032280       ?init@?$HashBase@V?$Pair@QEBVPxBase@physx@@UObservedRefCounter@Cct@2@@shdfnd@physx@@PEBVPxBase@3@U?$Hash@PEBVPxBase@physx@@@23@UGetKey@?$HashMapBase@PEBVPxBase@physx@@UObservedRefCounter@Cct@2@U?$Hash@PEBVPxBase@physx@@@shdfnd@2@VNonTrackingAllocator@62@@internal@23@VNonTrackingAllocator@23@$00@internal@shdfnd@physx@@AEAAXIM@Z 0000000180033280 f i CctCharacterControllerManager.obj
 0001:00032360       ?insert@?$HashSetBase@PEAVPxShape@physx@@U?$Hash@PEAVPxShape@physx@@@shdfnd@2@VNonTrackingAllocator@42@$0A@@internal@shdfnd@physx@@QEAA_NAEBQEAVPxShape@4@@Z 0000000180033360 f i CctCharacterControllerManager.obj
 0001:00032420       ?isArrayOfPOD@?$Array@DVNamedAllocator@shdfnd@physx@@@shdfnd@physx@@SA_NXZ 0000000180033420 f i CctCharacterControllerManager.obj
 0001:00032430       ?isArrayOfPOD@?$Array@PEAVController@Cct@physx@@VNamedAllocator@shdfnd@3@@shdfnd@physx@@SA_NXZ 0000000180033430 f i CctCharacterControllerManager.obj
 0001:00032440       ?isArrayOfPOD@?$Array@PEAVObstacleContext@Cct@physx@@VNamedAllocator@shdfnd@3@@shdfnd@physx@@SA_NXZ 0000000180033440 f i CctCharacterControllerManager.obj
 0001:00032450       ?isArrayOfPOD@?$Array@UPxDebugLine@physx@@VNamedAllocator@shdfnd@2@@shdfnd@physx@@SA_NXZ 0000000180033450 f i CctCharacterControllerManager.obj
 0001:00032460       ?isArrayOfPOD@?$Array@UPxDebugPoint@physx@@VNamedAllocator@shdfnd@2@@shdfnd@physx@@SA_NXZ 0000000180033460 f i CctCharacterControllerManager.obj
 0001:00032470       ?isArrayOfPOD@?$Array@UPxDebugText@physx@@VNamedAllocator@shdfnd@2@@shdfnd@physx@@SA_NXZ 0000000180033470 f i CctCharacterControllerManager.obj
 0001:00032480       ?isArrayOfPOD@?$Array@UPxDebugTriangle@physx@@VNamedAllocator@shdfnd@2@@shdfnd@physx@@SA_NXZ 0000000180033480 f i CctCharacterControllerManager.obj
 0001:00032490       ?isInUserMemory@?$Array@DVNamedAllocator@shdfnd@physx@@@shdfnd@physx@@QEBAIXZ 0000000180033490 f i CctCharacterControllerManager.obj
 0001:000324b0       ?isInUserMemory@?$Array@PEAVController@Cct@physx@@VNamedAllocator@shdfnd@3@@shdfnd@physx@@QEBAIXZ 00000001800334b0 f i CctCharacterControllerManager.obj
 0001:000324d0       ?isInUserMemory@?$Array@PEAVObstacleContext@Cct@physx@@VNamedAllocator@shdfnd@3@@shdfnd@physx@@QEBAIXZ 00000001800334d0 f i CctCharacterControllerManager.obj
 0001:000324f0       ?isInUserMemory@?$Array@UPxDebugLine@physx@@VNamedAllocator@shdfnd@2@@shdfnd@physx@@QEBAIXZ 00000001800334f0 f i CctCharacterControllerManager.obj
 0001:00032510       ?isInUserMemory@?$Array@UPxDebugPoint@physx@@VNamedAllocator@shdfnd@2@@shdfnd@physx@@QEBAIXZ 0000000180033510 f i CctCharacterControllerManager.obj
 0001:00032530       ?isInUserMemory@?$Array@UPxDebugText@physx@@VNamedAllocator@shdfnd@2@@shdfnd@physx@@QEBAIXZ 0000000180033530 f i CctCharacterControllerManager.obj
 0001:00032550       ?isInUserMemory@?$Array@UPxDebugTriangle@physx@@VNamedAllocator@shdfnd@2@@shdfnd@physx@@QEBAIXZ 0000000180033550 f i CctCharacterControllerManager.obj
 0001:00032570       ?isPowerOfTwo@shdfnd@physx@@YA_NI@Z 0000000180033570 f i CctCharacterControllerManager.obj
 0001:000325c0       ?isZeroInit@?$Array@PEBXVNamedAllocator@shdfnd@physx@@@shdfnd@physx@@KA_NAEBQEBX@Z 00000001800335c0 f i CctCharacterControllerManager.obj
 0001:00032640       ?isZeroInit@?$Array@UPxExtendedCapsule@physx@@VNamedAllocator@shdfnd@2@@shdfnd@physx@@KA_NAEBUPxExtendedCapsule@3@@Z 0000000180033640 f i CctCharacterControllerManager.obj
 0001:000326c0       ?isZeroInit@?$Array@VPxExtendedBox@physx@@VNamedAllocator@shdfnd@2@@shdfnd@physx@@KA_NAEBVPxExtendedBox@3@@Z 00000001800336c0 f i CctCharacterControllerManager.obj
 0001:00032740       ?memSet@intrinsics@physx@@YAPEAXPEAXHI@Z 0000000180033740 f i CctCharacterControllerManager.obj
 0001:00032780       ?memZero@intrinsics@physx@@YAPEAXPEAXI@Z 0000000180033780 f i CctCharacterControllerManager.obj
 0001:000327b0       ?name@type_info@@QEBAPEBDXZ 00000001800337b0 f i CctCharacterControllerManager.obj
 0001:000327e0       ?nextPowerOfTwo@shdfnd@physx@@YAII@Z 00000001800337e0 f i CctCharacterControllerManager.obj
 0001:00032870       ?pushBack@?$Array@PEAVController@Cct@physx@@VNamedAllocator@shdfnd@3@@shdfnd@physx@@QEAAAEAPEAVController@Cct@3@AEBQEAV453@@Z 0000000180033870 f i CctCharacterControllerManager.obj
 0001:00032960       ?pushBack@?$Array@PEAVObstacleContext@Cct@physx@@VNamedAllocator@shdfnd@3@@shdfnd@physx@@QEAAAEAPEAVObstacleContext@Cct@3@AEBQEAV453@@Z 0000000180033960 f i CctCharacterControllerManager.obj
 0001:00032a50       ?pushBack@?$Array@UPxDebugLine@physx@@VNamedAllocator@shdfnd@2@@shdfnd@physx@@QEAAAEAUPxDebugLine@3@AEBU43@@Z 0000000180033a50 f i CctCharacterControllerManager.obj
 0001:00032b40       ?pushBack@?$Array@UPxDebugPoint@physx@@VNamedAllocator@shdfnd@2@@shdfnd@physx@@QEAAAEAUPxDebugPoint@3@AEBU43@@Z 0000000180033b40 f i CctCharacterControllerManager.obj
 0001:00032c30       ?pushBack@?$Array@UPxDebugText@physx@@VNamedAllocator@shdfnd@2@@shdfnd@physx@@QEAAAEAUPxDebugText@3@AEBU43@@Z 0000000180033c30 f i CctCharacterControllerManager.obj
 0001:00032d20       ?pushBack@?$Array@UPxDebugTriangle@physx@@VNamedAllocator@shdfnd@2@@shdfnd@physx@@QEAAAEAUPxDebugTriangle@3@AEBU43@@Z 0000000180033d20 f i CctCharacterControllerManager.obj
 0001:00032e10       ?recreate@?$Array@PEBXVNamedAllocator@shdfnd@physx@@@shdfnd@physx@@IEAAXI@Z 0000000180033e10 f i CctCharacterControllerManager.obj
 0001:00032f60       ?recreate@?$Array@UPxDebugLine@physx@@VNamedAllocator@shdfnd@2@@shdfnd@physx@@IEAAXI@Z 0000000180033f60 f i CctCharacterControllerManager.obj
 0001:000330c0       ?recreate@?$Array@UPxDebugPoint@physx@@VNamedAllocator@shdfnd@2@@shdfnd@physx@@IEAAXI@Z 00000001800340c0 f i CctCharacterControllerManager.obj
 0001:00033220       ?recreate@?$Array@UPxDebugText@physx@@VNamedAllocator@shdfnd@2@@shdfnd@physx@@IEAAXI@Z 0000000180034220 f i CctCharacterControllerManager.obj
 0001:00033380       ?recreate@?$Array@UPxDebugTriangle@physx@@VNamedAllocator@shdfnd@2@@shdfnd@physx@@IEAAXI@Z 0000000180034380 f i CctCharacterControllerManager.obj
 0001:000334e0       ?recreate@?$Array@UPxExtendedCapsule@physx@@VNamedAllocator@shdfnd@2@@shdfnd@physx@@IEAAXI@Z 00000001800344e0 f i CctCharacterControllerManager.obj
 0001:00033640       ?recreate@?$Array@VPxExtendedBox@physx@@VNamedAllocator@shdfnd@2@@shdfnd@physx@@IEAAXI@Z 0000000180034640 f i CctCharacterControllerManager.obj
 0001:000337a0       ?replaceWithLast@?$Array@PEAVController@Cct@physx@@VNamedAllocator@shdfnd@3@@shdfnd@physx@@QEAAXI@Z 00000001800347a0 f i CctCharacterControllerManager.obj
 0001:00033880       ?replaceWithLast@?$Array@PEAVObstacleContext@Cct@physx@@VNamedAllocator@shdfnd@3@@shdfnd@physx@@QEAAXI@Z 0000000180034880 f i CctCharacterControllerManager.obj
 0001:00033960       ?replaceWithLast@?$HashBase@PEAVPxShape@physx@@PEAV12@U?$Hash@PEAVPxShape@physx@@@shdfnd@2@UGetKey@?$HashSetBase@PEAVPxShape@physx@@U?$Hash@PEAVPxShape@physx@@@shdfnd@2@VNonTrackingAllocator@42@$0A@@internal@42@VNonTrackingAllocator@42@$0A@@internal@shdfnd@physx@@AEAAXI@Z 0000000180034960 f i CctCharacterControllerManager.obj
 0001:00033b20       ?replaceWithLast@?$HashBase@V?$Pair@QEBVPxBase@physx@@UObservedRefCounter@Cct@2@@shdfnd@physx@@PEBVPxBase@3@U?$Hash@PEBVPxBase@physx@@@23@UGetKey@?$HashMapBase@PEBVPxBase@physx@@UObservedRefCounter@Cct@2@U?$Hash@PEBVPxBase@physx@@@shdfnd@2@VNonTrackingAllocator@62@@internal@23@VNonTrackingAllocator@23@$00@internal@shdfnd@physx@@AEAAXI@Z 0000000180034b20 f i CctCharacterControllerManager.obj
 0001:00033ce0       ?reserve@?$Array@PEBXVNamedAllocator@shdfnd@physx@@@shdfnd@physx@@QEAAXI@Z 0000000180034ce0 f i CctCharacterControllerManager.obj
 0001:00033d20       ?reserve@?$Array@UPxDebugLine@physx@@VNamedAllocator@shdfnd@2@@shdfnd@physx@@QEAAXI@Z 0000000180034d20 f i CctCharacterControllerManager.obj
 0001:00033d60       ?reserve@?$Array@UPxDebugPoint@physx@@VNamedAllocator@shdfnd@2@@shdfnd@physx@@QEAAXI@Z 0000000180034d60 f i CctCharacterControllerManager.obj
 0001:00033da0       ?reserve@?$Array@UPxDebugText@physx@@VNamedAllocator@shdfnd@2@@shdfnd@physx@@QEAAXI@Z 0000000180034da0 f i CctCharacterControllerManager.obj
 0001:00033de0       ?reserve@?$Array@UPxDebugTriangle@physx@@VNamedAllocator@shdfnd@2@@shdfnd@physx@@QEAAXI@Z 0000000180034de0 f i CctCharacterControllerManager.obj
 0001:00033e20       ?reserve@?$Array@UPxExtendedCapsule@physx@@VNamedAllocator@shdfnd@2@@shdfnd@physx@@QEAAXI@Z 0000000180034e20 f i CctCharacterControllerManager.obj
 0001:00033e60       ?reserve@?$Array@VPxExtendedBox@physx@@VNamedAllocator@shdfnd@2@@shdfnd@physx@@QEAAXI@Z 0000000180034e60 f i CctCharacterControllerManager.obj
 0001:00033ea0       ?reserve@?$HashBase@PEAVPxShape@physx@@PEAV12@U?$Hash@PEAVPxShape@physx@@@shdfnd@2@UGetKey@?$HashSetBase@PEAVPxShape@physx@@U?$Hash@PEAVPxShape@physx@@@shdfnd@2@VNonTrackingAllocator@42@$0A@@internal@42@VNonTrackingAllocator@42@$0A@@internal@shdfnd@physx@@QEAAXI@Z 0000000180034ea0 f i CctCharacterControllerManager.obj
 0001:00033ee0       ?reserve@?$HashBase@V?$Pair@QEBVPxBase@physx@@UObservedRefCounter@Cct@2@@shdfnd@physx@@PEBVPxBase@3@U?$Hash@PEBVPxBase@physx@@@23@UGetKey@?$HashMapBase@PEBVPxBase@physx@@UObservedRefCounter@Cct@2@U?$Hash@PEBVPxBase@physx@@@shdfnd@2@VNonTrackingAllocator@62@@internal@23@VNonTrackingAllocator@23@$00@internal@shdfnd@physx@@QEAAXI@Z 0000000180034ee0 f i CctCharacterControllerManager.obj
 0001:00033f20       ?reserveInternal@?$HashBase@PEAVPxShape@physx@@PEAV12@U?$Hash@PEAVPxShape@physx@@@shdfnd@2@UGetKey@?$HashSetBase@PEAVPxShape@physx@@U?$Hash@PEAVPxShape@physx@@@shdfnd@2@VNonTrackingAllocator@42@$0A@@internal@42@VNonTrackingAllocator@42@$0A@@internal@shdfnd@physx@@AEAAXI@Z 0000000180034f20 f i CctCharacterControllerManager.obj
 0001:000346d0       ?reserveInternal@?$HashBase@V?$Pair@QEBVPxBase@physx@@UObservedRefCounter@Cct@2@@shdfnd@physx@@PEBVPxBase@3@U?$Hash@PEBVPxBase@physx@@@23@UGetKey@?$HashMapBase@PEBVPxBase@physx@@UObservedRefCounter@Cct@2@U?$Hash@PEBVPxBase@physx@@@shdfnd@2@VNonTrackingAllocator@62@@internal@23@VNonTrackingAllocator@23@$00@internal@shdfnd@physx@@AEAAXI@Z 00000001800356d0 f i CctCharacterControllerManager.obj
 0001:00034dd0       ?reset@?$Array@PEBXVNamedAllocator@shdfnd@physx@@@shdfnd@physx@@QEAAXXZ 0000000180035dd0 f i CctCharacterControllerManager.obj
 0001:00034e10       ?reset@?$Array@UPxExtendedCapsule@physx@@VNamedAllocator@shdfnd@2@@shdfnd@physx@@QEAAXXZ 0000000180035e10 f i CctCharacterControllerManager.obj
 0001:00034e70       ?reset@?$Array@VPxExtendedBox@physx@@VNamedAllocator@shdfnd@2@@shdfnd@physx@@QEAAXXZ 0000000180035e70 f i CctCharacterControllerManager.obj
 0001:00034ec0       ?resize@?$Array@PEBXVNamedAllocator@shdfnd@physx@@@shdfnd@physx@@QEAAXIAEBQEBX@Z 0000000180035ec0 f i CctCharacterControllerManager.obj
 0001:00034f80       ?resize@?$Array@UPxExtendedCapsule@physx@@VNamedAllocator@shdfnd@2@@shdfnd@physx@@QEAAXIAEBUPxExtendedCapsule@3@@Z 0000000180035f80 f i CctCharacterControllerManager.obj
 0001:00035040       ?resize@?$Array@VPxExtendedBox@physx@@VNamedAllocator@shdfnd@2@@shdfnd@physx@@QEAAXIAEBVPxExtendedBox@3@@Z 0000000180036040 f i CctCharacterControllerManager.obj
 0001:00035100       ?setCctManager@?$TouchedObject@VPxRigidActor@physx@@@Cct@physx@@QEAAXPEAVCharacterControllerManager@23@@Z 0000000180036100 f i CctCharacterControllerManager.obj
 0001:00035120       ?setCctManager@?$TouchedObject@VPxShape@physx@@@Cct@physx@@QEAAXPEAVCharacterControllerManager@23@@Z 0000000180036120 f i CctCharacterControllerManager.obj
 0001:00035140       ?setCctManager@Controller@Cct@physx@@QEAAXPEAVCharacterControllerManager@23@@Z 0000000180036140 f i CctCharacterControllerManager.obj
 0001:00035190       ?setCctManager@SweepTest@Cct@physx@@QEAAXPEAVCharacterControllerManager@23@@Z 0000000180036190 f i CctCharacterControllerManager.obj
 0001:00035200       ?setErrorLevel@Foundation@shdfnd@physx@@UEAAXW4Enum@PxErrorCode@3@@Z 0000000180036200 f i CctCharacterControllerManager.obj
 0001:00035220       ?setReportAllocationNames@Foundation@shdfnd@physx@@UEAAX_N@Z 0000000180036220 f i CctCharacterControllerManager.obj
 0001:00035240       ?shift@RenderBuffer@Cm@physx@@QEAAXAEBVPxVec3@3@@Z 0000000180036240 f i CctCharacterControllerManager.obj
 0001:00035480       ?shrink@?$Array@PEBXVNamedAllocator@shdfnd@physx@@@shdfnd@physx@@QEAAXXZ 0000000180036480 f i CctCharacterControllerManager.obj
 0001:000354b0       ?shrink@?$Array@UPxExtendedCapsule@physx@@VNamedAllocator@shdfnd@2@@shdfnd@physx@@QEAAXXZ 00000001800364b0 f i CctCharacterControllerManager.obj
 0001:000354e0       ?shrink@?$Array@VPxExtendedBox@physx@@VNamedAllocator@shdfnd@2@@shdfnd@physx@@QEAAXXZ 00000001800364e0 f i CctCharacterControllerManager.obj
 0001:00035510       ?size@?$Array@PEAVController@Cct@physx@@VNamedAllocator@shdfnd@3@@shdfnd@physx@@QEBAIXZ 0000000180036510 f i CctCharacterControllerManager.obj
 0001:00035530       ?size@?$Array@PEAVObstacleContext@Cct@physx@@VNamedAllocator@shdfnd@3@@shdfnd@physx@@QEBAIXZ 0000000180036530 f i CctCharacterControllerManager.obj
 0001:00035550       ?size@?$Array@UPxDebugLine@physx@@VNamedAllocator@shdfnd@2@@shdfnd@physx@@QEBAIXZ 0000000180036550 f i CctCharacterControllerManager.obj
 0001:00035570       ?size@?$Array@UPxDebugPoint@physx@@VNamedAllocator@shdfnd@2@@shdfnd@physx@@QEBAIXZ 0000000180036570 f i CctCharacterControllerManager.obj
 0001:00035590       ?size@?$Array@UPxDebugText@physx@@VNamedAllocator@shdfnd@2@@shdfnd@physx@@QEBAIXZ 0000000180036590 f i CctCharacterControllerManager.obj
 0001:000355b0       ?size@?$Array@UPxDebugTriangle@physx@@VNamedAllocator@shdfnd@2@@shdfnd@physx@@QEBAIXZ 00000001800365b0 f i CctCharacterControllerManager.obj
 0001:000355d0       ??0Controller@Cct@physx@@QEAA@AEBVPxControllerDesc@2@PEAVPxScene@2@@Z 00000001800365d0 f   CctController.obj
 0001:00035900       ??1Controller@Cct@physx@@UEAA@XZ 0000000180036900 f   CctController.obj
 0001:00035990       ?releaseInternal@Controller@Cct@physx@@QEAAXXZ 0000000180036990 f   CctController.obj
 0001:000359d0       ?getInternalState@Controller@Cct@physx@@QEBAXAEAUPxControllerState@3@@Z 00000001800369d0 f   CctController.obj
 0001:00035b50       ?getInternalStats@Controller@Cct@physx@@QEBAXAEAUPxControllerStats@3@@Z 0000000180036b50 f   CctController.obj
 0001:00035bc0       ?onOriginShift@Controller@Cct@physx@@QEAAXAEBVPxVec3@3@@Z 0000000180036bc0 f   CctController.obj
 0001:00035c80       ?onRelease@Controller@Cct@physx@@QEAAXAEBVPxBase@3@@Z 0000000180036c80 f   CctController.obj
 0001:00035cb0       ?setUpDirectionInternal@Controller@Cct@physx@@IEAAXAEBVPxVec3@3@@Z 0000000180036cb0 f   CctController.obj
 0001:00035d80       ?getKineShape@Controller@Cct@physx@@IEBAPEAVPxShape@3@XZ 0000000180036d80 f   CctController.obj
 0001:00035e30       ?createProxyActor@Controller@Cct@physx@@IEAA_NAEAVPxPhysics@3@AEBVPxGeometry@3@AEBVPxMaterial@3@@Z 0000000180036e30 f   CctController.obj
 0001:00036010       ?setPos@Controller@Cct@physx@@IEAA_NAEBUPxExtendedVec3@3@@Z 0000000180037010 f   CctController.obj
 0001:000363a0       ??0?$PxFlags@W4Enum@PxShapeFlag@physx@@E@physx@@QEAA@W4Enum@PxShapeFlag@1@@Z 00000001800373a0 f i CctController.obj
 0001:000363d0       ??8PxVec3@physx@@QEBA_NAEBV01@@Z 00000001800373d0 f i CctController.obj
 0001:00036450       ??B?$PxFlags@W4Enum@PxControllerCollisionFlag@physx@@E@physx@@QEBAIXZ 0000000180037450 f i CctController.obj
 0001:00036470       ??U?$PxFlags@W4Enum@PxShapeFlag@physx@@E@physx@@QEBA?AV01@W4Enum@PxShapeFlag@1@@Z 0000000180037470 f i CctController.obj
 0001:000364d0       ??Uphysx@@YA?AV?$PxFlags@W4Enum@PxShapeFlag@physx@@E@0@W4Enum@PxShapeFlag@0@0@Z 00000001800374d0 f i CctController.obj
 0001:00036530       ??_5?$PxFlags@W4Enum@PxShapeFlag@physx@@E@physx@@QEAAAEAV01@W4Enum@PxShapeFlag@1@@Z 0000000180037530 f i CctController.obj
 0001:00036560       ??_EController@Cct@physx@@UEAAPEAXI@Z 0000000180037560 f i CctController.obj
 0001:00036560       ??_GController@Cct@physx@@UEAAPEAXI@Z 0000000180037560 f i CctController.obj
 0001:000365d0       ?createShape@PxPhysics@physx@@QEAAPEAVPxShape@2@AEBVPxGeometry@2@AEBVPxMaterial@2@_NV?$PxFlags@W4Enum@PxShapeFlag@physx@@E@2@@Z 00000001800375d0 f i CctController.obj
 0001:00036670       ?isNormalized@PxVec3@physx@@QEBA_NXZ 0000000180037670 f i CctController.obj
 0001:000366f0       ??0HandleManager@Cct@physx@@QEAA@XZ 00000001800376f0 f   CctObstacleContext.obj
 0001:000368d0       ??1HandleManager@Cct@physx@@QEAA@XZ 00000001800378d0 f   CctObstacleContext.obj
 0001:00036900       ?Add@HandleManager@Cct@physx@@QEAAIPEAX@Z 0000000180037900 f   CctObstacleContext.obj
 0001:00036e20       ?Remove@HandleManager@Cct@physx@@QEAAXI@Z 0000000180037e20 f   CctObstacleContext.obj
 0001:00036fb0       ?GetObject@HandleManager@Cct@physx@@QEBAPEAXI@Z 0000000180037fb0 f   CctObstacleContext.obj
 0001:00037050       ?UpdateObject@HandleManager@Cct@physx@@QEAA_NIPEAX@Z 0000000180038050 f   CctObstacleContext.obj
 0001:00037100       ?SetupLists@HandleManager@Cct@physx@@AEAA_NPEAPEAXPEAG11@Z 0000000180038100 f   CctObstacleContext.obj
 0001:00037210       ??0ObstacleContext@Cct@physx@@QEAA@AEAVCharacterControllerManager@12@@Z 0000000180038210 f   CctObstacleContext.obj
 0001:000372c0       ??1ObstacleContext@Cct@physx@@UEAA@XZ 00000001800382c0 f   CctObstacleContext.obj
 0001:00037320       ?release@ObstacleContext@Cct@physx@@UEAAXXZ 0000000180038320 f   CctObstacleContext.obj
 0001:00037350       ?getControllerManager@ObstacleContext@Cct@physx@@UEBAAEAVPxControllerManager@3@XZ 0000000180038350 f   CctObstacleContext.obj
 0001:00037370       ?addObstacle@ObstacleContext@Cct@physx@@UEAAIAEBVPxObstacle@3@@Z 0000000180038370 f   CctObstacleContext.obj
 0001:000374e0       ?removeObstacle@ObstacleContext@Cct@physx@@UEAA_NI@Z 00000001800384e0 f   CctObstacleContext.obj
 0001:00037710       ?updateObstacle@ObstacleContext@Cct@physx@@UEAA_NIAEBVPxObstacle@3@@Z 0000000180038710 f   CctObstacleContext.obj
 0001:00037980       ?getNbObstacles@ObstacleContext@Cct@physx@@UEBAIXZ 0000000180038980 f   CctObstacleContext.obj
 0001:000379c0       ?getObstacle@ObstacleContext@Cct@physx@@UEBAPEBVPxObstacle@3@I@Z 00000001800389c0 f   CctObstacleContext.obj
 0001:00037a60       ?getObstacleByHandle@ObstacleContext@Cct@physx@@UEBAPEBVPxObstacle@3@I@Z 0000000180038a60 f   CctObstacleContext.obj
 0001:00037c30       ?raycastSingle@ObstacleContext@Cct@physx@@QEBAPEBVPxObstacle@3@AEAUPxRaycastHit@3@AEBVPxVec3@3@1MAEAI@Z 0000000180038c30 f   CctObstacleContext.obj
 0001:00038100       ?raycastSingle@ObstacleContext@Cct@physx@@QEBAPEBVPxObstacle@3@AEAUPxRaycastHit@3@AEBIAEBVPxVec3@3@2M@Z 0000000180039100 f   CctObstacleContext.obj
 0001:00038490       ?onOriginShift@ObstacleContext@Cct@physx@@QEAAXAEBVPxVec3@3@@Z 0000000180039490 f   CctObstacleContext.obj
 0001:00039030       ??$PX_UNUSED@_N@@YAXAEB_N@Z 000000018003a030 f i CctObstacleContext.obj
 0001:00039040       ??0?$Array@UInternalBoxObstacle@ObstacleContext@Cct@physx@@VNamedAllocator@shdfnd@4@@shdfnd@physx@@QEAA@AEBVNamedAllocator@12@@Z 000000018003a040 f i CctObstacleContext.obj
 0001:000390a0       ??0?$Array@UInternalCapsuleObstacle@ObstacleContext@Cct@physx@@VNamedAllocator@shdfnd@4@@shdfnd@physx@@QEAA@AEBVNamedAllocator@12@@Z 000000018003a0a0 f i CctObstacleContext.obj
 0001:00039100       ??0InternalBoxObstacle@ObstacleContext@Cct@physx@@QEAA@AEBU0123@@Z 000000018003a100 f i CctObstacleContext.obj
 0001:00039150       ??0InternalBoxObstacle@ObstacleContext@Cct@physx@@QEAA@IAEBVPxBoxObstacle@3@@Z 000000018003a150 f i CctObstacleContext.obj
 0001:000391a0       ??0InternalCapsuleObstacle@ObstacleContext@Cct@physx@@QEAA@AEBU0123@@Z 000000018003a1a0 f i CctObstacleContext.obj
 0001:000391f0       ??0InternalCapsuleObstacle@ObstacleContext@Cct@physx@@QEAA@IAEBVPxCapsuleObstacle@3@@Z 000000018003a1f0 f i CctObstacleContext.obj
 0001:00039240       ??0PxBoxObstacle@physx@@QEAA@AEBV01@@Z 000000018003a240 f i CctObstacleContext.obj
 0001:000392a0       ??0PxCapsuleObstacle@physx@@QEAA@AEBV01@@Z 000000018003a2a0 f i CctObstacleContext.obj
 0001:00039310       ??0PxObstacle@physx@@QEAA@AEBV01@@Z 000000018003a310 f i CctObstacleContext.obj
 0001:000393a0       ??0PxObstacleContext@physx@@QEAA@XZ 000000018003a3a0 f i CctObstacleContext.obj
 0001:000393c0       ??1?$Array@UInternalBoxObstacle@ObstacleContext@Cct@physx@@VNamedAllocator@shdfnd@4@@shdfnd@physx@@QEAA@XZ 000000018003a3c0 f i CctObstacleContext.obj
 0001:00039450       ??1?$Array@UInternalCapsuleObstacle@ObstacleContext@Cct@physx@@VNamedAllocator@shdfnd@4@@shdfnd@physx@@QEAA@XZ 000000018003a450 f i CctObstacleContext.obj
 0001:000394e0       ??1PxObstacleContext@physx@@UEAA@XZ 000000018003a4e0 f i CctObstacleContext.obj
 0001:00039500       ??4InternalBoxObstacle@ObstacleContext@Cct@physx@@QEAAAEAU0123@AEBU0123@@Z 000000018003a500 f i CctObstacleContext.obj
 0001:00039550       ??4InternalCapsuleObstacle@ObstacleContext@Cct@physx@@QEAAAEAU0123@AEBU0123@@Z 000000018003a550 f i CctObstacleContext.obj
 0001:000395a0       ??4PxBoxObstacle@physx@@QEAAAEAV01@AEBV01@@Z 000000018003a5a0 f i CctObstacleContext.obj
 0001:00039600       ??4PxCapsuleObstacle@physx@@QEAAAEAV01@AEBV01@@Z 000000018003a600 f i CctObstacleContext.obj
 0001:00039670       ??4PxObstacle@physx@@QEAAAEAV01@AEBV01@@Z 000000018003a670 f i CctObstacleContext.obj
 0001:00039700       ??A?$Array@UInternalBoxObstacle@ObstacleContext@Cct@physx@@VNamedAllocator@shdfnd@4@@shdfnd@physx@@QEAAAEAUInternalBoxObstacle@ObstacleContext@Cct@2@I@Z 000000018003a700 f i CctObstacleContext.obj
 0001:000397a0       ??A?$Array@UInternalCapsuleObstacle@ObstacleContext@Cct@physx@@VNamedAllocator@shdfnd@4@@shdfnd@physx@@QEAAAEAUInternalCapsuleObstacle@ObstacleContext@Cct@2@I@Z 000000018003a7a0 f i CctObstacleContext.obj
 0001:00039840       ??_GObstacleContext@Cct@physx@@UEAAPEAXI@Z 000000018003a840 f i CctObstacleContext.obj
 0001:00039840       ??_EObstacleContext@Cct@physx@@UEAAPEAXI@Z 000000018003a840 f i CctObstacleContext.obj
 0001:000398b0       ??_GPxObstacleContext@physx@@UEAAPEAXI@Z 000000018003a8b0 f i CctObstacleContext.obj
 0001:000398b0       ??_EPxObstacleContext@physx@@UEAAPEAXI@Z 000000018003a8b0 f i CctObstacleContext.obj
 0001:00039900       ?PxMemCopy@physx@@YAPEAXPEIAXPEIBXI@Z 000000018003a900 f i CctObstacleContext.obj
 0001:00039940       ?PxMemSet@physx@@YAPEAXPEAXHI@Z 000000018003a940 f i CctObstacleContext.obj
 0001:00039980       ?PxMemZero@physx@@YAPEAXPEAXI@Z 000000018003a980 f i CctObstacleContext.obj
 0001:000399b0       ?allocate@?$Array@UInternalBoxObstacle@ObstacleContext@Cct@physx@@VNamedAllocator@shdfnd@4@@shdfnd@physx@@IEAAPEAUInternalBoxObstacle@ObstacleContext@Cct@3@I@Z 000000018003a9b0 f i CctObstacleContext.obj
 0001:00039a60       ?allocate@?$Array@UInternalCapsuleObstacle@ObstacleContext@Cct@physx@@VNamedAllocator@shdfnd@4@@shdfnd@physx@@IEAAPEAUInternalCapsuleObstacle@ObstacleContext@Cct@3@I@Z 000000018003aa60 f i CctObstacleContext.obj
 0001:00039b10       ?capacity@?$Array@UInternalBoxObstacle@ObstacleContext@Cct@physx@@VNamedAllocator@shdfnd@4@@shdfnd@physx@@QEBAIXZ 000000018003ab10 f i CctObstacleContext.obj
 0001:00039b30       ?capacity@?$Array@UInternalCapsuleObstacle@ObstacleContext@Cct@physx@@VNamedAllocator@shdfnd@4@@shdfnd@physx@@QEBAIXZ 000000018003ab30 f i CctObstacleContext.obj
 0001:00039b50       ?capacityIncrement@?$Array@UInternalBoxObstacle@ObstacleContext@Cct@physx@@VNamedAllocator@shdfnd@4@@shdfnd@physx@@IEBAIXZ 000000018003ab50 f i CctObstacleContext.obj
 0001:00039ba0       ?capacityIncrement@?$Array@UInternalCapsuleObstacle@ObstacleContext@Cct@physx@@VNamedAllocator@shdfnd@4@@shdfnd@physx@@IEBAIXZ 000000018003aba0 f i CctObstacleContext.obj
 0001:00039bf0       ?copy@?$Array@UInternalBoxObstacle@ObstacleContext@Cct@physx@@VNamedAllocator@shdfnd@4@@shdfnd@physx@@KAXPEAUInternalBoxObstacle@ObstacleContext@Cct@3@0PEBU4563@@Z 000000018003abf0 f i CctObstacleContext.obj
 0001:00039d00       ?copy@?$Array@UInternalCapsuleObstacle@ObstacleContext@Cct@physx@@VNamedAllocator@shdfnd@4@@shdfnd@physx@@KAXPEAUInternalCapsuleObstacle@ObstacleContext@Cct@3@0PEBU4563@@Z 000000018003ad00 f i CctObstacleContext.obj
 0001:00039e10       ?deallocate@?$Array@UInternalBoxObstacle@ObstacleContext@Cct@physx@@VNamedAllocator@shdfnd@4@@shdfnd@physx@@IEAAXPEAX@Z 000000018003ae10 f i CctObstacleContext.obj
 0001:00039e40       ?deallocate@?$Array@UInternalCapsuleObstacle@ObstacleContext@Cct@physx@@VNamedAllocator@shdfnd@4@@shdfnd@physx@@IEAAXPEAX@Z 000000018003ae40 f i CctObstacleContext.obj
 0001:00039e70       ?destroy@?$Array@UInternalBoxObstacle@ObstacleContext@Cct@physx@@VNamedAllocator@shdfnd@4@@shdfnd@physx@@KAXPEAUInternalBoxObstacle@ObstacleContext@Cct@3@0@Z 000000018003ae70 f i CctObstacleContext.obj
 0001:00039ec0       ?destroy@?$Array@UInternalCapsuleObstacle@ObstacleContext@Cct@physx@@VNamedAllocator@shdfnd@4@@shdfnd@physx@@KAXPEAUInternalCapsuleObstacle@ObstacleContext@Cct@3@0@Z 000000018003aec0 f i CctObstacleContext.obj
 0001:00039f10       ?getType@PxObstacle@physx@@QEBA?AW4Enum@PxGeometryType@2@XZ 000000018003af10 f i CctObstacleContext.obj
 0001:00039f20       ?growAndPushBack@?$Array@UInternalBoxObstacle@ObstacleContext@Cct@physx@@VNamedAllocator@shdfnd@4@@shdfnd@physx@@IEAAAEAUInternalBoxObstacle@ObstacleContext@Cct@3@AEBU4563@@Z 000000018003af20 f i CctObstacleContext.obj
 0001:0003a130       ?growAndPushBack@?$Array@UInternalCapsuleObstacle@ObstacleContext@Cct@physx@@VNamedAllocator@shdfnd@4@@shdfnd@physx@@IEAAAEAUInternalCapsuleObstacle@ObstacleContext@Cct@3@AEBU4563@@Z 000000018003b130 f i CctObstacleContext.obj
 0001:0003a340       ?isArrayOfPOD@?$Array@UInternalBoxObstacle@ObstacleContext@Cct@physx@@VNamedAllocator@shdfnd@4@@shdfnd@physx@@SA_NXZ 000000018003b340 f i CctObstacleContext.obj
 0001:0003a350       ?isArrayOfPOD@?$Array@UInternalCapsuleObstacle@ObstacleContext@Cct@physx@@VNamedAllocator@shdfnd@4@@shdfnd@physx@@SA_NXZ 000000018003b350 f i CctObstacleContext.obj
 0001:0003a360       ?isInUserMemory@?$Array@UInternalBoxObstacle@ObstacleContext@Cct@physx@@VNamedAllocator@shdfnd@4@@shdfnd@physx@@QEBAIXZ 000000018003b360 f i CctObstacleContext.obj
 0001:0003a380       ?isInUserMemory@?$Array@UInternalCapsuleObstacle@ObstacleContext@Cct@physx@@VNamedAllocator@shdfnd@4@@shdfnd@physx@@QEBAIXZ 000000018003b380 f i CctObstacleContext.obj
 0001:0003a3a0       ?pushBack@?$Array@UInternalBoxObstacle@ObstacleContext@Cct@physx@@VNamedAllocator@shdfnd@4@@shdfnd@physx@@QEAAAEAUInternalBoxObstacle@ObstacleContext@Cct@3@AEBU4563@@Z 000000018003b3a0 f i CctObstacleContext.obj
 0001:0003a490       ?pushBack@?$Array@UInternalCapsuleObstacle@ObstacleContext@Cct@physx@@VNamedAllocator@shdfnd@4@@shdfnd@physx@@QEAAAEAUInternalCapsuleObstacle@ObstacleContext@Cct@3@AEBU4563@@Z 000000018003b490 f i CctObstacleContext.obj
 0001:0003a580       ?replaceWithLast@?$Array@UInternalBoxObstacle@ObstacleContext@Cct@physx@@VNamedAllocator@shdfnd@4@@shdfnd@physx@@QEAAXI@Z 000000018003b580 f i CctObstacleContext.obj
 0001:0003a660       ?replaceWithLast@?$Array@UInternalCapsuleObstacle@ObstacleContext@Cct@physx@@VNamedAllocator@shdfnd@4@@shdfnd@physx@@QEAAXI@Z 000000018003b660 f i CctObstacleContext.obj
 0001:0003a740       ?to16@shdfnd@physx@@YAGI@Z 000000018003b740 f i CctObstacleContext.obj
 0001:0003a7c0       ??0SweptBox@Cct@physx@@QEAA@XZ 000000018003b7c0 f   CctSweptBox.obj
 0001:0003a810       ??1SweptBox@Cct@physx@@UEAA@XZ 000000018003b810 f   CctSweptBox.obj
 0001:0003a840       ?computeTemporalBox@SweptBox@Cct@physx@@UEBAXAEBVSweepTest@23@AEAUPxExtendedBounds3@3@AEBUPxExtendedVec3@3@AEBVPxVec3@3@@Z 000000018003b840 f   CctSweptBox.obj
 0001:0003a940       ??$PxMax@M@physx@@YAMMM@Z  000000018003b940 f i CctSweptBox.obj
 0001:0003a970       ??_ESweptBox@Cct@physx@@UEAAPEAXI@Z 000000018003b970 f i CctSweptBox.obj
 0001:0003a970       ??_GSweptBox@Cct@physx@@UEAAPEAXI@Z 000000018003b970 f i CctSweptBox.obj
 0001:0003a9c0       ??0SweptCapsule@Cct@physx@@QEAA@XZ 000000018003b9c0 f   CctSweptCapsule.obj
 0001:0003aa00       ??1SweptCapsule@Cct@physx@@UEAA@XZ 000000018003ba00 f   CctSweptCapsule.obj
 0001:0003aa30       ?computeTemporalBox@SweptCapsule@Cct@physx@@UEBAXAEBVSweepTest@23@AEAUPxExtendedBounds3@3@AEBUPxExtendedVec3@3@AEBVPxVec3@3@@Z 000000018003ba30 f   CctSweptCapsule.obj
 0001:0003aaf0       ??_ESweptCapsule@Cct@physx@@UEAAPEAXI@Z 000000018003baf0 f i CctSweptCapsule.obj
 0001:0003aaf0       ??_GSweptCapsule@Cct@physx@@UEAAPEAXI@Z 000000018003baf0 f i CctSweptCapsule.obj
 0001:0003ab40       ??0SweptVolume@Cct@physx@@QEAA@XZ 000000018003bb40 f   CctSweptVolume.obj
 0001:0003ab90       ??1SweptVolume@Cct@physx@@UEAA@XZ 000000018003bb90 f   CctSweptVolume.obj
 0001:0003abb0       ?computeTemporalBox@Cct@physx@@YAXAEAUPxExtendedBounds3@2@MMMMAEBVPxVec3@2@AEBUPxExtendedVec3@2@1@Z 000000018003bbb0 f   CctSweptVolume.obj
 0001:0003ae60       ??_ESweptVolume@Cct@physx@@UEAAPEAXI@Z 000000018003be60 f i CctSweptVolume.obj
 0001:0003ae60       ??_GSweptVolume@Cct@physx@@UEAAPEAXI@Z 000000018003be60 f i CctSweptVolume.obj
 0001:0003aeb0       ??0PxMeshOverlapUtil@physx@@QEAA@XZ 000000018003beb0 f   PhysX3ExtensionsDEBUG:ExtTriangleMeshExt.obj
 0001:0003aef0       ??1PxMeshOverlapUtil@physx@@QEAA@XZ 000000018003bef0 f   PhysX3ExtensionsDEBUG:ExtTriangleMeshExt.obj
 0001:0003af40       ?findOverlap@PxMeshOverlapUtil@physx@@QEAAIAEBVPxGeometry@2@AEBVPxTransform@2@AEBVPxTriangleMeshGeometry@2@1@Z 000000018003bf40 f   PhysX3ExtensionsDEBUG:ExtTriangleMeshExt.obj
 0001:0003b1e0       ?findOverlap@PxMeshOverlapUtil@physx@@QEAAIAEBVPxGeometry@2@AEBVPxTransform@2@AEBVPxHeightFieldGeometry@2@1@Z 000000018003c1e0 f   PhysX3ExtensionsDEBUG:ExtTriangleMeshExt.obj
 0001:0003b340       ?PxComputeMeshPenetration@physx@@YA?AVPxVec3@1@IAEBVPxGeometry@1@AEBVPxTransform@1@AEBVPxTriangleMeshGeometry@1@1AEAI@Z 000000018003c340 f   PhysX3ExtensionsDEBUG:ExtTriangleMeshExt.obj
 0001:0003b3e0       ?PxComputeTriangleMeshPenetration@physx@@YA_NAEAVPxVec3@1@AEAMAEBVPxGeometry@1@AEBVPxTransform@1@AEBVPxTriangleMeshGeometry@1@3IPEAI@Z 000000018003c3e0 f   PhysX3ExtensionsDEBUG:ExtTriangleMeshExt.obj
 0001:0003b450       ?PxComputeHeightFieldPenetration@physx@@YA?AVPxVec3@1@IAEBVPxGeometry@1@AEBVPxTransform@1@AEBVPxHeightFieldGeometry@1@1AEAI@Z 000000018003c450 f   PhysX3ExtensionsDEBUG:ExtTriangleMeshExt.obj
 0001:0003b4f0       ?PxComputeHeightFieldPenetration@physx@@YA_NAEAVPxVec3@1@AEAMAEBVPxGeometry@1@AEBVPxTransform@1@AEBVPxHeightFieldGeometry@1@3IPEAI@Z 000000018003c4f0 f   PhysX3ExtensionsDEBUG:ExtTriangleMeshExt.obj
 0001:0003baa0       ??0PxTransform@physx@@QEAA@AEBV01@@Z 000000018003caa0 f i PhysX3ExtensionsDEBUG:ExtTriangleMeshExt.obj
 0001:0003bb00       ??KPxVec3@physx@@QEBA?AV01@M@Z 000000018003cb00 f i PhysX3ExtensionsDEBUG:ExtTriangleMeshExt.obj
 0001:0003bba0       ?updateMassAndInertia@PxRigidBodyExt@physx@@SA_NAEAVPxRigidBody@2@PEBMIPEBVPxVec3@2@_N@Z 000000018003cba0 f   PhysX3ExtensionsDEBUG:ExtRigidBodyExt.obj
 0001:0003bbf0       ?updateMassAndInertia@PxRigidBodyExt@physx@@SA_NAEAVPxRigidBody@2@MPEBVPxVec3@2@_N@Z 000000018003cbf0 f   PhysX3ExtensionsDEBUG:ExtRigidBodyExt.obj
 0001:0003bc40       ?setMassAndUpdateInertia@PxRigidBodyExt@physx@@SA_NAEAVPxRigidBody@2@PEBMIPEBVPxVec3@2@_N@Z 000000018003cc40 f   PhysX3ExtensionsDEBUG:ExtRigidBodyExt.obj
 0001:0003bc90       ?setMassAndUpdateInertia@PxRigidBodyExt@physx@@SA_NAEAVPxRigidBody@2@MPEBVPxVec3@2@_N@Z 000000018003cc90 f   PhysX3ExtensionsDEBUG:ExtRigidBodyExt.obj
 0001:0003bce0       ?computeMassPropertiesFromShapes@PxRigidBodyExt@physx@@SA?AVPxMassProperties@2@PEBQEBVPxShape@2@I@Z 000000018003cce0 f   PhysX3ExtensionsDEBUG:ExtRigidBodyExt.obj
 0001:0003be90       ?addForceAtPos@PxRigidBodyExt@physx@@SAXAEAVPxRigidBody@2@AEBVPxVec3@2@1W4Enum@PxForceMode@2@_N@Z 000000018003ce90 f   PhysX3ExtensionsDEBUG:ExtRigidBodyExt.obj
 0001:0003bee0       ?addForceAtLocalPos@PxRigidBodyExt@physx@@SAXAEAVPxRigidBody@2@AEBVPxVec3@2@1W4Enum@PxForceMode@2@_N@Z 000000018003cee0 f   PhysX3ExtensionsDEBUG:ExtRigidBodyExt.obj
 0001:0003bf60       ?addLocalForceAtPos@PxRigidBodyExt@physx@@SAXAEAVPxRigidBody@2@AEBVPxVec3@2@1W4Enum@PxForceMode@2@_N@Z 000000018003cf60 f   PhysX3ExtensionsDEBUG:ExtRigidBodyExt.obj
 0001:0003bfe0       ?addLocalForceAtLocalPos@PxRigidBodyExt@physx@@SAXAEAVPxRigidBody@2@AEBVPxVec3@2@1W4Enum@PxForceMode@2@_N@Z 000000018003cfe0 f   PhysX3ExtensionsDEBUG:ExtRigidBodyExt.obj
 0001:0003c080       ?getVelocityAtPos@PxRigidBodyExt@physx@@SA?AVPxVec3@2@AEBVPxRigidBody@2@AEBV32@@Z 000000018003d080 f   PhysX3ExtensionsDEBUG:ExtRigidBodyExt.obj
 0001:0003c130       ?getLocalVelocityAtLocalPos@PxRigidBodyExt@physx@@SA?AVPxVec3@2@AEBVPxRigidBody@2@AEBV32@@Z 000000018003d130 f   PhysX3ExtensionsDEBUG:ExtRigidBodyExt.obj
 0001:0003c200       ?getVelocityAtOffset@PxRigidBodyExt@physx@@SA?AVPxVec3@2@AEBVPxRigidBody@2@AEBV32@@Z 000000018003d200 f   PhysX3ExtensionsDEBUG:ExtRigidBodyExt.obj
 0001:0003c2b0       ?linearSweepSingle@PxRigidBodyExt@physx@@SA_NAEAVPxRigidBody@2@AEAVPxScene@2@AEBVPxVec3@2@MV?$PxFlags@W4Enum@PxHitFlag@physx@@G@2@AEAUPxSweepHit@2@AEAIAEBUPxQueryFilterData@2@PEAVPxQueryFilterCallback@2@PEBUPxQueryCache@2@M@Z 000000018003d2b0 f   PhysX3ExtensionsDEBUG:ExtRigidBodyExt.obj
 0001:0003c650       ?linearSweepMultiple@PxRigidBodyExt@physx@@SAIAEAVPxRigidBody@2@AEAVPxScene@2@AEBVPxVec3@2@MV?$PxFlags@W4Enum@PxHitFlag@physx@@G@2@PEAUPxSweepHit@2@PEAIIAEAU72@AEAHAEA_NAEBUPxQueryFilterData@2@PEAVPxQueryFilterCallback@2@PEBUPxQueryCache@2@M@Z 000000018003d650 f   PhysX3ExtensionsDEBUG:ExtRigidBodyExt.obj
 0001:0003cd30       ?computeVelocityDeltaFromImpulse@PxRigidBodyExt@physx@@SAXAEBVPxRigidBody@2@AEBVPxVec3@2@1AEAV42@2@Z 000000018003dd30 f   PhysX3ExtensionsDEBUG:ExtRigidBodyExt.obj
 0001:0003d460       ?computeVelocityDeltaFromImpulse@PxRigidBodyExt@physx@@SAXAEBVPxRigidBody@2@AEBVPxTransform@2@AEBVPxVec3@2@2MMAEAV52@3@Z 000000018003e460 f   PhysX3ExtensionsDEBUG:ExtRigidBodyExt.obj
 0001:0003d5e0       ?computeLinearAngularImpulse@PxRigidBodyExt@physx@@SAXAEBVPxRigidBody@2@AEBVPxTransform@2@AEBVPxVec3@2@2MMAEAV52@3@Z 000000018003e5e0 f   PhysX3ExtensionsDEBUG:ExtRigidBodyExt.obj
 0001:0003d6c0       ??0InertiaTensorComputer@Ext@physx@@QEAA@_N@Z 000000018003e6c0 f   PhysX3ExtensionsDEBUG:ExtRigidBodyExt.obj
 0001:0003d710       ??0InertiaTensorComputer@Ext@physx@@QEAA@AEBVPxMat33@2@AEBVPxVec3@2@M@Z 000000018003e710 f   PhysX3ExtensionsDEBUG:ExtRigidBodyExt.obj
 0001:0003d780       ??1InertiaTensorComputer@Ext@physx@@QEAA@XZ 000000018003e780 f   PhysX3ExtensionsDEBUG:ExtRigidBodyExt.obj
 0001:0003d790       ?translate@InertiaTensorComputer@Ext@physx@@QEAAXAEBVPxVec3@3@@Z 000000018003e790 f   PhysX3ExtensionsDEBUG:ExtRigidBodyExt.obj
 0001:0003db50       ?setBox@InertiaTensorComputer@Ext@physx@@QEAAXAEBVPxVec3@3@@Z 000000018003eb50 f   PhysX3ExtensionsDEBUG:ExtRigidBodyExt.obj
 0001:0003dc60       ?setSphere@InertiaTensorComputer@Ext@physx@@QEAAXM@Z 000000018003ec60 f   PhysX3ExtensionsDEBUG:ExtRigidBodyExt.obj
 0001:0003dce0       ?setCylinder@InertiaTensorComputer@Ext@physx@@QEAAXHMM@Z 000000018003ece0 f   PhysX3ExtensionsDEBUG:ExtRigidBodyExt.obj
 0001:0003de40       ?setCapsule@InertiaTensorComputer@Ext@physx@@QEAAXHMM@Z 000000018003ee40 f   PhysX3ExtensionsDEBUG:ExtRigidBodyExt.obj
 0001:0003e080       ?setEllipsoid@InertiaTensorComputer@Ext@physx@@QEAAXMMM@Z 000000018003f080 f   PhysX3ExtensionsDEBUG:ExtRigidBodyExt.obj
 0001:0003e150       ?computeSphereMass@Ext@physx@@YAMMM@Z 000000018003f150 f   PhysX3ExtensionsDEBUG:ExtRigidBodyExt.obj
 0001:0003e190       ?computeSphereDensity@Ext@physx@@YAMMM@Z 000000018003f190 f   PhysX3ExtensionsDEBUG:ExtRigidBodyExt.obj
 0001:0003e1d0       ?computeBoxMass@Ext@physx@@YAMAEBVPxVec3@2@M@Z 000000018003f1d0 f   PhysX3ExtensionsDEBUG:ExtRigidBodyExt.obj
 0001:0003e210       ?computeBoxDensity@Ext@physx@@YAMAEBVPxVec3@2@M@Z 000000018003f210 f   PhysX3ExtensionsDEBUG:ExtRigidBodyExt.obj
 0001:0003e250       ?computeEllipsoidMass@Ext@physx@@YAMAEBVPxVec3@2@M@Z 000000018003f250 f   PhysX3ExtensionsDEBUG:ExtRigidBodyExt.obj
 0001:0003e290       ?computeEllipsoidDensity@Ext@physx@@YAMAEBVPxVec3@2@M@Z 000000018003f290 f   PhysX3ExtensionsDEBUG:ExtRigidBodyExt.obj
 0001:0003e2d0       ?computeCylinderMass@Ext@physx@@YAMMMM@Z 000000018003f2d0 f   PhysX3ExtensionsDEBUG:ExtRigidBodyExt.obj
 0001:0003e310       ?computeCylinderDensity@Ext@physx@@YAMMMM@Z 000000018003f310 f   PhysX3ExtensionsDEBUG:ExtRigidBodyExt.obj
 0001:0003e350       ?computeCapsuleMass@Ext@physx@@YAMMMM@Z 000000018003f350 f   PhysX3ExtensionsDEBUG:ExtRigidBodyExt.obj
 0001:0003e390       ?computeCapsuleDensity@Ext@physx@@YAMMMM@Z 000000018003f390 f   PhysX3ExtensionsDEBUG:ExtRigidBodyExt.obj
 0001:0003e3d0       ?computeConeMass@Ext@physx@@YAMMMM@Z 000000018003f3d0 f   PhysX3ExtensionsDEBUG:ExtRigidBodyExt.obj
 0001:0003e410       ?computeConeDensity@Ext@physx@@YAMMMM@Z 000000018003f410 f   PhysX3ExtensionsDEBUG:ExtRigidBodyExt.obj
 0001:0003e450       ?computeBoxInertiaTensor@Ext@physx@@YAXAEAVPxVec3@2@MMMM@Z 000000018003f450 f   PhysX3ExtensionsDEBUG:ExtRigidBodyExt.obj
 0001:0003e6a0       ?computeSphereInertiaTensor@Ext@physx@@YAXAEAVPxVec3@2@MM_N@Z 000000018003f6a0 f   PhysX3ExtensionsDEBUG:ExtRigidBodyExt.obj
 0001:00040e70       ??$PX_UNUSED@PEBUPxSweepHit@physx@@@@YAXAEBQEBUPxSweepHit@physx@@@Z 0000000180041e70 f i PhysX3ExtensionsDEBUG:ExtRigidBodyExt.obj
 0001:00040e80       ??$PX_UNUSED@W4PxZERO@physx@@@@YAXAEBW4PxZERO@physx@@@Z 0000000180041e80 f i PhysX3ExtensionsDEBUG:ExtRigidBodyExt.obj
 0001:00040e90       ??$PxUnionCast@PEAVPxGeometry@physx@@PEAY03E@physx@@YAPEAVPxGeometry@0@PEAY03E@Z 0000000180041e90 f i PhysX3ExtensionsDEBUG:ExtRigidBodyExt.obj
 0001:00040ec0       ??0?$Array@PEAVPxShape@physx@@V?$InlineAllocator@$0IA@VNamedAllocator@shdfnd@physx@@@shdfnd@2@@shdfnd@physx@@QEAA@AEBV?$InlineAllocator@$0IA@VNamedAllocator@shdfnd@physx@@@12@@Z 0000000180041ec0 f i PhysX3ExtensionsDEBUG:ExtRigidBodyExt.obj
 0001:00040f30       ??0?$Array@VPxMassProperties@physx@@V?$InlineAllocator@$0DEA@VNamedAllocator@shdfnd@physx@@@shdfnd@2@@shdfnd@physx@@QEAA@AEBV?$InlineAllocator@$0DEA@VNamedAllocator@shdfnd@physx@@@12@@Z 0000000180041f30 f i PhysX3ExtensionsDEBUG:ExtRigidBodyExt.obj
 0001:00040fa0       ??0?$Array@VPxTransform@physx@@V?$InlineAllocator@$0BMA@VNamedAllocator@shdfnd@physx@@@shdfnd@2@@shdfnd@physx@@QEAA@AEBV?$InlineAllocator@$0BMA@VNamedAllocator@shdfnd@physx@@@12@@Z 0000000180041fa0 f i PhysX3ExtensionsDEBUG:ExtRigidBodyExt.obj
 0001:00041010       ??0?$InlineAllocator@$0BMA@VNamedAllocator@shdfnd@physx@@@shdfnd@physx@@QEAA@AEBV012@@Z 0000000180042010 f i PhysX3ExtensionsDEBUG:ExtRigidBodyExt.obj
 0001:00041060       ??0?$InlineAllocator@$0BMA@VNamedAllocator@shdfnd@physx@@@shdfnd@physx@@QEAA@AEBVNamedAllocator@12@@Z 0000000180042060 f i PhysX3ExtensionsDEBUG:ExtRigidBodyExt.obj
 0001:000410b0       ??0?$InlineAllocator@$0DEA@VNamedAllocator@shdfnd@physx@@@shdfnd@physx@@QEAA@AEBV012@@Z 00000001800420b0 f i PhysX3ExtensionsDEBUG:ExtRigidBodyExt.obj
 0001:00041100       ??0?$InlineAllocator@$0DEA@VNamedAllocator@shdfnd@physx@@@shdfnd@physx@@QEAA@AEBVNamedAllocator@12@@Z 0000000180042100 f i PhysX3ExtensionsDEBUG:ExtRigidBodyExt.obj
 0001:00041150       ??0?$InlineAllocator@$0IA@VNamedAllocator@shdfnd@physx@@@shdfnd@physx@@QEAA@AEBV012@@Z 0000000180042150 f i PhysX3ExtensionsDEBUG:ExtRigidBodyExt.obj
 0001:000411a0       ??0?$InlineAllocator@$0IA@VNamedAllocator@shdfnd@physx@@@shdfnd@physx@@QEAA@AEBVNamedAllocator@12@@Z 00000001800421a0 f i PhysX3ExtensionsDEBUG:ExtRigidBodyExt.obj
 0001:000411f0       ??0?$InlineArray@PEAVPxShape@physx@@$0BA@VNamedAllocator@shdfnd@2@@shdfnd@physx@@QEAA@AEBVNamedAllocator@12@@Z 00000001800421f0 f i PhysX3ExtensionsDEBUG:ExtRigidBodyExt.obj
 0001:000412a0       ??0?$InlineArray@VPxMassProperties@physx@@$0BA@VNamedAllocator@shdfnd@2@@shdfnd@physx@@QEAA@AEBVNamedAllocator@12@@Z 00000001800422a0 f i PhysX3ExtensionsDEBUG:ExtRigidBodyExt.obj
 0001:00041350       ??0?$InlineArray@VPxTransform@physx@@$0BA@VNamedAllocator@shdfnd@2@@shdfnd@physx@@QEAA@AEBVNamedAllocator@12@@Z 0000000180042350 f i PhysX3ExtensionsDEBUG:ExtRigidBodyExt.obj
 0001:00041400       ??0?$PxHitBuffer@UPxSweepHit@physx@@@physx@@QEAA@PEAUPxSweepHit@1@I@Z 0000000180042400 f i PhysX3ExtensionsDEBUG:ExtRigidBodyExt.obj
 0001:00041450       ??0?$PxHitCallback@UPxSweepHit@physx@@@physx@@QEAA@PEAUPxSweepHit@1@I@Z 0000000180042450 f i PhysX3ExtensionsDEBUG:ExtRigidBodyExt.obj
 0001:00041510       ??0PxMassProperties@physx@@QEAA@AEBV01@@Z 0000000180042510 f i PhysX3ExtensionsDEBUG:ExtRigidBodyExt.obj
 0001:00041580       ??0PxMassProperties@physx@@QEAA@AEBVPxGeometry@1@@Z 0000000180042580 f i PhysX3ExtensionsDEBUG:ExtRigidBodyExt.obj
 0001:000422e0       ??0PxMassProperties@physx@@QEAA@MAEBVPxMat33@1@AEBVPxVec3@1@@Z 00000001800432e0 f i PhysX3ExtensionsDEBUG:ExtRigidBodyExt.obj
 0001:00042360       ??0PxMassProperties@physx@@QEAA@XZ 0000000180043360 f i PhysX3ExtensionsDEBUG:ExtRigidBodyExt.obj
 0001:000423c0       ??0PxMat33@physx@@QEAA@AEBV01@@Z 00000001800433c0 f i PhysX3ExtensionsDEBUG:ExtRigidBodyExt.obj
 0001:00042440       ??0PxMat33@physx@@QEAA@W4PxZERO@1@@Z 0000000180043440 f i PhysX3ExtensionsDEBUG:ExtRigidBodyExt.obj
 0001:000424b0       ??0PxMat33@physx@@QEAA@XZ  00000001800434b0 f i PhysX3ExtensionsDEBUG:ExtRigidBodyExt.obj
 0001:00042510       ??0PxQueryFilterData@physx@@QEAA@XZ 0000000180043510 f i PhysX3ExtensionsDEBUG:ExtRigidBodyExt.obj
 0001:00042570       ??1?$Array@PEAVPxShape@physx@@V?$InlineAllocator@$0IA@VNamedAllocator@shdfnd@physx@@@shdfnd@2@@shdfnd@physx@@QEAA@XZ 0000000180043570 f i PhysX3ExtensionsDEBUG:ExtRigidBodyExt.obj
 0001:00042610       ??1?$Array@VPxMassProperties@physx@@V?$InlineAllocator@$0DEA@VNamedAllocator@shdfnd@physx@@@shdfnd@2@@shdfnd@physx@@QEAA@XZ 0000000180043610 f i PhysX3ExtensionsDEBUG:ExtRigidBodyExt.obj
 0001:000426b0       ??1?$Array@VPxTransform@physx@@V?$InlineAllocator@$0BMA@VNamedAllocator@shdfnd@physx@@@shdfnd@2@@shdfnd@physx@@QEAA@XZ 00000001800436b0 f i PhysX3ExtensionsDEBUG:ExtRigidBodyExt.obj
 0001:00042750       ??1?$InlineAllocator@$0BMA@VNamedAllocator@shdfnd@physx@@@shdfnd@physx@@QEAA@XZ 0000000180043750 f i PhysX3ExtensionsDEBUG:ExtRigidBodyExt.obj
 0001:00042770       ??1?$InlineAllocator@$0DEA@VNamedAllocator@shdfnd@physx@@@shdfnd@physx@@QEAA@XZ 0000000180043770 f i PhysX3ExtensionsDEBUG:ExtRigidBodyExt.obj
 0001:00042790       ??1?$InlineAllocator@$0IA@VNamedAllocator@shdfnd@physx@@@shdfnd@physx@@QEAA@XZ 0000000180043790 f i PhysX3ExtensionsDEBUG:ExtRigidBodyExt.obj
 0001:000427b0       ??1?$InlineArray@PEAVPxShape@physx@@$0BA@VNamedAllocator@shdfnd@2@@shdfnd@physx@@QEAA@XZ 00000001800437b0 f i PhysX3ExtensionsDEBUG:ExtRigidBodyExt.obj
 0001:000427d0       ??1?$InlineArray@VPxMassProperties@physx@@$0BA@VNamedAllocator@shdfnd@2@@shdfnd@physx@@QEAA@XZ 00000001800437d0 f i PhysX3ExtensionsDEBUG:ExtRigidBodyExt.obj
 0001:000427f0       ??1?$InlineArray@VPxTransform@physx@@$0BA@VNamedAllocator@shdfnd@2@@shdfnd@physx@@QEAA@XZ 00000001800437f0 f i PhysX3ExtensionsDEBUG:ExtRigidBodyExt.obj
 0001:00042810       ??1?$PxHitBuffer@UPxSweepHit@physx@@@physx@@UEAA@XZ 0000000180043810 f i PhysX3ExtensionsDEBUG:ExtRigidBodyExt.obj
 0001:00042840       ??1?$PxHitCallback@UPxSweepHit@physx@@@physx@@UEAA@XZ 0000000180043840 f i PhysX3ExtensionsDEBUG:ExtRigidBodyExt.obj
 0001:00042860       ??4InertiaTensorComputer@Ext@physx@@QEAAAEAV012@AEBV012@@Z 0000000180043860 f i PhysX3ExtensionsDEBUG:ExtRigidBodyExt.obj
 0001:000428d0       ??4PxMassProperties@physx@@QEAAAEAV01@$$QEAV01@@Z 00000001800438d0 f i PhysX3ExtensionsDEBUG:ExtRigidBodyExt.obj
 0001:00042940       ??4PxMat33@physx@@QEAAAEAV01@AEBV01@@Z 0000000180043940 f i PhysX3ExtensionsDEBUG:ExtRigidBodyExt.obj
 0001:000429c0       ??4PxSweepHit@physx@@QEAAAEAU01@AEBU01@@Z 00000001800439c0 f i PhysX3ExtensionsDEBUG:ExtRigidBodyExt.obj
 0001:00042a10       ??A?$Array@PEAVPxShape@physx@@V?$InlineAllocator@$0IA@VNamedAllocator@shdfnd@physx@@@shdfnd@2@@shdfnd@physx@@QEAAAEAPEAVPxShape@2@I@Z 0000000180043a10 f i PhysX3ExtensionsDEBUG:ExtRigidBodyExt.obj
 0001:00042ab0       ??APxMat33@physx@@QEAAAEAVPxVec3@1@I@Z 0000000180043ab0 f i PhysX3ExtensionsDEBUG:ExtRigidBodyExt.obj
 0001:00042ae0       ??APxVec3@physx@@QEAAAEAMI@Z 0000000180043ae0 f i PhysX3ExtensionsDEBUG:ExtRigidBodyExt.obj
 0001:00042b70       ??DPxMat33@physx@@QEBA?BV01@M@Z 0000000180043b70 f i PhysX3ExtensionsDEBUG:ExtRigidBodyExt.obj
 0001:00042c30       ??DPxMat33@physx@@QEBA?BVPxVec3@1@AEBV21@@Z 0000000180043c30 f i PhysX3ExtensionsDEBUG:ExtRigidBodyExt.obj
 0001:00042c70       ??GPxMat33@physx@@QEBA?BV01@AEBV01@@Z 0000000180043c70 f i PhysX3ExtensionsDEBUG:ExtRigidBodyExt.obj
 0001:00042d70       ??HPxMat33@physx@@QEBA?BV01@AEBV01@@Z 0000000180043d70 f i PhysX3ExtensionsDEBUG:ExtRigidBodyExt.obj
 0001:00042e70       ??RPxMat33@physx@@QEAAAEAMII@Z 0000000180043e70 f i PhysX3ExtensionsDEBUG:ExtRigidBodyExt.obj
 0001:00042eb0       ??RPxMat33@physx@@QEBAMII@Z 0000000180043eb0 f i PhysX3ExtensionsDEBUG:ExtRigidBodyExt.obj
 0001:00042f00       ??XPxMat33@physx@@QEAAAEAV01@M@Z 0000000180043f00 f i PhysX3ExtensionsDEBUG:ExtRigidBodyExt.obj
 0001:00042f70       ??YPxMat33@physx@@QEAAAEAV01@AEBV01@@Z 0000000180043f70 f i PhysX3ExtensionsDEBUG:ExtRigidBodyExt.obj
 0001:00042ff0       ??_E?$PxHitBuffer@UPxSweepHit@physx@@@physx@@UEAAPEAXI@Z 0000000180043ff0 f i PhysX3ExtensionsDEBUG:ExtRigidBodyExt.obj
 0001:00042ff0       ??_G?$PxHitBuffer@UPxSweepHit@physx@@@physx@@UEAAPEAXI@Z 0000000180043ff0 f i PhysX3ExtensionsDEBUG:ExtRigidBodyExt.obj
 0001:00043040       ??_E?$PxHitCallback@UPxSweepHit@physx@@@physx@@UEAAPEAXI@Z 0000000180044040 f i PhysX3ExtensionsDEBUG:ExtRigidBodyExt.obj
 0001:00043040       ??_G?$PxHitCallback@UPxSweepHit@physx@@@physx@@UEAAPEAXI@Z 0000000180044040 f i PhysX3ExtensionsDEBUG:ExtRigidBodyExt.obj
 0001:00043090       ?add@InertiaTensorComputer@Ext@physx@@QEAAXAEBV123@@Z 0000000180044090 f i PhysX3ExtensionsDEBUG:ExtRigidBodyExt.obj
 0001:00043370       ?addForceAtPosInternal@@YAXAEAVPxRigidBody@physx@@AEBVPxVec3@2@1W4Enum@PxForceMode@2@_N@Z 0000000180044370 f i PhysX3ExtensionsDEBUG:ExtRigidBodyExt.obj
 0001:00043510       ?allocate@?$Array@PEAVPxShape@physx@@V?$InlineAllocator@$0IA@VNamedAllocator@shdfnd@physx@@@shdfnd@2@@shdfnd@physx@@IEAAPEAPEAVPxShape@3@I@Z 0000000180044510 f i PhysX3ExtensionsDEBUG:ExtRigidBodyExt.obj
 0001:000435c0       ?allocate@?$Array@VPxMassProperties@physx@@V?$InlineAllocator@$0DEA@VNamedAllocator@shdfnd@physx@@@shdfnd@2@@shdfnd@physx@@IEAAPEAVPxMassProperties@3@I@Z 00000001800445c0 f i PhysX3ExtensionsDEBUG:ExtRigidBodyExt.obj
 0001:00043670       ?allocate@?$Array@VPxTransform@physx@@V?$InlineAllocator@$0BMA@VNamedAllocator@shdfnd@physx@@@shdfnd@2@@shdfnd@physx@@IEAAPEAVPxTransform@3@I@Z 0000000180044670 f i PhysX3ExtensionsDEBUG:ExtRigidBodyExt.obj
 0001:00043720       ?allocate@?$InlineAllocator@$0BMA@VNamedAllocator@shdfnd@physx@@@shdfnd@physx@@QEAAPEAXIPEBDH@Z 0000000180044720 f i PhysX3ExtensionsDEBUG:ExtRigidBodyExt.obj
 0001:000437a0       ?allocate@?$InlineAllocator@$0DEA@VNamedAllocator@shdfnd@physx@@@shdfnd@physx@@QEAAPEAXIPEBDH@Z 00000001800447a0 f i PhysX3ExtensionsDEBUG:ExtRigidBodyExt.obj
 0001:00043820       ?allocate@?$InlineAllocator@$0IA@VNamedAllocator@shdfnd@physx@@@shdfnd@physx@@QEAAPEAXIPEBDH@Z 0000000180044820 f i PhysX3ExtensionsDEBUG:ExtRigidBodyExt.obj
 0001:000438a0       ?any@PxGeometryHolder@physx@@QEAAAEAVPxGeometry@2@XZ 00000001800448a0 f i PhysX3ExtensionsDEBUG:ExtRigidBodyExt.obj
 0001:000438d0       ?basisExtent@PxBounds3@physx@@SA?AV12@AEBVPxVec3@2@AEBVPxMat33@2@0@Z 00000001800448d0 f i PhysX3ExtensionsDEBUG:ExtRigidBodyExt.obj
 0001:00043b20       ?begin@?$Array@PEAVPxShape@physx@@V?$InlineAllocator@$0IA@VNamedAllocator@shdfnd@physx@@@shdfnd@2@@shdfnd@physx@@QEAAPEAPEAVPxShape@3@XZ 0000000180044b20 f i PhysX3ExtensionsDEBUG:ExtRigidBodyExt.obj
 0001:00043b40       ?begin@?$Array@VPxMassProperties@physx@@V?$InlineAllocator@$0DEA@VNamedAllocator@shdfnd@physx@@@shdfnd@2@@shdfnd@physx@@QEAAPEAVPxMassProperties@3@XZ 0000000180044b40 f i PhysX3ExtensionsDEBUG:ExtRigidBodyExt.obj
 0001:00043b60       ?begin@?$Array@VPxTransform@physx@@V?$InlineAllocator@$0BMA@VNamedAllocator@shdfnd@physx@@@shdfnd@2@@shdfnd@physx@@QEAAPEAVPxTransform@3@XZ 0000000180044b60 f i PhysX3ExtensionsDEBUG:ExtRigidBodyExt.obj
 0001:00043b80       ?capacity@?$Array@PEAVPxShape@physx@@V?$InlineAllocator@$0IA@VNamedAllocator@shdfnd@physx@@@shdfnd@2@@shdfnd@physx@@QEBAIXZ 0000000180044b80 f i PhysX3ExtensionsDEBUG:ExtRigidBodyExt.obj
 0001:00043ba0       ?capacity@?$Array@VPxMassProperties@physx@@V?$InlineAllocator@$0DEA@VNamedAllocator@shdfnd@physx@@@shdfnd@2@@shdfnd@physx@@QEBAIXZ 0000000180044ba0 f i PhysX3ExtensionsDEBUG:ExtRigidBodyExt.obj
 0001:00043bc0       ?capacity@?$Array@VPxTransform@physx@@V?$InlineAllocator@$0BMA@VNamedAllocator@shdfnd@physx@@@shdfnd@2@@shdfnd@physx@@QEBAIXZ 0000000180044bc0 f i PhysX3ExtensionsDEBUG:ExtRigidBodyExt.obj
 0001:00043be0       ?capacityIncrement@?$Array@VPxMassProperties@physx@@V?$InlineAllocator@$0DEA@VNamedAllocator@shdfnd@physx@@@shdfnd@2@@shdfnd@physx@@IEBAIXZ 0000000180044be0 f i PhysX3ExtensionsDEBUG:ExtRigidBodyExt.obj
 0001:00043c30       ?capacityIncrement@?$Array@VPxTransform@physx@@V?$InlineAllocator@$0BMA@VNamedAllocator@shdfnd@physx@@@shdfnd@2@@shdfnd@physx@@IEBAIXZ 0000000180044c30 f i PhysX3ExtensionsDEBUG:ExtRigidBodyExt.obj
 0001:00043c80       ?center@InertiaTensorComputer@Ext@physx@@QEAAXXZ 0000000180044c80 f i PhysX3ExtensionsDEBUG:ExtRigidBodyExt.obj
 0001:00043cc0       ?computeBoxRatio@Ext@physx@@YAMAEBVPxVec3@2@@Z 0000000180044cc0 f i PhysX3ExtensionsDEBUG:ExtRigidBodyExt.obj
 0001:00043ce0       ?computeCapsuleRatio@Ext@physx@@YAMMM@Z 0000000180044ce0 f i PhysX3ExtensionsDEBUG:ExtRigidBodyExt.obj
 0001:00043d40       ?computeConeRatio@Ext@physx@@YAMMM@Z 0000000180044d40 f i PhysX3ExtensionsDEBUG:ExtRigidBodyExt.obj
 0001:00043db0       ?computeCylinderRatio@Ext@physx@@YAMMM@Z 0000000180044db0 f i PhysX3ExtensionsDEBUG:ExtRigidBodyExt.obj
 0001:00043df0       ?computeEllipsoidRatio@Ext@physx@@YAMAEBVPxVec3@2@@Z 0000000180044df0 f i PhysX3ExtensionsDEBUG:ExtRigidBodyExt.obj
 0001:00043e20       ?computeSphereRatio@Ext@physx@@YAMM@Z 0000000180044e20 f i PhysX3ExtensionsDEBUG:ExtRigidBodyExt.obj
 0001:00043e50       ?copy@?$Array@PEAVPxShape@physx@@V?$InlineAllocator@$0IA@VNamedAllocator@shdfnd@physx@@@shdfnd@2@@shdfnd@physx@@KAXPEAPEAVPxShape@3@0PEBQEAV43@@Z 0000000180044e50 f i PhysX3ExtensionsDEBUG:ExtRigidBodyExt.obj
 0001:00043f60       ?copy@?$Array@VPxMassProperties@physx@@V?$InlineAllocator@$0DEA@VNamedAllocator@shdfnd@physx@@@shdfnd@2@@shdfnd@physx@@KAXPEAVPxMassProperties@3@0PEBV43@@Z 0000000180044f60 f i PhysX3ExtensionsDEBUG:ExtRigidBodyExt.obj
 0001:00044070       ?copy@?$Array@VPxTransform@physx@@V?$InlineAllocator@$0BMA@VNamedAllocator@shdfnd@physx@@@shdfnd@2@@shdfnd@physx@@KAXPEAVPxTransform@3@0PEBV43@@Z 0000000180045070 f i PhysX3ExtensionsDEBUG:ExtRigidBodyExt.obj
 0001:00044180       ?create@?$Array@PEAVPxShape@physx@@V?$InlineAllocator@$0IA@VNamedAllocator@shdfnd@physx@@@shdfnd@2@@shdfnd@physx@@KAXPEAPEAVPxShape@3@0AEBQEAV43@@Z 0000000180045180 f i PhysX3ExtensionsDEBUG:ExtRigidBodyExt.obj
 0001:00044270       ?createDiagonal@PxMat33@physx@@SA?BV12@AEBVPxVec3@2@@Z 0000000180045270 f i PhysX3ExtensionsDEBUG:ExtRigidBodyExt.obj
 0001:00044320       ?deallocate@?$Array@PEAVPxShape@physx@@V?$InlineAllocator@$0IA@VNamedAllocator@shdfnd@physx@@@shdfnd@2@@shdfnd@physx@@IEAAXPEAX@Z 0000000180045320 f i PhysX3ExtensionsDEBUG:ExtRigidBodyExt.obj
 0001:00044350       ?deallocate@?$Array@VPxMassProperties@physx@@V?$InlineAllocator@$0DEA@VNamedAllocator@shdfnd@physx@@@shdfnd@2@@shdfnd@physx@@IEAAXPEAX@Z 0000000180045350 f i PhysX3ExtensionsDEBUG:ExtRigidBodyExt.obj
 0001:00044380       ?deallocate@?$Array@VPxTransform@physx@@V?$InlineAllocator@$0BMA@VNamedAllocator@shdfnd@physx@@@shdfnd@2@@shdfnd@physx@@IEAAXPEAX@Z 0000000180045380 f i PhysX3ExtensionsDEBUG:ExtRigidBodyExt.obj
 0001:000443b0       ?deallocate@?$InlineAllocator@$0BMA@VNamedAllocator@shdfnd@physx@@@shdfnd@physx@@QEAAXPEAX@Z 00000001800453b0 f i PhysX3ExtensionsDEBUG:ExtRigidBodyExt.obj
 0001:00044400       ?deallocate@?$InlineAllocator@$0DEA@VNamedAllocator@shdfnd@physx@@@shdfnd@physx@@QEAAXPEAX@Z 0000000180045400 f i PhysX3ExtensionsDEBUG:ExtRigidBodyExt.obj
 0001:00044450       ?deallocate@?$InlineAllocator@$0IA@VNamedAllocator@shdfnd@physx@@@shdfnd@physx@@QEAAXPEAX@Z 0000000180045450 f i PhysX3ExtensionsDEBUG:ExtRigidBodyExt.obj
 0001:000444a0       ?destroy@?$Array@PEAVPxShape@physx@@V?$InlineAllocator@$0IA@VNamedAllocator@shdfnd@physx@@@shdfnd@2@@shdfnd@physx@@KAXPEAPEAVPxShape@3@0@Z 00000001800454a0 f i PhysX3ExtensionsDEBUG:ExtRigidBodyExt.obj
 0001:000444f0       ?destroy@?$Array@VPxMassProperties@physx@@V?$InlineAllocator@$0DEA@VNamedAllocator@shdfnd@physx@@@shdfnd@2@@shdfnd@physx@@KAXPEAVPxMassProperties@3@0@Z 00000001800454f0 f i PhysX3ExtensionsDEBUG:ExtRigidBodyExt.obj
 0001:00044540       ?destroy@?$Array@VPxTransform@physx@@V?$InlineAllocator@$0BMA@VNamedAllocator@shdfnd@physx@@@shdfnd@2@@shdfnd@physx@@KAXPEAVPxTransform@3@0@Z 0000000180045540 f i PhysX3ExtensionsDEBUG:ExtRigidBodyExt.obj
 0001:00044590       ?finalizeQuery@?$PxHitCallback@UPxSweepHit@physx@@@physx@@UEAAXXZ 0000000180045590 f i PhysX3ExtensionsDEBUG:ExtRigidBodyExt.obj
 0001:000445a0       ?getCenterOfMass@InertiaTensorComputer@Ext@physx@@QEBA?AVPxVec3@3@XZ 00000001800455a0 f i PhysX3ExtensionsDEBUG:ExtRigidBodyExt.obj
 0001:000445e0       ?getConjugate@PxQuat@physx@@QEBA?AV12@XZ 00000001800455e0 f i PhysX3ExtensionsDEBUG:ExtRigidBodyExt.obj
 0001:00044680       ?getInertia@InertiaTensorComputer@Ext@physx@@QEBA?AVPxMat33@3@XZ 0000000180045680 f i PhysX3ExtensionsDEBUG:ExtRigidBodyExt.obj
 0001:000446c0       ?getInverse@PxTransform@physx@@QEBA?AV12@XZ 00000001800456c0 f i PhysX3ExtensionsDEBUG:ExtRigidBodyExt.obj
 0001:000447d0       ?getMass@InertiaTensorComputer@Ext@physx@@QEBAMXZ 00000001800457d0 f i PhysX3ExtensionsDEBUG:ExtRigidBodyExt.obj
 0001:000447f0       ?getNbTouches@?$PxHitBuffer@UPxSweepHit@physx@@@physx@@QEBAIXZ 00000001800457f0 f i PhysX3ExtensionsDEBUG:ExtRigidBodyExt.obj
 0001:00044810       ?getType@PxGeometry@physx@@QEBA?AW4Enum@PxGeometryType@2@XZ 0000000180045810 f i PhysX3ExtensionsDEBUG:ExtRigidBodyExt.obj
 0001:00044820       ?getVelocityAtPosInternal@@YA?AVPxVec3@physx@@AEBVPxRigidBody@2@AEBV12@@Z 0000000180045820 f i PhysX3ExtensionsDEBUG:ExtRigidBodyExt.obj
 0001:000448c0       ?grow@?$Array@PEAVPxShape@physx@@V?$InlineAllocator@$0IA@VNamedAllocator@shdfnd@physx@@@shdfnd@2@@shdfnd@physx@@IEAAXI@Z 00000001800458c0 f i PhysX3ExtensionsDEBUG:ExtRigidBodyExt.obj
 0001:00044960       ?grow@?$Array@VPxMassProperties@physx@@V?$InlineAllocator@$0DEA@VNamedAllocator@shdfnd@physx@@@shdfnd@2@@shdfnd@physx@@IEAAXI@Z 0000000180045960 f i PhysX3ExtensionsDEBUG:ExtRigidBodyExt.obj
 0001:00044a00       ?grow@?$Array@VPxTransform@physx@@V?$InlineAllocator@$0BMA@VNamedAllocator@shdfnd@physx@@@shdfnd@2@@shdfnd@physx@@IEAAXI@Z 0000000180045a00 f i PhysX3ExtensionsDEBUG:ExtRigidBodyExt.obj
 0001:00044aa0       ?growAndPushBack@?$Array@VPxMassProperties@physx@@V?$InlineAllocator@$0DEA@VNamedAllocator@shdfnd@physx@@@shdfnd@2@@shdfnd@physx@@IEAAAEAVPxMassProperties@3@AEBV43@@Z 0000000180045aa0 f i PhysX3ExtensionsDEBUG:ExtRigidBodyExt.obj
 0001:00044cf0       ?growAndPushBack@?$Array@VPxTransform@physx@@V?$InlineAllocator@$0BMA@VNamedAllocator@shdfnd@physx@@@shdfnd@2@@shdfnd@physx@@IEAAAEAVPxTransform@3@AEBV43@@Z 0000000180045cf0 f i PhysX3ExtensionsDEBUG:ExtRigidBodyExt.obj
 0001:00044f40       ?isArrayOfPOD@?$Array@PEAVPxShape@physx@@V?$InlineAllocator@$0IA@VNamedAllocator@shdfnd@physx@@@shdfnd@2@@shdfnd@physx@@SA_NXZ 0000000180045f40 f i PhysX3ExtensionsDEBUG:ExtRigidBodyExt.obj
 0001:00044f50       ?isArrayOfPOD@?$Array@VPxMassProperties@physx@@V?$InlineAllocator@$0DEA@VNamedAllocator@shdfnd@physx@@@shdfnd@2@@shdfnd@physx@@SA_NXZ 0000000180045f50 f i PhysX3ExtensionsDEBUG:ExtRigidBodyExt.obj
 0001:00044f60       ?isArrayOfPOD@?$Array@VPxTransform@physx@@V?$InlineAllocator@$0BMA@VNamedAllocator@shdfnd@physx@@@shdfnd@2@@shdfnd@physx@@SA_NXZ 0000000180045f60 f i PhysX3ExtensionsDEBUG:ExtRigidBodyExt.obj
 0001:00044f70       ?isIdentity@PxMeshScale@physx@@QEBA_NXZ 0000000180045f70 f i PhysX3ExtensionsDEBUG:ExtRigidBodyExt.obj
 0001:00044fe0       ?isInUserMemory@?$Array@PEAVPxShape@physx@@V?$InlineAllocator@$0IA@VNamedAllocator@shdfnd@physx@@@shdfnd@2@@shdfnd@physx@@QEBAIXZ 0000000180045fe0 f i PhysX3ExtensionsDEBUG:ExtRigidBodyExt.obj
 0001:00045000       ?isInUserMemory@?$Array@VPxMassProperties@physx@@V?$InlineAllocator@$0DEA@VNamedAllocator@shdfnd@physx@@@shdfnd@2@@shdfnd@physx@@QEBAIXZ 0000000180046000 f i PhysX3ExtensionsDEBUG:ExtRigidBodyExt.obj
 0001:00045020       ?isInUserMemory@?$Array@VPxTransform@physx@@V?$InlineAllocator@$0BMA@VNamedAllocator@shdfnd@physx@@@shdfnd@2@@shdfnd@physx@@QEBAIXZ 0000000180046020 f i PhysX3ExtensionsDEBUG:ExtRigidBodyExt.obj
 0001:00045040       ?isUnit@PxQuat@physx@@QEBA_NXZ 0000000180046040 f i PhysX3ExtensionsDEBUG:ExtRigidBodyExt.obj
 0001:000450c0       ?isZeroInit@?$Array@PEAVPxShape@physx@@V?$InlineAllocator@$0IA@VNamedAllocator@shdfnd@physx@@@shdfnd@2@@shdfnd@physx@@KA_NAEBQEAVPxShape@3@@Z 00000001800460c0 f i PhysX3ExtensionsDEBUG:ExtRigidBodyExt.obj
 0001:00045140       ?multiply@PxVec3@physx@@QEBA?AV12@AEBV12@@Z 0000000180046140 f i PhysX3ExtensionsDEBUG:ExtRigidBodyExt.obj
 0001:000451e0       ?processTouches@?$PxHitBuffer@UPxSweepHit@physx@@@physx@@MEAA_NPEBUPxSweepHit@2@I@Z 00000001800461e0 f i PhysX3ExtensionsDEBUG:ExtRigidBodyExt.obj
 0001:00045220       ?pushBack@?$Array@VPxMassProperties@physx@@V?$InlineAllocator@$0DEA@VNamedAllocator@shdfnd@physx@@@shdfnd@2@@shdfnd@physx@@QEAAAEAVPxMassProperties@3@AEBV43@@Z 0000000180046220 f i PhysX3ExtensionsDEBUG:ExtRigidBodyExt.obj
 0001:00045330       ?pushBack@?$Array@VPxTransform@physx@@V?$InlineAllocator@$0BMA@VNamedAllocator@shdfnd@physx@@@shdfnd@2@@shdfnd@physx@@QEAAAEAVPxTransform@3@AEBV43@@Z 0000000180046330 f i PhysX3ExtensionsDEBUG:ExtRigidBodyExt.obj
 0001:00045440       ?recreate@?$Array@PEAVPxShape@physx@@V?$InlineAllocator@$0IA@VNamedAllocator@shdfnd@physx@@@shdfnd@2@@shdfnd@physx@@IEAAXI@Z 0000000180046440 f i PhysX3ExtensionsDEBUG:ExtRigidBodyExt.obj
 0001:000455c0       ?recreate@?$Array@VPxMassProperties@physx@@V?$InlineAllocator@$0DEA@VNamedAllocator@shdfnd@physx@@@shdfnd@2@@shdfnd@physx@@IEAAXI@Z 00000001800465c0 f i PhysX3ExtensionsDEBUG:ExtRigidBodyExt.obj
 0001:00045750       ?recreate@?$Array@VPxTransform@physx@@V?$InlineAllocator@$0BMA@VNamedAllocator@shdfnd@physx@@@shdfnd@2@@shdfnd@physx@@IEAAXI@Z 0000000180046750 f i PhysX3ExtensionsDEBUG:ExtRigidBodyExt.obj
 0001:000458e0       ?reserve@?$Array@PEAVPxShape@physx@@V?$InlineAllocator@$0IA@VNamedAllocator@shdfnd@physx@@@shdfnd@2@@shdfnd@physx@@QEAAXI@Z 00000001800468e0 f i PhysX3ExtensionsDEBUG:ExtRigidBodyExt.obj
 0001:00045920       ?reserve@?$Array@VPxMassProperties@physx@@V?$InlineAllocator@$0DEA@VNamedAllocator@shdfnd@physx@@@shdfnd@2@@shdfnd@physx@@QEAAXI@Z 0000000180046920 f i PhysX3ExtensionsDEBUG:ExtRigidBodyExt.obj
 0001:00045960       ?reserve@?$Array@VPxTransform@physx@@V?$InlineAllocator@$0BMA@VNamedAllocator@shdfnd@physx@@@shdfnd@2@@shdfnd@physx@@QEAAXI@Z 0000000180046960 f i PhysX3ExtensionsDEBUG:ExtRigidBodyExt.obj
 0001:000459a0       ?resize@?$Array@PEAVPxShape@physx@@V?$InlineAllocator@$0IA@VNamedAllocator@shdfnd@physx@@@shdfnd@2@@shdfnd@physx@@QEAAXIAEBQEAVPxShape@3@@Z 00000001800469a0 f i PhysX3ExtensionsDEBUG:ExtRigidBodyExt.obj
 0001:00045a70       ?rotate@InertiaTensorComputer@Ext@physx@@QEAAXAEBVPxMat33@3@@Z 0000000180046a70 f i PhysX3ExtensionsDEBUG:ExtRigidBodyExt.obj
 0001:00045c80       ?rotateInertia@PxMassProperties@physx@@SA?AVPxMat33@2@AEBV32@AEBVPxQuat@2@@Z 0000000180046c80 f i PhysX3ExtensionsDEBUG:ExtRigidBodyExt.obj
 0001:00045f00       ?scaleDensity@InertiaTensorComputer@Ext@physx@@QEAAXM@Z 0000000180046f00 f i PhysX3ExtensionsDEBUG:ExtRigidBodyExt.obj
 0001:00046080       ?scaleInertia@PxMassProperties@physx@@SA?AVPxMat33@2@AEBV32@AEBVPxQuat@2@AEBVPxVec3@2@@Z 0000000180047080 f i PhysX3ExtensionsDEBUG:ExtRigidBodyExt.obj
 0001:00046710       ?setBox@InertiaTensorComputer@Ext@physx@@QEAAXAEBVPxVec3@3@PEBVPxTransform@3@@Z 0000000180047710 f i PhysX3ExtensionsDEBUG:ExtRigidBodyExt.obj
 0001:00046760       ?setCapsule@InertiaTensorComputer@Ext@physx@@QEAAXHMMPEBVPxTransform@3@@Z 0000000180047760 f i PhysX3ExtensionsDEBUG:ExtRigidBodyExt.obj
 0001:000467d0       ?setDiagonal@InertiaTensorComputer@Ext@physx@@QEAAXMAEBVPxVec3@3@@Z 00000001800477d0 f i PhysX3ExtensionsDEBUG:ExtRigidBodyExt.obj
 0001:000469a0       ?setSphere@InertiaTensorComputer@Ext@physx@@QEAAXMPEBVPxTransform@3@@Z 00000001800479a0 f i PhysX3ExtensionsDEBUG:ExtRigidBodyExt.obj
 0001:000469f0       ?size@?$Array@PEAVPxShape@physx@@V?$InlineAllocator@$0IA@VNamedAllocator@shdfnd@physx@@@shdfnd@2@@shdfnd@physx@@QEBAIXZ 00000001800479f0 f i PhysX3ExtensionsDEBUG:ExtRigidBodyExt.obj
 0001:00046a10       ?sum@PxMassProperties@physx@@SA?AV12@PEBV12@PEBVPxTransform@2@I@Z 0000000180047a10 f i PhysX3ExtensionsDEBUG:ExtRigidBodyExt.obj
 0001:00047080       ?transform@InertiaTensorComputer@Ext@physx@@QEAAXAEBVPxTransform@3@@Z 0000000180048080 f i PhysX3ExtensionsDEBUG:ExtRigidBodyExt.obj
 0001:000470e0       ?transformFast@PxBounds3@physx@@SA?AV12@AEBVPxTransform@2@AEBV12@@Z 00000001800480e0 f i PhysX3ExtensionsDEBUG:ExtRigidBodyExt.obj
 0001:00047220       ?transformInertiaTensor@Cm@physx@@YAXAEBVPxVec3@2@AEBVPxMat33@2@AEAV42@@Z 0000000180048220 f i PhysX3ExtensionsDEBUG:ExtRigidBodyExt.obj
 0001:00047a50       ?translateInertia@PxMassProperties@physx@@SA?AVPxMat33@2@AEBV32@MAEBVPxVec3@2@@Z 0000000180048a50 f i PhysX3ExtensionsDEBUG:ExtRigidBodyExt.obj
 0001:00047e40       ?volume@Ext@physx@@YAMAEBVPxVec3@2@@Z 0000000180048e40 f i PhysX3ExtensionsDEBUG:ExtRigidBodyExt.obj
 0001:00047ef0       ?zero@InertiaTensorComputer@Ext@physx@@QEAAXXZ 0000000180048ef0 f i PhysX3ExtensionsDEBUG:ExtRigidBodyExt.obj
 0001:00047f56       ?PxGetAssertHandler@physx@@YAAEAVPxAssertHandler@1@XZ 0000000180048f56 f   PxFoundationDEBUG_x64:PxFoundationDEBUG_x64.dll
 0001:00047f5c       ?getAllocator@shdfnd@physx@@YAAEAVPxAllocatorCallback@2@XZ 0000000180048f5c f   PxFoundationDEBUG_x64:PxFoundationDEBUG_x64.dll
 0001:00047f62       ??0NamedAllocator@shdfnd@physx@@QEAA@PEBD@Z 0000000180048f62 f   PxFoundationDEBUG_x64:PxFoundationDEBUG_x64.dll
 0001:00047f68       ?lock@MutexImpl@shdfnd@physx@@QEAAXXZ 0000000180048f68 f   PxFoundationDEBUG_x64:PxFoundationDEBUG_x64.dll
 0001:00047f6e       ?unlock@MutexImpl@shdfnd@physx@@QEAAXXZ 0000000180048f6e f   PxFoundationDEBUG_x64:PxFoundationDEBUG_x64.dll
 0001:00047f74       PxGetProfilerCallback      0000000180048f74 f   PxFoundationDEBUG_x64:PxFoundationDEBUG_x64.dll
 0001:00047f7a       ??0NamedAllocator@shdfnd@physx@@QEAA@AEBV012@@Z 0000000180048f7a f   PxFoundationDEBUG_x64:PxFoundationDEBUG_x64.dll
 0001:00047f80       ??1NamedAllocator@shdfnd@physx@@QEAA@XZ 0000000180048f80 f   PxFoundationDEBUG_x64:PxFoundationDEBUG_x64.dll
 0001:00047f86       ?allocate@NamedAllocator@shdfnd@physx@@QEAAPEAX_KPEBDH@Z 0000000180048f86 f   PxFoundationDEBUG_x64:PxFoundationDEBUG_x64.dll
 0001:00047f8c       ?deallocate@NamedAllocator@shdfnd@physx@@QEAAXPEAX@Z 0000000180048f8c f   PxFoundationDEBUG_x64:PxFoundationDEBUG_x64.dll
 0001:00047f92       PxGetFoundation            0000000180048f92 f   PxFoundationDEBUG_x64:PxFoundationDEBUG_x64.dll
 0001:00047f98       ??0MutexImpl@shdfnd@physx@@QEAA@XZ 0000000180048f98 f   PxFoundationDEBUG_x64:PxFoundationDEBUG_x64.dll
 0001:00047f9e       ??1MutexImpl@shdfnd@physx@@QEAA@XZ 0000000180048f9e f   PxFoundationDEBUG_x64:PxFoundationDEBUG_x64.dll
 0001:00047fa4       ?getSize@MutexImpl@shdfnd@physx@@SAAEBIXZ 0000000180048fa4 f   PxFoundationDEBUG_x64:PxFoundationDEBUG_x64.dll
 0001:00047faa       ?getInstance@Foundation@shdfnd@physx@@SAAEAV123@XZ 0000000180048faa f   PxFoundationDEBUG_x64:PxFoundationDEBUG_x64.dll
 0001:00047fb0       ?incRefCount@Foundation@shdfnd@physx@@SAXXZ 0000000180048fb0 f   PxFoundationDEBUG_x64:PxFoundationDEBUG_x64.dll
 0001:00047fb6       ?decRefCount@Foundation@shdfnd@physx@@SAXXZ 0000000180048fb6 f   PxFoundationDEBUG_x64:PxFoundationDEBUG_x64.dll
 0001:00047fbc       ?error@Foundation@shdfnd@physx@@QEAAXW4Enum@PxErrorCode@3@PEBDH1ZZ 0000000180048fbc f   PxFoundationDEBUG_x64:PxFoundationDEBUG_x64.dll
 0001:00047fc2       ?PxShortestRotation@physx@@YA?AVPxQuat@1@AEBVPxVec3@1@0@Z 0000000180048fc2 f   PxFoundationDEBUG_x64:PxFoundationDEBUG_x64.dll
 0001:00047fc8       ?PxDiagonalize@physx@@YA?AVPxVec3@1@AEBVPxMat33@1@AEAVPxQuat@1@@Z 0000000180048fc8 f   PxFoundationDEBUG_x64:PxFoundationDEBUG_x64.dll
 0001:00047fce       ?sweep@PxMeshQuery@physx@@SA_NAEBVPxVec3@2@MAEBVPxGeometry@2@AEBVPxTransform@2@IPEBVPxTriangle@2@AEAUPxSweepHit@2@V?$PxFlags@W4Enum@PxHitFlag@physx@@G@2@PEBIM_N@Z 0000000180048fce f   PhysX3CommonDEBUG_x64:PhysX3CommonDEBUG_x64.dll
 0001:00047fd4       ??0RenderOutput@Cm@physx@@QEAA@AEAVRenderBuffer@12@@Z 0000000180048fd4 f   PhysX3CommonDEBUG_x64:PhysX3CommonDEBUG_x64.dll
 0001:00047fda       ??6RenderOutput@Cm@physx@@QEAAAEAV012@I@Z 0000000180048fda f   PhysX3CommonDEBUG_x64:PhysX3CommonDEBUG_x64.dll
 0001:00047fe0       ??6RenderOutput@Cm@physx@@QEAAAEAV012@AEBVPxTransform@2@@Z 0000000180048fe0 f   PhysX3CommonDEBUG_x64:PhysX3CommonDEBUG_x64.dll
 0001:00047fe6       ?outputCapsule@RenderOutput@Cm@physx@@QEAAAEAV123@MMAEBVPxMat44@3@@Z 0000000180048fe6 f   PhysX3CommonDEBUG_x64:PhysX3CommonDEBUG_x64.dll
 0001:00047fec       ??6Cm@physx@@YAAEAVRenderOutput@01@AEAV201@AEBUDebugBox@01@@Z 0000000180048fec f   PhysX3CommonDEBUG_x64:PhysX3CommonDEBUG_x64.dll
 0001:00047ff2       ?PxTransformFromSegment@physx@@YA?AVPxTransform@1@AEBVPxVec3@1@0PEAM@Z 0000000180048ff2 f   PhysX3CommonDEBUG_x64:PhysX3CommonDEBUG_x64.dll
 0001:00047ff8       ?sweep@PxGeometryQuery@physx@@SA_NAEBVPxVec3@2@MAEBVPxGeometry@2@AEBVPxTransform@2@12AEAUPxSweepHit@2@V?$PxFlags@W4Enum@PxHitFlag@physx@@G@2@M@Z 0000000180048ff8 f   PhysX3CommonDEBUG_x64:PhysX3CommonDEBUG_x64.dll
 0001:00047ffe       ?computePenetration@PxGeometryQuery@physx@@SA_NAEAVPxVec3@2@AEAMAEBVPxGeometry@2@AEBVPxTransform@2@23@Z 0000000180048ffe f   PhysX3CommonDEBUG_x64:PhysX3CommonDEBUG_x64.dll
 0001:00048004       ??0Box@Gu@physx@@QEAA@AEBVPxVec3@2@0AEBVPxMat33@2@@Z 0000000180049004 f   PhysX3CommonDEBUG_x64:PhysX3CommonDEBUG_x64.dll
 0001:0004800a       ??1Box@Gu@physx@@QEAA@XZ   000000018004900a f   PhysX3CommonDEBUG_x64:PhysX3CommonDEBUG_x64.dll
 0001:00048010       ?intersectOBBOBB@Gu@physx@@YA_NAEBVPxVec3@2@0AEBVPxMat33@2@001_N@Z 0000000180049010 f   PhysX3CommonDEBUG_x64:PhysX3CommonDEBUG_x64.dll
 0001:00048016       ?distanceSegmentBoxSquared@Gu@physx@@YAMAEBVPxVec3@2@000AEBVPxMat33@2@PEAMPEAV32@@Z 0000000180049016 f   PhysX3CommonDEBUG_x64:PhysX3CommonDEBUG_x64.dll
 0001:0004801c       ?getTriangle@PxMeshQuery@physx@@SAXAEBVPxTriangleMeshGeometry@2@AEBVPxTransform@2@IAEAVPxTriangle@2@PEAI3@Z 000000018004901c f   PhysX3CommonDEBUG_x64:PhysX3CommonDEBUG_x64.dll
 0001:00048022       ?getTriangle@PxMeshQuery@physx@@SAXAEBVPxHeightFieldGeometry@2@AEBVPxTransform@2@IAEAVPxTriangle@2@PEAI3@Z 0000000180049022 f   PhysX3CommonDEBUG_x64:PhysX3CommonDEBUG_x64.dll
 0001:00048028       ??6RenderOutput@Cm@physx@@QEAAAEAV012@W4Primitive@012@@Z 0000000180049028 f   PhysX3CommonDEBUG_x64:PhysX3CommonDEBUG_x64.dll
 0001:0004802e       ??6RenderOutput@Cm@physx@@QEAAAEAV012@VPxVec3@2@@Z 000000018004902e f   PhysX3CommonDEBUG_x64:PhysX3CommonDEBUG_x64.dll
 0001:00048034       ?intersectTriangleBox_Unsafe@Gu@physx@@YAHAEBVPxVec3@2@0000@Z 0000000180049034 f   PhysX3CommonDEBUG_x64:PhysX3CommonDEBUG_x64.dll
 0001:0004803a       ?CompleteBoxPruning@Cm@physx@@YA_NPEBVPxBounds3@2@IAEAV?$Array@IVNamedAllocator@shdfnd@physx@@@shdfnd@2@AEBVAxes@Gu@2@@Z 000000018004903a f   PhysX3CommonDEBUG_x64:PhysX3CommonDEBUG_x64.dll
 0001:00048040       ?distanceSegmentSegmentSquared@Gu@physx@@YAMAEBVPxVec3@2@000PEAM1@Z 0000000180049040 f   PhysX3CommonDEBUG_x64:PhysX3CommonDEBUG_x64.dll
 0001:00048046       ?getRaycastFuncTable@Gu@physx@@YAAEAY06Q6AIAEBVPxGeometry@2@AEBVPxTransform@2@AEBVPxVec3@2@2MV?$PxFlags@W4Enum@PxHitFlag@physx@@G@2@IPEIAUPxRaycastHit@2@@ZXZ 0000000180049046 f   PhysX3CommonDEBUG_x64:PhysX3CommonDEBUG_x64.dll
 0001:0004804c       ?findOverlapTriangleMesh@PxMeshQuery@physx@@SAIAEBVPxGeometry@2@AEBVPxTransform@2@AEBVPxTriangleMeshGeometry@2@1PEAIIIAEA_N@Z 000000018004904c f   PhysX3CommonDEBUG_x64:PhysX3CommonDEBUG_x64.dll
 0001:00048052       ?findOverlapHeightField@PxMeshQuery@physx@@SAIAEBVPxGeometry@2@AEBVPxTransform@2@AEBVPxHeightFieldGeometry@2@1PEAIIIAEA_N@Z 0000000180049052 f   PhysX3CommonDEBUG_x64:PhysX3CommonDEBUG_x64.dll
 0001:00048060       ??3@YAXPEAX_K@Z            0000000180049060 f   LIBCMTD:delete_scalar_size.obj
 0001:00048090       ??_V@YAXPEAX_K@Z           0000000180049090 f   LIBCMTD:delete_array_size.obj
 0001:000480c0       _CRT_RTC_INIT              00000001800490c0 f   LIBCMTD:_init_.obj
 0001:000480d0       _CRT_RTC_INITW             00000001800490d0 f   LIBCMTD:_init_.obj
 0001:000480e0       _RTC_InitBase              00000001800490e0 f   LIBCMTD:_init_.obj
 0001:00048130       _RTC_Shutdown              0000000180049130 f   LIBCMTD:_init_.obj
 0001:00048170       __chkstk                   0000000180049170 f   LIBCMTD:_chkstk_.obj
 0001:00048170       _alloca_probe              0000000180049170 f   LIBCMTD:_chkstk_.obj
 0001:000481e0       ?__scrt_initialize_type_info@@YAXXZ 00000001800491e0 f   LIBCMTD:tncleanup.obj
 0001:00048200       ?__scrt_uninitialize_type_info@@YAXXZ 0000000180049200 f   LIBCMTD:tncleanup.obj
 0001:00048220       ??1type_info@@UEAA@XZ      0000000180049220 f   LIBCMTD:std_type_info_static.obj
 0001:00048240       ??_Gtype_info@@UEAAPEAXI@Z 0000000180049240 f i LIBCMTD:std_type_info_static.obj
 0001:00048240       ??_Etype_info@@UEAAPEAXI@Z 0000000180049240 f i LIBCMTD:std_type_info_static.obj
 0001:00048780       _CRT_INIT                  0000000180049780 f   LIBCMTD:dll_dllmain.obj
 0001:000487c0       _DllMainCRTStartup         00000001800497c0 f   LIBCMTD:dll_dllmain.obj
 0001:00048810       ??3@YAXPEAX@Z              0000000180049810 f   LIBCMTD:delete_scalar.obj
 0001:00048840       ??_V@YAXPEAX@Z             0000000180049840 f   LIBCMTD:delete_array.obj
 0001:00048860       ?_RTC_GetErrorFunc@@YAP6AHHPEBDH00ZZPEBX@Z 0000000180049860 f   LIBCMTD:_userapi_.obj
 0001:00048870       ?_RTC_GetErrorFuncW@@YAP6AHHPEB_WH00ZZPEBX@Z 0000000180049870 f   LIBCMTD:_userapi_.obj
 0001:00048880       _RTC_GetErrDesc            0000000180049880 f   LIBCMTD:_userapi_.obj
 0001:000488a0       _RTC_NumErrors             00000001800498a0 f   LIBCMTD:_userapi_.obj
 0001:000488b0       _RTC_SetErrorFunc          00000001800498b0 f   LIBCMTD:_userapi_.obj
 0001:000488d0       _RTC_SetErrorFuncW         00000001800498d0 f   LIBCMTD:_userapi_.obj
 0001:000488f0       _RTC_SetErrorType          00000001800498f0 f   LIBCMTD:_userapi_.obj
 0001:00048920       ??$__crt_fast_decode_pointer@PEAP6AXXZ@@YAPEAP6AXXZQEAP6AXXZ@Z 0000000180049920 f i LIBCMTD:utility.obj
 0001:00048970       ??$__crt_fast_encode_pointer@PEAP6AXXZ@@YAPEAP6AXXZQEAP6AXXZ@Z 0000000180049970 f i LIBCMTD:utility.obj
 0001:000489c0       ?__crt_rotate_pointer_value@@YA_K_KH@Z 00000001800499c0 f i LIBCMTD:utility.obj
 0001:000489e0       ?configure_argv@__scrt_narrow_argv_policy@@SAHXZ 00000001800499e0 f i LIBCMTD:utility.obj
 0001:00048bb0       NtCurrentTeb               0000000180049bb0 f i LIBCMTD:utility.obj
 0001:00048bc0       __scrt_acquire_startup_lock 0000000180049bc0 f   LIBCMTD:utility.obj
 0001:00048c40       __scrt_dllmain_after_initialize_c 0000000180049c40 f   LIBCMTD:utility.obj
 0001:00048c80       __scrt_dllmain_before_initialize_c 0000000180049c80 f   LIBCMTD:utility.obj
 0001:00048cb0       __scrt_dllmain_crt_thread_attach 0000000180049cb0 f   LIBCMTD:utility.obj
 0001:00048cf0       __scrt_dllmain_crt_thread_detach 0000000180049cf0 f   LIBCMTD:utility.obj
 0001:00048d10       __scrt_dllmain_exception_filter 0000000180049d10 f   LIBCMTD:utility.obj
 0001:00048d90       __scrt_dllmain_uninitialize_c 0000000180049d90 f   LIBCMTD:utility.obj
 0001:00048dd0       __scrt_dllmain_uninitialize_critical 0000000180049dd0 f   LIBCMTD:utility.obj
 0001:00048df0       __scrt_initialize_crt      0000000180049df0 f   LIBCMTD:utility.obj
 0001:00048e50       __scrt_initialize_onexit_tables 0000000180049e50 f   LIBCMTD:utility.obj
 0001:00048f90       __scrt_is_nonwritable_in_current_image 0000000180049f90 f   LIBCMTD:utility.obj
 0001:00049040       __scrt_release_startup_lock 000000018004a040 f   LIBCMTD:utility.obj
 0001:00049080       __scrt_uninitialize_crt    000000018004a080 f   LIBCMTD:utility.obj
 0001:000490d0       _onexit                    000000018004a0d0 f   LIBCMTD:utility.obj
 0001:00049180       at_quick_exit              000000018004a180 f   LIBCMTD:utility.obj
 0001:000491f0       atexit                     000000018004a1f0 f   LIBCMTD:utility.obj
 0001:00049230       __security_init_cookie     000000018004a230 f   LIBCMTD:gs_support.obj
 0001:00049390       DllMain                    000000018004a390 f   LIBCMTD:dll_dllmain_stub.obj
 0001:000493b0       __local_stdio_printf_options 000000018004a3b0 f i LIBCMTD:default_local_stdio_options.obj
 0001:000493c0       __local_stdio_scanf_options 000000018004a3c0 f i LIBCMTD:default_local_stdio_options.obj
 0001:000493d0       __scrt_initialize_default_local_stdio_options 000000018004a3d0 f   LIBCMTD:default_local_stdio_options.obj
 0001:00049430       __scrt_get_dyn_tls_init_callback 000000018004a430 f   LIBCMTD:dyn_tls_init.obj
 0001:00049440       __crt_debugger_hook        000000018004a440 f   LIBCMTD:utility_desktop.obj
 0001:00049460       __scrt_fastfail            000000018004a460 f   LIBCMTD:utility_desktop.obj
 0001:00049660       __scrt_get_show_window_mode 000000018004a660 f   LIBCMTD:utility_desktop.obj
 0001:000496d0       __scrt_initialize_winrt    000000018004a6d0 f   LIBCMTD:utility_desktop.obj
 0001:000496e0       __scrt_is_managed_app      000000018004a6e0 f   LIBCMTD:utility_desktop.obj
 0001:000497b0       __scrt_set_unhandled_exception_filter 000000018004a7b0 f   LIBCMTD:utility_desktop.obj
 0001:000497d0       __scrt_unhandled_exception_filter 000000018004a7d0 f   LIBCMTD:utility_desktop.obj
 0001:00049860       _RTC_Initialize            000000018004a860 f   LIBCMTD:_initsect_.obj
 0001:000498c0       _RTC_Terminate             000000018004a8c0 f   LIBCMTD:_initsect_.obj
 0001:00049920       _guard_check_icall         000000018004a920 f i LIBCMTD:checkcfg.obj
 0001:00049940       ??$__vcrt_va_start_verify_argument_type@QEBD@@YAXXZ 000000018004a940 f i LIBCMTD:_error_.obj
 0001:00049a20       ?_RTC_AllocaFailure@@YAXPEAXPEAU_RTC_ALLOCA_NODE@@H@Z 000000018004aa20 f   LIBCMTD:_error_.obj
 0001:00049c10       ?_RTC_Failure@@YAXPEAXH@Z  000000018004ac10 f   LIBCMTD:_error_.obj
 0001:00049c80       ?_RTC_StackFailure@@YAXPEAXPEBD@Z 000000018004ac80 f   LIBCMTD:_error_.obj
 0001:0004a210       _RTC_UninitUse             000000018004b210 f   LIBCMTD:_error_.obj
 0001:0004a380       _vsprintf_s_l              000000018004b380 f i LIBCMTD:_error_.obj
 0001:0004a400       sprintf_s                  000000018004b400 f i LIBCMTD:_error_.obj
 0001:0004a450       __isa_available_init       000000018004b450 f   LIBCMTD:_cpu_disp_.obj
 0001:0004a8b0       _get_startup_argv_mode     000000018004b8b0 f   LIBCMTD:argv_mode.obj
 0001:0004a8c0       __scrt_is_ucrt_dll_in_use  000000018004b8c0 f   LIBCMTD:ucrt_detection.obj
 0001:0004a8f0       _guard_check_icall_nop     000000018004b8f0 f i LIBCMTD:guard_support.obj
 0001:0004a900       _guard_icall_checks_enforced 000000018004b900 f i LIBCMTD:guard_support.obj
 0001:0004af60       ?_RTC_GetSrcLine@@YAHPEAEPEA_WKPEAH1K@Z 000000018004bf60 f   LIBCMTD:_pdblkup_.obj
 0001:0004b4f0       __GSHandlerCheck           000000018004c4f0 f   LIBCMTD:_gshandler_.obj
 0001:0004b540       __GSHandlerCheckCommon     000000018004c540 f   LIBCMTD:_gshandler_.obj
 0001:0004b690       __security_check_cookie    000000018004c690 f   LIBCMTD:_amdsecgs_.obj
 0001:0004b6c0       __raise_securityfailure    000000018004c6c0 f   LIBCMTD:gs_report.obj
 0001:0004b710       __report_gsfailure         000000018004c710 f   LIBCMTD:gs_report.obj
 0001:0004b820       __report_rangecheckfailure 000000018004c820 f   LIBCMTD:gs_report.obj
 0001:0004b840       __report_securityfailure   000000018004c840 f   LIBCMTD:gs_report.obj
 0001:0004b910       __report_securityfailureEx 000000018004c910 f   LIBCMTD:gs_report.obj
 0001:0004bc10       ??$__crt_fast_decode_pointer@P6AXXZ@@YAP6AXXZQ6AXXZ@Z 000000018004cc10 f i libvcruntimed:purevirt.obj
 0001:0004bc60       ??$__crt_fast_encode_pointer@P6AXXZ@@YAP6AXXZQ6AXXZ@Z 000000018004cc60 f i libvcruntimed:purevirt.obj
 0001:0004bcb0       ??$__crt_interlocked_compare_exchange_pointer@$$A6AXXZ$$T$$T@@YAP6AXXZPEDS6AXXZ$$T1@Z 000000018004ccb0 f i libvcruntimed:purevirt.obj
 0001:0004bd00       ??$__crt_interlocked_exchange_pointer@$$A6AXXZP6AXXZ@@YAP6AXXZPEDS6AXXZQ6AXXZ@Z 000000018004cd00 f i libvcruntimed:purevirt.obj
 0001:0004bd20       ??$__crt_interlocked_read_pointer@$$A6AXXZ@@YAP6AXXZPEDS6AXXZ@Z 000000018004cd20 f i libvcruntimed:purevirt.obj
 0001:0004bd50       _get_purecall_handler      000000018004cd50 f   libvcruntimed:purevirt.obj
 0001:0004bd80       _purecall                  000000018004cd80 f   libvcruntimed:purevirt.obj
 0001:0004bdd0       _set_purecall_handler      000000018004cdd0 f   libvcruntimed:purevirt.obj
 0001:0004be20       memcpy                     000000018004ce20 f   libvcruntimed:memcpy.obj
 0001:0004be20       memmove                    000000018004ce20 f   libvcruntimed:memcpy.obj
 0001:0004c380       memset                     000000018004d380 f   libvcruntimed:memset.obj
 0001:0004c5d0       ??$?RD@__crt_internal_free_policy@@QEBAXQEBD@Z 000000018004d5d0 f i libvcruntimed:std_type_info.obj
 0001:0004c600       ??$?RX@__crt_internal_free_policy@@QEBAXQEBX@Z 000000018004d600 f i libvcruntimed:std_type_info.obj
 0001:0004c630       ??$__crt_interlocked_compare_exchange_pointer@$$CBD$$T$$T@@YAPEBDPEDSEBD$$T1@Z 000000018004d630 f i libvcruntimed:std_type_info.obj
 0001:0004c680       ??$__crt_interlocked_compare_exchange_pointer@$$CBDPEAD$$T@@YAPEBDPEDSEBDQEAD$$T@Z 000000018004d680 f i libvcruntimed:std_type_info.obj
 0001:0004c6d0       ??$__crt_interlocked_read_pointer@$$CBD@@YAPEBDPEDSEBD@Z 000000018004d6d0 f i libvcruntimed:std_type_info.obj
 0001:0004c700       ??0?$__crt_unique_heap_ptr@DU__crt_internal_free_policy@@@@QEAA@QEAD@Z 000000018004d700 f i libvcruntimed:std_type_info.obj
 0001:0004c730       ??0?$__crt_unique_heap_ptr@XU__crt_internal_free_policy@@@@QEAA@QEAX@Z 000000018004d730 f i libvcruntimed:std_type_info.obj
 0001:0004c760       ??1?$__crt_unique_heap_ptr@DU__crt_internal_free_policy@@@@QEAA@XZ 000000018004d760 f i libvcruntimed:std_type_info.obj
 0001:0004c780       ??1?$__crt_unique_heap_ptr@XU__crt_internal_free_policy@@@@QEAA@XZ 000000018004d780 f i libvcruntimed:std_type_info.obj
 0001:0004c7c0       ??B?$__crt_unique_heap_ptr@DU__crt_internal_free_policy@@@@QEBA_NXZ 000000018004d7c0 f i libvcruntimed:std_type_info.obj
 0001:0004c7e0       ??B?$__crt_unique_heap_ptr@XU__crt_internal_free_policy@@@@QEBA_NXZ 000000018004d7e0 f i libvcruntimed:std_type_info.obj
 0001:0004c870       ?detach@?$__crt_unique_heap_ptr@XU__crt_internal_free_policy@@@@QEAAPEAXXZ 000000018004d870 f i libvcruntimed:std_type_info.obj
 0001:0004c8b0       ?get@?$__crt_unique_heap_ptr@DU__crt_internal_free_policy@@@@QEBAPEADXZ 000000018004d8b0 f i libvcruntimed:std_type_info.obj
 0001:0004c8d0       ?get@?$__crt_unique_heap_ptr@XU__crt_internal_free_policy@@@@QEBAPEAXXZ 000000018004d8d0 f i libvcruntimed:std_type_info.obj
 0001:0004c8f0       ?is_valid@?$__crt_unique_heap_ptr@DU__crt_internal_free_policy@@@@QEBA_NXZ 000000018004d8f0 f i libvcruntimed:std_type_info.obj
 0001:0004c930       ?is_valid@?$__crt_unique_heap_ptr@XU__crt_internal_free_policy@@@@QEBA_NXZ 000000018004d930 f i libvcruntimed:std_type_info.obj
 0001:0004c970       ?release@?$__crt_unique_heap_ptr@DU__crt_internal_free_policy@@@@QEAAXXZ 000000018004d970 f i libvcruntimed:std_type_info.obj
 0001:0004c9b0       ?release@?$__crt_unique_heap_ptr@XU__crt_internal_free_policy@@@@QEAAXXZ 000000018004d9b0 f i libvcruntimed:std_type_info.obj
 0001:0004c9f0       __std_type_info_compare    000000018004d9f0 f   libvcruntimed:std_type_info.obj
 0001:0004ca40       __std_type_info_destroy_list 000000018004da40 f   libvcruntimed:std_type_info.obj
 0001:0004cab0       __std_type_info_hash       000000018004dab0 f   libvcruntimed:std_type_info.obj
 0001:0004cb90       __std_type_info_name       000000018004db90 f   libvcruntimed:std_type_info.obj
 0001:0004cf20       memcmp                     000000018004df20 f   libvcruntimed:memcmp.obj
 0001:0004d020       __C_specific_handler       000000018004e020 f   libvcruntimed:_chandler_.obj
 0001:0004d570       __vcrt_initialize          000000018004e570 f   libvcruntimed:initialization.obj
 0001:0004d5c0       __vcrt_thread_attach       000000018004e5c0 f   libvcruntimed:initialization.obj
 0001:0004d5e0       __vcrt_thread_detach       000000018004e5e0 f   libvcruntimed:initialization.obj
 0001:0004d600       __vcrt_uninitialize        000000018004e600 f   libvcruntimed:initialization.obj
 0001:0004d630       __vcrt_uninitialize_critical 000000018004e630 f   libvcruntimed:initialization.obj
 0001:0004d660       __vcrt_GetModuleFileNameW  000000018004e660 f   libvcruntimed:winapi_thunks.obj
 0001:0004d6a0       __vcrt_GetModuleHandleW    000000018004e6a0 f   libvcruntimed:winapi_thunks.obj
 0001:0004d6c0       __vcrt_LoadLibraryExW      000000018004e6c0 f   libvcruntimed:winapi_thunks.obj
 0001:0004d700       ??$?B$$A6AXXZ@__crt_fast_encoded_nullptr_t@@QEBAP6AXXZXZ 000000018004e700 f i libvcruntimed:purevirt_data.obj
 0001:0004d720       ?__crt_fast_encode_pointer@@YA?AU__crt_fast_encoded_nullptr_t@@$$T@Z 000000018004e720 f i libvcruntimed:purevirt_data.obj
 0001:0004d740       __vcrt_initialize_pure_virtual_call_handler 000000018004e740 f   libvcruntimed:purevirt_data.obj
 0001:0004d770       ??0Block@_HeapManager@@QEAA@XZ 000000018004e770 f i libvcruntimed:undname.obj
 0001:0004d790       ??0DName@@QEAA@AEAPEBDD@Z  000000018004e790 f   libvcruntimed:undname.obj
 0001:0004dbb0       ??0DName@@QEAA@AEBV0@@Z    000000018004ebb0 f i libvcruntimed:undname.obj
 0001:0004dbe0       ??0DName@@QEAA@D@Z         000000018004ebe0 f   libvcruntimed:undname.obj
 0001:0004dd20       ??0DName@@QEAA@PEAV0@@Z    000000018004ed20 f   libvcruntimed:undname.obj
 0001:0004df00       ??0DName@@QEAA@PEBD@Z      000000018004ef00 f   libvcruntimed:undname.obj
 0001:0004e050       ??0DName@@QEAA@W4DNameStatus@@@Z 000000018004f050 f   libvcruntimed:undname.obj
 0001:0004e1f0       ??0DName@@QEAA@XZ          000000018004f1f0 f i libvcruntimed:undname.obj
 0001:0004e2f0       ??0DName@@QEAA@_J@Z        000000018004f2f0 f   libvcruntimed:undname.obj
 0001:0004e520       ??0DName@@QEAA@_K@Z        000000018004f520 f   libvcruntimed:undname.obj
 0001:0004e700       ??0DNameNode@@IEAA@XZ      000000018004f700 f   libvcruntimed:undname.obj
 0001:0004e720       ??0DNameStatusNode@@AEAA@W4DNameStatus@@@Z 000000018004f720 f   libvcruntimed:undname.obj
 0001:0004e7a0       ??0Replicator@@QEAA@XZ     000000018004f7a0 f i libvcruntimed:undname.obj
 0001:0004e7c0       ??0UnDecorator@@QEAA@PEADPEBDHP6APEADJ@ZK@Z 000000018004f7c0 f i libvcruntimed:undname.obj
 0001:0004e8c0       ??0charNode@@QEAA@D@Z      000000018004f8c0 f   libvcruntimed:undname.obj
 0001:0004e910       ??0pDNameNode@@QEAA@PEAVDName@@@Z 000000018004f910 f   libvcruntimed:undname.obj
 0001:0004e9b0       ??0pairNode@@QEAA@PEAVDNameNode@@0@Z 000000018004f9b0 f   libvcruntimed:undname.obj
 0001:0004ea30       ??0pcharNode@@QEAA@PEBDH@Z 000000018004fa30 f   libvcruntimed:undname.obj
 0001:0004eb30       ??2@YAPEAX_KAEAV_HeapManager@@H@Z 000000018004fb30 f i libvcruntimed:undname.obj
 0001:0004eb70       ??4DName@@QEAAAEAV0@AEBV0@@Z 000000018004fb70 f   libvcruntimed:undname.obj
 0001:0004eba0       ??4DName@@QEAAAEAV0@D@Z    000000018004fba0 f i libvcruntimed:undname.obj
 0001:0004ece0       ??4DName@@QEAAAEAV0@PEAV0@@Z 000000018004fce0 f   libvcruntimed:undname.obj
 0001:0004eeb0       ??4DName@@QEAAAEAV0@PEBD@Z 000000018004feb0 f   libvcruntimed:undname.obj
 0001:0004eff0       ??4DName@@QEAAAEAV0@W4DNameStatus@@@Z 000000018004fff0 f   libvcruntimed:undname.obj
 0001:0004f160       ??AReplicator@@QEBA?AVDName@@H@Z 0000000180050160 f   libvcruntimed:undname.obj
 0001:0004f210       ??BUnDecorator@@QEAAPEADXZ 0000000180050210 f i libvcruntimed:undname.obj
 0001:0004f610       ??H@YA?AVDName@@DAEBV0@@Z  0000000180050610 f i libvcruntimed:undname.obj
 0001:0004f660       ??H@YA?AVDName@@PEBDAEBV0@@Z 0000000180050660 f i libvcruntimed:undname.obj
 0001:0004f6b0       ??H@YA?AVDName@@W4DNameStatus@@AEBV0@@Z 00000001800506b0 f i libvcruntimed:undname.obj
 0001:0004f700       ??HDName@@QEBA?AV0@AEBV0@@Z 0000000180050700 f   libvcruntimed:undname.obj
 0001:0004f760       ??HDName@@QEBA?AV0@D@Z     0000000180050760 f   libvcruntimed:undname.obj
 0001:0004f7c0       ??HDName@@QEBA?AV0@PEAV0@@Z 00000001800507c0 f   libvcruntimed:undname.obj
 0001:0004f820       ??HDName@@QEBA?AV0@PEBD@Z  0000000180050820 f   libvcruntimed:undname.obj
 0001:0004f880       ??HDName@@QEBA?AV0@W4DNameStatus@@@Z 0000000180050880 f   libvcruntimed:undname.obj
 0001:0004f8e0       ??YDName@@QEAAAEAV0@AEBV0@@Z 00000001800508e0 f   libvcruntimed:undname.obj
 0001:0004f980       ??YDName@@QEAAAEAV0@D@Z    0000000180050980 f   libvcruntimed:undname.obj
 0001:0004fa50       ??YDName@@QEAAAEAV0@PEAV0@@Z 0000000180050a50 f   libvcruntimed:undname.obj
 0001:0004fb70       ??YDName@@QEAAAEAV0@PEBD@Z 0000000180050b70 f   libvcruntimed:undname.obj
 0001:0004fc60       ??YDName@@QEAAAEAV0@W4DNameStatus@@@Z 0000000180050c60 f   libvcruntimed:undname.obj
 0001:0004fcf0       ??YReplicator@@QEAAAEAV0@AEBVDName@@@Z 0000000180050cf0 f   libvcruntimed:undname.obj
 0001:0004fde0       ??_5DName@@QEAAAEAV0@AEBV0@@Z 0000000180050de0 f   libvcruntimed:undname.obj
 0001:0004fe60       ?Constructor@_HeapManager@@QEAAXP6APEAX_K@ZP6AXPEAX@Z@Z 0000000180050e60 f i libvcruntimed:undname.obj
 0001:0004fed0       ?Destructor@_HeapManager@@QEAAXXZ 0000000180050ed0 f i libvcruntimed:undname.obj
 0001:0004ff70       ?UScore@UnDecorator@@SAPEBDW4Tokens@@@Z 0000000180050f70 f   libvcruntimed:undname.obj
 0001:0004ffc0       ?append@DName@@AEAAXPEAVDNameNode@@@Z 0000000180050fc0 f   libvcruntimed:undname.obj
 0001:000500a0       ?composeDeclaration@UnDecorator@@CA?AVDName@@AEBV2@@Z 00000001800510a0 f i libvcruntimed:undname.obj
 0001:00052990       ?dbGetString@DName@@QEBAPEADXZ 0000000180053990 f   libvcruntimed:undname.obj
 0001:000529d0       ?doAccessSpecifiers@UnDecorator@@SAHXZ 00000001800539d0 f i libvcruntimed:undname.obj
 0001:00052a10       ?doAllocationLanguage@UnDecorator@@SAHXZ 0000000180053a10 f i libvcruntimed:undname.obj
 0001:00052a50       ?doAllocationModel@UnDecorator@@SAHXZ 0000000180053a50 f i libvcruntimed:undname.obj
 0001:00052a90       ?doEcsu@UnDecorator@@SAHXZ 0000000180053a90 f i libvcruntimed:undname.obj
 0001:00052ad0       ?doEllipsis@UnDecorator@@SAHXZ 0000000180053ad0 f i libvcruntimed:undname.obj
 0001:00052b10       ?doFunctionReturns@UnDecorator@@SAHXZ 0000000180053b10 f i libvcruntimed:undname.obj
 0001:00052b50       ?doMSKeywords@UnDecorator@@SAHXZ 0000000180053b50 f i libvcruntimed:undname.obj
 0001:00052b90       ?doMemberTypes@UnDecorator@@SAHXZ 0000000180053b90 f i libvcruntimed:undname.obj
 0001:00052bd0       ?doNameOnly@UnDecorator@@SAHXZ 0000000180053bd0 f i libvcruntimed:undname.obj
 0001:00052be0       ?doNoIdentCharCheck@UnDecorator@@SAHXZ 0000000180053be0 f i libvcruntimed:undname.obj
 0001:00052bf0       ?doPchar@DName@@AEAAXPEBDH@Z 0000000180053bf0 f   libvcruntimed:undname.obj
 0001:00052de0       ?doPtr64@UnDecorator@@SAHXZ 0000000180053de0 f i libvcruntimed:undname.obj
 0001:00052e20       ?doRestrictionSpec@UnDecorator@@SAHXZ 0000000180053e20 f i libvcruntimed:undname.obj
 0001:00052e60       ?doThisTypes@UnDecorator@@SAHXZ 0000000180053e60 f i libvcruntimed:undname.obj
 0001:00052ea0       ?doThrowTypes@UnDecorator@@SAHXZ 0000000180053ea0 f i libvcruntimed:undname.obj
 0001:00052ee0       ?doTypeOnly@UnDecorator@@SAHXZ 0000000180053ee0 f i libvcruntimed:undname.obj
 0001:00052ef0       ?doUnderScore@UnDecorator@@SAHXZ 0000000180053ef0 f i libvcruntimed:undname.obj
 0001:00052f30       ?getArgumentList@UnDecorator@@CA?AVDName@@XZ 0000000180053f30 f   libvcruntimed:undname.obj
 0001:00053130       ?getArgumentTypes@UnDecorator@@CA?AVDName@@XZ 0000000180054130 f   libvcruntimed:undname.obj
 0001:00053360       ?getArrayType@UnDecorator@@CA?AVDName@@AEBV2@@Z 0000000180054360 f i libvcruntimed:undname.obj
 0001:00053710       ?getBasedType@UnDecorator@@CA?AVDName@@XZ 0000000180054710 f   libvcruntimed:undname.obj
 0001:00053840       ?getBasicDataType@UnDecorator@@CA?AVDName@@AEBV2@@Z 0000000180054840 f   libvcruntimed:undname.obj
 0001:00054160       ?getCallIndex@UnDecorator@@CA?AVDName@@XZ 0000000180055160 f i libvcruntimed:undname.obj
 0001:00054190       ?getCallingConvention@UnDecorator@@CA?AVDName@@XZ 0000000180055190 f   libvcruntimed:undname.obj
 0001:00054400       ?getDataIndirectType@UnDecorator@@CA?AVDName@@AEBV2@PEBD0H@Z 0000000180055400 f   libvcruntimed:undname.obj
 0001:000550e0       ?getDataIndirectType@UnDecorator@@CA?AVDName@@XZ 00000001800560e0 f i libvcruntimed:undname.obj
 0001:00055150       ?getDataType@UnDecorator@@CA?AVDName@@PEAV2@@Z 0000000180056150 f   libvcruntimed:undname.obj
 0001:00055340       ?getDecoratedName@UnDecorator@@CA?AVDName@@XZ 0000000180056340 f   libvcruntimed:undname.obj
 0001:00055840       ?getDimension@UnDecorator@@CA?AVDName@@_N@Z 0000000180056840 f   libvcruntimed:undname.obj
 0001:00055c80       ?getDispatchTarget@UnDecorator@@CA?AVDName@@XZ 0000000180056c80 f   libvcruntimed:undname.obj
 0001:00055d80       ?getDisplacement@UnDecorator@@CA?AVDName@@XZ 0000000180056d80 f i libvcruntimed:undname.obj
 0001:00055db0       ?getECSUDataType@UnDecorator@@CA?AVDName@@XZ 0000000180056db0 f   libvcruntimed:undname.obj
 0001:00056080       ?getECSUName@UnDecorator@@CA?AVDName@@XZ 0000000180057080 f i libvcruntimed:undname.obj
 0001:000560b0       ?getEnumType@UnDecorator@@CA?AVDName@@XZ 00000001800570b0 f i libvcruntimed:undname.obj
 0001:00056290       ?getExtendedDataIndirectType@UnDecorator@@CA?AVDName@@AEAPEBDAEA_NH@Z 0000000180057290 f   libvcruntimed:undname.obj
 0001:00056680       ?getExternalDataType@UnDecorator@@CA?AVDName@@AEBV2@@Z 0000000180057680 f i libvcruntimed:undname.obj
 0001:00056780       ?getFunctionIndirectType@UnDecorator@@CA?AVDName@@AEBV2@@Z 0000000180057780 f   libvcruntimed:undname.obj
 0001:00056e80       ?getGuardNumber@UnDecorator@@CA?AVDName@@XZ 0000000180057e80 f i libvcruntimed:undname.obj
 0001:00056eb0       ?getLastChar@DName@@QEBADXZ 0000000180057eb0 f i libvcruntimed:undname.obj
 0001:00056f20       ?getLastChar@DNameStatusNode@@UEBADXZ 0000000180057f20 f i libvcruntimed:undname.obj
 0001:00056f70       ?getLastChar@charNode@@UEBADXZ 0000000180057f70 f i libvcruntimed:undname.obj
 0001:00056f90       ?getLastChar@pDNameNode@@UEBADXZ 0000000180057f90 f i libvcruntimed:undname.obj
 0001:00056fe0       ?getLastChar@pairNode@@UEBADXZ 0000000180057fe0 f i libvcruntimed:undname.obj
 0001:000570a0       ?getLastChar@pcharNode@@UEBADXZ 00000001800580a0 f i libvcruntimed:undname.obj
 0001:000570f0       ?getLexicalFrame@UnDecorator@@CA?AVDName@@XZ 00000001800580f0 f i libvcruntimed:undname.obj
 0001:00057140       ?getMemory@_HeapManager@@QEAAPEAX_KH@Z 0000000180058140 f   libvcruntimed:undname.obj
 0001:00057320       ?getNumberOfDimensions@UnDecorator@@CAHXZ 0000000180058320 f   libvcruntimed:undname.obj
 0001:00057490       ?getOperatorName@UnDecorator@@CA?AVDName@@_NPEA_N@Z 0000000180058490 f i libvcruntimed:undname.obj
 0001:00058570       ?getPointerType@UnDecorator@@CA?AVDName@@AEBV2@0@Z 0000000180059570 f i libvcruntimed:undname.obj
 0001:000585d0       ?getPointerTypeArray@UnDecorator@@CA?AVDName@@AEBV2@0@Z 00000001800595d0 f i libvcruntimed:undname.obj
 0001:00058630       ?getPrimaryDataType@UnDecorator@@CA?AVDName@@AEBV2@@Z 0000000180059630 f   libvcruntimed:undname.obj
 0001:00058c50       ?getPtrRefDataType@UnDecorator@@CA?AVDName@@AEBV2@H@Z 0000000180059c50 f   libvcruntimed:undname.obj
 0001:00058ea0       ?getPtrRefType@UnDecorator@@CA?AVDName@@AEBV2@0PEBD@Z 0000000180059ea0 f   libvcruntimed:undname.obj
 0001:00059140       ?getReferenceType@UnDecorator@@CA?AVDName@@AEBV2@0PEBD@Z 000000018005a140 f i libvcruntimed:undname.obj
 0001:00059190       ?getRestrictionSpec@UnDecorator@@CA?AVDName@@XZ 000000018005a190 f   libvcruntimed:undname.obj
 0001:00059390       ?getReturnType@UnDecorator@@CA?AVDName@@PEAV2@@Z 000000018005a390 f   libvcruntimed:undname.obj
 0001:00059410       ?getScope@UnDecorator@@CA?AVDName@@XZ 000000018005a410 f   libvcruntimed:undname.obj
 0001:00059b80       ?getScopedName@UnDecorator@@CA?AVDName@@XZ 000000018005ab80 f   libvcruntimed:undname.obj
 0001:00059d40       ?getSignedDimension@UnDecorator@@CA?AVDName@@XZ 000000018005ad40 f   libvcruntimed:undname.obj
 0001:00059df0       ?getStorageConvention@UnDecorator@@CA?AVDName@@XZ 000000018005adf0 f i libvcruntimed:undname.obj
 0001:00059e20       ?getString@DName@@QEBAPEADPEAD0@Z 000000018005ae20 f i libvcruntimed:undname.obj
 0001:00059eb0       ?getString@DName@@QEBAPEADPEADH@Z 000000018005aeb0 f i libvcruntimed:undname.obj
 0001:00059f90       ?getString@DNameStatusNode@@UEBAPEADPEAD0@Z 000000018005af90 f i libvcruntimed:undname.obj
 0001:00059ff0       ?getString@charNode@@UEBAPEADPEAD0@Z 000000018005aff0 f i libvcruntimed:undname.obj
 0001:0005a040       ?getString@pDNameNode@@UEBAPEADPEAD0@Z 000000018005b040 f i libvcruntimed:undname.obj
 0001:0005a0b0       ?getString@pairNode@@UEBAPEADPEAD0@Z 000000018005b0b0 f i libvcruntimed:undname.obj
 0001:0005a1a0       ?getString@pcharNode@@UEBAPEADPEAD0@Z 000000018005b1a0 f i libvcruntimed:undname.obj
 0001:0005a1f0       ?getStringEncoding@UnDecorator@@CA?AVDName@@PEADH@Z 000000018005b1f0 f   libvcruntimed:undname.obj
 0001:0005a380       ?getStringHelper@@YAPEADPEAD00H@Z 000000018005b380 f i libvcruntimed:undname.obj
 0001:0005a400       ?getSymbolName@UnDecorator@@CA?AVDName@@XZ 000000018005b400 f i libvcruntimed:undname.obj
 0001:0005a4c0       ?getTemplateArgumentList@UnDecorator@@CA?AVDName@@XZ 000000018005b4c0 f   libvcruntimed:undname.obj
 0001:0005aa50       ?getTemplateConstant@UnDecorator@@CA?AVDName@@XZ 000000018005ba50 f   libvcruntimed:undname.obj
 0001:0005b2a0       ?getTemplateName@UnDecorator@@CA?AVDName@@_N@Z 000000018005c2a0 f   libvcruntimed:undname.obj
 0001:0005b570       ?getThisType@UnDecorator@@CA?AVDName@@XZ 000000018005c570 f i libvcruntimed:undname.obj
 0001:0005b5e0       ?getThrowTypes@UnDecorator@@CA?AVDName@@XZ 000000018005c5e0 f   libvcruntimed:undname.obj
 0001:0005b700       ?getTypeEncoding@UnDecorator@@CAHXZ 000000018005c700 f i libvcruntimed:undname.obj
 0001:0005c580       ?getVCallThunkType@UnDecorator@@CA?AVDName@@XZ 000000018005d580 f i libvcruntimed:undname.obj
 0001:0005c620       ?getVbTableType@UnDecorator@@CA?AVDName@@AEBV2@@Z 000000018005d620 f i libvcruntimed:undname.obj
 0001:0005c650       ?getVdispMapType@UnDecorator@@CA?AVDName@@AEBV2@@Z 000000018005d650 f i libvcruntimed:undname.obj
 0001:0005c700       ?getVfTableType@UnDecorator@@CA?AVDName@@AEBV2@@Z 000000018005d700 f i libvcruntimed:undname.obj
 0001:0005c9b0       ?getZName@UnDecorator@@CA?AVDName@@_N0@Z 000000018005d9b0 f   libvcruntimed:undname.obj
 0001:0005ce40       ?haveTemplateParameters@UnDecorator@@SAHXZ 000000018005de40 f i libvcruntimed:undname.obj
 0001:0005ce50       ?isArray@DName@@QEBAHXZ    000000018005de50 f i libvcruntimed:undname.obj
 0001:0005ce70       ?isComArray@DName@@QEBAHXZ 000000018005de70 f i libvcruntimed:undname.obj
 0001:0005ce90       ?isEmpty@DName@@QEBAHXZ    000000018005de90 f i libvcruntimed:undname.obj
 0001:0005ced0       ?isFull@Replicator@@QEBAHXZ 000000018005ded0 f i libvcruntimed:undname.obj
 0001:0005cf10       ?isNoTE@DName@@QEBAHXZ     000000018005df10 f i libvcruntimed:undname.obj
 0001:0005cf30       ?isPinPtr@DName@@QEBAHXZ   000000018005df30 f i libvcruntimed:undname.obj
 0001:0005cf50       ?isPtrRef@DName@@QEBAHXZ   000000018005df50 f i libvcruntimed:undname.obj
 0001:0005cf70       ?isUDC@DName@@QEBAHXZ      000000018005df70 f i libvcruntimed:undname.obj
 0001:0005cfd0       ?isUDTThunk@DName@@QEBAHXZ 000000018005dfd0 f i libvcruntimed:undname.obj
 0001:0005d030       ?isVCallThunk@DName@@QEBAHXZ 000000018005e030 f i libvcruntimed:undname.obj
 0001:0005d050       ?isValid@DName@@QEBAHXZ    000000018005e050 f i libvcruntimed:undname.obj
 0001:0005d0a0       ?length@DName@@QEBAHXZ     000000018005e0a0 f i libvcruntimed:undname.obj
 0001:0005d110       ?length@DNameStatusNode@@UEBAHXZ 000000018005e110 f i libvcruntimed:undname.obj
 0001:0005d130       ?length@charNode@@UEBAHXZ  000000018005e130 f i libvcruntimed:undname.obj
 0001:0005d140       ?length@pDNameNode@@UEBAHXZ 000000018005e140 f i libvcruntimed:undname.obj
 0001:0005d190       ?length@pairNode@@UEBAHXZ  000000018005e190 f i libvcruntimed:undname.obj
 0001:0005d270       ?length@pcharNode@@UEBAHXZ 000000018005e270 f i libvcruntimed:undname.obj
 0001:0005d290       ?make@DNameStatusNode@@SAPEAV1@W4DNameStatus@@@Z 000000018005e290 f i libvcruntimed:undname.obj
 0001:0005d360       ?setIsArray@DName@@QEAAXXZ 000000018005e360 f i libvcruntimed:undname.obj
 0001:0005d380       ?setIsComArray@DName@@QEAAXXZ 000000018005e380 f i libvcruntimed:undname.obj
 0001:0005d3a0       ?setIsNoTE@DName@@QEAAXXZ  000000018005e3a0 f i libvcruntimed:undname.obj
 0001:0005d3c0       ?setIsPinPtr@DName@@QEAAXXZ 000000018005e3c0 f i libvcruntimed:undname.obj
 0001:0005d3e0       ?setIsUDC@DName@@QEAAXXZ   000000018005e3e0 f i libvcruntimed:undname.obj
 0001:0005d420       ?setIsVCallThunk@DName@@QEAAXXZ 000000018005e420 f i libvcruntimed:undname.obj
 0001:0005d440       ?setPtrRef@DName@@QEAAAEAV1@XZ 000000018005e440 f i libvcruntimed:undname.obj
 0001:0005d470       ?status@DName@@QEBA?AW4DNameStatus@@XZ 000000018005e470 f i libvcruntimed:undname.obj
 0001:0005d5e0       __unDName                  000000018005e5e0 f   libvcruntimed:undname.obj
 0001:0005d6e0       __unDNameEx                000000018005e6e0 f   libvcruntimed:undname.obj
 0001:0005d7f0       _local_unwind              000000018005e7f0 f   libvcruntimed:_jmpuwind_.obj
 0001:0005d820       _NLG_Notify                000000018005e820 f   libvcruntimed:_jmpuwind_.obj
 0001:0005d840       __NLG_Dispatch2            000000018005e840 f   libvcruntimed:_jmpuwind_.obj
 0001:0005d850       __NLG_Return2              000000018005e850 f   libvcruntimed:_jmpuwind_.obj
 0001:0005d870       __except_validate_context_record 000000018005e870 f   libvcruntimed:jbcxrval.obj
 0001:0005d8e0       __except_validate_jump_buffer 000000018005e8e0 f   libvcruntimed:jbcxrval.obj
 0001:0005d970       ??$?RU__vcrt_ptd@@@__crt_internal_free_policy@@QEBAXQEBU__vcrt_ptd@@@Z 000000018005e970 f i libvcruntimed:per_thread_data.obj
 0001:0005d9a0       ??0?$__crt_unique_heap_ptr@U__vcrt_ptd@@U__crt_internal_free_policy@@@@QEAA@QEAU__vcrt_ptd@@@Z 000000018005e9a0 f i libvcruntimed:per_thread_data.obj
 0001:0005da00       ??1?$__crt_unique_heap_ptr@U__vcrt_ptd@@U__crt_internal_free_policy@@@@QEAA@XZ 000000018005ea00 f i libvcruntimed:per_thread_data.obj
 0001:0005da50       ??B?$__crt_unique_heap_ptr@U__vcrt_ptd@@U__crt_internal_free_policy@@@@QEBA_NXZ 000000018005ea50 f i libvcruntimed:per_thread_data.obj
 0001:0005da70       ?detach@?$__crt_unique_heap_ptr@U__vcrt_ptd@@U__crt_internal_free_policy@@@@QEAAPEAU__vcrt_ptd@@XZ 000000018005ea70 f i libvcruntimed:per_thread_data.obj
 0001:0005dab0       ?get@?$__crt_unique_heap_ptr@U__vcrt_ptd@@U__crt_internal_free_policy@@@@QEBAPEAU__vcrt_ptd@@XZ 000000018005eab0 f i libvcruntimed:per_thread_data.obj
 0001:0005dad0       ?is_valid@?$__crt_unique_heap_ptr@U__vcrt_ptd@@U__crt_internal_free_policy@@@@QEBA_NXZ 000000018005ead0 f i libvcruntimed:per_thread_data.obj
 0001:0005db10       ?release@?$__crt_unique_heap_ptr@U__vcrt_ptd@@U__crt_internal_free_policy@@@@QEAAXXZ 000000018005eb10 f i libvcruntimed:per_thread_data.obj
 0001:0005db90       __vcrt_freefls             000000018005eb90 f   libvcruntimed:per_thread_data.obj
 0001:0005dbe0       __vcrt_freeptd             000000018005ebe0 f   libvcruntimed:per_thread_data.obj
 0001:0005dc60       __vcrt_getptd              000000018005ec60 f   libvcruntimed:per_thread_data.obj
 0001:0005dc90       __vcrt_getptd_noexit       000000018005ec90 f   libvcruntimed:per_thread_data.obj
 0001:0005dea0       __vcrt_initialize_ptd      000000018005eea0 f   libvcruntimed:per_thread_data.obj
 0001:0005df00       __vcrt_uninitialize_ptd    000000018005ef00 f   libvcruntimed:per_thread_data.obj
 0001:0005df40       __vcrt_initialize_locks    000000018005ef40 f   libvcruntimed:locks.obj
 0001:0005dfd0       __vcrt_lock                000000018005efd0 f   libvcruntimed:locks.obj
 0001:0005e010       __vcrt_uninitialize_locks  000000018005f010 f   libvcruntimed:locks.obj
 0001:0005e080       __vcrt_unlock              000000018005f080 f   libvcruntimed:locks.obj
 0001:0005e0c0       ??$?BX@__crt_fast_encoded_nullptr_t@@QEBAPEAXXZ 000000018005f0c0 f i libvcruntimed:winapi_downlevel.obj
 0001:0005e0e0       ??$__crt_fast_decode_pointer@PEAX@@YAPEAXQEAX@Z 000000018005f0e0 f i libvcruntimed:winapi_downlevel.obj
 0001:0005e130       ??$__crt_fast_encode_pointer@PEAX@@YAPEAXQEAX@Z 000000018005f130 f i libvcruntimed:winapi_downlevel.obj
 0001:0005e180       ??$__crt_interlocked_compare_exchange_pointer@UHINSTANCE__@@$$T$$T@@YAPEAUHINSTANCE__@@PEDSEAU0@$$T1@Z 000000018005f180 f i libvcruntimed:winapi_downlevel.obj
 0001:0005e1d0       ??$__crt_interlocked_compare_exchange_pointer@X$$T$$T@@YAPEAXPEDSEAX$$T1@Z 000000018005f1d0 f i libvcruntimed:winapi_downlevel.obj
 0001:0005e220       ??$__crt_interlocked_exchange_pointer@UHINSTANCE__@@PEAU1@@@YAPEAUHINSTANCE__@@PEDSEAU0@QEAU0@@Z 000000018005f220 f i libvcruntimed:winapi_downlevel.obj
 0001:0005e240       ??$__crt_interlocked_exchange_pointer@UHINSTANCE__@@PEAX@@YAPEAUHINSTANCE__@@PEDSEAU0@QEAX@Z 000000018005f240 f i libvcruntimed:winapi_downlevel.obj
 0001:0005e260       ??$__crt_interlocked_exchange_pointer@XPEAX@@YAPEAXPEDSEAXQEAX@Z 000000018005f260 f i libvcruntimed:winapi_downlevel.obj
 0001:0005e280       ??$__crt_interlocked_read_pointer@UHINSTANCE__@@@@YAPEAUHINSTANCE__@@PEDSEAU0@@Z 000000018005f280 f i libvcruntimed:winapi_downlevel.obj
 0001:0005e2b0       ??$__crt_interlocked_read_pointer@X@@YAPEAXPEDSEAX@Z 000000018005f2b0 f i libvcruntimed:winapi_downlevel.obj
 0001:0005ea40       __vcrt_EventRegister       000000018005fa40 f   libvcruntimed:winapi_downlevel.obj
 0001:0005eac0       __vcrt_EventSetInformation 000000018005fac0 f   libvcruntimed:winapi_downlevel.obj
 0001:0005eb40       __vcrt_EventUnregister     000000018005fb40 f   libvcruntimed:winapi_downlevel.obj
 0001:0005eba0       __vcrt_EventWriteTransfer  000000018005fba0 f   libvcruntimed:winapi_downlevel.obj
 0001:0005ec40       __vcrt_FlsAlloc            000000018005fc40 f   libvcruntimed:winapi_downlevel.obj
 0001:0005eca0       __vcrt_FlsFree             000000018005fca0 f   libvcruntimed:winapi_downlevel.obj
 0001:0005ed00       __vcrt_FlsGetValue         000000018005fd00 f   libvcruntimed:winapi_downlevel.obj
 0001:0005ed60       __vcrt_FlsSetValue         000000018005fd60 f   libvcruntimed:winapi_downlevel.obj
 0001:0005edd0       __vcrt_InitializeCriticalSectionEx 000000018005fdd0 f   libvcruntimed:winapi_downlevel.obj
 0001:0005ee50       __vcrt_initialize_winapi_thunks 000000018005fe50 f   libvcruntimed:winapi_downlevel.obj
 0001:0005eef0       __vcrt_uninitialize_winapi_thunks 000000018005fef0 f   libvcruntimed:winapi_downlevel.obj
 0001:0005efb0       fabs                       000000018005ffb0 f   libucrtd:fabs.obj
 0001:0005f110       sqrtf                      0000000180060110 f   libucrtd:sqrtf.obj
 0001:0005f2a0       _fpclass                   00000001800602a0 f   libucrtd:ieeemisc.obj
 0001:0005f4d0       _fpclassf                  00000001800604d0 f   libucrtd:ieeemisc.obj
 0001:0005f650       _isnan                     0000000180060650 f   libucrtd:ieeemisc.obj
 0001:0005f6d0       _isnanf                    00000001800606d0 f   libucrtd:ieeemisc.obj
 0001:0005f730       _nextafter                 0000000180060730 f   libucrtd:ieeemisc.obj
 0001:0005f760       _nextafterf                0000000180060760 f   libucrtd:ieeemisc.obj
 0001:0005f790       _scalb                     0000000180060790 f   libucrtd:ieeemisc.obj
 0001:0005fca0       _scalbf                    0000000180060ca0 f   libucrtd:ieeemisc.obj
 0001:000600f0       ??$?RU?$__crt_report_hook_node@D@@@__crt_internal_free_policy@@QEBAXQEBU?$__crt_report_hook_node@D@@@Z 00000001800610f0 f i libucrtd:dbgrpt.obj
 0001:00060120       ??$?RU?$__crt_report_hook_node@_W@@@__crt_internal_free_policy@@QEBAXQEBU?$__crt_report_hook_node@_W@@@Z 0000000180061120 f i libucrtd:dbgrpt.obj
 0001:00060150       ??$?RV<lambda_48a95ab302c68b6787c202ce7b2428f2>@@AEAV<lambda_be7e00bcb36969a0670e3c91fd6c4917>@@V<lambda_95ad94005304955f3afd56db85f2c0f0>@@@?$__crt_seh_guarded_call@H@@QEAAH$$QEAV<lambda_48a95ab302c68b6787c202ce7b2428f2>@@AEAV<lambda_be7e00bcb36969a0670e3c91fd6c4917>@@$$QEAV<lambda_95ad94005304955f3afd56db85f2c0f0>@@@Z 0000000180061150 f i libucrtd:dbgrpt.obj
 0001:000601b0       ??$?RV<lambda_af6322564f367be6e210c9b3b377439e>@@AEAV<lambda_ade3d750d30aed7d611b25c09e4cbaa9>@@V<lambda_f1c030d06c6692bdc9654ba3f7602b04>@@@?$__crt_seh_guarded_call@H@@QEAAH$$QEAV<lambda_af6322564f367be6e210c9b3b377439e>@@AEAV<lambda_ade3d750d30aed7d611b25c09e4cbaa9>@@$$QEAV<lambda_f1c030d06c6692bdc9654ba3f7602b04>@@@Z 00000001800611b0 f i libucrtd:dbgrpt.obj
 0001:00060210       ??$__acrt_lock_and_call@V<lambda_ade3d750d30aed7d611b25c09e4cbaa9>@@@@YAHW4__acrt_lock_id@@$$QEAV<lambda_ade3d750d30aed7d611b25c09e4cbaa9>@@@Z 0000000180061210 f i libucrtd:dbgrpt.obj
 0001:00060290       ??$__acrt_lock_and_call@V<lambda_be7e00bcb36969a0670e3c91fd6c4917>@@@@YAHW4__acrt_lock_id@@$$QEAV<lambda_be7e00bcb36969a0670e3c91fd6c4917>@@@Z 0000000180061290 f i libucrtd:dbgrpt.obj
 0001:00060310       ??$__vcrt_va_start_verify_argument_type@QEB_W@@YAXXZ 0000000180061310 f i libucrtd:dbgrpt.obj
 0001:000617d0       ??$get_module_file_name@AEAPEAUHINSTANCE__@@AEAY0BAF@DK@?$__crt_char_traits@D@@SAKAEAPEAUHINSTANCE__@@AEAY0BAF@D$$QEAK@Z 00000001800627d0 f i libucrtd:dbgrpt.obj
 0001:00061810       ??$get_module_file_name@AEAPEAUHINSTANCE__@@AEAY0BAF@_WK@?$__crt_char_traits@_W@@SAKAEAPEAUHINSTANCE__@@AEAY0BAF@_W$$QEAK@Z 0000000180062810 f i libucrtd:dbgrpt.obj
 0001:00061850       ??$tcscpy_s@AEAY0BAF@D_KPEBD@?$__crt_char_traits@D@@SAHAEAY0BAF@D$$QEA_K$$QEAPEBD@Z 0000000180062850 f i libucrtd:dbgrpt.obj
 0001:00061890       ??$tcscpy_s@AEAY0BAF@_W_KPEB_W@?$__crt_char_traits@_W@@SAHAEAY0BAF@_W$$QEA_K$$QEAPEB_W@Z 0000000180062890 f i libucrtd:dbgrpt.obj
 0001:000618d0       ??$tcslen@AEAY0BAF@D@?$__crt_char_traits@D@@SA_KAEAY0BAF@D@Z 00000001800628d0 f i libucrtd:dbgrpt.obj
 0001:000618f0       ??$tcslen@AEAY0BAF@_W@?$__crt_char_traits@_W@@SA_KAEAY0BAF@_W@Z 00000001800628f0 f i libucrtd:dbgrpt.obj
 0001:00061910       ??$tcslen@AEBQEBD@?$__crt_char_traits@D@@SA_KAEBQEBD@Z 0000000180062910 f i libucrtd:dbgrpt.obj
 0001:00061940       ??$tcslen@AEBQEB_W@?$__crt_char_traits@_W@@SA_KAEBQEB_W@Z 0000000180062940 f i libucrtd:dbgrpt.obj
 0001:00061ab0       ??0?$__crt_unique_heap_ptr@U?$__crt_report_hook_node@D@@U__crt_internal_free_policy@@@@QEAA@QEAU?$__crt_report_hook_node@D@@@Z 0000000180062ab0 f i libucrtd:dbgrpt.obj
 0001:00061ae0       ??0?$__crt_unique_heap_ptr@U?$__crt_report_hook_node@_W@@U__crt_internal_free_policy@@@@QEAA@QEAU?$__crt_report_hook_node@_W@@@Z 0000000180062ae0 f i libucrtd:dbgrpt.obj
 0001:00061b10       ??1?$__crt_unique_heap_ptr@U?$__crt_report_hook_node@D@@U__crt_internal_free_policy@@@@QEAA@XZ 0000000180062b10 f i libucrtd:dbgrpt.obj
 0001:00061b30       ??1?$__crt_unique_heap_ptr@U?$__crt_report_hook_node@_W@@U__crt_internal_free_policy@@@@QEAA@XZ 0000000180062b30 f i libucrtd:dbgrpt.obj
 0001:00061b50       ??B?$__crt_unique_heap_ptr@U?$__crt_report_hook_node@D@@U__crt_internal_free_policy@@@@QEBA_NXZ 0000000180062b50 f i libucrtd:dbgrpt.obj
 0001:00061b70       ??B?$__crt_unique_heap_ptr@U?$__crt_report_hook_node@_W@@U__crt_internal_free_policy@@@@QEBA_NXZ 0000000180062b70 f i libucrtd:dbgrpt.obj
 0001:000623d0       ?detach@?$__crt_unique_heap_ptr@U?$__crt_report_hook_node@D@@U__crt_internal_free_policy@@@@QEAAPEAU?$__crt_report_hook_node@D@@XZ 00000001800633d0 f i libucrtd:dbgrpt.obj
 0001:00062410       ?detach@?$__crt_unique_heap_ptr@U?$__crt_report_hook_node@_W@@U__crt_internal_free_policy@@@@QEAAPEAU?$__crt_report_hook_node@_W@@XZ 0000000180063410 f i libucrtd:dbgrpt.obj
 0001:00062450       ?get@?$__crt_unique_heap_ptr@U?$__crt_report_hook_node@D@@U__crt_internal_free_policy@@@@QEBAPEAU?$__crt_report_hook_node@D@@XZ 0000000180063450 f i libucrtd:dbgrpt.obj
 0001:00062470       ?get@?$__crt_unique_heap_ptr@U?$__crt_report_hook_node@_W@@U__crt_internal_free_policy@@@@QEBAPEAU?$__crt_report_hook_node@_W@@XZ 0000000180063470 f i libucrtd:dbgrpt.obj
 0001:000624f0       ?is_valid@?$__crt_unique_heap_ptr@U?$__crt_report_hook_node@D@@U__crt_internal_free_policy@@@@QEBA_NXZ 00000001800634f0 f i libucrtd:dbgrpt.obj
 0001:00062530       ?is_valid@?$__crt_unique_heap_ptr@U?$__crt_report_hook_node@_W@@U__crt_internal_free_policy@@@@QEBA_NXZ 0000000180063530 f i libucrtd:dbgrpt.obj
 0001:00062570       ?release@?$__crt_unique_heap_ptr@U?$__crt_report_hook_node@D@@U__crt_internal_free_policy@@@@QEAAXXZ 0000000180063570 f i libucrtd:dbgrpt.obj
 0001:000625c0       ?release@?$__crt_unique_heap_ptr@U?$__crt_report_hook_node@_W@@U__crt_internal_free_policy@@@@QEAAXXZ 00000001800635c0 f i libucrtd:dbgrpt.obj
 0001:00062610       _CrtDbgReport              0000000180063610 f   libucrtd:dbgrpt.obj
 0001:000626b0       _CrtDbgReportW             00000001800636b0 f   libucrtd:dbgrpt.obj
 0001:00062750       _CrtSetReportHook2         0000000180063750 f   libucrtd:dbgrpt.obj
 0001:00062780       _CrtSetReportHookW2        0000000180063780 f   libucrtd:dbgrpt.obj
 0001:000627b0       __acrt_MessageWindowA      00000001800637b0 f   libucrtd:dbgrpt.obj
 0001:00062810       __acrt_MessageWindowW      0000000180063810 f   libucrtd:dbgrpt.obj
 0001:00062870       _invoke_watson_if_error    0000000180063870 f i libucrtd:dbgrpt.obj
 0001:000628d0       _invoke_watson_if_oneof    00000001800638d0 f i libucrtd:dbgrpt.obj
 0001:00062950       _snwprintf_s               0000000180063950 f i libucrtd:dbgrpt.obj
 0001:000629e0       _vsnwprintf_s_l            00000001800639e0 f i libucrtd:dbgrpt.obj
 0001:00062a80       _initterm                  0000000180063a80 f   libucrtd:initterm.obj
 0001:00062b00       _initterm_e                0000000180063b00 f   libucrtd:initterm.obj
 0001:00062ba0       ??$__crt_interlocked_read@J@@YAJPEDJ@Z 0000000180063ba0 f i libucrtd:debug_heap.obj
 0001:00062bc0       ??0_LocaleUpdate@@QEAA@QEAU__crt_locale_pointers@@@Z 0000000180063bc0 f i libucrtd:debug_heap.obj
 0001:00062d30       ??1_LocaleUpdate@@QEAA@XZ  0000000180063d30 f i libucrtd:debug_heap.obj
 0001:00062d70       ?GetLocaleT@_LocaleUpdate@@QEAAPEAU__crt_locale_pointers@@XZ 0000000180063d70 f i libucrtd:debug_heap.obj
 0001:00062d90       ?__crt_interlocked_read_32@@YAHPEDH@Z 0000000180063d90 f i libucrtd:debug_heap.obj
 0001:00065590       _CrtCheckMemory            0000000180066590 f   libucrtd:debug_heap.obj
 0001:00065790       _CrtDoForAllClientObjects  0000000180066790 f   libucrtd:debug_heap.obj
 0001:00065920       _CrtDumpMemoryLeaks        0000000180066920 f   libucrtd:debug_heap.obj
 0001:00065a10       _CrtGetAllocHook           0000000180066a10 f   libucrtd:debug_heap.obj
 0001:00065a20       _CrtGetDumpClient          0000000180066a20 f   libucrtd:debug_heap.obj
 0001:00065a30       _CrtIsMemoryBlock          0000000180066a30 f   libucrtd:debug_heap.obj
 0001:00065bc0       _CrtIsValidHeapPointer     0000000180066bc0 f   libucrtd:debug_heap.obj
 0001:00065c10       _CrtIsValidPointer         0000000180066c10 f   libucrtd:debug_heap.obj
 0001:00065c50       _CrtMemCheckpoint          0000000180066c50 f   libucrtd:debug_heap.obj
 0001:00065f70       _CrtMemDifference          0000000180066f70 f   libucrtd:debug_heap.obj
 0001:000663a0       _CrtMemDumpAllObjectsSince 00000001800673a0 f   libucrtd:debug_heap.obj
 0001:00066410       _CrtMemDumpStatistics      0000000180067410 f   libucrtd:debug_heap.obj
 0001:00066610       _CrtReportBlockType        0000000180067610 f   libucrtd:debug_heap.obj
 0001:00066650       _CrtSetAllocHook           0000000180067650 f   libucrtd:debug_heap.obj
 0001:00066690       _CrtSetBreakAlloc          0000000180067690 f   libucrtd:debug_heap.obj
 0001:000666c0       _CrtSetDbgBlockType        00000001800676c0 f   libucrtd:debug_heap.obj
 0001:00066780       _CrtSetDbgFlag             0000000180067780 f   libucrtd:debug_heap.obj
 0001:00066930       _CrtSetDumpClient          0000000180067930 f   libucrtd:debug_heap.obj
 0001:00066970       __acrt_get_locale_data_prefix 0000000180067970 f i libucrtd:debug_heap.obj
 0001:000669a0       __acrt_locale_changed      00000001800679a0 f i libucrtd:debug_heap.obj
 0001:000669e0       __p__crtBreakAlloc         00000001800679e0 f   libucrtd:debug_heap.obj
 0001:000669f0       __p__crtDbgFlag            00000001800679f0 f   libucrtd:debug_heap.obj
 0001:00066a00       _aligned_free_dbg          0000000180067a00 f   libucrtd:debug_heap.obj
 0001:00066b20       _aligned_malloc_dbg        0000000180067b20 f   libucrtd:debug_heap.obj
 0001:00066b70       _aligned_msize_dbg         0000000180067b70 f   libucrtd:debug_heap.obj
 0001:00066da0       _aligned_offset_malloc_dbg 0000000180067da0 f   libucrtd:debug_heap.obj
 0001:00067140       _aligned_offset_realloc_dbg 0000000180068140 f   libucrtd:debug_heap.obj
 0001:00067710       _aligned_offset_recalloc_dbg 0000000180068710 f   libucrtd:debug_heap.obj
 0001:00067870       _aligned_realloc_dbg       0000000180068870 f   libucrtd:debug_heap.obj
 0001:000678d0       _aligned_recalloc_dbg      00000001800688d0 f   libucrtd:debug_heap.obj
 0001:00067940       _calloc_dbg                0000000180068940 f   libucrtd:debug_heap.obj
 0001:00067a00       _chvalidchk_l              0000000180068a00 f i libucrtd:debug_heap.obj
 0001:00067a40       _expand_dbg                0000000180068a40 f   libucrtd:debug_heap.obj
 0001:00067bc0       _free_dbg                  0000000180068bc0 f   libucrtd:debug_heap.obj
 0001:00067c40       _ischartype_l              0000000180068c40 f i libucrtd:debug_heap.obj
 0001:00067cb0       _malloc_dbg                0000000180068cb0 f   libucrtd:debug_heap.obj
 0001:00067d00       _msize_dbg                 0000000180068d00 f   libucrtd:debug_heap.obj
 0001:00067f00       _realloc_dbg               0000000180068f00 f   libucrtd:debug_heap.obj
 0001:00067f90       _recalloc_dbg              0000000180068f90 f   libucrtd:debug_heap.obj
 0001:00068150       _seh_filter_dll            0000000180069150 f   libucrtd:exception_filter.obj
 0001:00068190       _seh_filter_exe            0000000180069190 f   libucrtd:exception_filter.obj
 0001:000684e0       ??$?B$$A6AXPEAXK0@Z@__crt_fast_encoded_nullptr_t@@QEBAP6AXPEAXK0@ZXZ 00000001800694e0 f i libucrtd:exit.obj
 0001:00068500       ??$__crt_fast_decode_pointer@P6AXPEAXK0@Z@@YAP6AXPEAXK0@ZQ6AX0K0@Z@Z 0000000180069500 f i libucrtd:exit.obj
 0001:00068550       ??$__crt_fast_encode_pointer@P6AXPEAXK0@Z@@YAP6AXPEAXK0@ZQ6AX0K0@Z@Z 0000000180069550 f i libucrtd:exit.obj
 0001:000685a0       ??$__crt_get_proc_address@P6AXI@Z@@YAP6AXI@ZQEAUHINSTANCE__@@QEBD@Z 00000001800695a0 f i libucrtd:exit.obj
 0001:000685d0       ??0?$__crt_unique_handle_t@U__crt_hmodule_traits@@@@QEAA@QEAUHINSTANCE__@@@Z 00000001800695d0 f i libucrtd:exit.obj
 0001:00068600       ??1?$__crt_unique_handle_t@U__crt_hmodule_traits@@@@QEAA@XZ 0000000180069600 f i libucrtd:exit.obj
 0001:00068640       ?close@?$__crt_unique_handle_t@U__crt_hmodule_traits@@@@QEAAXXZ 0000000180069640 f i libucrtd:exit.obj
 0001:00068690       ?close@__crt_hmodule_traits@@SA_NPEAUHINSTANCE__@@@Z 0000000180069690 f i libucrtd:exit.obj
 0001:000688d0       ?get@?$__crt_unique_handle_t@U__crt_hmodule_traits@@@@QEBAPEAUHINSTANCE__@@XZ 00000001800698d0 f i libucrtd:exit.obj
 0001:000688f0       ?get_address_of@?$__crt_unique_handle_t@U__crt_hmodule_traits@@@@QEAAPEAPEAUHINSTANCE__@@XZ 00000001800698f0 f i libucrtd:exit.obj
 0001:00068900       ?get_invalid_value@__crt_hmodule_traits@@SAPEAUHINSTANCE__@@XZ 0000000180069900 f i libucrtd:exit.obj
 0001:00068b20       _Exit                      0000000180069b20 f   libucrtd:exit.obj
 0001:00068b50       __acrt_initialize_thread_local_exit_callback 0000000180069b50 f   libucrtd:exit.obj
 0001:00068b70       _c_exit                    0000000180069b70 f   libucrtd:exit.obj
 0001:00068ba0       _cexit                     0000000180069ba0 f   libucrtd:exit.obj
 0001:00068bc0       _exit                      0000000180069bc0 f   libucrtd:exit.obj
 0001:00068bf0       _is_c_termination_complete 0000000180069bf0 f   libucrtd:exit.obj
 0001:00068c10       _register_thread_local_exe_atexit_callback 0000000180069c10 f   libucrtd:exit.obj
 0001:00068c70       exit                       0000000180069c70 f   libucrtd:exit.obj
 0001:00068ca0       quick_exit                 0000000180069ca0 f   libucrtd:exit.obj
 0001:00068cd0       ??$?RE@__crt_internal_free_policy@@QEBAXQEBE@Z 0000000180069cd0 f i libucrtd:argv_parsing.obj
 0001:00068d00       ??$?RPEAD@__crt_internal_free_policy@@QEBAXQEBQEAD@Z 0000000180069d00 f i libucrtd:argv_parsing.obj
 0001:00068d30       ??$?RPEA_W@__crt_internal_free_policy@@QEBAXQEBQEA_W@Z 0000000180069d30 f i libucrtd:argv_parsing.obj
 0001:00069600       ??$get_module_file_name@$$TAEAY0BAF@DH@?$__crt_char_traits@D@@SAK$$QEA$$TAEAY0BAF@D$$QEAH@Z 000000018006a600 f i libucrtd:argv_parsing.obj
 0001:00069640       ??$get_module_file_name@$$TAEAY0BAF@_WH@?$__crt_char_traits@_W@@SAK$$QEA$$TAEAY0BAF@_W$$QEAH@Z 000000018006a640 f i libucrtd:argv_parsing.obj
 0001:0006a240       ??$set_program_name@PEAD@?$__crt_char_traits@D@@SAX$$QEAPEAD@Z 000000018006b240 f i libucrtd:argv_parsing.obj
 0001:0006a270       ??$set_program_name@PEA_W@?$__crt_char_traits@_W@@SAX$$QEAPEA_W@Z 000000018006b270 f i libucrtd:argv_parsing.obj
 0001:0006a300       ??0?$__crt_unique_heap_ptr@EU__crt_internal_free_policy@@@@QEAA@QEAE@Z 000000018006b300 f i libucrtd:argv_parsing.obj
 0001:0006a330       ??0?$__crt_unique_heap_ptr@PEADU__crt_internal_free_policy@@@@QEAA@QEAPEAD@Z 000000018006b330 f i libucrtd:argv_parsing.obj
 0001:0006a360       ??0?$__crt_unique_heap_ptr@PEA_WU__crt_internal_free_policy@@@@QEAA@QEAPEA_W@Z 000000018006b360 f i libucrtd:argv_parsing.obj
 0001:0006a390       ??1?$__crt_unique_heap_ptr@EU__crt_internal_free_policy@@@@QEAA@XZ 000000018006b390 f i libucrtd:argv_parsing.obj
 0001:0006a3b0       ??1?$__crt_unique_heap_ptr@PEADU__crt_internal_free_policy@@@@QEAA@XZ 000000018006b3b0 f i libucrtd:argv_parsing.obj
 0001:0006a3d0       ??1?$__crt_unique_heap_ptr@PEA_WU__crt_internal_free_policy@@@@QEAA@XZ 000000018006b3d0 f i libucrtd:argv_parsing.obj
 0001:0006a3f0       ??B?$__crt_unique_heap_ptr@EU__crt_internal_free_policy@@@@QEBA_NXZ 000000018006b3f0 f i libucrtd:argv_parsing.obj
 0001:0006a4f0       ?detach@?$__crt_unique_heap_ptr@EU__crt_internal_free_policy@@@@QEAAPEAEXZ 000000018006b4f0 f i libucrtd:argv_parsing.obj
 0001:0006a530       ?detach@?$__crt_unique_heap_ptr@PEADU__crt_internal_free_policy@@@@QEAAPEAPEADXZ 000000018006b530 f i libucrtd:argv_parsing.obj
 0001:0006a570       ?detach@?$__crt_unique_heap_ptr@PEA_WU__crt_internal_free_policy@@@@QEAAPEAPEA_WXZ 000000018006b570 f i libucrtd:argv_parsing.obj
 0001:0006a640       ?get@?$__crt_unique_heap_ptr@EU__crt_internal_free_policy@@@@QEBAPEAEXZ 000000018006b640 f i libucrtd:argv_parsing.obj
 0001:0006a660       ?get@?$__crt_unique_heap_ptr@PEADU__crt_internal_free_policy@@@@QEBAPEAPEADXZ 000000018006b660 f i libucrtd:argv_parsing.obj
 0001:0006a680       ?get@?$__crt_unique_heap_ptr@PEA_WU__crt_internal_free_policy@@@@QEBAPEAPEA_WXZ 000000018006b680 f i libucrtd:argv_parsing.obj
 0001:0006a6a0       ?get_address_of@?$__crt_unique_heap_ptr@PEADU__crt_internal_free_policy@@@@QEAAPEAPEAPEADXZ 000000018006b6a0 f i libucrtd:argv_parsing.obj
 0001:0006a6b0       ?get_address_of@?$__crt_unique_heap_ptr@PEA_WU__crt_internal_free_policy@@@@QEAAPEAPEAPEA_WXZ 000000018006b6b0 f i libucrtd:argv_parsing.obj
 0001:0006a700       ?is_valid@?$__crt_unique_heap_ptr@EU__crt_internal_free_policy@@@@QEBA_NXZ 000000018006b700 f i libucrtd:argv_parsing.obj
 0001:0006a740       ?release@?$__crt_unique_heap_ptr@EU__crt_internal_free_policy@@@@QEAAXXZ 000000018006b740 f i libucrtd:argv_parsing.obj
 0001:0006a790       ?release@?$__crt_unique_heap_ptr@PEADU__crt_internal_free_policy@@@@QEAAXXZ 000000018006b790 f i libucrtd:argv_parsing.obj
 0001:0006a7e0       ?release@?$__crt_unique_heap_ptr@PEA_WU__crt_internal_free_policy@@@@QEAAXXZ 000000018006b7e0 f i libucrtd:argv_parsing.obj
 0001:0006a890       __acrt_allocate_buffer_for_argv 000000018006b890 f   libucrtd:argv_parsing.obj
 0001:0006a9f0       _configure_narrow_argv     000000018006b9f0 f   libucrtd:argv_parsing.obj
 0001:0006aa10       _configure_wide_argv       000000018006ba10 f   libucrtd:argv_parsing.obj
 0001:0006aa30       _set_pgmptr                000000018006ba30 f i libucrtd:argv_parsing.obj
 0001:0006aa50       _set_wpgmptr               000000018006ba50 f i libucrtd:argv_parsing.obj
 0001:0006aa68       ??$?R_W@__crt_internal_free_policy@@QEBAXQEB_W@Z 000000018006ba68 f i libucrtd:environment_initialization.obj
 0001:0006b110       ??$get_environment_from_os@$$$V@?$__crt_char_traits@D@@SAPEADXZ 000000018006c110 f i libucrtd:environment_initialization.obj
 0001:0006b118       ??$get_environment_from_os@$$$V@?$__crt_char_traits@_W@@SAPEA_WXZ 000000018006c118 f i libucrtd:environment_initialization.obj
 0001:0006b358       ??$set_variable_in_environment_nolock@PEADH@?$__crt_char_traits@D@@SAH$$QEAPEAD$$QEAH@Z 000000018006c358 f i libucrtd:environment_initialization.obj
 0001:0006b364       ??$set_variable_in_environment_nolock@PEA_WH@?$__crt_char_traits@_W@@SAH$$QEAPEA_W$$QEAH@Z 000000018006c364 f i libucrtd:environment_initialization.obj
 0001:0006b370       ??$tcscpy_s@PEADAEB_KAEAPEAD@?$__crt_char_traits@D@@SAH$$QEAPEADAEB_KAEAPEAD@Z 000000018006c370 f i libucrtd:environment_initialization.obj
 0001:0006b384       ??$tcscpy_s@PEA_WAEB_KAEAPEA_W@?$__crt_char_traits@_W@@SAH$$QEAPEA_WAEB_KAEAPEA_W@Z 000000018006c384 f i libucrtd:environment_initialization.obj
 0001:0006b398       ??$tcslen@AEAPEAD@?$__crt_char_traits@D@@SA_KAEAPEAD@Z 000000018006c398 f i libucrtd:environment_initialization.obj
 0001:0006b3b0       ??$tcslen@AEAPEA_W@?$__crt_char_traits@_W@@SA_KAEAPEA_W@Z 000000018006c3b0 f i libucrtd:environment_initialization.obj
 0001:0006b3c8       ??$uninitialize@A6AXAEAPEAPEAD@Z@?$dual_state_global@PEAPEAD@__crt_state_management@@QEAAXA6AXAEAPEAPEAD@Z@Z 000000018006c3c8 f i libucrtd:environment_initialization.obj
 0001:0006b420       ??$uninitialize@A6AXAEAPEAPEA_W@Z@?$dual_state_global@PEAPEA_W@__crt_state_management@@QEAAXA6AXAEAPEAPEA_W@Z@Z 000000018006c420 f i libucrtd:environment_initialization.obj
 0001:0006b4b8       ??0?$__crt_unique_heap_ptr@_WU__crt_internal_free_policy@@@@QEAA@QEA_W@Z 000000018006c4b8 f i libucrtd:environment_initialization.obj
 0001:0006b4c0       ??1?$__crt_unique_heap_ptr@_WU__crt_internal_free_policy@@@@QEAA@XZ 000000018006c4c0 f i libucrtd:environment_initialization.obj
 0001:0006b4e8       ??B?$__crt_unique_heap_ptr@PEADU__crt_internal_free_policy@@@@QEBA_NXZ 000000018006c4e8 f i libucrtd:environment_initialization.obj
 0001:0006b4f4       ??B?$__crt_unique_heap_ptr@PEA_WU__crt_internal_free_policy@@@@QEBA_NXZ 000000018006c4f4 f i libucrtd:environment_initialization.obj
 0001:0006b500       ??B?$__crt_unique_heap_ptr@_WU__crt_internal_free_policy@@@@QEBA_NXZ 000000018006c500 f i libucrtd:environment_initialization.obj
 0001:0006b50c       ?__crt_compute_required_transform_buffer_count@@YA_KIQEBD@Z 000000018006c50c f i libucrtd:environment_initialization.obj
 0001:0006b53c       ?__crt_compute_required_transform_buffer_count@@YA_KIQEB_W@Z 000000018006c53c f i libucrtd:environment_initialization.obj
 0001:0006b578       ?__crt_transform_string@@YA_KIQEBDQEA_W_K@Z 000000018006c578 f i libucrtd:environment_initialization.obj
 0001:0006b5a8       ?__crt_transform_string@@YA_KIQEB_WQEAD_K@Z 000000018006c5a8 f i libucrtd:environment_initialization.obj
 0001:0006b5e4       ?detach@?$__crt_unique_heap_ptr@DU__crt_internal_free_policy@@@@QEAAPEADXZ 000000018006c5e4 f i libucrtd:environment_initialization.obj
 0001:0006b5f0       ?detach@?$__crt_unique_heap_ptr@_WU__crt_internal_free_policy@@@@QEAAPEA_WXZ 000000018006c5f0 f i libucrtd:environment_initialization.obj
 0001:0006b5fc       ?get@?$__crt_unique_heap_ptr@_WU__crt_internal_free_policy@@@@QEBAPEA_WXZ 000000018006c5fc f i libucrtd:environment_initialization.obj
 0001:0006b600       ?get_current_state_index@__crt_state_management@@YA_KXZ 000000018006c600 f i libucrtd:environment_initialization.obj
 0001:0006b64c       ?initialize@?$dual_state_global@PEAPEAD@__crt_state_management@@QEAAXQEAPEAD@Z 000000018006c64c f i libucrtd:environment_initialization.obj
 0001:0006b68c       ?initialize@?$dual_state_global@PEAPEA_W@__crt_state_management@@QEAAXQEAPEA_W@Z 000000018006c68c f i libucrtd:environment_initialization.obj
 0001:0006b6cc       ?is_valid@?$__crt_unique_heap_ptr@PEADU__crt_internal_free_policy@@@@QEBA_NXZ 000000018006c6cc f i libucrtd:environment_initialization.obj
 0001:0006b6d8       ?is_valid@?$__crt_unique_heap_ptr@PEA_WU__crt_internal_free_policy@@@@QEBA_NXZ 000000018006c6d8 f i libucrtd:environment_initialization.obj
 0001:0006b6e4       ?is_valid@?$__crt_unique_heap_ptr@_WU__crt_internal_free_policy@@@@QEBA_NXZ 000000018006c6e4 f i libucrtd:environment_initialization.obj
 0001:0006b6fc       ?release@?$__crt_unique_heap_ptr@_WU__crt_internal_free_policy@@@@QEAAXXZ 000000018006c6fc f i libucrtd:environment_initialization.obj
 0001:0006b724       ?value@?$dual_state_global@PEAPEAD@__crt_state_management@@QEAAAEAPEAPEADXZ 000000018006c724 f i libucrtd:environment_initialization.obj
 0001:0006b728       ?value@?$dual_state_global@PEAPEA_W@__crt_state_management@@QEAAAEAPEAPEA_WXZ 000000018006c728 f i libucrtd:environment_initialization.obj
 0001:0006b72c       __dcrt_get_or_create_narrow_environment_nolock 000000018006c72c f   libucrtd:environment_initialization.obj
 0001:0006b734       __dcrt_get_or_create_wide_environment_nolock 000000018006c734 f   libucrtd:environment_initialization.obj
 0001:0006b73c       __dcrt_uninitialize_environments_nolock 000000018006c73c f   libucrtd:environment_initialization.obj
 0001:0006b784       __p__environ               000000018006c784 f   libucrtd:environment_initialization.obj
 0001:0006b790       __p__wenviron              000000018006c790 f   libucrtd:environment_initialization.obj
 0001:0006b79c       _get_initial_narrow_environment 000000018006c79c f   libucrtd:environment_initialization.obj
 0001:0006b7c8       _get_initial_wide_environment 000000018006c7c8 f   libucrtd:environment_initialization.obj
 0001:0006b7f4       _initialize_narrow_environment 000000018006c7f4 f   libucrtd:environment_initialization.obj
 0001:0006b7fc       _initialize_wide_environment 000000018006c7fc f   libucrtd:environment_initialization.obj
 0001:0006b810       ??$?BP6AXXZ@__crt_fast_encoded_nullptr_t@@QEBAPEAP6AXXZXZ 000000018006c810 f i libucrtd:onexit.obj
 0001:0006b830       ??$?RP6AXXZ@__crt_internal_free_policy@@QEBAXQEBQ6AXXZ@Z 000000018006c830 f i libucrtd:onexit.obj
 0001:0006b860       ??$?RV<lambda_b0d8f1f77f5878de4f648f281b223c15>@@AEAV<lambda_942beefa13ab35ff55f86422493ffd6a>@@V<lambda_7adb6fc9c0d6a5bd4e2d9c212ec7cdcc>@@@?$__crt_seh_guarded_call@H@@QEAAH$$QEAV<lambda_b0d8f1f77f5878de4f648f281b223c15>@@AEAV<lambda_942beefa13ab35ff55f86422493ffd6a>@@$$QEAV<lambda_7adb6fc9c0d6a5bd4e2d9c212ec7cdcc>@@@Z 000000018006c860 f i libucrtd:onexit.obj
 0001:0006b8c0       ??$?RV<lambda_d22e02de4d14401f49897516b29a2b7c>@@AEAV<lambda_e971338317bfa523bb8920b43d823727>@@V<lambda_b0b8599c9027f5b14541fbbd6863d1f1>@@@?$__crt_seh_guarded_call@H@@QEAAH$$QEAV<lambda_d22e02de4d14401f49897516b29a2b7c>@@AEAV<lambda_e971338317bfa523bb8920b43d823727>@@$$QEAV<lambda_b0b8599c9027f5b14541fbbd6863d1f1>@@@Z 000000018006c8c0 f i libucrtd:onexit.obj
 0001:0006b920       ??$__acrt_lock_and_call@V<lambda_942beefa13ab35ff55f86422493ffd6a>@@@@YAHW4__acrt_lock_id@@$$QEAV<lambda_942beefa13ab35ff55f86422493ffd6a>@@@Z 000000018006c920 f i libucrtd:onexit.obj
 0001:0006b9a0       ??$__acrt_lock_and_call@V<lambda_e971338317bfa523bb8920b43d823727>@@@@YAHW4__acrt_lock_id@@$$QEAV<lambda_e971338317bfa523bb8920b43d823727>@@@Z 000000018006c9a0 f i libucrtd:onexit.obj
 0001:0006ba20       ??$__crt_fast_encode_pointer@P6AHXZ@@YAP6AHXZQ6AHXZ@Z 000000018006ca20 f i libucrtd:onexit.obj
 0001:0006bba0       ??0?$__crt_unique_heap_ptr@P6AXXZU__crt_internal_free_policy@@@@QEAA@QEAP6AXXZ@Z 000000018006cba0 f i libucrtd:onexit.obj
 0001:0006bbd0       ??1?$__crt_unique_heap_ptr@P6AXXZU__crt_internal_free_policy@@@@QEAA@XZ 000000018006cbd0 f i libucrtd:onexit.obj
 0001:0006c2e0       ?detach@?$__crt_unique_heap_ptr@P6AXXZU__crt_internal_free_policy@@@@QEAAPEAP6AXXZXZ 000000018006d2e0 f i libucrtd:onexit.obj
 0001:0006c320       ?release@?$__crt_unique_heap_ptr@P6AXXZU__crt_internal_free_policy@@@@QEAAXXZ 000000018006d320 f i libucrtd:onexit.obj
 0001:0006c370       _crt_at_quick_exit         000000018006d370 f   libucrtd:onexit.obj
 0001:0006c3a0       _crt_atexit                000000018006d3a0 f   libucrtd:onexit.obj
 0001:0006c3d0       _execute_onexit_table      000000018006d3d0 f   libucrtd:onexit.obj
 0001:0006c410       _initialize_onexit_table   000000018006d410 f   libucrtd:onexit.obj
 0001:0006c4b0       _register_onexit_function  000000018006d4b0 f   libucrtd:onexit.obj
 0001:0006c7a0       ?initialize@?$dual_state_global@PEAU__crt_locale_data@@@__crt_state_management@@QEAAXQEAU__crt_locale_data@@@Z 000000018006d7a0 f i libucrtd:initialization.obj
 0001:0006c800       __acrt_initialize          000000018006d800 f   libucrtd:initialization.obj
 0001:0006c830       __acrt_thread_attach       000000018006d830 f   libucrtd:initialization.obj
 0001:0006c850       __acrt_thread_detach       000000018006d850 f   libucrtd:initialization.obj
 0001:0006c870       __acrt_uninitialize        000000018006d870 f   libucrtd:initialization.obj
 0001:0006c8b0       __acrt_uninitialize_critical 000000018006d8b0 f   libucrtd:initialization.obj
 0001:0006c920       _get_terminate             000000018006d920 f   libucrtd:terminate.obj
 0001:0006c940       set_terminate              000000018006d940 f   libucrtd:terminate.obj
 0001:0006c990       terminate                  000000018006d990 f   libucrtd:terminate.obj
 0001:0006c9e0       ??$?0AEBV?$stream_output_adapter@D@__crt_stdio_output@@AEB_KAEBQEBDAEBQEAU__crt_locale_pointers@@AEBQEAD@?$format_validation_base@DV?$stream_output_adapter@D@__crt_stdio_output@@@__crt_stdio_output@@IEAA@AEBV?$stream_output_adapter@D@1@AEB_KAEBQEBDAEBQEAU__crt_locale_pointers@@AEBQEAD@Z 000000018006d9e0 f i libucrtd:output.obj
 0001:0006ca50       ??$?0AEBV?$stream_output_adapter@D@__crt_stdio_output@@AEB_KAEBQEBDAEBQEAU__crt_locale_pointers@@AEBQEAD@?$positional_parameter_base@DV?$stream_output_adapter@D@__crt_stdio_output@@@__crt_stdio_output@@IEAA@AEBV?$stream_output_adapter@D@1@AEB_KAEBQEBDAEBQEAU__crt_locale_pointers@@AEBQEAD@Z 000000018006da50 f i libucrtd:output.obj
 0001:0006cb20       ??$?0AEBV?$stream_output_adapter@D@__crt_stdio_output@@AEB_KAEBQEBDAEBQEAU__crt_locale_pointers@@AEBQEAD@?$standard_base@DV?$stream_output_adapter@D@__crt_stdio_output@@@__crt_stdio_output@@IEAA@AEBV?$stream_output_adapter@D@1@AEB_KAEBQEBDAEBQEAU__crt_locale_pointers@@AEBQEAD@Z 000000018006db20 f i libucrtd:output.obj
 0001:0006cbb0       ??$?0AEBV?$stream_output_adapter@_W@__crt_stdio_output@@AEB_KAEBQEB_WAEBQEAU__crt_locale_pointers@@AEBQEAD@?$format_validation_base@_WV?$stream_output_adapter@_W@__crt_stdio_output@@@__crt_stdio_output@@IEAA@AEBV?$stream_output_adapter@_W@1@AEB_KAEBQEB_WAEBQEAU__crt_locale_pointers@@AEBQEAD@Z 000000018006dbb0 f i libucrtd:output.obj
 0001:0006cc20       ??$?0AEBV?$stream_output_adapter@_W@__crt_stdio_output@@AEB_KAEBQEB_WAEBQEAU__crt_locale_pointers@@AEBQEAD@?$positional_parameter_base@_WV?$stream_output_adapter@_W@__crt_stdio_output@@@__crt_stdio_output@@IEAA@AEBV?$stream_output_adapter@_W@1@AEB_KAEBQEB_WAEBQEAU__crt_locale_pointers@@AEBQEAD@Z 000000018006dc20 f i libucrtd:output.obj
 0001:0006ccf0       ??$?0AEBV?$stream_output_adapter@_W@__crt_stdio_output@@AEB_KAEBQEB_WAEBQEAU__crt_locale_pointers@@AEBQEAD@?$standard_base@_WV?$stream_output_adapter@_W@__crt_stdio_output@@@__crt_stdio_output@@IEAA@AEBV?$stream_output_adapter@_W@1@AEB_KAEBQEB_WAEBQEAU__crt_locale_pointers@@AEBQEAD@Z 000000018006dcf0 f i libucrtd:output.obj
 0001:0006cd80       ??$?0AEBV?$string_output_adapter@D@__crt_stdio_output@@AEB_KAEBQEBDAEBQEAU__crt_locale_pointers@@AEBQEAD@?$format_validation_base@DV?$string_output_adapter@D@__crt_stdio_output@@@__crt_stdio_output@@IEAA@AEBV?$string_output_adapter@D@1@AEB_KAEBQEBDAEBQEAU__crt_locale_pointers@@AEBQEAD@Z 000000018006dd80 f i libucrtd:output.obj
 0001:0006cdf0       ??$?0AEBV?$string_output_adapter@D@__crt_stdio_output@@AEB_KAEBQEBDAEBQEAU__crt_locale_pointers@@AEBQEAD@?$positional_parameter_base@DV?$string_output_adapter@D@__crt_stdio_output@@@__crt_stdio_output@@IEAA@AEBV?$string_output_adapter@D@1@AEB_KAEBQEBDAEBQEAU__crt_locale_pointers@@AEBQEAD@Z 000000018006ddf0 f i libucrtd:output.obj
 0001:0006cec0       ??$?0AEBV?$string_output_adapter@D@__crt_stdio_output@@AEB_KAEBQEBDAEBQEAU__crt_locale_pointers@@AEBQEAD@?$standard_base@DV?$string_output_adapter@D@__crt_stdio_output@@@__crt_stdio_output@@IEAA@AEBV?$string_output_adapter@D@1@AEB_KAEBQEBDAEBQEAU__crt_locale_pointers@@AEBQEAD@Z 000000018006dec0 f i libucrtd:output.obj
 0001:0006cf50       ??$?0AEBV?$string_output_adapter@_W@__crt_stdio_output@@AEB_KAEBQEB_WAEBQEAU__crt_locale_pointers@@AEBQEAD@?$format_validation_base@_WV?$string_output_adapter@_W@__crt_stdio_output@@@__crt_stdio_output@@IEAA@AEBV?$string_output_adapter@_W@1@AEB_KAEBQEB_WAEBQEAU__crt_locale_pointers@@AEBQEAD@Z 000000018006df50 f i libucrtd:output.obj
 0001:0006cfc0       ??$?0AEBV?$string_output_adapter@_W@__crt_stdio_output@@AEB_KAEBQEB_WAEBQEAU__crt_locale_pointers@@AEBQEAD@?$positional_parameter_base@_WV?$string_output_adapter@_W@__crt_stdio_output@@@__crt_stdio_output@@IEAA@AEBV?$string_output_adapter@_W@1@AEB_KAEBQEB_WAEBQEAU__crt_locale_pointers@@AEBQEAD@Z 000000018006dfc0 f i libucrtd:output.obj
 0001:0006d090       ??$?0AEBV?$string_output_adapter@_W@__crt_stdio_output@@AEB_KAEBQEB_WAEBQEAU__crt_locale_pointers@@AEBQEAD@?$standard_base@_WV?$string_output_adapter@_W@__crt_stdio_output@@@__crt_stdio_output@@IEAA@AEBV?$string_output_adapter@_W@1@AEB_KAEBQEB_WAEBQEAU__crt_locale_pointers@@AEBQEAD@Z 000000018006e090 f i libucrtd:output.obj
 0001:0006d120       ??$?RV<lambda_2647abb55a408a205467c4169a724277>@@AEAV<lambda_576477a770bb5ab586b2d9569451c7f7>@@V<lambda_c2b006f504a10a4cf14b9a1fbce2a01e>@@@?$__crt_seh_guarded_call@H@@QEAAH$$QEAV<lambda_2647abb55a408a205467c4169a724277>@@AEAV<lambda_576477a770bb5ab586b2d9569451c7f7>@@$$QEAV<lambda_c2b006f504a10a4cf14b9a1fbce2a01e>@@@Z 000000018006e120 f i libucrtd:output.obj
 0001:0006d180       ??$?RV<lambda_2b8ba55cb2a29189d70f882b678c7350>@@AEAV<lambda_ab9668973a2a61b07c64846465621f55>@@V<lambda_748afda9c1ab82b4e15f74dcdf75db74>@@@?$__crt_seh_guarded_call@H@@QEAAH$$QEAV<lambda_2b8ba55cb2a29189d70f882b678c7350>@@AEAV<lambda_ab9668973a2a61b07c64846465621f55>@@$$QEAV<lambda_748afda9c1ab82b4e15f74dcdf75db74>@@@Z 000000018006e180 f i libucrtd:output.obj
 0001:0006d1e0       ??$?RV<lambda_4942f9dcb8a83a0b649775421cdab7f2>@@AEAV<lambda_9fdeb54d99e6c7e515b8c19e0613d470>@@V<lambda_f61bc4569557b8ad96931f67d51af400>@@@?$__crt_seh_guarded_call@H@@QEAAH$$QEAV<lambda_4942f9dcb8a83a0b649775421cdab7f2>@@AEAV<lambda_9fdeb54d99e6c7e515b8c19e0613d470>@@$$QEAV<lambda_f61bc4569557b8ad96931f67d51af400>@@@Z 000000018006e1e0 f i libucrtd:output.obj
 0001:0006d240       ??$?RV<lambda_7b91131dde12e1c3dfc74ff76b3f2eac>@@AEAV<lambda_dd75445284c072d0bd3768540cc698fa>@@V<lambda_16bc4ecb55b4718497c16bceaea2ceaf>@@@?$__crt_seh_guarded_call@H@@QEAAH$$QEAV<lambda_7b91131dde12e1c3dfc74ff76b3f2eac>@@AEAV<lambda_dd75445284c072d0bd3768540cc698fa>@@$$QEAV<lambda_16bc4ecb55b4718497c16bceaea2ceaf>@@@Z 000000018006e240 f i libucrtd:output.obj
 0001:0006d2a0       ??$?RV<lambda_aa279a7bcb127014629d5b1d62c7325d>@@AEAV<lambda_0a64b6a4deda75c01876f29c44fc5eb3>@@V<lambda_3323e69fbefe9d1a11713e670d47cdfa>@@@?$__crt_seh_guarded_call@H@@QEAAH$$QEAV<lambda_aa279a7bcb127014629d5b1d62c7325d>@@AEAV<lambda_0a64b6a4deda75c01876f29c44fc5eb3>@@$$QEAV<lambda_3323e69fbefe9d1a11713e670d47cdfa>@@@Z 000000018006e2a0 f i libucrtd:output.obj
 0001:0006d300       ??$?RV<lambda_c232a0c49490a30f399a8430f51b50ba>@@AEAV<lambda_7b6c652cce95ef5b7c2ff34f92bf0578>@@V<lambda_c415c6f6d9d103d7e93818ef66b8cc8a>@@@?$__crt_seh_guarded_call@H@@QEAAH$$QEAV<lambda_c232a0c49490a30f399a8430f51b50ba>@@AEAV<lambda_7b6c652cce95ef5b7c2ff34f92bf0578>@@$$QEAV<lambda_c415c6f6d9d103d7e93818ef66b8cc8a>@@@Z 000000018006e300 f i libucrtd:output.obj
 0001:0006d360       ??$__acrt_lock_stream_and_call@V<lambda_0a64b6a4deda75c01876f29c44fc5eb3>@@@@YAHQEAU_iobuf@@$$QEAV<lambda_0a64b6a4deda75c01876f29c44fc5eb3>@@@Z 000000018006e360 f i libucrtd:output.obj
 0001:0006d3e0       ??$__acrt_lock_stream_and_call@V<lambda_576477a770bb5ab586b2d9569451c7f7>@@@@YAHQEAU_iobuf@@$$QEAV<lambda_576477a770bb5ab586b2d9569451c7f7>@@@Z 000000018006e3e0 f i libucrtd:output.obj
 0001:0006d460       ??$__acrt_lock_stream_and_call@V<lambda_7b6c652cce95ef5b7c2ff34f92bf0578>@@@@YAHQEAU_iobuf@@$$QEAV<lambda_7b6c652cce95ef5b7c2ff34f92bf0578>@@@Z 000000018006e460 f i libucrtd:output.obj
 0001:0006d4e0       ??$__acrt_lock_stream_and_call@V<lambda_9fdeb54d99e6c7e515b8c19e0613d470>@@@@YAHQEAU_iobuf@@$$QEAV<lambda_9fdeb54d99e6c7e515b8c19e0613d470>@@@Z 000000018006e4e0 f i libucrtd:output.obj
 0001:0006d560       ??$__acrt_lock_stream_and_call@V<lambda_ab9668973a2a61b07c64846465621f55>@@@@YAHQEAU_iobuf@@$$QEAV<lambda_ab9668973a2a61b07c64846465621f55>@@@Z 000000018006e560 f i libucrtd:output.obj
 0001:0006d5e0       ??$__acrt_lock_stream_and_call@V<lambda_dd75445284c072d0bd3768540cc698fa>@@@@YAHQEAU_iobuf@@$$QEAV<lambda_dd75445284c072d0bd3768540cc698fa>@@@Z 000000018006e5e0 f i libucrtd:output.obj
 0001:00071fb0       ??$count@D@formatting_buffer@__crt_stdio_output@@QEBA_KXZ 0000000180072fb0 f i libucrtd:output.obj
 0001:00072010       ??$data@D@formatting_buffer@__crt_stdio_output@@QEAAPEADXZ 0000000180073010 f i libucrtd:output.obj
 0001:00072070       ??$data@_W@formatting_buffer@__crt_stdio_output@@QEAAPEA_WXZ 0000000180073070 f i libucrtd:output.obj
 0001:000720d0       ??$ensure_buffer_is_big_enough@D@formatting_buffer@__crt_stdio_output@@QEAA_N_K@Z 00000001800730d0 f i libucrtd:output.obj
 0001:00072240       ??$extract_argument_from_va_list@C_J@?$positional_parameter_base@DV?$stream_output_adapter@D@__crt_stdio_output@@@__crt_stdio_output@@IEAA_NAEA_J@Z 0000000180073240 f i libucrtd:output.obj
 0001:00072420       ??$extract_argument_from_va_list@C_J@?$positional_parameter_base@DV?$string_output_adapter@D@__crt_stdio_output@@@__crt_stdio_output@@IEAA_NAEA_J@Z 0000000180073420 f i libucrtd:output.obj
 0001:00072600       ??$extract_argument_from_va_list@C_J@?$positional_parameter_base@_WV?$stream_output_adapter@_W@__crt_stdio_output@@@__crt_stdio_output@@IEAA_NAEA_J@Z 0000000180073600 f i libucrtd:output.obj
 0001:000727e0       ??$extract_argument_from_va_list@C_J@?$positional_parameter_base@_WV?$string_output_adapter@_W@__crt_stdio_output@@@__crt_stdio_output@@IEAA_NAEA_J@Z 00000001800737e0 f i libucrtd:output.obj
 0001:000729c0       ??$extract_argument_from_va_list@C_J@?$standard_base@DV?$stream_output_adapter@D@__crt_stdio_output@@@__crt_stdio_output@@IEAA_NAEA_J@Z 00000001800739c0 f i libucrtd:output.obj
 0001:00072a00       ??$extract_argument_from_va_list@C_J@?$standard_base@DV?$string_output_adapter@D@__crt_stdio_output@@@__crt_stdio_output@@IEAA_NAEA_J@Z 0000000180073a00 f i libucrtd:output.obj
 0001:00072a40       ??$extract_argument_from_va_list@C_J@?$standard_base@_WV?$stream_output_adapter@_W@__crt_stdio_output@@@__crt_stdio_output@@IEAA_NAEA_J@Z 0000000180073a40 f i libucrtd:output.obj
 0001:00072a80       ??$extract_argument_from_va_list@C_J@?$standard_base@_WV?$string_output_adapter@_W@__crt_stdio_output@@@__crt_stdio_output@@IEAA_NAEA_J@Z 0000000180073a80 f i libucrtd:output.obj
 0001:00072ac0       ??$extract_argument_from_va_list@E_J@?$positional_parameter_base@DV?$stream_output_adapter@D@__crt_stdio_output@@@__crt_stdio_output@@IEAA_NAEA_J@Z 0000000180073ac0 f i libucrtd:output.obj
 0001:00072ca0       ??$extract_argument_from_va_list@E_J@?$positional_parameter_base@DV?$string_output_adapter@D@__crt_stdio_output@@@__crt_stdio_output@@IEAA_NAEA_J@Z 0000000180073ca0 f i libucrtd:output.obj
 0001:00072e80       ??$extract_argument_from_va_list@E_J@?$positional_parameter_base@_WV?$stream_output_adapter@_W@__crt_stdio_output@@@__crt_stdio_output@@IEAA_NAEA_J@Z 0000000180073e80 f i libucrtd:output.obj
 0001:00073060       ??$extract_argument_from_va_list@E_J@?$positional_parameter_base@_WV?$string_output_adapter@_W@__crt_stdio_output@@@__crt_stdio_output@@IEAA_NAEA_J@Z 0000000180074060 f i libucrtd:output.obj
 0001:00073240       ??$extract_argument_from_va_list@E_J@?$standard_base@DV?$stream_output_adapter@D@__crt_stdio_output@@@__crt_stdio_output@@IEAA_NAEA_J@Z 0000000180074240 f i libucrtd:output.obj
 0001:00073280       ??$extract_argument_from_va_list@E_J@?$standard_base@DV?$string_output_adapter@D@__crt_stdio_output@@@__crt_stdio_output@@IEAA_NAEA_J@Z 0000000180074280 f i libucrtd:output.obj
 0001:000732c0       ??$extract_argument_from_va_list@E_J@?$standard_base@_WV?$stream_output_adapter@_W@__crt_stdio_output@@@__crt_stdio_output@@IEAA_NAEA_J@Z 00000001800742c0 f i libucrtd:output.obj
 0001:00073300       ??$extract_argument_from_va_list@E_J@?$standard_base@_WV?$string_output_adapter@_W@__crt_stdio_output@@@__crt_stdio_output@@IEAA_NAEA_J@Z 0000000180074300 f i libucrtd:output.obj
 0001:00073340       ??$extract_argument_from_va_list@F_J@?$positional_parameter_base@DV?$stream_output_adapter@D@__crt_stdio_output@@@__crt_stdio_output@@IEAA_NAEA_J@Z 0000000180074340 f i libucrtd:output.obj
 0001:00073520       ??$extract_argument_from_va_list@F_J@?$positional_parameter_base@DV?$string_output_adapter@D@__crt_stdio_output@@@__crt_stdio_output@@IEAA_NAEA_J@Z 0000000180074520 f i libucrtd:output.obj
 0001:00073700       ??$extract_argument_from_va_list@F_J@?$positional_parameter_base@_WV?$stream_output_adapter@_W@__crt_stdio_output@@@__crt_stdio_output@@IEAA_NAEA_J@Z 0000000180074700 f i libucrtd:output.obj
 0001:000738e0       ??$extract_argument_from_va_list@F_J@?$positional_parameter_base@_WV?$string_output_adapter@_W@__crt_stdio_output@@@__crt_stdio_output@@IEAA_NAEA_J@Z 00000001800748e0 f i libucrtd:output.obj
 0001:00073ac0       ??$extract_argument_from_va_list@F_J@?$standard_base@DV?$stream_output_adapter@D@__crt_stdio_output@@@__crt_stdio_output@@IEAA_NAEA_J@Z 0000000180074ac0 f i libucrtd:output.obj
 0001:00073b00       ??$extract_argument_from_va_list@F_J@?$standard_base@DV?$string_output_adapter@D@__crt_stdio_output@@@__crt_stdio_output@@IEAA_NAEA_J@Z 0000000180074b00 f i libucrtd:output.obj
 0001:00073b40       ??$extract_argument_from_va_list@F_J@?$standard_base@_WV?$stream_output_adapter@_W@__crt_stdio_output@@@__crt_stdio_output@@IEAA_NAEA_J@Z 0000000180074b40 f i libucrtd:output.obj
 0001:00073b80       ??$extract_argument_from_va_list@F_J@?$standard_base@_WV?$string_output_adapter@_W@__crt_stdio_output@@@__crt_stdio_output@@IEAA_NAEA_J@Z 0000000180074b80 f i libucrtd:output.obj
 0001:00073bc0       ??$extract_argument_from_va_list@GD@?$positional_parameter_base@DV?$stream_output_adapter@D@__crt_stdio_output@@@__crt_stdio_output@@IEAA_NAEAD@Z 0000000180074bc0 f i libucrtd:output.obj
 0001:00073da0       ??$extract_argument_from_va_list@GD@?$positional_parameter_base@DV?$string_output_adapter@D@__crt_stdio_output@@@__crt_stdio_output@@IEAA_NAEAD@Z 0000000180074da0 f i libucrtd:output.obj
 0001:00073f80       ??$extract_argument_from_va_list@GD@?$standard_base@DV?$stream_output_adapter@D@__crt_stdio_output@@@__crt_stdio_output@@IEAA_NAEAD@Z 0000000180074f80 f i libucrtd:output.obj
 0001:00073fc0       ??$extract_argument_from_va_list@GD@?$standard_base@DV?$string_output_adapter@D@__crt_stdio_output@@@__crt_stdio_output@@IEAA_NAEAD@Z 0000000180074fc0 f i libucrtd:output.obj
 0001:00074000       ??$extract_argument_from_va_list@G_J@?$positional_parameter_base@DV?$stream_output_adapter@D@__crt_stdio_output@@@__crt_stdio_output@@IEAA_NAEA_J@Z 0000000180075000 f i libucrtd:output.obj
 0001:000741e0       ??$extract_argument_from_va_list@G_J@?$positional_parameter_base@DV?$string_output_adapter@D@__crt_stdio_output@@@__crt_stdio_output@@IEAA_NAEA_J@Z 00000001800751e0 f i libucrtd:output.obj
 0001:000743c0       ??$extract_argument_from_va_list@G_J@?$positional_parameter_base@_WV?$stream_output_adapter@_W@__crt_stdio_output@@@__crt_stdio_output@@IEAA_NAEA_J@Z 00000001800753c0 f i libucrtd:output.obj
 0001:000745a0       ??$extract_argument_from_va_list@G_J@?$positional_parameter_base@_WV?$string_output_adapter@_W@__crt_stdio_output@@@__crt_stdio_output@@IEAA_NAEA_J@Z 00000001800755a0 f i libucrtd:output.obj
 0001:00074780       ??$extract_argument_from_va_list@G_J@?$standard_base@DV?$stream_output_adapter@D@__crt_stdio_output@@@__crt_stdio_output@@IEAA_NAEA_J@Z 0000000180075780 f i libucrtd:output.obj
 0001:000747c0       ??$extract_argument_from_va_list@G_J@?$standard_base@DV?$string_output_adapter@D@__crt_stdio_output@@@__crt_stdio_output@@IEAA_NAEA_J@Z 00000001800757c0 f i libucrtd:output.obj
 0001:00074800       ??$extract_argument_from_va_list@G_J@?$standard_base@_WV?$stream_output_adapter@_W@__crt_stdio_output@@@__crt_stdio_output@@IEAA_NAEA_J@Z 0000000180075800 f i libucrtd:output.obj
 0001:00074840       ??$extract_argument_from_va_list@G_J@?$standard_base@_WV?$string_output_adapter@_W@__crt_stdio_output@@@__crt_stdio_output@@IEAA_NAEA_J@Z 0000000180075840 f i libucrtd:output.obj
 0001:00074880       ??$extract_argument_from_va_list@H_J@?$positional_parameter_base@DV?$stream_output_adapter@D@__crt_stdio_output@@@__crt_stdio_output@@IEAA_NAEA_J@Z 0000000180075880 f i libucrtd:output.obj
 0001:00074a60       ??$extract_argument_from_va_list@H_J@?$positional_parameter_base@DV?$string_output_adapter@D@__crt_stdio_output@@@__crt_stdio_output@@IEAA_NAEA_J@Z 0000000180075a60 f i libucrtd:output.obj
 0001:00074c40       ??$extract_argument_from_va_list@H_J@?$positional_parameter_base@_WV?$stream_output_adapter@_W@__crt_stdio_output@@@__crt_stdio_output@@IEAA_NAEA_J@Z 0000000180075c40 f i libucrtd:output.obj
 0001:00074e20       ??$extract_argument_from_va_list@H_J@?$positional_parameter_base@_WV?$string_output_adapter@_W@__crt_stdio_output@@@__crt_stdio_output@@IEAA_NAEA_J@Z 0000000180075e20 f i libucrtd:output.obj
 0001:00075000       ??$extract_argument_from_va_list@H_J@?$standard_base@DV?$stream_output_adapter@D@__crt_stdio_output@@@__crt_stdio_output@@IEAA_NAEA_J@Z 0000000180076000 f i libucrtd:output.obj
 0001:00075040       ??$extract_argument_from_va_list@H_J@?$standard_base@DV?$string_output_adapter@D@__crt_stdio_output@@@__crt_stdio_output@@IEAA_NAEA_J@Z 0000000180076040 f i libucrtd:output.obj
 0001:00075080       ??$extract_argument_from_va_list@H_J@?$standard_base@_WV?$stream_output_adapter@_W@__crt_stdio_output@@@__crt_stdio_output@@IEAA_NAEA_J@Z 0000000180076080 f i libucrtd:output.obj
 0001:000750c0       ??$extract_argument_from_va_list@H_J@?$standard_base@_WV?$string_output_adapter@_W@__crt_stdio_output@@@__crt_stdio_output@@IEAA_NAEA_J@Z 00000001800760c0 f i libucrtd:output.obj
 0001:00075100       ??$extract_argument_from_va_list@I_J@?$positional_parameter_base@DV?$stream_output_adapter@D@__crt_stdio_output@@@__crt_stdio_output@@IEAA_NAEA_J@Z 0000000180076100 f i libucrtd:output.obj
 0001:000752e0       ??$extract_argument_from_va_list@I_J@?$positional_parameter_base@DV?$string_output_adapter@D@__crt_stdio_output@@@__crt_stdio_output@@IEAA_NAEA_J@Z 00000001800762e0 f i libucrtd:output.obj
 0001:000754c0       ??$extract_argument_from_va_list@I_J@?$positional_parameter_base@_WV?$stream_output_adapter@_W@__crt_stdio_output@@@__crt_stdio_output@@IEAA_NAEA_J@Z 00000001800764c0 f i libucrtd:output.obj
 0001:000756a0       ??$extract_argument_from_va_list@I_J@?$positional_parameter_base@_WV?$string_output_adapter@_W@__crt_stdio_output@@@__crt_stdio_output@@IEAA_NAEA_J@Z 00000001800766a0 f i libucrtd:output.obj
 0001:00075880       ??$extract_argument_from_va_list@I_J@?$standard_base@DV?$stream_output_adapter@D@__crt_stdio_output@@@__crt_stdio_output@@IEAA_NAEA_J@Z 0000000180076880 f i libucrtd:output.obj
 0001:000758c0       ??$extract_argument_from_va_list@I_J@?$standard_base@DV?$string_output_adapter@D@__crt_stdio_output@@@__crt_stdio_output@@IEAA_NAEA_J@Z 00000001800768c0 f i libucrtd:output.obj
 0001:00075900       ??$extract_argument_from_va_list@I_J@?$standard_base@_WV?$stream_output_adapter@_W@__crt_stdio_output@@@__crt_stdio_output@@IEAA_NAEA_J@Z 0000000180076900 f i libucrtd:output.obj
 0001:00075940       ??$extract_argument_from_va_list@I_J@?$standard_base@_WV?$string_output_adapter@_W@__crt_stdio_output@@@__crt_stdio_output@@IEAA_NAEA_J@Z 0000000180076940 f i libucrtd:output.obj
 0001:00075980       ??$extract_argument_from_va_list@PEADPEAD@?$positional_parameter_base@DV?$stream_output_adapter@D@__crt_stdio_output@@@__crt_stdio_output@@IEAA_NAEAPEAD@Z 0000000180076980 f i libucrtd:output.obj
 0001:00075b60       ??$extract_argument_from_va_list@PEADPEAD@?$positional_parameter_base@DV?$string_output_adapter@D@__crt_stdio_output@@@__crt_stdio_output@@IEAA_NAEAPEAD@Z 0000000180076b60 f i libucrtd:output.obj
 0001:00075d40       ??$extract_argument_from_va_list@PEADPEAD@?$positional_parameter_base@_WV?$stream_output_adapter@_W@__crt_stdio_output@@@__crt_stdio_output@@IEAA_NAEAPEAD@Z 0000000180076d40 f i libucrtd:output.obj
 0001:00075f20       ??$extract_argument_from_va_list@PEADPEAD@?$positional_parameter_base@_WV?$string_output_adapter@_W@__crt_stdio_output@@@__crt_stdio_output@@IEAA_NAEAPEAD@Z 0000000180076f20 f i libucrtd:output.obj
 0001:00076100       ??$extract_argument_from_va_list@PEADPEAD@?$standard_base@DV?$stream_output_adapter@D@__crt_stdio_output@@@__crt_stdio_output@@IEAA_NAEAPEAD@Z 0000000180077100 f i libucrtd:output.obj
 0001:00076140       ??$extract_argument_from_va_list@PEADPEAD@?$standard_base@DV?$string_output_adapter@D@__crt_stdio_output@@@__crt_stdio_output@@IEAA_NAEAPEAD@Z 0000000180077140 f i libucrtd:output.obj
 0001:00076180       ??$extract_argument_from_va_list@PEADPEAD@?$standard_base@_WV?$stream_output_adapter@_W@__crt_stdio_output@@@__crt_stdio_output@@IEAA_NAEAPEAD@Z 0000000180077180 f i libucrtd:output.obj
 0001:000761c0       ??$extract_argument_from_va_list@PEADPEAD@?$standard_base@_WV?$string_output_adapter@_W@__crt_stdio_output@@@__crt_stdio_output@@IEAA_NAEAPEAD@Z 00000001800771c0 f i libucrtd:output.obj
 0001:00076200       ??$extract_argument_from_va_list@PEAUansi_string@?1??type_case_Z@?$output_processor@DV?$stream_output_adapter@D@__crt_stdio_output@@V?$format_validation_base@DV?$stream_output_adapter@D@__crt_stdio_output@@@2@@__crt_stdio_output@@AEAA_NXZ@PEAU1?1??234@AEAA_NXZ@@?$standard_base@DV?$stream_output_adapter@D@__crt_stdio_output@@@__crt_stdio_output@@IEAA_NAEAPEAUansi_string@?1??type_case_Z@?$output_processor@DV?$stream_output_adapter@D@__crt_stdio_output@@V?$format_validation_base@DV?$stream_output_adapter@D@__crt_stdio_output@@@2@@1@AEAA_NXZ@@Z 0000000180077200 f i libucrtd:output.obj
 0001:00076240       ??$extract_argument_from_va_list@PEAUansi_string@?1??type_case_Z@?$output_processor@DV?$stream_output_adapter@D@__crt_stdio_output@@V?$positional_parameter_base@DV?$stream_output_adapter@D@__crt_stdio_output@@@2@@__crt_stdio_output@@AEAA_NXZ@PEAU1?1??234@AEAA_NXZ@@?$positional_parameter_base@DV?$stream_output_adapter@D@__crt_stdio_output@@@__crt_stdio_output@@IEAA_NAEAPEAUansi_string@?1??type_case_Z@?$output_processor@DV?$stream_output_adapter@D@__crt_stdio_output@@V?$positional_parameter_base@DV?$stream_output_adapter@D@__crt_stdio_output@@@2@@1@AEAA_NXZ@@Z 0000000180077240 f i libucrtd:output.obj
 0001:00076420       ??$extract_argument_from_va_list@PEAUansi_string@?1??type_case_Z@?$output_processor@DV?$stream_output_adapter@D@__crt_stdio_output@@V?$positional_parameter_base@DV?$stream_output_adapter@D@__crt_stdio_output@@@2@@__crt_stdio_output@@AEAA_NXZ@PEAU1?1??234@AEAA_NXZ@@?$standard_base@DV?$stream_output_adapter@D@__crt_stdio_output@@@__crt_stdio_output@@IEAA_NAEAPEAUansi_string@?1??type_case_Z@?$output_processor@DV?$stream_output_adapter@D@__crt_stdio_output@@V?$positional_parameter_base@DV?$stream_output_adapter@D@__crt_stdio_output@@@2@@1@AEAA_NXZ@@Z 0000000180077420 f i libucrtd:output.obj
 0001:00076460       ??$extract_argument_from_va_list@PEAUansi_string@?1??type_case_Z@?$output_processor@DV?$stream_output_adapter@D@__crt_stdio_output@@V?$standard_base@DV?$stream_output_adapter@D@__crt_stdio_output@@@2@@__crt_stdio_output@@AEAA_NXZ@PEAU1?1??234@AEAA_NXZ@@?$standard_base@DV?$stream_output_adapter@D@__crt_stdio_output@@@__crt_stdio_output@@IEAA_NAEAPEAUansi_string@?1??type_case_Z@?$output_processor@DV?$stream_output_adapter@D@__crt_stdio_output@@V?$standard_base@DV?$stream_output_adapter@D@__crt_stdio_output@@@2@@1@AEAA_NXZ@@Z 0000000180077460 f i libucrtd:output.obj
 0001:000764a0       ??$extract_argument_from_va_list@PEAUansi_string@?1??type_case_Z@?$output_processor@DV?$string_output_adapter@D@__crt_stdio_output@@V?$format_validation_base@DV?$string_output_adapter@D@__crt_stdio_output@@@2@@__crt_stdio_output@@AEAA_NXZ@PEAU1?1??234@AEAA_NXZ@@?$standard_base@DV?$string_output_adapter@D@__crt_stdio_output@@@__crt_stdio_output@@IEAA_NAEAPEAUansi_string@?1??type_case_Z@?$output_processor@DV?$string_output_adapter@D@__crt_stdio_output@@V?$format_validation_base@DV?$string_output_adapter@D@__crt_stdio_output@@@2@@1@AEAA_NXZ@@Z 00000001800774a0 f i libucrtd:output.obj
 0001:000764e0       ??$extract_argument_from_va_list@PEAUansi_string@?1??type_case_Z@?$output_processor@DV?$string_output_adapter@D@__crt_stdio_output@@V?$positional_parameter_base@DV?$string_output_adapter@D@__crt_stdio_output@@@2@@__crt_stdio_output@@AEAA_NXZ@PEAU1?1??234@AEAA_NXZ@@?$positional_parameter_base@DV?$string_output_adapter@D@__crt_stdio_output@@@__crt_stdio_output@@IEAA_NAEAPEAUansi_string@?1??type_case_Z@?$output_processor@DV?$string_output_adapter@D@__crt_stdio_output@@V?$positional_parameter_base@DV?$string_output_adapter@D@__crt_stdio_output@@@2@@1@AEAA_NXZ@@Z 00000001800774e0 f i libucrtd:output.obj
 0001:000766c0       ??$extract_argument_from_va_list@PEAUansi_string@?1??type_case_Z@?$output_processor@DV?$string_output_adapter@D@__crt_stdio_output@@V?$positional_parameter_base@DV?$string_output_adapter@D@__crt_stdio_output@@@2@@__crt_stdio_output@@AEAA_NXZ@PEAU1?1??234@AEAA_NXZ@@?$standard_base@DV?$string_output_adapter@D@__crt_stdio_output@@@__crt_stdio_output@@IEAA_NAEAPEAUansi_string@?1??type_case_Z@?$output_processor@DV?$string_output_adapter@D@__crt_stdio_output@@V?$positional_parameter_base@DV?$string_output_adapter@D@__crt_stdio_output@@@2@@1@AEAA_NXZ@@Z 00000001800776c0 f i libucrtd:output.obj
 0001:00076700       ??$extract_argument_from_va_list@PEAUansi_string@?1??type_case_Z@?$output_processor@DV?$string_output_adapter@D@__crt_stdio_output@@V?$standard_base@DV?$string_output_adapter@D@__crt_stdio_output@@@2@@__crt_stdio_output@@AEAA_NXZ@PEAU1?1??234@AEAA_NXZ@@?$standard_base@DV?$string_output_adapter@D@__crt_stdio_output@@@__crt_stdio_output@@IEAA_NAEAPEAUansi_string@?1??type_case_Z@?$output_processor@DV?$string_output_adapter@D@__crt_stdio_output@@V?$standard_base@DV?$string_output_adapter@D@__crt_stdio_output@@@2@@1@AEAA_NXZ@@Z 0000000180077700 f i libucrtd:output.obj
 0001:00076740       ??$extract_argument_from_va_list@PEAUansi_string@?1??type_case_Z@?$output_processor@_WV?$stream_output_adapter@_W@__crt_stdio_output@@V?$format_validation_base@_WV?$stream_output_adapter@_W@__crt_stdio_output@@@2@@__crt_stdio_output@@AEAA_NXZ@PEAU1?1??234@AEAA_NXZ@@?$standard_base@_WV?$stream_output_adapter@_W@__crt_stdio_output@@@__crt_stdio_output@@IEAA_NAEAPEAUansi_string@?1??type_case_Z@?$output_processor@_WV?$stream_output_adapter@_W@__crt_stdio_output@@V?$format_validation_base@_WV?$stream_output_adapter@_W@__crt_stdio_output@@@2@@1@AEAA_NXZ@@Z 0000000180077740 f i libucrtd:output.obj
 0001:00076780       ??$extract_argument_from_va_list@PEAUansi_string@?1??type_case_Z@?$output_processor@_WV?$stream_output_adapter@_W@__crt_stdio_output@@V?$positional_parameter_base@_WV?$stream_output_adapter@_W@__crt_stdio_output@@@2@@__crt_stdio_output@@AEAA_NXZ@PEAU1?1??234@AEAA_NXZ@@?$positional_parameter_base@_WV?$stream_output_adapter@_W@__crt_stdio_output@@@__crt_stdio_output@@IEAA_NAEAPEAUansi_string@?1??type_case_Z@?$output_processor@_WV?$stream_output_adapter@_W@__crt_stdio_output@@V?$positional_parameter_base@_WV?$stream_output_adapter@_W@__crt_stdio_output@@@2@@1@AEAA_NXZ@@Z 0000000180077780 f i libucrtd:output.obj
 0001:00076960       ??$extract_argument_from_va_list@PEAUansi_string@?1??type_case_Z@?$output_processor@_WV?$stream_output_adapter@_W@__crt_stdio_output@@V?$positional_parameter_base@_WV?$stream_output_adapter@_W@__crt_stdio_output@@@2@@__crt_stdio_output@@AEAA_NXZ@PEAU1?1??234@AEAA_NXZ@@?$standard_base@_WV?$stream_output_adapter@_W@__crt_stdio_output@@@__crt_stdio_output@@IEAA_NAEAPEAUansi_string@?1??type_case_Z@?$output_processor@_WV?$stream_output_adapter@_W@__crt_stdio_output@@V?$positional_parameter_base@_WV?$stream_output_adapter@_W@__crt_stdio_output@@@2@@1@AEAA_NXZ@@Z 0000000180077960 f i libucrtd:output.obj
 0001:000769a0       ??$extract_argument_from_va_list@PEAUansi_string@?1??type_case_Z@?$output_processor@_WV?$stream_output_adapter@_W@__crt_stdio_output@@V?$standard_base@_WV?$stream_output_adapter@_W@__crt_stdio_output@@@2@@__crt_stdio_output@@AEAA_NXZ@PEAU1?1??234@AEAA_NXZ@@?$standard_base@_WV?$stream_output_adapter@_W@__crt_stdio_output@@@__crt_stdio_output@@IEAA_NAEAPEAUansi_string@?1??type_case_Z@?$output_processor@_WV?$stream_output_adapter@_W@__crt_stdio_output@@V?$standard_base@_WV?$stream_output_adapter@_W@__crt_stdio_output@@@2@@1@AEAA_NXZ@@Z 00000001800779a0 f i libucrtd:output.obj
 0001:000769e0       ??$extract_argument_from_va_list@PEAUansi_string@?1??type_case_Z@?$output_processor@_WV?$string_output_adapter@_W@__crt_stdio_output@@V?$format_validation_base@_WV?$string_output_adapter@_W@__crt_stdio_output@@@2@@__crt_stdio_output@@AEAA_NXZ@PEAU1?1??234@AEAA_NXZ@@?$standard_base@_WV?$string_output_adapter@_W@__crt_stdio_output@@@__crt_stdio_output@@IEAA_NAEAPEAUansi_string@?1??type_case_Z@?$output_processor@_WV?$string_output_adapter@_W@__crt_stdio_output@@V?$format_validation_base@_WV?$string_output_adapter@_W@__crt_stdio_output@@@2@@1@AEAA_NXZ@@Z 00000001800779e0 f i libucrtd:output.obj
 0001:00076a20       ??$extract_argument_from_va_list@PEAUansi_string@?1??type_case_Z@?$output_processor@_WV?$string_output_adapter@_W@__crt_stdio_output@@V?$positional_parameter_base@_WV?$string_output_adapter@_W@__crt_stdio_output@@@2@@__crt_stdio_output@@AEAA_NXZ@PEAU1?1??234@AEAA_NXZ@@?$positional_parameter_base@_WV?$string_output_adapter@_W@__crt_stdio_output@@@__crt_stdio_output@@IEAA_NAEAPEAUansi_string@?1??type_case_Z@?$output_processor@_WV?$string_output_adapter@_W@__crt_stdio_output@@V?$positional_parameter_base@_WV?$string_output_adapter@_W@__crt_stdio_output@@@2@@1@AEAA_NXZ@@Z 0000000180077a20 f i libucrtd:output.obj
 0001:00076c00       ??$extract_argument_from_va_list@PEAUansi_string@?1??type_case_Z@?$output_processor@_WV?$string_output_adapter@_W@__crt_stdio_output@@V?$positional_parameter_base@_WV?$string_output_adapter@_W@__crt_stdio_output@@@2@@__crt_stdio_output@@AEAA_NXZ@PEAU1?1??234@AEAA_NXZ@@?$standard_base@_WV?$string_output_adapter@_W@__crt_stdio_output@@@__crt_stdio_output@@IEAA_NAEAPEAUansi_string@?1??type_case_Z@?$output_processor@_WV?$string_output_adapter@_W@__crt_stdio_output@@V?$positional_parameter_base@_WV?$string_output_adapter@_W@__crt_stdio_output@@@2@@1@AEAA_NXZ@@Z 0000000180077c00 f i libucrtd:output.obj
 0001:00076c40       ??$extract_argument_from_va_list@PEAUansi_string@?1??type_case_Z@?$output_processor@_WV?$string_output_adapter@_W@__crt_stdio_output@@V?$standard_base@_WV?$string_output_adapter@_W@__crt_stdio_output@@@2@@__crt_stdio_output@@AEAA_NXZ@PEAU1?1??234@AEAA_NXZ@@?$standard_base@_WV?$string_output_adapter@_W@__crt_stdio_output@@@__crt_stdio_output@@IEAA_NAEAPEAUansi_string@?1??type_case_Z@?$output_processor@_WV?$string_output_adapter@_W@__crt_stdio_output@@V?$standard_base@_WV?$string_output_adapter@_W@__crt_stdio_output@@@2@@1@AEAA_NXZ@@Z 0000000180077c40 f i libucrtd:output.obj
 0001:00076c80       ??$extract_argument_from_va_list@PEAXPEAX@?$positional_parameter_base@DV?$stream_output_adapter@D@__crt_stdio_output@@@__crt_stdio_output@@IEAA_NAEAPEAX@Z 0000000180077c80 f i libucrtd:output.obj
 0001:00076e60       ??$extract_argument_from_va_list@PEAXPEAX@?$positional_parameter_base@DV?$string_output_adapter@D@__crt_stdio_output@@@__crt_stdio_output@@IEAA_NAEAPEAX@Z 0000000180077e60 f i libucrtd:output.obj
 0001:00077040       ??$extract_argument_from_va_list@PEAXPEAX@?$positional_parameter_base@_WV?$stream_output_adapter@_W@__crt_stdio_output@@@__crt_stdio_output@@IEAA_NAEAPEAX@Z 0000000180078040 f i libucrtd:output.obj
 0001:00077220       ??$extract_argument_from_va_list@PEAXPEAX@?$positional_parameter_base@_WV?$string_output_adapter@_W@__crt_stdio_output@@@__crt_stdio_output@@IEAA_NAEAPEAX@Z 0000000180078220 f i libucrtd:output.obj
 0001:00077400       ??$extract_argument_from_va_list@PEAXPEAX@?$standard_base@DV?$stream_output_adapter@D@__crt_stdio_output@@@__crt_stdio_output@@IEAA_NAEAPEAX@Z 0000000180078400 f i libucrtd:output.obj
 0001:00077440       ??$extract_argument_from_va_list@PEAXPEAX@?$standard_base@DV?$string_output_adapter@D@__crt_stdio_output@@@__crt_stdio_output@@IEAA_NAEAPEAX@Z 0000000180078440 f i libucrtd:output.obj
 0001:00077480       ??$extract_argument_from_va_list@PEAXPEAX@?$standard_base@_WV?$stream_output_adapter@_W@__crt_stdio_output@@@__crt_stdio_output@@IEAA_NAEAPEAX@Z 0000000180078480 f i libucrtd:output.obj
 0001:000774c0       ??$extract_argument_from_va_list@PEAXPEAX@?$standard_base@_WV?$string_output_adapter@_W@__crt_stdio_output@@@__crt_stdio_output@@IEAA_NAEAPEAX@Z 00000001800784c0 f i libucrtd:output.obj
 0001:00077500       ??$extract_argument_from_va_list@U_CRT_DOUBLE@@U1@@?$positional_parameter_base@DV?$stream_output_adapter@D@__crt_stdio_output@@@__crt_stdio_output@@IEAA_NAEAU_CRT_DOUBLE@@@Z 0000000180078500 f i libucrtd:output.obj
 0001:00077710       ??$extract_argument_from_va_list@U_CRT_DOUBLE@@U1@@?$positional_parameter_base@DV?$string_output_adapter@D@__crt_stdio_output@@@__crt_stdio_output@@IEAA_NAEAU_CRT_DOUBLE@@@Z 0000000180078710 f i libucrtd:output.obj
 0001:00077920       ??$extract_argument_from_va_list@U_CRT_DOUBLE@@U1@@?$positional_parameter_base@_WV?$stream_output_adapter@_W@__crt_stdio_output@@@__crt_stdio_output@@IEAA_NAEAU_CRT_DOUBLE@@@Z 0000000180078920 f i libucrtd:output.obj
 0001:00077b30       ??$extract_argument_from_va_list@U_CRT_DOUBLE@@U1@@?$positional_parameter_base@_WV?$string_output_adapter@_W@__crt_stdio_output@@@__crt_stdio_output@@IEAA_NAEAU_CRT_DOUBLE@@@Z 0000000180078b30 f i libucrtd:output.obj
 0001:00077d40       ??$extract_argument_from_va_list@U_CRT_DOUBLE@@U1@@?$standard_base@DV?$stream_output_adapter@D@__crt_stdio_output@@@__crt_stdio_output@@IEAA_NAEAU_CRT_DOUBLE@@@Z 0000000180078d40 f i libucrtd:output.obj
 0001:00077da0       ??$extract_argument_from_va_list@U_CRT_DOUBLE@@U1@@?$standard_base@DV?$string_output_adapter@D@__crt_stdio_output@@@__crt_stdio_output@@IEAA_NAEAU_CRT_DOUBLE@@@Z 0000000180078da0 f i libucrtd:output.obj
 0001:00077e00       ??$extract_argument_from_va_list@U_CRT_DOUBLE@@U1@@?$standard_base@_WV?$stream_output_adapter@_W@__crt_stdio_output@@@__crt_stdio_output@@IEAA_NAEAU_CRT_DOUBLE@@@Z 0000000180078e00 f i libucrtd:output.obj
 0001:00077e60       ??$extract_argument_from_va_list@U_CRT_DOUBLE@@U1@@?$standard_base@_WV?$string_output_adapter@_W@__crt_stdio_output@@@__crt_stdio_output@@IEAA_NAEAU_CRT_DOUBLE@@@Z 0000000180078e60 f i libucrtd:output.obj
 0001:00077ec0       ??$extract_argument_from_va_list@_J_J@?$positional_parameter_base@DV?$stream_output_adapter@D@__crt_stdio_output@@@__crt_stdio_output@@IEAA_NAEA_J@Z 0000000180078ec0 f i libucrtd:output.obj
 0001:000780a0       ??$extract_argument_from_va_list@_J_J@?$positional_parameter_base@DV?$string_output_adapter@D@__crt_stdio_output@@@__crt_stdio_output@@IEAA_NAEA_J@Z 00000001800790a0 f i libucrtd:output.obj
 0001:00078280       ??$extract_argument_from_va_list@_J_J@?$positional_parameter_base@_WV?$stream_output_adapter@_W@__crt_stdio_output@@@__crt_stdio_output@@IEAA_NAEA_J@Z 0000000180079280 f i libucrtd:output.obj
 0001:00078460       ??$extract_argument_from_va_list@_J_J@?$positional_parameter_base@_WV?$string_output_adapter@_W@__crt_stdio_output@@@__crt_stdio_output@@IEAA_NAEA_J@Z 0000000180079460 f i libucrtd:output.obj
 0001:00078640       ??$extract_argument_from_va_list@_J_J@?$standard_base@DV?$stream_output_adapter@D@__crt_stdio_output@@@__crt_stdio_output@@IEAA_NAEA_J@Z 0000000180079640 f i libucrtd:output.obj
 0001:00078680       ??$extract_argument_from_va_list@_J_J@?$standard_base@DV?$string_output_adapter@D@__crt_stdio_output@@@__crt_stdio_output@@IEAA_NAEA_J@Z 0000000180079680 f i libucrtd:output.obj
 0001:000786c0       ??$extract_argument_from_va_list@_J_J@?$standard_base@_WV?$stream_output_adapter@_W@__crt_stdio_output@@@__crt_stdio_output@@IEAA_NAEA_J@Z 00000001800796c0 f i libucrtd:output.obj
 0001:00078700       ??$extract_argument_from_va_list@_J_J@?$standard_base@_WV?$string_output_adapter@_W@__crt_stdio_output@@@__crt_stdio_output@@IEAA_NAEA_J@Z 0000000180079700 f i libucrtd:output.obj
 0001:00078740       ??$extract_argument_from_va_list@_K_J@?$positional_parameter_base@DV?$stream_output_adapter@D@__crt_stdio_output@@@__crt_stdio_output@@IEAA_NAEA_J@Z 0000000180079740 f i libucrtd:output.obj
 0001:00078920       ??$extract_argument_from_va_list@_K_J@?$positional_parameter_base@DV?$string_output_adapter@D@__crt_stdio_output@@@__crt_stdio_output@@IEAA_NAEA_J@Z 0000000180079920 f i libucrtd:output.obj
 0001:00078b00       ??$extract_argument_from_va_list@_K_J@?$positional_parameter_base@_WV?$stream_output_adapter@_W@__crt_stdio_output@@@__crt_stdio_output@@IEAA_NAEA_J@Z 0000000180079b00 f i libucrtd:output.obj
 0001:00078ce0       ??$extract_argument_from_va_list@_K_J@?$positional_parameter_base@_WV?$string_output_adapter@_W@__crt_stdio_output@@@__crt_stdio_output@@IEAA_NAEA_J@Z 0000000180079ce0 f i libucrtd:output.obj
 0001:00078ec0       ??$extract_argument_from_va_list@_K_J@?$standard_base@DV?$stream_output_adapter@D@__crt_stdio_output@@@__crt_stdio_output@@IEAA_NAEA_J@Z 0000000180079ec0 f i libucrtd:output.obj
 0001:00078f00       ??$extract_argument_from_va_list@_K_J@?$standard_base@DV?$string_output_adapter@D@__crt_stdio_output@@@__crt_stdio_output@@IEAA_NAEA_J@Z 0000000180079f00 f i libucrtd:output.obj
 0001:00078f40       ??$extract_argument_from_va_list@_K_J@?$standard_base@_WV?$stream_output_adapter@_W@__crt_stdio_output@@@__crt_stdio_output@@IEAA_NAEA_J@Z 0000000180079f40 f i libucrtd:output.obj
 0001:00078f80       ??$extract_argument_from_va_list@_K_J@?$standard_base@_WV?$string_output_adapter@_W@__crt_stdio_output@@@__crt_stdio_output@@IEAA_NAEA_J@Z 0000000180079f80 f i libucrtd:output.obj
 0001:00078fc0       ??$extract_argument_from_va_list@_W_W@?$positional_parameter_base@DV?$stream_output_adapter@D@__crt_stdio_output@@@__crt_stdio_output@@IEAA_NAEA_W@Z 0000000180079fc0 f i libucrtd:output.obj
 0001:000791a0       ??$extract_argument_from_va_list@_W_W@?$positional_parameter_base@DV?$string_output_adapter@D@__crt_stdio_output@@@__crt_stdio_output@@IEAA_NAEA_W@Z 000000018007a1a0 f i libucrtd:output.obj
 0001:00079380       ??$extract_argument_from_va_list@_W_W@?$positional_parameter_base@_WV?$stream_output_adapter@_W@__crt_stdio_output@@@__crt_stdio_output@@IEAA_NAEA_W@Z 000000018007a380 f i libucrtd:output.obj
 0001:00079560       ??$extract_argument_from_va_list@_W_W@?$positional_parameter_base@_WV?$string_output_adapter@_W@__crt_stdio_output@@@__crt_stdio_output@@IEAA_NAEA_W@Z 000000018007a560 f i libucrtd:output.obj
 0001:00079740       ??$extract_argument_from_va_list@_W_W@?$standard_base@DV?$stream_output_adapter@D@__crt_stdio_output@@@__crt_stdio_output@@IEAA_NAEA_W@Z 000000018007a740 f i libucrtd:output.obj
 0001:00079780       ??$extract_argument_from_va_list@_W_W@?$standard_base@DV?$string_output_adapter@D@__crt_stdio_output@@@__crt_stdio_output@@IEAA_NAEA_W@Z 000000018007a780 f i libucrtd:output.obj
 0001:000797c0       ??$extract_argument_from_va_list@_W_W@?$standard_base@_WV?$stream_output_adapter@_W@__crt_stdio_output@@@__crt_stdio_output@@IEAA_NAEA_W@Z 000000018007a7c0 f i libucrtd:output.obj
 0001:00079800       ??$extract_argument_from_va_list@_W_W@?$standard_base@_WV?$string_output_adapter@_W@__crt_stdio_output@@@__crt_stdio_output@@IEAA_NAEA_W@Z 000000018007a800 f i libucrtd:output.obj
 0001:00079840       ??$get_parameter_type@D@?$positional_parameter_base@DV?$stream_output_adapter@D@__crt_stdio_output@@@__crt_stdio_output@@CA?AW4parameter_type@01@PEAD@Z 000000018007a840 f i libucrtd:output.obj
 0001:00079850       ??$get_parameter_type@D@?$positional_parameter_base@DV?$string_output_adapter@D@__crt_stdio_output@@@__crt_stdio_output@@CA?AW4parameter_type@01@PEAD@Z 000000018007a850 f i libucrtd:output.obj
 0001:00079860       ??$get_parameter_type@D@?$positional_parameter_base@_WV?$stream_output_adapter@_W@__crt_stdio_output@@@__crt_stdio_output@@CA?AW4parameter_type@01@PEAD@Z 000000018007a860 f i libucrtd:output.obj
 0001:00079870       ??$get_parameter_type@D@?$positional_parameter_base@_WV?$string_output_adapter@_W@__crt_stdio_output@@@__crt_stdio_output@@CA?AW4parameter_type@01@PEAD@Z 000000018007a870 f i libucrtd:output.obj
 0001:00079880       ??$get_parameter_type@Uansi_string@?1??type_case_Z@?$output_processor@DV?$stream_output_adapter@D@__crt_stdio_output@@V?$positional_parameter_base@DV?$stream_output_adapter@D@__crt_stdio_output@@@2@@__crt_stdio_output@@AEAA_NXZ@@?$positional_parameter_base@DV?$stream_output_adapter@D@__crt_stdio_output@@@__crt_stdio_output@@CA?AW4parameter_type@01@PEAUansi_string@?1??type_case_Z@?$output_processor@DV?$stream_output_adapter@D@__crt_stdio_output@@V?$positional_parameter_base@DV?$stream_output_adapter@D@__crt_stdio_output@@@2@@1@AEAA_NXZ@@Z 000000018007a880 f i libucrtd:output.obj
 0001:00079890       ??$get_parameter_type@Uansi_string@?1??type_case_Z@?$output_processor@DV?$string_output_adapter@D@__crt_stdio_output@@V?$positional_parameter_base@DV?$string_output_adapter@D@__crt_stdio_output@@@2@@__crt_stdio_output@@AEAA_NXZ@@?$positional_parameter_base@DV?$string_output_adapter@D@__crt_stdio_output@@@__crt_stdio_output@@CA?AW4parameter_type@01@PEAUansi_string@?1??type_case_Z@?$output_processor@DV?$string_output_adapter@D@__crt_stdio_output@@V?$positional_parameter_base@DV?$string_output_adapter@D@__crt_stdio_output@@@2@@1@AEAA_NXZ@@Z 000000018007a890 f i libucrtd:output.obj
 0001:000798a0       ??$get_parameter_type@Uansi_string@?1??type_case_Z@?$output_processor@_WV?$stream_output_adapter@_W@__crt_stdio_output@@V?$positional_parameter_base@_WV?$stream_output_adapter@_W@__crt_stdio_output@@@2@@__crt_stdio_output@@AEAA_NXZ@@?$positional_parameter_base@_WV?$stream_output_adapter@_W@__crt_stdio_output@@@__crt_stdio_output@@CA?AW4parameter_type@01@PEAUansi_string@?1??type_case_Z@?$output_processor@_WV?$stream_output_adapter@_W@__crt_stdio_output@@V?$positional_parameter_base@_WV?$stream_output_adapter@_W@__crt_stdio_output@@@2@@1@AEAA_NXZ@@Z 000000018007a8a0 f i libucrtd:output.obj
 0001:000798b0       ??$get_parameter_type@Uansi_string@?1??type_case_Z@?$output_processor@_WV?$string_output_adapter@_W@__crt_stdio_output@@V?$positional_parameter_base@_WV?$string_output_adapter@_W@__crt_stdio_output@@@2@@__crt_stdio_output@@AEAA_NXZ@@?$positional_parameter_base@_WV?$string_output_adapter@_W@__crt_stdio_output@@@__crt_stdio_output@@CA?AW4parameter_type@01@PEAUansi_string@?1??type_case_Z@?$output_processor@_WV?$string_output_adapter@_W@__crt_stdio_output@@V?$positional_parameter_base@_WV?$string_output_adapter@_W@__crt_stdio_output@@@2@@1@AEAA_NXZ@@Z 000000018007a8b0 f i libucrtd:output.obj
 0001:000798c0       ??$get_parameter_type@X@?$positional_parameter_base@DV?$stream_output_adapter@D@__crt_stdio_output@@@__crt_stdio_output@@CA?AW4parameter_type@01@PEAX@Z 000000018007a8c0 f i libucrtd:output.obj
 0001:000798d0       ??$get_parameter_type@X@?$positional_parameter_base@DV?$string_output_adapter@D@__crt_stdio_output@@@__crt_stdio_output@@CA?AW4parameter_type@01@PEAX@Z 000000018007a8d0 f i libucrtd:output.obj
 0001:000798e0       ??$get_parameter_type@X@?$positional_parameter_base@_WV?$stream_output_adapter@_W@__crt_stdio_output@@@__crt_stdio_output@@CA?AW4parameter_type@01@PEAX@Z 000000018007a8e0 f i libucrtd:output.obj
 0001:000798f0       ??$get_parameter_type@X@?$positional_parameter_base@_WV?$string_output_adapter@_W@__crt_stdio_output@@@__crt_stdio_output@@CA?AW4parameter_type@01@PEAX@Z 000000018007a8f0 f i libucrtd:output.obj
 0001:00079900       ??$is_character_specifier@D@?$positional_parameter_base@DV?$stream_output_adapter@D@__crt_stdio_output@@@__crt_stdio_output@@CA_ND@Z 000000018007a900 f i libucrtd:output.obj
 0001:00079950       ??$is_character_specifier@D@?$positional_parameter_base@DV?$string_output_adapter@D@__crt_stdio_output@@@__crt_stdio_output@@CA_ND@Z 000000018007a950 f i libucrtd:output.obj
 0001:000799a0       ??$is_character_specifier@_W@?$positional_parameter_base@_WV?$stream_output_adapter@_W@__crt_stdio_output@@@__crt_stdio_output@@CA_N_W@Z 000000018007a9a0 f i libucrtd:output.obj
 0001:000799f0       ??$is_character_specifier@_W@?$positional_parameter_base@_WV?$string_output_adapter@_W@__crt_stdio_output@@@__crt_stdio_output@@CA_N_W@Z 000000018007a9f0 f i libucrtd:output.obj
 0001:00079a40       ??$is_integral_specifier@D@?$positional_parameter_base@DV?$stream_output_adapter@D@__crt_stdio_output@@@__crt_stdio_output@@CA_ND@Z 000000018007aa40 f i libucrtd:output.obj
 0001:00079ac0       ??$is_integral_specifier@D@?$positional_parameter_base@DV?$string_output_adapter@D@__crt_stdio_output@@@__crt_stdio_output@@CA_ND@Z 000000018007aac0 f i libucrtd:output.obj
 0001:00079b40       ??$is_integral_specifier@_W@?$positional_parameter_base@_WV?$stream_output_adapter@_W@__crt_stdio_output@@@__crt_stdio_output@@CA_N_W@Z 000000018007ab40 f i libucrtd:output.obj
 0001:00079bd0       ??$is_integral_specifier@_W@?$positional_parameter_base@_WV?$string_output_adapter@_W@__crt_stdio_output@@@__crt_stdio_output@@CA_N_W@Z 000000018007abd0 f i libucrtd:output.obj
 0001:00079c60       ??$is_pointer_specifier@D@?$positional_parameter_base@DV?$stream_output_adapter@D@__crt_stdio_output@@@__crt_stdio_output@@CA_ND@Z 000000018007ac60 f i libucrtd:output.obj
 0001:00079ca0       ??$is_pointer_specifier@D@?$positional_parameter_base@DV?$string_output_adapter@D@__crt_stdio_output@@@__crt_stdio_output@@CA_ND@Z 000000018007aca0 f i libucrtd:output.obj
 0001:00079ce0       ??$is_pointer_specifier@_W@?$positional_parameter_base@_WV?$stream_output_adapter@_W@__crt_stdio_output@@@__crt_stdio_output@@CA_N_W@Z 000000018007ace0 f i libucrtd:output.obj
 0001:00079d20       ??$is_pointer_specifier@_W@?$positional_parameter_base@_WV?$string_output_adapter@_W@__crt_stdio_output@@@__crt_stdio_output@@CA_N_W@Z 000000018007ad20 f i libucrtd:output.obj
 0001:00079d60       ??$is_string_specifier@D@?$positional_parameter_base@DV?$stream_output_adapter@D@__crt_stdio_output@@@__crt_stdio_output@@CA_ND@Z 000000018007ad60 f i libucrtd:output.obj
 0001:00079db0       ??$is_string_specifier@D@?$positional_parameter_base@DV?$string_output_adapter@D@__crt_stdio_output@@@__crt_stdio_output@@CA_ND@Z 000000018007adb0 f i libucrtd:output.obj
 0001:00079e00       ??$is_string_specifier@_W@?$positional_parameter_base@_WV?$stream_output_adapter@_W@__crt_stdio_output@@@__crt_stdio_output@@CA_N_W@Z 000000018007ae00 f i libucrtd:output.obj
 0001:00079e50       ??$is_string_specifier@_W@?$positional_parameter_base@_WV?$string_output_adapter@_W@__crt_stdio_output@@@__crt_stdio_output@@CA_N_W@Z 000000018007ae50 f i libucrtd:output.obj
 0001:00079ea0       ??$is_wide_character_specifier@D@__crt_stdio_output@@YA_N_KDW4length_modifier@0@@Z 000000018007aea0 f i libucrtd:output.obj
 0001:00079f60       ??$is_wide_character_specifier@_W@__crt_stdio_output@@YA_N_K_WW4length_modifier@0@@Z 000000018007af60 f i libucrtd:output.obj
 0001:0007a060       ??$peek_va_arg@C@__crt_stdio_output@@YACPEAD@Z 000000018007b060 f i libucrtd:output.obj
 0001:0007a0d0       ??$peek_va_arg@E@__crt_stdio_output@@YAEPEAD@Z 000000018007b0d0 f i libucrtd:output.obj
 0001:0007a140       ??$peek_va_arg@F@__crt_stdio_output@@YAFPEAD@Z 000000018007b140 f i libucrtd:output.obj
 0001:0007a1b0       ??$peek_va_arg@G@__crt_stdio_output@@YAGPEAD@Z 000000018007b1b0 f i libucrtd:output.obj
 0001:0007a220       ??$peek_va_arg@H@__crt_stdio_output@@YAHPEAD@Z 000000018007b220 f i libucrtd:output.obj
 0001:0007a290       ??$peek_va_arg@I@__crt_stdio_output@@YAIPEAD@Z 000000018007b290 f i libucrtd:output.obj
 0001:0007a300       ??$peek_va_arg@PEAD@__crt_stdio_output@@YAPEADPEAD@Z 000000018007b300 f i libucrtd:output.obj
 0001:0007a370       ??$peek_va_arg@PEAUansi_string@?1??type_case_Z@?$output_processor@DV?$stream_output_adapter@D@__crt_stdio_output@@V?$positional_parameter_base@DV?$stream_output_adapter@D@__crt_stdio_output@@@2@@__crt_stdio_output@@AEAA_NXZ@@__crt_stdio_output@@YAPEAUansi_string@?1??type_case_Z@?$output_processor@DV?$stream_output_adapter@D@__crt_stdio_output@@V?$positional_parameter_base@DV?$stream_output_adapter@D@__crt_stdio_output@@@2@@0@AEAA_NXZ@PEAD@Z 000000018007b370 f i libucrtd:output.obj
 0001:0007a3e0       ??$peek_va_arg@PEAUansi_string@?1??type_case_Z@?$output_processor@DV?$string_output_adapter@D@__crt_stdio_output@@V?$positional_parameter_base@DV?$string_output_adapter@D@__crt_stdio_output@@@2@@__crt_stdio_output@@AEAA_NXZ@@__crt_stdio_output@@YAPEAUansi_string@?1??type_case_Z@?$output_processor@DV?$string_output_adapter@D@__crt_stdio_output@@V?$positional_parameter_base@DV?$string_output_adapter@D@__crt_stdio_output@@@2@@0@AEAA_NXZ@PEAD@Z 000000018007b3e0 f i libucrtd:output.obj
 0001:0007a450       ??$peek_va_arg@PEAUansi_string@?1??type_case_Z@?$output_processor@_WV?$stream_output_adapter@_W@__crt_stdio_output@@V?$positional_parameter_base@_WV?$stream_output_adapter@_W@__crt_stdio_output@@@2@@__crt_stdio_output@@AEAA_NXZ@@__crt_stdio_output@@YAPEAUansi_string@?1??type_case_Z@?$output_processor@_WV?$stream_output_adapter@_W@__crt_stdio_output@@V?$positional_parameter_base@_WV?$stream_output_adapter@_W@__crt_stdio_output@@@2@@0@AEAA_NXZ@PEAD@Z 000000018007b450 f i libucrtd:output.obj
 0001:0007a4c0       ??$peek_va_arg@PEAUansi_string@?1??type_case_Z@?$output_processor@_WV?$string_output_adapter@_W@__crt_stdio_output@@V?$positional_parameter_base@_WV?$string_output_adapter@_W@__crt_stdio_output@@@2@@__crt_stdio_output@@AEAA_NXZ@@__crt_stdio_output@@YAPEAUansi_string@?1??type_case_Z@?$output_processor@_WV?$string_output_adapter@_W@__crt_stdio_output@@V?$positional_parameter_base@_WV?$string_output_adapter@_W@__crt_stdio_output@@@2@@0@AEAA_NXZ@PEAD@Z 000000018007b4c0 f i libucrtd:output.obj
 0001:0007a530       ??$peek_va_arg@PEAX@__crt_stdio_output@@YAPEAXPEAD@Z 000000018007b530 f i libucrtd:output.obj
 0001:0007a5a0       ??$peek_va_arg@U_CRT_DOUBLE@@@__crt_stdio_output@@YA?AU_CRT_DOUBLE@@PEAD@Z 000000018007b5a0 f i libucrtd:output.obj
 0001:0007a610       ??$peek_va_arg@_J@__crt_stdio_output@@YA_JPEAD@Z 000000018007b610 f i libucrtd:output.obj
 0001:0007a680       ??$peek_va_arg@_K@__crt_stdio_output@@YA_KPEAD@Z 000000018007b680 f i libucrtd:output.obj
 0001:0007a6f0       ??$peek_va_arg@_W@__crt_stdio_output@@YA_WPEAD@Z 000000018007b6f0 f i libucrtd:output.obj
 0001:0007a760       ??$puttc_nolock@AEBDPEAU_iobuf@@@?$__crt_char_traits@D@@SAHAEBD$$QEAPEAU_iobuf@@@Z 000000018007b760 f i libucrtd:output.obj
 0001:0007a7a0       ??$puttc_nolock@AEB_WPEAU_iobuf@@@?$__crt_char_traits@_W@@SAGAEB_W$$QEAPEAU_iobuf@@@Z 000000018007b7a0 f i libucrtd:output.obj
 0001:0007a7e0       ??$read_va_arg@C@__crt_stdio_output@@YACAEAPEAD@Z 000000018007b7e0 f i libucrtd:output.obj
 0001:0007a860       ??$read_va_arg@E@__crt_stdio_output@@YAEAEAPEAD@Z 000000018007b860 f i libucrtd:output.obj
 0001:0007a8e0       ??$read_va_arg@F@__crt_stdio_output@@YAFAEAPEAD@Z 000000018007b8e0 f i libucrtd:output.obj
 0001:0007a960       ??$read_va_arg@G@__crt_stdio_output@@YAGAEAPEAD@Z 000000018007b960 f i libucrtd:output.obj
 0001:0007a9e0       ??$read_va_arg@H@__crt_stdio_output@@YAHAEAPEAD@Z 000000018007b9e0 f i libucrtd:output.obj
 0001:0007aa60       ??$read_va_arg@I@__crt_stdio_output@@YAIAEAPEAD@Z 000000018007ba60 f i libucrtd:output.obj
 0001:0007aae0       ??$read_va_arg@PEAD@__crt_stdio_output@@YAPEADAEAPEAD@Z 000000018007bae0 f i libucrtd:output.obj
 0001:0007ab60       ??$read_va_arg@PEAUansi_string@?1??type_case_Z@?$output_processor@DV?$stream_output_adapter@D@__crt_stdio_output@@V?$format_validation_base@DV?$stream_output_adapter@D@__crt_stdio_output@@@2@@__crt_stdio_output@@AEAA_NXZ@@__crt_stdio_output@@YAPEAUansi_string@?1??type_case_Z@?$output_processor@DV?$stream_output_adapter@D@__crt_stdio_output@@V?$format_validation_base@DV?$stream_output_adapter@D@__crt_stdio_output@@@2@@0@AEAA_NXZ@AEAPEAD@Z 000000018007bb60 f i libucrtd:output.obj
 0001:0007abe0       ??$read_va_arg@PEAUansi_string@?1??type_case_Z@?$output_processor@DV?$stream_output_adapter@D@__crt_stdio_output@@V?$positional_parameter_base@DV?$stream_output_adapter@D@__crt_stdio_output@@@2@@__crt_stdio_output@@AEAA_NXZ@@__crt_stdio_output@@YAPEAUansi_string@?1??type_case_Z@?$output_processor@DV?$stream_output_adapter@D@__crt_stdio_output@@V?$positional_parameter_base@DV?$stream_output_adapter@D@__crt_stdio_output@@@2@@0@AEAA_NXZ@AEAPEAD@Z 000000018007bbe0 f i libucrtd:output.obj
 0001:0007ac60       ??$read_va_arg@PEAUansi_string@?1??type_case_Z@?$output_processor@DV?$stream_output_adapter@D@__crt_stdio_output@@V?$standard_base@DV?$stream_output_adapter@D@__crt_stdio_output@@@2@@__crt_stdio_output@@AEAA_NXZ@@__crt_stdio_output@@YAPEAUansi_string@?1??type_case_Z@?$output_processor@DV?$stream_output_adapter@D@__crt_stdio_output@@V?$standard_base@DV?$stream_output_adapter@D@__crt_stdio_output@@@2@@0@AEAA_NXZ@AEAPEAD@Z 000000018007bc60 f i libucrtd:output.obj
 0001:0007ace0       ??$read_va_arg@PEAUansi_string@?1??type_case_Z@?$output_processor@DV?$string_output_adapter@D@__crt_stdio_output@@V?$format_validation_base@DV?$string_output_adapter@D@__crt_stdio_output@@@2@@__crt_stdio_output@@AEAA_NXZ@@__crt_stdio_output@@YAPEAUansi_string@?1??type_case_Z@?$output_processor@DV?$string_output_adapter@D@__crt_stdio_output@@V?$format_validation_base@DV?$string_output_adapter@D@__crt_stdio_output@@@2@@0@AEAA_NXZ@AEAPEAD@Z 000000018007bce0 f i libucrtd:output.obj
 0001:0007ad60       ??$read_va_arg@PEAUansi_string@?1??type_case_Z@?$output_processor@DV?$string_output_adapter@D@__crt_stdio_output@@V?$positional_parameter_base@DV?$string_output_adapter@D@__crt_stdio_output@@@2@@__crt_stdio_output@@AEAA_NXZ@@__crt_stdio_output@@YAPEAUansi_string@?1??type_case_Z@?$output_processor@DV?$string_output_adapter@D@__crt_stdio_output@@V?$positional_parameter_base@DV?$string_output_adapter@D@__crt_stdio_output@@@2@@0@AEAA_NXZ@AEAPEAD@Z 000000018007bd60 f i libucrtd:output.obj
 0001:0007ade0       ??$read_va_arg@PEAUansi_string@?1??type_case_Z@?$output_processor@DV?$string_output_adapter@D@__crt_stdio_output@@V?$standard_base@DV?$string_output_adapter@D@__crt_stdio_output@@@2@@__crt_stdio_output@@AEAA_NXZ@@__crt_stdio_output@@YAPEAUansi_string@?1??type_case_Z@?$output_processor@DV?$string_output_adapter@D@__crt_stdio_output@@V?$standard_base@DV?$string_output_adapter@D@__crt_stdio_output@@@2@@0@AEAA_NXZ@AEAPEAD@Z 000000018007bde0 f i libucrtd:output.obj
 0001:0007ae60       ??$read_va_arg@PEAUansi_string@?1??type_case_Z@?$output_processor@_WV?$stream_output_adapter@_W@__crt_stdio_output@@V?$format_validation_base@_WV?$stream_output_adapter@_W@__crt_stdio_output@@@2@@__crt_stdio_output@@AEAA_NXZ@@__crt_stdio_output@@YAPEAUansi_string@?1??type_case_Z@?$output_processor@_WV?$stream_output_adapter@_W@__crt_stdio_output@@V?$format_validation_base@_WV?$stream_output_adapter@_W@__crt_stdio_output@@@2@@0@AEAA_NXZ@AEAPEAD@Z 000000018007be60 f i libucrtd:output.obj
 0001:0007aee0       ??$read_va_arg@PEAUansi_string@?1??type_case_Z@?$output_processor@_WV?$stream_output_adapter@_W@__crt_stdio_output@@V?$positional_parameter_base@_WV?$stream_output_adapter@_W@__crt_stdio_output@@@2@@__crt_stdio_output@@AEAA_NXZ@@__crt_stdio_output@@YAPEAUansi_string@?1??type_case_Z@?$output_processor@_WV?$stream_output_adapter@_W@__crt_stdio_output@@V?$positional_parameter_base@_WV?$stream_output_adapter@_W@__crt_stdio_output@@@2@@0@AEAA_NXZ@AEAPEAD@Z 000000018007bee0 f i libucrtd:output.obj
 0001:0007af60       ??$read_va_arg@PEAUansi_string@?1??type_case_Z@?$output_processor@_WV?$stream_output_adapter@_W@__crt_stdio_output@@V?$standard_base@_WV?$stream_output_adapter@_W@__crt_stdio_output@@@2@@__crt_stdio_output@@AEAA_NXZ@@__crt_stdio_output@@YAPEAUansi_string@?1??type_case_Z@?$output_processor@_WV?$stream_output_adapter@_W@__crt_stdio_output@@V?$standard_base@_WV?$stream_output_adapter@_W@__crt_stdio_output@@@2@@0@AEAA_NXZ@AEAPEAD@Z 000000018007bf60 f i libucrtd:output.obj
 0001:0007afe0       ??$read_va_arg@PEAUansi_string@?1??type_case_Z@?$output_processor@_WV?$string_output_adapter@_W@__crt_stdio_output@@V?$format_validation_base@_WV?$string_output_adapter@_W@__crt_stdio_output@@@2@@__crt_stdio_output@@AEAA_NXZ@@__crt_stdio_output@@YAPEAUansi_string@?1??type_case_Z@?$output_processor@_WV?$string_output_adapter@_W@__crt_stdio_output@@V?$format_validation_base@_WV?$string_output_adapter@_W@__crt_stdio_output@@@2@@0@AEAA_NXZ@AEAPEAD@Z 000000018007bfe0 f i libucrtd:output.obj
 0001:0007b060       ??$read_va_arg@PEAUansi_string@?1??type_case_Z@?$output_processor@_WV?$string_output_adapter@_W@__crt_stdio_output@@V?$positional_parameter_base@_WV?$string_output_adapter@_W@__crt_stdio_output@@@2@@__crt_stdio_output@@AEAA_NXZ@@__crt_stdio_output@@YAPEAUansi_string@?1??type_case_Z@?$output_processor@_WV?$string_output_adapter@_W@__crt_stdio_output@@V?$positional_parameter_base@_WV?$string_output_adapter@_W@__crt_stdio_output@@@2@@0@AEAA_NXZ@AEAPEAD@Z 000000018007c060 f i libucrtd:output.obj
 0001:0007b0e0       ??$read_va_arg@PEAUansi_string@?1??type_case_Z@?$output_processor@_WV?$string_output_adapter@_W@__crt_stdio_output@@V?$standard_base@_WV?$string_output_adapter@_W@__crt_stdio_output@@@2@@__crt_stdio_output@@AEAA_NXZ@@__crt_stdio_output@@YAPEAUansi_string@?1??type_case_Z@?$output_processor@_WV?$string_output_adapter@_W@__crt_stdio_output@@V?$standard_base@_WV?$string_output_adapter@_W@__crt_stdio_output@@@2@@0@AEAA_NXZ@AEAPEAD@Z 000000018007c0e0 f i libucrtd:output.obj
 0001:0007b160       ??$read_va_arg@PEAX@__crt_stdio_output@@YAPEAXAEAPEAD@Z 000000018007c160 f i libucrtd:output.obj
 0001:0007b1e0       ??$read_va_arg@U_CRT_DOUBLE@@@__crt_stdio_output@@YA?AU_CRT_DOUBLE@@AEAPEAD@Z 000000018007c1e0 f i libucrtd:output.obj
 0001:0007b260       ??$read_va_arg@_J@__crt_stdio_output@@YA_JAEAPEAD@Z 000000018007c260 f i libucrtd:output.obj
 0001:0007b2e0       ??$read_va_arg@_K@__crt_stdio_output@@YA_KAEAPEAD@Z 000000018007c2e0 f i libucrtd:output.obj
 0001:0007b360       ??$read_va_arg@_W@__crt_stdio_output@@YA_WAEAPEAD@Z 000000018007c360 f i libucrtd:output.obj
 0001:0007b3e0       ??$scratch_count@D@formatting_buffer@__crt_stdio_output@@QEBA_KXZ 000000018007c3e0 f i libucrtd:output.obj
 0001:0007b400       ??$scratch_data@D@formatting_buffer@__crt_stdio_output@@QEAAPEADXZ 000000018007c400 f i libucrtd:output.obj
 0001:0007b490       ??$tcstol@AEAPEBDPEAPEADH@?$__crt_char_traits@D@@SAJAEAPEBD$$QEAPEAPEAD$$QEAH@Z 000000018007c490 f i libucrtd:output.obj
 0001:0007b4e0       ??$tcstol@AEAPEB_WPEAPEA_WH@?$__crt_char_traits@_W@@SAJAEAPEB_W$$QEAPEAPEA_W$$QEAH@Z 000000018007c4e0 f i libucrtd:output.obj
 0001:0007b530       ??$tcstol@PEBDPEAPEADH@?$__crt_char_traits@D@@SAJ$$QEAPEBD$$QEAPEAPEAD$$QEAH@Z 000000018007c530 f i libucrtd:output.obj
 0001:0007b580       ??$tcstol@PEB_WPEAPEA_WH@?$__crt_char_traits@_W@@SAJ$$QEAPEB_W$$QEAPEAPEA_W$$QEAH@Z 000000018007c580 f i libucrtd:output.obj
 0001:0007b5d0       ??$type_case_integer_parse_into_buffer@I@?$output_processor@DV?$stream_output_adapter@D@__crt_stdio_output@@V?$format_validation_base@DV?$stream_output_adapter@D@__crt_stdio_output@@@2@@__crt_stdio_output@@AEAAXII_N@Z 000000018007c5d0 f i libucrtd:output.obj
 0001:0007b740       ??$type_case_integer_parse_into_buffer@I@?$output_processor@DV?$stream_output_adapter@D@__crt_stdio_output@@V?$positional_parameter_base@DV?$stream_output_adapter@D@__crt_stdio_output@@@2@@__crt_stdio_output@@AEAAXII_N@Z 000000018007c740 f i libucrtd:output.obj
 0001:0007b8b0       ??$type_case_integer_parse_into_buffer@I@?$output_processor@DV?$stream_output_adapter@D@__crt_stdio_output@@V?$standard_base@DV?$stream_output_adapter@D@__crt_stdio_output@@@2@@__crt_stdio_output@@AEAAXII_N@Z 000000018007c8b0 f i libucrtd:output.obj
 0001:0007ba20       ??$type_case_integer_parse_into_buffer@I@?$output_processor@DV?$string_output_adapter@D@__crt_stdio_output@@V?$format_validation_base@DV?$string_output_adapter@D@__crt_stdio_output@@@2@@__crt_stdio_output@@AEAAXII_N@Z 000000018007ca20 f i libucrtd:output.obj
 0001:0007bb90       ??$type_case_integer_parse_into_buffer@I@?$output_processor@DV?$string_output_adapter@D@__crt_stdio_output@@V?$positional_parameter_base@DV?$string_output_adapter@D@__crt_stdio_output@@@2@@__crt_stdio_output@@AEAAXII_N@Z 000000018007cb90 f i libucrtd:output.obj
 0001:0007bd00       ??$type_case_integer_parse_into_buffer@I@?$output_processor@DV?$string_output_adapter@D@__crt_stdio_output@@V?$standard_base@DV?$string_output_adapter@D@__crt_stdio_output@@@2@@__crt_stdio_output@@AEAAXII_N@Z 000000018007cd00 f i libucrtd:output.obj
 0001:0007be70       ??$type_case_integer_parse_into_buffer@I@?$output_processor@_WV?$stream_output_adapter@_W@__crt_stdio_output@@V?$format_validation_base@_WV?$stream_output_adapter@_W@__crt_stdio_output@@@2@@__crt_stdio_output@@AEAAXII_N@Z 000000018007ce70 f i libucrtd:output.obj
 0001:0007bfe0       ??$type_case_integer_parse_into_buffer@I@?$output_processor@_WV?$stream_output_adapter@_W@__crt_stdio_output@@V?$positional_parameter_base@_WV?$stream_output_adapter@_W@__crt_stdio_output@@@2@@__crt_stdio_output@@AEAAXII_N@Z 000000018007cfe0 f i libucrtd:output.obj
 0001:0007c150       ??$type_case_integer_parse_into_buffer@I@?$output_processor@_WV?$stream_output_adapter@_W@__crt_stdio_output@@V?$standard_base@_WV?$stream_output_adapter@_W@__crt_stdio_output@@@2@@__crt_stdio_output@@AEAAXII_N@Z 000000018007d150 f i libucrtd:output.obj
 0001:0007c2c0       ??$type_case_integer_parse_into_buffer@I@?$output_processor@_WV?$string_output_adapter@_W@__crt_stdio_output@@V?$format_validation_base@_WV?$string_output_adapter@_W@__crt_stdio_output@@@2@@__crt_stdio_output@@AEAAXII_N@Z 000000018007d2c0 f i libucrtd:output.obj
 0001:0007c430       ??$type_case_integer_parse_into_buffer@I@?$output_processor@_WV?$string_output_adapter@_W@__crt_stdio_output@@V?$positional_parameter_base@_WV?$string_output_adapter@_W@__crt_stdio_output@@@2@@__crt_stdio_output@@AEAAXII_N@Z 000000018007d430 f i libucrtd:output.obj
 0001:0007c5a0       ??$type_case_integer_parse_into_buffer@I@?$output_processor@_WV?$string_output_adapter@_W@__crt_stdio_output@@V?$standard_base@_WV?$string_output_adapter@_W@__crt_stdio_output@@@2@@__crt_stdio_output@@AEAAXII_N@Z 000000018007d5a0 f i libucrtd:output.obj
 0001:0007c710       ??$type_case_integer_parse_into_buffer@_K@?$output_processor@DV?$stream_output_adapter@D@__crt_stdio_output@@V?$format_validation_base@DV?$stream_output_adapter@D@__crt_stdio_output@@@2@@__crt_stdio_output@@AEAAX_KI_N@Z 000000018007d710 f i libucrtd:output.obj
 0001:0007c8b0       ??$type_case_integer_parse_into_buffer@_K@?$output_processor@DV?$stream_output_adapter@D@__crt_stdio_output@@V?$positional_parameter_base@DV?$stream_output_adapter@D@__crt_stdio_output@@@2@@__crt_stdio_output@@AEAAX_KI_N@Z 000000018007d8b0 f i libucrtd:output.obj
 0001:0007ca50       ??$type_case_integer_parse_into_buffer@_K@?$output_processor@DV?$stream_output_adapter@D@__crt_stdio_output@@V?$standard_base@DV?$stream_output_adapter@D@__crt_stdio_output@@@2@@__crt_stdio_output@@AEAAX_KI_N@Z 000000018007da50 f i libucrtd:output.obj
 0001:0007cbf0       ??$type_case_integer_parse_into_buffer@_K@?$output_processor@DV?$string_output_adapter@D@__crt_stdio_output@@V?$format_validation_base@DV?$string_output_adapter@D@__crt_stdio_output@@@2@@__crt_stdio_output@@AEAAX_KI_N@Z 000000018007dbf0 f i libucrtd:output.obj
 0001:0007cd90       ??$type_case_integer_parse_into_buffer@_K@?$output_processor@DV?$string_output_adapter@D@__crt_stdio_output@@V?$positional_parameter_base@DV?$string_output_adapter@D@__crt_stdio_output@@@2@@__crt_stdio_output@@AEAAX_KI_N@Z 000000018007dd90 f i libucrtd:output.obj
 0001:0007cf30       ??$type_case_integer_parse_into_buffer@_K@?$output_processor@DV?$string_output_adapter@D@__crt_stdio_output@@V?$standard_base@DV?$string_output_adapter@D@__crt_stdio_output@@@2@@__crt_stdio_output@@AEAAX_KI_N@Z 000000018007df30 f i libucrtd:output.obj
 0001:0007d0d0       ??$type_case_integer_parse_into_buffer@_K@?$output_processor@_WV?$stream_output_adapter@_W@__crt_stdio_output@@V?$format_validation_base@_WV?$stream_output_adapter@_W@__crt_stdio_output@@@2@@__crt_stdio_output@@AEAAX_KI_N@Z 000000018007e0d0 f i libucrtd:output.obj
 0001:0007d270       ??$type_case_integer_parse_into_buffer@_K@?$output_processor@_WV?$stream_output_adapter@_W@__crt_stdio_output@@V?$positional_parameter_base@_WV?$stream_output_adapter@_W@__crt_stdio_output@@@2@@__crt_stdio_output@@AEAAX_KI_N@Z 000000018007e270 f i libucrtd:output.obj
 0001:0007d410       ??$type_case_integer_parse_into_buffer@_K@?$output_processor@_WV?$stream_output_adapter@_W@__crt_stdio_output@@V?$standard_base@_WV?$stream_output_adapter@_W@__crt_stdio_output@@@2@@__crt_stdio_output@@AEAAX_KI_N@Z 000000018007e410 f i libucrtd:output.obj
 0001:0007d5b0       ??$type_case_integer_parse_into_buffer@_K@?$output_processor@_WV?$string_output_adapter@_W@__crt_stdio_output@@V?$format_validation_base@_WV?$string_output_adapter@_W@__crt_stdio_output@@@2@@__crt_stdio_output@@AEAAX_KI_N@Z 000000018007e5b0 f i libucrtd:output.obj
 0001:0007d750       ??$type_case_integer_parse_into_buffer@_K@?$output_processor@_WV?$string_output_adapter@_W@__crt_stdio_output@@V?$positional_parameter_base@_WV?$string_output_adapter@_W@__crt_stdio_output@@@2@@__crt_stdio_output@@AEAAX_KI_N@Z 000000018007e750 f i libucrtd:output.obj
 0001:0007d8f0       ??$type_case_integer_parse_into_buffer@_K@?$output_processor@_WV?$string_output_adapter@_W@__crt_stdio_output@@V?$standard_base@_WV?$string_output_adapter@_W@__crt_stdio_output@@@2@@__crt_stdio_output@@AEAAX_KI_N@Z 000000018007e8f0 f i libucrtd:output.obj
 0001:0007da90       ??$write_multiple_characters@V?$stream_output_adapter@D@__crt_stdio_output@@D@__crt_stdio_output@@YAXAEBV?$stream_output_adapter@D@0@DHQEAH@Z 000000018007ea90 f i libucrtd:output.obj
 0001:0007db10       ??$write_multiple_characters@V?$stream_output_adapter@_W@__crt_stdio_output@@D@__crt_stdio_output@@YAXAEBV?$stream_output_adapter@_W@0@DHQEAH@Z 000000018007eb10 f i libucrtd:output.obj
 0001:0007db90       ??$write_multiple_characters@V?$string_output_adapter@D@__crt_stdio_output@@D@__crt_stdio_output@@YAXAEBV?$string_output_adapter@D@0@DHQEAH@Z 000000018007eb90 f i libucrtd:output.obj
 0001:0007dc10       ??$write_multiple_characters@V?$string_output_adapter@_W@__crt_stdio_output@@D@__crt_stdio_output@@YAXAEBV?$string_output_adapter@_W@0@DHQEAH@Z 000000018007ec10 f i libucrtd:output.obj
 0001:0007e1d0       ??0?$common_data@D@__crt_stdio_output@@IEAA@XZ 000000018007f1d0 f i libucrtd:output.obj
 0001:0007e2d0       ??0?$common_data@_W@__crt_stdio_output@@IEAA@XZ 000000018007f2d0 f i libucrtd:output.obj
 0001:0007e3d0       ??0?$output_adapter_data@DV?$stream_output_adapter@D@__crt_stdio_output@@@__crt_stdio_output@@IEAA@AEBV?$stream_output_adapter@D@1@_KQEBDQEAU__crt_locale_pointers@@QEAD@Z 000000018007f3d0 f i libucrtd:output.obj
 0001:0007e470       ??0?$output_adapter_data@DV?$string_output_adapter@D@__crt_stdio_output@@@__crt_stdio_output@@IEAA@AEBV?$string_output_adapter@D@1@_KQEBDQEAU__crt_locale_pointers@@QEAD@Z 000000018007f470 f i libucrtd:output.obj
 0001:0007e510       ??0?$output_adapter_data@_WV?$stream_output_adapter@_W@__crt_stdio_output@@@__crt_stdio_output@@IEAA@AEBV?$stream_output_adapter@_W@1@_KQEB_WQEAU__crt_locale_pointers@@QEAD@Z 000000018007f510 f i libucrtd:output.obj
 0001:0007e5b0       ??0?$output_adapter_data@_WV?$string_output_adapter@_W@__crt_stdio_output@@@__crt_stdio_output@@IEAA@AEBV?$string_output_adapter@_W@1@_KQEB_WQEAU__crt_locale_pointers@@QEAD@Z 000000018007f5b0 f i libucrtd:output.obj
 0001:0007e650       ??0?$output_processor@DV?$stream_output_adapter@D@__crt_stdio_output@@V?$format_validation_base@DV?$stream_output_adapter@D@__crt_stdio_output@@@2@@__crt_stdio_output@@QEAA@AEBV?$stream_output_adapter@D@1@_KQEBDQEAU__crt_locale_pointers@@QEAD@Z 000000018007f650 f i libucrtd:output.obj
 0001:0007e6d0       ??0?$output_processor@DV?$stream_output_adapter@D@__crt_stdio_output@@V?$positional_parameter_base@DV?$stream_output_adapter@D@__crt_stdio_output@@@2@@__crt_stdio_output@@QEAA@AEBV?$stream_output_adapter@D@1@_KQEBDQEAU__crt_locale_pointers@@QEAD@Z 000000018007f6d0 f i libucrtd:output.obj
 0001:0007e750       ??0?$output_processor@DV?$stream_output_adapter@D@__crt_stdio_output@@V?$standard_base@DV?$stream_output_adapter@D@__crt_stdio_output@@@2@@__crt_stdio_output@@QEAA@AEBV?$stream_output_adapter@D@1@_KQEBDQEAU__crt_locale_pointers@@QEAD@Z 000000018007f750 f i libucrtd:output.obj
 0001:0007e7d0       ??0?$output_processor@DV?$string_output_adapter@D@__crt_stdio_output@@V?$format_validation_base@DV?$string_output_adapter@D@__crt_stdio_output@@@2@@__crt_stdio_output@@QEAA@AEBV?$string_output_adapter@D@1@_KQEBDQEAU__crt_locale_pointers@@QEAD@Z 000000018007f7d0 f i libucrtd:output.obj
 0001:0007e850       ??0?$output_processor@DV?$string_output_adapter@D@__crt_stdio_output@@V?$positional_parameter_base@DV?$string_output_adapter@D@__crt_stdio_output@@@2@@__crt_stdio_output@@QEAA@AEBV?$string_output_adapter@D@1@_KQEBDQEAU__crt_locale_pointers@@QEAD@Z 000000018007f850 f i libucrtd:output.obj
 0001:0007e8d0       ??0?$output_processor@DV?$string_output_adapter@D@__crt_stdio_output@@V?$standard_base@DV?$string_output_adapter@D@__crt_stdio_output@@@2@@__crt_stdio_output@@QEAA@AEBV?$string_output_adapter@D@1@_KQEBDQEAU__crt_locale_pointers@@QEAD@Z 000000018007f8d0 f i libucrtd:output.obj
 0001:0007e950       ??0?$output_processor@_WV?$stream_output_adapter@_W@__crt_stdio_output@@V?$format_validation_base@_WV?$stream_output_adapter@_W@__crt_stdio_output@@@2@@__crt_stdio_output@@QEAA@AEBV?$stream_output_adapter@_W@1@_KQEB_WQEAU__crt_locale_pointers@@QEAD@Z 000000018007f950 f i libucrtd:output.obj
 0001:0007e9d0       ??0?$output_processor@_WV?$stream_output_adapter@_W@__crt_stdio_output@@V?$positional_parameter_base@_WV?$stream_output_adapter@_W@__crt_stdio_output@@@2@@__crt_stdio_output@@QEAA@AEBV?$stream_output_adapter@_W@1@_KQEB_WQEAU__crt_locale_pointers@@QEAD@Z 000000018007f9d0 f i libucrtd:output.obj
 0001:0007ea50       ??0?$output_processor@_WV?$stream_output_adapter@_W@__crt_stdio_output@@V?$standard_base@_WV?$stream_output_adapter@_W@__crt_stdio_output@@@2@@__crt_stdio_output@@QEAA@AEBV?$stream_output_adapter@_W@1@_KQEB_WQEAU__crt_locale_pointers@@QEAD@Z 000000018007fa50 f i libucrtd:output.obj
 0001:0007ead0       ??0?$output_processor@_WV?$string_output_adapter@_W@__crt_stdio_output@@V?$format_validation_base@_WV?$string_output_adapter@_W@__crt_stdio_output@@@2@@__crt_stdio_output@@QEAA@AEBV?$string_output_adapter@_W@1@_KQEB_WQEAU__crt_locale_pointers@@QEAD@Z 000000018007fad0 f i libucrtd:output.obj
 0001:0007eb50       ??0?$output_processor@_WV?$string_output_adapter@_W@__crt_stdio_output@@V?$positional_parameter_base@_WV?$string_output_adapter@_W@__crt_stdio_output@@@2@@__crt_stdio_output@@QEAA@AEBV?$string_output_adapter@_W@1@_KQEB_WQEAU__crt_locale_pointers@@QEAD@Z 000000018007fb50 f i libucrtd:output.obj
 0001:0007ebd0       ??0?$output_processor@_WV?$string_output_adapter@_W@__crt_stdio_output@@V?$standard_base@_WV?$string_output_adapter@_W@__crt_stdio_output@@@2@@__crt_stdio_output@@QEAA@AEBV?$string_output_adapter@_W@1@_KQEB_WQEAU__crt_locale_pointers@@QEAD@Z 000000018007fbd0 f i libucrtd:output.obj
 0001:0007ec50       ??0?$stream_output_adapter@D@__crt_stdio_output@@QEAA@QEAU_iobuf@@@Z 000000018007fc50 f i libucrtd:output.obj
 0001:0007ec90       ??0?$stream_output_adapter@_W@__crt_stdio_output@@QEAA@QEAU_iobuf@@@Z 000000018007fc90 f i libucrtd:output.obj
 0001:0007ecd0       ??0?$string_output_adapter@D@__crt_stdio_output@@QEAA@QEAU?$string_output_adapter_context@D@1@@Z 000000018007fcd0 f i libucrtd:output.obj
 0001:0007ed00       ??0?$string_output_adapter@_W@__crt_stdio_output@@QEAA@QEAU?$string_output_adapter_context@_W@1@@Z 000000018007fd00 f i libucrtd:output.obj
 0001:0007ed30       ??0__acrt_stdio_temporary_buffering_guard@@QEAA@QEAU_iobuf@@@Z 000000018007fd30 f i libucrtd:output.obj
 0001:0007ed80       ??0__crt_errno_guard@@QEAA@QEAH@Z 000000018007fd80 f i libucrtd:output.obj
 0001:0007edd0       ??0__crt_stdio_stream@@QEAA@QEAU_iobuf@@@Z 000000018007fdd0 f i libucrtd:output.obj
 0001:0007ee00       ??0formatting_buffer@__crt_stdio_output@@QEAA@XZ 000000018007fe00 f i libucrtd:output.obj
 0001:0007ee50       ??1?$common_data@D@__crt_stdio_output@@QEAA@XZ 000000018007fe50 f i libucrtd:output.obj
 0001:0007ee80       ??1?$common_data@_W@__crt_stdio_output@@QEAA@XZ 000000018007fe80 f i libucrtd:output.obj
 0001:0007eeb0       ??1?$format_validation_base@DV?$stream_output_adapter@D@__crt_stdio_output@@@__crt_stdio_output@@QEAA@XZ 000000018007feb0 f i libucrtd:output.obj
 0001:0007eed0       ??1?$format_validation_base@DV?$string_output_adapter@D@__crt_stdio_output@@@__crt_stdio_output@@QEAA@XZ 000000018007fed0 f i libucrtd:output.obj
 0001:0007eef0       ??1?$format_validation_base@_WV?$stream_output_adapter@_W@__crt_stdio_output@@@__crt_stdio_output@@QEAA@XZ 000000018007fef0 f i libucrtd:output.obj
 0001:0007ef10       ??1?$format_validation_base@_WV?$string_output_adapter@_W@__crt_stdio_output@@@__crt_stdio_output@@QEAA@XZ 000000018007ff10 f i libucrtd:output.obj
 0001:0007ef30       ??1?$output_adapter_data@DV?$stream_output_adapter@D@__crt_stdio_output@@@__crt_stdio_output@@QEAA@XZ 000000018007ff30 f i libucrtd:output.obj
 0001:0007ef50       ??1?$output_adapter_data@DV?$string_output_adapter@D@__crt_stdio_output@@@__crt_stdio_output@@QEAA@XZ 000000018007ff50 f i libucrtd:output.obj
 0001:0007ef70       ??1?$output_adapter_data@_WV?$stream_output_adapter@_W@__crt_stdio_output@@@__crt_stdio_output@@QEAA@XZ 000000018007ff70 f i libucrtd:output.obj
 0001:0007ef90       ??1?$output_adapter_data@_WV?$string_output_adapter@_W@__crt_stdio_output@@@__crt_stdio_output@@QEAA@XZ 000000018007ff90 f i libucrtd:output.obj
 0001:0007efb0       ??1?$output_processor@DV?$stream_output_adapter@D@__crt_stdio_output@@V?$format_validation_base@DV?$stream_output_adapter@D@__crt_stdio_output@@@2@@__crt_stdio_output@@QEAA@XZ 000000018007ffb0 f i libucrtd:output.obj
 0001:0007efd0       ??1?$output_processor@DV?$stream_output_adapter@D@__crt_stdio_output@@V?$positional_parameter_base@DV?$stream_output_adapter@D@__crt_stdio_output@@@2@@__crt_stdio_output@@QEAA@XZ 000000018007ffd0 f i libucrtd:output.obj
 0001:0007eff0       ??1?$output_processor@DV?$stream_output_adapter@D@__crt_stdio_output@@V?$standard_base@DV?$stream_output_adapter@D@__crt_stdio_output@@@2@@__crt_stdio_output@@QEAA@XZ 000000018007fff0 f i libucrtd:output.obj
 0001:0007f010       ??1?$output_processor@DV?$string_output_adapter@D@__crt_stdio_output@@V?$format_validation_base@DV?$string_output_adapter@D@__crt_stdio_output@@@2@@__crt_stdio_output@@QEAA@XZ 0000000180080010 f i libucrtd:output.obj
 0001:0007f030       ??1?$output_processor@DV?$string_output_adapter@D@__crt_stdio_output@@V?$positional_parameter_base@DV?$string_output_adapter@D@__crt_stdio_output@@@2@@__crt_stdio_output@@QEAA@XZ 0000000180080030 f i libucrtd:output.obj
 0001:0007f050       ??1?$output_processor@DV?$string_output_adapter@D@__crt_stdio_output@@V?$standard_base@DV?$string_output_adapter@D@__crt_stdio_output@@@2@@__crt_stdio_output@@QEAA@XZ 0000000180080050 f i libucrtd:output.obj
 0001:0007f070       ??1?$output_processor@_WV?$stream_output_adapter@_W@__crt_stdio_output@@V?$format_validation_base@_WV?$stream_output_adapter@_W@__crt_stdio_output@@@2@@__crt_stdio_output@@QEAA@XZ 0000000180080070 f i libucrtd:output.obj
 0001:0007f090       ??1?$output_processor@_WV?$stream_output_adapter@_W@__crt_stdio_output@@V?$positional_parameter_base@_WV?$stream_output_adapter@_W@__crt_stdio_output@@@2@@__crt_stdio_output@@QEAA@XZ 0000000180080090 f i libucrtd:output.obj
 0001:0007f0b0       ??1?$output_processor@_WV?$stream_output_adapter@_W@__crt_stdio_output@@V?$standard_base@_WV?$stream_output_adapter@_W@__crt_stdio_output@@@2@@__crt_stdio_output@@QEAA@XZ 00000001800800b0 f i libucrtd:output.obj
 0001:0007f0d0       ??1?$output_processor@_WV?$string_output_adapter@_W@__crt_stdio_output@@V?$format_validation_base@_WV?$string_output_adapter@_W@__crt_stdio_output@@@2@@__crt_stdio_output@@QEAA@XZ 00000001800800d0 f i libucrtd:output.obj
 0001:0007f0f0       ??1?$output_processor@_WV?$string_output_adapter@_W@__crt_stdio_output@@V?$positional_parameter_base@_WV?$string_output_adapter@_W@__crt_stdio_output@@@2@@__crt_stdio_output@@QEAA@XZ 00000001800800f0 f i libucrtd:output.obj
 0001:0007f110       ??1?$output_processor@_WV?$string_output_adapter@_W@__crt_stdio_output@@V?$standard_base@_WV?$string_output_adapter@_W@__crt_stdio_output@@@2@@__crt_stdio_output@@QEAA@XZ 0000000180080110 f i libucrtd:output.obj
 0001:0007f130       ??1?$positional_parameter_base@DV?$stream_output_adapter@D@__crt_stdio_output@@@__crt_stdio_output@@QEAA@XZ 0000000180080130 f i libucrtd:output.obj
 0001:0007f150       ??1?$positional_parameter_base@DV?$string_output_adapter@D@__crt_stdio_output@@@__crt_stdio_output@@QEAA@XZ 0000000180080150 f i libucrtd:output.obj
 0001:0007f170       ??1?$positional_parameter_base@_WV?$stream_output_adapter@_W@__crt_stdio_output@@@__crt_stdio_output@@QEAA@XZ 0000000180080170 f i libucrtd:output.obj
 0001:0007f190       ??1?$positional_parameter_base@_WV?$string_output_adapter@_W@__crt_stdio_output@@@__crt_stdio_output@@QEAA@XZ 0000000180080190 f i libucrtd:output.obj
 0001:0007f1b0       ??1?$standard_base@DV?$stream_output_adapter@D@__crt_stdio_output@@@__crt_stdio_output@@QEAA@XZ 00000001800801b0 f i libucrtd:output.obj
 0001:0007f1d0       ??1?$standard_base@DV?$string_output_adapter@D@__crt_stdio_output@@@__crt_stdio_output@@QEAA@XZ 00000001800801d0 f i libucrtd:output.obj
 0001:0007f1f0       ??1?$standard_base@_WV?$stream_output_adapter@_W@__crt_stdio_output@@@__crt_stdio_output@@QEAA@XZ 00000001800801f0 f i libucrtd:output.obj
 0001:0007f210       ??1?$standard_base@_WV?$string_output_adapter@_W@__crt_stdio_output@@@__crt_stdio_output@@QEAA@XZ 0000000180080210 f i libucrtd:output.obj
 0001:0007f230       ??1__acrt_stdio_temporary_buffering_guard@@QEAA@XZ 0000000180080230 f i libucrtd:output.obj
 0001:0007f260       ??1__crt_errno_guard@@QEAA@XZ 0000000180080260 f i libucrtd:output.obj
 0001:0007f2a0       ??1formatting_buffer@__crt_stdio_output@@QEAA@XZ 00000001800802a0 f i libucrtd:output.obj
 0001:0007f2d0       ??4?$__crt_unique_heap_ptr@DU__crt_internal_free_policy@@@@QEAAAEAV0@$$QEAV0@@Z 00000001800802d0 f i libucrtd:output.obj
 0001:0007f320       ??C__crt_stdio_stream@@QEBAPEAU__crt_stdio_stream_data@@XZ 0000000180080320 f i libucrtd:output.obj
 0001:0007fe80       ?adjust_hexit@?$output_processor@DV?$stream_output_adapter@D@__crt_stdio_output@@V?$format_validation_base@DV?$stream_output_adapter@D@__crt_stdio_output@@@2@@__crt_stdio_output@@CADH_N@Z 0000000180080e80 f i libucrtd:output.obj
 0001:0007fee0       ?adjust_hexit@?$output_processor@DV?$stream_output_adapter@D@__crt_stdio_output@@V?$positional_parameter_base@DV?$stream_output_adapter@D@__crt_stdio_output@@@2@@__crt_stdio_output@@CADH_N@Z 0000000180080ee0 f i libucrtd:output.obj
 0001:0007ff40       ?adjust_hexit@?$output_processor@DV?$stream_output_adapter@D@__crt_stdio_output@@V?$standard_base@DV?$stream_output_adapter@D@__crt_stdio_output@@@2@@__crt_stdio_output@@CADH_N@Z 0000000180080f40 f i libucrtd:output.obj
 0001:0007ffa0       ?adjust_hexit@?$output_processor@DV?$string_output_adapter@D@__crt_stdio_output@@V?$format_validation_base@DV?$string_output_adapter@D@__crt_stdio_output@@@2@@__crt_stdio_output@@CADH_N@Z 0000000180080fa0 f i libucrtd:output.obj
 0001:00080000       ?adjust_hexit@?$output_processor@DV?$string_output_adapter@D@__crt_stdio_output@@V?$positional_parameter_base@DV?$string_output_adapter@D@__crt_stdio_output@@@2@@__crt_stdio_output@@CADH_N@Z 0000000180081000 f i libucrtd:output.obj
 0001:00080060       ?adjust_hexit@?$output_processor@DV?$string_output_adapter@D@__crt_stdio_output@@V?$standard_base@DV?$string_output_adapter@D@__crt_stdio_output@@@2@@__crt_stdio_output@@CADH_N@Z 0000000180081060 f i libucrtd:output.obj
 0001:000800c0       ?adjust_hexit@?$output_processor@_WV?$stream_output_adapter@_W@__crt_stdio_output@@V?$format_validation_base@_WV?$stream_output_adapter@_W@__crt_stdio_output@@@2@@__crt_stdio_output@@CADH_N@Z 00000001800810c0 f i libucrtd:output.obj
 0001:00080120       ?adjust_hexit@?$output_processor@_WV?$stream_output_adapter@_W@__crt_stdio_output@@V?$positional_parameter_base@_WV?$stream_output_adapter@_W@__crt_stdio_output@@@2@@__crt_stdio_output@@CADH_N@Z 0000000180081120 f i libucrtd:output.obj
 0001:00080180       ?adjust_hexit@?$output_processor@_WV?$stream_output_adapter@_W@__crt_stdio_output@@V?$standard_base@_WV?$stream_output_adapter@_W@__crt_stdio_output@@@2@@__crt_stdio_output@@CADH_N@Z 0000000180081180 f i libucrtd:output.obj
 0001:000801e0       ?adjust_hexit@?$output_processor@_WV?$string_output_adapter@_W@__crt_stdio_output@@V?$format_validation_base@_WV?$string_output_adapter@_W@__crt_stdio_output@@@2@@__crt_stdio_output@@CADH_N@Z 00000001800811e0 f i libucrtd:output.obj
 0001:00080240       ?adjust_hexit@?$output_processor@_WV?$string_output_adapter@_W@__crt_stdio_output@@V?$positional_parameter_base@_WV?$string_output_adapter@_W@__crt_stdio_output@@@2@@__crt_stdio_output@@CADH_N@Z 0000000180081240 f i libucrtd:output.obj
 0001:000802a0       ?adjust_hexit@?$output_processor@_WV?$string_output_adapter@_W@__crt_stdio_output@@V?$standard_base@_WV?$string_output_adapter@_W@__crt_stdio_output@@@2@@__crt_stdio_output@@CADH_N@Z 00000001800812a0 f i libucrtd:output.obj
 0001:00080300       ?advance_to_next_pass@?$positional_parameter_base@DV?$stream_output_adapter@D@__crt_stdio_output@@@__crt_stdio_output@@IEAA_NXZ 0000000180081300 f i libucrtd:output.obj
 0001:000803e0       ?advance_to_next_pass@?$positional_parameter_base@DV?$string_output_adapter@D@__crt_stdio_output@@@__crt_stdio_output@@IEAA_NXZ 00000001800813e0 f i libucrtd:output.obj
 0001:000804c0       ?advance_to_next_pass@?$positional_parameter_base@_WV?$stream_output_adapter@_W@__crt_stdio_output@@@__crt_stdio_output@@IEAA_NXZ 00000001800814c0 f i libucrtd:output.obj
 0001:000805a0       ?advance_to_next_pass@?$positional_parameter_base@_WV?$string_output_adapter@_W@__crt_stdio_output@@@__crt_stdio_output@@IEAA_NXZ 00000001800815a0 f i libucrtd:output.obj
 0001:00080680       ?advance_to_next_pass@?$standard_base@DV?$stream_output_adapter@D@__crt_stdio_output@@@__crt_stdio_output@@IEAA_NXZ 0000000180081680 f i libucrtd:output.obj
 0001:000806e0       ?advance_to_next_pass@?$standard_base@DV?$string_output_adapter@D@__crt_stdio_output@@@__crt_stdio_output@@IEAA_NXZ 00000001800816e0 f i libucrtd:output.obj
 0001:00080740       ?advance_to_next_pass@?$standard_base@_WV?$stream_output_adapter@_W@__crt_stdio_output@@@__crt_stdio_output@@IEAA_NXZ 0000000180081740 f i libucrtd:output.obj
 0001:000807a0       ?advance_to_next_pass@?$standard_base@_WV?$string_output_adapter@_W@__crt_stdio_output@@@__crt_stdio_output@@IEAA_NXZ 00000001800817a0 f i libucrtd:output.obj
 0001:00080800       ?crop_zeroes@__crt_stdio_output@@YAXPEADQEAU__crt_locale_pointers@@@Z 0000000180081800 f i libucrtd:output.obj
 0001:00080990       ?find_next_state@?$output_processor@DV?$stream_output_adapter@D@__crt_stdio_output@@V?$format_validation_base@DV?$stream_output_adapter@D@__crt_stdio_output@@@2@@__crt_stdio_output@@AEBA?AW4state@2@DW432@@Z 0000000180081990 f i libucrtd:output.obj
 0001:00080a50       ?find_next_state@?$output_processor@DV?$stream_output_adapter@D@__crt_stdio_output@@V?$positional_parameter_base@DV?$stream_output_adapter@D@__crt_stdio_output@@@2@@__crt_stdio_output@@AEBA?AW4state@2@DW432@@Z 0000000180081a50 f i libucrtd:output.obj
 0001:00080b10       ?find_next_state@?$output_processor@DV?$stream_output_adapter@D@__crt_stdio_output@@V?$standard_base@DV?$stream_output_adapter@D@__crt_stdio_output@@@2@@__crt_stdio_output@@AEBA?AW4state@2@DW432@@Z 0000000180081b10 f i libucrtd:output.obj
 0001:00080bd0       ?find_next_state@?$output_processor@DV?$string_output_adapter@D@__crt_stdio_output@@V?$format_validation_base@DV?$string_output_adapter@D@__crt_stdio_output@@@2@@__crt_stdio_output@@AEBA?AW4state@2@DW432@@Z 0000000180081bd0 f i libucrtd:output.obj
 0001:00080c90       ?find_next_state@?$output_processor@DV?$string_output_adapter@D@__crt_stdio_output@@V?$positional_parameter_base@DV?$string_output_adapter@D@__crt_stdio_output@@@2@@__crt_stdio_output@@AEBA?AW4state@2@DW432@@Z 0000000180081c90 f i libucrtd:output.obj
 0001:00080d50       ?find_next_state@?$output_processor@DV?$string_output_adapter@D@__crt_stdio_output@@V?$standard_base@DV?$string_output_adapter@D@__crt_stdio_output@@@2@@__crt_stdio_output@@AEBA?AW4state@2@DW432@@Z 0000000180081d50 f i libucrtd:output.obj
 0001:00080e10       ?find_next_state@?$output_processor@_WV?$stream_output_adapter@_W@__crt_stdio_output@@V?$format_validation_base@_WV?$stream_output_adapter@_W@__crt_stdio_output@@@2@@__crt_stdio_output@@AEBA?AW4state@2@_WW432@@Z 0000000180081e10 f i libucrtd:output.obj
 0001:00080ed0       ?find_next_state@?$output_processor@_WV?$stream_output_adapter@_W@__crt_stdio_output@@V?$positional_parameter_base@_WV?$stream_output_adapter@_W@__crt_stdio_output@@@2@@__crt_stdio_output@@AEBA?AW4state@2@_WW432@@Z 0000000180081ed0 f i libucrtd:output.obj
 0001:00080f90       ?find_next_state@?$output_processor@_WV?$stream_output_adapter@_W@__crt_stdio_output@@V?$standard_base@_WV?$stream_output_adapter@_W@__crt_stdio_output@@@2@@__crt_stdio_output@@AEBA?AW4state@2@_WW432@@Z 0000000180081f90 f i libucrtd:output.obj
 0001:00081050       ?find_next_state@?$output_processor@_WV?$string_output_adapter@_W@__crt_stdio_output@@V?$format_validation_base@_WV?$string_output_adapter@_W@__crt_stdio_output@@@2@@__crt_stdio_output@@AEBA?AW4state@2@_WW432@@Z 0000000180082050 f i libucrtd:output.obj
 0001:00081110       ?find_next_state@?$output_processor@_WV?$string_output_adapter@_W@__crt_stdio_output@@V?$positional_parameter_base@_WV?$string_output_adapter@_W@__crt_stdio_output@@@2@@__crt_stdio_output@@AEBA?AW4state@2@_WW432@@Z 0000000180082110 f i libucrtd:output.obj
 0001:000811d0       ?find_next_state@?$output_processor@_WV?$string_output_adapter@_W@__crt_stdio_output@@V?$standard_base@_WV?$string_output_adapter@_W@__crt_stdio_output@@@2@@__crt_stdio_output@@AEBA?AW4state@2@_WW432@@Z 00000001800821d0 f i libucrtd:output.obj
 0001:00081290       ?force_decimal_point@__crt_stdio_output@@YAXPEADQEAU__crt_locale_pointers@@@Z 0000000180082290 f i libucrtd:output.obj
 0001:000813b0       ?get_flags@__crt_stdio_stream@@QEBAJXZ 00000001800823b0 f i libucrtd:output.obj
 0001:000813e0       ?get_parameter_type@?$positional_parameter_base@DV?$stream_output_adapter@D@__crt_stdio_output@@@__crt_stdio_output@@CA?AW4parameter_type@12@F@Z 00000001800823e0 f i libucrtd:output.obj
 0001:000813f0       ?get_parameter_type@?$positional_parameter_base@DV?$stream_output_adapter@D@__crt_stdio_output@@@__crt_stdio_output@@CA?AW4parameter_type@12@G@Z 00000001800823f0 f i libucrtd:output.obj
 0001:00081400       ?get_parameter_type@?$positional_parameter_base@DV?$stream_output_adapter@D@__crt_stdio_output@@@__crt_stdio_output@@CA?AW4parameter_type@12@H@Z 0000000180082400 f i libucrtd:output.obj
 0001:00081410       ?get_parameter_type@?$positional_parameter_base@DV?$stream_output_adapter@D@__crt_stdio_output@@@__crt_stdio_output@@CA?AW4parameter_type@12@I@Z 0000000180082410 f i libucrtd:output.obj
 0001:00081420       ?get_parameter_type@?$positional_parameter_base@DV?$stream_output_adapter@D@__crt_stdio_output@@@__crt_stdio_output@@CA?AW4parameter_type@12@U_CRT_DOUBLE@@@Z 0000000180082420 f i libucrtd:output.obj
 0001:00081430       ?get_parameter_type@?$positional_parameter_base@DV?$stream_output_adapter@D@__crt_stdio_output@@@__crt_stdio_output@@CA?AW4parameter_type@12@_J@Z 0000000180082430 f i libucrtd:output.obj
 0001:00081440       ?get_parameter_type@?$positional_parameter_base@DV?$stream_output_adapter@D@__crt_stdio_output@@@__crt_stdio_output@@CA?AW4parameter_type@12@_K@Z 0000000180082440 f i libucrtd:output.obj
 0001:00081450       ?get_parameter_type@?$positional_parameter_base@DV?$stream_output_adapter@D@__crt_stdio_output@@@__crt_stdio_output@@CA?AW4parameter_type@12@_W@Z 0000000180082450 f i libucrtd:output.obj
 0001:00081460       ?get_parameter_type@?$positional_parameter_base@DV?$string_output_adapter@D@__crt_stdio_output@@@__crt_stdio_output@@CA?AW4parameter_type@12@F@Z 0000000180082460 f i libucrtd:output.obj
 0001:00081470       ?get_parameter_type@?$positional_parameter_base@DV?$string_output_adapter@D@__crt_stdio_output@@@__crt_stdio_output@@CA?AW4parameter_type@12@G@Z 0000000180082470 f i libucrtd:output.obj
 0001:00081480       ?get_parameter_type@?$positional_parameter_base@DV?$string_output_adapter@D@__crt_stdio_output@@@__crt_stdio_output@@CA?AW4parameter_type@12@H@Z 0000000180082480 f i libucrtd:output.obj
 0001:00081490       ?get_parameter_type@?$positional_parameter_base@DV?$string_output_adapter@D@__crt_stdio_output@@@__crt_stdio_output@@CA?AW4parameter_type@12@I@Z 0000000180082490 f i libucrtd:output.obj
 0001:000814a0       ?get_parameter_type@?$positional_parameter_base@DV?$string_output_adapter@D@__crt_stdio_output@@@__crt_stdio_output@@CA?AW4parameter_type@12@U_CRT_DOUBLE@@@Z 00000001800824a0 f i libucrtd:output.obj
 0001:000814b0       ?get_parameter_type@?$positional_parameter_base@DV?$string_output_adapter@D@__crt_stdio_output@@@__crt_stdio_output@@CA?AW4parameter_type@12@_J@Z 00000001800824b0 f i libucrtd:output.obj
 0001:000814c0       ?get_parameter_type@?$positional_parameter_base@DV?$string_output_adapter@D@__crt_stdio_output@@@__crt_stdio_output@@CA?AW4parameter_type@12@_K@Z 00000001800824c0 f i libucrtd:output.obj
 0001:000814d0       ?get_parameter_type@?$positional_parameter_base@DV?$string_output_adapter@D@__crt_stdio_output@@@__crt_stdio_output@@CA?AW4parameter_type@12@_W@Z 00000001800824d0 f i libucrtd:output.obj
 0001:000814e0       ?get_parameter_type@?$positional_parameter_base@_WV?$stream_output_adapter@_W@__crt_stdio_output@@@__crt_stdio_output@@CA?AW4parameter_type@12@F@Z 00000001800824e0 f i libucrtd:output.obj
 0001:000814f0       ?get_parameter_type@?$positional_parameter_base@_WV?$stream_output_adapter@_W@__crt_stdio_output@@@__crt_stdio_output@@CA?AW4parameter_type@12@G@Z 00000001800824f0 f i libucrtd:output.obj
 0001:00081500       ?get_parameter_type@?$positional_parameter_base@_WV?$stream_output_adapter@_W@__crt_stdio_output@@@__crt_stdio_output@@CA?AW4parameter_type@12@H@Z 0000000180082500 f i libucrtd:output.obj
 0001:00081510       ?get_parameter_type@?$positional_parameter_base@_WV?$stream_output_adapter@_W@__crt_stdio_output@@@__crt_stdio_output@@CA?AW4parameter_type@12@I@Z 0000000180082510 f i libucrtd:output.obj
 0001:00081520       ?get_parameter_type@?$positional_parameter_base@_WV?$stream_output_adapter@_W@__crt_stdio_output@@@__crt_stdio_output@@CA?AW4parameter_type@12@U_CRT_DOUBLE@@@Z 0000000180082520 f i libucrtd:output.obj
 0001:00081530       ?get_parameter_type@?$positional_parameter_base@_WV?$stream_output_adapter@_W@__crt_stdio_output@@@__crt_stdio_output@@CA?AW4parameter_type@12@_J@Z 0000000180082530 f i libucrtd:output.obj
 0001:00081540       ?get_parameter_type@?$positional_parameter_base@_WV?$stream_output_adapter@_W@__crt_stdio_output@@@__crt_stdio_output@@CA?AW4parameter_type@12@_K@Z 0000000180082540 f i libucrtd:output.obj
 0001:00081550       ?get_parameter_type@?$positional_parameter_base@_WV?$stream_output_adapter@_W@__crt_stdio_output@@@__crt_stdio_output@@CA?AW4parameter_type@12@_W@Z 0000000180082550 f i libucrtd:output.obj
 0001:00081560       ?get_parameter_type@?$positional_parameter_base@_WV?$string_output_adapter@_W@__crt_stdio_output@@@__crt_stdio_output@@CA?AW4parameter_type@12@F@Z 0000000180082560 f i libucrtd:output.obj
 0001:00081570       ?get_parameter_type@?$positional_parameter_base@_WV?$string_output_adapter@_W@__crt_stdio_output@@@__crt_stdio_output@@CA?AW4parameter_type@12@G@Z 0000000180082570 f i libucrtd:output.obj
 0001:00081580       ?get_parameter_type@?$positional_parameter_base@_WV?$string_output_adapter@_W@__crt_stdio_output@@@__crt_stdio_output@@CA?AW4parameter_type@12@H@Z 0000000180082580 f i libucrtd:output.obj
 0001:00081590       ?get_parameter_type@?$positional_parameter_base@_WV?$string_output_adapter@_W@__crt_stdio_output@@@__crt_stdio_output@@CA?AW4parameter_type@12@I@Z 0000000180082590 f i libucrtd:output.obj
 0001:000815a0       ?get_parameter_type@?$positional_parameter_base@_WV?$string_output_adapter@_W@__crt_stdio_output@@@__crt_stdio_output@@CA?AW4parameter_type@12@U_CRT_DOUBLE@@@Z 00000001800825a0 f i libucrtd:output.obj
 0001:000815b0       ?get_parameter_type@?$positional_parameter_base@_WV?$string_output_adapter@_W@__crt_stdio_output@@@__crt_stdio_output@@CA?AW4parameter_type@12@_J@Z 00000001800825b0 f i libucrtd:output.obj
 0001:000815c0       ?get_parameter_type@?$positional_parameter_base@_WV?$string_output_adapter@_W@__crt_stdio_output@@@__crt_stdio_output@@CA?AW4parameter_type@12@_K@Z 00000001800825c0 f i libucrtd:output.obj
 0001:000815d0       ?get_parameter_type@?$positional_parameter_base@_WV?$string_output_adapter@_W@__crt_stdio_output@@@__crt_stdio_output@@CA?AW4parameter_type@12@_W@Z 00000001800825d0 f i libucrtd:output.obj
 0001:000815e0       ?has_flag@?$output_processor@DV?$stream_output_adapter@D@__crt_stdio_output@@V?$format_validation_base@DV?$stream_output_adapter@D@__crt_stdio_output@@@2@@__crt_stdio_output@@AEBA_NI@Z 00000001800825e0 f i libucrtd:output.obj
 0001:00081630       ?has_flag@?$output_processor@DV?$stream_output_adapter@D@__crt_stdio_output@@V?$positional_parameter_base@DV?$stream_output_adapter@D@__crt_stdio_output@@@2@@__crt_stdio_output@@AEBA_NI@Z 0000000180082630 f i libucrtd:output.obj
 0001:00081680       ?has_flag@?$output_processor@DV?$stream_output_adapter@D@__crt_stdio_output@@V?$standard_base@DV?$stream_output_adapter@D@__crt_stdio_output@@@2@@__crt_stdio_output@@AEBA_NI@Z 0000000180082680 f i libucrtd:output.obj
 0001:000816d0       ?has_flag@?$output_processor@DV?$string_output_adapter@D@__crt_stdio_output@@V?$format_validation_base@DV?$string_output_adapter@D@__crt_stdio_output@@@2@@__crt_stdio_output@@AEBA_NI@Z 00000001800826d0 f i libucrtd:output.obj
 0001:00081720       ?has_flag@?$output_processor@DV?$string_output_adapter@D@__crt_stdio_output@@V?$positional_parameter_base@DV?$string_output_adapter@D@__crt_stdio_output@@@2@@__crt_stdio_output@@AEBA_NI@Z 0000000180082720 f i libucrtd:output.obj
 0001:00081770       ?has_flag@?$output_processor@DV?$string_output_adapter@D@__crt_stdio_output@@V?$standard_base@DV?$string_output_adapter@D@__crt_stdio_output@@@2@@__crt_stdio_output@@AEBA_NI@Z 0000000180082770 f i libucrtd:output.obj
 0001:000817c0       ?has_flag@?$output_processor@_WV?$stream_output_adapter@_W@__crt_stdio_output@@V?$format_validation_base@_WV?$stream_output_adapter@_W@__crt_stdio_output@@@2@@__crt_stdio_output@@AEBA_NI@Z 00000001800827c0 f i libucrtd:output.obj
 0001:00081810       ?has_flag@?$output_processor@_WV?$stream_output_adapter@_W@__crt_stdio_output@@V?$positional_parameter_base@_WV?$stream_output_adapter@_W@__crt_stdio_output@@@2@@__crt_stdio_output@@AEBA_NI@Z 0000000180082810 f i libucrtd:output.obj
 0001:00081860       ?has_flag@?$output_processor@_WV?$stream_output_adapter@_W@__crt_stdio_output@@V?$standard_base@_WV?$stream_output_adapter@_W@__crt_stdio_output@@@2@@__crt_stdio_output@@AEBA_NI@Z 0000000180082860 f i libucrtd:output.obj
 0001:000818b0       ?has_flag@?$output_processor@_WV?$string_output_adapter@_W@__crt_stdio_output@@V?$format_validation_base@_WV?$string_output_adapter@_W@__crt_stdio_output@@@2@@__crt_stdio_output@@AEBA_NI@Z 00000001800828b0 f i libucrtd:output.obj
 0001:00081900       ?has_flag@?$output_processor@_WV?$string_output_adapter@_W@__crt_stdio_output@@V?$positional_parameter_base@_WV?$string_output_adapter@_W@__crt_stdio_output@@@2@@__crt_stdio_output@@AEBA_NI@Z 0000000180082900 f i libucrtd:output.obj
 0001:00081950       ?has_flag@?$output_processor@_WV?$string_output_adapter@_W@__crt_stdio_output@@V?$standard_base@_WV?$string_output_adapter@_W@__crt_stdio_output@@@2@@__crt_stdio_output@@AEBA_NI@Z 0000000180082950 f i libucrtd:output.obj
 0001:000819a0       ?is_positional_parameter_reappearance_consistent@?$positional_parameter_base@DV?$stream_output_adapter@D@__crt_stdio_output@@@__crt_stdio_output@@AEAA_NAEBUparameter_data@12@W4parameter_type@12@DW4length_modifier@2@@Z 00000001800829a0 f i libucrtd:output.obj
 0001:00081c90       ?is_positional_parameter_reappearance_consistent@?$positional_parameter_base@DV?$string_output_adapter@D@__crt_stdio_output@@@__crt_stdio_output@@AEAA_NAEBUparameter_data@12@W4parameter_type@12@DW4length_modifier@2@@Z 0000000180082c90 f i libucrtd:output.obj
 0001:00081f80       ?is_positional_parameter_reappearance_consistent@?$positional_parameter_base@_WV?$stream_output_adapter@_W@__crt_stdio_output@@@__crt_stdio_output@@AEAA_NAEBUparameter_data@12@W4parameter_type@12@_WW4length_modifier@2@@Z 0000000180082f80 f i libucrtd:output.obj
 0001:00082270       ?is_positional_parameter_reappearance_consistent@?$positional_parameter_base@_WV?$string_output_adapter@_W@__crt_stdio_output@@@__crt_stdio_output@@AEAA_NAEBUparameter_data@12@W4parameter_type@12@_WW4length_modifier@2@@Z 0000000180083270 f i libucrtd:output.obj
 0001:00082560       ?is_string_backed@__crt_stdio_stream@@QEBA_NXZ 0000000180083560 f i libucrtd:output.obj
 0001:000825b0       ?narrow_null_string@?$output_processor@DV?$stream_output_adapter@D@__crt_stdio_output@@V?$format_validation_base@DV?$stream_output_adapter@D@__crt_stdio_output@@@2@@__crt_stdio_output@@CAPEADXZ 00000001800835b0 f i libucrtd:output.obj
 0001:000825c0       ?narrow_null_string@?$output_processor@DV?$stream_output_adapter@D@__crt_stdio_output@@V?$positional_parameter_base@DV?$stream_output_adapter@D@__crt_stdio_output@@@2@@__crt_stdio_output@@CAPEADXZ 00000001800835c0 f i libucrtd:output.obj
 0001:000825d0       ?narrow_null_string@?$output_processor@DV?$stream_output_adapter@D@__crt_stdio_output@@V?$standard_base@DV?$stream_output_adapter@D@__crt_stdio_output@@@2@@__crt_stdio_output@@CAPEADXZ 00000001800835d0 f i libucrtd:output.obj
 0001:000825e0       ?narrow_null_string@?$output_processor@DV?$string_output_adapter@D@__crt_stdio_output@@V?$format_validation_base@DV?$string_output_adapter@D@__crt_stdio_output@@@2@@__crt_stdio_output@@CAPEADXZ 00000001800835e0 f i libucrtd:output.obj
 0001:000825f0       ?narrow_null_string@?$output_processor@DV?$string_output_adapter@D@__crt_stdio_output@@V?$positional_parameter_base@DV?$string_output_adapter@D@__crt_stdio_output@@@2@@__crt_stdio_output@@CAPEADXZ 00000001800835f0 f i libucrtd:output.obj
 0001:00082600       ?narrow_null_string@?$output_processor@DV?$string_output_adapter@D@__crt_stdio_output@@V?$standard_base@DV?$string_output_adapter@D@__crt_stdio_output@@@2@@__crt_stdio_output@@CAPEADXZ 0000000180083600 f i libucrtd:output.obj
 0001:00082610       ?narrow_null_string@?$output_processor@_WV?$stream_output_adapter@_W@__crt_stdio_output@@V?$format_validation_base@_WV?$stream_output_adapter@_W@__crt_stdio_output@@@2@@__crt_stdio_output@@CAPEADXZ 0000000180083610 f i libucrtd:output.obj
 0001:00082620       ?narrow_null_string@?$output_processor@_WV?$stream_output_adapter@_W@__crt_stdio_output@@V?$positional_parameter_base@_WV?$stream_output_adapter@_W@__crt_stdio_output@@@2@@__crt_stdio_output@@CAPEADXZ 0000000180083620 f i libucrtd:output.obj
 0001:00082630       ?narrow_null_string@?$output_processor@_WV?$stream_output_adapter@_W@__crt_stdio_output@@V?$standard_base@_WV?$stream_output_adapter@_W@__crt_stdio_output@@@2@@__crt_stdio_output@@CAPEADXZ 0000000180083630 f i libucrtd:output.obj
 0001:00082640       ?narrow_null_string@?$output_processor@_WV?$string_output_adapter@_W@__crt_stdio_output@@V?$format_validation_base@_WV?$string_output_adapter@_W@__crt_stdio_output@@@2@@__crt_stdio_output@@CAPEADXZ 0000000180083640 f i libucrtd:output.obj
 0001:00082650       ?narrow_null_string@?$output_processor@_WV?$string_output_adapter@_W@__crt_stdio_output@@V?$positional_parameter_base@_WV?$string_output_adapter@_W@__crt_stdio_output@@@2@@__crt_stdio_output@@CAPEADXZ 0000000180083650 f i libucrtd:output.obj
 0001:00082660       ?narrow_null_string@?$output_processor@_WV?$string_output_adapter@_W@__crt_stdio_output@@V?$standard_base@_WV?$string_output_adapter@_W@__crt_stdio_output@@@2@@__crt_stdio_output@@CAPEADXZ 0000000180083660 f i libucrtd:output.obj
 0001:00082670       ?parse_int_from_format_string@?$output_processor@DV?$stream_output_adapter@D@__crt_stdio_output@@V?$format_validation_base@DV?$stream_output_adapter@D@__crt_stdio_output@@@2@@__crt_stdio_output@@AEAA_NQEAH@Z 0000000180083670 f i libucrtd:output.obj
 0001:00082780       ?parse_int_from_format_string@?$output_processor@DV?$stream_output_adapter@D@__crt_stdio_output@@V?$positional_parameter_base@DV?$stream_output_adapter@D@__crt_stdio_output@@@2@@__crt_stdio_output@@AEAA_NQEAH@Z 0000000180083780 f i libucrtd:output.obj
 0001:00082890       ?parse_int_from_format_string@?$output_processor@DV?$stream_output_adapter@D@__crt_stdio_output@@V?$standard_base@DV?$stream_output_adapter@D@__crt_stdio_output@@@2@@__crt_stdio_output@@AEAA_NQEAH@Z 0000000180083890 f i libucrtd:output.obj
 0001:000829a0       ?parse_int_from_format_string@?$output_processor@DV?$string_output_adapter@D@__crt_stdio_output@@V?$format_validation_base@DV?$string_output_adapter@D@__crt_stdio_output@@@2@@__crt_stdio_output@@AEAA_NQEAH@Z 00000001800839a0 f i libucrtd:output.obj
 0001:00082ab0       ?parse_int_from_format_string@?$output_processor@DV?$string_output_adapter@D@__crt_stdio_output@@V?$positional_parameter_base@DV?$string_output_adapter@D@__crt_stdio_output@@@2@@__crt_stdio_output@@AEAA_NQEAH@Z 0000000180083ab0 f i libucrtd:output.obj
 0001:00082bc0       ?parse_int_from_format_string@?$output_processor@DV?$string_output_adapter@D@__crt_stdio_output@@V?$standard_base@DV?$string_output_adapter@D@__crt_stdio_output@@@2@@__crt_stdio_output@@AEAA_NQEAH@Z 0000000180083bc0 f i libucrtd:output.obj
 0001:00082cd0       ?parse_int_from_format_string@?$output_processor@_WV?$stream_output_adapter@_W@__crt_stdio_output@@V?$format_validation_base@_WV?$stream_output_adapter@_W@__crt_stdio_output@@@2@@__crt_stdio_output@@AEAA_NQEAH@Z 0000000180083cd0 f i libucrtd:output.obj
 0001:00082de0       ?parse_int_from_format_string@?$output_processor@_WV?$stream_output_adapter@_W@__crt_stdio_output@@V?$positional_parameter_base@_WV?$stream_output_adapter@_W@__crt_stdio_output@@@2@@__crt_stdio_output@@AEAA_NQEAH@Z 0000000180083de0 f i libucrtd:output.obj
 0001:00082ef0       ?parse_int_from_format_string@?$output_processor@_WV?$stream_output_adapter@_W@__crt_stdio_output@@V?$standard_base@_WV?$stream_output_adapter@_W@__crt_stdio_output@@@2@@__crt_stdio_output@@AEAA_NQEAH@Z 0000000180083ef0 f i libucrtd:output.obj
 0001:00083000       ?parse_int_from_format_string@?$output_processor@_WV?$string_output_adapter@_W@__crt_stdio_output@@V?$format_validation_base@_WV?$string_output_adapter@_W@__crt_stdio_output@@@2@@__crt_stdio_output@@AEAA_NQEAH@Z 0000000180084000 f i libucrtd:output.obj
 0001:00083110       ?parse_int_from_format_string@?$output_processor@_WV?$string_output_adapter@_W@__crt_stdio_output@@V?$positional_parameter_base@_WV?$string_output_adapter@_W@__crt_stdio_output@@@2@@__crt_stdio_output@@AEAA_NQEAH@Z 0000000180084110 f i libucrtd:output.obj
 0001:00083220       ?parse_int_from_format_string@?$output_processor@_WV?$string_output_adapter@_W@__crt_stdio_output@@V?$standard_base@_WV?$string_output_adapter@_W@__crt_stdio_output@@@2@@__crt_stdio_output@@AEAA_NQEAH@Z 0000000180084220 f i libucrtd:output.obj
 0001:00083330       ?process@?$output_processor@DV?$stream_output_adapter@D@__crt_stdio_output@@V?$format_validation_base@DV?$stream_output_adapter@D@__crt_stdio_output@@@2@@__crt_stdio_output@@QEAAHXZ 0000000180084330 f i libucrtd:output.obj
 0001:00083770       ?process@?$output_processor@DV?$stream_output_adapter@D@__crt_stdio_output@@V?$positional_parameter_base@DV?$stream_output_adapter@D@__crt_stdio_output@@@2@@__crt_stdio_output@@QEAAHXZ 0000000180084770 f i libucrtd:output.obj
 0001:00083bb0       ?process@?$output_processor@DV?$stream_output_adapter@D@__crt_stdio_output@@V?$standard_base@DV?$stream_output_adapter@D@__crt_stdio_output@@@2@@__crt_stdio_output@@QEAAHXZ 0000000180084bb0 f i libucrtd:output.obj
 0001:00083ff0       ?process@?$output_processor@DV?$string_output_adapter@D@__crt_stdio_output@@V?$format_validation_base@DV?$string_output_adapter@D@__crt_stdio_output@@@2@@__crt_stdio_output@@QEAAHXZ 0000000180084ff0 f i libucrtd:output.obj
 0001:00084430       ?process@?$output_processor@DV?$string_output_adapter@D@__crt_stdio_output@@V?$positional_parameter_base@DV?$string_output_adapter@D@__crt_stdio_output@@@2@@__crt_stdio_output@@QEAAHXZ 0000000180085430 f i libucrtd:output.obj
 0001:00084870       ?process@?$output_processor@DV?$string_output_adapter@D@__crt_stdio_output@@V?$standard_base@DV?$string_output_adapter@D@__crt_stdio_output@@@2@@__crt_stdio_output@@QEAAHXZ 0000000180085870 f i libucrtd:output.obj
 0001:00084cb0       ?process@?$output_processor@_WV?$stream_output_adapter@_W@__crt_stdio_output@@V?$format_validation_base@_WV?$stream_output_adapter@_W@__crt_stdio_output@@@2@@__crt_stdio_output@@QEAAHXZ 0000000180085cb0 f i libucrtd:output.obj
 0001:000850f0       ?process@?$output_processor@_WV?$stream_output_adapter@_W@__crt_stdio_output@@V?$positional_parameter_base@_WV?$stream_output_adapter@_W@__crt_stdio_output@@@2@@__crt_stdio_output@@QEAAHXZ 00000001800860f0 f i libucrtd:output.obj
 0001:00085530       ?process@?$output_processor@_WV?$stream_output_adapter@_W@__crt_stdio_output@@V?$standard_base@_WV?$stream_output_adapter@_W@__crt_stdio_output@@@2@@__crt_stdio_output@@QEAAHXZ 0000000180086530 f i libucrtd:output.obj
 0001:00085970       ?process@?$output_processor@_WV?$string_output_adapter@_W@__crt_stdio_output@@V?$format_validation_base@_WV?$string_output_adapter@_W@__crt_stdio_output@@@2@@__crt_stdio_output@@QEAAHXZ 0000000180086970 f i libucrtd:output.obj
 0001:00085db0       ?process@?$output_processor@_WV?$string_output_adapter@_W@__crt_stdio_output@@V?$positional_parameter_base@_WV?$string_output_adapter@_W@__crt_stdio_output@@@2@@__crt_stdio_output@@QEAAHXZ 0000000180086db0 f i libucrtd:output.obj
 0001:000861f0       ?process@?$output_processor@_WV?$string_output_adapter@_W@__crt_stdio_output@@V?$standard_base@_WV?$string_output_adapter@_W@__crt_stdio_output@@@2@@__crt_stdio_output@@QEAAHXZ 00000001800871f0 f i libucrtd:output.obj
 0001:00086630       ?public_stream@__crt_stdio_stream@@QEBAPEAU_iobuf@@XZ 0000000180087630 f i libucrtd:output.obj
 0001:00086650       ?set_flag@?$output_processor@DV?$stream_output_adapter@D@__crt_stdio_output@@V?$format_validation_base@DV?$stream_output_adapter@D@__crt_stdio_output@@@2@@__crt_stdio_output@@AEAAXI@Z 0000000180087650 f i libucrtd:output.obj
 0001:00086680       ?set_flag@?$output_processor@DV?$stream_output_adapter@D@__crt_stdio_output@@V?$positional_parameter_base@DV?$stream_output_adapter@D@__crt_stdio_output@@@2@@__crt_stdio_output@@AEAAXI@Z 0000000180087680 f i libucrtd:output.obj
 0001:000866b0       ?set_flag@?$output_processor@DV?$stream_output_adapter@D@__crt_stdio_output@@V?$standard_base@DV?$stream_output_adapter@D@__crt_stdio_output@@@2@@__crt_stdio_output@@AEAAXI@Z 00000001800876b0 f i libucrtd:output.obj
 0001:000866e0       ?set_flag@?$output_processor@DV?$string_output_adapter@D@__crt_stdio_output@@V?$format_validation_base@DV?$string_output_adapter@D@__crt_stdio_output@@@2@@__crt_stdio_output@@AEAAXI@Z 00000001800876e0 f i libucrtd:output.obj
 0001:00086710       ?set_flag@?$output_processor@DV?$string_output_adapter@D@__crt_stdio_output@@V?$positional_parameter_base@DV?$string_output_adapter@D@__crt_stdio_output@@@2@@__crt_stdio_output@@AEAAXI@Z 0000000180087710 f i libucrtd:output.obj
 0001:00086740       ?set_flag@?$output_processor@DV?$string_output_adapter@D@__crt_stdio_output@@V?$standard_base@DV?$string_output_adapter@D@__crt_stdio_output@@@2@@__crt_stdio_output@@AEAAXI@Z 0000000180087740 f i libucrtd:output.obj
 0001:00086770       ?set_flag@?$output_processor@_WV?$stream_output_adapter@_W@__crt_stdio_output@@V?$format_validation_base@_WV?$stream_output_adapter@_W@__crt_stdio_output@@@2@@__crt_stdio_output@@AEAAXI@Z 0000000180087770 f i libucrtd:output.obj
 0001:000867a0       ?set_flag@?$output_processor@_WV?$stream_output_adapter@_W@__crt_stdio_output@@V?$positional_parameter_base@_WV?$stream_output_adapter@_W@__crt_stdio_output@@@2@@__crt_stdio_output@@AEAAXI@Z 00000001800877a0 f i libucrtd:output.obj
 0001:000867d0       ?set_flag@?$output_processor@_WV?$stream_output_adapter@_W@__crt_stdio_output@@V?$standard_base@_WV?$stream_output_adapter@_W@__crt_stdio_output@@@2@@__crt_stdio_output@@AEAAXI@Z 00000001800877d0 f i libucrtd:output.obj
 0001:00086800       ?set_flag@?$output_processor@_WV?$string_output_adapter@_W@__crt_stdio_output@@V?$format_validation_base@_WV?$string_output_adapter@_W@__crt_stdio_output@@@2@@__crt_stdio_output@@AEAAXI@Z 0000000180087800 f i libucrtd:output.obj
 0001:00086830       ?set_flag@?$output_processor@_WV?$string_output_adapter@_W@__crt_stdio_output@@V?$positional_parameter_base@_WV?$string_output_adapter@_W@__crt_stdio_output@@@2@@__crt_stdio_output@@AEAAXI@Z 0000000180087830 f i libucrtd:output.obj
 0001:00086860       ?set_flag@?$output_processor@_WV?$string_output_adapter@_W@__crt_stdio_output@@V?$standard_base@_WV?$string_output_adapter@_W@__crt_stdio_output@@@2@@__crt_stdio_output@@AEAAXI@Z 0000000180087860 f i libucrtd:output.obj
 0001:00086890       ?should_format@?$positional_parameter_base@DV?$stream_output_adapter@D@__crt_stdio_output@@@__crt_stdio_output@@IEAA_NXZ 0000000180087890 f i libucrtd:output.obj
 0001:000868e0       ?should_format@?$positional_parameter_base@DV?$string_output_adapter@D@__crt_stdio_output@@@__crt_stdio_output@@IEAA_NXZ 00000001800878e0 f i libucrtd:output.obj
 0001:00086930       ?should_format@?$positional_parameter_base@_WV?$stream_output_adapter@_W@__crt_stdio_output@@@__crt_stdio_output@@IEAA_NXZ 0000000180087930 f i libucrtd:output.obj
 0001:00086980       ?should_format@?$positional_parameter_base@_WV?$string_output_adapter@_W@__crt_stdio_output@@@__crt_stdio_output@@IEAA_NXZ 0000000180087980 f i libucrtd:output.obj
 0001:000869d0       ?should_format@?$standard_base@DV?$stream_output_adapter@D@__crt_stdio_output@@@__crt_stdio_output@@IEAA_NXZ 00000001800879d0 f i libucrtd:output.obj
 0001:000869e0       ?should_format@?$standard_base@DV?$string_output_adapter@D@__crt_stdio_output@@@__crt_stdio_output@@IEAA_NXZ 00000001800879e0 f i libucrtd:output.obj
 0001:000869f0       ?should_format@?$standard_base@_WV?$stream_output_adapter@_W@__crt_stdio_output@@@__crt_stdio_output@@IEAA_NXZ 00000001800879f0 f i libucrtd:output.obj
 0001:00086a00       ?should_format@?$standard_base@_WV?$string_output_adapter@_W@__crt_stdio_output@@@__crt_stdio_output@@IEAA_NXZ 0000000180087a00 f i libucrtd:output.obj
 0001:00086a10       ?should_skip_normal_state_processing@?$positional_parameter_base@DV?$stream_output_adapter@D@__crt_stdio_output@@@__crt_stdio_output@@IEAA_NXZ 0000000180087a10 f i libucrtd:output.obj
 0001:00086a70       ?should_skip_normal_state_processing@?$positional_parameter_base@DV?$string_output_adapter@D@__crt_stdio_output@@@__crt_stdio_output@@IEAA_NXZ 0000000180087a70 f i libucrtd:output.obj
 0001:00086ad0       ?should_skip_normal_state_processing@?$positional_parameter_base@_WV?$stream_output_adapter@_W@__crt_stdio_output@@@__crt_stdio_output@@IEAA_NXZ 0000000180087ad0 f i libucrtd:output.obj
 0001:00086b30       ?should_skip_normal_state_processing@?$positional_parameter_base@_WV?$string_output_adapter@_W@__crt_stdio_output@@@__crt_stdio_output@@IEAA_NXZ 0000000180087b30 f i libucrtd:output.obj
 0001:00086b90       ?should_skip_normal_state_processing@?$standard_base@DV?$stream_output_adapter@D@__crt_stdio_output@@@__crt_stdio_output@@IEAA_NXZ 0000000180087b90 f i libucrtd:output.obj
 0001:00086ba0       ?should_skip_normal_state_processing@?$standard_base@DV?$string_output_adapter@D@__crt_stdio_output@@@__crt_stdio_output@@IEAA_NXZ 0000000180087ba0 f i libucrtd:output.obj
 0001:00086bb0       ?should_skip_normal_state_processing@?$standard_base@_WV?$stream_output_adapter@_W@__crt_stdio_output@@@__crt_stdio_output@@IEAA_NXZ 0000000180087bb0 f i libucrtd:output.obj
 0001:00086bc0       ?should_skip_normal_state_processing@?$standard_base@_WV?$string_output_adapter@_W@__crt_stdio_output@@@__crt_stdio_output@@IEAA_NXZ 0000000180087bc0 f i libucrtd:output.obj
 0001:00086bd0       ?should_skip_type_state_output@?$positional_parameter_base@DV?$stream_output_adapter@D@__crt_stdio_output@@@__crt_stdio_output@@IEBA_NXZ 0000000180087bd0 f i libucrtd:output.obj
 0001:00086c20       ?should_skip_type_state_output@?$positional_parameter_base@DV?$string_output_adapter@D@__crt_stdio_output@@@__crt_stdio_output@@IEBA_NXZ 0000000180087c20 f i libucrtd:output.obj
 0001:00086c70       ?should_skip_type_state_output@?$positional_parameter_base@_WV?$stream_output_adapter@_W@__crt_stdio_output@@@__crt_stdio_output@@IEBA_NXZ 0000000180087c70 f i libucrtd:output.obj
 0001:00086cc0       ?should_skip_type_state_output@?$positional_parameter_base@_WV?$string_output_adapter@_W@__crt_stdio_output@@@__crt_stdio_output@@IEBA_NXZ 0000000180087cc0 f i libucrtd:output.obj
 0001:00086d10       ?should_skip_type_state_output@?$standard_base@DV?$stream_output_adapter@D@__crt_stdio_output@@@__crt_stdio_output@@IEBA_NXZ 0000000180087d10 f i libucrtd:output.obj
 0001:00086d20       ?should_skip_type_state_output@?$standard_base@DV?$string_output_adapter@D@__crt_stdio_output@@@__crt_stdio_output@@IEBA_NXZ 0000000180087d20 f i libucrtd:output.obj
 0001:00086d30       ?should_skip_type_state_output@?$standard_base@_WV?$stream_output_adapter@_W@__crt_stdio_output@@@__crt_stdio_output@@IEBA_NXZ 0000000180087d30 f i libucrtd:output.obj
 0001:00086d40       ?should_skip_type_state_output@?$standard_base@_WV?$string_output_adapter@_W@__crt_stdio_output@@@__crt_stdio_output@@IEBA_NXZ 0000000180087d40 f i libucrtd:output.obj
 0001:00086d50       ?state_case_dot@?$output_processor@DV?$stream_output_adapter@D@__crt_stdio_output@@V?$format_validation_base@DV?$stream_output_adapter@D@__crt_stdio_output@@@2@@__crt_stdio_output@@AEAA_NXZ 0000000180087d50 f i libucrtd:output.obj
 0001:00086d70       ?state_case_dot@?$output_processor@DV?$stream_output_adapter@D@__crt_stdio_output@@V?$positional_parameter_base@DV?$stream_output_adapter@D@__crt_stdio_output@@@2@@__crt_stdio_output@@AEAA_NXZ 0000000180087d70 f i libucrtd:output.obj
 0001:00086d90       ?state_case_dot@?$output_processor@DV?$stream_output_adapter@D@__crt_stdio_output@@V?$standard_base@DV?$stream_output_adapter@D@__crt_stdio_output@@@2@@__crt_stdio_output@@AEAA_NXZ 0000000180087d90 f i libucrtd:output.obj
 0001:00086db0       ?state_case_dot@?$output_processor@DV?$string_output_adapter@D@__crt_stdio_output@@V?$format_validation_base@DV?$string_output_adapter@D@__crt_stdio_output@@@2@@__crt_stdio_output@@AEAA_NXZ 0000000180087db0 f i libucrtd:output.obj
 0001:00086dd0       ?state_case_dot@?$output_processor@DV?$string_output_adapter@D@__crt_stdio_output@@V?$positional_parameter_base@DV?$string_output_adapter@D@__crt_stdio_output@@@2@@__crt_stdio_output@@AEAA_NXZ 0000000180087dd0 f i libucrtd:output.obj
 0001:00086df0       ?state_case_dot@?$output_processor@DV?$string_output_adapter@D@__crt_stdio_output@@V?$standard_base@DV?$string_output_adapter@D@__crt_stdio_output@@@2@@__crt_stdio_output@@AEAA_NXZ 0000000180087df0 f i libucrtd:output.obj
 0001:00086e10       ?state_case_dot@?$output_processor@_WV?$stream_output_adapter@_W@__crt_stdio_output@@V?$format_validation_base@_WV?$stream_output_adapter@_W@__crt_stdio_output@@@2@@__crt_stdio_output@@AEAA_NXZ 0000000180087e10 f i libucrtd:output.obj
 0001:00086e30       ?state_case_dot@?$output_processor@_WV?$stream_output_adapter@_W@__crt_stdio_output@@V?$positional_parameter_base@_WV?$stream_output_adapter@_W@__crt_stdio_output@@@2@@__crt_stdio_output@@AEAA_NXZ 0000000180087e30 f i libucrtd:output.obj
 0001:00086e50       ?state_case_dot@?$output_processor@_WV?$stream_output_adapter@_W@__crt_stdio_output@@V?$standard_base@_WV?$stream_output_adapter@_W@__crt_stdio_output@@@2@@__crt_stdio_output@@AEAA_NXZ 0000000180087e50 f i libucrtd:output.obj
 0001:00086e70       ?state_case_dot@?$output_processor@_WV?$string_output_adapter@_W@__crt_stdio_output@@V?$format_validation_base@_WV?$string_output_adapter@_W@__crt_stdio_output@@@2@@__crt_stdio_output@@AEAA_NXZ 0000000180087e70 f i libucrtd:output.obj
 0001:00086e90       ?state_case_dot@?$output_processor@_WV?$string_output_adapter@_W@__crt_stdio_output@@V?$positional_parameter_base@_WV?$string_output_adapter@_W@__crt_stdio_output@@@2@@__crt_stdio_output@@AEAA_NXZ 0000000180087e90 f i libucrtd:output.obj
 0001:00086eb0       ?state_case_dot@?$output_processor@_WV?$string_output_adapter@_W@__crt_stdio_output@@V?$standard_base@_WV?$string_output_adapter@_W@__crt_stdio_output@@@2@@__crt_stdio_output@@AEAA_NXZ 0000000180087eb0 f i libucrtd:output.obj
 0001:00086ed0       ?state_case_flag@?$output_processor@DV?$stream_output_adapter@D@__crt_stdio_output@@V?$format_validation_base@DV?$stream_output_adapter@D@__crt_stdio_output@@@2@@__crt_stdio_output@@AEAA_NXZ 0000000180087ed0 f i libucrtd:output.obj
 0001:00086f90       ?state_case_flag@?$output_processor@DV?$stream_output_adapter@D@__crt_stdio_output@@V?$positional_parameter_base@DV?$stream_output_adapter@D@__crt_stdio_output@@@2@@__crt_stdio_output@@AEAA_NXZ 0000000180087f90 f i libucrtd:output.obj
 0001:00087050       ?state_case_flag@?$output_processor@DV?$stream_output_adapter@D@__crt_stdio_output@@V?$standard_base@DV?$stream_output_adapter@D@__crt_stdio_output@@@2@@__crt_stdio_output@@AEAA_NXZ 0000000180088050 f i libucrtd:output.obj
 0001:00087110       ?state_case_flag@?$output_processor@DV?$string_output_adapter@D@__crt_stdio_output@@V?$format_validation_base@DV?$string_output_adapter@D@__crt_stdio_output@@@2@@__crt_stdio_output@@AEAA_NXZ 0000000180088110 f i libucrtd:output.obj
 0001:000871d0       ?state_case_flag@?$output_processor@DV?$string_output_adapter@D@__crt_stdio_output@@V?$positional_parameter_base@DV?$string_output_adapter@D@__crt_stdio_output@@@2@@__crt_stdio_output@@AEAA_NXZ 00000001800881d0 f i libucrtd:output.obj
 0001:00087290       ?state_case_flag@?$output_processor@DV?$string_output_adapter@D@__crt_stdio_output@@V?$standard_base@DV?$string_output_adapter@D@__crt_stdio_output@@@2@@__crt_stdio_output@@AEAA_NXZ 0000000180088290 f i libucrtd:output.obj
 0001:00087350       ?state_case_flag@?$output_processor@_WV?$stream_output_adapter@_W@__crt_stdio_output@@V?$format_validation_base@_WV?$stream_output_adapter@_W@__crt_stdio_output@@@2@@__crt_stdio_output@@AEAA_NXZ 0000000180088350 f i libucrtd:output.obj
 0001:00087410       ?state_case_flag@?$output_processor@_WV?$stream_output_adapter@_W@__crt_stdio_output@@V?$positional_parameter_base@_WV?$stream_output_adapter@_W@__crt_stdio_output@@@2@@__crt_stdio_output@@AEAA_NXZ 0000000180088410 f i libucrtd:output.obj
 0001:000874d0       ?state_case_flag@?$output_processor@_WV?$stream_output_adapter@_W@__crt_stdio_output@@V?$standard_base@_WV?$stream_output_adapter@_W@__crt_stdio_output@@@2@@__crt_stdio_output@@AEAA_NXZ 00000001800884d0 f i libucrtd:output.obj
 0001:00087590       ?state_case_flag@?$output_processor@_WV?$string_output_adapter@_W@__crt_stdio_output@@V?$format_validation_base@_WV?$string_output_adapter@_W@__crt_stdio_output@@@2@@__crt_stdio_output@@AEAA_NXZ 0000000180088590 f i libucrtd:output.obj
 0001:00087650       ?state_case_flag@?$output_processor@_WV?$string_output_adapter@_W@__crt_stdio_output@@V?$positional_parameter_base@_WV?$string_output_adapter@_W@__crt_stdio_output@@@2@@__crt_stdio_output@@AEAA_NXZ 0000000180088650 f i libucrtd:output.obj
 0001:00087710       ?state_case_flag@?$output_processor@_WV?$string_output_adapter@_W@__crt_stdio_output@@V?$standard_base@_WV?$string_output_adapter@_W@__crt_stdio_output@@@2@@__crt_stdio_output@@AEAA_NXZ 0000000180088710 f i libucrtd:output.obj
 0001:000877d0       ?state_case_normal@?$output_processor@DV?$stream_output_adapter@D@__crt_stdio_output@@V?$format_validation_base@DV?$stream_output_adapter@D@__crt_stdio_output@@@2@@__crt_stdio_output@@AEAA_NXZ 00000001800887d0 f i libucrtd:output.obj
 0001:000878e0       ?state_case_normal@?$output_processor@DV?$stream_output_adapter@D@__crt_stdio_output@@V?$positional_parameter_base@DV?$stream_output_adapter@D@__crt_stdio_output@@@2@@__crt_stdio_output@@AEAA_NXZ 00000001800888e0 f i libucrtd:output.obj
 0001:000879f0       ?state_case_normal@?$output_processor@DV?$stream_output_adapter@D@__crt_stdio_output@@V?$standard_base@DV?$stream_output_adapter@D@__crt_stdio_output@@@2@@__crt_stdio_output@@AEAA_NXZ 00000001800889f0 f i libucrtd:output.obj
 0001:00087b00       ?state_case_normal@?$output_processor@DV?$string_output_adapter@D@__crt_stdio_output@@V?$format_validation_base@DV?$string_output_adapter@D@__crt_stdio_output@@@2@@__crt_stdio_output@@AEAA_NXZ 0000000180088b00 f i libucrtd:output.obj
 0001:00087c10       ?state_case_normal@?$output_processor@DV?$string_output_adapter@D@__crt_stdio_output@@V?$positional_parameter_base@DV?$string_output_adapter@D@__crt_stdio_output@@@2@@__crt_stdio_output@@AEAA_NXZ 0000000180088c10 f i libucrtd:output.obj
 0001:00087d20       ?state_case_normal@?$output_processor@DV?$string_output_adapter@D@__crt_stdio_output@@V?$standard_base@DV?$string_output_adapter@D@__crt_stdio_output@@@2@@__crt_stdio_output@@AEAA_NXZ 0000000180088d20 f i libucrtd:output.obj
 0001:00087e30       ?state_case_normal@?$output_processor@_WV?$stream_output_adapter@_W@__crt_stdio_output@@V?$format_validation_base@_WV?$stream_output_adapter@_W@__crt_stdio_output@@@2@@__crt_stdio_output@@AEAA_NXZ 0000000180088e30 f i libucrtd:output.obj
 0001:00087f40       ?state_case_normal@?$output_processor@_WV?$stream_output_adapter@_W@__crt_stdio_output@@V?$positional_parameter_base@_WV?$stream_output_adapter@_W@__crt_stdio_output@@@2@@__crt_stdio_output@@AEAA_NXZ 0000000180088f40 f i libucrtd:output.obj
 0001:00088050       ?state_case_normal@?$output_processor@_WV?$stream_output_adapter@_W@__crt_stdio_output@@V?$standard_base@_WV?$stream_output_adapter@_W@__crt_stdio_output@@@2@@__crt_stdio_output@@AEAA_NXZ 0000000180089050 f i libucrtd:output.obj
 0001:00088160       ?state_case_normal@?$output_processor@_WV?$string_output_adapter@_W@__crt_stdio_output@@V?$format_validation_base@_WV?$string_output_adapter@_W@__crt_stdio_output@@@2@@__crt_stdio_output@@AEAA_NXZ 0000000180089160 f i libucrtd:output.obj
 0001:00088270       ?state_case_normal@?$output_processor@_WV?$string_output_adapter@_W@__crt_stdio_output@@V?$positional_parameter_base@_WV?$string_output_adapter@_W@__crt_stdio_output@@@2@@__crt_stdio_output@@AEAA_NXZ 0000000180089270 f i libucrtd:output.obj
 0001:00088380       ?state_case_normal@?$output_processor@_WV?$string_output_adapter@_W@__crt_stdio_output@@V?$standard_base@_WV?$string_output_adapter@_W@__crt_stdio_output@@@2@@__crt_stdio_output@@AEAA_NXZ 0000000180089380 f i libucrtd:output.obj
 0001:00088490       ?state_case_normal_common@?$output_processor@DV?$stream_output_adapter@D@__crt_stdio_output@@V?$format_validation_base@DV?$stream_output_adapter@D@__crt_stdio_output@@@2@@__crt_stdio_output@@AEAA_NXZ 0000000180089490 f i libucrtd:output.obj
 0001:000884f0       ?state_case_normal_common@?$output_processor@DV?$stream_output_adapter@D@__crt_stdio_output@@V?$positional_parameter_base@DV?$stream_output_adapter@D@__crt_stdio_output@@@2@@__crt_stdio_output@@AEAA_NXZ 00000001800894f0 f i libucrtd:output.obj
 0001:00088550       ?state_case_normal_common@?$output_processor@DV?$stream_output_adapter@D@__crt_stdio_output@@V?$standard_base@DV?$stream_output_adapter@D@__crt_stdio_output@@@2@@__crt_stdio_output@@AEAA_NXZ 0000000180089550 f i libucrtd:output.obj
 0001:000885b0       ?state_case_normal_common@?$output_processor@DV?$string_output_adapter@D@__crt_stdio_output@@V?$format_validation_base@DV?$string_output_adapter@D@__crt_stdio_output@@@2@@__crt_stdio_output@@AEAA_NXZ 00000001800895b0 f i libucrtd:output.obj
 0001:00088610       ?state_case_normal_common@?$output_processor@DV?$string_output_adapter@D@__crt_stdio_output@@V?$positional_parameter_base@DV?$string_output_adapter@D@__crt_stdio_output@@@2@@__crt_stdio_output@@AEAA_NXZ 0000000180089610 f i libucrtd:output.obj
 0001:00088670       ?state_case_normal_common@?$output_processor@DV?$string_output_adapter@D@__crt_stdio_output@@V?$standard_base@DV?$string_output_adapter@D@__crt_stdio_output@@@2@@__crt_stdio_output@@AEAA_NXZ 0000000180089670 f i libucrtd:output.obj
 0001:000886d0       ?state_case_normal_common@?$output_processor@_WV?$stream_output_adapter@_W@__crt_stdio_output@@V?$format_validation_base@_WV?$stream_output_adapter@_W@__crt_stdio_output@@@2@@__crt_stdio_output@@AEAA_NXZ 00000001800896d0 f i libucrtd:output.obj
 0001:00088730       ?state_case_normal_common@?$output_processor@_WV?$stream_output_adapter@_W@__crt_stdio_output@@V?$positional_parameter_base@_WV?$stream_output_adapter@_W@__crt_stdio_output@@@2@@__crt_stdio_output@@AEAA_NXZ 0000000180089730 f i libucrtd:output.obj
 0001:00088790       ?state_case_normal_common@?$output_processor@_WV?$stream_output_adapter@_W@__crt_stdio_output@@V?$standard_base@_WV?$stream_output_adapter@_W@__crt_stdio_output@@@2@@__crt_stdio_output@@AEAA_NXZ 0000000180089790 f i libucrtd:output.obj
 0001:000887f0       ?state_case_normal_common@?$output_processor@_WV?$string_output_adapter@_W@__crt_stdio_output@@V?$format_validation_base@_WV?$string_output_adapter@_W@__crt_stdio_output@@@2@@__crt_stdio_output@@AEAA_NXZ 00000001800897f0 f i libucrtd:output.obj
 0001:00088850       ?state_case_normal_common@?$output_processor@_WV?$string_output_adapter@_W@__crt_stdio_output@@V?$positional_parameter_base@_WV?$string_output_adapter@_W@__crt_stdio_output@@@2@@__crt_stdio_output@@AEAA_NXZ 0000000180089850 f i libucrtd:output.obj
 0001:000888b0       ?state_case_normal_common@?$output_processor@_WV?$string_output_adapter@_W@__crt_stdio_output@@V?$standard_base@_WV?$string_output_adapter@_W@__crt_stdio_output@@@2@@__crt_stdio_output@@AEAA_NXZ 00000001800898b0 f i libucrtd:output.obj
 0001:00088910       ?state_case_normal_tchar@?$output_processor@DV?$stream_output_adapter@D@__crt_stdio_output@@V?$format_validation_base@DV?$stream_output_adapter@D@__crt_stdio_output@@@2@@__crt_stdio_output@@AEAA_ND@Z 0000000180089910 f i libucrtd:output.obj
 0001:00088aa0       ?state_case_normal_tchar@?$output_processor@DV?$stream_output_adapter@D@__crt_stdio_output@@V?$positional_parameter_base@DV?$stream_output_adapter@D@__crt_stdio_output@@@2@@__crt_stdio_output@@AEAA_ND@Z 0000000180089aa0 f i libucrtd:output.obj
 0001:00088c30       ?state_case_normal_tchar@?$output_processor@DV?$stream_output_adapter@D@__crt_stdio_output@@V?$standard_base@DV?$stream_output_adapter@D@__crt_stdio_output@@@2@@__crt_stdio_output@@AEAA_ND@Z 0000000180089c30 f i libucrtd:output.obj
 0001:00088dc0       ?state_case_normal_tchar@?$output_processor@DV?$string_output_adapter@D@__crt_stdio_output@@V?$format_validation_base@DV?$string_output_adapter@D@__crt_stdio_output@@@2@@__crt_stdio_output@@AEAA_ND@Z 0000000180089dc0 f i libucrtd:output.obj
 0001:00088f50       ?state_case_normal_tchar@?$output_processor@DV?$string_output_adapter@D@__crt_stdio_output@@V?$positional_parameter_base@DV?$string_output_adapter@D@__crt_stdio_output@@@2@@__crt_stdio_output@@AEAA_ND@Z 0000000180089f50 f i libucrtd:output.obj
 0001:000890e0       ?state_case_normal_tchar@?$output_processor@DV?$string_output_adapter@D@__crt_stdio_output@@V?$standard_base@DV?$string_output_adapter@D@__crt_stdio_output@@@2@@__crt_stdio_output@@AEAA_ND@Z 000000018008a0e0 f i libucrtd:output.obj
 0001:00089270       ?state_case_normal_tchar@?$output_processor@_WV?$stream_output_adapter@_W@__crt_stdio_output@@V?$format_validation_base@_WV?$stream_output_adapter@_W@__crt_stdio_output@@@2@@__crt_stdio_output@@AEAA_N_W@Z 000000018008a270 f i libucrtd:output.obj
 0001:00089290       ?state_case_normal_tchar@?$output_processor@_WV?$stream_output_adapter@_W@__crt_stdio_output@@V?$positional_parameter_base@_WV?$stream_output_adapter@_W@__crt_stdio_output@@@2@@__crt_stdio_output@@AEAA_N_W@Z 000000018008a290 f i libucrtd:output.obj
 0001:000892b0       ?state_case_normal_tchar@?$output_processor@_WV?$stream_output_adapter@_W@__crt_stdio_output@@V?$standard_base@_WV?$stream_output_adapter@_W@__crt_stdio_output@@@2@@__crt_stdio_output@@AEAA_N_W@Z 000000018008a2b0 f i libucrtd:output.obj
 0001:000892d0       ?state_case_normal_tchar@?$output_processor@_WV?$string_output_adapter@_W@__crt_stdio_output@@V?$format_validation_base@_WV?$string_output_adapter@_W@__crt_stdio_output@@@2@@__crt_stdio_output@@AEAA_N_W@Z 000000018008a2d0 f i libucrtd:output.obj
 0001:000892f0       ?state_case_normal_tchar@?$output_processor@_WV?$string_output_adapter@_W@__crt_stdio_output@@V?$positional_parameter_base@_WV?$string_output_adapter@_W@__crt_stdio_output@@@2@@__crt_stdio_output@@AEAA_N_W@Z 000000018008a2f0 f i libucrtd:output.obj
 0001:00089310       ?state_case_normal_tchar@?$output_processor@_WV?$string_output_adapter@_W@__crt_stdio_output@@V?$standard_base@_WV?$string_output_adapter@_W@__crt_stdio_output@@@2@@__crt_stdio_output@@AEAA_N_W@Z 000000018008a310 f i libucrtd:output.obj
 0001:00089330       ?state_case_percent@?$output_processor@DV?$stream_output_adapter@D@__crt_stdio_output@@V?$format_validation_base@DV?$stream_output_adapter@D@__crt_stdio_output@@@2@@__crt_stdio_output@@AEAA_NXZ 000000018008a330 f i libucrtd:output.obj
 0001:00089390       ?state_case_percent@?$output_processor@DV?$stream_output_adapter@D@__crt_stdio_output@@V?$positional_parameter_base@DV?$stream_output_adapter@D@__crt_stdio_output@@@2@@__crt_stdio_output@@AEAA_NXZ 000000018008a390 f i libucrtd:output.obj
 0001:000893f0       ?state_case_percent@?$output_processor@DV?$stream_output_adapter@D@__crt_stdio_output@@V?$standard_base@DV?$stream_output_adapter@D@__crt_stdio_output@@@2@@__crt_stdio_output@@AEAA_NXZ 000000018008a3f0 f i libucrtd:output.obj
 0001:00089450       ?state_case_percent@?$output_processor@DV?$string_output_adapter@D@__crt_stdio_output@@V?$format_validation_base@DV?$string_output_adapter@D@__crt_stdio_output@@@2@@__crt_stdio_output@@AEAA_NXZ 000000018008a450 f i libucrtd:output.obj
 0001:000894b0       ?state_case_percent@?$output_processor@DV?$string_output_adapter@D@__crt_stdio_output@@V?$positional_parameter_base@DV?$string_output_adapter@D@__crt_stdio_output@@@2@@__crt_stdio_output@@AEAA_NXZ 000000018008a4b0 f i libucrtd:output.obj
 0001:00089510       ?state_case_percent@?$output_processor@DV?$string_output_adapter@D@__crt_stdio_output@@V?$standard_base@DV?$string_output_adapter@D@__crt_stdio_output@@@2@@__crt_stdio_output@@AEAA_NXZ 000000018008a510 f i libucrtd:output.obj
 0001:00089570       ?state_case_percent@?$output_processor@_WV?$stream_output_adapter@_W@__crt_stdio_output@@V?$format_validation_base@_WV?$stream_output_adapter@_W@__crt_stdio_output@@@2@@__crt_stdio_output@@AEAA_NXZ 000000018008a570 f i libucrtd:output.obj
 0001:000895d0       ?state_case_percent@?$output_processor@_WV?$stream_output_adapter@_W@__crt_stdio_output@@V?$positional_parameter_base@_WV?$stream_output_adapter@_W@__crt_stdio_output@@@2@@__crt_stdio_output@@AEAA_NXZ 000000018008a5d0 f i libucrtd:output.obj
 0001:00089630       ?state_case_percent@?$output_processor@_WV?$stream_output_adapter@_W@__crt_stdio_output@@V?$standard_base@_WV?$stream_output_adapter@_W@__crt_stdio_output@@@2@@__crt_stdio_output@@AEAA_NXZ 000000018008a630 f i libucrtd:output.obj
 0001:00089690       ?state_case_percent@?$output_processor@_WV?$string_output_adapter@_W@__crt_stdio_output@@V?$format_validation_base@_WV?$string_output_adapter@_W@__crt_stdio_output@@@2@@__crt_stdio_output@@AEAA_NXZ 000000018008a690 f i libucrtd:output.obj
 0001:000896f0       ?state_case_percent@?$output_processor@_WV?$string_output_adapter@_W@__crt_stdio_output@@V?$positional_parameter_base@_WV?$string_output_adapter@_W@__crt_stdio_output@@@2@@__crt_stdio_output@@AEAA_NXZ 000000018008a6f0 f i libucrtd:output.obj
 0001:00089750       ?state_case_percent@?$output_processor@_WV?$string_output_adapter@_W@__crt_stdio_output@@V?$standard_base@_WV?$string_output_adapter@_W@__crt_stdio_output@@@2@@__crt_stdio_output@@AEAA_NXZ 000000018008a750 f i libucrtd:output.obj
 0001:000897b0       ?state_case_precision@?$output_processor@DV?$stream_output_adapter@D@__crt_stdio_output@@V?$format_validation_base@DV?$stream_output_adapter@D@__crt_stdio_output@@@2@@__crt_stdio_output@@AEAA_NXZ 000000018008a7b0 f i libucrtd:output.obj
 0001:00089850       ?state_case_precision@?$output_processor@DV?$stream_output_adapter@D@__crt_stdio_output@@V?$positional_parameter_base@DV?$stream_output_adapter@D@__crt_stdio_output@@@2@@__crt_stdio_output@@AEAA_NXZ 000000018008a850 f i libucrtd:output.obj
 0001:000898f0       ?state_case_precision@?$output_processor@DV?$stream_output_adapter@D@__crt_stdio_output@@V?$standard_base@DV?$stream_output_adapter@D@__crt_stdio_output@@@2@@__crt_stdio_output@@AEAA_NXZ 000000018008a8f0 f i libucrtd:output.obj
 0001:00089990       ?state_case_precision@?$output_processor@DV?$string_output_adapter@D@__crt_stdio_output@@V?$format_validation_base@DV?$string_output_adapter@D@__crt_stdio_output@@@2@@__crt_stdio_output@@AEAA_NXZ 000000018008a990 f i libucrtd:output.obj
 0001:00089a30       ?state_case_precision@?$output_processor@DV?$string_output_adapter@D@__crt_stdio_output@@V?$positional_parameter_base@DV?$string_output_adapter@D@__crt_stdio_output@@@2@@__crt_stdio_output@@AEAA_NXZ 000000018008aa30 f i libucrtd:output.obj
 0001:00089ad0       ?state_case_precision@?$output_processor@DV?$string_output_adapter@D@__crt_stdio_output@@V?$standard_base@DV?$string_output_adapter@D@__crt_stdio_output@@@2@@__crt_stdio_output@@AEAA_NXZ 000000018008aad0 f i libucrtd:output.obj
 0001:00089b70       ?state_case_precision@?$output_processor@_WV?$stream_output_adapter@_W@__crt_stdio_output@@V?$format_validation_base@_WV?$stream_output_adapter@_W@__crt_stdio_output@@@2@@__crt_stdio_output@@AEAA_NXZ 000000018008ab70 f i libucrtd:output.obj
 0001:00089c10       ?state_case_precision@?$output_processor@_WV?$stream_output_adapter@_W@__crt_stdio_output@@V?$positional_parameter_base@_WV?$stream_output_adapter@_W@__crt_stdio_output@@@2@@__crt_stdio_output@@AEAA_NXZ 000000018008ac10 f i libucrtd:output.obj
 0001:00089cb0       ?state_case_precision@?$output_processor@_WV?$stream_output_adapter@_W@__crt_stdio_output@@V?$standard_base@_WV?$stream_output_adapter@_W@__crt_stdio_output@@@2@@__crt_stdio_output@@AEAA_NXZ 000000018008acb0 f i libucrtd:output.obj
 0001:00089d50       ?state_case_precision@?$output_processor@_WV?$string_output_adapter@_W@__crt_stdio_output@@V?$format_validation_base@_WV?$string_output_adapter@_W@__crt_stdio_output@@@2@@__crt_stdio_output@@AEAA_NXZ 000000018008ad50 f i libucrtd:output.obj
 0001:00089df0       ?state_case_precision@?$output_processor@_WV?$string_output_adapter@_W@__crt_stdio_output@@V?$positional_parameter_base@_WV?$string_output_adapter@_W@__crt_stdio_output@@@2@@__crt_stdio_output@@AEAA_NXZ 000000018008adf0 f i libucrtd:output.obj
 0001:00089e90       ?state_case_precision@?$output_processor@_WV?$string_output_adapter@_W@__crt_stdio_output@@V?$standard_base@_WV?$string_output_adapter@_W@__crt_stdio_output@@@2@@__crt_stdio_output@@AEAA_NXZ 000000018008ae90 f i libucrtd:output.obj
 0001:00089f30       ?state_case_size@?$output_processor@DV?$stream_output_adapter@D@__crt_stdio_output@@V?$format_validation_base@DV?$stream_output_adapter@D@__crt_stdio_output@@@2@@__crt_stdio_output@@AEAA_NXZ 000000018008af30 f i libucrtd:output.obj
 0001:0008a4c0       ?state_case_size@?$output_processor@DV?$stream_output_adapter@D@__crt_stdio_output@@V?$positional_parameter_base@DV?$stream_output_adapter@D@__crt_stdio_output@@@2@@__crt_stdio_output@@AEAA_NXZ 000000018008b4c0 f i libucrtd:output.obj
 0001:0008aa50       ?state_case_size@?$output_processor@DV?$stream_output_adapter@D@__crt_stdio_output@@V?$standard_base@DV?$stream_output_adapter@D@__crt_stdio_output@@@2@@__crt_stdio_output@@AEAA_NXZ 000000018008ba50 f i libucrtd:output.obj
 0001:0008afe0       ?state_case_size@?$output_processor@DV?$string_output_adapter@D@__crt_stdio_output@@V?$format_validation_base@DV?$string_output_adapter@D@__crt_stdio_output@@@2@@__crt_stdio_output@@AEAA_NXZ 000000018008bfe0 f i libucrtd:output.obj
 0001:0008b570       ?state_case_size@?$output_processor@DV?$string_output_adapter@D@__crt_stdio_output@@V?$positional_parameter_base@DV?$string_output_adapter@D@__crt_stdio_output@@@2@@__crt_stdio_output@@AEAA_NXZ 000000018008c570 f i libucrtd:output.obj
 0001:0008bb00       ?state_case_size@?$output_processor@DV?$string_output_adapter@D@__crt_stdio_output@@V?$standard_base@DV?$string_output_adapter@D@__crt_stdio_output@@@2@@__crt_stdio_output@@AEAA_NXZ 000000018008cb00 f i libucrtd:output.obj
 0001:0008c090       ?state_case_size@?$output_processor@_WV?$stream_output_adapter@_W@__crt_stdio_output@@V?$format_validation_base@_WV?$stream_output_adapter@_W@__crt_stdio_output@@@2@@__crt_stdio_output@@AEAA_NXZ 000000018008d090 f i libucrtd:output.obj
 0001:0008c620       ?state_case_size@?$output_processor@_WV?$stream_output_adapter@_W@__crt_stdio_output@@V?$positional_parameter_base@_WV?$stream_output_adapter@_W@__crt_stdio_output@@@2@@__crt_stdio_output@@AEAA_NXZ 000000018008d620 f i libucrtd:output.obj
 0001:0008cbb0       ?state_case_size@?$output_processor@_WV?$stream_output_adapter@_W@__crt_stdio_output@@V?$standard_base@_WV?$stream_output_adapter@_W@__crt_stdio_output@@@2@@__crt_stdio_output@@AEAA_NXZ 000000018008dbb0 f i libucrtd:output.obj
 0001:0008d140       ?state_case_size@?$output_processor@_WV?$string_output_adapter@_W@__crt_stdio_output@@V?$format_validation_base@_WV?$string_output_adapter@_W@__crt_stdio_output@@@2@@__crt_stdio_output@@AEAA_NXZ 000000018008e140 f i libucrtd:output.obj
 0001:0008d6d0       ?state_case_size@?$output_processor@_WV?$string_output_adapter@_W@__crt_stdio_output@@V?$positional_parameter_base@_WV?$string_output_adapter@_W@__crt_stdio_output@@@2@@__crt_stdio_output@@AEAA_NXZ 000000018008e6d0 f i libucrtd:output.obj
 0001:0008dc60       ?state_case_size@?$output_processor@_WV?$string_output_adapter@_W@__crt_stdio_output@@V?$standard_base@_WV?$string_output_adapter@_W@__crt_stdio_output@@@2@@__crt_stdio_output@@AEAA_NXZ 000000018008ec60 f i libucrtd:output.obj
 0001:0008e1f0       ?state_case_type@?$output_processor@DV?$stream_output_adapter@D@__crt_stdio_output@@V?$format_validation_base@DV?$stream_output_adapter@D@__crt_stdio_output@@@2@@__crt_stdio_output@@AEAA_NXZ 000000018008f1f0 f i libucrtd:output.obj
 0001:0008e7a0       ?state_case_type@?$output_processor@DV?$stream_output_adapter@D@__crt_stdio_output@@V?$positional_parameter_base@DV?$stream_output_adapter@D@__crt_stdio_output@@@2@@__crt_stdio_output@@AEAA_NXZ 000000018008f7a0 f i libucrtd:output.obj
 0001:0008ed50       ?state_case_type@?$output_processor@DV?$stream_output_adapter@D@__crt_stdio_output@@V?$standard_base@DV?$stream_output_adapter@D@__crt_stdio_output@@@2@@__crt_stdio_output@@AEAA_NXZ 000000018008fd50 f i libucrtd:output.obj
 0001:0008f300       ?state_case_type@?$output_processor@DV?$string_output_adapter@D@__crt_stdio_output@@V?$format_validation_base@DV?$string_output_adapter@D@__crt_stdio_output@@@2@@__crt_stdio_output@@AEAA_NXZ 0000000180090300 f i libucrtd:output.obj
 0001:0008f8b0       ?state_case_type@?$output_processor@DV?$string_output_adapter@D@__crt_stdio_output@@V?$positional_parameter_base@DV?$string_output_adapter@D@__crt_stdio_output@@@2@@__crt_stdio_output@@AEAA_NXZ 00000001800908b0 f i libucrtd:output.obj
 0001:0008fe60       ?state_case_type@?$output_processor@DV?$string_output_adapter@D@__crt_stdio_output@@V?$standard_base@DV?$string_output_adapter@D@__crt_stdio_output@@@2@@__crt_stdio_output@@AEAA_NXZ 0000000180090e60 f i libucrtd:output.obj
 0001:00090410       ?state_case_type@?$output_processor@_WV?$stream_output_adapter@_W@__crt_stdio_output@@V?$format_validation_base@_WV?$stream_output_adapter@_W@__crt_stdio_output@@@2@@__crt_stdio_output@@AEAA_NXZ 0000000180091410 f i libucrtd:output.obj
 0001:00090a10       ?state_case_type@?$output_processor@_WV?$stream_output_adapter@_W@__crt_stdio_output@@V?$positional_parameter_base@_WV?$stream_output_adapter@_W@__crt_stdio_output@@@2@@__crt_stdio_output@@AEAA_NXZ 0000000180091a10 f i libucrtd:output.obj
 0001:00091010       ?state_case_type@?$output_processor@_WV?$stream_output_adapter@_W@__crt_stdio_output@@V?$standard_base@_WV?$stream_output_adapter@_W@__crt_stdio_output@@@2@@__crt_stdio_output@@AEAA_NXZ 0000000180092010 f i libucrtd:output.obj
 0001:00091610       ?state_case_type@?$output_processor@_WV?$string_output_adapter@_W@__crt_stdio_output@@V?$format_validation_base@_WV?$string_output_adapter@_W@__crt_stdio_output@@@2@@__crt_stdio_output@@AEAA_NXZ 0000000180092610 f i libucrtd:output.obj
 0001:00091c10       ?state_case_type@?$output_processor@_WV?$string_output_adapter@_W@__crt_stdio_output@@V?$positional_parameter_base@_WV?$string_output_adapter@_W@__crt_stdio_output@@@2@@__crt_stdio_output@@AEAA_NXZ 0000000180092c10 f i libucrtd:output.obj
 0001:00092210       ?state_case_type@?$output_processor@_WV?$string_output_adapter@_W@__crt_stdio_output@@V?$standard_base@_WV?$string_output_adapter@_W@__crt_stdio_output@@@2@@__crt_stdio_output@@AEAA_NXZ 0000000180093210 f i libucrtd:output.obj
 0001:00092810       ?state_case_width@?$output_processor@DV?$stream_output_adapter@D@__crt_stdio_output@@V?$format_validation_base@DV?$stream_output_adapter@D@__crt_stdio_output@@@2@@__crt_stdio_output@@AEAA_NXZ 0000000180093810 f i libucrtd:output.obj
 0001:000928c0       ?state_case_width@?$output_processor@DV?$stream_output_adapter@D@__crt_stdio_output@@V?$positional_parameter_base@DV?$stream_output_adapter@D@__crt_stdio_output@@@2@@__crt_stdio_output@@AEAA_NXZ 00000001800938c0 f i libucrtd:output.obj
 0001:00092970       ?state_case_width@?$output_processor@DV?$stream_output_adapter@D@__crt_stdio_output@@V?$standard_base@DV?$stream_output_adapter@D@__crt_stdio_output@@@2@@__crt_stdio_output@@AEAA_NXZ 0000000180093970 f i libucrtd:output.obj
 0001:00092a20       ?state_case_width@?$output_processor@DV?$string_output_adapter@D@__crt_stdio_output@@V?$format_validation_base@DV?$string_output_adapter@D@__crt_stdio_output@@@2@@__crt_stdio_output@@AEAA_NXZ 0000000180093a20 f i libucrtd:output.obj
 0001:00092ad0       ?state_case_width@?$output_processor@DV?$string_output_adapter@D@__crt_stdio_output@@V?$positional_parameter_base@DV?$string_output_adapter@D@__crt_stdio_output@@@2@@__crt_stdio_output@@AEAA_NXZ 0000000180093ad0 f i libucrtd:output.obj
 0001:00092b80       ?state_case_width@?$output_processor@DV?$string_output_adapter@D@__crt_stdio_output@@V?$standard_base@DV?$string_output_adapter@D@__crt_stdio_output@@@2@@__crt_stdio_output@@AEAA_NXZ 0000000180093b80 f i libucrtd:output.obj
 0001:00092c30       ?state_case_width@?$output_processor@_WV?$stream_output_adapter@_W@__crt_stdio_output@@V?$format_validation_base@_WV?$stream_output_adapter@_W@__crt_stdio_output@@@2@@__crt_stdio_output@@AEAA_NXZ 0000000180093c30 f i libucrtd:output.obj
 0001:00092ce0       ?state_case_width@?$output_processor@_WV?$stream_output_adapter@_W@__crt_stdio_output@@V?$positional_parameter_base@_WV?$stream_output_adapter@_W@__crt_stdio_output@@@2@@__crt_stdio_output@@AEAA_NXZ 0000000180093ce0 f i libucrtd:output.obj
 0001:00092d90       ?state_case_width@?$output_processor@_WV?$stream_output_adapter@_W@__crt_stdio_output@@V?$standard_base@_WV?$stream_output_adapter@_W@__crt_stdio_output@@@2@@__crt_stdio_output@@AEAA_NXZ 0000000180093d90 f i libucrtd:output.obj
 0001:00092e40       ?state_case_width@?$output_processor@_WV?$string_output_adapter@_W@__crt_stdio_output@@V?$format_validation_base@_WV?$string_output_adapter@_W@__crt_stdio_output@@@2@@__crt_stdio_output@@AEAA_NXZ 0000000180093e40 f i libucrtd:output.obj
 0001:00092ef0       ?state_case_width@?$output_processor@_WV?$string_output_adapter@_W@__crt_stdio_output@@V?$positional_parameter_base@_WV?$string_output_adapter@_W@__crt_stdio_output@@@2@@__crt_stdio_output@@AEAA_NXZ 0000000180093ef0 f i libucrtd:output.obj
 0001:00092fa0       ?state_case_width@?$output_processor@_WV?$string_output_adapter@_W@__crt_stdio_output@@V?$standard_base@_WV?$string_output_adapter@_W@__crt_stdio_output@@@2@@__crt_stdio_output@@AEAA_NXZ 0000000180093fa0 f i libucrtd:output.obj
 0001:00093050       ?state_count@?$format_validation_base@DV?$stream_output_adapter@D@__crt_stdio_output@@@__crt_stdio_output@@KAIXZ 0000000180094050 f i libucrtd:output.obj
 0001:00093060       ?state_count@?$format_validation_base@DV?$string_output_adapter@D@__crt_stdio_output@@@__crt_stdio_output@@KAIXZ 0000000180094060 f i libucrtd:output.obj
 0001:00093070       ?state_count@?$format_validation_base@_WV?$stream_output_adapter@_W@__crt_stdio_output@@@__crt_stdio_output@@KAIXZ 0000000180094070 f i libucrtd:output.obj
 0001:00093080       ?state_count@?$format_validation_base@_WV?$string_output_adapter@_W@__crt_stdio_output@@@__crt_stdio_output@@KAIXZ 0000000180094080 f i libucrtd:output.obj
 0001:00093090       ?state_count@?$standard_base@DV?$stream_output_adapter@D@__crt_stdio_output@@@__crt_stdio_output@@KAIXZ 0000000180094090 f i libucrtd:output.obj
 0001:000930a0       ?state_count@?$standard_base@DV?$string_output_adapter@D@__crt_stdio_output@@@__crt_stdio_output@@KAIXZ 00000001800940a0 f i libucrtd:output.obj
 0001:000930b0       ?state_count@?$standard_base@_WV?$stream_output_adapter@_W@__crt_stdio_output@@@__crt_stdio_output@@KAIXZ 00000001800940b0 f i libucrtd:output.obj
 0001:000930c0       ?state_count@?$standard_base@_WV?$string_output_adapter@_W@__crt_stdio_output@@@__crt_stdio_output@@KAIXZ 00000001800940c0 f i libucrtd:output.obj
 0001:000930d0       ?state_transition_table@?$format_validation_base@DV?$stream_output_adapter@D@__crt_stdio_output@@@__crt_stdio_output@@KAPEBEXZ 00000001800940d0 f i libucrtd:output.obj
 0001:000930e0       ?state_transition_table@?$format_validation_base@DV?$string_output_adapter@D@__crt_stdio_output@@@__crt_stdio_output@@KAPEBEXZ 00000001800940e0 f i libucrtd:output.obj
 0001:000930f0       ?state_transition_table@?$format_validation_base@_WV?$stream_output_adapter@_W@__crt_stdio_output@@@__crt_stdio_output@@KAPEBEXZ 00000001800940f0 f i libucrtd:output.obj
 0001:00093100       ?state_transition_table@?$format_validation_base@_WV?$string_output_adapter@_W@__crt_stdio_output@@@__crt_stdio_output@@KAPEBEXZ 0000000180094100 f i libucrtd:output.obj
 0001:00093110       ?state_transition_table@?$standard_base@DV?$stream_output_adapter@D@__crt_stdio_output@@@__crt_stdio_output@@KAPEBEXZ 0000000180094110 f i libucrtd:output.obj
 0001:00093120       ?state_transition_table@?$standard_base@DV?$string_output_adapter@D@__crt_stdio_output@@@__crt_stdio_output@@KAPEBEXZ 0000000180094120 f i libucrtd:output.obj
 0001:00093130       ?state_transition_table@?$standard_base@_WV?$stream_output_adapter@_W@__crt_stdio_output@@@__crt_stdio_output@@KAPEBEXZ 0000000180094130 f i libucrtd:output.obj
 0001:00093140       ?state_transition_table@?$standard_base@_WV?$string_output_adapter@_W@__crt_stdio_output@@@__crt_stdio_output@@KAPEBEXZ 0000000180094140 f i libucrtd:output.obj
 0001:00093150       ?to_integer_size@__crt_stdio_output@@YA_KW4length_modifier@1@@Z 0000000180094150 f i libucrtd:output.obj
 0001:00093230       ?type_case_X@?$output_processor@DV?$stream_output_adapter@D@__crt_stdio_output@@V?$format_validation_base@DV?$stream_output_adapter@D@__crt_stdio_output@@@2@@__crt_stdio_output@@AEAA_NXZ 0000000180094230 f i libucrtd:output.obj
 0001:00093260       ?type_case_X@?$output_processor@DV?$stream_output_adapter@D@__crt_stdio_output@@V?$positional_parameter_base@DV?$stream_output_adapter@D@__crt_stdio_output@@@2@@__crt_stdio_output@@AEAA_NXZ 0000000180094260 f i libucrtd:output.obj
 0001:00093290       ?type_case_X@?$output_processor@DV?$stream_output_adapter@D@__crt_stdio_output@@V?$standard_base@DV?$stream_output_adapter@D@__crt_stdio_output@@@2@@__crt_stdio_output@@AEAA_NXZ 0000000180094290 f i libucrtd:output.obj
 0001:000932c0       ?type_case_X@?$output_processor@DV?$string_output_adapter@D@__crt_stdio_output@@V?$format_validation_base@DV?$string_output_adapter@D@__crt_stdio_output@@@2@@__crt_stdio_output@@AEAA_NXZ 00000001800942c0 f i libucrtd:output.obj
 0001:000932f0       ?type_case_X@?$output_processor@DV?$string_output_adapter@D@__crt_stdio_output@@V?$positional_parameter_base@DV?$string_output_adapter@D@__crt_stdio_output@@@2@@__crt_stdio_output@@AEAA_NXZ 00000001800942f0 f i libucrtd:output.obj
 0001:00093320       ?type_case_X@?$output_processor@DV?$string_output_adapter@D@__crt_stdio_output@@V?$standard_base@DV?$string_output_adapter@D@__crt_stdio_output@@@2@@__crt_stdio_output@@AEAA_NXZ 0000000180094320 f i libucrtd:output.obj
 0001:00093350       ?type_case_X@?$output_processor@_WV?$stream_output_adapter@_W@__crt_stdio_output@@V?$format_validation_base@_WV?$stream_output_adapter@_W@__crt_stdio_output@@@2@@__crt_stdio_output@@AEAA_NXZ 0000000180094350 f i libucrtd:output.obj
 0001:00093380       ?type_case_X@?$output_processor@_WV?$stream_output_adapter@_W@__crt_stdio_output@@V?$positional_parameter_base@_WV?$stream_output_adapter@_W@__crt_stdio_output@@@2@@__crt_stdio_output@@AEAA_NXZ 0000000180094380 f i libucrtd:output.obj
 0001:000933b0       ?type_case_X@?$output_processor@_WV?$stream_output_adapter@_W@__crt_stdio_output@@V?$standard_base@_WV?$stream_output_adapter@_W@__crt_stdio_output@@@2@@__crt_stdio_output@@AEAA_NXZ 00000001800943b0 f i libucrtd:output.obj
 0001:000933e0       ?type_case_X@?$output_processor@_WV?$string_output_adapter@_W@__crt_stdio_output@@V?$format_validation_base@_WV?$string_output_adapter@_W@__crt_stdio_output@@@2@@__crt_stdio_output@@AEAA_NXZ 00000001800943e0 f i libucrtd:output.obj
 0001:00093410       ?type_case_X@?$output_processor@_WV?$string_output_adapter@_W@__crt_stdio_output@@V?$positional_parameter_base@_WV?$string_output_adapter@_W@__crt_stdio_output@@@2@@__crt_stdio_output@@AEAA_NXZ 0000000180094410 f i libucrtd:output.obj
 0001:00093440       ?type_case_X@?$output_processor@_WV?$string_output_adapter@_W@__crt_stdio_output@@V?$standard_base@_WV?$string_output_adapter@_W@__crt_stdio_output@@@2@@__crt_stdio_output@@AEAA_NXZ 0000000180094440 f i libucrtd:output.obj
 0001:00093470       ?type_case_Z@?$output_processor@DV?$stream_output_adapter@D@__crt_stdio_output@@V?$format_validation_base@DV?$stream_output_adapter@D@__crt_stdio_output@@@2@@__crt_stdio_output@@AEAA_NXZ 0000000180094470 f i libucrtd:output.obj
 0001:000935d0       ?type_case_Z@?$output_processor@DV?$stream_output_adapter@D@__crt_stdio_output@@V?$positional_parameter_base@DV?$stream_output_adapter@D@__crt_stdio_output@@@2@@__crt_stdio_output@@AEAA_NXZ 00000001800945d0 f i libucrtd:output.obj
 0001:00093730       ?type_case_Z@?$output_processor@DV?$stream_output_adapter@D@__crt_stdio_output@@V?$standard_base@DV?$stream_output_adapter@D@__crt_stdio_output@@@2@@__crt_stdio_output@@AEAA_NXZ 0000000180094730 f i libucrtd:output.obj
 0001:00093890       ?type_case_Z@?$output_processor@DV?$string_output_adapter@D@__crt_stdio_output@@V?$format_validation_base@DV?$string_output_adapter@D@__crt_stdio_output@@@2@@__crt_stdio_output@@AEAA_NXZ 0000000180094890 f i libucrtd:output.obj
 0001:000939f0       ?type_case_Z@?$output_processor@DV?$string_output_adapter@D@__crt_stdio_output@@V?$positional_parameter_base@DV?$string_output_adapter@D@__crt_stdio_output@@@2@@__crt_stdio_output@@AEAA_NXZ 00000001800949f0 f i libucrtd:output.obj
 0001:00093b50       ?type_case_Z@?$output_processor@DV?$string_output_adapter@D@__crt_stdio_output@@V?$standard_base@DV?$string_output_adapter@D@__crt_stdio_output@@@2@@__crt_stdio_output@@AEAA_NXZ 0000000180094b50 f i libucrtd:output.obj
 0001:00093cb0       ?type_case_Z@?$output_processor@_WV?$stream_output_adapter@_W@__crt_stdio_output@@V?$format_validation_base@_WV?$stream_output_adapter@_W@__crt_stdio_output@@@2@@__crt_stdio_output@@AEAA_NXZ 0000000180094cb0 f i libucrtd:output.obj
 0001:00093e10       ?type_case_Z@?$output_processor@_WV?$stream_output_adapter@_W@__crt_stdio_output@@V?$positional_parameter_base@_WV?$stream_output_adapter@_W@__crt_stdio_output@@@2@@__crt_stdio_output@@AEAA_NXZ 0000000180094e10 f i libucrtd:output.obj
 0001:00093f70       ?type_case_Z@?$output_processor@_WV?$stream_output_adapter@_W@__crt_stdio_output@@V?$standard_base@_WV?$stream_output_adapter@_W@__crt_stdio_output@@@2@@__crt_stdio_output@@AEAA_NXZ 0000000180094f70 f i libucrtd:output.obj
 0001:000940d0       ?type_case_Z@?$output_processor@_WV?$string_output_adapter@_W@__crt_stdio_output@@V?$format_validation_base@_WV?$string_output_adapter@_W@__crt_stdio_output@@@2@@__crt_stdio_output@@AEAA_NXZ 00000001800950d0 f i libucrtd:output.obj
 0001:00094230       ?type_case_Z@?$output_processor@_WV?$string_output_adapter@_W@__crt_stdio_output@@V?$positional_parameter_base@_WV?$string_output_adapter@_W@__crt_stdio_output@@@2@@__crt_stdio_output@@AEAA_NXZ 0000000180095230 f i libucrtd:output.obj
 0001:00094390       ?type_case_Z@?$output_processor@_WV?$string_output_adapter@_W@__crt_stdio_output@@V?$standard_base@_WV?$string_output_adapter@_W@__crt_stdio_output@@@2@@__crt_stdio_output@@AEAA_NXZ 0000000180095390 f i libucrtd:output.obj
 0001:000944f0       ?type_case_a@?$output_processor@DV?$stream_output_adapter@D@__crt_stdio_output@@V?$format_validation_base@DV?$stream_output_adapter@D@__crt_stdio_output@@@2@@__crt_stdio_output@@AEAA_NXZ 00000001800954f0 f i libucrtd:output.obj
 0001:00094990       ?type_case_a@?$output_processor@DV?$stream_output_adapter@D@__crt_stdio_output@@V?$positional_parameter_base@DV?$stream_output_adapter@D@__crt_stdio_output@@@2@@__crt_stdio_output@@AEAA_NXZ 0000000180095990 f i libucrtd:output.obj
 0001:00094e30       ?type_case_a@?$output_processor@DV?$stream_output_adapter@D@__crt_stdio_output@@V?$standard_base@DV?$stream_output_adapter@D@__crt_stdio_output@@@2@@__crt_stdio_output@@AEAA_NXZ 0000000180095e30 f i libucrtd:output.obj
 0001:000952d0       ?type_case_a@?$output_processor@DV?$string_output_adapter@D@__crt_stdio_output@@V?$format_validation_base@DV?$string_output_adapter@D@__crt_stdio_output@@@2@@__crt_stdio_output@@AEAA_NXZ 00000001800962d0 f i libucrtd:output.obj
 0001:00095770       ?type_case_a@?$output_processor@DV?$string_output_adapter@D@__crt_stdio_output@@V?$positional_parameter_base@DV?$string_output_adapter@D@__crt_stdio_output@@@2@@__crt_stdio_output@@AEAA_NXZ 0000000180096770 f i libucrtd:output.obj
 0001:00095c10       ?type_case_a@?$output_processor@DV?$string_output_adapter@D@__crt_stdio_output@@V?$standard_base@DV?$string_output_adapter@D@__crt_stdio_output@@@2@@__crt_stdio_output@@AEAA_NXZ 0000000180096c10 f i libucrtd:output.obj
 0001:000960b0       ?type_case_a@?$output_processor@_WV?$stream_output_adapter@_W@__crt_stdio_output@@V?$format_validation_base@_WV?$stream_output_adapter@_W@__crt_stdio_output@@@2@@__crt_stdio_output@@AEAA_NXZ 00000001800970b0 f i libucrtd:output.obj
 0001:00096550       ?type_case_a@?$output_processor@_WV?$stream_output_adapter@_W@__crt_stdio_output@@V?$positional_parameter_base@_WV?$stream_output_adapter@_W@__crt_stdio_output@@@2@@__crt_stdio_output@@AEAA_NXZ 0000000180097550 f i libucrtd:output.obj
 0001:000969f0       ?type_case_a@?$output_processor@_WV?$stream_output_adapter@_W@__crt_stdio_output@@V?$standard_base@_WV?$stream_output_adapter@_W@__crt_stdio_output@@@2@@__crt_stdio_output@@AEAA_NXZ 00000001800979f0 f i libucrtd:output.obj
 0001:00096e90       ?type_case_a@?$output_processor@_WV?$string_output_adapter@_W@__crt_stdio_output@@V?$format_validation_base@_WV?$string_output_adapter@_W@__crt_stdio_output@@@2@@__crt_stdio_output@@AEAA_NXZ 0000000180097e90 f i libucrtd:output.obj
 0001:00097330       ?type_case_a@?$output_processor@_WV?$string_output_adapter@_W@__crt_stdio_output@@V?$positional_parameter_base@_WV?$string_output_adapter@_W@__crt_stdio_output@@@2@@__crt_stdio_output@@AEAA_NXZ 0000000180098330 f i libucrtd:output.obj
 0001:000977d0       ?type_case_a@?$output_processor@_WV?$string_output_adapter@_W@__crt_stdio_output@@V?$standard_base@_WV?$string_output_adapter@_W@__crt_stdio_output@@@2@@__crt_stdio_output@@AEAA_NXZ 00000001800987d0 f i libucrtd:output.obj
 0001:00097c70       ?type_case_c@?$output_processor@DV?$stream_output_adapter@D@__crt_stdio_output@@V?$format_validation_base@DV?$stream_output_adapter@D@__crt_stdio_output@@@2@@__crt_stdio_output@@AEAA_NXZ 0000000180098c70 f i libucrtd:output.obj
 0001:00097c90       ?type_case_c@?$output_processor@DV?$stream_output_adapter@D@__crt_stdio_output@@V?$positional_parameter_base@DV?$stream_output_adapter@D@__crt_stdio_output@@@2@@__crt_stdio_output@@AEAA_NXZ 0000000180098c90 f i libucrtd:output.obj
 0001:00097cb0       ?type_case_c@?$output_processor@DV?$stream_output_adapter@D@__crt_stdio_output@@V?$standard_base@DV?$stream_output_adapter@D@__crt_stdio_output@@@2@@__crt_stdio_output@@AEAA_NXZ 0000000180098cb0 f i libucrtd:output.obj
 0001:00097cd0       ?type_case_c@?$output_processor@DV?$string_output_adapter@D@__crt_stdio_output@@V?$format_validation_base@DV?$string_output_adapter@D@__crt_stdio_output@@@2@@__crt_stdio_output@@AEAA_NXZ 0000000180098cd0 f i libucrtd:output.obj
 0001:00097cf0       ?type_case_c@?$output_processor@DV?$string_output_adapter@D@__crt_stdio_output@@V?$positional_parameter_base@DV?$string_output_adapter@D@__crt_stdio_output@@@2@@__crt_stdio_output@@AEAA_NXZ 0000000180098cf0 f i libucrtd:output.obj
 0001:00097d10       ?type_case_c@?$output_processor@DV?$string_output_adapter@D@__crt_stdio_output@@V?$standard_base@DV?$string_output_adapter@D@__crt_stdio_output@@@2@@__crt_stdio_output@@AEAA_NXZ 0000000180098d10 f i libucrtd:output.obj
 0001:00097d30       ?type_case_c@?$output_processor@_WV?$stream_output_adapter@_W@__crt_stdio_output@@V?$format_validation_base@_WV?$stream_output_adapter@_W@__crt_stdio_output@@@2@@__crt_stdio_output@@AEAA_NXZ 0000000180098d30 f i libucrtd:output.obj
 0001:00097d50       ?type_case_c@?$output_processor@_WV?$stream_output_adapter@_W@__crt_stdio_output@@V?$positional_parameter_base@_WV?$stream_output_adapter@_W@__crt_stdio_output@@@2@@__crt_stdio_output@@AEAA_NXZ 0000000180098d50 f i libucrtd:output.obj
 0001:00097d70       ?type_case_c@?$output_processor@_WV?$stream_output_adapter@_W@__crt_stdio_output@@V?$standard_base@_WV?$stream_output_adapter@_W@__crt_stdio_output@@@2@@__crt_stdio_output@@AEAA_NXZ 0000000180098d70 f i libucrtd:output.obj
 0001:00097d90       ?type_case_c@?$output_processor@_WV?$string_output_adapter@_W@__crt_stdio_output@@V?$format_validation_base@_WV?$string_output_adapter@_W@__crt_stdio_output@@@2@@__crt_stdio_output@@AEAA_NXZ 0000000180098d90 f i libucrtd:output.obj
 0001:00097db0       ?type_case_c@?$output_processor@_WV?$string_output_adapter@_W@__crt_stdio_output@@V?$positional_parameter_base@_WV?$string_output_adapter@_W@__crt_stdio_output@@@2@@__crt_stdio_output@@AEAA_NXZ 0000000180098db0 f i libucrtd:output.obj
 0001:00097dd0       ?type_case_c@?$output_processor@_WV?$string_output_adapter@_W@__crt_stdio_output@@V?$standard_base@_WV?$string_output_adapter@_W@__crt_stdio_output@@@2@@__crt_stdio_output@@AEAA_NXZ 0000000180098dd0 f i libucrtd:output.obj
 0001:00097df0       ?type_case_c_tchar@?$output_processor@DV?$stream_output_adapter@D@__crt_stdio_output@@V?$format_validation_base@DV?$stream_output_adapter@D@__crt_stdio_output@@@2@@__crt_stdio_output@@AEAA_ND@Z 0000000180098df0 f i libucrtd:output.obj
 0001:00097f90       ?type_case_c_tchar@?$output_processor@DV?$stream_output_adapter@D@__crt_stdio_output@@V?$positional_parameter_base@DV?$stream_output_adapter@D@__crt_stdio_output@@@2@@__crt_stdio_output@@AEAA_ND@Z 0000000180098f90 f i libucrtd:output.obj
 0001:00098130       ?type_case_c_tchar@?$output_processor@DV?$stream_output_adapter@D@__crt_stdio_output@@V?$standard_base@DV?$stream_output_adapter@D@__crt_stdio_output@@@2@@__crt_stdio_output@@AEAA_ND@Z 0000000180099130 f i libucrtd:output.obj
 0001:000982d0       ?type_case_c_tchar@?$output_processor@DV?$string_output_adapter@D@__crt_stdio_output@@V?$format_validation_base@DV?$string_output_adapter@D@__crt_stdio_output@@@2@@__crt_stdio_output@@AEAA_ND@Z 00000001800992d0 f i libucrtd:output.obj
 0001:00098470       ?type_case_c_tchar@?$output_processor@DV?$string_output_adapter@D@__crt_stdio_output@@V?$positional_parameter_base@DV?$string_output_adapter@D@__crt_stdio_output@@@2@@__crt_stdio_output@@AEAA_ND@Z 0000000180099470 f i libucrtd:output.obj
 0001:00098610       ?type_case_c_tchar@?$output_processor@DV?$string_output_adapter@D@__crt_stdio_output@@V?$standard_base@DV?$string_output_adapter@D@__crt_stdio_output@@@2@@__crt_stdio_output@@AEAA_ND@Z 0000000180099610 f i libucrtd:output.obj
 0001:000987b0       ?type_case_c_tchar@?$output_processor@_WV?$stream_output_adapter@_W@__crt_stdio_output@@V?$format_validation_base@_WV?$stream_output_adapter@_W@__crt_stdio_output@@@2@@__crt_stdio_output@@AEAA_N_W@Z 00000001800997b0 f i libucrtd:output.obj
 0001:00098930       ?type_case_c_tchar@?$output_processor@_WV?$stream_output_adapter@_W@__crt_stdio_output@@V?$positional_parameter_base@_WV?$stream_output_adapter@_W@__crt_stdio_output@@@2@@__crt_stdio_output@@AEAA_N_W@Z 0000000180099930 f i libucrtd:output.obj
 0001:00098ab0       ?type_case_c_tchar@?$output_processor@_WV?$stream_output_adapter@_W@__crt_stdio_output@@V?$standard_base@_WV?$stream_output_adapter@_W@__crt_stdio_output@@@2@@__crt_stdio_output@@AEAA_N_W@Z 0000000180099ab0 f i libucrtd:output.obj
 0001:00098c30       ?type_case_c_tchar@?$output_processor@_WV?$string_output_adapter@_W@__crt_stdio_output@@V?$format_validation_base@_WV?$string_output_adapter@_W@__crt_stdio_output@@@2@@__crt_stdio_output@@AEAA_N_W@Z 0000000180099c30 f i libucrtd:output.obj
 0001:00098db0       ?type_case_c_tchar@?$output_processor@_WV?$string_output_adapter@_W@__crt_stdio_output@@V?$positional_parameter_base@_WV?$string_output_adapter@_W@__crt_stdio_output@@@2@@__crt_stdio_output@@AEAA_N_W@Z 0000000180099db0 f i libucrtd:output.obj
 0001:00098f30       ?type_case_c_tchar@?$output_processor@_WV?$string_output_adapter@_W@__crt_stdio_output@@V?$standard_base@_WV?$string_output_adapter@_W@__crt_stdio_output@@@2@@__crt_stdio_output@@AEAA_N_W@Z 0000000180099f30 f i libucrtd:output.obj
 0001:000990b0       ?type_case_d@?$output_processor@DV?$stream_output_adapter@D@__crt_stdio_output@@V?$format_validation_base@DV?$stream_output_adapter@D@__crt_stdio_output@@@2@@__crt_stdio_output@@AEAA_NXZ 000000018009a0b0 f i libucrtd:output.obj
 0001:000990f0       ?type_case_d@?$output_processor@DV?$stream_output_adapter@D@__crt_stdio_output@@V?$positional_parameter_base@DV?$stream_output_adapter@D@__crt_stdio_output@@@2@@__crt_stdio_output@@AEAA_NXZ 000000018009a0f0 f i libucrtd:output.obj
 0001:00099130       ?type_case_d@?$output_processor@DV?$stream_output_adapter@D@__crt_stdio_output@@V?$standard_base@DV?$stream_output_adapter@D@__crt_stdio_output@@@2@@__crt_stdio_output@@AEAA_NXZ 000000018009a130 f i libucrtd:output.obj
 0001:00099170       ?type_case_d@?$output_processor@DV?$string_output_adapter@D@__crt_stdio_output@@V?$format_validation_base@DV?$string_output_adapter@D@__crt_stdio_output@@@2@@__crt_stdio_output@@AEAA_NXZ 000000018009a170 f i libucrtd:output.obj
 0001:000991b0       ?type_case_d@?$output_processor@DV?$string_output_adapter@D@__crt_stdio_output@@V?$positional_parameter_base@DV?$string_output_adapter@D@__crt_stdio_output@@@2@@__crt_stdio_output@@AEAA_NXZ 000000018009a1b0 f i libucrtd:output.obj
 0001:000991f0       ?type_case_d@?$output_processor@DV?$string_output_adapter@D@__crt_stdio_output@@V?$standard_base@DV?$string_output_adapter@D@__crt_stdio_output@@@2@@__crt_stdio_output@@AEAA_NXZ 000000018009a1f0 f i libucrtd:output.obj
 0001:00099230       ?type_case_d@?$output_processor@_WV?$stream_output_adapter@_W@__crt_stdio_output@@V?$format_validation_base@_WV?$stream_output_adapter@_W@__crt_stdio_output@@@2@@__crt_stdio_output@@AEAA_NXZ 000000018009a230 f i libucrtd:output.obj
 0001:00099270       ?type_case_d@?$output_processor@_WV?$stream_output_adapter@_W@__crt_stdio_output@@V?$positional_parameter_base@_WV?$stream_output_adapter@_W@__crt_stdio_output@@@2@@__crt_stdio_output@@AEAA_NXZ 000000018009a270 f i libucrtd:output.obj
 0001:000992b0       ?type_case_d@?$output_processor@_WV?$stream_output_adapter@_W@__crt_stdio_output@@V?$standard_base@_WV?$stream_output_adapter@_W@__crt_stdio_output@@@2@@__crt_stdio_output@@AEAA_NXZ 000000018009a2b0 f i libucrtd:output.obj
 0001:000992f0       ?type_case_d@?$output_processor@_WV?$string_output_adapter@_W@__crt_stdio_output@@V?$format_validation_base@_WV?$string_output_adapter@_W@__crt_stdio_output@@@2@@__crt_stdio_output@@AEAA_NXZ 000000018009a2f0 f i libucrtd:output.obj
 0001:00099330       ?type_case_d@?$output_processor@_WV?$string_output_adapter@_W@__crt_stdio_output@@V?$positional_parameter_base@_WV?$string_output_adapter@_W@__crt_stdio_output@@@2@@__crt_stdio_output@@AEAA_NXZ 000000018009a330 f i libucrtd:output.obj
 0001:00099370       ?type_case_d@?$output_processor@_WV?$string_output_adapter@_W@__crt_stdio_output@@V?$standard_base@_WV?$string_output_adapter@_W@__crt_stdio_output@@@2@@__crt_stdio_output@@AEAA_NXZ 000000018009a370 f i libucrtd:output.obj
 0001:000993b0       ?type_case_integer@?$output_processor@DV?$stream_output_adapter@D@__crt_stdio_output@@V?$format_validation_base@DV?$stream_output_adapter@D@__crt_stdio_output@@@2@@__crt_stdio_output@@AEAA_NI_N@Z 000000018009a3b0 f i libucrtd:output.obj
 0001:000998f0       ?type_case_integer@?$output_processor@DV?$stream_output_adapter@D@__crt_stdio_output@@V?$positional_parameter_base@DV?$stream_output_adapter@D@__crt_stdio_output@@@2@@__crt_stdio_output@@AEAA_NI_N@Z 000000018009a8f0 f i libucrtd:output.obj
 0001:00099e30       ?type_case_integer@?$output_processor@DV?$stream_output_adapter@D@__crt_stdio_output@@V?$standard_base@DV?$stream_output_adapter@D@__crt_stdio_output@@@2@@__crt_stdio_output@@AEAA_NI_N@Z 000000018009ae30 f i libucrtd:output.obj
 0001:0009a370       ?type_case_integer@?$output_processor@DV?$string_output_adapter@D@__crt_stdio_output@@V?$format_validation_base@DV?$string_output_adapter@D@__crt_stdio_output@@@2@@__crt_stdio_output@@AEAA_NI_N@Z 000000018009b370 f i libucrtd:output.obj
 0001:0009a8b0       ?type_case_integer@?$output_processor@DV?$string_output_adapter@D@__crt_stdio_output@@V?$positional_parameter_base@DV?$string_output_adapter@D@__crt_stdio_output@@@2@@__crt_stdio_output@@AEAA_NI_N@Z 000000018009b8b0 f i libucrtd:output.obj
 0001:0009adf0       ?type_case_integer@?$output_processor@DV?$string_output_adapter@D@__crt_stdio_output@@V?$standard_base@DV?$string_output_adapter@D@__crt_stdio_output@@@2@@__crt_stdio_output@@AEAA_NI_N@Z 000000018009bdf0 f i libucrtd:output.obj
 0001:0009b330       ?type_case_integer@?$output_processor@_WV?$stream_output_adapter@_W@__crt_stdio_output@@V?$format_validation_base@_WV?$stream_output_adapter@_W@__crt_stdio_output@@@2@@__crt_stdio_output@@AEAA_NI_N@Z 000000018009c330 f i libucrtd:output.obj
 0001:0009b870       ?type_case_integer@?$output_processor@_WV?$stream_output_adapter@_W@__crt_stdio_output@@V?$positional_parameter_base@_WV?$stream_output_adapter@_W@__crt_stdio_output@@@2@@__crt_stdio_output@@AEAA_NI_N@Z 000000018009c870 f i libucrtd:output.obj
 0001:0009bdb0       ?type_case_integer@?$output_processor@_WV?$stream_output_adapter@_W@__crt_stdio_output@@V?$standard_base@_WV?$stream_output_adapter@_W@__crt_stdio_output@@@2@@__crt_stdio_output@@AEAA_NI_N@Z 000000018009cdb0 f i libucrtd:output.obj
 0001:0009c2f0       ?type_case_integer@?$output_processor@_WV?$string_output_adapter@_W@__crt_stdio_output@@V?$format_validation_base@_WV?$string_output_adapter@_W@__crt_stdio_output@@@2@@__crt_stdio_output@@AEAA_NI_N@Z 000000018009d2f0 f i libucrtd:output.obj
 0001:0009c830       ?type_case_integer@?$output_processor@_WV?$string_output_adapter@_W@__crt_stdio_output@@V?$positional_parameter_base@_WV?$string_output_adapter@_W@__crt_stdio_output@@@2@@__crt_stdio_output@@AEAA_NI_N@Z 000000018009d830 f i libucrtd:output.obj
 0001:0009cd70       ?type_case_integer@?$output_processor@_WV?$string_output_adapter@_W@__crt_stdio_output@@V?$standard_base@_WV?$string_output_adapter@_W@__crt_stdio_output@@@2@@__crt_stdio_output@@AEAA_NI_N@Z 000000018009dd70 f i libucrtd:output.obj
 0001:0009d2b0       ?type_case_n@?$output_processor@DV?$stream_output_adapter@D@__crt_stdio_output@@V?$format_validation_base@DV?$stream_output_adapter@D@__crt_stdio_output@@@2@@__crt_stdio_output@@AEAA_NXZ 000000018009e2b0 f i libucrtd:output.obj
 0001:0009d580       ?type_case_n@?$output_processor@DV?$stream_output_adapter@D@__crt_stdio_output@@V?$positional_parameter_base@DV?$stream_output_adapter@D@__crt_stdio_output@@@2@@__crt_stdio_output@@AEAA_NXZ 000000018009e580 f i libucrtd:output.obj
 0001:0009d850       ?type_case_n@?$output_processor@DV?$stream_output_adapter@D@__crt_stdio_output@@V?$standard_base@DV?$stream_output_adapter@D@__crt_stdio_output@@@2@@__crt_stdio_output@@AEAA_NXZ 000000018009e850 f i libucrtd:output.obj
 0001:0009db20       ?type_case_n@?$output_processor@DV?$string_output_adapter@D@__crt_stdio_output@@V?$format_validation_base@DV?$string_output_adapter@D@__crt_stdio_output@@@2@@__crt_stdio_output@@AEAA_NXZ 000000018009eb20 f i libucrtd:output.obj
 0001:0009ddf0       ?type_case_n@?$output_processor@DV?$string_output_adapter@D@__crt_stdio_output@@V?$positional_parameter_base@DV?$string_output_adapter@D@__crt_stdio_output@@@2@@__crt_stdio_output@@AEAA_NXZ 000000018009edf0 f i libucrtd:output.obj
 0001:0009e0c0       ?type_case_n@?$output_processor@DV?$string_output_adapter@D@__crt_stdio_output@@V?$standard_base@DV?$string_output_adapter@D@__crt_stdio_output@@@2@@__crt_stdio_output@@AEAA_NXZ 000000018009f0c0 f i libucrtd:output.obj
 0001:0009e390       ?type_case_n@?$output_processor@_WV?$stream_output_adapter@_W@__crt_stdio_output@@V?$format_validation_base@_WV?$stream_output_adapter@_W@__crt_stdio_output@@@2@@__crt_stdio_output@@AEAA_NXZ 000000018009f390 f i libucrtd:output.obj
 0001:0009e660       ?type_case_n@?$output_processor@_WV?$stream_output_adapter@_W@__crt_stdio_output@@V?$positional_parameter_base@_WV?$stream_output_adapter@_W@__crt_stdio_output@@@2@@__crt_stdio_output@@AEAA_NXZ 000000018009f660 f i libucrtd:output.obj
 0001:0009e930       ?type_case_n@?$output_processor@_WV?$stream_output_adapter@_W@__crt_stdio_output@@V?$standard_base@_WV?$stream_output_adapter@_W@__crt_stdio_output@@@2@@__crt_stdio_output@@AEAA_NXZ 000000018009f930 f i libucrtd:output.obj
 0001:0009ec00       ?type_case_n@?$output_processor@_WV?$string_output_adapter@_W@__crt_stdio_output@@V?$format_validation_base@_WV?$string_output_adapter@_W@__crt_stdio_output@@@2@@__crt_stdio_output@@AEAA_NXZ 000000018009fc00 f i libucrtd:output.obj
 0001:0009eed0       ?type_case_n@?$output_processor@_WV?$string_output_adapter@_W@__crt_stdio_output@@V?$positional_parameter_base@_WV?$string_output_adapter@_W@__crt_stdio_output@@@2@@__crt_stdio_output@@AEAA_NXZ 000000018009fed0 f i libucrtd:output.obj
 0001:0009f1a0       ?type_case_n@?$output_processor@_WV?$string_output_adapter@_W@__crt_stdio_output@@V?$standard_base@_WV?$string_output_adapter@_W@__crt_stdio_output@@@2@@__crt_stdio_output@@AEAA_NXZ 00000001800a01a0 f i libucrtd:output.obj
 0001:0009f470       ?type_case_o@?$output_processor@DV?$stream_output_adapter@D@__crt_stdio_output@@V?$format_validation_base@DV?$stream_output_adapter@D@__crt_stdio_output@@@2@@__crt_stdio_output@@AEAA_NXZ 00000001800a0470 f i libucrtd:output.obj
 0001:0009f4d0       ?type_case_o@?$output_processor@DV?$stream_output_adapter@D@__crt_stdio_output@@V?$positional_parameter_base@DV?$stream_output_adapter@D@__crt_stdio_output@@@2@@__crt_stdio_output@@AEAA_NXZ 00000001800a04d0 f i libucrtd:output.obj
 0001:0009f530       ?type_case_o@?$output_processor@DV?$stream_output_adapter@D@__crt_stdio_output@@V?$standard_base@DV?$stream_output_adapter@D@__crt_stdio_output@@@2@@__crt_stdio_output@@AEAA_NXZ 00000001800a0530 f i libucrtd:output.obj
 0001:0009f590       ?type_case_o@?$output_processor@DV?$string_output_adapter@D@__crt_stdio_output@@V?$format_validation_base@DV?$string_output_adapter@D@__crt_stdio_output@@@2@@__crt_stdio_output@@AEAA_NXZ 00000001800a0590 f i libucrtd:output.obj
 0001:0009f5f0       ?type_case_o@?$output_processor@DV?$string_output_adapter@D@__crt_stdio_output@@V?$positional_parameter_base@DV?$string_output_adapter@D@__crt_stdio_output@@@2@@__crt_stdio_output@@AEAA_NXZ 00000001800a05f0 f i libucrtd:output.obj
 0001:0009f650       ?type_case_o@?$output_processor@DV?$string_output_adapter@D@__crt_stdio_output@@V?$standard_base@DV?$string_output_adapter@D@__crt_stdio_output@@@2@@__crt_stdio_output@@AEAA_NXZ 00000001800a0650 f i libucrtd:output.obj
 0001:0009f6b0       ?type_case_o@?$output_processor@_WV?$stream_output_adapter@_W@__crt_stdio_output@@V?$format_validation_base@_WV?$stream_output_adapter@_W@__crt_stdio_output@@@2@@__crt_stdio_output@@AEAA_NXZ 00000001800a06b0 f i libucrtd:output.obj
 0001:0009f710       ?type_case_o@?$output_processor@_WV?$stream_output_adapter@_W@__crt_stdio_output@@V?$positional_parameter_base@_WV?$stream_output_adapter@_W@__crt_stdio_output@@@2@@__crt_stdio_output@@AEAA_NXZ 00000001800a0710 f i libucrtd:output.obj
 0001:0009f770       ?type_case_o@?$output_processor@_WV?$stream_output_adapter@_W@__crt_stdio_output@@V?$standard_base@_WV?$stream_output_adapter@_W@__crt_stdio_output@@@2@@__crt_stdio_output@@AEAA_NXZ 00000001800a0770 f i libucrtd:output.obj
 0001:0009f7d0       ?type_case_o@?$output_processor@_WV?$string_output_adapter@_W@__crt_stdio_output@@V?$format_validation_base@_WV?$string_output_adapter@_W@__crt_stdio_output@@@2@@__crt_stdio_output@@AEAA_NXZ 00000001800a07d0 f i libucrtd:output.obj
 0001:0009f830       ?type_case_o@?$output_processor@_WV?$string_output_adapter@_W@__crt_stdio_output@@V?$positional_parameter_base@_WV?$string_output_adapter@_W@__crt_stdio_output@@@2@@__crt_stdio_output@@AEAA_NXZ 00000001800a0830 f i libucrtd:output.obj
 0001:0009f890       ?type_case_o@?$output_processor@_WV?$string_output_adapter@_W@__crt_stdio_output@@V?$standard_base@_WV?$string_output_adapter@_W@__crt_stdio_output@@@2@@__crt_stdio_output@@AEAA_NXZ 00000001800a0890 f i libucrtd:output.obj
 0001:0009f8f0       ?type_case_p@?$output_processor@DV?$stream_output_adapter@D@__crt_stdio_output@@V?$format_validation_base@DV?$stream_output_adapter@D@__crt_stdio_output@@@2@@__crt_stdio_output@@AEAA_NXZ 00000001800a08f0 f i libucrtd:output.obj
 0001:0009f940       ?type_case_p@?$output_processor@DV?$stream_output_adapter@D@__crt_stdio_output@@V?$positional_parameter_base@DV?$stream_output_adapter@D@__crt_stdio_output@@@2@@__crt_stdio_output@@AEAA_NXZ 00000001800a0940 f i libucrtd:output.obj
 0001:0009f990       ?type_case_p@?$output_processor@DV?$stream_output_adapter@D@__crt_stdio_output@@V?$standard_base@DV?$stream_output_adapter@D@__crt_stdio_output@@@2@@__crt_stdio_output@@AEAA_NXZ 00000001800a0990 f i libucrtd:output.obj
 0001:0009f9e0       ?type_case_p@?$output_processor@DV?$string_output_adapter@D@__crt_stdio_output@@V?$format_validation_base@DV?$string_output_adapter@D@__crt_stdio_output@@@2@@__crt_stdio_output@@AEAA_NXZ 00000001800a09e0 f i libucrtd:output.obj
 0001:0009fa30       ?type_case_p@?$output_processor@DV?$string_output_adapter@D@__crt_stdio_output@@V?$positional_parameter_base@DV?$string_output_adapter@D@__crt_stdio_output@@@2@@__crt_stdio_output@@AEAA_NXZ 00000001800a0a30 f i libucrtd:output.obj
 0001:0009fa80       ?type_case_p@?$output_processor@DV?$string_output_adapter@D@__crt_stdio_output@@V?$standard_base@DV?$string_output_adapter@D@__crt_stdio_output@@@2@@__crt_stdio_output@@AEAA_NXZ 00000001800a0a80 f i libucrtd:output.obj
 0001:0009fad0       ?type_case_p@?$output_processor@_WV?$stream_output_adapter@_W@__crt_stdio_output@@V?$format_validation_base@_WV?$stream_output_adapter@_W@__crt_stdio_output@@@2@@__crt_stdio_output@@AEAA_NXZ 00000001800a0ad0 f i libucrtd:output.obj
 0001:0009fb20       ?type_case_p@?$output_processor@_WV?$stream_output_adapter@_W@__crt_stdio_output@@V?$positional_parameter_base@_WV?$stream_output_adapter@_W@__crt_stdio_output@@@2@@__crt_stdio_output@@AEAA_NXZ 00000001800a0b20 f i libucrtd:output.obj
 0001:0009fb70       ?type_case_p@?$output_processor@_WV?$stream_output_adapter@_W@__crt_stdio_output@@V?$standard_base@_WV?$stream_output_adapter@_W@__crt_stdio_output@@@2@@__crt_stdio_output@@AEAA_NXZ 00000001800a0b70 f i libucrtd:output.obj
 0001:0009fbc0       ?type_case_p@?$output_processor@_WV?$string_output_adapter@_W@__crt_stdio_output@@V?$format_validation_base@_WV?$string_output_adapter@_W@__crt_stdio_output@@@2@@__crt_stdio_output@@AEAA_NXZ 00000001800a0bc0 f i libucrtd:output.obj
 0001:0009fc10       ?type_case_p@?$output_processor@_WV?$string_output_adapter@_W@__crt_stdio_output@@V?$positional_parameter_base@_WV?$string_output_adapter@_W@__crt_stdio_output@@@2@@__crt_stdio_output@@AEAA_NXZ 00000001800a0c10 f i libucrtd:output.obj
 0001:0009fc60       ?type_case_p@?$output_processor@_WV?$string_output_adapter@_W@__crt_stdio_output@@V?$standard_base@_WV?$string_output_adapter@_W@__crt_stdio_output@@@2@@__crt_stdio_output@@AEAA_NXZ 00000001800a0c60 f i libucrtd:output.obj
 0001:0009fcb0       ?type_case_s@?$output_processor@DV?$stream_output_adapter@D@__crt_stdio_output@@V?$format_validation_base@DV?$stream_output_adapter@D@__crt_stdio_output@@@2@@__crt_stdio_output@@AEAA_NXZ 00000001800a0cb0 f i libucrtd:output.obj
 0001:0009fe10       ?type_case_s@?$output_processor@DV?$stream_output_adapter@D@__crt_stdio_output@@V?$positional_parameter_base@DV?$stream_output_adapter@D@__crt_stdio_output@@@2@@__crt_stdio_output@@AEAA_NXZ 00000001800a0e10 f i libucrtd:output.obj
 0001:0009ff70       ?type_case_s@?$output_processor@DV?$stream_output_adapter@D@__crt_stdio_output@@V?$standard_base@DV?$stream_output_adapter@D@__crt_stdio_output@@@2@@__crt_stdio_output@@AEAA_NXZ 00000001800a0f70 f i libucrtd:output.obj
 0001:000a00d0       ?type_case_s@?$output_processor@DV?$string_output_adapter@D@__crt_stdio_output@@V?$format_validation_base@DV?$string_output_adapter@D@__crt_stdio_output@@@2@@__crt_stdio_output@@AEAA_NXZ 00000001800a10d0 f i libucrtd:output.obj
 0001:000a0230       ?type_case_s@?$output_processor@DV?$string_output_adapter@D@__crt_stdio_output@@V?$positional_parameter_base@DV?$string_output_adapter@D@__crt_stdio_output@@@2@@__crt_stdio_output@@AEAA_NXZ 00000001800a1230 f i libucrtd:output.obj
 0001:000a0390       ?type_case_s@?$output_processor@DV?$string_output_adapter@D@__crt_stdio_output@@V?$standard_base@DV?$string_output_adapter@D@__crt_stdio_output@@@2@@__crt_stdio_output@@AEAA_NXZ 00000001800a1390 f i libucrtd:output.obj
 0001:000a04f0       ?type_case_s@?$output_processor@_WV?$stream_output_adapter@_W@__crt_stdio_output@@V?$format_validation_base@_WV?$stream_output_adapter@_W@__crt_stdio_output@@@2@@__crt_stdio_output@@AEAA_NXZ 00000001800a14f0 f i libucrtd:output.obj
 0001:000a0650       ?type_case_s@?$output_processor@_WV?$stream_output_adapter@_W@__crt_stdio_output@@V?$positional_parameter_base@_WV?$stream_output_adapter@_W@__crt_stdio_output@@@2@@__crt_stdio_output@@AEAA_NXZ 00000001800a1650 f i libucrtd:output.obj
 0001:000a07b0       ?type_case_s@?$output_processor@_WV?$stream_output_adapter@_W@__crt_stdio_output@@V?$standard_base@_WV?$stream_output_adapter@_W@__crt_stdio_output@@@2@@__crt_stdio_output@@AEAA_NXZ 00000001800a17b0 f i libucrtd:output.obj
 0001:000a0910       ?type_case_s@?$output_processor@_WV?$string_output_adapter@_W@__crt_stdio_output@@V?$format_validation_base@_WV?$string_output_adapter@_W@__crt_stdio_output@@@2@@__crt_stdio_output@@AEAA_NXZ 00000001800a1910 f i libucrtd:output.obj
 0001:000a0a70       ?type_case_s@?$output_processor@_WV?$string_output_adapter@_W@__crt_stdio_output@@V?$positional_parameter_base@_WV?$string_output_adapter@_W@__crt_stdio_output@@@2@@__crt_stdio_output@@AEAA_NXZ 00000001800a1a70 f i libucrtd:output.obj
 0001:000a0bd0       ?type_case_s@?$output_processor@_WV?$string_output_adapter@_W@__crt_stdio_output@@V?$standard_base@_WV?$string_output_adapter@_W@__crt_stdio_output@@@2@@__crt_stdio_output@@AEAA_NXZ 00000001800a1bd0 f i libucrtd:output.obj
 0001:000a0d30       ?type_case_s_compute_narrow_string_length@?$output_processor@DV?$stream_output_adapter@D@__crt_stdio_output@@V?$format_validation_base@DV?$stream_output_adapter@D@__crt_stdio_output@@@2@@__crt_stdio_output@@AEBAHHD@Z 00000001800a1d30 f i libucrtd:output.obj
 0001:000a0d70       ?type_case_s_compute_narrow_string_length@?$output_processor@DV?$stream_output_adapter@D@__crt_stdio_output@@V?$positional_parameter_base@DV?$stream_output_adapter@D@__crt_stdio_output@@@2@@__crt_stdio_output@@AEBAHHD@Z 00000001800a1d70 f i libucrtd:output.obj
 0001:000a0db0       ?type_case_s_compute_narrow_string_length@?$output_processor@DV?$stream_output_adapter@D@__crt_stdio_output@@V?$standard_base@DV?$stream_output_adapter@D@__crt_stdio_output@@@2@@__crt_stdio_output@@AEBAHHD@Z 00000001800a1db0 f i libucrtd:output.obj
 0001:000a0df0       ?type_case_s_compute_narrow_string_length@?$output_processor@DV?$string_output_adapter@D@__crt_stdio_output@@V?$format_validation_base@DV?$string_output_adapter@D@__crt_stdio_output@@@2@@__crt_stdio_output@@AEBAHHD@Z 00000001800a1df0 f i libucrtd:output.obj
 0001:000a0e30       ?type_case_s_compute_narrow_string_length@?$output_processor@DV?$string_output_adapter@D@__crt_stdio_output@@V?$positional_parameter_base@DV?$string_output_adapter@D@__crt_stdio_output@@@2@@__crt_stdio_output@@AEBAHHD@Z 00000001800a1e30 f i libucrtd:output.obj
 0001:000a0e70       ?type_case_s_compute_narrow_string_length@?$output_processor@DV?$string_output_adapter@D@__crt_stdio_output@@V?$standard_base@DV?$string_output_adapter@D@__crt_stdio_output@@@2@@__crt_stdio_output@@AEBAHHD@Z 00000001800a1e70 f i libucrtd:output.obj
 0001:000a0eb0       ?type_case_s_compute_narrow_string_length@?$output_processor@_WV?$stream_output_adapter@_W@__crt_stdio_output@@V?$format_validation_base@_WV?$stream_output_adapter@_W@__crt_stdio_output@@@2@@__crt_stdio_output@@AEBAHH_W@Z 00000001800a1eb0 f i libucrtd:output.obj
 0001:000a0f60       ?type_case_s_compute_narrow_string_length@?$output_processor@_WV?$stream_output_adapter@_W@__crt_stdio_output@@V?$positional_parameter_base@_WV?$stream_output_adapter@_W@__crt_stdio_output@@@2@@__crt_stdio_output@@AEBAHH_W@Z 00000001800a1f60 f i libucrtd:output.obj
 0001:000a1010       ?type_case_s_compute_narrow_string_length@?$output_processor@_WV?$stream_output_adapter@_W@__crt_stdio_output@@V?$standard_base@_WV?$stream_output_adapter@_W@__crt_stdio_output@@@2@@__crt_stdio_output@@AEBAHH_W@Z 00000001800a2010 f i libucrtd:output.obj
 0001:000a10c0       ?type_case_s_compute_narrow_string_length@?$output_processor@_WV?$string_output_adapter@_W@__crt_stdio_output@@V?$format_validation_base@_WV?$string_output_adapter@_W@__crt_stdio_output@@@2@@__crt_stdio_output@@AEBAHH_W@Z 00000001800a20c0 f i libucrtd:output.obj
 0001:000a1170       ?type_case_s_compute_narrow_string_length@?$output_processor@_WV?$string_output_adapter@_W@__crt_stdio_output@@V?$positional_parameter_base@_WV?$string_output_adapter@_W@__crt_stdio_output@@@2@@__crt_stdio_output@@AEBAHH_W@Z 00000001800a2170 f i libucrtd:output.obj
 0001:000a1220       ?type_case_s_compute_narrow_string_length@?$output_processor@_WV?$string_output_adapter@_W@__crt_stdio_output@@V?$standard_base@_WV?$string_output_adapter@_W@__crt_stdio_output@@@2@@__crt_stdio_output@@AEBAHH_W@Z 00000001800a2220 f i libucrtd:output.obj
 0001:000a12d0       ?type_case_u@?$output_processor@DV?$stream_output_adapter@D@__crt_stdio_output@@V?$format_validation_base@DV?$stream_output_adapter@D@__crt_stdio_output@@@2@@__crt_stdio_output@@AEAA_NXZ 00000001800a22d0 f i libucrtd:output.obj
 0001:000a1300       ?type_case_u@?$output_processor@DV?$stream_output_adapter@D@__crt_stdio_output@@V?$positional_parameter_base@DV?$stream_output_adapter@D@__crt_stdio_output@@@2@@__crt_stdio_output@@AEAA_NXZ 00000001800a2300 f i libucrtd:output.obj
 0001:000a1330       ?type_case_u@?$output_processor@DV?$stream_output_adapter@D@__crt_stdio_output@@V?$standard_base@DV?$stream_output_adapter@D@__crt_stdio_output@@@2@@__crt_stdio_output@@AEAA_NXZ 00000001800a2330 f i libucrtd:output.obj
 0001:000a1360       ?type_case_u@?$output_processor@DV?$string_output_adapter@D@__crt_stdio_output@@V?$format_validation_base@DV?$string_output_adapter@D@__crt_stdio_output@@@2@@__crt_stdio_output@@AEAA_NXZ 00000001800a2360 f i libucrtd:output.obj
 0001:000a1390       ?type_case_u@?$output_processor@DV?$string_output_adapter@D@__crt_stdio_output@@V?$positional_parameter_base@DV?$string_output_adapter@D@__crt_stdio_output@@@2@@__crt_stdio_output@@AEAA_NXZ 00000001800a2390 f i libucrtd:output.obj
 0001:000a13c0       ?type_case_u@?$output_processor@DV?$string_output_adapter@D@__crt_stdio_output@@V?$standard_base@DV?$string_output_adapter@D@__crt_stdio_output@@@2@@__crt_stdio_output@@AEAA_NXZ 00000001800a23c0 f i libucrtd:output.obj
 0001:000a13f0       ?type_case_u@?$output_processor@_WV?$stream_output_adapter@_W@__crt_stdio_output@@V?$format_validation_base@_WV?$stream_output_adapter@_W@__crt_stdio_output@@@2@@__crt_stdio_output@@AEAA_NXZ 00000001800a23f0 f i libucrtd:output.obj
 0001:000a1420       ?type_case_u@?$output_processor@_WV?$stream_output_adapter@_W@__crt_stdio_output@@V?$positional_parameter_base@_WV?$stream_output_adapter@_W@__crt_stdio_output@@@2@@__crt_stdio_output@@AEAA_NXZ 00000001800a2420 f i libucrtd:output.obj
 0001:000a1450       ?type_case_u@?$output_processor@_WV?$stream_output_adapter@_W@__crt_stdio_output@@V?$standard_base@_WV?$stream_output_adapter@_W@__crt_stdio_output@@@2@@__crt_stdio_output@@AEAA_NXZ 00000001800a2450 f i libucrtd:output.obj
 0001:000a1480       ?type_case_u@?$output_processor@_WV?$string_output_adapter@_W@__crt_stdio_output@@V?$format_validation_base@_WV?$string_output_adapter@_W@__crt_stdio_output@@@2@@__crt_stdio_output@@AEAA_NXZ 00000001800a2480 f i libucrtd:output.obj
 0001:000a14b0       ?type_case_u@?$output_processor@_WV?$string_output_adapter@_W@__crt_stdio_output@@V?$positional_parameter_base@_WV?$string_output_adapter@_W@__crt_stdio_output@@@2@@__crt_stdio_output@@AEAA_NXZ 00000001800a24b0 f i libucrtd:output.obj
 0001:000a14e0       ?type_case_u@?$output_processor@_WV?$string_output_adapter@_W@__crt_stdio_output@@V?$standard_base@_WV?$string_output_adapter@_W@__crt_stdio_output@@@2@@__crt_stdio_output@@AEAA_NXZ 00000001800a24e0 f i libucrtd:output.obj
 0001:000a1510       ?type_case_x@?$output_processor@DV?$stream_output_adapter@D@__crt_stdio_output@@V?$format_validation_base@DV?$stream_output_adapter@D@__crt_stdio_output@@@2@@__crt_stdio_output@@AEAA_NXZ 00000001800a2510 f i libucrtd:output.obj
 0001:000a1540       ?type_case_x@?$output_processor@DV?$stream_output_adapter@D@__crt_stdio_output@@V?$positional_parameter_base@DV?$stream_output_adapter@D@__crt_stdio_output@@@2@@__crt_stdio_output@@AEAA_NXZ 00000001800a2540 f i libucrtd:output.obj
 0001:000a1570       ?type_case_x@?$output_processor@DV?$stream_output_adapter@D@__crt_stdio_output@@V?$standard_base@DV?$stream_output_adapter@D@__crt_stdio_output@@@2@@__crt_stdio_output@@AEAA_NXZ 00000001800a2570 f i libucrtd:output.obj
 0001:000a15a0       ?type_case_x@?$output_processor@DV?$string_output_adapter@D@__crt_stdio_output@@V?$format_validation_base@DV?$string_output_adapter@D@__crt_stdio_output@@@2@@__crt_stdio_output@@AEAA_NXZ 00000001800a25a0 f i libucrtd:output.obj
 0001:000a15d0       ?type_case_x@?$output_processor@DV?$string_output_adapter@D@__crt_stdio_output@@V?$positional_parameter_base@DV?$string_output_adapter@D@__crt_stdio_output@@@2@@__crt_stdio_output@@AEAA_NXZ 00000001800a25d0 f i libucrtd:output.obj
 0001:000a1600       ?type_case_x@?$output_processor@DV?$string_output_adapter@D@__crt_stdio_output@@V?$standard_base@DV?$string_output_adapter@D@__crt_stdio_output@@@2@@__crt_stdio_output@@AEAA_NXZ 00000001800a2600 f i libucrtd:output.obj
 0001:000a1630       ?type_case_x@?$output_processor@_WV?$stream_output_adapter@_W@__crt_stdio_output@@V?$format_validation_base@_WV?$stream_output_adapter@_W@__crt_stdio_output@@@2@@__crt_stdio_output@@AEAA_NXZ 00000001800a2630 f i libucrtd:output.obj
 0001:000a1660       ?type_case_x@?$output_processor@_WV?$stream_output_adapter@_W@__crt_stdio_output@@V?$positional_parameter_base@_WV?$stream_output_adapter@_W@__crt_stdio_output@@@2@@__crt_stdio_output@@AEAA_NXZ 00000001800a2660 f i libucrtd:output.obj
 0001:000a1690       ?type_case_x@?$output_processor@_WV?$stream_output_adapter@_W@__crt_stdio_output@@V?$standard_base@_WV?$stream_output_adapter@_W@__crt_stdio_output@@@2@@__crt_stdio_output@@AEAA_NXZ 00000001800a2690 f i libucrtd:output.obj
 0001:000a16c0       ?type_case_x@?$output_processor@_WV?$string_output_adapter@_W@__crt_stdio_output@@V?$format_validation_base@_WV?$string_output_adapter@_W@__crt_stdio_output@@@2@@__crt_stdio_output@@AEAA_NXZ 00000001800a26c0 f i libucrtd:output.obj
 0001:000a16f0       ?type_case_x@?$output_processor@_WV?$string_output_adapter@_W@__crt_stdio_output@@V?$positional_parameter_base@_WV?$string_output_adapter@_W@__crt_stdio_output@@@2@@__crt_stdio_output@@AEAA_NXZ 00000001800a26f0 f i libucrtd:output.obj
 0001:000a1720       ?type_case_x@?$output_processor@_WV?$string_output_adapter@_W@__crt_stdio_output@@V?$standard_base@_WV?$string_output_adapter@_W@__crt_stdio_output@@@2@@__crt_stdio_output@@AEAA_NXZ 00000001800a2720 f i libucrtd:output.obj
 0001:000a1750       ?unset_flag@?$output_processor@DV?$stream_output_adapter@D@__crt_stdio_output@@V?$format_validation_base@DV?$stream_output_adapter@D@__crt_stdio_output@@@2@@__crt_stdio_output@@AEAAXI@Z 00000001800a2750 f i libucrtd:output.obj
 0001:000a1780       ?unset_flag@?$output_processor@DV?$stream_output_adapter@D@__crt_stdio_output@@V?$positional_parameter_base@DV?$stream_output_adapter@D@__crt_stdio_output@@@2@@__crt_stdio_output@@AEAAXI@Z 00000001800a2780 f i libucrtd:output.obj
 0001:000a17b0       ?unset_flag@?$output_processor@DV?$stream_output_adapter@D@__crt_stdio_output@@V?$standard_base@DV?$stream_output_adapter@D@__crt_stdio_output@@@2@@__crt_stdio_output@@AEAAXI@Z 00000001800a27b0 f i libucrtd:output.obj
 0001:000a17e0       ?unset_flag@?$output_processor@DV?$string_output_adapter@D@__crt_stdio_output@@V?$format_validation_base@DV?$string_output_adapter@D@__crt_stdio_output@@@2@@__crt_stdio_output@@AEAAXI@Z 00000001800a27e0 f i libucrtd:output.obj
 0001:000a1810       ?unset_flag@?$output_processor@DV?$string_output_adapter@D@__crt_stdio_output@@V?$positional_parameter_base@DV?$string_output_adapter@D@__crt_stdio_output@@@2@@__crt_stdio_output@@AEAAXI@Z 00000001800a2810 f i libucrtd:output.obj
 0001:000a1840       ?unset_flag@?$output_processor@DV?$string_output_adapter@D@__crt_stdio_output@@V?$standard_base@DV?$string_output_adapter@D@__crt_stdio_output@@@2@@__crt_stdio_output@@AEAAXI@Z 00000001800a2840 f i libucrtd:output.obj
 0001:000a1870       ?unset_flag@?$output_processor@_WV?$stream_output_adapter@_W@__crt_stdio_output@@V?$format_validation_base@_WV?$stream_output_adapter@_W@__crt_stdio_output@@@2@@__crt_stdio_output@@AEAAXI@Z 00000001800a2870 f i libucrtd:output.obj
 0001:000a18a0       ?unset_flag@?$output_processor@_WV?$stream_output_adapter@_W@__crt_stdio_output@@V?$positional_parameter_base@_WV?$stream_output_adapter@_W@__crt_stdio_output@@@2@@__crt_stdio_output@@AEAAXI@Z 00000001800a28a0 f i libucrtd:output.obj
 0001:000a18d0       ?unset_flag@?$output_processor@_WV?$stream_output_adapter@_W@__crt_stdio_output@@V?$standard_base@_WV?$stream_output_adapter@_W@__crt_stdio_output@@@2@@__crt_stdio_output@@AEAAXI@Z 00000001800a28d0 f i libucrtd:output.obj
 0001:000a1900       ?unset_flag@?$output_processor@_WV?$string_output_adapter@_W@__crt_stdio_output@@V?$format_validation_base@_WV?$string_output_adapter@_W@__crt_stdio_output@@@2@@__crt_stdio_output@@AEAAXI@Z 00000001800a2900 f i libucrtd:output.obj
 0001:000a1930       ?unset_flag@?$output_processor@_WV?$string_output_adapter@_W@__crt_stdio_output@@V?$positional_parameter_base@_WV?$string_output_adapter@_W@__crt_stdio_output@@@2@@__crt_stdio_output@@AEAAXI@Z 00000001800a2930 f i libucrtd:output.obj
 0001:000a1960       ?unset_flag@?$output_processor@_WV?$string_output_adapter@_W@__crt_stdio_output@@V?$standard_base@_WV?$string_output_adapter@_W@__crt_stdio_output@@@2@@__crt_stdio_output@@AEAAXI@Z 00000001800a2960 f i libucrtd:output.obj
 0001:000a1990       ?update_field_width@?$positional_parameter_base@DV?$stream_output_adapter@D@__crt_stdio_output@@@__crt_stdio_output@@IEAA_NXZ 00000001800a2990 f i libucrtd:output.obj
 0001:000a1bf0       ?update_field_width@?$positional_parameter_base@DV?$string_output_adapter@D@__crt_stdio_output@@@__crt_stdio_output@@IEAA_NXZ 00000001800a2bf0 f i libucrtd:output.obj
 0001:000a1e50       ?update_field_width@?$positional_parameter_base@_WV?$stream_output_adapter@_W@__crt_stdio_output@@@__crt_stdio_output@@IEAA_NXZ 00000001800a2e50 f i libucrtd:output.obj
 0001:000a20b0       ?update_field_width@?$positional_parameter_base@_WV?$string_output_adapter@_W@__crt_stdio_output@@@__crt_stdio_output@@IEAA_NXZ 00000001800a30b0 f i libucrtd:output.obj
 0001:000a2310       ?update_field_width@?$standard_base@DV?$stream_output_adapter@D@__crt_stdio_output@@@__crt_stdio_output@@IEAA_NXZ 00000001800a3310 f i libucrtd:output.obj
 0001:000a2350       ?update_field_width@?$standard_base@DV?$string_output_adapter@D@__crt_stdio_output@@@__crt_stdio_output@@IEAA_NXZ 00000001800a3350 f i libucrtd:output.obj
 0001:000a2390       ?update_field_width@?$standard_base@_WV?$stream_output_adapter@_W@__crt_stdio_output@@@__crt_stdio_output@@IEAA_NXZ 00000001800a3390 f i libucrtd:output.obj
 0001:000a23d0       ?update_field_width@?$standard_base@_WV?$string_output_adapter@_W@__crt_stdio_output@@@__crt_stdio_output@@IEAA_NXZ 00000001800a33d0 f i libucrtd:output.obj
 0001:000a2410       ?update_precision@?$positional_parameter_base@DV?$stream_output_adapter@D@__crt_stdio_output@@@__crt_stdio_output@@IEAA_NXZ 00000001800a3410 f i libucrtd:output.obj
 0001:000a2670       ?update_precision@?$positional_parameter_base@DV?$string_output_adapter@D@__crt_stdio_output@@@__crt_stdio_output@@IEAA_NXZ 00000001800a3670 f i libucrtd:output.obj
 0001:000a28d0       ?update_precision@?$positional_parameter_base@_WV?$stream_output_adapter@_W@__crt_stdio_output@@@__crt_stdio_output@@IEAA_NXZ 00000001800a38d0 f i libucrtd:output.obj
 0001:000a2b30       ?update_precision@?$positional_parameter_base@_WV?$string_output_adapter@_W@__crt_stdio_output@@@__crt_stdio_output@@IEAA_NXZ 00000001800a3b30 f i libucrtd:output.obj
 0001:000a2d90       ?update_precision@?$standard_base@DV?$stream_output_adapter@D@__crt_stdio_output@@@__crt_stdio_output@@IEAA_NXZ 00000001800a3d90 f i libucrtd:output.obj
 0001:000a2dd0       ?update_precision@?$standard_base@DV?$string_output_adapter@D@__crt_stdio_output@@@__crt_stdio_output@@IEAA_NXZ 00000001800a3dd0 f i libucrtd:output.obj
 0001:000a2e10       ?update_precision@?$standard_base@_WV?$stream_output_adapter@_W@__crt_stdio_output@@@__crt_stdio_output@@IEAA_NXZ 00000001800a3e10 f i libucrtd:output.obj
 0001:000a2e50       ?update_precision@?$standard_base@_WV?$string_output_adapter@_W@__crt_stdio_output@@@__crt_stdio_output@@IEAA_NXZ 00000001800a3e50 f i libucrtd:output.obj
 0001:000a2e90       ?valid@__crt_stdio_stream@@QEBA_NXZ 00000001800a3e90 f i libucrtd:output.obj
 0001:000a2ed0       ?validate@?$stream_output_adapter@D@__crt_stdio_output@@QEBA_NXZ 00000001800a3ed0 f i libucrtd:output.obj
 0001:000a2fe0       ?validate@?$stream_output_adapter@_W@__crt_stdio_output@@QEBA_NXZ 00000001800a3fe0 f i libucrtd:output.obj
 0001:000a30f0       ?validate@?$string_output_adapter@D@__crt_stdio_output@@QEBA_NXZ 00000001800a40f0 f i libucrtd:output.obj
 0001:000a31e0       ?validate@?$string_output_adapter@_W@__crt_stdio_output@@QEBA_NXZ 00000001800a41e0 f i libucrtd:output.obj
 0001:000a32d0       ?validate_and_store_parameter_data@?$positional_parameter_base@DV?$stream_output_adapter@D@__crt_stdio_output@@@__crt_stdio_output@@AEAA_NAEAUparameter_data@12@W4parameter_type@12@DW4length_modifier@2@@Z 00000001800a42d0 f i libucrtd:output.obj
 0001:000a3430       ?validate_and_store_parameter_data@?$positional_parameter_base@DV?$string_output_adapter@D@__crt_stdio_output@@@__crt_stdio_output@@AEAA_NAEAUparameter_data@12@W4parameter_type@12@DW4length_modifier@2@@Z 00000001800a4430 f i libucrtd:output.obj
 0001:000a3590       ?validate_and_store_parameter_data@?$positional_parameter_base@_WV?$stream_output_adapter@_W@__crt_stdio_output@@@__crt_stdio_output@@AEAA_NAEAUparameter_data@12@W4parameter_type@12@_WW4length_modifier@2@@Z 00000001800a4590 f i libucrtd:output.obj
 0001:000a36f0       ?validate_and_store_parameter_data@?$positional_parameter_base@_WV?$string_output_adapter@_W@__crt_stdio_output@@@__crt_stdio_output@@AEAA_NAEAUparameter_data@12@W4parameter_type@12@_WW4length_modifier@2@@Z 00000001800a46f0 f i libucrtd:output.obj
 0001:000a3850       ?validate_and_update_state_at_beginning_of_format_character@?$positional_parameter_base@DV?$stream_output_adapter@D@__crt_stdio_output@@@__crt_stdio_output@@IEAA_NXZ 00000001800a4850 f i libucrtd:output.obj
 0001:000a3be0       ?validate_and_update_state_at_beginning_of_format_character@?$positional_parameter_base@DV?$string_output_adapter@D@__crt_stdio_output@@@__crt_stdio_output@@IEAA_NXZ 00000001800a4be0 f i libucrtd:output.obj
 0001:000a3f70       ?validate_and_update_state_at_beginning_of_format_character@?$positional_parameter_base@_WV?$stream_output_adapter@_W@__crt_stdio_output@@@__crt_stdio_output@@IEAA_NXZ 00000001800a4f70 f i libucrtd:output.obj
 0001:000a4300       ?validate_and_update_state_at_beginning_of_format_character@?$positional_parameter_base@_WV?$string_output_adapter@_W@__crt_stdio_output@@@__crt_stdio_output@@IEAA_NXZ 00000001800a5300 f i libucrtd:output.obj
 0001:000a4690       ?validate_and_update_state_at_beginning_of_format_character@?$standard_base@DV?$stream_output_adapter@D@__crt_stdio_output@@@__crt_stdio_output@@IEAA_NXZ 00000001800a5690 f i libucrtd:output.obj
 0001:000a46a0       ?validate_and_update_state_at_beginning_of_format_character@?$standard_base@DV?$string_output_adapter@D@__crt_stdio_output@@@__crt_stdio_output@@IEAA_NXZ 00000001800a56a0 f i libucrtd:output.obj
 0001:000a46b0       ?validate_and_update_state_at_beginning_of_format_character@?$standard_base@_WV?$stream_output_adapter@_W@__crt_stdio_output@@@__crt_stdio_output@@IEAA_NXZ 00000001800a56b0 f i libucrtd:output.obj
 0001:000a46c0       ?validate_and_update_state_at_beginning_of_format_character@?$standard_base@_WV?$string_output_adapter@_W@__crt_stdio_output@@@__crt_stdio_output@@IEAA_NXZ 00000001800a56c0 f i libucrtd:output.obj
 0001:000a46d0       ?validate_and_update_state_at_end_of_format_string@?$format_validation_base@DV?$stream_output_adapter@D@__crt_stdio_output@@@__crt_stdio_output@@IEBA_NXZ 00000001800a56d0 f i libucrtd:output.obj
 0001:000a47c0       ?validate_and_update_state_at_end_of_format_string@?$format_validation_base@DV?$string_output_adapter@D@__crt_stdio_output@@@__crt_stdio_output@@IEBA_NXZ 00000001800a57c0 f i libucrtd:output.obj
 0001:000a48b0       ?validate_and_update_state_at_end_of_format_string@?$format_validation_base@_WV?$stream_output_adapter@_W@__crt_stdio_output@@@__crt_stdio_output@@IEBA_NXZ 00000001800a58b0 f i libucrtd:output.obj
 0001:000a49a0       ?validate_and_update_state_at_end_of_format_string@?$format_validation_base@_WV?$string_output_adapter@_W@__crt_stdio_output@@@__crt_stdio_output@@IEBA_NXZ 00000001800a59a0 f i libucrtd:output.obj
 0001:000a4a90       ?validate_and_update_state_at_end_of_format_string@?$positional_parameter_base@DV?$stream_output_adapter@D@__crt_stdio_output@@@__crt_stdio_output@@IEAA_NXZ 00000001800a5a90 f i libucrtd:output.obj
 0001:000a4cf0       ?validate_and_update_state_at_end_of_format_string@?$positional_parameter_base@DV?$string_output_adapter@D@__crt_stdio_output@@@__crt_stdio_output@@IEAA_NXZ 00000001800a5cf0 f i libucrtd:output.obj
 0001:000a4f50       ?validate_and_update_state_at_end_of_format_string@?$positional_parameter_base@_WV?$stream_output_adapter@_W@__crt_stdio_output@@@__crt_stdio_output@@IEAA_NXZ 00000001800a5f50 f i libucrtd:output.obj
 0001:000a51b0       ?validate_and_update_state_at_end_of_format_string@?$positional_parameter_base@_WV?$string_output_adapter@_W@__crt_stdio_output@@@__crt_stdio_output@@IEAA_NXZ 00000001800a61b0 f i libucrtd:output.obj
 0001:000a5410       ?validate_and_update_state_at_end_of_format_string@?$standard_base@DV?$stream_output_adapter@D@__crt_stdio_output@@@__crt_stdio_output@@IEBA_NXZ 00000001800a6410 f i libucrtd:output.obj
 0001:000a5420       ?validate_and_update_state_at_end_of_format_string@?$standard_base@DV?$string_output_adapter@D@__crt_stdio_output@@@__crt_stdio_output@@IEBA_NXZ 00000001800a6420 f i libucrtd:output.obj
 0001:000a5430       ?validate_and_update_state_at_end_of_format_string@?$standard_base@_WV?$stream_output_adapter@_W@__crt_stdio_output@@@__crt_stdio_output@@IEBA_NXZ 00000001800a6430 f i libucrtd:output.obj
 0001:000a5440       ?validate_and_update_state_at_end_of_format_string@?$standard_base@_WV?$string_output_adapter@_W@__crt_stdio_output@@@__crt_stdio_output@@IEBA_NXZ 00000001800a6440 f i libucrtd:output.obj
 0001:000a5450       ?validate_state_for_type_case_a@?$positional_parameter_base@DV?$stream_output_adapter@D@__crt_stdio_output@@@__crt_stdio_output@@IEAA_NXZ 00000001800a6450 f i libucrtd:output.obj
 0001:000a55d0       ?validate_state_for_type_case_a@?$positional_parameter_base@DV?$string_output_adapter@D@__crt_stdio_output@@@__crt_stdio_output@@IEAA_NXZ 00000001800a65d0 f i libucrtd:output.obj
 0001:000a5750       ?validate_state_for_type_case_a@?$positional_parameter_base@_WV?$stream_output_adapter@_W@__crt_stdio_output@@@__crt_stdio_output@@IEAA_NXZ 00000001800a6750 f i libucrtd:output.obj
 0001:000a58d0       ?validate_state_for_type_case_a@?$positional_parameter_base@_WV?$string_output_adapter@_W@__crt_stdio_output@@@__crt_stdio_output@@IEAA_NXZ 00000001800a68d0 f i libucrtd:output.obj
 0001:000a5a50       ?validate_state_for_type_case_a@?$standard_base@DV?$stream_output_adapter@D@__crt_stdio_output@@@__crt_stdio_output@@IEBA_NXZ 00000001800a6a50 f i libucrtd:output.obj
 0001:000a5a60       ?validate_state_for_type_case_a@?$standard_base@DV?$string_output_adapter@D@__crt_stdio_output@@@__crt_stdio_output@@IEBA_NXZ 00000001800a6a60 f i libucrtd:output.obj
 0001:000a5a70       ?validate_state_for_type_case_a@?$standard_base@_WV?$stream_output_adapter@_W@__crt_stdio_output@@@__crt_stdio_output@@IEBA_NXZ 00000001800a6a70 f i libucrtd:output.obj
 0001:000a5a80       ?validate_state_for_type_case_a@?$standard_base@_WV?$string_output_adapter@_W@__crt_stdio_output@@@__crt_stdio_output@@IEBA_NXZ 00000001800a6a80 f i libucrtd:output.obj
 0001:000a5a90       ?validate_stream_is_ansi_if_required@?$__acrt_stdio_char_traits@D@@SA_NQEAU_iobuf@@@Z 00000001800a6a90 f i libucrtd:output.obj
 0001:000a5c80       ?validate_stream_is_ansi_if_required@?$__acrt_stdio_char_traits@_W@@SA_NQEAU_iobuf@@@Z 00000001800a6c80 f i libucrtd:output.obj
 0001:000a5c90       ?wide_null_string@?$output_processor@DV?$stream_output_adapter@D@__crt_stdio_output@@V?$format_validation_base@DV?$stream_output_adapter@D@__crt_stdio_output@@@2@@__crt_stdio_output@@CAPEA_WXZ 00000001800a6c90 f i libucrtd:output.obj
 0001:000a5ca0       ?wide_null_string@?$output_processor@DV?$stream_output_adapter@D@__crt_stdio_output@@V?$positional_parameter_base@DV?$stream_output_adapter@D@__crt_stdio_output@@@2@@__crt_stdio_output@@CAPEA_WXZ 00000001800a6ca0 f i libucrtd:output.obj
 0001:000a5cb0       ?wide_null_string@?$output_processor@DV?$stream_output_adapter@D@__crt_stdio_output@@V?$standard_base@DV?$stream_output_adapter@D@__crt_stdio_output@@@2@@__crt_stdio_output@@CAPEA_WXZ 00000001800a6cb0 f i libucrtd:output.obj
 0001:000a5cc0       ?wide_null_string@?$output_processor@DV?$string_output_adapter@D@__crt_stdio_output@@V?$format_validation_base@DV?$string_output_adapter@D@__crt_stdio_output@@@2@@__crt_stdio_output@@CAPEA_WXZ 00000001800a6cc0 f i libucrtd:output.obj
 0001:000a5cd0       ?wide_null_string@?$output_processor@DV?$string_output_adapter@D@__crt_stdio_output@@V?$positional_parameter_base@DV?$string_output_adapter@D@__crt_stdio_output@@@2@@__crt_stdio_output@@CAPEA_WXZ 00000001800a6cd0 f i libucrtd:output.obj
 0001:000a5ce0       ?wide_null_string@?$output_processor@DV?$string_output_adapter@D@__crt_stdio_output@@V?$standard_base@DV?$string_output_adapter@D@__crt_stdio_output@@@2@@__crt_stdio_output@@CAPEA_WXZ 00000001800a6ce0 f i libucrtd:output.obj
 0001:000a5cf0       ?wide_null_string@?$output_processor@_WV?$stream_output_adapter@_W@__crt_stdio_output@@V?$format_validation_base@_WV?$stream_output_adapter@_W@__crt_stdio_output@@@2@@__crt_stdio_output@@CAPEA_WXZ 00000001800a6cf0 f i libucrtd:output.obj
 0001:000a5d00       ?wide_null_string@?$output_processor@_WV?$stream_output_adapter@_W@__crt_stdio_output@@V?$positional_parameter_base@_WV?$stream_output_adapter@_W@__crt_stdio_output@@@2@@__crt_stdio_output@@CAPEA_WXZ 00000001800a6d00 f i libucrtd:output.obj
 0001:000a5d10       ?wide_null_string@?$output_processor@_WV?$stream_output_adapter@_W@__crt_stdio_output@@V?$standard_base@_WV?$stream_output_adapter@_W@__crt_stdio_output@@@2@@__crt_stdio_output@@CAPEA_WXZ 00000001800a6d10 f i libucrtd:output.obj
 0001:000a5d20       ?wide_null_string@?$output_processor@_WV?$string_output_adapter@_W@__crt_stdio_output@@V?$format_validation_base@_WV?$string_output_adapter@_W@__crt_stdio_output@@@2@@__crt_stdio_output@@CAPEA_WXZ 00000001800a6d20 f i libucrtd:output.obj
 0001:000a5d30       ?wide_null_string@?$output_processor@_WV?$string_output_adapter@_W@__crt_stdio_output@@V?$positional_parameter_base@_WV?$string_output_adapter@_W@__crt_stdio_output@@@2@@__crt_stdio_output@@CAPEA_WXZ 00000001800a6d30 f i libucrtd:output.obj
 0001:000a5d40       ?wide_null_string@?$output_processor@_WV?$string_output_adapter@_W@__crt_stdio_output@@V?$standard_base@_WV?$string_output_adapter@_W@__crt_stdio_output@@@2@@__crt_stdio_output@@CAPEA_WXZ 00000001800a6d40 f i libucrtd:output.obj
 0001:000a5d50       ?write_character@?$stream_output_adapter@D@__crt_stdio_output@@QEBAXDQEAH@Z 00000001800a6d50 f i libucrtd:output.obj
 0001:000a5e10       ?write_character@?$stream_output_adapter@_W@__crt_stdio_output@@QEBAX_WQEAH@Z 00000001800a6e10 f i libucrtd:output.obj
 0001:000a5ed0       ?write_character@?$string_output_adapter@D@__crt_stdio_output@@QEBA_NDQEAH@Z 00000001800a6ed0 f i libucrtd:output.obj
 0001:000a5fc0       ?write_character@?$string_output_adapter@_W@__crt_stdio_output@@QEBA_N_WQEAH@Z 00000001800a6fc0 f i libucrtd:output.obj
 0001:000a60b0       ?write_stored_string_tchar@?$output_processor@DV?$stream_output_adapter@D@__crt_stdio_output@@V?$format_validation_base@DV?$stream_output_adapter@D@__crt_stdio_output@@@2@@__crt_stdio_output@@AEAA_ND@Z 00000001800a70b0 f i libucrtd:output.obj
 0001:000a6270       ?write_stored_string_tchar@?$output_processor@DV?$stream_output_adapter@D@__crt_stdio_output@@V?$positional_parameter_base@DV?$stream_output_adapter@D@__crt_stdio_output@@@2@@__crt_stdio_output@@AEAA_ND@Z 00000001800a7270 f i libucrtd:output.obj
 0001:000a6430       ?write_stored_string_tchar@?$output_processor@DV?$stream_output_adapter@D@__crt_stdio_output@@V?$standard_base@DV?$stream_output_adapter@D@__crt_stdio_output@@@2@@__crt_stdio_output@@AEAA_ND@Z 00000001800a7430 f i libucrtd:output.obj
 0001:000a65f0       ?write_stored_string_tchar@?$output_processor@DV?$string_output_adapter@D@__crt_stdio_output@@V?$format_validation_base@DV?$string_output_adapter@D@__crt_stdio_output@@@2@@__crt_stdio_output@@AEAA_ND@Z 00000001800a75f0 f i libucrtd:output.obj
 0001:000a67b0       ?write_stored_string_tchar@?$output_processor@DV?$string_output_adapter@D@__crt_stdio_output@@V?$positional_parameter_base@DV?$string_output_adapter@D@__crt_stdio_output@@@2@@__crt_stdio_output@@AEAA_ND@Z 00000001800a77b0 f i libucrtd:output.obj
 0001:000a6970       ?write_stored_string_tchar@?$output_processor@DV?$string_output_adapter@D@__crt_stdio_output@@V?$standard_base@DV?$string_output_adapter@D@__crt_stdio_output@@@2@@__crt_stdio_output@@AEAA_ND@Z 00000001800a7970 f i libucrtd:output.obj
 0001:000a6b30       ?write_stored_string_tchar@?$output_processor@_WV?$stream_output_adapter@_W@__crt_stdio_output@@V?$format_validation_base@_WV?$stream_output_adapter@_W@__crt_stdio_output@@@2@@__crt_stdio_output@@AEAA_N_W@Z 00000001800a7b30 f i libucrtd:output.obj
 0001:000a6cb0       ?write_stored_string_tchar@?$output_processor@_WV?$stream_output_adapter@_W@__crt_stdio_output@@V?$positional_parameter_base@_WV?$stream_output_adapter@_W@__crt_stdio_output@@@2@@__crt_stdio_output@@AEAA_N_W@Z 00000001800a7cb0 f i libucrtd:output.obj
 0001:000a6e30       ?write_stored_string_tchar@?$output_processor@_WV?$stream_output_adapter@_W@__crt_stdio_output@@V?$standard_base@_WV?$stream_output_adapter@_W@__crt_stdio_output@@@2@@__crt_stdio_output@@AEAA_N_W@Z 00000001800a7e30 f i libucrtd:output.obj
 0001:000a6fb0       ?write_stored_string_tchar@?$output_processor@_WV?$string_output_adapter@_W@__crt_stdio_output@@V?$format_validation_base@_WV?$string_output_adapter@_W@__crt_stdio_output@@@2@@__crt_stdio_output@@AEAA_N_W@Z 00000001800a7fb0 f i libucrtd:output.obj
 0001:000a7130       ?write_stored_string_tchar@?$output_processor@_WV?$string_output_adapter@_W@__crt_stdio_output@@V?$positional_parameter_base@_WV?$string_output_adapter@_W@__crt_stdio_output@@@2@@__crt_stdio_output@@AEAA_N_W@Z 00000001800a8130 f i libucrtd:output.obj
 0001:000a72b0       ?write_stored_string_tchar@?$output_processor@_WV?$string_output_adapter@_W@__crt_stdio_output@@V?$standard_base@_WV?$string_output_adapter@_W@__crt_stdio_output@@@2@@__crt_stdio_output@@AEAA_N_W@Z 00000001800a82b0 f i libucrtd:output.obj
 0001:000a7430       ?write_string@?$stream_output_adapter@D@__crt_stdio_output@@QEBAXQEBDHQEAH1@Z 00000001800a8430 f i libucrtd:output.obj
 0001:000a7570       ?write_string@?$stream_output_adapter@_W@__crt_stdio_output@@QEBAXQEB_WHQEAH1@Z 00000001800a8570 f i libucrtd:output.obj
 0001:000a76b0       ?write_string@?$string_output_adapter@D@__crt_stdio_output@@QEBAXQEBDHQEAH1@Z 00000001800a86b0 f i libucrtd:output.obj
 0001:000a7890       ?write_string@?$string_output_adapter@_W@__crt_stdio_output@@QEBAXQEB_WHQEAH1@Z 00000001800a8890 f i libucrtd:output.obj
 0001:000a7a80       __acrt_isleadbyte_l_noupdate 00000001800a8a80 f i libucrtd:output.obj
 0001:000a7ab0       __stdio_common_vfprintf    00000001800a8ab0 f   libucrtd:output.obj
 0001:000a7b00       __stdio_common_vfprintf_p  00000001800a8b00 f   libucrtd:output.obj
 0001:000a7b50       __stdio_common_vfprintf_s  00000001800a8b50 f   libucrtd:output.obj
 0001:000a7ba0       __stdio_common_vfwprintf   00000001800a8ba0 f   libucrtd:output.obj
 0001:000a7bf0       __stdio_common_vfwprintf_p 00000001800a8bf0 f   libucrtd:output.obj
 0001:000a7c40       __stdio_common_vfwprintf_s 00000001800a8c40 f   libucrtd:output.obj
 0001:000a7c90       __stdio_common_vsnprintf_s 00000001800a8c90 f   libucrtd:output.obj
 0001:000a7d00       __stdio_common_vsnwprintf_s 00000001800a8d00 f   libucrtd:output.obj
 0001:000a7d70       __stdio_common_vsprintf    00000001800a8d70 f   libucrtd:output.obj
 0001:000a7dd0       __stdio_common_vsprintf_p  00000001800a8dd0 f   libucrtd:output.obj
 0001:000a7e30       __stdio_common_vsprintf_s  00000001800a8e30 f   libucrtd:output.obj
 0001:000a7e90       __stdio_common_vswprintf   00000001800a8e90 f   libucrtd:output.obj
 0001:000a7ef0       __stdio_common_vswprintf_p 00000001800a8ef0 f   libucrtd:output.obj
 0001:000a7f50       __stdio_common_vswprintf_s 00000001800a8f50 f   libucrtd:output.obj
 0001:000a90c0       _makepath                  00000001800aa0c0 f   libucrtd:makepath.obj
 0001:000a9120       _makepath_s                00000001800aa120 f   libucrtd:makepath.obj
 0001:000a9180       _wmakepath                 00000001800aa180 f   libucrtd:makepath.obj
 0001:000a91e0       _wmakepath_s               00000001800aa1e0 f   libucrtd:makepath.obj
 0001:000abfe0       ??$tcsncpy_s@AEAPEAD_KAEAPEBDAEB_K@?$__crt_char_traits@D@@SAHAEAPEAD$$QEA_KAEAPEBDAEB_K@Z 00000001800acfe0 f i libucrtd:splitpath.obj
 0001:000ac040       ??$tcsncpy_s@AEAPEAD_KAEAPEBDH@?$__crt_char_traits@D@@SAHAEAPEAD$$QEA_KAEAPEBD$$QEAH@Z 00000001800ad040 f i libucrtd:splitpath.obj
 0001:000ac0a0       ??$tcsncpy_s@AEAPEA_W_KAEAPEB_WAEB_K@?$__crt_char_traits@_W@@SAHAEAPEA_W$$QEA_KAEAPEB_WAEB_K@Z 00000001800ad0a0 f i libucrtd:splitpath.obj
 0001:000ac100       ??$tcsncpy_s@AEAPEA_W_KAEAPEB_WH@?$__crt_char_traits@_W@@SAHAEAPEA_W$$QEA_KAEAPEB_W$$QEAH@Z 00000001800ad100 f i libucrtd:splitpath.obj
 0001:000ac3f0       _splitpath                 00000001800ad3f0 f   libucrtd:splitpath.obj
 0001:000ac440       _splitpath_s               00000001800ad440 f   libucrtd:splitpath.obj
 0001:000ac500       _wsplitpath                00000001800ad500 f   libucrtd:splitpath.obj
 0001:000ac550       _wsplitpath_s              00000001800ad550 f   libucrtd:splitpath.obj
 0001:000acc30       wcscpy_s                   00000001800adc30 f   libucrtd:wcscpy_s.obj
 0001:000acc70       _set_abort_behavior        00000001800adc70 f   libucrtd:abort.obj
 0001:000accc0       abort                      00000001800adcc0 f   libucrtd:abort.obj
 0001:000ad360       strcpy_s                   00000001800ae360 f   libucrtd:strcpy_s.obj
 0001:000ad3b0       strcmp                     00000001800ae3b0 f   libucrtd:strcmp.obj
 0001:000ad450       strlen                     00000001800ae450 f   libucrtd:strlen.obj
 0001:000ad530       ??$is_overflow_condition@K@__crt_strtox@@YA_NIK@Z 00000001800ae530 f i libucrtd:atox.obj
 0001:000ad5b0       ??$is_overflow_condition@_K@__crt_strtox@@YA_NI_K@Z 00000001800ae5b0 f i libucrtd:atox.obj
 0001:000ad640       ??$make_c_string_character_source@D$$T@__crt_strtox@@YA?AV?$c_string_character_source@D@0@QEBD$$T@Z 00000001800ae640 f i libucrtd:atox.obj
 0001:000ad680       ??$make_c_string_character_source@_W$$T@__crt_strtox@@YA?AV?$c_string_character_source@_W@0@QEB_W$$T@Z 00000001800ae680 f i libucrtd:atox.obj
 0001:000ad6c0       ??$parse_integer@KV?$c_string_character_source@D@__crt_strtox@@@__crt_strtox@@YAKQEAU__crt_locale_pointers@@V?$c_string_character_source@D@0@H_N@Z 00000001800ae6c0 f i libucrtd:atox.obj
 0001:000adc80       ??$parse_integer@KV?$c_string_character_source@_W@__crt_strtox@@@__crt_strtox@@YAKQEAU__crt_locale_pointers@@V?$c_string_character_source@_W@0@H_N@Z 00000001800aec80 f i libucrtd:atox.obj
 0001:000ae260       ??$parse_integer@_KV?$c_string_character_source@D@__crt_strtox@@@__crt_strtox@@YA_KQEAU__crt_locale_pointers@@V?$c_string_character_source@D@0@H_N@Z 00000001800af260 f i libucrtd:atox.obj
 0001:000ae8c0       ??$parse_integer@_KV?$c_string_character_source@_W@__crt_strtox@@@__crt_strtox@@YA_KQEAU__crt_locale_pointers@@V?$c_string_character_source@_W@0@H_N@Z 00000001800af8c0 f i libucrtd:atox.obj
 0001:000aef30       ??$parse_integer_from_string@JD$$T@__crt_strtox@@YAJQEBD$$THQEAU__crt_locale_pointers@@@Z 00000001800aff30 f i libucrtd:atox.obj
 0001:000aefa0       ??$parse_integer_from_string@J_W$$T@__crt_strtox@@YAJQEB_W$$THQEAU__crt_locale_pointers@@@Z 00000001800affa0 f i libucrtd:atox.obj
 0001:000af010       ??$parse_integer_from_string@_JD$$T@__crt_strtox@@YA_JQEBD$$THQEAU__crt_locale_pointers@@@Z 00000001800b0010 f i libucrtd:atox.obj
 0001:000af080       ??$parse_integer_from_string@_J_W$$T@__crt_strtox@@YA_JQEB_W$$THQEAU__crt_locale_pointers@@@Z 00000001800b0080 f i libucrtd:atox.obj
 0001:000af0f0       ??0?$c_string_character_source@D@__crt_strtox@@QEAA@QEBDQEAPEBD@Z 00000001800b00f0 f i libucrtd:atox.obj
 0001:000af150       ??0?$c_string_character_source@_W@__crt_strtox@@QEAA@QEB_WQEAPEB_W@Z 00000001800b0150 f i libucrtd:atox.obj
 0001:000af1b0       ??1?$c_string_character_source@D@__crt_strtox@@QEAA@XZ 00000001800b01b0 f i libucrtd:atox.obj
 0001:000af1e0       ??1?$c_string_character_source@_W@__crt_strtox@@QEAA@XZ 00000001800b01e0 f i libucrtd:atox.obj
 0001:000af210       ?get@?$c_string_character_source@D@__crt_strtox@@QEAADXZ 00000001800b0210 f i libucrtd:atox.obj
 0001:000af250       ?get@?$c_string_character_source@_W@__crt_strtox@@QEAA_WXZ 00000001800b0250 f i libucrtd:atox.obj
 0001:000af2a0       ?is_space@__crt_strtox@@YA_NDQEAU__crt_locale_pointers@@@Z 00000001800b02a0 f i libucrtd:atox.obj
 0001:000af300       ?is_space@__crt_strtox@@YA_N_WPEAU__crt_locale_pointers@@@Z 00000001800b0300 f i libucrtd:atox.obj
 0001:000af350       ?maximum_signed_value@__crt_strtox@@YAJK@Z 00000001800b0350 f i libucrtd:atox.obj
 0001:000af360       ?maximum_signed_value@__crt_strtox@@YA_J_K@Z 00000001800b0360 f i libucrtd:atox.obj
 0001:000af380       ?minimum_signed_value@__crt_strtox@@YAJK@Z 00000001800b0380 f i libucrtd:atox.obj
 0001:000af390       ?minimum_signed_value@__crt_strtox@@YA_J_K@Z 00000001800b0390 f i libucrtd:atox.obj
 0001:000af3b0       ?parse_digit@__crt_strtox@@YAID@Z 00000001800b03b0 f i libucrtd:atox.obj
 0001:000af430       ?parse_digit@__crt_strtox@@YAI_W@Z 00000001800b0430 f i libucrtd:atox.obj
 0001:000af4e0       ?restore_state@?$c_string_character_source@D@__crt_strtox@@QEAA_NQEBD@Z 00000001800b04e0 f i libucrtd:atox.obj
 0001:000af500       ?restore_state@?$c_string_character_source@_W@__crt_strtox@@QEAA_NQEB_W@Z 00000001800b0500 f i libucrtd:atox.obj
 0001:000af520       ?save_state@?$c_string_character_source@D@__crt_strtox@@QEBAPEBDXZ 00000001800b0520 f i libucrtd:atox.obj
 0001:000af540       ?save_state@?$c_string_character_source@_W@__crt_strtox@@QEBAPEB_WXZ 00000001800b0540 f i libucrtd:atox.obj
 0001:000af560       ?unget@?$c_string_character_source@D@__crt_strtox@@QEAAXD@Z 00000001800b0560 f i libucrtd:atox.obj
 0001:000af670       ?unget@?$c_string_character_source@_W@__crt_strtox@@QEAAX_W@Z 00000001800b0670 f i libucrtd:atox.obj
 0001:000af780       ?validate@?$c_string_character_source@D@__crt_strtox@@QEBA_NXZ 00000001800b0780 f i libucrtd:atox.obj
 0001:000af870       ?validate@?$c_string_character_source@_W@__crt_strtox@@QEBA_NXZ 00000001800b0870 f i libucrtd:atox.obj
 0001:000af960       ?wide_character_to_digit@__crt_strtox@@YAH_W@Z 00000001800b0960 f i libucrtd:atox.obj
 0001:000afda0       _atoi64                    00000001800b0da0 f   libucrtd:atox.obj
 0001:000afdd0       _atoi64_l                  00000001800b0dd0 f   libucrtd:atox.obj
 0001:000afe10       _atoi_l                    00000001800b0e10 f   libucrtd:atox.obj
 0001:000afe50       _atol_l                    00000001800b0e50 f   libucrtd:atox.obj
 0001:000afe90       _atoll_l                   00000001800b0e90 f   libucrtd:atox.obj
 0001:000afed0       _wtoi                      00000001800b0ed0 f   libucrtd:atox.obj
 0001:000aff00       _wtoi64                    00000001800b0f00 f   libucrtd:atox.obj
 0001:000aff30       _wtoi64_l                  00000001800b0f30 f   libucrtd:atox.obj
 0001:000aff70       _wtoi_l                    00000001800b0f70 f   libucrtd:atox.obj
 0001:000affb0       _wtol                      00000001800b0fb0 f   libucrtd:atox.obj
 0001:000affe0       _wtol_l                    00000001800b0fe0 f   libucrtd:atox.obj
 0001:000b0020       _wtoll                     00000001800b1020 f   libucrtd:atox.obj
 0001:000b0050       _wtoll_l                   00000001800b1050 f   libucrtd:atox.obj
 0001:000b0090       atoi                       00000001800b1090 f   libucrtd:atox.obj
 0001:000b00c0       atol                       00000001800b10c0 f   libucrtd:atox.obj
 0001:000b00f0       atoll                      00000001800b10f0 f   libucrtd:atox.obj
 0001:000b0120       _add_exp                   00000001800b1120 f   libucrtd:util.obj
 0001:000b0170       _decomp                    00000001800b1170 f   libucrtd:util.obj
 0001:000b0310       _get_exp                   00000001800b1310 f   libucrtd:util.obj
 0001:000b0350       _set_bexp                  00000001800b1350 f   libucrtd:util.obj
 0001:000b03a0       _set_exp                   00000001800b13a0 f   libucrtd:util.obj
 0001:000b0400       _sptype                    00000001800b1400 f   libucrtd:util.obj
 0001:000b04a0       _clrfp                     00000001800b14a0 f   libucrtd:fpctrl.obj
 0001:000b04d0       _ctrlfp                    00000001800b14d0 f   libucrtd:fpctrl.obj
 0001:000b05b0       _set_statfp                00000001800b15b0 f   libucrtd:fpctrl.obj
 0001:000b0600       _statfp                    00000001800b1600 f   libucrtd:fpctrl.obj
 0001:000b0870       _handle_error              00000001800b1870 f   libucrtd:libm_error.obj
 0001:000b0a60       _handle_errorf             00000001800b1a60 f   libucrtd:libm_error.obj
 0001:000b0c50       _handle_nan                00000001800b1c50 f   libucrtd:libm_error.obj
 0001:000b0cb0       _handle_nanf               00000001800b1cb0 f   libucrtd:libm_error.obj
 0001:000b0cf0       nextafter                  00000001800b1cf0 f   libucrtd:nextafter.obj
 0001:000b0d20       nextafterf                 00000001800b1d20 f   libucrtd:nextafterf.obj
 0001:000b0d60       ??$__crt_fast_decode_pointer@P6AXPEB_W00I_K@Z@@YAP6AXPEB_W00I_K@ZQ6AX000I1@Z@Z 00000001800b1d60 f i libucrtd:invalid_parameter.obj
 0001:000b0db0       ??$__crt_fast_encode_pointer@P6AXPEB_W00I_K@Z@@YAP6AXPEB_W00I_K@ZQ6AX000I1@Z@Z 00000001800b1db0 f i libucrtd:invalid_parameter.obj
 0001:000b0ec0       ?initialize@?$dual_state_global@P6AXPEB_W00I_K@Z@__crt_state_management@@QEAAXQ6AXPEB_W00I_K@Z@Z 00000001800b1ec0 f i libucrtd:invalid_parameter.obj
 0001:000b0f20       ?value@?$dual_state_global@P6AXPEB_W00I_K@Z@__crt_state_management@@QEAAAEAP6AXPEB_W00I_K@ZXZ 00000001800b1f20 f i libucrtd:invalid_parameter.obj
 0001:000b0f50       __acrt_call_reportfault    00000001800b1f50 f   libucrtd:invalid_parameter.obj
 0001:000b10d0       __acrt_initialize_invalid_parameter_handler 00000001800b20d0 f   libucrtd:invalid_parameter.obj
 0001:000b1100       _get_invalid_parameter_handler 00000001800b2100 f   libucrtd:invalid_parameter.obj
 0001:000b1130       _get_thread_local_invalid_parameter_handler 00000001800b2130 f   libucrtd:invalid_parameter.obj
 0001:000b1170       _invalid_parameter         00000001800b2170 f   libucrtd:invalid_parameter.obj
 0001:000b12c0       _invalid_parameter_noinfo  00000001800b22c0 f   libucrtd:invalid_parameter.obj
 0001:000b12f0       _invalid_parameter_noinfo_noreturn 00000001800b22f0 f   libucrtd:invalid_parameter.obj
 0001:000b1340       _invoke_watson             00000001800b2340 f   libucrtd:invalid_parameter.obj
 0001:000b13c0       _set_invalid_parameter_handler 00000001800b23c0 f   libucrtd:invalid_parameter.obj
 0001:000b1430       _set_thread_local_invalid_parameter_handler 00000001800b2430 f   libucrtd:invalid_parameter.obj
 0001:000b1480       _CrtGetReportHook          00000001800b2480 f   libucrtd:dbgrptt.obj
 0001:000b1490       _CrtSetReportFile          00000001800b2490 f   libucrtd:dbgrptt.obj
 0001:000b1640       _CrtSetReportHook          00000001800b2640 f   libucrtd:dbgrptt.obj
 0001:000b1680       _CrtSetReportMode          00000001800b2680 f   libucrtd:dbgrptt.obj
 0001:000b18a0       _VCrtDbgReportA            00000001800b28a0 f   libucrtd:dbgrptt.obj
 0001:000b2540       _VCrtDbgReportW            00000001800b3540 f   libucrtd:dbgrptt.obj
 0001:000b33c0       _snprintf_s                00000001800b43c0 f i libucrtd:dbgrptt.obj
 0001:000b3450       _vsnprintf_s               00000001800b4450 f i libucrtd:dbgrptt.obj
 0001:000b34b0       _vsnprintf_s_l             00000001800b44b0 f i libucrtd:dbgrptt.obj
 0001:000b3550       _vsnwprintf_s              00000001800b4550 f i libucrtd:dbgrptt.obj
 0001:000b35b0       __acrt_errno_from_os_error 00000001800b45b0 f   libucrtd:errno.obj
 0001:000b3660       __acrt_errno_map_os_error  00000001800b4660 f   libucrtd:errno.obj
 0001:000b36a0       __doserrno                 00000001800b46a0 f   libucrtd:errno.obj
 0001:000b36e0       _errno                     00000001800b46e0 f   libucrtd:errno.obj
 0001:000b3720       _get_doserrno              00000001800b4720 f   libucrtd:errno.obj
 0001:000b3810       _get_errno                 00000001800b4810 f   libucrtd:errno.obj
 0001:000b3900       _set_doserrno              00000001800b4900 f   libucrtd:errno.obj
 0001:000b3940       _set_errno                 00000001800b4940 f   libucrtd:errno.obj
 0001:000b3980       wcslen                     00000001800b4980 f   libucrtd:wcslen.obj
 0001:000b3ed0       ??$message_box@$$TAEAPEBDAEAPEBDAEAI@?$__crt_char_traits@D@@SAH$$QEA$$TAEAPEBD1AEAI@Z 00000001800b4ed0 f i libucrtd:crtmbox.obj
 0001:000b3f30       ??$message_box@$$TAEAPEB_WAEAPEB_WAEAI@?$__crt_char_traits@_W@@SAH$$QEA$$TAEAPEB_W1AEAI@Z 00000001800b4f30 f i libucrtd:crtmbox.obj
 0001:000b3f90       ??$message_box@$$TAEBQEBDAEBQEBDK@?$__crt_char_traits@D@@SAH$$QEA$$TAEBQEBD1$$QEAK@Z 00000001800b4f90 f i libucrtd:crtmbox.obj
 0001:000b3ff0       ??$message_box@$$TAEBQEB_WAEBQEB_WK@?$__crt_char_traits@_W@@SAH$$QEA$$TAEBQEB_W1$$QEAK@Z 00000001800b4ff0 f i libucrtd:crtmbox.obj
 0001:000b4050       ??$message_box@PEAUHWND__@@AEBQEBDAEBQEBDAEBI@?$__crt_char_traits@D@@SAH$$QEAPEAUHWND__@@AEBQEBD1AEBI@Z 00000001800b5050 f i libucrtd:crtmbox.obj
 0001:000b40b0       ??$message_box@PEAUHWND__@@AEBQEB_WAEBQEB_WAEBI@?$__crt_char_traits@_W@@SAH$$QEAPEAUHWND__@@AEBQEB_W1AEBI@Z 00000001800b50b0 f i libucrtd:crtmbox.obj
 0001:000b41f0       ??$output_debug_string@AEBQEBD@?$__crt_char_traits@D@@SAXAEBQEBD@Z 00000001800b51f0 f i libucrtd:crtmbox.obj
 0001:000b4220       ??$output_debug_string@AEBQEB_W@?$__crt_char_traits@_W@@SAXAEBQEB_W@Z 00000001800b5220 f i libucrtd:crtmbox.obj
 0001:000b4250       ??0?$__crt_unique_handle_t@U__crt_handle_traits@@@@QEAA@QEAX@Z 00000001800b5250 f i libucrtd:crtmbox.obj
 0001:000b4280       ??1?$__crt_unique_handle_t@U__crt_handle_traits@@@@QEAA@XZ 00000001800b5280 f i libucrtd:crtmbox.obj
 0001:000b42a0       ??B?$__crt_unique_handle_t@U__crt_handle_traits@@@@QEBA_NXZ 00000001800b52a0 f i libucrtd:crtmbox.obj
 0001:000b42c0       ?close@?$__crt_unique_handle_t@U__crt_handle_traits@@@@QEAAXXZ 00000001800b52c0 f i libucrtd:crtmbox.obj
 0001:000b4310       ?close@__crt_handle_traits@@SA_NPEAX@Z 00000001800b5310 f i libucrtd:crtmbox.obj
 0001:000b4360       ?get@?$__crt_unique_handle_t@U__crt_handle_traits@@@@QEBAPEAXXZ 00000001800b5360 f i libucrtd:crtmbox.obj
 0001:000b4380       ?get_invalid_value@__crt_handle_traits@@SAPEAXXZ 00000001800b5380 f i libucrtd:crtmbox.obj
 0001:000b4390       ?is_valid@?$__crt_unique_handle_t@U__crt_handle_traits@@@@QEBA_NXZ 00000001800b5390 f i libucrtd:crtmbox.obj
 0001:000b43e0       __acrt_show_narrow_message_box 00000001800b53e0 f   libucrtd:crtmbox.obj
 0001:000b4420       __acrt_show_wide_message_box 00000001800b5420 f   libucrtd:crtmbox.obj
 0001:000b4460       __acrt_initialize_locks    00000001800b5460 f   libucrtd:locks.obj
 0001:000b44f0       __acrt_lock                00000001800b54f0 f   libucrtd:locks.obj
 0001:000b4530       __acrt_uninitialize_locks  00000001800b5530 f   libucrtd:locks.obj
 0001:000b45b0       __acrt_unlock              00000001800b55b0 f   libucrtd:locks.obj
 0001:000b45f0       _lock_locales              00000001800b55f0 f   libucrtd:locks.obj
 0001:000b4610       _unlock_locales            00000001800b5610 f   libucrtd:locks.obj
 0001:000b4630       ??$?B$$A6AXH@Z@__crt_fast_encoded_nullptr_t@@QEBAP6AXH@ZXZ 00000001800b5630 f i libucrtd:signal.obj
 0001:000b4650       ??$?RV<lambda_c36588078e9f5dfd39652860aa6b3aaf>@@AEAV<lambda_ec61778202f4f5fc7e7711acc23c3bca>@@V<lambda_dc9d2797ccde5d239b4a0efae8ebd7db>@@@?$__crt_seh_guarded_call@P6AXH@Z@@QEAAP6AXH@Z$$QEAV<lambda_c36588078e9f5dfd39652860aa6b3aaf>@@AEAV<lambda_ec61778202f4f5fc7e7711acc23c3bca>@@$$QEAV<lambda_dc9d2797ccde5d239b4a0efae8ebd7db>@@@Z 00000001800b5650 f i libucrtd:signal.obj
 0001:000b46c0       ??$__acrt_lock_and_call@V<lambda_ec61778202f4f5fc7e7711acc23c3bca>@@@@YAP6AXH@ZW4__acrt_lock_id@@$$QEAV<lambda_ec61778202f4f5fc7e7711acc23c3bca>@@@Z 00000001800b56c0 f i libucrtd:signal.obj
 0001:000b4740       ??$__crt_fast_decode_pointer@P6AXH@Z@@YAP6AXH@ZQ6AXH@Z@Z 00000001800b5740 f i libucrtd:signal.obj
 0001:000b4790       ??$__crt_fast_encode_pointer@P6AXH@Z@@YAP6AXH@ZQ6AXH@Z@Z 00000001800b5790 f i libucrtd:signal.obj
 0001:000b4aa0       ?initialize@?$dual_state_global@P6AXH@Z@__crt_state_management@@QEAAXQ6AXH@Z@Z 00000001800b5aa0 f i libucrtd:signal.obj
 0001:000b4be0       ?value@?$dual_state_global@P6AXH@Z@__crt_state_management@@QEAAAEAP6AXH@ZXZ 00000001800b5be0 f i libucrtd:signal.obj
 0001:000b4c10       __acrt_get_sigabrt_handler 00000001800b5c10 f   libucrtd:signal.obj
 0001:000b4c30       __acrt_initialize_signal_handlers 00000001800b5c30 f   libucrtd:signal.obj
 0001:000b4ca0       __fpecode                  00000001800b5ca0 f   libucrtd:signal.obj
 0001:000b4cc0       __pxcptinfoptrs            00000001800b5cc0 f   libucrtd:signal.obj
 0001:000b4ce0       raise                      00000001800b5ce0 f   libucrtd:signal.obj
 0001:000b52f0       signal                     00000001800b62f0 f   libucrtd:signal.obj
 0001:000b5690       ??$?B$$A6AH_K@Z@__crt_fast_encoded_nullptr_t@@QEBAP6AH_K@ZXZ 00000001800b6690 f i libucrtd:new_handler.obj
 0001:000b56b0       ??$__crt_fast_decode_pointer@P6AH_K@Z@@YAP6AH_K@ZQ6AH0@Z@Z 00000001800b66b0 f i libucrtd:new_handler.obj
 0001:000b5700       ??$__crt_fast_encode_pointer@P6AH_K@Z@@YAP6AH_K@ZQ6AH0@Z@Z 00000001800b6700 f i libucrtd:new_handler.obj
 0001:000b5750       ?_set_new_handler@@YAP6AH_K@ZH@Z 00000001800b6750 f   libucrtd:new_handler.obj
 0001:000b57e0       ?initialize@?$dual_state_global@P6AH_K@Z@__crt_state_management@@QEAAXQ6AH_K@Z@Z 00000001800b67e0 f i libucrtd:new_handler.obj
 0001:000b5840       ?value@?$dual_state_global@P6AH_K@Z@__crt_state_management@@QEAAAEAP6AH_K@ZXZ 00000001800b6840 f i libucrtd:new_handler.obj
 0001:000b5870       __acrt_initialize_new_handler 00000001800b6870 f   libucrtd:new_handler.obj
 0001:000b58a0       _callnewh                  00000001800b68a0 f   libucrtd:new_handler.obj
 0001:000b5900       _query_new_handler         00000001800b6900 f   libucrtd:new_handler.obj
 0001:000b5950       _set_new_handler           00000001800b6950 f   libucrtd:new_handler.obj
 0001:000b59d0       ??$__crt_interlocked_exchange_pointer@X$$T@@YAPEAXPEDSEAX$$T@Z 00000001800b69d0 f i libucrtd:free_base.obj
 0001:000b59f0       ?__crt_interlocked_read_64@@YA_JPED_J@Z 00000001800b69f0 f i libucrtd:free_base.obj
 0001:000b5a30       __acrt_get_msvcrt_heap_handle 00000001800b6a30 f   libucrtd:free_base.obj
 0001:000b5b30       _free_base                 00000001800b6b30 f   libucrtd:free_base.obj
 0001:000b5ba0       _msize                     00000001800b6ba0 f   libucrtd:msize.obj
 0001:000b5bd0       _realloc_base              00000001800b6bd0 f   libucrtd:realloc_base.obj
 0001:000b5cb0       _aligned_free              00000001800b6cb0 f   libucrtd:align.obj
 0001:000b5cd0       _aligned_free_base         00000001800b6cd0 f   libucrtd:align.obj
 0001:000b5d30       _aligned_malloc            00000001800b6d30 f   libucrtd:align.obj
 0001:000b5d70       _aligned_malloc_base       00000001800b6d70 f   libucrtd:align.obj
 0001:000b5da0       _aligned_msize             00000001800b6da0 f   libucrtd:align.obj
 0001:000b5de0       _aligned_msize_base        00000001800b6de0 f   libucrtd:align.obj
 0001:000b6030       _aligned_offset_malloc     00000001800b7030 f   libucrtd:align.obj
 0001:000b6080       _aligned_offset_malloc_base 00000001800b7080 f   libucrtd:align.obj
 0001:000b63d0       _aligned_offset_realloc    00000001800b73d0 f   libucrtd:align.obj
 0001:000b6430       _aligned_offset_realloc_base 00000001800b7430 f   libucrtd:align.obj
 0001:000b6a40       _aligned_offset_recalloc   00000001800b7a40 f   libucrtd:align.obj
 0001:000b6ab0       _aligned_offset_recalloc_base 00000001800b7ab0 f   libucrtd:align.obj
 0001:000b6bf0       _aligned_realloc           00000001800b7bf0 f   libucrtd:align.obj
 0001:000b6c40       _aligned_realloc_base      00000001800b7c40 f   libucrtd:align.obj
 0001:000b6c80       _aligned_recalloc          00000001800b7c80 f   libucrtd:align.obj
 0001:000b6cf0       _aligned_recalloc_base     00000001800b7cf0 f   libucrtd:align.obj
 0001:000b6d40       _chvalidator               00000001800b7d40 f   libucrtd:isctype.obj
 0001:000b6dd0       _chvalidator_l             00000001800b7dd0 f   libucrtd:isctype.obj
 0001:000b6ee0       _isctype                   00000001800b7ee0 f   libucrtd:isctype.obj
 0001:000b6f40       _isctype_l                 00000001800b7f40 f   libucrtd:isctype.obj
 0001:000b71f0       ??$?RU__acrt_ptd@@@__crt_internal_free_policy@@QEBAXQEBU__acrt_ptd@@@Z 00000001800b81f0 f i libucrtd:per_thread_data.obj
 0001:000b7220       ??$?RV<lambda_5e887d1dcbef67a5eb4283622ba103bf>@@AEAV<lambda_4466841279450cc726390878d4a41900>@@V<lambda_341c25c0346d94847f1f3c463c57e077>@@@?$__crt_seh_guarded_call@X@@QEAAX$$QEAV<lambda_5e887d1dcbef67a5eb4283622ba103bf>@@AEAV<lambda_4466841279450cc726390878d4a41900>@@$$QEAV<lambda_341c25c0346d94847f1f3c463c57e077>@@@Z 00000001800b8220 f i libucrtd:per_thread_data.obj
 0001:000b7270       ??$?RV<lambda_72d1df2b273a38828b1ce30cbf4cdab5>@@AEAV<lambda_876a65b173b8412d3a47c70a915b0cf4>@@V<lambda_41932305e351933ebe8f8be3ed8bb5dc>@@@?$__crt_seh_guarded_call@X@@QEAAX$$QEAV<lambda_72d1df2b273a38828b1ce30cbf4cdab5>@@AEAV<lambda_876a65b173b8412d3a47c70a915b0cf4>@@$$QEAV<lambda_41932305e351933ebe8f8be3ed8bb5dc>@@@Z 00000001800b8270 f i libucrtd:per_thread_data.obj
 0001:000b72c0       ??$?RV<lambda_8773731b9ba2edf4362dda13ebc82854>@@AEAV<lambda_6ac21da2756cd333d25ba1adc9a0001e>@@V<lambda_2c95662d60720604e97e3009a1ee1859>@@@?$__crt_seh_guarded_call@X@@QEAAX$$QEAV<lambda_8773731b9ba2edf4362dda13ebc82854>@@AEAV<lambda_6ac21da2756cd333d25ba1adc9a0001e>@@$$QEAV<lambda_2c95662d60720604e97e3009a1ee1859>@@@Z 00000001800b82c0 f i libucrtd:per_thread_data.obj
 0001:000b7310       ??$?RV<lambda_fb3a7dec4e47f37f22dae91bb15c9095>@@AEAV<lambda_698284760c8add0bfb0756c19673e34b>@@V<lambda_dfb8eca1e75fef3034a8fb18dd509707>@@@?$__crt_seh_guarded_call@X@@QEAAX$$QEAV<lambda_fb3a7dec4e47f37f22dae91bb15c9095>@@AEAV<lambda_698284760c8add0bfb0756c19673e34b>@@$$QEAV<lambda_dfb8eca1e75fef3034a8fb18dd509707>@@@Z 00000001800b8310 f i libucrtd:per_thread_data.obj
 0001:000b7360       ??$__acrt_lock_and_call@V<lambda_4466841279450cc726390878d4a41900>@@@@YAXW4__acrt_lock_id@@$$QEAV<lambda_4466841279450cc726390878d4a41900>@@@Z 00000001800b8360 f i libucrtd:per_thread_data.obj
 0001:000b73e0       ??$__acrt_lock_and_call@V<lambda_698284760c8add0bfb0756c19673e34b>@@@@YAXW4__acrt_lock_id@@$$QEAV<lambda_698284760c8add0bfb0756c19673e34b>@@@Z 00000001800b83e0 f i libucrtd:per_thread_data.obj
 0001:000b7460       ??$__acrt_lock_and_call@V<lambda_6ac21da2756cd333d25ba1adc9a0001e>@@@@YAXW4__acrt_lock_id@@$$QEAV<lambda_6ac21da2756cd333d25ba1adc9a0001e>@@@Z 00000001800b8460 f i libucrtd:per_thread_data.obj
 0001:000b74e0       ??$__acrt_lock_and_call@V<lambda_876a65b173b8412d3a47c70a915b0cf4>@@@@YAXW4__acrt_lock_id@@$$QEAV<lambda_876a65b173b8412d3a47c70a915b0cf4>@@@Z 00000001800b84e0 f i libucrtd:per_thread_data.obj
 0001:000b77b0       ??0?$__crt_unique_heap_ptr@U__acrt_ptd@@U__crt_internal_free_policy@@@@QEAA@QEAU__acrt_ptd@@@Z 00000001800b87b0 f i libucrtd:per_thread_data.obj
 0001:000b77e0       ??0__crt_scoped_get_last_error_reset@@QEAA@XZ 00000001800b87e0 f i libucrtd:per_thread_data.obj
 0001:000b7810       ??1?$__crt_unique_heap_ptr@U__acrt_ptd@@U__crt_internal_free_policy@@@@QEAA@XZ 00000001800b8810 f i libucrtd:per_thread_data.obj
 0001:000b7830       ??1__crt_scoped_get_last_error_reset@@QEAA@XZ 00000001800b8830 f i libucrtd:per_thread_data.obj
 0001:000b7860       ??B?$__crt_unique_heap_ptr@U__acrt_ptd@@U__crt_internal_free_policy@@@@QEBA_NXZ 00000001800b8860 f i libucrtd:per_thread_data.obj
 0001:000b7c30       ?dangerous_get_state_array@?$dual_state_global@PEAU__crt_locale_data@@@__crt_state_management@@QEAAPEAPEAU__crt_locale_data@@XZ 00000001800b8c30 f i libucrtd:per_thread_data.obj
 0001:000b7e40       ?detach@?$__crt_unique_heap_ptr@U__acrt_ptd@@U__crt_internal_free_policy@@@@QEAAPEAU__acrt_ptd@@XZ 00000001800b8e40 f i libucrtd:per_thread_data.obj
 0001:000b7e80       ?get@?$__crt_unique_heap_ptr@U__acrt_ptd@@U__crt_internal_free_policy@@@@QEBAPEAU__acrt_ptd@@XZ 00000001800b8e80 f i libucrtd:per_thread_data.obj
 0001:000b8050       ?is_valid@?$__crt_unique_heap_ptr@U__acrt_ptd@@U__crt_internal_free_policy@@@@QEBA_NXZ 00000001800b9050 f i libucrtd:per_thread_data.obj
 0001:000b8090       ?release@?$__crt_unique_heap_ptr@U__acrt_ptd@@U__crt_internal_free_policy@@@@QEAAXXZ 00000001800b9090 f i libucrtd:per_thread_data.obj
 0001:000b8220       ?value@?$dual_state_global@PEAU__crt_locale_data@@@__crt_state_management@@QEAAAEAPEAU__crt_locale_data@@XZ 00000001800b9220 f i libucrtd:per_thread_data.obj
 0001:000b8250       __acrt_freeptd             00000001800b9250 f   libucrtd:per_thread_data.obj
 0001:000b82a0       __acrt_getptd              00000001800b92a0 f   libucrtd:per_thread_data.obj
 0001:000b82d0       __acrt_getptd_noexit       00000001800b92d0 f   libucrtd:per_thread_data.obj
 0001:000b82f0       __acrt_initialize_ptd      00000001800b92f0 f   libucrtd:per_thread_data.obj
 0001:000b8340       __acrt_uninitialize_ptd    00000001800b9340 f   libucrtd:per_thread_data.obj
 0001:000b8380       __threadhandle             00000001800b9380 f   libucrtd:per_thread_data.obj
 0001:000b83a0       __threadid                 00000001800b93a0 f   libucrtd:per_thread_data.obj
 0001:000b8430       _expand                    00000001800b9430 f   libucrtd:expand.obj
 0001:000b8470       _expand_base               00000001800b9470 f   libucrtd:expand.obj
 0001:000b8660       __acrt_update_locale_info  00000001800b9660 f   libucrtd:locale_update.obj
 0001:000b86d0       __acrt_update_multibyte_info 00000001800b96d0 f   libucrtd:locale_update.obj
 0001:000b8730       ?value@?$dual_state_global@J@__crt_state_management@@QEAAAEAJXZ 00000001800b9730 f i libucrtd:new_mode.obj
 0001:000b8760       _query_new_mode            00000001800b9760 f   libucrtd:new_mode.obj
 0001:000b8790       _set_new_mode              00000001800b9790 f   libucrtd:new_mode.obj
 0001:000b8890       _CrtDefaultAllocHook       00000001800b9890 f   libucrtd:debug_heap_hook.obj
 0001:000b88c0       ??$?RU__crt_locale_data@@@__crt_internal_free_policy@@QEBAXQEBU__crt_locale_data@@@Z 00000001800b98c0 f i libucrtd:wsetlocale.obj
 0001:000b88f0       ??$?RU__crt_locale_pointers@@@__crt_internal_free_policy@@QEBAXQEBU__crt_locale_pointers@@@Z 00000001800b98f0 f i libucrtd:wsetlocale.obj
 0001:000b8920       ??$?RU__crt_multibyte_data@@@__crt_internal_free_policy@@QEBAXQEBU__crt_multibyte_data@@@Z 00000001800b9920 f i libucrtd:wsetlocale.obj
 0001:000b8950       ??$?RV<lambda_042cd79da8f77d205c09f1121d22619e>@@AEAV<lambda_565169b3e3b494427ce1bebdd17b54ac>@@AEAV<lambda_f51fe5fd7c79a33db34fc9310f277369>@@@?$__crt_seh_guarded_call@X@@QEAAX$$QEAV<lambda_042cd79da8f77d205c09f1121d22619e>@@AEAV<lambda_565169b3e3b494427ce1bebdd17b54ac>@@AEAV<lambda_f51fe5fd7c79a33db34fc9310f277369>@@@Z 00000001800b9950 f i libucrtd:wsetlocale.obj
 0001:000b89a0       ??$?RV<lambda_3e0436e1742da57cd73032a8c01babf8>@@AEAV<lambda_b7fb1a997d3ebc0cc0186c5835178808>@@V<lambda_eece23d6871d1810c6784d81edd5a05e>@@@?$__crt_seh_guarded_call@X@@QEAAX$$QEAV<lambda_3e0436e1742da57cd73032a8c01babf8>@@AEAV<lambda_b7fb1a997d3ebc0cc0186c5835178808>@@$$QEAV<lambda_eece23d6871d1810c6784d81edd5a05e>@@@Z 00000001800b99a0 f i libucrtd:wsetlocale.obj
 0001:000b89f0       ??$?RV<lambda_ede63489d7330338e618311e15f0c366>@@AEAV<lambda_176e34f99554166dd2fac165c457248c>@@V<lambda_b0463272cb7667df9361a74a62ea8ca5>@@@?$__crt_seh_guarded_call@X@@QEAAX$$QEAV<lambda_ede63489d7330338e618311e15f0c366>@@AEAV<lambda_176e34f99554166dd2fac165c457248c>@@$$QEAV<lambda_b0463272cb7667df9361a74a62ea8ca5>@@@Z 00000001800b99f0 f i libucrtd:wsetlocale.obj
 0001:000b8a40       ??$?RV<lambda_f622fd27d9451bffac5828193bdf6d20>@@AEAV<lambda_8ab6264a511d5dc8fee4743c3512d536>@@V<lambda_30a745c57dc0def3d1b1ce039b8a3c19>@@@?$__crt_seh_guarded_call@X@@QEAAX$$QEAV<lambda_f622fd27d9451bffac5828193bdf6d20>@@AEAV<lambda_8ab6264a511d5dc8fee4743c3512d536>@@$$QEAV<lambda_30a745c57dc0def3d1b1ce039b8a3c19>@@@Z 00000001800b9a40 f i libucrtd:wsetlocale.obj
 0001:000b8a90       ??$__acrt_lock_and_call@V<lambda_176e34f99554166dd2fac165c457248c>@@@@YAXW4__acrt_lock_id@@$$QEAV<lambda_176e34f99554166dd2fac165c457248c>@@@Z 00000001800b9a90 f i libucrtd:wsetlocale.obj
 0001:000b8b10       ??$__acrt_lock_and_call@V<lambda_8ab6264a511d5dc8fee4743c3512d536>@@@@YAXW4__acrt_lock_id@@$$QEAV<lambda_8ab6264a511d5dc8fee4743c3512d536>@@@Z 00000001800b9b10 f i libucrtd:wsetlocale.obj
 0001:000b8b90       ??$__acrt_lock_and_call@V<lambda_b7fb1a997d3ebc0cc0186c5835178808>@@@@YAXW4__acrt_lock_id@@$$QEAV<lambda_b7fb1a997d3ebc0cc0186c5835178808>@@@Z 00000001800b9b90 f i libucrtd:wsetlocale.obj
 0001:000b8c10       ??$__crt_call_and_cleanup@V<lambda_565169b3e3b494427ce1bebdd17b54ac>@@V<lambda_f51fe5fd7c79a33db34fc9310f277369>@@@@YAX$$QEAV<lambda_565169b3e3b494427ce1bebdd17b54ac>@@$$QEAV<lambda_f51fe5fd7c79a33db34fc9310f277369>@@@Z 00000001800b9c10 f i libucrtd:wsetlocale.obj
 0001:000b8c60       ??$__vcrt_va_start_verify_argument_type@H@@YAXXZ 00000001800b9c60 f i libucrtd:wsetlocale.obj
 0001:000b8f20       ??0?$__crt_unique_heap_ptr@U__crt_locale_data@@U__crt_internal_free_policy@@@@QEAA@QEAU__crt_locale_data@@@Z 00000001800b9f20 f i libucrtd:wsetlocale.obj
 0001:000b8f50       ??0?$__crt_unique_heap_ptr@U__crt_locale_pointers@@U__crt_internal_free_policy@@@@QEAA@QEAU__crt_locale_pointers@@@Z 00000001800b9f50 f i libucrtd:wsetlocale.obj
 0001:000b8f80       ??0?$__crt_unique_heap_ptr@U__crt_multibyte_data@@U__crt_internal_free_policy@@@@QEAA@QEAU__crt_multibyte_data@@@Z 00000001800b9f80 f i libucrtd:wsetlocale.obj
 0001:000b8fb0       ??1?$__crt_unique_heap_ptr@U__crt_locale_data@@U__crt_internal_free_policy@@@@QEAA@XZ 00000001800b9fb0 f i libucrtd:wsetlocale.obj
 0001:000b8fd0       ??1?$__crt_unique_heap_ptr@U__crt_locale_pointers@@U__crt_internal_free_policy@@@@QEAA@XZ 00000001800b9fd0 f i libucrtd:wsetlocale.obj
 0001:000b8ff0       ??1?$__crt_unique_heap_ptr@U__crt_multibyte_data@@U__crt_internal_free_policy@@@@QEAA@XZ 00000001800b9ff0 f i libucrtd:wsetlocale.obj
 0001:000b9010       ??B?$__crt_unique_heap_ptr@U__crt_locale_data@@U__crt_internal_free_policy@@@@QEBA_NXZ 00000001800ba010 f i libucrtd:wsetlocale.obj
 0001:000b9030       ??B?$__crt_unique_heap_ptr@U__crt_locale_pointers@@U__crt_internal_free_policy@@@@QEBA_NXZ 00000001800ba030 f i libucrtd:wsetlocale.obj
 0001:000b9050       ??B?$__crt_unique_heap_ptr@U__crt_multibyte_data@@U__crt_internal_free_policy@@@@QEBA_NXZ 00000001800ba050 f i libucrtd:wsetlocale.obj
 0001:000b94e0       ?detach@?$__crt_unique_heap_ptr@U__crt_locale_data@@U__crt_internal_free_policy@@@@QEAAPEAU__crt_locale_data@@XZ 00000001800ba4e0 f i libucrtd:wsetlocale.obj
 0001:000b9520       ?detach@?$__crt_unique_heap_ptr@U__crt_locale_pointers@@U__crt_internal_free_policy@@@@QEAAPEAU__crt_locale_pointers@@XZ 00000001800ba520 f i libucrtd:wsetlocale.obj
 0001:000b9560       ?detach@?$__crt_unique_heap_ptr@U__crt_multibyte_data@@U__crt_internal_free_policy@@@@QEAAPEAU__crt_multibyte_data@@XZ 00000001800ba560 f i libucrtd:wsetlocale.obj
 0001:000b95a0       ?get@?$__crt_unique_heap_ptr@U__crt_locale_data@@U__crt_internal_free_policy@@@@QEBAPEAU__crt_locale_data@@XZ 00000001800ba5a0 f i libucrtd:wsetlocale.obj
 0001:000b95c0       ?get@?$__crt_unique_heap_ptr@U__crt_locale_pointers@@U__crt_internal_free_policy@@@@QEBAPEAU__crt_locale_pointers@@XZ 00000001800ba5c0 f i libucrtd:wsetlocale.obj
 0001:000b95e0       ?get@?$__crt_unique_heap_ptr@U__crt_multibyte_data@@U__crt_internal_free_policy@@@@QEBAPEAU__crt_multibyte_data@@XZ 00000001800ba5e0 f i libucrtd:wsetlocale.obj
 0001:000b9600       ?is_valid@?$__crt_unique_heap_ptr@U__crt_locale_data@@U__crt_internal_free_policy@@@@QEBA_NXZ 00000001800ba600 f i libucrtd:wsetlocale.obj
 0001:000b9640       ?is_valid@?$__crt_unique_heap_ptr@U__crt_locale_pointers@@U__crt_internal_free_policy@@@@QEBA_NXZ 00000001800ba640 f i libucrtd:wsetlocale.obj
 0001:000b9680       ?is_valid@?$__crt_unique_heap_ptr@U__crt_multibyte_data@@U__crt_internal_free_policy@@@@QEBA_NXZ 00000001800ba680 f i libucrtd:wsetlocale.obj
 0001:000b96c0       ?release@?$__crt_unique_heap_ptr@U__crt_locale_data@@U__crt_internal_free_policy@@@@QEAAXXZ 00000001800ba6c0 f i libucrtd:wsetlocale.obj
 0001:000b9710       ?release@?$__crt_unique_heap_ptr@U__crt_locale_pointers@@U__crt_internal_free_policy@@@@QEAAXXZ 00000001800ba710 f i libucrtd:wsetlocale.obj
 0001:000b9760       ?release@?$__crt_unique_heap_ptr@U__crt_multibyte_data@@U__crt_internal_free_policy@@@@QEAAXXZ 00000001800ba760 f i libucrtd:wsetlocale.obj
 0001:000b97b0       __acrt_copy_locale_name    00000001800ba7b0 f   libucrtd:wsetlocale.obj
 0001:000b98b0       __acrt_set_locale_changed  00000001800ba8b0 f   libucrtd:wsetlocale.obj
 0001:000b98d0       __acrt_uninitialize_locale 00000001800ba8d0 f   libucrtd:wsetlocale.obj
 0001:000b9960       __lc_lctowcs               00000001800ba960 f   libucrtd:wsetlocale.obj
 0001:000b9a90       __lc_wcstolc               00000001800baa90 f   libucrtd:wsetlocale.obj
 0001:000b9e00       _configthreadlocale        00000001800bae00 f   libucrtd:wsetlocale.obj
 0001:000ba030       _create_locale             00000001800bb030 f   libucrtd:wsetlocale.obj
 0001:000ba100       _expandlocale              00000001800bb100 f   libucrtd:wsetlocale.obj
 0001:000ba820       _free_locale               00000001800bb820 f   libucrtd:wsetlocale.obj
 0001:000ba950       _get_current_locale        00000001800bb950 f   libucrtd:wsetlocale.obj
 0001:000baaa0       _wcreate_locale            00000001800bbaa0 f   libucrtd:wsetlocale.obj
 0001:000bae40       _wcscats                   00000001800bbe40 f   libucrtd:wsetlocale.obj
 0001:000baf60       _wsetlocale                00000001800bbf60 f   libucrtd:wsetlocale.obj
 0001:000bc630       __p___mb_cur_max           00000001800bd630 f   libucrtd:nlsdata.obj
 0001:000bc680       __acrt_getheap             00000001800bd680 f   libucrtd:heap_handle.obj
 0001:000bc6f0       __acrt_initialize_heap     00000001800bd6f0 f   libucrtd:heap_handle.obj
 0001:000bc720       __acrt_uninitialize_heap   00000001800bd720 f   libucrtd:heap_handle.obj
 0001:000bc740       _get_heap_handle           00000001800bd740 f   libucrtd:heap_handle.obj
 0001:000bc800       ??$?B$$A6AHPEA_WK_J@Z@__crt_fast_encoded_nullptr_t@@QEBAP6AHPEA_WK_J@ZXZ 00000001800bd800 f i libucrtd:winapi_thunks.obj
 0001:000bc820       ??$?RV<lambda_630b2aca97f6d20d5b5ea6529ea6b6af>@@AEAV<lambda_af91936f1d075d609f72d9d8cba980af>@@V<lambda_e82fa975f615b5c7c7b0e4d178fdae67>@@@?$__crt_seh_guarded_call@H@@QEAAH$$QEAV<lambda_630b2aca97f6d20d5b5ea6529ea6b6af>@@AEAV<lambda_af91936f1d075d609f72d9d8cba980af>@@$$QEAV<lambda_e82fa975f615b5c7c7b0e4d178fdae67>@@@Z 00000001800bd820 f i libucrtd:winapi_thunks.obj
 0001:000bc880       ??$__acrt_lock_and_call@V<lambda_af91936f1d075d609f72d9d8cba980af>@@@@YAHW4__acrt_lock_id@@$$QEAV<lambda_af91936f1d075d609f72d9d8cba980af>@@@Z 00000001800bd880 f i libucrtd:winapi_thunks.obj
 0001:000bc900       ??$__crt_fast_decode_pointer@P6AHPEA_WK_J@Z@@YAP6AHPEA_WK_J@ZQ6AH0K1@Z@Z 00000001800bd900 f i libucrtd:winapi_thunks.obj
 0001:000bc950       ??$__crt_fast_encode_pointer@P6AHPEA_WK_J@Z@@YAP6AHPEA_WK_J@ZQ6AH0K1@Z@Z 00000001800bd950 f i libucrtd:winapi_thunks.obj
 0001:000bd850       __acrt_AreFileApisANSI     00000001800be850 f   libucrtd:winapi_thunks.obj
 0001:000bd8a0       __acrt_CompareStringEx     00000001800be8a0 f   libucrtd:winapi_thunks.obj
 0001:000bd9c0       __acrt_EnumSystemLocalesEx 00000001800be9c0 f   libucrtd:winapi_thunks.obj
 0001:000bda60       __acrt_FlsAlloc            00000001800bea60 f   libucrtd:winapi_thunks.obj
 0001:000bdac0       __acrt_FlsFree             00000001800beac0 f   libucrtd:winapi_thunks.obj
 0001:000bdb20       __acrt_FlsGetValue         00000001800beb20 f   libucrtd:winapi_thunks.obj
 0001:000bdb80       __acrt_FlsSetValue         00000001800beb80 f   libucrtd:winapi_thunks.obj
 0001:000bdbf0       __acrt_GetDateFormatEx     00000001800bebf0 f   libucrtd:winapi_thunks.obj
 0001:000bdce0       __acrt_GetEnabledXStateFeatures 00000001800bece0 f   libucrtd:winapi_thunks.obj
 0001:000bdd30       __acrt_GetFileInformationByHandleEx 00000001800bed30 f   libucrtd:winapi_thunks.obj
 0001:000bddc0       __acrt_GetLocaleInfoEx     00000001800bedc0 f   libucrtd:winapi_thunks.obj
 0001:000bde60       __acrt_GetSystemTimePreciseAsFileTime 00000001800bee60 f   libucrtd:winapi_thunks.obj
 0001:000bdec0       __acrt_GetTimeFormatEx     00000001800beec0 f   libucrtd:winapi_thunks.obj
 0001:000bdf90       __acrt_GetUserDefaultLocaleName 00000001800bef90 f   libucrtd:winapi_thunks.obj
 0001:000be010       __acrt_GetXStateFeaturesMask 00000001800bf010 f   libucrtd:winapi_thunks.obj
 0001:000be080       __acrt_InitializeCriticalSectionEx 00000001800bf080 f   libucrtd:winapi_thunks.obj
 0001:000be100       __acrt_IsValidLocaleName   00000001800bf100 f   libucrtd:winapi_thunks.obj
 0001:000be170       __acrt_LCIDToLocaleName    00000001800bf170 f   libucrtd:winapi_thunks.obj
 0001:000be200       __acrt_LCMapStringEx       00000001800bf200 f   libucrtd:winapi_thunks.obj
 0001:000be320       __acrt_LocaleNameToLCID    00000001800bf320 f   libucrtd:winapi_thunks.obj
 0001:000be390       __acrt_LocateXStateFeature 00000001800bf390 f   libucrtd:winapi_thunks.obj
 0001:000be400       __acrt_MessageBoxA         00000001800bf400 f   libucrtd:winapi_thunks.obj
 0001:000be480       __acrt_MessageBoxW         00000001800bf480 f   libucrtd:winapi_thunks.obj
 0001:000be500       __acrt_RoInitialize        00000001800bf500 f   libucrtd:winapi_thunks.obj
 0001:000be550       __acrt_RoUninitialize      00000001800bf550 f   libucrtd:winapi_thunks.obj
 0001:000be5a0       __acrt_RtlGenRandom        00000001800bf5a0 f   libucrtd:winapi_thunks.obj
 0001:000be600       __acrt_SetThreadStackGuarantee 00000001800bf600 f   libucrtd:winapi_thunks.obj
 0001:000be660       __acrt_can_show_message_box 00000001800bf660 f   libucrtd:winapi_thunks.obj
 0001:000be6b0       __acrt_can_use_vista_locale_apis 00000001800bf6b0 f   libucrtd:winapi_thunks.obj
 0001:000be6f0       __acrt_can_use_xstate_apis 00000001800bf6f0 f   libucrtd:winapi_thunks.obj
 0001:000be730       __acrt_get_parent_window   00000001800bf730 f   libucrtd:winapi_thunks.obj
 0001:000be7d0       __acrt_initialize_winapi_thunks 00000001800bf7d0 f   libucrtd:winapi_thunks.obj
 0001:000be870       __acrt_is_interactive      00000001800bf870 f   libucrtd:winapi_thunks.obj
 0001:000be990       __acrt_is_packaged_app     00000001800bf990 f   libucrtd:winapi_thunks.obj
 0001:000beb20       __acrt_uninitialize_winapi_thunks 00000001800bfb20 f   libucrtd:winapi_thunks.obj
 0001:000c04f0       ??$find_first_file_ex@AEBQEADW4_FINDEX_INFO_LEVELS@@PEAU_WIN32_FIND_DATAA@@W4_FINDEX_SEARCH_OPS@@$$TH@?$__crt_char_traits@D@@SAPEAXAEBQEAD$$QEAW4_FINDEX_INFO_LEVELS@@$$QEAPEAU_WIN32_FIND_DATAA@@$$QEAW4_FINDEX_SEARCH_OPS@@$$QEA$$T$$QEAH@Z 00000001800c14f0 f i libucrtd:argv_wildcards.obj
 0001:000c0560       ??$find_first_file_ex@AEBQEA_WW4_FINDEX_INFO_LEVELS@@PEAU_WIN32_FIND_DATAW@@W4_FINDEX_SEARCH_OPS@@$$TH@?$__crt_char_traits@_W@@SAPEAXAEBQEA_W$$QEAW4_FINDEX_INFO_LEVELS@@$$QEAPEAU_WIN32_FIND_DATAW@@$$QEAW4_FINDEX_SEARCH_OPS@@$$QEA$$T$$QEAH@Z 00000001800c1560 f i libucrtd:argv_wildcards.obj
 0001:000c05d0       ??$find_next_file@PEAXPEAU_WIN32_FIND_DATAA@@@?$__crt_char_traits@D@@SAH$$QEAPEAX$$QEAPEAU_WIN32_FIND_DATAA@@@Z 00000001800c15d0 f i libucrtd:argv_wildcards.obj
 0001:000c0610       ??$find_next_file@PEAXPEAU_WIN32_FIND_DATAW@@@?$__crt_char_traits@_W@@SAH$$QEAPEAX$$QEAPEAU_WIN32_FIND_DATAW@@@Z 00000001800c1610 f i libucrtd:argv_wildcards.obj
 0001:000c0650       ??$tcsncpy_s@AEAPEAD_KAEAPEADAEB_K@?$__crt_char_traits@D@@SAHAEAPEAD$$QEA_K0AEB_K@Z 00000001800c1650 f i libucrtd:argv_wildcards.obj
 0001:000c06b0       ??$tcsncpy_s@AEAPEA_W_KAEAPEA_WAEB_K@?$__crt_char_traits@_W@@SAHAEAPEA_W$$QEA_K0AEB_K@Z 00000001800c16b0 f i libucrtd:argv_wildcards.obj
 0001:000c0710       ??$tcsncpy_s@PEAD$$CB_KAEBQEBDAEB_K@?$__crt_char_traits@D@@SAH$$QEAPEAD$$QEB_KAEBQEBDAEB_K@Z 00000001800c1710 f i libucrtd:argv_wildcards.obj
 0001:000c0770       ??$tcsncpy_s@PEADAEB_KAEBQEBDAEB_K@?$__crt_char_traits@D@@SAH$$QEAPEADAEB_KAEBQEBD1@Z 00000001800c1770 f i libucrtd:argv_wildcards.obj
 0001:000c07d0       ??$tcsncpy_s@PEA_W$$CB_KAEBQEB_WAEB_K@?$__crt_char_traits@_W@@SAH$$QEAPEA_W$$QEB_KAEBQEB_WAEB_K@Z 00000001800c17d0 f i libucrtd:argv_wildcards.obj
 0001:000c0830       ??$tcsncpy_s@PEA_WAEB_KAEBQEB_WAEB_K@?$__crt_char_traits@_W@@SAH$$QEAPEA_WAEB_KAEBQEB_W1@Z 00000001800c1830 f i libucrtd:argv_wildcards.obj
 0001:000c0890       ??$tcspbrk@AEAPEADAEAY02$$CBD@?$__crt_char_traits@D@@SAPEADAEAPEADAEAY02$$CBD@Z 00000001800c1890 f i libucrtd:argv_wildcards.obj
 0001:000c08c0       ??$tcspbrk@AEAPEA_WAEAY02$$CB_W@?$__crt_char_traits@_W@@SAPEA_WAEAPEA_WAEAY02$$CB_W@Z 00000001800c18c0 f i libucrtd:argv_wildcards.obj
 0001:000c08f0       ??0?$__crt_unique_handle_t@U__crt_findfile_traits@@@@QEAA@QEAX@Z 00000001800c18f0 f i libucrtd:argv_wildcards.obj
 0001:000c0920       ??0?$argument_list@D@?A0xfeb59491@@QEAA@XZ 00000001800c1920 f i libucrtd:argv_wildcards.obj
 0001:000c0960       ??0?$argument_list@_W@?A0xfeb59491@@QEAA@XZ 00000001800c1960 f i libucrtd:argv_wildcards.obj
 0001:000c09a0       ??1?$__crt_unique_handle_t@U__crt_findfile_traits@@@@QEAA@XZ 00000001800c19a0 f i libucrtd:argv_wildcards.obj
 0001:000c09c0       ??1?$argument_list@D@?A0xfeb59491@@QEAA@XZ 00000001800c19c0 f i libucrtd:argv_wildcards.obj
 0001:000c0a40       ??1?$argument_list@_W@?A0xfeb59491@@QEAA@XZ 00000001800c1a40 f i libucrtd:argv_wildcards.obj
 0001:000c0ba0       ?append@?$argument_list@D@?A0xfeb59491@@QEAAHQEAD@Z 00000001800c1ba0 f i libucrtd:argv_wildcards.obj
 0001:000c0c20       ?append@?$argument_list@_W@?A0xfeb59491@@QEAAHQEA_W@Z 00000001800c1c20 f i libucrtd:argv_wildcards.obj
 0001:000c0ca0       ?begin@?$argument_list@D@?A0xfeb59491@@QEBAPEAPEADXZ 00000001800c1ca0 f i libucrtd:argv_wildcards.obj
 0001:000c0cc0       ?begin@?$argument_list@_W@?A0xfeb59491@@QEBAPEAPEA_WXZ 00000001800c1cc0 f i libucrtd:argv_wildcards.obj
 0001:000c0ce0       ?close@?$__crt_unique_handle_t@U__crt_findfile_traits@@@@QEAAXXZ 00000001800c1ce0 f i libucrtd:argv_wildcards.obj
 0001:000c0d30       ?close@__crt_findfile_traits@@SA_NPEAX@Z 00000001800c1d30 f i libucrtd:argv_wildcards.obj
 0001:000c0d80       ?end@?$argument_list@D@?A0xfeb59491@@QEBAPEAPEADXZ 00000001800c1d80 f i libucrtd:argv_wildcards.obj
 0001:000c0da0       ?end@?$argument_list@_W@?A0xfeb59491@@QEBAPEAPEA_WXZ 00000001800c1da0 f i libucrtd:argv_wildcards.obj
 0001:000c0dc0       ?expand_if_necessary@?$argument_list@D@?A0xfeb59491@@AEAAHXZ 00000001800c1dc0 f i libucrtd:argv_wildcards.obj
 0001:000c1020       ?expand_if_necessary@?$argument_list@_W@?A0xfeb59491@@AEAAHXZ 00000001800c2020 f i libucrtd:argv_wildcards.obj
 0001:000c1280       ?get@?$__crt_unique_handle_t@U__crt_findfile_traits@@@@QEBAPEAXXZ 00000001800c2280 f i libucrtd:argv_wildcards.obj
 0001:000c12a0       ?get_invalid_value@__crt_findfile_traits@@SAPEAXXZ 00000001800c22a0 f i libucrtd:argv_wildcards.obj
 0001:000c1300       ?size@?$argument_list@D@?A0xfeb59491@@QEBA_KXZ 00000001800c2300 f i libucrtd:argv_wildcards.obj
 0001:000c1330       ?size@?$argument_list@_W@?A0xfeb59491@@QEBA_KXZ 00000001800c2330 f i libucrtd:argv_wildcards.obj
 0001:000c1360       ?strpbrk@@YAPEADQEADQEBD@Z 00000001800c2360 f i libucrtd:argv_wildcards.obj
 0001:000c1390       ?wcspbrk@@YAPEA_WPEA_WPEB_W@Z 00000001800c2390 f i libucrtd:argv_wildcards.obj
 0001:000c13c0       __acrt_expand_narrow_argv_wildcards 00000001800c23c0 f   libucrtd:argv_wildcards.obj
 0001:000c13f0       __acrt_expand_wide_argv_wildcards 00000001800c23f0 f   libucrtd:argv_wildcards.obj
 0001:000c1420       ??$?RV<lambda_441f2315ac0f593d45428a8fceb6abe6>@@AEAV<lambda_2f900415df1f7f624cdaaefe86d0b1c0>@@V<lambda_1d10a5a8ccb596b49763520e59d5af47>@@@?$__crt_seh_guarded_call@X@@QEAAX$$QEAV<lambda_441f2315ac0f593d45428a8fceb6abe6>@@AEAV<lambda_2f900415df1f7f624cdaaefe86d0b1c0>@@$$QEAV<lambda_1d10a5a8ccb596b49763520e59d5af47>@@@Z 00000001800c2420 f i libucrtd:mbctype.obj
 0001:000c1470       ??$__acrt_lock_and_call@V<lambda_2f900415df1f7f624cdaaefe86d0b1c0>@@@@YAXW4__acrt_lock_id@@$$QEAV<lambda_2f900415df1f7f624cdaaefe86d0b1c0>@@@Z 00000001800c2470 f i libucrtd:mbctype.obj
 0001:000c2220       __acrt_initialize_multibyte 00000001800c3220 f   libucrtd:mbctype.obj
 0001:000c2260       __acrt_update_thread_multibyte_data 00000001800c3260 f   libucrtd:mbctype.obj
 0001:000c23b0       __p__mbcasemap             00000001800c33b0 f   libucrtd:mbctype.obj
 0001:000c23d0       __p__mbctype               00000001800c33d0 f   libucrtd:mbctype.obj
 0001:000c23f0       _getmbcp                   00000001800c33f0 f   libucrtd:mbctype.obj
 0001:000c2490       _setmbcp                   00000001800c3490 f   libucrtd:mbctype.obj
 0001:000c24b0       _setmbcp_nolock            00000001800c34b0 f   libucrtd:mbctype.obj
 0001:000c2c2c       _ismbbalnum                00000001800c3c2c f   libucrtd:ismbbyte.obj
 0001:000c2c48       _ismbbalnum_l              00000001800c3c48 f   libucrtd:ismbbyte.obj
 0001:000c2c68       _ismbbalpha                00000001800c3c68 f   libucrtd:ismbbyte.obj
 0001:000c2c84       _ismbbalpha_l              00000001800c3c84 f   libucrtd:ismbbyte.obj
 0001:000c2ca4       _ismbbblank                00000001800c3ca4 f   libucrtd:ismbbyte.obj
 0001:000c2cc8       _ismbbblank_l              00000001800c3cc8 f   libucrtd:ismbbyte.obj
 0001:000c2cf0       _ismbbgraph                00000001800c3cf0 f   libucrtd:ismbbyte.obj
 0001:000c2d0c       _ismbbgraph_l              00000001800c3d0c f   libucrtd:ismbbyte.obj
 0001:000c2d2c       _ismbbkalnum               00000001800c3d2c f   libucrtd:ismbbyte.obj
 0001:000c2d44       _ismbbkalnum_l             00000001800c3d44 f   libucrtd:ismbbyte.obj
 0001:000c2d60       _ismbbkana                 00000001800c3d60 f   libucrtd:ismbbyte.obj
 0001:000c2d68       _ismbbkana_l               00000001800c3d68 f   libucrtd:ismbbyte.obj
 0001:000c2de8       _ismbbkprint               00000001800c3de8 f   libucrtd:ismbbyte.obj
 0001:000c2e00       _ismbbkprint_l             00000001800c3e00 f   libucrtd:ismbbyte.obj
 0001:000c2e1c       _ismbbkpunct               00000001800c3e1c f   libucrtd:ismbbyte.obj
 0001:000c2e34       _ismbbkpunct_l             00000001800c3e34 f   libucrtd:ismbbyte.obj
 0001:000c2e50       _ismbblead                 00000001800c3e50 f   libucrtd:ismbbyte.obj
 0001:000c2e68       _ismbblead_l               00000001800c3e68 f   libucrtd:ismbbyte.obj
 0001:000c2e84       _ismbbprint                00000001800c3e84 f   libucrtd:ismbbyte.obj
 0001:000c2ea0       _ismbbprint_l              00000001800c3ea0 f   libucrtd:ismbbyte.obj
 0001:000c2ec0       _ismbbpunct                00000001800c3ec0 f   libucrtd:ismbbyte.obj
 0001:000c2ed8       _ismbbpunct_l              00000001800c3ed8 f   libucrtd:ismbbyte.obj
 0001:000c2ef4       _ismbbtrail                00000001800c3ef4 f   libucrtd:ismbbyte.obj
 0001:000c2f0c       _ismbbtrail_l              00000001800c3f0c f   libucrtd:ismbbyte.obj
 0001:000c2f30       __acrt_initialize_command_line 00000001800c3f30 f   libucrtd:argv_data.obj
 0001:000c2f60       __acrt_uninitialize_command_line 00000001800c3f60 f   libucrtd:argv_data.obj
 0001:000c2f70       __p___argc                 00000001800c3f70 f   libucrtd:argv_data.obj
 0001:000c2f80       __p___argv                 00000001800c3f80 f   libucrtd:argv_data.obj
 0001:000c2f90       __p___wargv                00000001800c3f90 f   libucrtd:argv_data.obj
 0001:000c2fa0       __p__acmdln                00000001800c3fa0 f   libucrtd:argv_data.obj
 0001:000c2fb0       __p__pgmptr                00000001800c3fb0 f   libucrtd:argv_data.obj
 0001:000c2fc0       __p__wcmdln                00000001800c3fc0 f   libucrtd:argv_data.obj
 0001:000c2fd0       __p__wpgmptr               00000001800c3fd0 f   libucrtd:argv_data.obj
 0001:000c2fe0       _get_pgmptr                00000001800c3fe0 f   libucrtd:argv_data.obj
 0001:000c31b0       _get_wpgmptr               00000001800c41b0 f   libucrtd:argv_data.obj
 0001:000c337c       ??0?$__crt_unique_handle_t@Uenvironment_strings_traits@?A0x3cdb3392@@@@QEAA@QEA_W@Z 00000001800c437c f i libucrtd:get_environment_from_os.obj
 0001:000c3384       ??1?$__crt_unique_handle_t@Uenvironment_strings_traits@?A0x3cdb3392@@@@QEAA@XZ 00000001800c4384 f i libucrtd:get_environment_from_os.obj
 0001:000c33b0       ??B?$__crt_unique_handle_t@Uenvironment_strings_traits@?A0x3cdb3392@@@@QEBA_NXZ 00000001800c43b0 f i libucrtd:get_environment_from_os.obj
 0001:000c33bc       ?close@?$__crt_unique_handle_t@Uenvironment_strings_traits@?A0x3cdb3392@@@@QEAAXXZ 00000001800c43bc f i libucrtd:get_environment_from_os.obj
 0001:000c33e8       ?close@environment_strings_traits@?A0x3cdb3392@@SA_NPEA_W@Z 00000001800c43e8 f i libucrtd:get_environment_from_os.obj
 0001:000c342c       ?get@?$__crt_unique_handle_t@Uenvironment_strings_traits@?A0x3cdb3392@@@@QEBAPEA_WXZ 00000001800c442c f i libucrtd:get_environment_from_os.obj
 0001:000c3430       ?get_invalid_value@environment_strings_traits@?A0x3cdb3392@@SAPEA_WXZ 00000001800c4430 f i libucrtd:get_environment_from_os.obj
 0001:000c3434       ?is_valid@?$__crt_unique_handle_t@Uenvironment_strings_traits@?A0x3cdb3392@@@@QEBA_NXZ 00000001800c4434 f i libucrtd:get_environment_from_os.obj
 0001:000c3440       __dcrt_get_narrow_environment_from_os 00000001800c4440 f   libucrtd:get_environment_from_os.obj
 0001:000c35a0       __dcrt_get_wide_environment_from_os 00000001800c45a0 f   libucrtd:get_environment_from_os.obj
 0001:000c45b8       ??$get_or_create_environment_nolock@$$$V@?$__crt_char_traits@D@@SAPEAPEADXZ 00000001800c55b8 f i libucrtd:setenv.obj
 0001:000c45c0       ??$get_or_create_environment_nolock@$$$V@?$__crt_char_traits@_W@@SAPEAPEA_WXZ 00000001800c55c0 f i libucrtd:setenv.obj
 0001:000c45c8       ??$set_environment_variable@AEBQEADQEAD@?$__crt_char_traits@D@@SAHAEBQEAD$$QEBQEAD@Z 00000001800c55c8 f i libucrtd:setenv.obj
 0001:000c45d8       ??$set_environment_variable@AEBQEA_WQEA_W@?$__crt_char_traits@_W@@SAHAEBQEA_W$$QEBQEA_W@Z 00000001800c55d8 f i libucrtd:setenv.obj
 0001:000c45e8       ??$tcschr@AEBQEADD@?$__crt_char_traits@D@@SAPEADAEBQEAD$$QEAD@Z 00000001800c55e8 f i libucrtd:setenv.obj
 0001:000c45f8       ??$tcschr@AEBQEA_WD@?$__crt_char_traits@_W@@SAPEA_WAEBQEA_W$$QEAD@Z 00000001800c55f8 f i libucrtd:setenv.obj
 0001:000c4608       ??$tcscpy_s@AEAPEADAEB_KAEAPEAD@?$__crt_char_traits@D@@SAHAEAPEADAEB_K0@Z 00000001800c5608 f i libucrtd:setenv.obj
 0001:000c461c       ??$tcscpy_s@AEAPEA_WAEB_KAEAPEA_W@?$__crt_char_traits@_W@@SAHAEAPEA_WAEB_K0@Z 00000001800c561c f i libucrtd:setenv.obj
 0001:000c4630       ??$tcscpy_s@AEBQEADAEB_KAEBQEAD@?$__crt_char_traits@D@@SAHAEBQEADAEB_K0@Z 00000001800c5630 f i libucrtd:setenv.obj
 0001:000c4644       ??$tcscpy_s@AEBQEA_WAEB_KAEBQEA_W@?$__crt_char_traits@_W@@SAHAEBQEA_WAEB_K0@Z 00000001800c5644 f i libucrtd:setenv.obj
 0001:000c4658       ??$tcslen@AEBQEAD@?$__crt_char_traits@D@@SA_KAEBQEAD@Z 00000001800c5658 f i libucrtd:setenv.obj
 0001:000c4670       ??$tcslen@AEBQEA_W@?$__crt_char_traits@_W@@SA_KAEBQEA_W@Z 00000001800c5670 f i libucrtd:setenv.obj
 0001:000c4688       ??$tcsnicoll@AEBQEBDAEAPEADAEB_K@?$__crt_char_traits@D@@SAHAEBQEBDAEAPEADAEB_K@Z 00000001800c5688 f i libucrtd:setenv.obj
 0001:000c469c       ??$tcsnicoll@AEBQEB_WAEAPEA_WAEB_K@?$__crt_char_traits@_W@@SAHAEBQEB_WAEAPEA_WAEB_K@Z 00000001800c569c f i libucrtd:setenv.obj
 0001:000c46b0       ??$tcsnlen@QEADH@?$__crt_char_traits@D@@SA_K$$QEBQEAD$$QEAH@Z 00000001800c56b0 f i libucrtd:setenv.obj
 0001:000c46c0       ??$tcsnlen@QEA_WH@?$__crt_char_traits@_W@@SA_K$$QEBQEA_W$$QEAH@Z 00000001800c56c0 f i libucrtd:setenv.obj
 0001:000c4718       ?strchr@@YAPEADQEADH@Z     00000001800c5718 f i libucrtd:setenv.obj
 0001:000c4720       ?wcschr@@YAPEA_WPEA_W_W@Z  00000001800c5720 f i libucrtd:setenv.obj
 0001:000c4728       __dcrt_set_variable_in_narrow_environment_nolock 00000001800c5728 f   libucrtd:setenv.obj
 0001:000c4730       __dcrt_set_variable_in_wide_environment_nolock 00000001800c5730 f   libucrtd:setenv.obj
 0001:000c4bb0       __acrt_initialize_lowio    00000001800c5bb0 f   libucrtd:ioinit.obj
 0001:000c4c10       __acrt_uninitialize_lowio  00000001800c5c10 f   libucrtd:ioinit.obj
 0001:000c4ca0       __acrt_execute_initializers 00000001800c5ca0 f   libucrtd:shared_initialization.obj
 0001:000c4dd0       __acrt_execute_uninitializers 00000001800c5dd0 f   libucrtd:shared_initialization.obj
 0001:000c4e70       ??$__crt_fast_decode_pointer@P6AHPEAU_exception@@@Z@@YAP6AHPEAU_exception@@@ZQ6AH0@Z@Z 00000001800c5e70 f i libucrtd:matherr.obj
 0001:000c4ec0       ??$__crt_fast_encode_pointer@P6AHPEAU_exception@@@Z@@YAP6AHPEAU_exception@@@ZQ6AH0@Z@Z 00000001800c5ec0 f i libucrtd:matherr.obj
 0001:000c4f10       ?initialize@?$dual_state_global@P6AHPEAU_exception@@@Z@__crt_state_management@@QEAAXQ6AHPEAU_exception@@@Z@Z 00000001800c5f10 f i libucrtd:matherr.obj
 0001:000c4f70       ?value@?$dual_state_global@P6AHPEAU_exception@@@Z@__crt_state_management@@QEAAAEAP6AHPEAU_exception@@@ZXZ 00000001800c5f70 f i libucrtd:matherr.obj
 0001:000c4fa0       __acrt_has_user_matherr    00000001800c5fa0 f   libucrtd:matherr.obj
 0001:000c4ff0       __acrt_initialize_user_matherr 00000001800c5ff0 f   libucrtd:matherr.obj
 0001:000c5020       __acrt_invoke_user_matherr 00000001800c6020 f   libucrtd:matherr.obj
 0001:000c5090       __setusermatherr           00000001800c6090 f   libucrtd:matherr.obj
 0001:000c50d0       ?has_any_buffer@__crt_stdio_stream@@QEBA_NXZ 00000001800c60d0 f i libucrtd:_sftbuf.obj
 0001:000c5100       ?has_any_of@__crt_stdio_stream@@QEBA_NJ@Z 00000001800c6100 f i libucrtd:_sftbuf.obj
 0001:000c5150       ?has_temporary_buffer@__crt_stdio_stream@@QEBA_NXZ 00000001800c6150 f i libucrtd:_sftbuf.obj
 0001:000c5180       ?set_flags@__crt_stdio_stream@@QEBA_NJ@Z 00000001800c6180 f i libucrtd:_sftbuf.obj
 0001:000c5200       ?unset_flags@__crt_stdio_stream@@QEBA_NJ@Z 00000001800c6200 f i libucrtd:_sftbuf.obj
 0001:000c5270       __acrt_stdio_begin_temporary_buffering_nolock 00000001800c6270 f   libucrtd:_sftbuf.obj
 0001:000c5540       __acrt_stdio_end_temporary_buffering_nolock 00000001800c6540 f   libucrtd:_sftbuf.obj
 0001:000c5630       __isascii                  00000001800c6630 f i libucrtd:_ctype.obj
 0001:000c5670       __iscsym                   00000001800c6670 f i libucrtd:_ctype.obj
 0001:000c56c0       __iscsymf                  00000001800c66c0 f i libucrtd:_ctype.obj
 0001:000c5710       __toascii                  00000001800c6710 f i libucrtd:_ctype.obj
 0001:000c5720       _isalnum_l                 00000001800c6720 f i libucrtd:_ctype.obj
 0001:000c5790       _isalpha_l                 00000001800c6790 f i libucrtd:_ctype.obj
 0001:000c5800       _isblank_l                 00000001800c6800 f i libucrtd:_ctype.obj
 0001:000c5880       _iscntrl_l                 00000001800c6880 f i libucrtd:_ctype.obj
 0001:000c58f0       _iscsym_l                  00000001800c68f0 f i libucrtd:_ctype.obj
 0001:000c5950       _iscsymf_l                 00000001800c6950 f i libucrtd:_ctype.obj
 0001:000c59b0       _isdigit_l                 00000001800c69b0 f i libucrtd:_ctype.obj
 0001:000c5a20       _isgraph_l                 00000001800c6a20 f i libucrtd:_ctype.obj
 0001:000c5a90       _islower_l                 00000001800c6a90 f i libucrtd:_ctype.obj
 0001:000c5b00       _isprint_l                 00000001800c6b00 f i libucrtd:_ctype.obj
 0001:000c5b70       _ispunct_l                 00000001800c6b70 f i libucrtd:_ctype.obj
 0001:000c5be0       _isspace_l                 00000001800c6be0 f i libucrtd:_ctype.obj
 0001:000c5c50       _isupper_l                 00000001800c6c50 f i libucrtd:_ctype.obj
 0001:000c5cc0       _isxdigit_l                00000001800c6cc0 f i libucrtd:_ctype.obj
 0001:000c5d30       isalnum                    00000001800c6d30 f i libucrtd:_ctype.obj
 0001:000c5d80       isalpha                    00000001800c6d80 f i libucrtd:_ctype.obj
 0001:000c5dd0       isblank                    00000001800c6dd0 f i libucrtd:_ctype.obj
 0001:000c5e40       iscntrl                    00000001800c6e40 f i libucrtd:_ctype.obj
 0001:000c5e90       isdigit                    00000001800c6e90 f i libucrtd:_ctype.obj
 0001:000c5ee0       isgraph                    00000001800c6ee0 f i libucrtd:_ctype.obj
 0001:000c5f30       islower                    00000001800c6f30 f i libucrtd:_ctype.obj
 0001:000c5f80       isprint                    00000001800c6f80 f i libucrtd:_ctype.obj
 0001:000c5fd0       ispunct                    00000001800c6fd0 f i libucrtd:_ctype.obj
 0001:000c6020       isspace                    00000001800c7020 f i libucrtd:_ctype.obj
 0001:000c6070       isupper                    00000001800c7070 f i libucrtd:_ctype.obj
 0001:000c60c0       isxdigit                   00000001800c70c0 f i libucrtd:_ctype.obj
 0001:000c69f0       _tolower                   00000001800c79f0 f   libucrtd:tolower_toupper.obj
 0001:000c6a00       _tolower_l                 00000001800c7a00 f   libucrtd:tolower_toupper.obj
 0001:000c6a30       _toupper                   00000001800c7a30 f   libucrtd:tolower_toupper.obj
 0001:000c6a40       _toupper_l                 00000001800c7a40 f   libucrtd:tolower_toupper.obj
 0001:000c6a70       tolower                    00000001800c7a70 f   libucrtd:tolower_toupper.obj
 0001:000c6ae0       toupper                    00000001800c7ae0 f   libucrtd:tolower_toupper.obj
 0001:000c6b50       _CrtGetDebugFillThreshold  00000001800c7b50 f   libucrtd:debug_fill_threshold.obj
 0001:000c6b60       _CrtSetDebugFillThreshold  00000001800c7b60 f   libucrtd:debug_fill_threshold.obj
 0001:000c6ba0       ??$make_c_string_character_source@DPEAPEAD@__crt_strtox@@YA?AV?$c_string_character_source@D@0@QEBDQEAPEAD@Z 00000001800c7ba0 f i libucrtd:strtox.obj
 0001:000c6be0       ??$make_c_string_character_source@_WPEAPEA_W@__crt_strtox@@YA?AV?$c_string_character_source@_W@0@QEB_WQEAPEA_W@Z 00000001800c7be0 f i libucrtd:strtox.obj
 0001:000c6c20       ??$parse_integer_from_string@JDPEAPEAD@__crt_strtox@@YAJQEBDQEAPEADHQEAU__crt_locale_pointers@@@Z 00000001800c7c20 f i libucrtd:strtox.obj
 0001:000c6c90       ??$parse_integer_from_string@J_WPEAPEA_W@__crt_strtox@@YAJQEB_WQEAPEA_WHQEAU__crt_locale_pointers@@@Z 00000001800c7c90 f i libucrtd:strtox.obj
 0001:000c6d00       ??$parse_integer_from_string@KDPEAPEAD@__crt_strtox@@YAKQEBDQEAPEADHQEAU__crt_locale_pointers@@@Z 00000001800c7d00 f i libucrtd:strtox.obj
 0001:000c6d70       ??$parse_integer_from_string@K_WPEAPEA_W@__crt_strtox@@YAKQEB_WQEAPEA_WHQEAU__crt_locale_pointers@@@Z 00000001800c7d70 f i libucrtd:strtox.obj
 0001:000c6de0       ??$parse_integer_from_string@_JDPEAPEAD@__crt_strtox@@YA_JQEBDQEAPEADHQEAU__crt_locale_pointers@@@Z 00000001800c7de0 f i libucrtd:strtox.obj
 0001:000c6e50       ??$parse_integer_from_string@_J_WPEAPEA_W@__crt_strtox@@YA_JQEB_WQEAPEA_WHQEAU__crt_locale_pointers@@@Z 00000001800c7e50 f i libucrtd:strtox.obj
 0001:000c6ec0       ??$parse_integer_from_string@_KDPEAPEAD@__crt_strtox@@YA_KQEBDQEAPEADHQEAU__crt_locale_pointers@@@Z 00000001800c7ec0 f i libucrtd:strtox.obj
 0001:000c6f30       ??$parse_integer_from_string@_K_WPEAPEA_W@__crt_strtox@@YA_KQEB_WQEAPEA_WHQEAU__crt_locale_pointers@@@Z 00000001800c7f30 f i libucrtd:strtox.obj
 0001:000c6fa0       _strtoi64                  00000001800c7fa0 f   libucrtd:strtox.obj
 0001:000c6fe0       _strtoi64_l                00000001800c7fe0 f   libucrtd:strtox.obj
 0001:000c7030       _strtoimax_l               00000001800c8030 f   libucrtd:strtox.obj
 0001:000c7080       _strtol_l                  00000001800c8080 f   libucrtd:strtox.obj
 0001:000c70d0       _strtoll_l                 00000001800c80d0 f   libucrtd:strtox.obj
 0001:000c7120       _strtoui64                 00000001800c8120 f   libucrtd:strtox.obj
 0001:000c7160       _strtoui64_l               00000001800c8160 f   libucrtd:strtox.obj
 0001:000c71b0       _strtoul_l                 00000001800c81b0 f   libucrtd:strtox.obj
 0001:000c7200       _strtoull_l                00000001800c8200 f   libucrtd:strtox.obj
 0001:000c7250       _strtoumax_l               00000001800c8250 f   libucrtd:strtox.obj
 0001:000c72a0       _wcstoi64                  00000001800c82a0 f   libucrtd:strtox.obj
 0001:000c72e0       _wcstoi64_l                00000001800c82e0 f   libucrtd:strtox.obj
 0001:000c7330       _wcstoimax_l               00000001800c8330 f   libucrtd:strtox.obj
 0001:000c7380       _wcstol_l                  00000001800c8380 f   libucrtd:strtox.obj
 0001:000c73d0       _wcstoll_l                 00000001800c83d0 f   libucrtd:strtox.obj
 0001:000c7420       _wcstoui64                 00000001800c8420 f   libucrtd:strtox.obj
 0001:000c7460       _wcstoui64_l               00000001800c8460 f   libucrtd:strtox.obj
 0001:000c74b0       _wcstoul_l                 00000001800c84b0 f   libucrtd:strtox.obj
 0001:000c7500       _wcstoull_l                00000001800c8500 f   libucrtd:strtox.obj
 0001:000c7550       _wcstoumax_l               00000001800c8550 f   libucrtd:strtox.obj
 0001:000c75a0       strtoimax                  00000001800c85a0 f   libucrtd:strtox.obj
 0001:000c75e0       strtol                     00000001800c85e0 f   libucrtd:strtox.obj
 0001:000c7620       strtoll                    00000001800c8620 f   libucrtd:strtox.obj
 0001:000c7660       strtoul                    00000001800c8660 f   libucrtd:strtox.obj
 0001:000c76a0       strtoull                   00000001800c86a0 f   libucrtd:strtox.obj
 0001:000c76e0       strtoumax                  00000001800c86e0 f   libucrtd:strtox.obj
 0001:000c7720       wcstoimax                  00000001800c8720 f   libucrtd:strtox.obj
 0001:000c7760       wcstol                     00000001800c8760 f   libucrtd:strtox.obj
 0001:000c77a0       wcstoll                    00000001800c87a0 f   libucrtd:strtox.obj
 0001:000c77e0       wcstoul                    00000001800c87e0 f   libucrtd:strtox.obj
 0001:000c7820       wcstoull                   00000001800c8820 f   libucrtd:strtox.obj
 0001:000c7860       wcstoumax                  00000001800c8860 f   libucrtd:strtox.obj
 0001:000c78a0       _mbtowc_l                  00000001800c88a0 f   libucrtd:mbtowc.obj
 0001:000c7c90       mbtowc                     00000001800c8c90 f   libucrtd:mbtowc.obj
 0001:000c7cd0       _wctomb_l                  00000001800c8cd0 f   libucrtd:wctomb.obj
 0001:000c7db0       _wctomb_s_l                00000001800c8db0 f   libucrtd:wctomb.obj
 0001:000c8370       wctomb                     00000001800c9370 f   libucrtd:wctomb.obj
 0001:000c83e0       wctomb_s                   00000001800c93e0 f   libucrtd:wctomb.obj
 0001:000c9350       ??1?$__crt_simd_cleanup_guard@$00@@QEAA@XZ 00000001800ca350 f i libucrtd:strnlen.obj
 0001:000c9360       ??1?$__crt_simd_cleanup_guard@$0A@@@QEAA@XZ 00000001800ca360 f i libucrtd:strnlen.obj
 0001:000c9370       ?compare_equals@?$__crt_simd_traits@$00E@@SA?AT__m256i@@T2@0@Z 00000001800ca370 f i libucrtd:strnlen.obj
 0001:000c93c0       ?compare_equals@?$__crt_simd_traits@$00G@@SA?AT__m256i@@T2@0@Z 00000001800ca3c0 f i libucrtd:strnlen.obj
 0001:000c9410       ?compare_equals@?$__crt_simd_traits@$0A@E@@SA?AT__m128i@@T2@0@Z 00000001800ca410 f i libucrtd:strnlen.obj
 0001:000c9450       ?compare_equals@?$__crt_simd_traits@$0A@G@@SA?AT__m128i@@T2@0@Z 00000001800ca450 f i libucrtd:strnlen.obj
 0001:000c9490       ?compute_byte_mask@?$__crt_simd_pack_traits@$00@@SAHT__m256i@@@Z 00000001800ca490 f i libucrtd:strnlen.obj
 0001:000c94b0       ?compute_byte_mask@?$__crt_simd_pack_traits@$0A@@@SAHT__m128i@@@Z 00000001800ca4b0 f i libucrtd:strnlen.obj
 0001:000c94d0       ?get_zero_pack@?$__crt_simd_pack_traits@$00@@SA?AT__m256i@@XZ 00000001800ca4d0 f i libucrtd:strnlen.obj
 0001:000c9500       ?get_zero_pack@?$__crt_simd_pack_traits@$0A@@@SA?AT__m128i@@XZ 00000001800ca500 f i libucrtd:strnlen.obj
 0001:000c9520       strnlen                    00000001800ca520 f   libucrtd:strnlen.obj
 0001:000c9550       wcsnlen                    00000001800ca550 f   libucrtd:strnlen.obj
 0001:000c9580       ?__acrt_fp_classify@@YA?AW4__acrt_fp_class@@AEBN@Z 00000001800ca580 f i libucrtd:cvt.obj
 0001:000c96c0       ?__acrt_fp_is_negative@@YA_NAEBN@Z 00000001800ca6c0 f i libucrtd:cvt.obj
 0001:000cb410       ?strrchr@@YAPEADQEADH@Z    00000001800cc410 f i libucrtd:cvt.obj
 0001:000cb440       __acrt_fp_format           00000001800cc440 f   libucrtd:cvt.obj
 0001:000cbc40       _fputwc_nolock             00000001800ccc40 f   libucrtd:fputwc.obj
 0001:000cbf40       _fputwchar                 00000001800ccf40 f   libucrtd:fputwc.obj
 0001:000cbf70       _putwc_nolock              00000001800ccf70 f   libucrtd:fputwc.obj
 0001:000cbfa0       fputwc                     00000001800ccfa0 f   libucrtd:fputwc.obj
 0001:000cc0d0       putwc                      00000001800cd0d0 f   libucrtd:fputwc.obj
 0001:000cc100       putwchar                   00000001800cd100 f   libucrtd:fputwc.obj
 0001:000cc120       ?lowio_handle@__crt_stdio_stream@@QEBAHXZ 00000001800cd120 f i libucrtd:fileno.obj
 0001:000cc150       _fileno                    00000001800cd150 f   libucrtd:fileno.obj
 0001:000cc260       ??$?RPEAU__crt_stdio_stream_data@@@__crt_internal_free_policy@@QEBAXQEBQEAU__crt_stdio_stream_data@@@Z 00000001800cd260 f i libucrtd:_file.obj
 0001:000cc290       ??0?$__crt_unique_heap_ptr@PEAU__crt_stdio_stream_data@@U__crt_internal_free_policy@@@@QEAA@QEAPEAU__crt_stdio_stream_data@@@Z 00000001800cd290 f i libucrtd:_file.obj
 0001:000cc2c0       ??1?$__crt_unique_heap_ptr@PEAU__crt_stdio_stream_data@@U__crt_internal_free_policy@@@@QEAA@XZ 00000001800cd2c0 f i libucrtd:_file.obj
 0001:000cc2e0       ?detach@?$__crt_unique_heap_ptr@PEAU__crt_stdio_stream_data@@U__crt_internal_free_policy@@@@QEAAPEAPEAU__crt_stdio_stream_data@@XZ 00000001800cd2e0 f i libucrtd:_file.obj
 0001:000cc320       ?release@?$__crt_unique_heap_ptr@PEAU__crt_stdio_stream_data@@U__crt_internal_free_policy@@@@QEAAXXZ 00000001800cd320 f i libucrtd:_file.obj
 0001:000cc370       __acrt_initialize_stdio    00000001800cd370 f   libucrtd:_file.obj
 0001:000cc5d0       __acrt_iob_func            00000001800cd5d0 f   libucrtd:_file.obj
 0001:000cc5f0       __acrt_uninitialize_stdio  00000001800cd5f0 f   libucrtd:_file.obj
 0001:000cc6a0       _get_stream_buffer_pointers 00000001800cd6a0 f   libucrtd:_file.obj
 0001:000cc820       _lock_file                 00000001800cd820 f   libucrtd:_file.obj
 0001:000cc860       _unlock_file               00000001800cd860 f   libucrtd:_file.obj
 0001:000cc8a0       _fputc_nolock              00000001800cd8a0 f   libucrtd:fputc.obj
 0001:000cc980       _fputchar                  00000001800cd980 f   libucrtd:fputc.obj
 0001:000cc9b0       _putc_nolock               00000001800cd9b0 f   libucrtd:fputc.obj
 0001:000cc9e0       fputc                      00000001800cd9e0 f   libucrtd:fputc.obj
 0001:000ccd30       putc                       00000001800cdd30 f   libucrtd:fputc.obj
 0001:000ccd60       putchar                    00000001800cdd60 f   libucrtd:fputc.obj
 0001:000ccd80       _get_printf_count_output   00000001800cdd80 f   libucrtd:printf_count_output.obj
 0001:000ccdc0       _set_printf_count_output   00000001800cddc0 f   libucrtd:printf_count_output.obj
 0001:000cce44       _mbsdec                    00000001800cde44 f   libucrtd:mbsdec.obj
 0001:000cce50       _mbsdec_l                  00000001800cde50 f   libucrtd:mbsdec.obj
 0001:000cd7d0       wcsncpy_s                  00000001800ce7d0 f   libucrtd:wcsncpy_s.obj
 0001:000ce030       strncpy_s                  00000001800cf030 f   libucrtd:strncpy_s.obj
 0001:000ce2c0       __acrt_report_runtime_error 00000001800cf2c0 f   libucrtd:report_runtime_error.obj
 0001:000ce5d0       _query_app_type            00000001800cf5d0 f   libucrtd:report_runtime_error.obj
 0001:000ce5e0       _set_app_type              00000001800cf5e0 f   libucrtd:report_runtime_error.obj
 0001:000ce600       _iswctype_l                00000001800cf600 f   libucrtd:iswctype.obj
 0001:000ce630       iswctype                   00000001800cf630 f   libucrtd:iswctype.obj
 0001:000ce6f0       _get_fpsr                  00000001800cf6f0 f   libucrtd:fpsr.obj
 0001:000ce700       _set_fpsr                  00000001800cf700 f   libucrtd:fpsr.obj
 0001:000ce70a       _fclrf                     00000001800cf70a f   libucrtd:fpsr.obj
 0001:000ce71e       _frnd                      00000001800cf71e f   libucrtd:fpsr.obj
 0001:000ce760       _errcode                   00000001800cf760 f   libucrtd:fpexcept.obj
 0001:000ce800       _except1                   00000001800cf800 f   libucrtd:fpexcept.obj
 0001:000ce990       _except2                   00000001800cf990 f   libucrtd:fpexcept.obj
 0001:000cebc0       _handle_exc                00000001800cfbc0 f   libucrtd:fpexcept.obj
 0001:000cf140       _handle_qnan2              00000001800d0140 f   libucrtd:fpexcept.obj
 0001:000cf180       _raise_exc                 00000001800d0180 f   libucrtd:fpexcept.obj
 0001:000cf1f0       _raise_exc_ex              00000001800d01f0 f   libucrtd:fpexcept.obj
 0001:000cfa00       _raise_excf                00000001800d0a00 f   libucrtd:fpexcept.obj
 0001:000cfa70       _set_errno_from_matherr    00000001800d0a70 f   libucrtd:fpexcept.obj
 0001:000cfad0       _umatherr                  00000001800d0ad0 f   libucrtd:fpexcept.obj
 0001:000cfbd0       nexttoward                 00000001800d0bd0 f   libucrtd:nexttoward.obj
 0001:000d0080       nexttowardf                00000001800d1080 f   libucrtd:nexttowardf.obj
 0001:000d21f0       _i64toa                    00000001800d31f0 f   libucrtd:xtoa.obj
 0001:000d2270       _i64toa_s                  00000001800d3270 f   libucrtd:xtoa.obj
 0001:000d22f0       _i64tow                    00000001800d32f0 f   libucrtd:xtoa.obj
 0001:000d2370       _i64tow_s                  00000001800d3370 f   libucrtd:xtoa.obj
 0001:000d23f0       _itoa                      00000001800d33f0 f   libucrtd:xtoa.obj
 0001:000d2470       _itoa_s                    00000001800d3470 f   libucrtd:xtoa.obj
 0001:000d24f0       _itow                      00000001800d34f0 f   libucrtd:xtoa.obj
 0001:000d2570       _itow_s                    00000001800d3570 f   libucrtd:xtoa.obj
 0001:000d25f0       _ltoa                      00000001800d35f0 f   libucrtd:xtoa.obj
 0001:000d2670       _ltoa_s                    00000001800d3670 f   libucrtd:xtoa.obj
 0001:000d26f0       _ltow                      00000001800d36f0 f   libucrtd:xtoa.obj
 0001:000d2770       _ltow_s                    00000001800d3770 f   libucrtd:xtoa.obj
 0001:000d27f0       _ui64toa                   00000001800d37f0 f   libucrtd:xtoa.obj
 0001:000d2840       _ui64toa_s                 00000001800d3840 f   libucrtd:xtoa.obj
 0001:000d2890       _ui64tow                   00000001800d3890 f   libucrtd:xtoa.obj
 0001:000d28e0       _ui64tow_s                 00000001800d38e0 f   libucrtd:xtoa.obj
 0001:000d2930       _ultoa                     00000001800d3930 f   libucrtd:xtoa.obj
 0001:000d2980       _ultoa_s                   00000001800d3980 f   libucrtd:xtoa.obj
 0001:000d29d0       _ultow                     00000001800d39d0 f   libucrtd:xtoa.obj
 0001:000d2a20       _ultow_s                   00000001800d3a20 f   libucrtd:xtoa.obj
 0001:000d3140       _mbstowcs_l                00000001800d4140 f   libucrtd:mbstowcs.obj
 0001:000d3190       _mbstowcs_s_l              00000001800d4190 f   libucrtd:mbstowcs.obj
 0001:000d38d0       mbstowcs                   00000001800d48d0 f   libucrtd:mbstowcs.obj
 0001:000d3940       mbstowcs_s                 00000001800d4940 f   libucrtd:mbstowcs.obj
 0001:000d44a0       _wcstombs_l                00000001800d54a0 f   libucrtd:wcstombs.obj
 0001:000d44f0       _wcstombs_s_l              00000001800d54f0 f   libucrtd:wcstombs.obj
 0001:000d4b70       wcstombs                   00000001800d5b70 f   libucrtd:wcstombs.obj
 0001:000d4bb0       wcstombs_s                 00000001800d5bb0 f   libucrtd:wcstombs.obj
 0001:000d5430       wcscat_s                   00000001800d6430 f   libucrtd:wcscat_s.obj
 0001:000d5c70       strcat_s                   00000001800d6c70 f   libucrtd:strcat_s.obj
 0001:000d5cb0       _malloc_base               00000001800d6cb0 f   libucrtd:malloc_base.obj
 0001:000d5d80       free                       00000001800d6d80 f   libucrtd:free.obj
 0001:000d5db0       malloc                     00000001800d6db0 f   libucrtd:malloc.obj
 0001:000d5de0       __iswcsym                  00000001800d6de0 f i libucrtd:_wctype.obj
 0001:000d5e30       __iswcsymf                 00000001800d6e30 f i libucrtd:_wctype.obj
 0001:000d5e80       _isleadbyte_l              00000001800d6e80 f i libucrtd:_wctype.obj
 0001:000d5ef0       _iswalnum_l                00000001800d6ef0 f i libucrtd:_wctype.obj
 0001:000d5f20       _iswalpha_l                00000001800d6f20 f i libucrtd:_wctype.obj
 0001:000d5f50       _iswblank_l                00000001800d6f50 f i libucrtd:_wctype.obj
 0001:000d5fa0       _iswcntrl_l                00000001800d6fa0 f i libucrtd:_wctype.obj
 0001:000d5fd0       _iswcsym_l                 00000001800d6fd0 f i libucrtd:_wctype.obj
 0001:000d6030       _iswcsymf_l                00000001800d7030 f i libucrtd:_wctype.obj
 0001:000d6090       _iswdigit_l                00000001800d7090 f i libucrtd:_wctype.obj
 0001:000d60c0       _iswgraph_l                00000001800d70c0 f i libucrtd:_wctype.obj
 0001:000d60f0       _iswlower_l                00000001800d70f0 f i libucrtd:_wctype.obj
 0001:000d6120       _iswprint_l                00000001800d7120 f i libucrtd:_wctype.obj
 0001:000d6150       _iswpunct_l                00000001800d7150 f i libucrtd:_wctype.obj
 0001:000d6180       _iswspace_l                00000001800d7180 f i libucrtd:_wctype.obj
 0001:000d61b0       _iswupper_l                00000001800d71b0 f i libucrtd:_wctype.obj
 0001:000d61e0       _iswxdigit_l               00000001800d71e0 f i libucrtd:_wctype.obj
 0001:000d6210       isleadbyte                 00000001800d7210 f i libucrtd:_wctype.obj
 0001:000d6230       iswalnum                   00000001800d7230 f i libucrtd:_wctype.obj
 0001:000d6260       iswalpha                   00000001800d7260 f i libucrtd:_wctype.obj
 0001:000d6290       iswascii                   00000001800d7290 f i libucrtd:_wctype.obj
 0001:000d62d0       iswblank                   00000001800d72d0 f i libucrtd:_wctype.obj
 0001:000d6320       iswcntrl                   00000001800d7320 f i libucrtd:_wctype.obj
 0001:000d6350       iswdigit                   00000001800d7350 f i libucrtd:_wctype.obj
 0001:000d6380       iswgraph                   00000001800d7380 f i libucrtd:_wctype.obj
 0001:000d63b0       iswlower                   00000001800d73b0 f i libucrtd:_wctype.obj
 0001:000d63e0       iswprint                   00000001800d73e0 f i libucrtd:_wctype.obj
 0001:000d6410       iswpunct                   00000001800d7410 f i libucrtd:_wctype.obj
 0001:000d6440       iswspace                   00000001800d7440 f i libucrtd:_wctype.obj
 0001:000d6470       iswupper                   00000001800d7470 f i libucrtd:_wctype.obj
 0001:000d64a0       iswxdigit                  00000001800d74a0 f i libucrtd:_wctype.obj
 0001:000d64d0       ??0?$__crt_scoped_stack_ptr@_W@@QEAA@U?$__crt_scoped_stack_ptr_tag@_W@@@Z 00000001800d74d0 f i libucrtd:getstringtypea.obj
 0001:000d6500       ??0?$__crt_scoped_stack_ptr_tag@_W@@QEAA@QEA_W@Z 00000001800d7500 f i libucrtd:getstringtypea.obj
 0001:000d6530       ??1?$__crt_scoped_stack_ptr@_W@@QEAA@XZ 00000001800d7530 f i libucrtd:getstringtypea.obj
 0001:000d6560       ?get@?$__crt_scoped_stack_ptr@_W@@QEBAPEA_WXZ 00000001800d7560 f i libucrtd:getstringtypea.obj
 0001:000d6580       _MallocaComputeSize        00000001800d7580 f i libucrtd:getstringtypea.obj
 0001:000d65d0       _MarkAllocaS               00000001800d75d0 f i libucrtd:getstringtypea.obj
 0001:000d6610       __acrt_GetStringTypeA      00000001800d7610 f   libucrtd:getstringtypea.obj
 0001:000d6900       _freea_crt                 00000001800d7900 f i libucrtd:getstringtypea.obj
 0001:000d69c0       __acrt_add_locale_ref      00000001800d79c0 f   libucrtd:locale_refcounting.obj
 0001:000d6b70       __acrt_free_locale         00000001800d7b70 f   libucrtd:locale_refcounting.obj
 0001:000d6fc0       __acrt_locale_add_lc_time_reference 00000001800d7fc0 f   libucrtd:locale_refcounting.obj
 0001:000d7010       __acrt_locale_free_lc_time_if_unreferenced 00000001800d8010 f   libucrtd:locale_refcounting.obj
 0001:000d7080       __acrt_locale_release_lc_time_reference 00000001800d8080 f   libucrtd:locale_refcounting.obj
 0001:000d70d0       __acrt_release_locale_ref  00000001800d80d0 f   libucrtd:locale_refcounting.obj
 0001:000d7290       __acrt_update_thread_locale_data 00000001800d8290 f   libucrtd:locale_refcounting.obj
 0001:000d7360       _updatetlocinfoEx_nolock   00000001800d8360 f   libucrtd:locale_refcounting.obj
 0001:000d7430       ??$?RG@__crt_internal_free_policy@@QEBAXQEBG@Z 00000001800d8430 f i libucrtd:initctype.obj
 0001:000d7460       ??$?RJ@__crt_internal_free_policy@@QEBAXQEBJ@Z 00000001800d8460 f i libucrtd:initctype.obj
 0001:000d7490       ??0?$__crt_unique_heap_ptr@GU__crt_internal_free_policy@@@@QEAA@QEAG@Z 00000001800d8490 f i libucrtd:initctype.obj
 0001:000d74c0       ??0?$__crt_unique_heap_ptr@JU__crt_internal_free_policy@@@@QEAA@QEAJ@Z 00000001800d84c0 f i libucrtd:initctype.obj
 0001:000d74f0       ??1?$__crt_unique_heap_ptr@GU__crt_internal_free_policy@@@@QEAA@XZ 00000001800d84f0 f i libucrtd:initctype.obj
 0001:000d7510       ??1?$__crt_unique_heap_ptr@JU__crt_internal_free_policy@@@@QEAA@XZ 00000001800d8510 f i libucrtd:initctype.obj
 0001:000d7530       ?detach@?$__crt_unique_heap_ptr@GU__crt_internal_free_policy@@@@QEAAPEAGXZ 00000001800d8530 f i libucrtd:initctype.obj
 0001:000d7570       ?detach@?$__crt_unique_heap_ptr@JU__crt_internal_free_policy@@@@QEAAPEAJXZ 00000001800d8570 f i libucrtd:initctype.obj
 0001:000d75b0       ?release@?$__crt_unique_heap_ptr@GU__crt_internal_free_policy@@@@QEAAXXZ 00000001800d85b0 f i libucrtd:initctype.obj
 0001:000d7600       ?release@?$__crt_unique_heap_ptr@JU__crt_internal_free_policy@@@@QEAAXXZ 00000001800d8600 f i libucrtd:initctype.obj
 0001:000d7650       ___lc_codepage_func        00000001800d8650 f   libucrtd:initctype.obj
 0001:000d76a0       ___lc_collate_cp_func      00000001800d86a0 f   libucrtd:initctype.obj
 0001:000d76f0       ___lc_locale_name_func     00000001800d86f0 f   libucrtd:initctype.obj
 0001:000d7740       ___mb_cur_max_func         00000001800d8740 f   libucrtd:initctype.obj
 0001:000d7790       ___mb_cur_max_l_func       00000001800d8790 f   libucrtd:initctype.obj
 0001:000d77e0       __acrt_locale_initialize_ctype 00000001800d87e0 f   libucrtd:initctype.obj
 0001:000d83c0       ??$?RUlconv@@@__crt_internal_free_policy@@QEBAXQEBUlconv@@@Z 00000001800d93c0 f i libucrtd:initmon.obj
 0001:000d83f0       ??0?$__crt_unique_heap_ptr@Ulconv@@U__crt_internal_free_policy@@@@QEAA@QEAUlconv@@@Z 00000001800d93f0 f i libucrtd:initmon.obj
 0001:000d8420       ??1?$__crt_unique_heap_ptr@Ulconv@@U__crt_internal_free_policy@@@@QEAA@XZ 00000001800d9420 f i libucrtd:initmon.obj
 0001:000d8440       ?detach@?$__crt_unique_heap_ptr@Ulconv@@U__crt_internal_free_policy@@@@QEAAPEAUlconv@@XZ 00000001800d9440 f i libucrtd:initmon.obj
 0001:000d8480       ?release@?$__crt_unique_heap_ptr@Ulconv@@U__crt_internal_free_policy@@@@QEAAXXZ 00000001800d9480 f i libucrtd:initmon.obj
 0001:000d84d0       __acrt_locale_free_monetary 00000001800d94d0 f   libucrtd:initmon.obj
 0001:000d8770       __acrt_locale_initialize_monetary 00000001800d9770 f   libucrtd:initmon.obj
 0001:000d9380       __acrt_locale_free_numeric 00000001800da380 f   libucrtd:initnum.obj
 0001:000d9490       __acrt_locale_initialize_numeric 00000001800da490 f   libucrtd:initnum.obj
 0001:000d9c00       ??$?RU__crt_lc_time_data@@@__crt_internal_free_policy@@QEBAXQEBU__crt_lc_time_data@@@Z 00000001800dac00 f i libucrtd:inittime.obj
 0001:000d9d50       ??0?$__crt_unique_heap_ptr@U__crt_lc_time_data@@U__crt_internal_free_policy@@@@QEAA@QEAU__crt_lc_time_data@@@Z 00000001800dad50 f i libucrtd:inittime.obj
 0001:000d9d80       ??1?$__crt_unique_heap_ptr@U__crt_lc_time_data@@U__crt_internal_free_policy@@@@QEAA@XZ 00000001800dad80 f i libucrtd:inittime.obj
 0001:000d9da0       ??B?$__crt_unique_heap_ptr@U__crt_lc_time_data@@U__crt_internal_free_policy@@@@QEBA_NXZ 00000001800dada0 f i libucrtd:inittime.obj
 0001:000d9dc0       ?detach@?$__crt_unique_heap_ptr@U__crt_lc_time_data@@U__crt_internal_free_policy@@@@QEAAPEAU__crt_lc_time_data@@XZ 00000001800dadc0 f i libucrtd:inittime.obj
 0001:000d9e70       ?get@?$__crt_unique_heap_ptr@U__crt_lc_time_data@@U__crt_internal_free_policy@@@@QEBAPEAU__crt_lc_time_data@@XZ 00000001800dae70 f i libucrtd:inittime.obj
 0001:000da680       ?is_valid@?$__crt_unique_heap_ptr@U__crt_lc_time_data@@U__crt_internal_free_policy@@@@QEBA_NXZ 00000001800db680 f i libucrtd:inittime.obj
 0001:000da6c0       ?release@?$__crt_unique_heap_ptr@U__crt_lc_time_data@@U__crt_internal_free_policy@@@@QEAAXXZ 00000001800db6c0 f i libucrtd:inittime.obj
 0001:000da710       __acrt_locale_free_time    00000001800db710 f   libucrtd:inittime.obj
 0001:000da8e0       __acrt_locale_initialize_time 00000001800db8e0 f   libucrtd:inittime.obj
 0001:000da9a0       __pctype_func              00000001800db9a0 f   libucrtd:ctype.obj
 0001:000da9f0       __pwctype_func             00000001800db9f0 f   libucrtd:ctype.obj
 0001:000daa00       wcscmp                     00000001800dba00 f   libucrtd:wcscmp.obj
 0001:000daaa0       wcscspn                    00000001800dbaa0 f   libucrtd:wcscspn.obj
 0001:000dab60       wcsncmp                    00000001800dbb60 f   libucrtd:wcsncmp.obj
 0001:000dac10       wcspbrk                    00000001800dbc10 f   libucrtd:wcspbrk.obj
 0001:000dbc50       __acrt_get_qualified_locale 00000001800dcc50 f   libucrtd:get_qualified_locale.obj
 0001:000dd0b0       __acrt_get_qualified_locale_downlevel 00000001800de0b0 f   libucrtd:getqloc_downlevel.obj
 0001:000dd4f0       localeconv                 00000001800de4f0 f   libucrtd:localeconv.obj
 0001:000dd820       __acrt_DownlevelLCIDToLocaleName 00000001800de820 f   libucrtd:lcidtoname_downlevel.obj
 0001:000dd960       __acrt_DownlevelLocaleNameToLCID 00000001800de960 f   libucrtd:lcidtoname_downlevel.obj
 0001:000dd9d0       ??1scoped_global_state_reset@__crt_state_management@@QEAA@XZ 00000001800de9d0 f i libucrtd:qsort.obj
 0001:000ddbb0       qsort                      00000001800debb0 f   libucrtd:qsort.obj
 0001:000de4d0       strpbrk                    00000001800df4d0 f   libucrtd:strpbrk.obj
 0001:000de690       ??B?$__crt_scoped_stack_ptr@_W@@QEBA_NXZ 00000001800df690 f i libucrtd:lcmapstringa.obj
 0001:000dee30       __acrt_LCMapStringA        00000001800dfe30 f   libucrtd:lcmapstringa.obj
 0001:000def10       _wcsnicoll                 00000001800dff10 f   libucrtd:wcsnicol.obj
 0001:000df300       _wcsnicoll_l               00000001800e0300 f   libucrtd:wcsnicol.obj
 0001:000df830       _strnicoll                 00000001800e0830 f   libucrtd:strnicol.obj
 0001:000df8a0       _strnicoll_l               00000001800e08a0 f   libucrtd:strnicol.obj
 0001:000dfd80       ??$?RU__crt_lowio_handle_data@@@__crt_internal_free_policy@@QEBAXQEBU__crt_lowio_handle_data@@@Z 00000001800e0d80 f i libucrtd:osfinfo.obj
 0001:000dfdb0       ??0?$__crt_unique_heap_ptr@U__crt_lowio_handle_data@@U__crt_internal_free_policy@@@@QEAA@QEAU__crt_lowio_handle_data@@@Z 00000001800e0db0 f i libucrtd:osfinfo.obj
 0001:000dfde0       ??1?$__crt_unique_heap_ptr@U__crt_lowio_handle_data@@U__crt_internal_free_policy@@@@QEAA@XZ 00000001800e0de0 f i libucrtd:osfinfo.obj
 0001:000dfe00       ??B?$__crt_unique_heap_ptr@U__crt_lowio_handle_data@@U__crt_internal_free_policy@@@@QEBA_NXZ 00000001800e0e00 f i libucrtd:osfinfo.obj
 0001:000dfe20       ?detach@?$__crt_unique_heap_ptr@U__crt_lowio_handle_data@@U__crt_internal_free_policy@@@@QEAAPEAU__crt_lowio_handle_data@@XZ 00000001800e0e20 f i libucrtd:osfinfo.obj
 0001:000dfe60       ?get@?$__crt_unique_heap_ptr@U__crt_lowio_handle_data@@U__crt_internal_free_policy@@@@QEBAPEAU__crt_lowio_handle_data@@XZ 00000001800e0e60 f i libucrtd:osfinfo.obj
 0001:000dfe80       ?is_valid@?$__crt_unique_heap_ptr@U__crt_lowio_handle_data@@U__crt_internal_free_policy@@@@QEBA_NXZ 00000001800e0e80 f i libucrtd:osfinfo.obj
 0001:000dfec0       ?release@?$__crt_unique_heap_ptr@U__crt_lowio_handle_data@@U__crt_internal_free_policy@@@@QEAAXXZ 00000001800e0ec0 f i libucrtd:osfinfo.obj
 0001:000dff10       __acrt_lowio_create_handle_array 00000001800e0f10 f   libucrtd:osfinfo.obj
 0001:000e0110       __acrt_lowio_destroy_handle_array 00000001800e1110 f   libucrtd:osfinfo.obj
 0001:000e01b0       __acrt_lowio_ensure_fh_exists 00000001800e11b0 f   libucrtd:osfinfo.obj
 0001:000e0360       __acrt_lowio_lock_fh       00000001800e1360 f   libucrtd:osfinfo.obj
 0001:000e03b0       __acrt_lowio_set_os_handle 00000001800e13b0 f   libucrtd:osfinfo.obj
 0001:000e0510       __acrt_lowio_unlock_fh     00000001800e1510 f   libucrtd:osfinfo.obj
 0001:000e0560       _alloc_osfhnd              00000001800e1560 f   libucrtd:osfinfo.obj
 0001:000e07e0       _free_osfhnd               00000001800e17e0 f   libucrtd:osfinfo.obj
 0001:000e0960       _get_osfhandle             00000001800e1960 f   libucrtd:osfinfo.obj
 0001:000e0be0       _open_osfhandle            00000001800e1be0 f   libucrtd:osfinfo.obj
 0001:000e0e80       _isatty                    00000001800e1e80 f   libucrtd:isatty.obj
 0001:000e0fd0       ??0__crt_stdio_stream@@QEAA@QEAU__crt_stdio_stream_data@@@Z 00000001800e1fd0 f i libucrtd:fflush.obj
 0001:000e1000       ?__acrt_stdio_reset_buffer@@YAXV__crt_stdio_stream@@@Z 00000001800e2000 f i libucrtd:fflush.obj
 0001:000e1060       ?has_all_of@__crt_stdio_stream@@QEBA_NJ@Z 00000001800e2060 f i libucrtd:fflush.obj
 0001:000e10b0       ?has_big_buffer@__crt_stdio_stream@@QEBA_NXZ 00000001800e20b0 f i libucrtd:fflush.obj
 0001:000e10e0       ?is_in_use@__crt_stdio_stream@@QEBA_NXZ 00000001800e20e0 f i libucrtd:fflush.obj
 0001:000e1130       __acrt_stdio_flush_nolock  00000001800e2130 f   libucrtd:fflush.obj
 0001:000e1290       _fflush_nolock             00000001800e2290 f   libucrtd:fflush.obj
 0001:000e1340       _flushall                  00000001800e2340 f   libucrtd:fflush.obj
 0001:000e1520       fflush                     00000001800e2520 f   libucrtd:fflush.obj
 0001:000e1590       __acrt_fp_strflt_to_string 00000001800e2590 f   libucrtd:_fptostr.obj
 0001:000e22c0       ??0big_integer@__crt_strtox@@QEAA@AEBU01@@Z 00000001800e32c0 f i libucrtd:cfout.obj
 0001:000e2340       ??0big_integer@__crt_strtox@@QEAA@XZ 00000001800e3340 f i libucrtd:cfout.obj
 0001:000e2390       ??0scoped_fp_state_reset@?A0xce32f86b@@QEAA@XZ 00000001800e3390 f i libucrtd:cfout.obj
 0001:000e2400       ??1scoped_fp_state_reset@?A0xce32f86b@@QEAA@XZ 00000001800e3400 f i libucrtd:cfout.obj
 0001:000e2440       ??4big_integer@__crt_strtox@@QEAAAEAU01@AEBU01@@Z 00000001800e3440 f i libucrtd:cfout.obj
 0001:000e24c0       ??8__crt_strtox@@YA_NAEBUbig_integer@0@0@Z 00000001800e34c0 f i libucrtd:cfout.obj
 0001:000e2540       ??9__crt_strtox@@YA_NAEBUbig_integer@0@0@Z 00000001800e3540 f i libucrtd:cfout.obj
 0001:000e2590       ?add_carry@__crt_strtox@@YAIAEAIII@Z 00000001800e3590 f i libucrtd:cfout.obj
 0001:000e25f0       ?add_multiply_carry@__crt_strtox@@YAIAEAIIII@Z 00000001800e35f0 f i libucrtd:cfout.obj
 0001:000e2660       ?bit_scan_reverse@__crt_strtox@@YAII@Z 00000001800e3660 f i libucrtd:cfout.obj
 0001:000e26a0       ?count_sequential_high_zeroes@__crt_strtox@@YAII@Z 00000001800e36a0 f i libucrtd:cfout.obj
 0001:000e26f0       ?divide@__crt_strtox@@YA_KAEAUbig_integer@1@AEBU21@@Z 00000001800e36f0 f i libucrtd:cfout.obj
 0001:000e3320       ?is_zero@__crt_strtox@@YA_NAEBUbig_integer@1@@Z 00000001800e4320 f i libucrtd:cfout.obj
 0001:000e3360       ?make_big_integer@__crt_strtox@@YA?AUbig_integer@1@_K@Z 00000001800e4360 f i libucrtd:cfout.obj
 0001:000e3460       ?make_big_integer_power_of_two@__crt_strtox@@YA?AUbig_integer@1@I@Z 00000001800e4460 f i libucrtd:cfout.obj
 0001:000e3570       ?multiply@__crt_strtox@@YA_NAEAUbig_integer@1@AEBU21@@Z 00000001800e4570 f i libucrtd:cfout.obj
 0001:000e39c0       ?multiply@__crt_strtox@@YA_NAEAUbig_integer@1@I@Z 00000001800e49c0 f i libucrtd:cfout.obj
 0001:000e3b30       ?multiply_64_32@__crt_strtox@@YA_K_KI@Z 00000001800e4b30 f i libucrtd:cfout.obj
 0001:000e3b50       ?multiply_by_power_of_ten@__crt_strtox@@YA_NAEAUbig_integer@1@I@Z 00000001800e4b50 f i libucrtd:cfout.obj
 0001:000e3d70       ?multiply_core@__crt_strtox@@YAIQEAIII@Z 00000001800e4d70 f i libucrtd:cfout.obj
 0001:000e3e10       ?shift_left@__crt_strtox@@YA_NAEAUbig_integer@1@I@Z 00000001800e4e10 f i libucrtd:cfout.obj
 0001:000e4210       __acrt_fltout              00000001800e5210 f   libucrtd:cfout.obj
 0001:000e5400       __acrt_stdio_flush_and_write_narrow_nolock 00000001800e6400 f   libucrtd:_flsbuf.obj
 0001:000e5440       __acrt_stdio_flush_and_write_wide_nolock 00000001800e6440 f   libucrtd:_flsbuf.obj
 0001:000e5480       _fcloseall                 00000001800e6480 f   libucrtd:closeall.obj
 0001:000e55d0       ?has_crt_buffer@__crt_stdio_stream@@QEBA_NXZ 00000001800e65d0 f i libucrtd:_freebuf.obj
 0001:000e5600       __acrt_stdio_free_buffer_nolock 00000001800e6600 f   libucrtd:_freebuf.obj
 0001:000e5720       _set_error_mode            00000001800e6720 f   libucrtd:set_error_mode.obj
 0001:000e5860       _d_int                     00000001800e6860 f   libucrtd:_test.obj
 0001:000e5c60       _dtest                     00000001800e6c60 f   libucrtd:_test.obj
 0001:000e5e00       _fd_int                    00000001800e6e00 f   libucrtd:_test.obj
 0001:000e60c0       _fdtest                    00000001800e70c0 f   libucrtd:_test.obj
 0001:000e61e0       _fperrraise                00000001800e71e0 f   libucrtd:_test.obj
 0001:000e6220       _ld_int                    00000001800e7220 f   libucrtd:_test.obj
 0001:000e6250       _ldtest                    00000001800e7250 f   libucrtd:_test.obj
 0001:000e6660       __acrt_GetLocaleInfoA      00000001800e7660 f   libucrtd:getlocaleinfoa.obj
 0001:000e6bd0       _wcsicmp                   00000001800e7bd0 f   libucrtd:wcsicmp.obj
 0001:000e6ec0       _wcsicmp_l                 00000001800e7ec0 f   libucrtd:wcsicmp.obj
 0001:000e7310       _wcsnicmp                  00000001800e8310 f   libucrtd:wcsnicmp.obj
 0001:000e7650       _wcsnicmp_l                00000001800e8650 f   libucrtd:wcsnicmp.obj
 0001:000e7ac0       __strncnt                  00000001800e8ac0 f   libucrtd:strncnt.obj
 0001:000e7b40       __acrt_CompareStringW      00000001800e8b40 f   libucrtd:comparestringw.obj
 0001:000e7cc0       __ascii_strnicmp           00000001800e8cc0 f   libucrtd:strnicmp.obj
 0001:000e7de0       _strnicmp                  00000001800e8de0 f   libucrtd:strnicmp.obj
 0001:000e80d0       _strnicmp_l                00000001800e90d0 f   libucrtd:strnicmp.obj
 0001:000e8db0       __acrt_CompareStringA      00000001800e9db0 f   libucrtd:comparestringa.obj
 0001:000e8e70       ??$?RV<lambda_2ce24b26f23dade10250ef086380d911>@@AEAV<lambda_e9ab68cc08dfd839979545c079379e6e>@@V<lambda_6262c464c96e4c69799ed44814c7c457>@@@?$__crt_seh_guarded_call@H@@QEAAH$$QEAV<lambda_2ce24b26f23dade10250ef086380d911>@@AEAV<lambda_e9ab68cc08dfd839979545c079379e6e>@@$$QEAV<lambda_6262c464c96e4c69799ed44814c7c457>@@@Z 00000001800e9e70 f i libucrtd:commit.obj
 0001:000e8ed0       ??$__acrt_lowio_lock_fh_and_call@V<lambda_e9ab68cc08dfd839979545c079379e6e>@@@@YAHH$$QEAV<lambda_e9ab68cc08dfd839979545c079379e6e>@@@Z 00000001800e9ed0 f i libucrtd:commit.obj
 0001:000e9120       _commit                    00000001800ea120 f   libucrtd:commit.obj
 0001:000ea840       _write                     00000001800eb840 f   libucrtd:write.obj
 0001:000eab80       _write_nolock              00000001800ebb80 f   libucrtd:write.obj
 0001:000eb2d0       log10                      00000001800ec2d0 f   libucrtd:log10.obj
 0001:000eb9f0       ceil                       00000001800ec9f0 f   libucrtd:ceil.obj
 0001:000ebc30       fegetenv                   00000001800ecc30 f   libucrtd:fegetenv.obj
 0001:000ebc70       fesetenv                   00000001800ecc70 f   libucrtd:fesetenv.obj
 0001:000ebcf0       feholdexcept               00000001800eccf0 f   libucrtd:feholdexcept.obj
 0001:000ec850       _lseek                     00000001800ed850 f   libucrtd:lseek.obj
 0001:000ec890       _lseek_nolock              00000001800ed890 f   libucrtd:lseek.obj
 0001:000ec8d0       _lseeki64                  00000001800ed8d0 f   libucrtd:lseek.obj
 0001:000ec910       _lseeki64_nolock           00000001800ed910 f   libucrtd:lseek.obj
 0001:000ec950       __acrt_stdio_allocate_buffer_nolock 00000001800ed950 f   libucrtd:_getbuf.obj
 0001:000ecb20       _fclose_nolock             00000001800edb20 f   libucrtd:fclose.obj
 0001:000ecd10       fclose                     00000001800edd10 f   libucrtd:fclose.obj
 0001:000ecea0       fegetexceptflag            00000001800edea0 f   libucrtd:fegetexceptflag.obj
 0001:000ecf20       fesetexceptflag            00000001800edf20 f   libucrtd:fesetexceptflag.obj
 0001:000ecfe0       __acrt_fenv_get_fp_status_word_from_exception_mask 00000001800edfe0 f   libucrtd:_fenvutils.obj
 0001:000ed0a0       _getfpcontrolword          00000001800ee0a0 f   libucrtd:_fenvutils.obj
 0001:000ed0c0       _getfpstatusword           00000001800ee0c0 f   libucrtd:_fenvutils.obj
 0001:000ed0e0       _setfpcontrolword          00000001800ee0e0 f   libucrtd:_fenvutils.obj
 0001:000ed110       _setfpstatusword           00000001800ee110 f   libucrtd:_fenvutils.obj
 0001:000ed180       _towlower_l                00000001800ee180 f   libucrtd:towlower.obj
 0001:000ed3b0       towlower                   00000001800ee3b0 f   libucrtd:towlower.obj
 0001:000ed3d0       ??$?RV<lambda_9fda798407f8391327e99fec20084266>@@AEAV<lambda_6e3e78bb6855d1e4040e022c1b427e22>@@V<lambda_5d54a80e00f5dcce6acfc22736ebf0cf>@@@?$__crt_seh_guarded_call@G@@QEAAG$$QEAV<lambda_9fda798407f8391327e99fec20084266>@@AEAV<lambda_6e3e78bb6855d1e4040e022c1b427e22>@@$$QEAV<lambda_5d54a80e00f5dcce6acfc22736ebf0cf>@@@Z 00000001800ee3d0 f i libucrtd:putwch.obj
 0001:000ed420       ??$__acrt_lock_and_call@V<lambda_6e3e78bb6855d1e4040e022c1b427e22>@@@@YAGW4__acrt_lock_id@@$$QEAV<lambda_6e3e78bb6855d1e4040e022c1b427e22>@@@Z 00000001800ee420 f i libucrtd:putwch.obj
 0001:000ed490       _putwch                    00000001800ee490 f   libucrtd:putwch.obj
 0001:000ed4dc       _putwch_nolock             00000001800ee4dc f   libucrtd:putwch.obj
 0001:000ed550       __acrt_initialize_fma3     00000001800ee550 f   libucrtd:fma3_available.obj
 0001:000ed630       _get_FMA3_enable           00000001800ee630 f   libucrtd:fma3_available.obj
 0001:000ed640       _set_FMA3_enable           00000001800ee640 f   libucrtd:fma3_available.obj
 0001:000ed670       _log10_special             00000001800ee670 f   libucrtd:log_special.obj
 0001:000ed6d0       _log10f_special            00000001800ee6d0 f   libucrtd:log_special.obj
 0001:000ed730       _log_special               00000001800ee730 f   libucrtd:log_special.obj
 0001:000ed900       _logf_special              00000001800ee900 f   libucrtd:log_special.obj
 0001:000edd70       _clearfp                   00000001800eed70 f   libucrtd:ieee.obj
 0001:000edda0       _control87                 00000001800eeda0 f   libucrtd:ieee.obj
 0001:000eddd0       _controlfp                 00000001800eedd0 f   libucrtd:ieee.obj
 0001:000ede00       _fpreset                   00000001800eee00 f   libucrtd:ieee.obj
 0001:000edfc0       _set_controlfp             00000001800eefc0 f   libucrtd:ieee.obj
 0001:000ee030       _statusfp                  00000001800ef030 f   libucrtd:ieee.obj
 0001:000ee1c0       ??$?RV<lambda_4f1f1a84956f0d44b74de224c960ff76>@@AEAV<lambda_a8f98972ebaa5f7148d35bffe53bd70d>@@V<lambda_f6ca65dda28655a1cf758c1c4e38e52a>@@@?$__crt_seh_guarded_call@H@@QEAAH$$QEAV<lambda_4f1f1a84956f0d44b74de224c960ff76>@@AEAV<lambda_a8f98972ebaa5f7148d35bffe53bd70d>@@$$QEAV<lambda_f6ca65dda28655a1cf758c1c4e38e52a>@@@Z 00000001800ef1c0 f i libucrtd:close.obj
 0001:000ee220       ??$__acrt_lowio_lock_fh_and_call@V<lambda_a8f98972ebaa5f7148d35bffe53bd70d>@@@@YAHH$$QEAV<lambda_a8f98972ebaa5f7148d35bffe53bd70d>@@@Z 00000001800ef220 f i libucrtd:close.obj
 0001:000ee570       _close                     00000001800ef570 f   libucrtd:close.obj
 0001:000ee7d0       _close_nolock              00000001800ef7d0 f   libucrtd:close.obj
 0001:000ee850       ??$?RU__crt_stdio_stream_data@@@__crt_internal_free_policy@@QEBAXQEBU__crt_stdio_stream_data@@@Z 00000001800ef850 f i libucrtd:stream.obj
 0001:000ee880       ??0?$__crt_unique_heap_ptr@U__crt_stdio_stream_data@@U__crt_internal_free_policy@@@@QEAA@QEAU__crt_stdio_stream_data@@@Z 00000001800ef880 f i libucrtd:stream.obj
 0001:000ee8b0       ??0__crt_stdio_stream@@QEAA@XZ 00000001800ef8b0 f i libucrtd:stream.obj
 0001:000ee8d0       ??1?$__crt_unique_heap_ptr@U__crt_stdio_stream_data@@U__crt_internal_free_policy@@@@QEAA@XZ 00000001800ef8d0 f i libucrtd:stream.obj
 0001:000ee8f0       ?__acrt_stdio_allocate_stream@@YA?AV__crt_stdio_stream@@XZ 00000001800ef8f0 f   libucrtd:stream.obj
 0001:000ee9e0       ?__acrt_stdio_free_stream@@YAXV__crt_stdio_stream@@@Z 00000001800ef9e0 f   libucrtd:stream.obj
 0001:000eeaa0       ?deallocate@__crt_stdio_stream@@QEAAXXZ 00000001800efaa0 f i libucrtd:stream.obj
 0001:000eeac0       ?detach@?$__crt_unique_heap_ptr@U__crt_stdio_stream_data@@U__crt_internal_free_policy@@@@QEAAPEAU__crt_stdio_stream_data@@XZ 00000001800efac0 f i libucrtd:stream.obj
 0001:000eed10       ?lock@__crt_stdio_stream@@QEBAXXZ 00000001800efd10 f i libucrtd:stream.obj
 0001:000eed40       ?release@?$__crt_unique_heap_ptr@U__crt_stdio_stream_data@@U__crt_internal_free_policy@@@@QEAAXXZ 00000001800efd40 f i libucrtd:stream.obj
 0001:000eed90       ?try_allocate@__crt_stdio_stream@@QEAA_NXZ 00000001800efd90 f i libucrtd:stream.obj
 0001:000eee10       ?unlock@__crt_stdio_stream@@QEBAXXZ 00000001800efe10 f i libucrtd:stream.obj
 0001:000eee40       fetestexcept               00000001800efe40 f   libucrtd:fetestexcept.obj
 0001:000eee80       __acrt_LCMapStringW        00000001800efe80 f   libucrtd:lcmapstringw.obj
 0001:000eef68       __dcrt_lowio_initialize_console_output 00000001800eff68 f   libucrtd:initcon.obj
 0001:000eefb4       __dcrt_terminate_console_output 00000001800effb4 f   libucrtd:initcon.obj
 0001:000eefdc       InitializeSListHead        00000001800effdc f   kernel32:KERNEL32.dll
 0001:000eefe2       QueryPerformanceCounter    00000001800effe2 f   kernel32:KERNEL32.dll
 0001:000eefe8       GetCurrentProcessId        00000001800effe8 f   kernel32:KERNEL32.dll
 0001:000eefee       GetCurrentThreadId         00000001800effee f   kernel32:KERNEL32.dll
 0001:000eeff4       GetSystemTimeAsFileTime    00000001800efff4 f   kernel32:KERNEL32.dll
 0001:000eeffa       RtlCaptureContext          00000001800efffa f   kernel32:KERNEL32.dll
 0001:000ef000       RtlLookupFunctionEntry     00000001800f0000 f   kernel32:KERNEL32.dll
 0001:000ef006       RtlVirtualUnwind           00000001800f0006 f   kernel32:KERNEL32.dll
 0001:000ef00c       IsDebuggerPresent          00000001800f000c f   kernel32:KERNEL32.dll
 0001:000ef012       UnhandledExceptionFilter   00000001800f0012 f   kernel32:KERNEL32.dll
 0001:000ef018       SetUnhandledExceptionFilter 00000001800f0018 f   kernel32:KERNEL32.dll
 0001:000ef01e       GetStartupInfoW            00000001800f001e f   kernel32:KERNEL32.dll
 0001:000ef024       IsProcessorFeaturePresent  00000001800f0024 f   kernel32:KERNEL32.dll
 0001:000ef02a       GetModuleHandleW           00000001800f002a f   kernel32:KERNEL32.dll
 0001:000ef030       RaiseException             00000001800f0030 f   kernel32:KERNEL32.dll
 0001:000ef036       MultiByteToWideChar        00000001800f0036 f   kernel32:KERNEL32.dll
 0001:000ef03c       WideCharToMultiByte        00000001800f003c f   kernel32:KERNEL32.dll
 0001:000ef042       GetLastError               00000001800f0042 f   kernel32:KERNEL32.dll
 0001:000ef048       HeapAlloc                  00000001800f0048 f   kernel32:KERNEL32.dll
 0001:000ef04e       HeapFree                   00000001800f004e f   kernel32:KERNEL32.dll
 0001:000ef054       GetProcessHeap             00000001800f0054 f   kernel32:KERNEL32.dll
 0001:000ef05a       VirtualQuery               00000001800f005a f   kernel32:KERNEL32.dll
 0001:000ef060       FreeLibrary                00000001800f0060 f   kernel32:KERNEL32.dll
 0001:000ef066       GetProcAddress             00000001800f0066 f   kernel32:KERNEL32.dll
 0001:000ef06c       GetCurrentProcess          00000001800f006c f   kernel32:KERNEL32.dll
 0001:000ef072       TerminateProcess           00000001800f0072 f   kernel32:KERNEL32.dll
 0001:000ef078       InterlockedPushEntrySList  00000001800f0078 f   kernel32:KERNEL32.dll
 0001:000ef07e       InterlockedFlushSList      00000001800f007e f   kernel32:KERNEL32.dll
 0001:000ef084       RtlUnwindEx                00000001800f0084 f   kernel32:KERNEL32.dll
 0001:000ef08a       GetModuleFileNameW         00000001800f008a f   kernel32:KERNEL32.dll
 0001:000ef090       LoadLibraryExW             00000001800f0090 f   kernel32:KERNEL32.dll
 0001:000ef096       SetLastError               00000001800f0096 f   kernel32:KERNEL32.dll
 0001:000ef09c       EnterCriticalSection       00000001800f009c f   kernel32:KERNEL32.dll
 0001:000ef0a2       LeaveCriticalSection       00000001800f00a2 f   kernel32:KERNEL32.dll
 0001:000ef0a8       DeleteCriticalSection      00000001800f00a8 f   kernel32:KERNEL32.dll
 0001:000ef0ae       InitializeCriticalSectionAndSpinCount 00000001800f00ae f   kernel32:KERNEL32.dll
 0001:000ef0b4       TlsAlloc                   00000001800f00b4 f   kernel32:KERNEL32.dll
 0001:000ef0ba       TlsGetValue                00000001800f00ba f   kernel32:KERNEL32.dll
 0001:000ef0c0       TlsSetValue                00000001800f00c0 f   kernel32:KERNEL32.dll
 0001:000ef0c6       TlsFree                    00000001800f00c6 f   kernel32:KERNEL32.dll
 0001:000ef0cc       GetModuleFileNameA         00000001800f00cc f   kernel32:KERNEL32.dll
 0001:000ef0d2       GetModuleHandleExW         00000001800f00d2 f   kernel32:KERNEL32.dll
 0001:000ef0d8       HeapSize                   00000001800f00d8 f   kernel32:KERNEL32.dll
 0001:000ef0de       HeapValidate               00000001800f00de f   kernel32:KERNEL32.dll
 0001:000ef0e4       GetSystemInfo              00000001800f00e4 f   kernel32:KERNEL32.dll
 0001:000ef0ea       ExitProcess                00000001800f00ea f   kernel32:KERNEL32.dll
 0001:000ef0f0       GetStdHandle               00000001800f00f0 f   kernel32:KERNEL32.dll
 0001:000ef0f6       GetFileType                00000001800f00f6 f   kernel32:KERNEL32.dll
 0001:000ef0fc       WriteFile                  00000001800f00fc f   kernel32:KERNEL32.dll
 0001:000ef102       OutputDebugStringA         00000001800f0102 f   kernel32:KERNEL32.dll
 0001:000ef108       OutputDebugStringW         00000001800f0108 f   kernel32:KERNEL32.dll
 0001:000ef10e       WriteConsoleW              00000001800f010e f   kernel32:KERNEL32.dll
 0001:000ef114       CloseHandle                00000001800f0114 f   kernel32:KERNEL32.dll
 0001:000ef11a       WaitForSingleObjectEx      00000001800f011a f   kernel32:KERNEL32.dll
 0001:000ef120       CreateThread               00000001800f0120 f   kernel32:KERNEL32.dll
 0001:000ef126       SetConsoleCtrlHandler      00000001800f0126 f   kernel32:KERNEL32.dll
 0001:000ef12c       HeapReAlloc                00000001800f012c f   kernel32:KERNEL32.dll
 0001:000ef132       GetCurrentThread           00000001800f0132 f   kernel32:KERNEL32.dll
 0001:000ef138       HeapQueryInformation       00000001800f0138 f   kernel32:KERNEL32.dll
 0001:000ef13e       GetACP                     00000001800f013e f   kernel32:KERNEL32.dll
 0001:000ef144       GetDateFormatW             00000001800f0144 f   kernel32:KERNEL32.dll
 0001:000ef14a       GetTimeFormatW             00000001800f014a f   kernel32:KERNEL32.dll
 0001:000ef150       CompareStringW             00000001800f0150 f   kernel32:KERNEL32.dll
 0001:000ef156       LCMapStringW               00000001800f0156 f   kernel32:KERNEL32.dll
 0001:000ef15c       GetLocaleInfoW             00000001800f015c f   kernel32:KERNEL32.dll
 0001:000ef162       IsValidLocale              00000001800f0162 f   kernel32:KERNEL32.dll
 0001:000ef168       GetUserDefaultLCID         00000001800f0168 f   kernel32:KERNEL32.dll
 0001:000ef16e       EnumSystemLocalesW         00000001800f016e f   kernel32:KERNEL32.dll
 0001:000ef174       FindClose                  00000001800f0174 f   kernel32:KERNEL32.dll
 0001:000ef17a       FindFirstFileExA           00000001800f017a f   kernel32:KERNEL32.dll
 0001:000ef180       FindFirstFileExW           00000001800f0180 f   kernel32:KERNEL32.dll
 0001:000ef186       FindNextFileA              00000001800f0186 f   kernel32:KERNEL32.dll
 0001:000ef18c       FindNextFileW              00000001800f018c f   kernel32:KERNEL32.dll
 0001:000ef192       IsValidCodePage            00000001800f0192 f   kernel32:KERNEL32.dll
 0001:000ef198       GetOEMCP                   00000001800f0198 f   kernel32:KERNEL32.dll
 0001:000ef19e       GetCPInfo                  00000001800f019e f   kernel32:KERNEL32.dll
 0001:000ef1a4       GetCommandLineA            00000001800f01a4 f   kernel32:KERNEL32.dll
 0001:000ef1aa       GetCommandLineW            00000001800f01aa f   kernel32:KERNEL32.dll
 0001:000ef1b0       GetEnvironmentStringsW     00000001800f01b0 f   kernel32:KERNEL32.dll
 0001:000ef1b6       FreeEnvironmentStringsW    00000001800f01b6 f   kernel32:KERNEL32.dll
 0001:000ef1bc       SetEnvironmentVariableA    00000001800f01bc f   kernel32:KERNEL32.dll
 0001:000ef1c2       SetEnvironmentVariableW    00000001800f01c2 f   kernel32:KERNEL32.dll
 0001:000ef1c8       GetStringTypeW             00000001800f01c8 f   kernel32:KERNEL32.dll
 0001:000ef1ce       SetStdHandle               00000001800f01ce f   kernel32:KERNEL32.dll
 0001:000ef1d4       FlushFileBuffers           00000001800f01d4 f   kernel32:KERNEL32.dll
 0001:000ef1da       GetConsoleCP               00000001800f01da f   kernel32:KERNEL32.dll
 0001:000ef1e0       GetConsoleMode             00000001800f01e0 f   kernel32:KERNEL32.dll
 0001:000ef1e6       SetFilePointerEx           00000001800f01e6 f   kernel32:KERNEL32.dll
 0001:000ef1ec       CreateFileW                00000001800f01ec f   kernel32:KERNEL32.dll
 0001:000ef200       _FindPESection             00000001800f0200 f   LIBCMTD:pesect.obj
 0001:000ef2d0       _IsNonwritableInCurrentImage 00000001800f02d0 f   LIBCMTD:pesect.obj
 0001:000ef390       _ValidateImageBase         00000001800f0390 f   LIBCMTD:pesect.obj
 0001:000ef430       __GSHandlerCheck_SEH       00000001800f0430 f   LIBCMTD:_gshandlerseh_.obj
 0001:000ef520       __GSHandlerCheck_EH        00000001800f0520 f   LIBCMTD:gshandlereh.obj
 0001:000ef5f0       strchr                     00000001800f05f0 f   libvcruntimed:strchr.obj
 0001:000ef7e0       wcschr                     00000001800f07e0 f   libvcruntimed:wcschr.obj
 0001:000ef990       strrchr                    00000001800f0990 f   libvcruntimed:strrchr.obj
 0001:000eff70       ?_ExecutionInCatch@@YAHPEAU_xDISPATCHER_CONTEXT@@PEBU_s_FuncInfo@@@Z 00000001800f0f70 f   libvcruntimed:trnsctrl.obj
 0001:000effe0       ?_GetEstablisherFrame@@YAPEA_KPEA_KPEAU_xDISPATCHER_CONTEXT@@PEBU_s_FuncInfo@@0@Z 00000001800f0fe0 f   libvcruntimed:trnsctrl.obj
 0001:000f01b0       ?_GetRangeOfTrysToCheck@@YAPEBU_s_TryBlockMapEntry@@PEA_KPEBU_s_FuncInfo@@HHPEAI2PEAU_xDISPATCHER_CONTEXT@@@Z 00000001800f11b0 f   libvcruntimed:trnsctrl.obj
 0001:000f0450       ?__FrameUnwindToEmptyState@@YAXPEA_KPEAU_xDISPATCHER_CONTEXT@@PEBU_s_FuncInfo@@@Z 00000001800f1450 f   libvcruntimed:trnsctrl.obj
 0001:000f0510       ?__SehTransFilter@@YAHPEAU_EXCEPTION_POINTERS@@PEAUEHExceptionRecord@@PEA_KPEAU_CONTEXT@@PEAU_xDISPATCHER_CONTEXT@@PEBU_s_FuncInfo@@PEAH@Z 00000001800f1510 f   libvcruntimed:trnsctrl.obj
 0001:000f05f0       _CallSETranslator          00000001800f15f0 f   libvcruntimed:trnsctrl.obj
 0001:000f06a0       _CreateFrameInfo           00000001800f16a0 f   libvcruntimed:trnsctrl.obj
 0001:000f0730       _FindAndUnlinkFrame        00000001800f1730 f   libvcruntimed:trnsctrl.obj
 0001:000f07d0       _GetImageBase              00000001800f17d0 f   libvcruntimed:trnsctrl.obj
 0001:000f07f0       _GetThrowImageBase         00000001800f17f0 f   libvcruntimed:trnsctrl.obj
 0001:000f0810       _IsExceptionObjectToBeDestroyed 00000001800f1810 f   libvcruntimed:trnsctrl.obj
 0001:000f0880       _MoveContext               00000001800f1880 f   libvcruntimed:trnsctrl.obj
 0001:000f08c0       _SetImageBase              00000001800f18c0 f   libvcruntimed:trnsctrl.obj
 0001:000f08f0       _SetThrowImageBase         00000001800f18f0 f   libvcruntimed:trnsctrl.obj
 0001:000f0920       _UnwindNestedFrames        00000001800f1920 f   libvcruntimed:trnsctrl.obj
 0001:000f0ae0       __CxxFrameHandler          00000001800f1ae0 f   libvcruntimed:trnsctrl.obj
 0001:000f0bd0       __CxxFrameHandler2         00000001800f1bd0 f   libvcruntimed:trnsctrl.obj
 0001:000f0c20       __CxxFrameHandler3         00000001800f1c20 f   libvcruntimed:trnsctrl.obj
 0001:000f0d10       ?__GetCurrentState@@YAHPEA_KPEAU_xDISPATCHER_CONTEXT@@PEBU_s_FuncInfo@@@Z 00000001800f1d10 f   libvcruntimed:ehstate.obj
 0001:000f0d80       ?__GetUnwindTryBlock@@YAHPEA_KPEAU_xDISPATCHER_CONTEXT@@PEBU_s_FuncInfo@@@Z 00000001800f1d80 f   libvcruntimed:ehstate.obj
 0001:000f0de0       ?__SetState@@YAXPEA_KPEAU_xDISPATCHER_CONTEXT@@PEBU_s_FuncInfo@@H@Z 00000001800f1de0 f   libvcruntimed:ehstate.obj
 0001:000f0e20       ?__SetUnwindTryBlock@@YAXPEA_KPEAU_xDISPATCHER_CONTEXT@@PEBU_s_FuncInfo@@H@Z 00000001800f1e20 f   libvcruntimed:ehstate.obj
 0001:000f0eb0       ?__StateFromControlPc@@YAHPEBU_s_FuncInfo@@PEAU_xDISPATCHER_CONTEXT@@@Z 00000001800f1eb0 f   libvcruntimed:ehstate.obj
 0001:000f0ef0       ?__StateFromIp@@YAHPEBU_s_FuncInfo@@PEAU_xDISPATCHER_CONTEXT@@_J@Z 00000001800f1ef0 f   libvcruntimed:ehstate.obj
 0001:000f1010       __DestructExceptionObject  00000001800f2010 f   libvcruntimed:frame.obj
 0001:000f1150       ??0bad_exception@std@@QEAA@AEBV01@@Z 00000001800f2150 f i libvcruntimed:frame.obj
 0001:000f11a0       ??0bad_exception@std@@QEAA@XZ 00000001800f21a0 f i libvcruntimed:frame.obj
 0001:000f11f0       ??0exception@std@@QEAA@AEBV01@@Z 00000001800f21f0 f i libvcruntimed:frame.obj
 0001:000f1260       ??0exception@std@@QEAA@QEBDH@Z 00000001800f2260 f i libvcruntimed:frame.obj
 0001:000f12c0       ??1bad_exception@std@@UEAA@XZ 00000001800f22c0 f i libvcruntimed:frame.obj
 0001:000f12e0       ??1exception@std@@UEAA@XZ  00000001800f22e0 f i libvcruntimed:frame.obj
 0001:000f1320       ??8type_info@@QEBA_NAEBV0@@Z 00000001800f2320 f i libvcruntimed:frame.obj
 0001:000f1380       ??_Ebad_exception@std@@UEAAPEAXI@Z 00000001800f2380 f i libvcruntimed:frame.obj
 0001:000f1380       ??_Gbad_exception@std@@UEAAPEAXI@Z 00000001800f2380 f i libvcruntimed:frame.obj
 0001:000f13d0       ??_Gexception@std@@UEAAPEAXI@Z 00000001800f23d0 f i libvcruntimed:frame.obj
 0001:000f13d0       ??_Eexception@std@@UEAAPEAXI@Z 00000001800f23d0 f i libvcruntimed:frame.obj
 0001:000f2760       ?_CallMemberFunction0@@YAXPEAXP6AX0@Z@Z 00000001800f3760 f i libvcruntimed:frame.obj
 0001:000f2790       ?_CallMemberFunction1@@YAXPEAXP6AX0@Z0@Z 00000001800f3790 f i libvcruntimed:frame.obj
 0001:000f27c0       ?_CallMemberFunction2@@YAXPEAXP6AX0@Z0H@Z 00000001800f37c0 f i libvcruntimed:frame.obj
 0001:000f2800       ?_ValidateExecute@@YA_NP6A_JXZ@Z 00000001800f3800 f i libvcruntimed:frame.obj
 0001:000f2820       ?_ValidateRead@@YA_NPEBXI@Z 00000001800f3820 f i libvcruntimed:frame.obj
 0001:000f2840       ?_ValidateWrite@@YA_NPEAXI@Z 00000001800f3840 f i libvcruntimed:frame.obj
 0001:000f28b0       ?raw_name@type_info@@QEBAPEBDXZ 00000001800f38b0 f i libvcruntimed:frame.obj
 0001:000f28d0       ?what@exception@std@@UEBAPEBDXZ 00000001800f38d0 f i libvcruntimed:frame.obj
 0001:000f2920       _SetWinRTOutOfMemoryExceptionCallback 00000001800f3920 f   libvcruntimed:frame.obj
 0001:000f2940       __AdjustPointer            00000001800f3940 f   libvcruntimed:frame.obj
 0001:000f29e0       __BuildCatchObject         00000001800f39e0 f   libvcruntimed:frame.obj
 0001:000f2b70       __BuildCatchObjectHelper   00000001800f3b70 f   libvcruntimed:frame.obj
 0001:000f3120       __CxxCallCatchBlock        00000001800f4120 f   libvcruntimed:frame.obj
 0001:000f3410       __CxxDetectRethrow         00000001800f4410 f   libvcruntimed:frame.obj
 0001:000f34e0       __CxxExceptionFilter       00000001800f44e0 f   libvcruntimed:frame.obj
 0001:000f38e0       __CxxQueryExceptionSize    00000001800f48e0 f   libvcruntimed:frame.obj
 0001:000f38f0       __CxxRegisterExceptionObject 00000001800f48f0 f   libvcruntimed:frame.obj
 0001:000f3ad0       __CxxUnregisterExceptionObject 00000001800f4ad0 f   libvcruntimed:frame.obj
 0001:000f3cc0       __FrameUnwindFilter        00000001800f4cc0 f   libvcruntimed:frame.obj
 0001:000f3d70       __FrameUnwindToState       00000001800f4d70 f   libvcruntimed:frame.obj
 0001:000f4050       __GetPlatformExceptionInfo 00000001800f5050 f   libvcruntimed:frame.obj
 0001:000f4130       __InternalCxxFrameHandler  00000001800f5130 f   libvcruntimed:frame.obj
 0001:000f46d0       __TypeMatch                00000001800f56d0 f   libvcruntimed:frame.obj
 0001:000f4930       __current_exception        00000001800f5930 f   libvcruntimed:frame.obj
 0001:000f4950       __current_exception_context 00000001800f5950 f   libvcruntimed:frame.obj
 0001:000f4970       __processing_throw         00000001800f5970 f   libvcruntimed:frame.obj
 0001:000f4990       __std_terminate            00000001800f5990 f   libvcruntimed:frame.obj
 0001:000f49b0       __uncaught_exception       00000001800f59b0 f   libvcruntimed:frame.obj
 0001:000f49f0       __uncaught_exceptions      00000001800f59f0 f   libvcruntimed:frame.obj
 0001:000f4a10       _is_exception_typeof       00000001800f5a10 f   libvcruntimed:frame.obj
 0001:000f4bc0       _CallSettingFrame          00000001800f5bc0 f   libvcruntimed:handlers.obj
 0001:000f4c20       ??$?RD@__crt_public_free_policy@@QEBAXQEBD@Z 00000001800f5c20 f i libvcruntimed:std_exception.obj
 0001:000f4c50       ??0?$__crt_unique_heap_ptr@DU__crt_public_free_policy@@@@QEAA@QEAD@Z 00000001800f5c50 f i libvcruntimed:std_exception.obj
 0001:000f4c80       ??1?$__crt_unique_heap_ptr@DU__crt_public_free_policy@@@@QEAA@XZ 00000001800f5c80 f i libvcruntimed:std_exception.obj
 0001:000f4ca0       ??B?$__crt_unique_heap_ptr@DU__crt_public_free_policy@@@@QEBA_NXZ 00000001800f5ca0 f i libvcruntimed:std_exception.obj
 0001:000f4cc0       ?detach@?$__crt_unique_heap_ptr@DU__crt_public_free_policy@@@@QEAAPEADXZ 00000001800f5cc0 f i libvcruntimed:std_exception.obj
 0001:000f4d00       ?get@?$__crt_unique_heap_ptr@DU__crt_public_free_policy@@@@QEBAPEADXZ 00000001800f5d00 f i libvcruntimed:std_exception.obj
 0001:000f4d20       ?is_valid@?$__crt_unique_heap_ptr@DU__crt_public_free_policy@@@@QEBA_NXZ 00000001800f5d20 f i libvcruntimed:std_exception.obj
 0001:000f4d60       ?release@?$__crt_unique_heap_ptr@DU__crt_public_free_policy@@@@QEAAXXZ 00000001800f5d60 f i libvcruntimed:std_exception.obj
 0001:000f4da0       __std_exception_copy       00000001800f5da0 f   libvcruntimed:std_exception.obj
 0001:000f4f20       __std_exception_destroy    00000001800f5f20 f   libvcruntimed:std_exception.obj
 0001:000f4f70       _CxxThrowException         00000001800f5f70 f   libvcruntimed:throw.obj
 0001:000f50f8       RtlPcToFileHeader          00000001800f60f8 f   kernel32:KERNEL32.dll
 0001:000f50fe       EncodePointer              00000001800f60fe f   kernel32:KERNEL32.dll
 0001:000f8370       _guard_dispatch_icall_nop  00000001800f9370 f   LIBCMTD:_guard_dispatch_.obj
 0002:00000000       __xc_a                     00000001800fd000     LIBCMTD:initializers.obj
 0002:00000250       __xc_z                     00000001800fd250     LIBCMTD:initializers.obj
 0002:00000360       __xi_a                     00000001800fd360     LIBCMTD:initializers.obj
 0002:00000470       __acrt_multibyte_initializer 00000001800fd470     libucrtd:multibyte_initializer.obj
 0002:00000480       __acrt_stdio_initializer   00000001800fd480     libucrtd:stdio_initializer.obj
 0002:00000490       __acrt_tran_fma3_initializer 00000001800fd490     libucrtd:fma3_initializer.obj
 0002:000005a0       __xi_z                     00000001800fd5a0     LIBCMTD:initializers.obj
 0002:000006b0       __xp_a                     00000001800fd6b0     LIBCMTD:initializers.obj
 0002:000007c0       __acrt_locale_terminator   00000001800fd7c0     libucrtd:locale_initializer.obj
 0002:000007d0       __dcrt_console_output_terminator 00000001800fd7d0     libucrtd:console_output_initializer.obj
 0002:000008e0       __acrt_stdio_terminator    00000001800fd8e0     libucrtd:stdio_initializer.obj
 0002:000009f0       __xp_z                     00000001800fd9f0     LIBCMTD:initializers.obj
 0002:00000b00       __xt_a                     00000001800fdb00     LIBCMTD:initializers.obj
 0002:00000c10       __xt_z                     00000001800fdc10     LIBCMTD:initializers.obj
 0002:00000d20       ??_7PxController@physx@@6B@ 00000001800fdd20     CctBoxController.obj
 0002:00000e20       ??_7PxControllerManager@physx@@6B@ 00000001800fde20     CctBoxController.obj
 0002:00000ed0       ??_7PxFoundation@physx@@6B@ 00000001800fded0     CctBoxController.obj
 0002:00000f20       ??_7PxBoxController@physx@@6B@ 00000001800fdf20     CctBoxController.obj
 0002:00001058       ??_7BoxController@Cct@physx@@6BPxBoxController@2@@ 00000001800fe058     CctBoxController.obj
 0002:00001190       ??_7BoxController@Cct@physx@@6BController@12@@ 00000001800fe190     CctBoxController.obj
 0002:000011b8       ??_C@_0DH@ONIDOKIM@?4?4?2?4?4?2PhysXCharacterKinematic?2sr@ 00000001800fe1b8     CctBoxController.obj
 0002:00001200       ??_C@_0DB@EHPECLAO@shape?9?$DOgetGeometryType?$CI?$CJ?5?$DN?$DN?5PxGe@ 00000001800fe200     CctBoxController.obj
 0002:0000123c       __real@00000000            00000001800fe23c     CctBoxController.obj
 0002:00001240       __real@3f000000            00000001800fe240     CctBoxController.obj
 0002:00001248       ??_7PxCapsuleController@physx@@6B@ 00000001800fe248     CctCapsuleController.obj
 0002:00001380       ??_7CapsuleController@Cct@physx@@6BPxCapsuleController@2@@ 00000001800fe380     CctCapsuleController.obj
 0002:000014b8       ??_7CapsuleController@Cct@physx@@6BController@12@@ 00000001800fe4b8     CctCapsuleController.obj
 0002:000014e0       ??_C@_0DL@DGAPCADK@?4?4?2?4?4?2PhysXCharacterKinematic?2sr@ 00000001800fe4e0     CctCapsuleController.obj
 0002:00001528       ??_C@_0DF@ELIHFCHJ@shape?9?$DOgetGeometryType?$CI?$CJ?5?$DN?$DN?5PxGe@ 00000001800fe528     CctCapsuleController.obj
 0002:00001590       ??_C@_0EH@OGDODMBP@I?3?2_DAE?2References?2PhysX?53?44?2PxS@ 00000001800fe590     CctCharacterController.obj
 0002:000015e8       ??_C@_0M@BJFDEEID@q0?4isSane?$CI?$CJ?$AA@ 00000001800fe5e8     CctCharacterController.obj
 0002:000015f8       ??_C@_0L@NKGFAGDB@x?4isSane?$CI?$CJ?$AA@ 00000001800fe5f8     CctCharacterController.obj
 0002:00001608       ??_C@_0L@EGHDLJIP@isFinite?$CI?$CJ?$AA@ 00000001800fe608     CctCharacterController.obj
 0002:00001618       ??_C@_0N@PMAOLNPB@src?4isSane?$CI?$CJ?$AA@ 00000001800fe618     CctCharacterController.obj
 0002:00001628       ??_C@_08ECJOCDKG@isSane?$CI?$CJ?$AA@ 00000001800fe628     CctCharacterController.obj
 0002:00001638       ??_7?$PxHitCallback@UPxRaycastHit@physx@@@physx@@6B@ 00000001800fe638     CctCharacterController.obj
 0002:00001658       ??_7?$PxHitBuffer@UPxRaycastHit@physx@@@physx@@6B@ 00000001800fe658     CctCharacterController.obj
 0002:00001678       ??_7PxQueryFilterCallback@physx@@6B@ 00000001800fe678     CctCharacterController.obj
 0002:000016a0       ??_C@_0EF@HEMEJCFP@I?3?2_DAE?2References?2PhysX?53?44?2PxS@ 00000001800fe6a0     CctCharacterController.obj
 0002:000016f8       ??_C@_09GLGJMIMJ@isValid?$CI?$CJ?$AA@ 00000001800fe6f8     CctCharacterController.obj
 0002:00001704       ??_C@_01GBGANLPD@0?$AA@    00000001800fe704     CctCharacterController.obj
 0002:00001710       ??_C@_0FP@CLGOEDDB@i?3?2_dae?2references?2physx?53?44?2phy@ 00000001800fe710     CctCharacterController.obj
 0002:00001788       ??_C@_0O@PJIOIGML@index?$DM?$DN0xffff?$AA@ 00000001800fe788     CctCharacterController.obj
 0002:00001798       ??_C@_0BE@OJANCLEE@PxU32?$CItype?$CJ?$DM?$DN0xffff?$AA@ 00000001800fe798     CctCharacterController.obj
 0002:000017b0       ??_C@_0DN@CCDLNKB@?4?4?2?4?4?2PhysXCharacterKinematic?2sr@ 00000001800fe7b0     CctCharacterController.obj
 0002:00001800       ??_C@_0CJ@IKHMJDFI@volume?9?$DOgetType?$CI?$CJ?$DN?$DNSweptVolumeTy@ 00000001800fe800     CctCharacterController.obj
 0002:00001838       ??_C@_0CI@GAJNEGBI@geom?9?$DOmType?$DN?$DNTouchedGeomType?3?3eU@ 00000001800fe838     CctCharacterController.obj
 0002:00001868       ??_C@_0CM@GPMPGHMM@geom?9?$DOmType?$DN?$DNTouchedGeomType?3?3eU@ 00000001800fe868     CctCharacterController.obj
 0002:000018a0       ??_C@_0BM@PIBPPICD@sweepHit?4faceIndex?5?$DM?5nbTris?$AA@ 00000001800fe8a0     CctCharacterController.obj
 0002:000018c8       ??_C@_0CE@HELNLPHM@geom?9?$DOmType?$DN?$DNTouchedGeomType?3?3eM@ 00000001800fe8c8     CctCharacterController.obj
 0002:000018f8       ??_C@_0CN@HICDABOB@volume?9?$DOgetType?$CI?$CJ?$DN?$DNSweptVolumeTy@ 00000001800fe8f8     CctCharacterController.obj
 0002:00001930       ??_C@_0CD@MCGKGDGK@geom?9?$DOmType?$DN?$DNTouchedGeomType?3?3eB@ 00000001800fe930     CctCharacterController.obj
 0002:00001960       ??_C@_0CG@LLMCKHDB@geom?9?$DOmType?$DN?$DNTouchedGeomType?3?3eS@ 00000001800fe960     CctCharacterController.obj
 0002:00001990       ??_C@_0CH@PDFKDOGO@geom?9?$DOmType?$DN?$DNTouchedGeomType?3?3eC@ 00000001800fe990     CctCharacterController.obj
 0002:000019c0       ??_C@_0N@MFKFIMLH@touchedActor?$AA@ 00000001800fe9c0     CctCharacterController.obj
 0002:000019d0       ??_C@_0N@IJFFNJEA@touchedShape?$AA@ 00000001800fe9d0     CctCharacterController.obj
 0002:000019e0       ??_C@_0CI@PHBIPOMN@volume?4getType?$CI?$CJ?$DN?$DNSweptVolumeTyp@ 00000001800fe9e0     CctCharacterController.obj
 0002:00001a10       ??_C@_0M@GAENHLJE@depth?$DO?$DN0?40f?$AA@ 00000001800fea10     CctCharacterController.obj
 0002:00001a20       ??_C@_0P@IIJOLIBL@mtd?4isFinite?$CI?$CJ?$AA@ 00000001800fea20     CctCharacterController.obj
 0002:00001a38       ??_C@_0BC@ELKFBCAO@PxIsFinite?$CIdepth?$CJ?$AA@ 00000001800fea38     CctCharacterController.obj
 0002:00001a50       ??_C@_0BJ@ONMIBLA@sweepTestTriangleIndices?$AA@ 00000001800fea50     CctCharacterController.obj
 0002:00001a70       ??_C@_0BA@MNOANCHM@sweepTestStream?$AA@ 00000001800fea70     CctCharacterController.obj
 0002:00001a88       ??_C@_0CB@PCJHOHAI@startIndex?5?$DM?$DN?5mGeomStream?4size?$CI?$CJ@ 00000001800fea88     CctCharacterController.obj
 0002:00001ab0       ??_C@_0BP@HPNLMLEJ@obstacleHit?4distance?$DM?$DNdistance?$AA@ 00000001800feab0     CctCharacterController.obj
 0002:00001ad8       ??_C@_0CI@GHLNKOJE@worldTemporalBox?4isInside?$CImCache@ 00000001800fead8     CctCharacterController.obj
 0002:00001b08       ??_C@_0CE@KHMGPOAO@mTriangleIndices?4size?$CI?$CJ?$DN?$DNmNbCach@ 00000001800feb08     CctCharacterController.obj
 0002:00001b38       ??_C@_0CA@CFKKDOLG@CharacterController?4doSweepTest?$AA@ 00000001800feb38     CctCharacterController.obj
 0002:00001b60       ??_C@_07GDNEKBEC@C?4mGeom?$AA@ 00000001800feb60     CctCharacterController.obj
 0002:00001b70       ??_C@_0CC@KMLEHBGF@CharacterController?4moveCharacte@ 00000001800feb70     CctCharacterController.obj
 0002:00001b98       ??_7ControllerFilter@@6B@  00000001800feb98     CctCharacterController.obj
 0002:00001bc0       ??_C@_0FM@ODFOFIFF@?$CBmCctModule?4mTouchedShape?5?$CG?$CG?5?$CImC@ 00000001800febc0     CctCharacterController.obj
 0002:00001c30       ??_C@_0BA@PFLCEBBK@hit?4block?4shape?$AA@ 00000001800fec30     CctCharacterController.obj
 0002:00001c48       ??_C@_0BA@LJECBEON@hit?4block?4actor?$AA@ 00000001800fec48     CctCharacterController.obj
 0002:00001c60       ??_C@_0CG@GNJEGHJI@hit?4block?4distance?$DM?$DNprobeLength?$CL@ 00000001800fec60     CctCharacterController.obj
 0002:00001c90       ??_C@_0CI@KOAHEKEJ@obstacleHit?4distance?$DM?$DNprobeLengt@ 00000001800fec90     CctCharacterController.obj
 0002:00001cc0       ??_C@_0FL@CLNJAPLP@mCctModule?4mTouchedShape?5?$HM?$HM?5?$CImCc@ 00000001800fecc0     CctCharacterController.obj
 0002:00001d30       ??_C@_0BA@ONBGHLD@touchedObstacle?$AA@ 00000001800fed30     CctCharacterController.obj
 0002:00001d48       ??_C@_0BE@LBOOBFNF@?$CBboxUserData?4size?$CI?$CJ?$AA@ 00000001800fed48     CctCharacterController.obj
 0002:00001d60       ??_C@_0O@CDECJDME@?$CBboxes?4size?$CI?$CJ?$AA@ 00000001800fed60     CctCharacterController.obj
 0002:00001d70       ??_C@_0BI@MHBCHGEC@?$CBcapsuleUserData?4size?$CI?$CJ?$AA@ 00000001800fed70     CctCharacterController.obj
 0002:00001d90       ??_C@_0BB@FCMKKCBJ@?$CBcapsules?4size?$CI?$CJ?$AA@ 00000001800fed90     CctCharacterController.obj
 0002:00001da8       ??_C@_0CP@PMDHKMKE@CharacterController?4filterCandid@ 00000001800feda8     CctCharacterController.obj
 0002:00001de0       ??_C@_0BJ@FHANBDIB@CharacterController?4move?$AA@ 00000001800fede0     CctCharacterController.obj
 0002:00001e00       ??_C@_0EH@MDGGEGEG@I?3?2_DAE?2References?2PhysX?53?44?2PxS@ 00000001800fee00     CctCharacterController.obj
 0002:00001e58       ??_C@_09GCLCCGEM@i?5?$DM?5mSize?$AA@ 00000001800fee58     CctCharacterController.obj
 0002:00001e68       ??_C@_0BC@GKLGGHPD@size?5?$DM?$DN?5mCapacity?$AA@ 00000001800fee68     CctCharacterController.obj
 0002:00001e80       ??_C@_0DP@KDFDHJFL@i?3?2_dae?2references?2physx?53?44?2phy@ 00000001800fee80     CctCharacterController.obj
 0002:00001ed0       ??_C@_0CP@NAHMKKEN@index?5?$DM?5getNbTouches?$CI?$CJ?5?$CL?5PxU32?$CIt@ 00000001800feed0     CctCharacterController.obj
 0002:00001f08       ??_C@_0BM@BMFMDKFG@this?9?$DOcapacity?$CI?$CJ?5?$DM?5capacity?$AA@ 00000001800fef08     CctCharacterController.obj
 0002:00001f30       ??_C@_0CP@CPGGIPKL@?$CI?$CBcapacity?$CJ?5?$HM?$HM?5?$CInewData?5?$CG?$CG?5?$CInewD@ 00000001800fef30     CctCharacterController.obj
 0002:00001f68       __real@358637bd            00000001800fef68     CctCharacterController.obj
 0002:00001f6c       __real@3c23d70a            00000001800fef6c     CctCharacterController.obj
 0002:00001f70       __real@3ee66666            00000001800fef70     CctCharacterController.obj
 0002:00001f74       __real@3f800000            00000001800fef74     CctCharacterController.obj
 0002:00001f78       __real@3fc00000            00000001800fef78     CctCharacterController.obj
 0002:00001f7c       __real@40000000            00000001800fef7c     CctCharacterController.obj
 0002:00001f80       __real@41200000            00000001800fef80     CctCharacterController.obj
 0002:00001f84       __real@7e7fffff            00000001800fef84     CctCharacterController.obj
 0002:00001f88       __real@7f7fffff            00000001800fef88     CctCharacterController.obj
 0002:00001f90       __real@7fefffffffffffff    00000001800fef90     CctCharacterController.obj
 0002:00001f9c       __real@fe7fffff            00000001800fef9c     CctCharacterController.obj
 0002:00001fa0       __real@ffefffffffffffff    00000001800fefa0     CctCharacterController.obj
 0002:00001fb0       __xmm@80000000800000008000000080000000 00000001800fefb0     CctCharacterController.obj
 0002:00002000       ?g_PXSinCoefficients0@aos@shdfnd@physx@@3UPX_VECTORF32@123@B 00000001800ff000     CctCharacterControllerCallbacks.obj
 0002:00002020       ?g_PXSinCoefficients1@aos@shdfnd@physx@@3UPX_VECTORF32@123@B 00000001800ff020     CctCharacterControllerCallbacks.obj
 0002:00002040       ?g_PXSinCoefficients2@aos@shdfnd@physx@@3UPX_VECTORF32@123@B 00000001800ff040     CctCharacterControllerCallbacks.obj
 0002:00002060       ?g_PXCosCoefficients0@aos@shdfnd@physx@@3UPX_VECTORF32@123@B 00000001800ff060     CctCharacterControllerCallbacks.obj
 0002:00002080       ?g_PXCosCoefficients1@aos@shdfnd@physx@@3UPX_VECTORF32@123@B 00000001800ff080     CctCharacterControllerCallbacks.obj
 0002:000020a0       ?g_PXCosCoefficients2@aos@shdfnd@physx@@3UPX_VECTORF32@123@B 00000001800ff0a0     CctCharacterControllerCallbacks.obj
 0002:000020c0       ?g_PXTanCoefficients0@aos@shdfnd@physx@@3UPX_VECTORF32@123@B 00000001800ff0c0     CctCharacterControllerCallbacks.obj
 0002:000020e0       ?g_PXTanCoefficients1@aos@shdfnd@physx@@3UPX_VECTORF32@123@B 00000001800ff0e0     CctCharacterControllerCallbacks.obj
 0002:00002100       ?g_PXTanCoefficients2@aos@shdfnd@physx@@3UPX_VECTORF32@123@B 00000001800ff100     CctCharacterControllerCallbacks.obj
 0002:00002120       ?g_PXASinCoefficients0@aos@shdfnd@physx@@3UPX_VECTORF32@123@B 00000001800ff120     CctCharacterControllerCallbacks.obj
 0002:00002140       ?g_PXASinCoefficients1@aos@shdfnd@physx@@3UPX_VECTORF32@123@B 00000001800ff140     CctCharacterControllerCallbacks.obj
 0002:00002160       ?g_PXASinCoefficients2@aos@shdfnd@physx@@3UPX_VECTORF32@123@B 00000001800ff160     CctCharacterControllerCallbacks.obj
 0002:00002180       ?g_PXATanCoefficients0@aos@shdfnd@physx@@3UPX_VECTORF32@123@B 00000001800ff180     CctCharacterControllerCallbacks.obj
 0002:000021a0       ?g_PXATanCoefficients1@aos@shdfnd@physx@@3UPX_VECTORF32@123@B 00000001800ff1a0     CctCharacterControllerCallbacks.obj
 0002:000021c0       ?g_PXATanCoefficients2@aos@shdfnd@physx@@3UPX_VECTORF32@123@B 00000001800ff1c0     CctCharacterControllerCallbacks.obj
 0002:000021e0       ?g_PXSinEstCoefficients@aos@shdfnd@physx@@3UPX_VECTORF32@123@B 00000001800ff1e0     CctCharacterControllerCallbacks.obj
 0002:00002200       ?g_PXCosEstCoefficients@aos@shdfnd@physx@@3UPX_VECTORF32@123@B 00000001800ff200     CctCharacterControllerCallbacks.obj
 0002:00002220       ?g_PXTanEstCoefficients@aos@shdfnd@physx@@3UPX_VECTORF32@123@B 00000001800ff220     CctCharacterControllerCallbacks.obj
 0002:00002240       ?g_PXATanEstCoefficients@aos@shdfnd@physx@@3UPX_VECTORF32@123@B 00000001800ff240     CctCharacterControllerCallbacks.obj
 0002:00002260       ?g_PXASinEstCoefficients@aos@shdfnd@physx@@3UPX_VECTORF32@123@B 00000001800ff260     CctCharacterControllerCallbacks.obj
 0002:00002280       ?g_PXASinEstConstants@aos@shdfnd@physx@@3UPX_VECTORF32@123@B 00000001800ff280     CctCharacterControllerCallbacks.obj
 0002:000022a0       ?g_PXPiConstants0@aos@shdfnd@physx@@3UPX_VECTORF32@123@B 00000001800ff2a0     CctCharacterControllerCallbacks.obj
 0002:000022c0       ?g_PXReciprocalTwoPi@aos@shdfnd@physx@@3UPX_VECTORF32@123@B 00000001800ff2c0     CctCharacterControllerCallbacks.obj
 0002:000022e0       ?g_PXTwoPi@aos@shdfnd@physx@@3UPX_VECTORF32@123@B 00000001800ff2e0     CctCharacterControllerCallbacks.obj
 0002:00002300       ??_C@_0EC@IGBCLCKJ@I?3?2_DAE?2References?2PhysX?53?44?2PxS@ 00000001800ff300     CctCharacterControllerCallbacks.obj
 0002:00002350       ??_C@_0L@ICMNFAAK@index?5?$DM?$DN?52?$AA@ 00000001800ff350     CctCharacterControllerCallbacks.obj
 0002:00002360       ??_7?$PxHitCallback@UPxOverlapHit@physx@@@physx@@6B@ 00000001800ff360     CctCharacterControllerCallbacks.obj
 0002:00002380       ??_7?$PxHitBuffer@UPxOverlapHit@physx@@@physx@@6B@ 00000001800ff380     CctCharacterControllerCallbacks.obj
 0002:000023a0       ??_C@_0EG@BDPBDCDH@?4?4?2?4?4?2PhysXCharacterKinematic?2sr@ 00000001800ff3a0     CctCharacterControllerCallbacks.obj
 0002:000023f8       ??_C@_0DI@JEIEIFFC@planeShape?9?$DOgetGeometryType?$CI?$CJ?5?$DN?$DN@ 00000001800ff3f8     CctCharacterControllerCallbacks.obj
 0002:00002440       ??_C@_0DK@DKFHFJAH@sphereShape?9?$DOgetGeometryType?$CI?$CJ?5?$DN@ 00000001800ff440     CctCharacterControllerCallbacks.obj
 0002:00002488       ??_C@_0DM@CFAOBFIC@capsuleShape?9?$DOgetGeometryType?$CI?$CJ?5@ 00000001800ff488     CctCharacterControllerCallbacks.obj
 0002:000024d0       ??_C@_0DE@KNPLDBPE@boxShape?9?$DOgetGeometryType?$CI?$CJ?5?$DN?$DN?5P@ 00000001800ff4d0     CctCharacterControllerCallbacks.obj
 0002:00002510       ??_C@_0DO@NNKEOCBE@meshShape?9?$DOgetGeometryType?$CI?$CJ?5?$DN?$DN?5@ 00000001800ff510     CctCharacterControllerCallbacks.obj
 0002:00002560       ??_C@_0DL@CCMNBOHE@hfShape?9?$DOgetGeometryType?$CI?$CJ?5?$DN?$DN?5Px@ 00000001800ff560     CctCharacterControllerCallbacks.obj
 0002:000025a8       ??_C@_0DO@HGDLFPJM@convexShape?9?$DOgetGeometryType?$CI?$CJ?5?$DN@ 00000001800ff5a8     CctCharacterControllerCallbacks.obj
 0002:000025f8       ??_C@_0O@CCMLNFEO@cg?4convexMesh?$AA@ 00000001800ff5f8     CctCharacterControllerCallbacks.obj
 0002:00002608       ??_C@_08BPIOMALF@userData?$AA@ 00000001800ff608     CctCharacterControllerCallbacks.obj
 0002:00002618       ??_C@_0CI@EALPEGI@CharacterController?4findTouchedG@ 00000001800ff618     CctCharacterControllerCallbacks.obj
 0002:00002648       ??_C@_0DG@PFAIDLKM@index?$DMcontroller?9?$DOgetCctManager?$CI@ 00000001800ff648     CctCharacterControllerCallbacks.obj
 0002:00002688       ??_C@_0BI@ODLPKEII@internalData?9?$DOobstacles?$AA@ 00000001800ff688     CctCharacterControllerCallbacks.obj
 0002:000026a8       ??_C@_0DE@DDAKFDEF@index?$DMinternalData?9?$DOobstacles?9?$DOm@ 00000001800ff6a8     CctCharacterControllerCallbacks.obj
 0002:000026e8       ??_C@_0DI@GFNCLEGH@index?$DMinternalData?9?$DOobstacles?9?$DOm@ 00000001800ff6e8     CctCharacterControllerCallbacks.obj
 0002:0000272c       __real@3a83126f            00000001800ff72c     CctCharacterControllerCallbacks.obj
 0002:00002730       __real@3f7ff972            00000001800ff730     CctCharacterControllerCallbacks.obj
 0002:00002734       __real@ba83126f            00000001800ff734     CctCharacterControllerCallbacks.obj
 0002:00002740       __xmm@80000000000000008000000000000000 00000001800ff740     CctCharacterControllerCallbacks.obj
 0002:00002758       ??_7PxRenderBuffer@physx@@6B@ 00000001800ff758     CctCharacterControllerManager.obj
 0002:000027c8       ??_7PxDeletionListener@physx@@6B@ 00000001800ff7c8     CctCharacterControllerManager.obj
 0002:000027e0       ??_C@_0BA@DLCJDKDM@NonTrackedAlloc?$AA@ 00000001800ff7e0     CctCharacterControllerManager.obj
 0002:000027f8       ??_7RenderBuffer@Cm@physx@@6B@ 00000001800ff7f8     CctCharacterControllerManager.obj
 0002:00002868       ??_C@_0BD@LANCFJDL@renderBufferPoints?$AA@ 00000001800ff868     CctCharacterControllerManager.obj
 0002:00002880       ??_C@_0BC@OOFKEPCD@renderBufferLines?$AA@ 00000001800ff880     CctCharacterControllerManager.obj
 0002:00002898       ??_C@_0BG@IFGFFBGL@renderBufferTriangles?$AA@ 00000001800ff898     CctCharacterControllerManager.obj
 0002:000028b8       ??_C@_0BC@KMLJODNA@renderBufferTexts?$AA@ 00000001800ff8b8     CctCharacterControllerManager.obj
 0002:000028d0       ??_C@_0BE@CNABNMDL@renderBufferCharBuf?$AA@ 00000001800ff8d0     CctCharacterControllerManager.obj
 0002:000028e8       ??_7CharacterControllerManager@Cct@physx@@6BPxControllerManager@2@@ 00000001800ff8e8     CctCharacterControllerManager.obj
 0002:00002998       ??_7CharacterControllerManager@Cct@physx@@6BPxDeletionListener@2@@ 00000001800ff998     CctCharacterControllerManager.obj
 0002:000029b0       ??_C@_0EE@IHHKBLHK@?4?4?2?4?4?2PhysXCharacterKinematic?2sr@ 00000001800ff9b0     CctCharacterControllerManager.obj
 0002:00002a08       ??_C@_0DJ@FJGFFNLM@PxControllerManager?3?3getControll@ 00000001800ffa08     CctCharacterControllerManager.obj
 0002:00002a50       ??_C@_0BE@GJLBACLN@mControllers?$FLindex?$FN?$AA@ 00000001800ffa50     CctCharacterControllerManager.obj
 0002:00002a70       ??_C@_0EJ@KDOFHNEM@INTERNAL?5ERROR?5?9?5invalid?5CCT?5typ@ 00000001800ffa70     CctCharacterControllerManager.obj
 0002:00002ac8       ??_C@_05HHJOEFFG@nb?$DN?$DN1?$AA@ 00000001800ffac8     CctCharacterControllerManager.obj
 0002:00002ad0       ??_C@_0DE@PHNAMEOL@deletionEvent?5?$DN?$DN?5PxDeletionEvent@ 00000001800ffad0     CctCharacterControllerManager.obj
 0002:00002b10       ??_C@_0BE@NGHGDLPG@refCounter?4refCount?$AA@ 00000001800ffb10     CctCharacterControllerManager.obj
 0002:00002b28       ??_C@_0DO@NLBEEDJJ@PxControllerManager?3?3getObstacle@ 00000001800ffb28     CctCharacterControllerManager.obj
 0002:00002b78       ??_C@_0BJ@KJGCJBBH@mObstacleContexts?$FLindex?$FN?$AA@ 00000001800ffb78     CctCharacterControllerManager.obj
 0002:00002b98       ??_C@_0DH@IABGKCMP@mObstacleContexts?4find?$CI?$CGoc?$CJ?5?$CB?$DN?5m@ 00000001800ffb98     CctCharacterControllerManager.obj
 0002:00002be0       ??_C@_0P@MMCGCBLL@?$CBmBoxes?4size?$CI?$CJ?$AA@ 00000001800ffbe0     CctCharacterControllerManager.obj
 0002:00002bf8       ??_C@_0BC@JBELOEOA@?$CBmCapsules?4size?$CI?$CJ?$AA@ 00000001800ffbf8     CctCharacterControllerManager.obj
 0002:00002c10       ??_C@_07LNPFLBPN@entity0?$AA@ 00000001800ffc10     CctCharacterControllerManager.obj
 0002:00002c20       ??_C@_07KEOOIALM@entity1?$AA@ 00000001800ffc20     CctCharacterControllerManager.obj
 0002:00002c30       ??_C@_0CM@LDNMFPKK@entity0?9?$DOmType?$DN?$DNPxControllerShap@ 00000001800ffc30     CctCharacterControllerManager.obj
 0002:00002c68       ??_C@_0CM@DOFEKCEI@entity1?9?$DOmType?$DN?$DNPxControllerShap@ 00000001800ffc68     CctCharacterControllerManager.obj
 0002:00002ca0       ??_C@_0DA@EMJKANDJ@CharacterControllerManager?3?3comp@ 00000001800ffca0     CctCharacterControllerManager.obj
 0002:00002ce0       ??_C@_0EH@MKALEPDP@I?3?2_DAE?2References?2PhysX?53?44?2PxS@ 00000001800ffce0     CctCharacterControllerManager.obj
 0002:00002d40       ??_C@_0EP@JJMHGHOH@i?3?2_dae?2references?2physx?53?44?2pxs@ 00000001800ffd40     CctCharacterControllerManager.obj
 0002:00002da0       ??_C@_0EK@CFJIEPPJ@?$CImFreeList?5?$DN?$DN?5EOL?$CJ?5?$HM?$HM?5?$CIcompactin@ 00000001800ffda0     CctCharacterControllerManager.obj
 0002:00002df8       ??_C@_0BB@GDPMDOF@?$CBfreeListEmpty?$CI?$CJ?$AA@ 00000001800ffdf8     CctCharacterControllerManager.obj
 0002:00002e10       ??_C@_0BL@DHJNKJLG@mFreeList?5?$DN?$DN?5mEntriesCount?$AA@ 00000001800ffe10     CctCharacterControllerManager.obj
 0002:00002e30       ??_C@_08DELPPNON@hashBase?$AA@ 00000001800ffe30     CctCharacterControllerManager.obj
 0002:00002e40       ??_C@_0BM@OIFKLHDN@?$DMallocation?5names?5disabled?$DO?$AA@ 00000001800ffe40     CctCharacterControllerManager.obj
 0002:00002e68       ??_C@_0M@MLKAJPLJ@?$CKptr?5?$CB?$DN?5EOL?$AA@ 00000001800ffe68     CctCharacterControllerManager.obj
 0002:00002e78       ??_C@_0BF@MJIJMGPN@?$CB?$CIsize?5?$CG?5?$CIsize?5?9?51?$CJ?$CJ?$AA@ 00000001800ffe78     CctCharacterControllerManager.obj
 0002:00002e98       ??_C@_09LAGLDPIH@newBuffer?$AA@ 00000001800ffe98     CctCharacterControllerManager.obj
 0002:00002ea8       ??_C@_0BE@JIMKLMPE@index?5?$CB?$DN?5newHash?$FLh?$FN?$AA@ 00000001800ffea8     CctCharacterControllerManager.obj
 0002:00002ec0       ??_C@_0BP@CPGKEPEI@compacting?5?$HM?$HM?5mFreeList?5?$DN?$DN?5EOL?$AA@ 00000001800ffec0     CctCharacterControllerManager.obj
 0002:00002ee8       ??_C@_0BF@OADKGOFH@mFreeList?5?$CB?$DN?5end?5?9?51?$AA@ 00000001800ffee8     CctCharacterControllerManager.obj
 0002:00002f04       __real@3f400000            00000001800fff04     CctCharacterControllerManager.obj
 0002:00002f08       __real@40800000            00000001800fff08     CctCharacterControllerManager.obj
 0002:00002f10       ??_7Controller@Cct@physx@@6B@ 00000001800fff10     CctController.obj
 0002:00002f38       ??_C@_0CF@LJAGPAMD@CCT?3?5up?5direction?5must?5be?5normal@ 00000001800fff38     CctController.obj
 0002:00002f68       ??_C@_0DE@LBFOOJJE@?4?4?2?4?4?2PhysXCharacterKinematic?2sr@ 00000001800fff68     CctController.obj
 0002:00002fa8       __real@38d1b717            00000001800fffa8     CctController.obj
 0002:00002fb0       ??_7PxObstacleContext@physx@@6B@ 00000001800fffb0     CctObstacleContext.obj
 0002:00003008       ??_7ObstacleContext@Cct@physx@@6B@ 0000000180100008     CctObstacleContext.obj
 0002:00003060       ??_C@_0EL@LFOFABEN@I?3?2_DAE?2References?2PhysX?53?44?2PxS@ 0000000180100060     CctObstacleContext.obj
 0002:000030c0       ??_C@_0BA@DPPPOJBK@value?5?$DM?$DN?50xffff?$AA@ 00000001801000c0     CctObstacleContext.obj
 0002:000030d8       ??_C@_0O@IPJBGLCC@HandleManager?$AA@ 00000001801000d8     CctObstacleContext.obj
 0002:000030e8       ??_C@_0DJ@FPEJDNHL@?4?4?2?4?4?2PhysXCharacterKinematic?2sr@ 00000001801000e8     CctObstacleContext.obj
 0002:00003130       ??_C@_0CP@CDNCDJDD@Internal?5error?5?9?564K?5objects?5in?5@ 0000000180100130     CctObstacleContext.obj
 0002:00003168       ??_C@_0L@PMMEKFHC@index?$DMsize?$AA@ 0000000180100168     CctObstacleContext.obj
 0002:00003178       ??_C@_0BJ@BENGNNK@type?$DN?$DNobstacle?4getType?$CI?$CJ?$AA@ 0000000180100178     CctObstacleContext.obj
 0002:00003198       ??_C@_0CF@CEPGALDL@mBoxObstacles?$FLindex?$FN?4mHandle?$DN?$DNha@ 0000000180100198     CctObstacleContext.obj
 0002:000031c8       ??_C@_0CJ@OHPLBPIL@mCapsuleObstacles?$FLindex?$FN?4mHandle@ 00000001801001c8     CctObstacleContext.obj
 0002:00003200       ??_C@_0M@GEAKHKHN@raycastFunc?$AA@ 0000000180100200     CctObstacleContext.obj
 0002:00003210       ??_C@_0CF@GBMJOHHH@geomType?5?$DN?$DN?5PxGeometryType?3?3eCAP@ 0000000180100210     CctObstacleContext.obj
 0002:0000323c       ??_C@_06DJIHEMFI@status?$AA@ 000000018010023c     CctObstacleContext.obj
 0002:00003248       ??_7SweptBox@Cct@physx@@6B@ 0000000180100248     CctSweptBox.obj
 0002:00003260       ??_7SweptCapsule@Cct@physx@@6B@ 0000000180100260     CctSweptCapsule.obj
 0002:00003278       ??_7SweptVolume@Cct@physx@@6B@ 0000000180100278     CctSweptVolume.obj
 0002:00003290       ??_C@_0BP@LLBHALBD@PxMeshOverlapUtil?3?3findOverlap?$AA@ 0000000180100290     PhysX3ExtensionsDEBUG:ExtTriangleMeshExt.obj
 0002:000032b8       ??_C@_0DB@HFONPIBD@?4?4?2?4?4?2PhysXExtensions?2src?2ExtTri@ 00000001801002b8     PhysX3ExtensionsDEBUG:ExtTriangleMeshExt.obj
 0002:000032f8       ??_C@_0O@IICGINDC@nbTouchedTris?$AA@ 00000001801002f8     PhysX3ExtensionsDEBUG:ExtTriangleMeshExt.obj
 0002:00003308       ??_C@_09IOBMEPPH@?$CBoverflow?$AA@ 0000000180100308     PhysX3ExtensionsDEBUG:ExtTriangleMeshExt.obj
 0002:00003318       ??_C@_0BB@GKJHIFOF@bounds?4isValid?$CI?$CJ?$AA@ 0000000180100318     PhysX3ExtensionsDEBUG:ExtRigidBodyExt.obj
 0002:00003330       ??_7?$PxHitCallback@UPxSweepHit@physx@@@physx@@6B@ 0000000180100330     PhysX3ExtensionsDEBUG:ExtRigidBodyExt.obj
 0002:00003350       ??_7?$PxHitBuffer@UPxSweepHit@physx@@@physx@@6B@ 0000000180100350     PhysX3ExtensionsDEBUG:ExtRigidBodyExt.obj
 0002:00003370       ??_C@_0EN@HBEIBLKL@I?3?2_DAE?2References?2PhysX?53?44?2Phy@ 0000000180100370     PhysX3ExtensionsDEBUG:ExtRigidBodyExt.obj
 0002:000033d0       ??_C@_0GJ@LPFDPNEH@inertiaTensor?4column0?4isFinite?$CI?$CJ@ 00000001801003d0     PhysX3ExtensionsDEBUG:ExtRigidBodyExt.obj
 0002:00003450       ??_C@_0BI@NGAJFOA@centerOfMass?4isFinite?$CI?$CJ?$AA@ 0000000180100450     PhysX3ExtensionsDEBUG:ExtRigidBodyExt.obj
 0002:00003470       ??_C@_0BB@MPGDOBGO@PxIsFinite?$CImass?$CJ?$AA@ 0000000180100470     PhysX3ExtensionsDEBUG:ExtRigidBodyExt.obj
 0002:00003488       ??_C@_0N@KJMNFABF@t?4isFinite?$CI?$CJ?$AA@ 0000000180100488     PhysX3ExtensionsDEBUG:ExtRigidBodyExt.obj
 0002:000034a0       ??_C@_0FH@EMBABLBB@inertia?4column0?4isFinite?$CI?$CJ?5?$CG?$CG?5in@ 00000001801004a0     PhysX3ExtensionsDEBUG:ExtRigidBodyExt.obj
 0002:00003510       ??_C@_0GG@EEGHGHDM@translatedIT?4column0?4isFinite?$CI?$CJ?5@ 0000000180100510     PhysX3ExtensionsDEBUG:ExtRigidBodyExt.obj
 0002:00003590       ??_C@_0L@GJCLFDLB@q?4isUnit?$CI?$CJ?$AA@ 0000000180100590     PhysX3ExtensionsDEBUG:ExtRigidBodyExt.obj
 0002:000035a0       ??_C@_0FN@LMOLFFGE@rotatedIT?4column0?4isFinite?$CI?$CJ?5?$CG?$CG?5@ 00000001801005a0     PhysX3ExtensionsDEBUG:ExtRigidBodyExt.obj
 0002:00003610       ??_C@_0BH@OHLICMGK@scaleRotation?4isUnit?$CI?$CJ?$AA@ 0000000180100610     PhysX3ExtensionsDEBUG:ExtRigidBodyExt.obj
 0002:00003630       ??_C@_0BB@HMINLEPI@scale?4isFinite?$CI?$CJ?$AA@ 0000000180100630     PhysX3ExtensionsDEBUG:ExtRigidBodyExt.obj
 0002:00003650       ??_C@_0FK@PLENNKDH@scaledIT?4column0?4isFinite?$CI?$CJ?5?$CG?$CG?5s@ 0000000180100650     PhysX3ExtensionsDEBUG:ExtRigidBodyExt.obj
 0002:000036c0       ??_C@_0IE@FENODHFK@props?$FLi?$FN?4inertiaTensor?4column0?4i@ 00000001801006c0     PhysX3ExtensionsDEBUG:ExtRigidBodyExt.obj
 0002:00003760       ??_C@_0CB@EJMPDHPE@props?$FLi?$FN?4centerOfMass?4isFinite?$CI?$CJ@ 0000000180100760     PhysX3ExtensionsDEBUG:ExtRigidBodyExt.obj
 0002:00003788       ??_C@_0BK@HLGANDCK@PxIsFinite?$CIprops?$FLi?$FN?4mass?$CJ?$AA@ 0000000180100788     PhysX3ExtensionsDEBUG:ExtRigidBodyExt.obj
 0002:000037b0       ??_C@_0HC@LGMCFEBD@combinedInertiaT?4column0?4isFinit@ 00000001801007b0     PhysX3ExtensionsDEBUG:ExtRigidBodyExt.obj
 0002:00003838       ??_C@_0BH@LFJLLNEP@combinedCoM?4isFinite?$CI?$CJ?$AA@ 0000000180100838     PhysX3ExtensionsDEBUG:ExtRigidBodyExt.obj
 0002:00003858       ??_C@_0BJ@KPLJPLGN@PxIsFinite?$CIcombinedMass?$CJ?$AA@ 0000000180100858     PhysX3ExtensionsDEBUG:ExtRigidBodyExt.obj
 0002:00003880       ??_C@_0FF@DCIDKGMC@i?3?2_dae?2references?2physx?53?44?2phy@ 0000000180100880     PhysX3ExtensionsDEBUG:ExtRigidBodyExt.obj
 0002:000038e8       ??_C@_0BC@CPDMLBPM@inertia?4x?5?$CB?$DN?50?40f?$AA@ 00000001801008e8     PhysX3ExtensionsDEBUG:ExtRigidBodyExt.obj
 0002:00003900       ??_C@_0BC@MAPONKMC@inertia?4y?5?$CB?$DN?50?40f?$AA@ 0000000180100900     PhysX3ExtensionsDEBUG:ExtRigidBodyExt.obj
 0002:00003918       ??_C@_0BC@CLMJGBMB@inertia?4z?5?$CB?$DN?50?40f?$AA@ 0000000180100918     PhysX3ExtensionsDEBUG:ExtRigidBodyExt.obj
 0002:00003930       ??_C@_0BD@OPJGPFFH@inertia?4isFinite?$CI?$CJ?$AA@ 0000000180100930     PhysX3ExtensionsDEBUG:ExtRigidBodyExt.obj
 0002:00003950       ??_C@_0EI@EJLALNOJ@mI?4column0?4isFinite?$CI?$CJ?5?$CG?$CG?5mI?4colu@ 0000000180100950     PhysX3ExtensionsDEBUG:ExtRigidBodyExt.obj
 0002:000039a8       ??_C@_0BC@OFOGBKJM@PxIsFinite?$CImMass?$CJ?$AA@ 00000001801009a8     PhysX3ExtensionsDEBUG:ExtRigidBodyExt.obj
 0002:000039c0       ??_C@_0O@PGJGBBMD@mG?4isFinite?$CI?$CJ?$AA@ 00000001801009c0     PhysX3ExtensionsDEBUG:ExtRigidBodyExt.obj
 0002:000039d0       ??_C@_0IE@PMLMABKM@?$CFs?3?5inertia?5tensor?5has?5negative?5@ 00000001801009d0     PhysX3ExtensionsDEBUG:ExtRigidBodyExt.obj
 0002:00003a70       ??_C@_0CO@PEEEKJKP@?4?4?2?4?4?2PhysXExtensions?2src?2ExtRig@ 0000000180100a70     PhysX3ExtensionsDEBUG:ExtRigidBodyExt.obj
 0002:00003aa8       ??_C@_0BG@FAEGGHDL@?$CBdensities?5?$HM?$HM?5?$CBmasses?$AA@ 0000000180100aa8     PhysX3ExtensionsDEBUG:ExtRigidBodyExt.obj
 0002:00003ac8       ??_C@_0DC@HOEEJLOF@?$CIdensities?5?$HM?$HM?5masses?$CJ?5?$CG?$CG?5?$CIdensit@ 0000000180100ac8     PhysX3ExtensionsDEBUG:ExtRigidBodyExt.obj
 0002:00003b08       ??_C@_08MJBGFJN@PxShape?$CK?$AA@ 0000000180100b08     PhysX3ExtensionsDEBUG:ExtRigidBodyExt.obj
 0002:00003b20       ??_C@_0ED@GFJAKEFC@computeMassAndInertia?3?5Provided?5@ 0000000180100b20     PhysX3ExtensionsDEBUG:ExtRigidBodyExt.obj
 0002:00003b70       ??_C@_0FL@MGPHIFPL@computeMassAndInertia?3?5Not?5enoug@ 0000000180100b70     PhysX3ExtensionsDEBUG:ExtRigidBodyExt.obj
 0002:00003be0       ??_C@_02MFDMBIJM@ok?$AA@   0000000180100be0     PhysX3ExtensionsDEBUG:ExtRigidBodyExt.obj
 0002:00003bf0       ??_C@_0ED@IINBLCPB@computeMassAndInertia?3?5Dynamic?5a@ 0000000180100bf0     PhysX3ExtensionsDEBUG:ExtRigidBodyExt.obj
 0002:00003c40       ??_C@_0CF@NFENOJIA@PxRigidBodyExt?3?3updateMassAndIne@ 0000000180100c40     PhysX3ExtensionsDEBUG:ExtRigidBodyExt.obj
 0002:00003c70       ??_C@_0FC@JIKFFKAL@?$CFs?3?5Mass?5and?5inertia?5computation@ 0000000180100c70     PhysX3ExtensionsDEBUG:ExtRigidBodyExt.obj
 0002:00003ce0       ??_C@_0ED@BHIJHOEP@?$CFs?3?5No?5density?5specified?0?5settin@ 0000000180100ce0     PhysX3ExtensionsDEBUG:ExtRigidBodyExt.obj
 0002:00003d30       ??_C@_0BC@LCFLEJMO@orient?4isFinite?$CI?$CJ?$AA@ 0000000180100d30     PhysX3ExtensionsDEBUG:ExtRigidBodyExt.obj
 0002:00003d48       ??_C@_0BG@MOLDNCJJ@diagTensor?4isFinite?$CI?$CJ?$AA@ 0000000180100d48     PhysX3ExtensionsDEBUG:ExtRigidBodyExt.obj
 0002:00003d68       ??_C@_0BE@IMLKJJIO@PxIsFinite?$CImassOut?$CJ?$AA@ 0000000180100d68     PhysX3ExtensionsDEBUG:ExtRigidBodyExt.obj
 0002:00003d80       ??_C@_0CI@NNBNKKJG@PxRigidBodyExt?3?3setMassAndUpdate@ 0000000180100d80     PhysX3ExtensionsDEBUG:ExtRigidBodyExt.obj
 0002:00003db0       ??_C@_0EA@JNKKHEHF@?$CFs?3?5No?5mass?5specified?0?5setting?5m@ 0000000180100db0     PhysX3ExtensionsDEBUG:ExtRigidBodyExt.obj
 0002:00003e00       ??_C@_0FI@DKLFOMEB@PxRigidBodyExt?3?3addForce?5methods@ 0000000180100e00     PhysX3ExtensionsDEBUG:ExtRigidBodyExt.obj
 0002:00003e70       ??_C@_0O@NBMIOIOP@shape?5?$CB?$DN?5NULL?$AA@ 0000000180100e70     PhysX3ExtensionsDEBUG:ExtRigidBodyExt.obj
 0002:00003e80       ??_C@_0BB@BDAMNKLN@sourceIndex?5?$DO?$DN?5j?$AA@ 0000000180100e80     PhysX3ExtensionsDEBUG:ExtRigidBodyExt.obj
 0002:00003e98       ??_C@_0DK@HKHACFOF@sumNbResults?5?$DO?$DN?50?5?$CG?$CG?5sumNbResult@ 0000000180100e98     PhysX3ExtensionsDEBUG:ExtRigidBodyExt.obj
 0002:00003ee0       ??_C@_0EH@ONJKCLLP@i?3?2_dae?2references?2physx?53?44?2pxs@ 0000000180100ee0     PhysX3ExtensionsDEBUG:ExtRigidBodyExt.obj
 0002:00003f38       __real@3eaaaaab            0000000180100f38     PhysX3ExtensionsDEBUG:ExtRigidBodyExt.obj
 0002:00003f3c       __real@3ecccccd            0000000180100f3c     PhysX3ExtensionsDEBUG:ExtRigidBodyExt.obj
 0002:00003f40       __real@3f088889            0000000180100f40     PhysX3ExtensionsDEBUG:ExtRigidBodyExt.obj
 0002:00003f44       __real@3f2aaaab            0000000180100f44     PhysX3ExtensionsDEBUG:ExtRigidBodyExt.obj
 0002:00003f48       __real@3f8147ae            0000000180100f48     PhysX3ExtensionsDEBUG:ExtRigidBodyExt.obj
 0002:00003f4c       __real@3faaaaab            0000000180100f4c     PhysX3ExtensionsDEBUG:ExtRigidBodyExt.obj
 0002:00003f50       __real@40400000            0000000180100f50     PhysX3ExtensionsDEBUG:ExtRigidBodyExt.obj
 0002:00003f54       __real@40490fdb            0000000180100f54     PhysX3ExtensionsDEBUG:ExtRigidBodyExt.obj
 0002:00003f58       __real@40860a92            0000000180100f58     PhysX3ExtensionsDEBUG:ExtRigidBodyExt.obj
 0002:00003f5c       __real@41000000            0000000180100f5c     PhysX3ExtensionsDEBUG:ExtRigidBodyExt.obj
 0002:00003f60       __real@41400000            0000000180100f60     PhysX3ExtensionsDEBUG:ExtRigidBodyExt.obj
 0002:00003f64       __real@41700000            0000000180100f64     PhysX3ExtensionsDEBUG:ExtRigidBodyExt.obj
 0002:00003f70       ??_7type_info@@6B@         0000000180100f70     LIBCMTD:std_type_info_static.obj
 0002:00003f80       _pRawDllMain               0000000180100f80     LIBCMTD:dll_dllmain.obj
 0002:00003f80       _pDefaultRawDllMain        0000000180100f80     LIBCMTD:dll_dllmain.obj
 0002:00003fc0       ??_C@_0BJ@HEGAHDFO@Stack?5pointer?5corruption?$AA@ 0000000180100fc0     LIBCMTD:_userapi_.obj
 0002:00003fe0       ??_C@_0CK@FEGOIOPB@Cast?5to?5smaller?5type?5causing?5los@ 0000000180100fe0     LIBCMTD:_userapi_.obj
 0002:00004018       ??_C@_0BI@CIGMDCBH@Stack?5memory?5corruption?$AA@ 0000000180101018     LIBCMTD:_userapi_.obj
 0002:00004038       ??_C@_0CK@CNLNOEPB@Local?5variable?5used?5before?5initi@ 0000000180101038     LIBCMTD:_userapi_.obj
 0002:00004070       ??_C@_0BP@OGBCLIBO@Stack?5around?5_alloca?5corrupted?$AA@ 0000000180101070     LIBCMTD:_userapi_.obj
 0002:00004180       ??_C@_0NN@NGPKDKPD@The?5value?5of?5ESP?5was?5not?5properl@ 0000000180101180     LIBCMTD:_error_.obj
 0002:00004290       ??_C@_0BBN@GPMLNJCF@A?5cast?5to?5a?5smaller?5data?5type?5ha@ 0000000180101290     LIBCMTD:_error_.obj
 0002:000043e8       ??_C@_0BN@FFOINMNJ@Stack?5memory?5was?5corrupted?6?$AN?$AA@ 00000001801013e8     LIBCMTD:_error_.obj
 0002:00004410       ??_C@_0DG@HKJMLLLP@A?5local?5variable?5was?5used?5before@ 0000000180101410     LIBCMTD:_error_.obj
 0002:00004450       ??_C@_0CM@NGINOKPC@Stack?5memory?5around?5_alloca?5was?5@ 0000000180101450     LIBCMTD:_error_.obj
 0002:00004488       ??_C@_0BO@GNIAFIKK@Unknown?5Runtime?5Check?5Error?6?$AN?$AA@ 0000000180101488     LIBCMTD:_error_.obj
 0002:000044b0       ??_C@_1GM@OLMCBDMB@?$AAR?$AAu?$AAn?$AAt?$AAi?$AAm?$AAe?$AA?5?$AAC?$AAh?$AAe?$AAc?$AAk?$AA?5?$AAE?$AAr?$AAr?$AAo?$AAr?$AA?4?$AA?6?$AA?$AN?$AA?5?$AAU?$AAn?$AAa?$AAb?$AAl?$AAe?$AA?5?$AAt?$AAo@ 00000001801014b0     LIBCMTD:_error_.obj
 0002:00004540       ??_C@_1EA@NFKNIFJP@?$AAR?$AAu?$AAn?$AA?9?$AAT?$AAi?$AAm?$AAe?$AA?5?$AAC?$AAh?$AAe?$AAc?$AAk?$AA?5?$AAF?$AAa?$AAi?$AAl?$AAu?$AAr?$AAe?$AA?5?$AA?$CD?$AA?$CF?$AAd?$AA?5?$AA?9?$AA?5?$AA?$CF?$AAs?$AA?$AA@ 0000000180101540     LIBCMTD:_error_.obj
 0002:00004590       ??_C@_0BB@PFFGGCJP@Unknown?5Filename?$AA@ 0000000180101590     LIBCMTD:_error_.obj
 0002:000045a8       ??_C@_0BE@GNBOBNCK@Unknown?5Module?5Name?$AA@ 00000001801015a8     LIBCMTD:_error_.obj
 0002:000045c0       ??_C@_0CA@IODNCDPG@Run?9Time?5Check?5Failure?5?$CD?$CFd?5?9?5?$CFs?$AA@ 00000001801015c0     LIBCMTD:_error_.obj
 0002:000045e8       ??_C@_0CG@IAFNJNEE@Stack?5corrupted?5near?5unknown?5var@ 00000001801015e8     LIBCMTD:_error_.obj
 0002:00004618       ??_C@_05MKKEDADM@?$CF?42X?5?$AA@ 0000000180101618     LIBCMTD:_error_.obj
 0002:00004620       ??_C@_0EJ@LJKNEOLN@Stack?5area?5around?5_alloca?5memory@ 0000000180101620     LIBCMTD:_error_.obj
 0002:00004678       ??_C@_08OMAHNMHJ@?6Data?3?5?$DM?$AA@ 0000000180101678     LIBCMTD:_error_.obj
 0002:00004688       ??_C@_0CK@DKGBICFE@?6Allocation?5number?5within?5this?5f@ 0000000180101688     LIBCMTD:_error_.obj
 0002:000046c0       ??_C@_07DFDJCKFN@?6Size?3?5?$AA@ 00000001801016c0     LIBCMTD:_error_.obj
 0002:000046d0       ??_C@_0N@MHFFIMFG@?6Address?3?50x?$AA@ 00000001801016d0     LIBCMTD:_error_.obj
 0002:000046e0       ??_C@_0EI@CLEPFNGI@Stack?5area?5around?5_alloca?5memory@ 00000001801016e0     LIBCMTD:_error_.obj
 0002:00004738       ??_C@_0BC@HHMKLAND@?$CFs?$CFs?$CFp?$CFs?$CFzd?$CFs?$CFd?$CFs?$AA@ 0000000180101738     LIBCMTD:_error_.obj
 0002:00004750       ??_C@_01EEMJAFIK@?6?$AA@   0000000180101750     LIBCMTD:_error_.obj
 0002:00004754       ??_C@_02LLMPMKNF@?$DO?5?$AA@ 0000000180101754     LIBCMTD:_error_.obj
 0002:00004758       ??_C@_08KJEDNCKC@?$CFs?$CFs?$CFs?$CFs?$AA@ 0000000180101758     LIBCMTD:_error_.obj
 0002:00004768       ??_C@_0DE@OHJBPMBP@A?5variable?5is?5being?5used?5without@ 0000000180101768     LIBCMTD:_error_.obj
 0002:00004810       ??_C@_1EI@MLPKHBGE@?$AAa?$AAp?$AAi?$AA?9?$AAm?$AAs?$AA?9?$AAw?$AAi?$AAn?$AA?9?$AAc?$AAo?$AAr?$AAe?$AA?9?$AAr?$AAe?$AAg?$AAi?$AAs?$AAt?$AAr?$AAy?$AA?9?$AAl?$AA1?$AA?9?$AA1?$AA?9?$AA0?$AA?4@ 0000000180101810     LIBCMTD:_pdblkup_.obj
 0002:00004868       ??_C@_1BK@JHLNAEJL@?$AAa?$AAd?$AAv?$AAa?$AAp?$AAi?$AA3?$AA2?$AA?4?$AAd?$AAl?$AAl?$AA?$AA@ 0000000180101868     LIBCMTD:_pdblkup_.obj
 0002:00004888       ??_C@_0O@COHOBMLB@RegOpenKeyExW?$AA@ 0000000180101888     LIBCMTD:_pdblkup_.obj
 0002:00004898       ??_C@_0BB@GLNAEDBD@RegQueryValueExW?$AA@ 0000000180101898     LIBCMTD:_pdblkup_.obj
 0002:000048b0       ??_C@_0M@HLOHPNFA@RegCloseKey?$AA@ 00000001801018b0     LIBCMTD:_pdblkup_.obj
 0002:000048c0       ??_C@_1HE@EBEAGLFB@?$AAS?$AAO?$AAF?$AAT?$AAW?$AAA?$AAR?$AAE?$AA?2?$AAW?$AAo?$AAw?$AA6?$AA4?$AA3?$AA2?$AAN?$AAo?$AAd?$AAe?$AA?2?$AAM?$AAi?$AAc?$AAr?$AAo?$AAs?$AAo?$AAf?$AAt?$AA?2?$AAV@ 00000001801018c0     LIBCMTD:_pdblkup_.obj
 0002:00004950       ??_C@_1BG@EABPBLLF@?$AAP?$AAr?$AAo?$AAd?$AAu?$AAc?$AAt?$AAD?$AAi?$AAr?$AA?$AA@ 0000000180101950     LIBCMTD:_pdblkup_.obj
 0002:00004998       ??_C@_1BC@JINFINNJ@?$AAM?$AAS?$AAP?$AAD?$AAB?$AA1?$AA4?$AA0?$AA?$AA@ 0000000180101998     LIBCMTD:_pdblkup_.obj
 0002:000049b0       ??_C@_0BB@KCIACLNC@PDBOpenValidate5?$AA@ 00000001801019b0     LIBCMTD:_pdblkup_.obj
 0002:000049c4       ??_C@_01KDCPPGHE@r?$AA@    00000001801019c4     LIBCMTD:_pdblkup_.obj
 0002:000049e0       ??_C@_0DF@NOINFFIM@f?3?2dd?2vctools?2crt?2vcruntime?2src?2@ 00000001801019e0     libvcruntimed:std_type_info.obj
 0002:00004de0       ??_C@_08EHJDFFNH@__based?$CI?$AA@ 0000000180101de0     libvcruntimed:undname.obj
 0002:00004df0       ??_C@_07KOLFKCDI@__cdecl?$AA@ 0000000180101df0     libvcruntimed:undname.obj
 0002:00004e00       ??_C@_08GHMPAG@__pascal?$AA@ 0000000180101e00     libvcruntimed:undname.obj
 0002:00004e10       ??_C@_09IFJBGAPI@__stdcall?$AA@ 0000000180101e10     libvcruntimed:undname.obj
 0002:00004e20       ??_C@_0L@NPHFGOKO@__thiscall?$AA@ 0000000180101e20     libvcruntimed:undname.obj
 0002:00004e30       ??_C@_0L@JMKHOMEK@__fastcall?$AA@ 0000000180101e30     libvcruntimed:undname.obj
 0002:00004e40       ??_C@_0N@BCKKPABJ@__vectorcall?$AA@ 0000000180101e40     libvcruntimed:undname.obj
 0002:00004e50       ??_C@_09HIJEGCPM@__clrcall?$AA@ 0000000180101e50     libvcruntimed:undname.obj
 0002:00004e5c       ??_C@_06GHPCKEAG@__eabi?$AA@ 0000000180101e5c     libvcruntimed:undname.obj
 0002:00004e68       ??_C@_07JOMMBBKO@__ptr64?$AA@ 0000000180101e68     libvcruntimed:undname.obj
 0002:00004e78       ??_C@_0L@PILCLIHE@__restrict?$AA@ 0000000180101e78     libvcruntimed:undname.obj
 0002:00004e88       ??_C@_0M@GFIIJFMG@__unaligned?$AA@ 0000000180101e88     libvcruntimed:undname.obj
 0002:00004e98       ??_C@_09DHDLOLLB@restrict?$CI?$AA@ 0000000180101e98     libvcruntimed:undname.obj
 0002:00004ea4       ??_C@_00CNPNBAHC@?$AA@     0000000180101ea4     libvcruntimed:undname.obj
 0002:00004ea8       ??_C@_04NIHEBCM@?5new?$AA@ 0000000180101ea8     libvcruntimed:undname.obj
 0002:00004eb0       ??_C@_07FPCDHGMM@?5delete?$AA@ 0000000180101eb0     libvcruntimed:undname.obj
 0002:00004ebc       ??_C@_01NEMOKFLO@?$DN?$AA@ 0000000180101ebc     libvcruntimed:undname.obj
 0002:00004ec0       ??_C@_02GPIOPFAK@?$DO?$DO?$AA@ 0000000180101ec0     libvcruntimed:undname.obj
 0002:00004ec4       ??_C@_02FODMEDOG@?$DM?$DM?$AA@ 0000000180101ec4     libvcruntimed:undname.obj
 0002:00004ec8       ??_C@_01DCLJPIOD@?$CB?$AA@ 0000000180101ec8     libvcruntimed:undname.obj
 0002:00004ecc       ??_C@_02EGOFBIJA@?$DN?$DN?$AA@ 0000000180101ecc     libvcruntimed:undname.obj
 0002:00004ed0       ??_C@_02FDNJECIE@?$CB?$DN?$AA@ 0000000180101ed0     libvcruntimed:undname.obj
 0002:00004ed4       ??_C@_02GPECMEKF@?$FL?$FN?$AA@ 0000000180101ed4     libvcruntimed:undname.obj
 0002:00004ed8       ??_C@_08LHJFAFGD@operator?$AA@ 0000000180101ed8     libvcruntimed:undname.obj
 0002:00004ee4       ??_C@_02HBOOOICD@?9?$DO?$AA@ 0000000180101ee4     libvcruntimed:undname.obj
 0002:00004ee8       ??_C@_01NBENCBCI@?$CK?$AA@ 0000000180101ee8     libvcruntimed:undname.obj
 0002:00004eec       ??_C@_02ECNGHCIF@?$CL?$CL?$AA@ 0000000180101eec     libvcruntimed:undname.obj
 0002:00004ef0       ??_C@_02BAABKJLB@?9?9?$AA@ 0000000180101ef0     libvcruntimed:undname.obj
 0002:00004ef4       ??_C@_01JOAMLHOP@?9?$AA@   0000000180101ef4     libvcruntimed:undname.obj
 0002:00004ef8       ??_C@_01MIFGBAGJ@?$CL?$AA@ 0000000180101ef8     libvcruntimed:undname.obj
 0002:00004efc       ??_C@_01HNPIGOCE@?$CG?$AA@ 0000000180101efc     libvcruntimed:undname.obj
 0002:00004f00       ??_C@_03MNHNFDLC@?9?$DO?$CK?$AA@ 0000000180101f00     libvcruntimed:undname.obj
 0002:00004f04       ??_C@_01KMDKNFGN@?1?$AA@   0000000180101f04     libvcruntimed:undname.obj
 0002:00004f08       ??_C@_01FGNFDNOH@?$CF?$AA@ 0000000180101f08     libvcruntimed:undname.obj
 0002:00004f0c       ??_C@_01MNNFJEPP@?$DM?$AA@ 0000000180101f0c     libvcruntimed:undname.obj
 0002:00004f10       ??_C@_02EHCHHCKH@?$DM?$DN?$AA@ 0000000180101f10     libvcruntimed:undname.obj
 0002:00004f14       ??_C@_01PPODPGHN@?$DO?$AA@ 0000000180101f14     libvcruntimed:undname.obj
 0002:00004f18       ??_C@_02EEKDKGMJ@?$DO?$DN?$AA@ 0000000180101f18     libvcruntimed:undname.obj
 0002:00004f1c       ??_C@_01IHBHIGKO@?0?$AA@   0000000180101f1c     libvcruntimed:undname.obj
 0002:00004f20       ??_C@_02HCKGKOFO@?$CI?$CJ?$AA@ 0000000180101f20     libvcruntimed:undname.obj
 0002:00004f24       ??_C@_01PJKLJHI@?$HO?$AA@  0000000180101f24     libvcruntimed:undname.obj
 0002:00004f28       ??_C@_01JKBOJNNK@?$FO?$AA@ 0000000180101f28     libvcruntimed:undname.obj
 0002:00004f2c       ??_C@_01DNKMNLPK@?$HM?$AA@ 0000000180101f2c     libvcruntimed:undname.obj
 0002:00004f30       ??_C@_02PPKAJPJL@?$CG?$CG?$AA@ 0000000180101f30     libvcruntimed:undname.obj
 0002:00004f34       ??_C@_02NONPIBCD@?$HM?$HM?$AA@ 0000000180101f34     libvcruntimed:undname.obj
 0002:00004f38       ??_C@_02FPIMKNGF@?$CK?$DN?$AA@ 0000000180101f38     libvcruntimed:undname.obj
 0002:00004f3c       ??_C@_02FOEOMHFC@?$CL?$DN?$AA@ 0000000180101f3c     libvcruntimed:undname.obj
 0002:00004f40       ??_C@_02FKMDLLOA@?9?$DN?$AA@ 0000000180101f40     libvcruntimed:undname.obj
 0002:00004f44       ??_C@_02FJEHGPIO@?1?$DN?$AA@ 0000000180101f44     libvcruntimed:undname.obj
 0002:00004f48       ??_C@_02FENAOKFI@?$CF?$DN?$AA@ 0000000180101f48     libvcruntimed:undname.obj
 0002:00004f4c       ??_C@_03IKFCCPFF@?$DO?$DO?$DN?$AA@ 0000000180101f4c     libvcruntimed:undname.obj
 0002:00004f50       ??_C@_03CDNPDDLA@?$DM?$DM?$DN?$AA@ 0000000180101f50     libvcruntimed:undname.obj
 0002:00004f54       ??_C@_02FGJGFEAB@?$CG?$DN?$AA@ 0000000180101f54     libvcruntimed:undname.obj
 0002:00004f58       ??_C@_02DHLNPPGH@?$HM?$DN?$AA@ 0000000180101f58     libvcruntimed:undname.obj
 0002:00004f5c       ??_C@_02MHEGNOJ@?$FO?$DN?$AA@ 0000000180101f5c     libvcruntimed:undname.obj
 0002:00004f60       ??_C@_09IFPLHPGF@?$GAvftable?8?$AA@ 0000000180101f60     libvcruntimed:undname.obj
 0002:00004f70       ??_C@_09BLBHBJP@?$GAvbtable?8?$AA@ 0000000180101f70     libvcruntimed:undname.obj
 0002:00004f80       ??_C@_07FEEIOKP@?$GAvcall?8?$AA@ 0000000180101f80     libvcruntimed:undname.obj
 0002:00004f90       ??_C@_08LLFFHHDJ@?$GAtypeof?8?$AA@ 0000000180101f90     libvcruntimed:undname.obj
 0002:00004fa0       ??_C@_0BF@KDPPACIK@?$GAlocal?5static?5guard?8?$AA@ 0000000180101fa0     libvcruntimed:undname.obj
 0002:00004fc0       ??_C@_08OBABFOLI@?$GAstring?8?$AA@ 0000000180101fc0     libvcruntimed:undname.obj
 0002:00004fd0       ??_C@_0BD@JDLKDPAB@?$GAvbase?5destructor?8?$AA@ 0000000180101fd0     libvcruntimed:undname.obj
 0002:00004fe8       ??_C@_0BN@DEGPLNFK@?$GAvector?5deleting?5destructor?8?$AA@ 0000000180101fe8     libvcruntimed:undname.obj
 0002:00005010       ??_C@_0BO@OBMKPJIG@?$GAdefault?5constructor?5closure?8?$AA@ 0000000180102010     libvcruntimed:undname.obj
 0002:00005038       ??_C@_0BN@IMDCHIKM@?$GAscalar?5deleting?5destructor?8?$AA@ 0000000180102038     libvcruntimed:undname.obj
 0002:00005060       ??_C@_0BO@PFGOCPJJ@?$GAvector?5constructor?5iterator?8?$AA@ 0000000180102060     libvcruntimed:undname.obj
 0002:00005088       ??_C@_0BN@LFPFMEDL@?$GAvector?5destructor?5iterator?8?$AA@ 0000000180102088     libvcruntimed:undname.obj
 0002:000050b0       ??_C@_0CE@IKBNEHA@?$GAvector?5vbase?5constructor?5iterat@ 00000001801020b0     libvcruntimed:undname.obj
 0002:000050e0       ??_C@_0BL@NILFHHPC@?$GAvirtual?5displacement?5map?8?$AA@ 00000001801020e0     libvcruntimed:undname.obj
 0002:00005100       ??_C@_0CB@JONCMFFK@?$GAeh?5vector?5constructor?5iterator?8@ 0000000180102100     libvcruntimed:undname.obj
 0002:00005128       ??_C@_0CA@GCEOPDGL@?$GAeh?5vector?5destructor?5iterator?8?$AA@ 0000000180102128     libvcruntimed:undname.obj
 0002:00005150       ??_C@_0CH@OOJPLCPH@?$GAeh?5vector?5vbase?5constructor?5ite@ 0000000180102150     libvcruntimed:undname.obj
 0002:00005180       ??_C@_0BL@LLKPOHJI@?$GAcopy?5constructor?5closure?8?$AA@ 0000000180102180     libvcruntimed:undname.obj
 0002:000051a0       ??_C@_0BA@KBCDOMBN@?$GAudt?5returning?8?$AA@ 00000001801021a0     libvcruntimed:undname.obj
 0002:000051b4       ??_C@_03KLGMFNMG@?$GAEH?$AA@ 00000001801021b4     libvcruntimed:undname.obj
 0002:000051b8       ??_C@_05KHLCHHI@?$GARTTI?$AA@ 00000001801021b8     libvcruntimed:undname.obj
 0002:000051c0       ??_C@_0BA@KKLDJDLB@?$GAlocal?5vftable?8?$AA@ 00000001801021c0     libvcruntimed:undname.obj
 0002:000051d8       ??_C@_0CE@IIHCMGGL@?$GAlocal?5vftable?5constructor?5closu@ 00000001801021d8     libvcruntimed:undname.obj
 0002:00005204       ??_C@_06FHBGPFGH@?5new?$FL?$FN?$AA@ 0000000180102204     libvcruntimed:undname.obj
 0002:00005210       ??_C@_09LBNFPBCA@?5delete?$FL?$FN?$AA@ 0000000180102210     libvcruntimed:undname.obj
 0002:00005220       ??_C@_0P@HJKNJFNN@?$GAomni?5callsig?8?$AA@ 0000000180102220     libvcruntimed:undname.obj
 0002:00005238       ??_C@_0BL@CNOONJFP@?$GAplacement?5delete?5closure?8?$AA@ 0000000180102238     libvcruntimed:undname.obj
 0002:00005258       ??_C@_0BN@CKNJLHMB@?$GAplacement?5delete?$FL?$FN?5closure?8?$AA@ 0000000180102258     libvcruntimed:undname.obj
 0002:00005280       ??_C@_0CG@CFDHKGGD@?$GAmanaged?5vector?5constructor?5iter@ 0000000180102280     libvcruntimed:undname.obj
 0002:000052b0       ??_C@_0CF@IMGKMJNO@?$GAmanaged?5vector?5destructor?5itera@ 00000001801022b0     libvcruntimed:undname.obj
 0002:000052e0       ??_C@_0CG@HLDDJMAG@?$GAeh?5vector?5copy?5constructor?5iter@ 00000001801022e0     libvcruntimed:undname.obj
 0002:00005310       ??_C@_0CM@FCBBDIGB@?$GAeh?5vector?5vbase?5copy?5constructo@ 0000000180102310     libvcruntimed:undname.obj
 0002:00005348       ??_C@_0BL@CLIPGLGB@?$GAdynamic?5initializer?5for?5?8?$AA@ 0000000180102348     libvcruntimed:undname.obj
 0002:00005368       ??_C@_0CB@PDBIFEP@?$GAdynamic?5atexit?5destructor?5for?5?8@ 0000000180102368     libvcruntimed:undname.obj
 0002:00005390       ??_C@_0CD@CGAJBKEJ@?$GAvector?5copy?5constructor?5iterato@ 0000000180102390     libvcruntimed:undname.obj
 0002:000053c0       ??_C@_0CJ@GJELGAMM@?$GAvector?5vbase?5copy?5constructor?5i@ 00000001801023c0     libvcruntimed:undname.obj
 0002:000053f8       ??_C@_0CL@FGIJHLCE@?$GAmanaged?5vector?5copy?5constructor@ 00000001801023f8     libvcruntimed:undname.obj
 0002:00005430       ??_C@_0BM@PMGGMLDN@?$GAlocal?5static?5thread?5guard?8?$AA@ 0000000180102430     libvcruntimed:undname.obj
 0002:00005458       ??_C@_0N@BDNMDMOL@operator?5?$CC?$CC?5?$AA@ 0000000180102458     libvcruntimed:undname.obj
 0002:00005468       ??_C@_0BC@DAFEJGAK@?5Type?5Descriptor?8?$AA@ 0000000180102468     libvcruntimed:undname.obj
 0002:00005480       ??_C@_0BM@LDKODKLH@?5Base?5Class?5Descriptor?5at?5?$CI?$AA@ 0000000180102480     libvcruntimed:undname.obj
 0002:000054a8       ??_C@_0BD@LGICGFMM@?5Base?5Class?5Array?8?$AA@ 00000001801024a8     libvcruntimed:undname.obj
 0002:000054c0       ??_C@_0BN@MECKDCOJ@?5Class?5Hierarchy?5Descriptor?8?$AA@ 00000001801024c0     libvcruntimed:undname.obj
 0002:000054e8       ??_C@_0BK@CFCOFLF@?5Complete?5Object?5Locator?8?$AA@ 00000001801024e8     libvcruntimed:undname.obj
 0002:00005508       ??_C@_04HEJADOOB@CV?3?5?$AA@ 0000000180102508     libvcruntimed:undname.obj
 0002:00005510       ??_C@_02MOLJINC@?3?3?$AA@  0000000180102510     libvcruntimed:undname.obj
 0002:00005518       ??_C@_0BE@JAEOCHPE@template?9parameter?9?$AA@ 0000000180102518     libvcruntimed:undname.obj
 0002:00005530       ??_C@_0O@KHGCOMHP@generic?9type?9?$AA@ 0000000180102530     libvcruntimed:undname.obj
 0002:00005540       ??_C@_01NLNLIGKH@?$GA?$AA@ 0000000180102540     libvcruntimed:undname.obj
 0002:00005544       ??_C@_01GEODFPGF@?8?$AA@   0000000180102544     libvcruntimed:undname.obj
 0002:00005548       ??_C@_0BG@JNJLAMPM@?$GAanonymous?5namespace?8?$AA@ 0000000180102548     libvcruntimed:undname.obj
 0002:00005564       ??_C@_02OHHJMEON@?8?8?$AA@ 0000000180102564     libvcruntimed:undname.obj
 0002:00005568       ??_C@_0BN@IBLMMFAP@?$GAnon?9type?9template?9parameter?$AA@ 0000000180102568     libvcruntimed:undname.obj
 0002:0000558c       ??_C@_04GKJNKENE@void?$AA@ 000000018010258c     libvcruntimed:undname.obj
 0002:00005598       ??_C@_0BE@EODMJLIF@?$GAtemplate?9parameter?$AA@ 0000000180102598     libvcruntimed:undname.obj
 0002:000055b0       ??_C@_03KHICJKCI@?4?4?4?$AA@ 00000001801025b0     libvcruntimed:undname.obj
 0002:000055b4       ??_C@_04HIBGFPH@NULL?$AA@  00000001801025b4     libvcruntimed:undname.obj
 0002:000055bc       ??_C@_02DPKJAMEF@?$CFd?$AA@ 00000001801025bc     libvcruntimed:undname.obj
 0002:000055c0       ??_C@_0BK@IHCCFNEL@?$GAtemplate?9type?9parameter?9?$AA@ 00000001801025c0     libvcruntimed:undname.obj
 0002:000055e0       ??_C@_0BK@OFCNNNKO@?$GAgeneric?9class?9parameter?9?$AA@ 00000001801025e0     libvcruntimed:undname.obj
 0002:00005600       ??_C@_0BL@NGJBLFIL@?$GAgeneric?9method?9parameter?9?$AA@ 0000000180102600     libvcruntimed:undname.obj
 0002:00005620       ??_C@_03OPGICMGF@?$HN?8?5?$AA@ 0000000180102620     libvcruntimed:undname.obj
 0002:00005624       ??_C@_02IGFCGPIL@?$HN?8?$AA@ 0000000180102624     libvcruntimed:undname.obj
 0002:00005628       ??_C@_01CLKCMJKC@?5?$AA@   0000000180102628     libvcruntimed:undname.obj
 0002:00005630       ??_C@_0N@CBHHHENL@?$GAvtordispex?$HL?$AA@ 0000000180102630     libvcruntimed:undname.obj
 0002:00005640       ??_C@_0L@GHPFDFH@?$GAvtordisp?$HL?$AA@ 0000000180102640     libvcruntimed:undname.obj
 0002:00005650       ??_C@_0L@HNGCOGAE@?$GAadjustor?$HL?$AA@ 0000000180102650     libvcruntimed:undname.obj
 0002:00005660       ??_C@_0CB@KJDOOODE@?$GAlocal?5static?5destructor?5helper?8@ 0000000180102660     libvcruntimed:undname.obj
 0002:00005688       ??_C@_0DB@ILEFOCIJ@?$GAtemplate?5static?5data?5member?5con@ 0000000180102688     libvcruntimed:undname.obj
 0002:000056c8       ??_C@_0DA@HGFJFBBE@?$GAtemplate?5static?5data?5member?5des@ 00000001801026c8     libvcruntimed:undname.obj
 0002:00005708       ??_C@_07PGOEDBHP@static?5?$AA@ 0000000180102708     libvcruntimed:undname.obj
 0002:00005718       ??_C@_08NIEOINHE@virtual?5?$AA@ 0000000180102718     libvcruntimed:undname.obj
 0002:00005728       ??_C@_09LAPHOOG@private?3?5?$AA@ 0000000180102728     libvcruntimed:undname.obj
 0002:00005738       ??_C@_0M@GAIFPFIP@protected?3?5?$AA@ 0000000180102738     libvcruntimed:undname.obj
 0002:00005748       ??_C@_08GPDDCMKI@public?3?5?$AA@ 0000000180102748     libvcruntimed:undname.obj
 0002:00005758       ??_C@_08KJLFOPNE@?$FLthunk?$FN?3?$AA@ 0000000180102758     libvcruntimed:undname.obj
 0002:00005768       ??_C@_0M@DHNBOJMP@extern?5?$CCC?$CC?5?$AA@ 0000000180102768     libvcruntimed:undname.obj
 0002:00005778       ??_C@_02KCKGHPCA@?$CJ?5?$AA@ 0000000180102778     libvcruntimed:undname.obj
 0002:0000577c       ??_C@_05CIHEBHNO@char?5?$AA@ 000000018010277c     libvcruntimed:undname.obj
 0002:00005784       ??_C@_06EHJMALKF@short?5?$AA@ 0000000180102784     libvcruntimed:undname.obj
 0002:0000578c       ??_C@_04LAHKHJMA@int?5?$AA@ 000000018010278c     libvcruntimed:undname.obj
 0002:00005794       ??_C@_05CJIMAING@long?5?$AA@ 0000000180102794     libvcruntimed:undname.obj
 0002:000057a0       ??_C@_09EBBEKKIH@unsigned?5?$AA@ 00000001801027a0     libvcruntimed:undname.obj
 0002:000057ac       ??_C@_05BEFAKPML@void?5?$AA@ 00000001801027ac     libvcruntimed:undname.obj
 0002:000057b8       ??_C@_08PABEKFH@volatile?$AA@ 00000001801027b8     libvcruntimed:undname.obj
 0002:000057c8       ??_C@_0BA@LKIJLKPP@std?3?3nullptr_t?5?$AA@ 00000001801027c8     libvcruntimed:undname.obj
 0002:000057e0       ??_C@_0P@GCOCNKDM@std?3?3nullptr_t?$AA@ 00000001801027e0     libvcruntimed:undname.obj
 0002:000057f8       ??_C@_0L@EGPHHEKN@?$DMellipsis?$DO?$AA@ 00000001801027f8     libvcruntimed:undname.obj
 0002:00005808       ??_C@_04EENFHACM@?0?4?4?4?$AA@ 0000000180102808     libvcruntimed:undname.obj
 0002:00005810       ??_C@_0M@ELJOJFFH@?0?$DMellipsis?$DO?$AA@ 0000000180102810     libvcruntimed:undname.obj
 0002:00005820       ??_C@_07HDJPLPEK@?5throw?$CI?$AA@ 0000000180102820     libvcruntimed:undname.obj
 0002:0000582c       ??_C@_03PBJBJNON@cpu?$AA@  000000018010282c     libvcruntimed:undname.obj
 0002:00005830       ??_C@_03DCBBJBAA@amp?$AA@  0000000180102830     libvcruntimed:undname.obj
 0002:00005834       ??_C@_02KEGNLNML@?0?5?$AA@ 0000000180102834     libvcruntimed:undname.obj
 0002:00005838       ??_C@_04ENMBGAPA@char?$AA@ 0000000180102838     libvcruntimed:undname.obj
 0002:00005840       ??_C@_05BFKKPKCG@short?$AA@ 0000000180102840     libvcruntimed:undname.obj
 0002:00005848       ??_C@_03JBIPMCLC@int?$AA@  0000000180102848     libvcruntimed:undname.obj
 0002:0000584c       ??_C@_04GOKPGOLB@long?$AA@ 000000018010284c     libvcruntimed:undname.obj
 0002:00005854       ??_C@_05KNFBNCOH@float?$AA@ 0000000180102854     libvcruntimed:undname.obj
 0002:0000585c       ??_C@_06BNJCAIGJ@double?$AA@ 000000018010285c     libvcruntimed:undname.obj
 0002:00005864       ??_C@_04DDKJGDCM@bool?$AA@ 0000000180102864     libvcruntimed:undname.obj
 0002:0000586c       ??_C@_06EBGKOKIG@__int8?$AA@ 000000018010286c     libvcruntimed:undname.obj
 0002:00005878       ??_C@_07ICFHOGAF@__int16?$AA@ 0000000180102878     libvcruntimed:undname.obj
 0002:00005888       ??_C@_07OFLPPHGP@__int32?$AA@ 0000000180102888     libvcruntimed:undname.obj
 0002:00005898       ??_C@_07LFCOJCAC@__int64?$AA@ 0000000180102898     libvcruntimed:undname.obj
 0002:000058a8       ??_C@_08GAHOLHEO@__int128?$AA@ 00000001801028a8     libvcruntimed:undname.obj
 0002:000058b8       ??_C@_09EEKGDCPH@?$DMunknown?$DO?$AA@ 00000001801028b8     libvcruntimed:undname.obj
 0002:000058c8       ??_C@_08HBIPOFJB@char16_t?$AA@ 00000001801028c8     libvcruntimed:undname.obj
 0002:000058d8       ??_C@_08IECNCBKG@char32_t?$AA@ 00000001801028d8     libvcruntimed:undname.obj
 0002:000058e8       ??_C@_07CLGGIAMF@wchar_t?$AA@ 00000001801028e8     libvcruntimed:undname.obj
 0002:000058f4       ??_C@_06GCICPBLB@__w64?5?$AA@ 00000001801028f4     libvcruntimed:undname.obj
 0002:00005900       ??_C@_07NFANNNEC@UNKNOWN?$AA@ 0000000180102900     libvcruntimed:undname.obj
 0002:00005910       ??_C@_07EDHNAJHC@signed?5?$AA@ 0000000180102910     libvcruntimed:undname.obj
 0002:0000591c       ??_C@_05BNCCCJPP@const?$AA@ 000000018010291c     libvcruntimed:undname.obj
 0002:00005928       ??_C@_09EFNPDFFP@?5volatile?$AA@ 0000000180102928     libvcruntimed:undname.obj
 0002:00005938       ??_C@_0P@GCIFDJCJ@?$GAunknown?5ecsu?8?$AA@ 0000000180102938     libvcruntimed:undname.obj
 0002:0000594c       ??_C@_06MOJHIBMG@union?5?$AA@ 000000018010294c     libvcruntimed:undname.obj
 0002:00005958       ??_C@_07DIBCDNGL@struct?5?$AA@ 0000000180102958     libvcruntimed:undname.obj
 0002:00005964       ??_C@_06LJBABKPM@class?5?$AA@ 0000000180102964     libvcruntimed:undname.obj
 0002:00005970       ??_C@_08KOFANOFK@coclass?5?$AA@ 0000000180102970     libvcruntimed:undname.obj
 0002:00005980       ??_C@_0N@DLIEFKNA@cointerface?5?$AA@ 0000000180102980     libvcruntimed:undname.obj
 0002:00005990       ??_C@_05LJGMCFOG@enum?5?$AA@ 0000000180102990     libvcruntimed:undname.obj
 0002:00005998       ??_C@_09GAIEOBLP@volatile?5?$AA@ 0000000180102998     libvcruntimed:undname.obj
 0002:000059a4       ??_C@_06LIJLOJAG@const?5?$AA@ 00000001801029a4     libvcruntimed:undname.obj
 0002:000059ac       ??_C@_02KJPKDIBN@?$CG?5?$AA@ 00000001801029ac     libvcruntimed:undname.obj
 0002:000059b0       ??_C@_03PCKGMOPB@?$CG?$CG?5?$AA@ 00000001801029b0     libvcruntimed:undname.obj
 0002:000059b8       ??_C@_0M@EALIELKG@cli?3?3array?$DM?$AA@ 00000001801029b8     libvcruntimed:undname.obj
 0002:000059c8       ??_C@_0O@GKABPPIF@cli?3?3pin_ptr?$DM?$AA@ 00000001801029c8     libvcruntimed:undname.obj
 0002:000059d8       ??_C@_02GOGNNPBN@?$CJ?$FL?$AA@ 00000001801029d8     libvcruntimed:undname.obj
 0002:000059dc       ??_C@_06EEGAIFAK@?$HLflat?$HN?$AA@ 00000001801029dc     libvcruntimed:undname.obj
 0002:000059e4       ??_C@_05JIBOFOHK@?$HLfor?5?$AA@ 00000001801029e4     libvcruntimed:undname.obj
 0002:000059ec       ??_C@_02MDINNEEG@s?5?$AA@  00000001801029ec     libvcruntimed:undname.obj
 0002:000059f8       ??_7DNameNode@@6B@         00000001801029f8     libvcruntimed:undname.obj
 0002:00005a20       ??_7charNode@@6B@          0000000180102a20     libvcruntimed:undname.obj
 0002:00005a48       ??_7pcharNode@@6B@         0000000180102a48     libvcruntimed:undname.obj
 0002:00005a70       ??_7pDNameNode@@6B@        0000000180102a70     libvcruntimed:undname.obj
 0002:00005a98       ??_7DNameStatusNode@@6B@   0000000180102a98     libvcruntimed:undname.obj
 0002:00005ac0       ??_7pairNode@@6B@          0000000180102ac0     libvcruntimed:undname.obj
 0002:00005ae0       ??_C@_04OKOHEJBO@?5?$DP?$DP?5?$AA@ 0000000180102ae0     libvcruntimed:undname.obj
 0002:00005ae8       ??_C@_0DN@JAECLCAP@f?3?2dd?2vctools?2crt?2vcruntime?2src?2@ 0000000180102ae8     libvcruntimed:per_thread_data.obj
 0002:00005b60       ??_C@_1BC@DNHGCMLG@?$AAa?$AAd?$AAv?$AAa?$AAp?$AAi?$AA3?$AA2?$AA?$AA@ 0000000180102b60     libvcruntimed:winapi_downlevel.obj
 0002:00005b78       ??_C@_1DM@KHCHBNEB@?$AAa?$AAp?$AAi?$AA?9?$AAm?$AAs?$AA?9?$AAw?$AAi?$AAn?$AA?9?$AAc?$AAo?$AAr?$AAe?$AA?9?$AAf?$AAi?$AAb?$AAe?$AAr?$AAs?$AA?9?$AAl?$AA1?$AA?9?$AA1?$AA?9?$AA1?$AA?$AA@ 0000000180102b78     libvcruntimed:winapi_downlevel.obj
 0002:00005bc0       ??_C@_1DK@LPPGFMPP@?$AAa?$AAp?$AAi?$AA?9?$AAm?$AAs?$AA?9?$AAw?$AAi?$AAn?$AA?9?$AAc?$AAo?$AAr?$AAe?$AA?9?$AAs?$AAy?$AAn?$AAc?$AAh?$AA?9?$AAl?$AA1?$AA?9?$AA2?$AA?9?$AA0?$AA?$AA@ 0000000180102bc0     libvcruntimed:winapi_downlevel.obj
 0002:00005c08       ??_C@_1BC@GDMECMAK@?$AAk?$AAe?$AAr?$AAn?$AAe?$AAl?$AA3?$AA2?$AA?$AA@ 0000000180102c08     libvcruntimed:winapi_downlevel.obj
 0002:00005c20       ??_C@_17CNPHIMPH@?$AA?$CF?$AAl?$AAs?$AA?$AA@ 0000000180102c20     libvcruntimed:winapi_downlevel.obj
 0002:00005c30       ??_C@_1EM@LBIFGLGH@?$AAc?$AAa?$AAc?$AAh?$AAe?$AAd?$AA_?$AAh?$AAa?$AAn?$AAd?$AAl?$AAe?$AA?5?$AA?$DN?$AA?$DN?$AA?5?$AAI?$AAN?$AAV?$AAA?$AAL?$AAI?$AAD?$AA_?$AAH?$AAA?$AAN?$AAD?$AAL?$AAE?$AA_@ 0000000180102c30     libvcruntimed:winapi_downlevel.obj
 0002:00005c90       ??_C@_1HM@FGPKDEPG@?$AAf?$AA?3?$AA?2?$AAd?$AAd?$AA?2?$AAv?$AAc?$AAt?$AAo?$AAo?$AAl?$AAs?$AA?2?$AAc?$AAr?$AAt?$AA?2?$AAv?$AAc?$AAr?$AAu?$AAn?$AAt?$AAi?$AAm?$AAe?$AA?2?$AAs?$AAr?$AAc?$AA?2@ 0000000180102c90     libvcruntimed:winapi_downlevel.obj
 0002:00005d28       ??_C@_1DI@MAHEDLDB@?$AAc?$AAa?$AAc?$AAh?$AAe?$AAd?$AA_?$AAh?$AAa?$AAn?$AAd?$AAl?$AAe?$AA?5?$AA?$DN?$AA?$DN?$AA?5?$AAn?$AAe?$AAw?$AA_?$AAh?$AAa?$AAn?$AAd?$AAl?$AAe?$AA?$AA@ 0000000180102d28     libvcruntimed:winapi_downlevel.obj
 0002:00005d70       ??_C@_1FC@IBNCGNKL@?$AAc?$AAa?$AAc?$AAh?$AAe?$AAd?$AA_?$AAf?$AAp?$AA?5?$AA?$DN?$AA?$DN?$AA?5?$AAi?$AAn?$AAv?$AAa?$AAl?$AAi?$AAd?$AA_?$AAf?$AAu?$AAn?$AAc?$AAt?$AAi?$AAo?$AAn?$AA_?$AAs?$AAe@ 0000000180102d70     libvcruntimed:winapi_downlevel.obj
 0002:00005dd8       ??_C@_1CI@GDJBAGLP@?$AAc?$AAa?$AAc?$AAh?$AAe?$AAd?$AA_?$AAf?$AAp?$AA?5?$AA?$DN?$AA?$DN?$AA?5?$AAn?$AAe?$AAw?$AA_?$AAf?$AAp?$AA?$AA@ 0000000180102dd8     libvcruntimed:winapi_downlevel.obj
 0002:00005e10       ??_C@_0O@BAMBGLIE@EventRegister?$AA@ 0000000180102e10     libvcruntimed:winapi_downlevel.obj
 0002:00005e28       ??_C@_0BE@BJEEGHGK@EventSetInformation?$AA@ 0000000180102e28     libvcruntimed:winapi_downlevel.obj
 0002:00005e48       ??_C@_0BA@FAKLIPIC@EventUnregister?$AA@ 0000000180102e48     libvcruntimed:winapi_downlevel.obj
 0002:00005e60       ??_C@_0BD@PKLHJPHD@EventWriteTransfer?$AA@ 0000000180102e60     libvcruntimed:winapi_downlevel.obj
 0002:00005e88       ??_C@_08KNHFBNJ@FlsAlloc?$AA@ 0000000180102e88     libvcruntimed:winapi_downlevel.obj
 0002:00005ea8       ??_C@_07PEJMOBNF@FlsFree?$AA@ 0000000180102ea8     libvcruntimed:winapi_downlevel.obj
 0002:00005ec8       ??_C@_0M@GDNOONDI@FlsGetValue?$AA@ 0000000180102ec8     libvcruntimed:winapi_downlevel.obj
 0002:00005ee8       ??_C@_0M@JCPCPOEF@FlsSetValue?$AA@ 0000000180102ee8     libvcruntimed:winapi_downlevel.obj
 0002:00005f08       ??_C@_0BM@HCFOFFN@InitializeCriticalSectionEx?$AA@ 0000000180102f08     libvcruntimed:winapi_downlevel.obj
 0002:00005f2c       ??_C@_05KGFAIMPG@sqrtf?$AA@ 0000000180102f2c     libucrtd:sqrtf.obj
 0002:00005f34       ??_C@_06HBLGGACK@_scalb?$AA@ 0000000180102f34     libucrtd:ieeemisc.obj
 0002:00005f40       ??_C@_07OIGNLDJH@_scalbf?$AA@ 0000000180102f40     libucrtd:ieeemisc.obj
 0002:00005f70       ??_C@_1BA@GLMCNLEM@?$AAW?$AAa?$AAr?$AAn?$AAi?$AAn?$AAg?$AA?$AA@ 0000000180102f70     libucrtd:dbgrpt.obj
 0002:00005f88       ??_C@_1M@ILHOPKA@?$AAE?$AAr?$AAr?$AAo?$AAr?$AA?$AA@ 0000000180102f88     libucrtd:dbgrpt.obj
 0002:00005f98       ??_C@_1CC@CGHMNGDG@?$AAA?$AAs?$AAs?$AAe?$AAr?$AAt?$AAi?$AAo?$AAn?$AA?5?$AAF?$AAa?$AAi?$AAl?$AAe?$AAd?$AA?$AA@ 0000000180102f98     libucrtd:dbgrpt.obj
 0002:00005fd0       ??_C@_1OG@PMPPFHAF@?$AA?6?$AA?6?$AAF?$AAo?$AAr?$AA?5?$AAi?$AAn?$AAf?$AAo?$AAr?$AAm?$AAa?$AAt?$AAi?$AAo?$AAn?$AA?5?$AAo?$AAn?$AA?5?$AAh?$AAo?$AAw?$AA?5?$AAy?$AAo?$AAu?$AAr?$AA?5?$AAp?$AAr@ 0000000180102fd0     libucrtd:dbgrpt.obj
 0002:000060f0       ??_C@_1MG@LJLILFFD@?$AAD?$AAe?$AAb?$AAu?$AAg?$AA?5?$AA?$CF?$AAl?$AAs?$AA?$CB?$AA?6?$AA?6?$AAP?$AAr?$AAo?$AAg?$AAr?$AAa?$AAm?$AA?3?$AA?5?$AA?$CF?$AAh?$AAs?$AA?$CF?$AAl?$AAs?$AA?$CF?$AAl?$AAs?$AA?$CF?$AAh@ 00000001801030f0     libucrtd:dbgrpt.obj
 0002:000061e0       ??_C@_1MG@OODCADGL@?$AAD?$AAe?$AAb?$AAu?$AAg?$AA?5?$AA?$CF?$AAl?$AAs?$AA?$CB?$AA?6?$AA?6?$AAP?$AAr?$AAo?$AAg?$AAr?$AAa?$AAm?$AA?3?$AA?5?$AA?$CF?$AAl?$AAs?$AA?$CF?$AAl?$AAs?$AA?$CF?$AAl?$AAs?$AA?$CF?$AAl@ 00000001801031e0     libucrtd:dbgrpt.obj
 0002:000062d0       ??_C@_0BH@DNAGHKFM@?$DMprogram?5name?5unknown?$DO?$AA@ 00000001801032d0     libucrtd:dbgrpt.obj
 0002:000062f0       ??_C@_1CO@EAEJAADC@?$AA?$DM?$AAp?$AAr?$AAo?$AAg?$AAr?$AAa?$AAm?$AA?5?$AAn?$AAa?$AAm?$AAe?$AA?5?$AAu?$AAn?$AAk?$AAn?$AAo?$AAw?$AAn?$AA?$DO?$AA?$AA@ 00000001801032f0     libucrtd:dbgrpt.obj
 0002:00006330       ??_C@_1HI@OFEHGPPC@?$AAm?$AAo?$AAd?$AAe?$AA?5?$AA?$DN?$AA?$DN?$AA?5?$AA_?$AAC?$AAR?$AAT?$AA_?$AAR?$AAP?$AAT?$AAH?$AAO?$AAO?$AAK?$AA_?$AAI?$AAN?$AAS?$AAT?$AAA?$AAL?$AAL?$AA?5?$AA?$HM?$AA?$HM?$AA?5@ 0000000180103330     libucrtd:dbgrpt.obj
 0002:000063c0       ??_C@_1FO@GMJDLAJD@?$AAm?$AAi?$AAn?$AAk?$AAe?$AAr?$AAn?$AAe?$AAl?$AA?2?$AAc?$AAr?$AAt?$AAs?$AA?2?$AAu?$AAc?$AAr?$AAt?$AA?2?$AAs?$AAr?$AAc?$AA?2?$AAa?$AAp?$AAp?$AAc?$AAr?$AAt?$AA?2?$AAm@ 00000001801033c0     libucrtd:dbgrpt.obj
 0002:00006430       ??_C@_1CO@FFNKOJOG@?$AAc?$AAo?$AAm?$AAm?$AAo?$AAn?$AA_?$AAs?$AAe?$AAt?$AA_?$AAr?$AAe?$AAp?$AAo?$AAr?$AAt?$AA_?$AAh?$AAo?$AAo?$AAk?$AA?$AA@ 0000000180103430     libucrtd:dbgrpt.obj
 0002:00006468       ??_C@_1CI@ONEHFNHD@?$AAn?$AAe?$AAw?$AA_?$AAh?$AAo?$AAo?$AAk?$AA?5?$AA?$CB?$AA?$DN?$AA?5?$AAn?$AAu?$AAl?$AAl?$AAp?$AAt?$AAr?$AA?$AA@ 0000000180103468     libucrtd:dbgrpt.obj
 0002:00006498       ??_C@_1CM@EHMOGBJJ@?$AAc?$AAo?$AAm?$AAm?$AAo?$AAn?$AA_?$AAm?$AAe?$AAs?$AAs?$AAa?$AAg?$AAe?$AA_?$AAw?$AAi?$AAn?$AAd?$AAo?$AAw?$AA?$AA@ 0000000180103498     libucrtd:dbgrpt.obj
 0002:000064d0       ??_C@_1PE@ECNALGCA@?$AAt?$AAr?$AAa?$AAi?$AAt?$AAs?$AA?3?$AA?3?$AAt?$AAc?$AAs?$AAc?$AAp?$AAy?$AA_?$AAs?$AA?$CI?$AAp?$AAr?$AAo?$AAg?$AAr?$AAa?$AAm?$AA_?$AAn?$AAa?$AAm?$AAe?$AA?0?$AA?5?$AA?$CI@ 00000001801034d0     libucrtd:dbgrpt.obj
 0002:000065f8       ??_C@_11LOCGONAA@?$AA?$AA@ 00000001801035f8     libucrtd:dbgrpt.obj
 0002:00006600       ??_C@_1BK@PEDCIPMA@?$AAE?$AAx?$AAp?$AAr?$AAe?$AAs?$AAs?$AAi?$AAo?$AAn?$AA?3?$AA?5?$AA?$AA@ 0000000180103600     libucrtd:dbgrpt.obj
 0002:00006620       ??_C@_15IABLJNFO@?$AA?6?$AA?6?$AA?$AA@ 0000000180103620     libucrtd:dbgrpt.obj
 0002:00006628       ??_C@_1BA@GLLGCPCK@?$AA?6?$AAL?$AAi?$AAn?$AAe?$AA?3?$AA?5?$AA?$AA@ 0000000180103628     libucrtd:dbgrpt.obj
 0002:00006640       ??_C@_1BA@LNHECFIM@?$AA?6?$AAF?$AAi?$AAl?$AAe?$AA?3?$AA?5?$AA?$AA@ 0000000180103640     libucrtd:dbgrpt.obj
 0002:00006658       ??_C@_17LGKOMLJ@?$AA?4?$AA?4?$AA?4?$AA?$AA@ 0000000180103658     libucrtd:dbgrpt.obj
 0002:00006668       ??_C@_1BE@CGCJKGHI@?$AA?6?$AAM?$AAo?$AAd?$AAu?$AAl?$AAe?$AA?3?$AA?5?$AA?$AA@ 0000000180103668     libucrtd:dbgrpt.obj
 0002:00006680       ??_C@_1BI@KALLJECN@?$AA?$CI?$AA?$CK?$AA_?$AAe?$AAr?$AAr?$AAn?$AAo?$AA?$CI?$AA?$CJ?$AA?$CJ?$AA?$AA@ 0000000180103680     libucrtd:dbgrpt.obj
 0002:000066a0       ??_C@_1JM@IBOIJEOO@?$AAw?$AAc?$AAs?$AAc?$AAp?$AAy?$AA_?$AAs?$AA?$CI?$AAm?$AAe?$AAs?$AAs?$AAa?$AAg?$AAe?$AA_?$AAb?$AAu?$AAf?$AAf?$AAe?$AAr?$AA?0?$AA?5?$AA4?$AA0?$AA9?$AA6?$AA?0?$AA?5?$AAL@ 00000001801036a0     libucrtd:dbgrpt.obj
 0002:00006760       ??_C@_1FG@BBOLDHGF@?$AA_?$AAC?$AAr?$AAt?$AAD?$AAb?$AAg?$AAR?$AAe?$AAp?$AAo?$AAr?$AAt?$AA?3?$AA?5?$AAS?$AAt?$AAr?$AAi?$AAn?$AAg?$AA?5?$AAt?$AAo?$AAo?$AA?5?$AAl?$AAo?$AAn?$AAg?$AA?5?$AAo@ 0000000180103760     libucrtd:dbgrpt.obj
 0002:000067d0       ??_C@_1EK@MBDPDCGA@?$AAM?$AAi?$AAc?$AAr?$AAo?$AAs?$AAo?$AAf?$AAt?$AA?5?$AAV?$AAi?$AAs?$AAu?$AAa?$AAl?$AA?5?$AAC?$AA?$CL?$AA?$CL?$AA?5?$AAR?$AAu?$AAn?$AAt?$AAi?$AAm?$AAe?$AA?5?$AAL?$AAi?$AAb@ 00000001801037d0     libucrtd:dbgrpt.obj
 0002:00006830       ??_C@_1FK@BNNDOGMN@?$AA?$CI?$AA?$CC?$AAT?$AAh?$AAe?$AA?5?$AAh?$AAo?$AAo?$AAk?$AA?5?$AAf?$AAu?$AAn?$AAc?$AAt?$AAi?$AAo?$AAn?$AA?5?$AAi?$AAs?$AA?5?$AAn?$AAo?$AAt?$AA?5?$AAi?$AAn?$AA?5?$AAt?$AAh@ 0000000180103830     libucrtd:dbgrpt.obj
 0002:000068a0       ??_C@_0CP@HDJNPEFB@minkernel?2crts?2ucrt?2src?2appcrt?2m@ 00000001801038a0     libucrtd:dbgrpt.obj
 0002:00006908       ??_C@_04HJMOFLDF@Free?$AA@ 0000000180103908     libucrtd:debug_heap.obj
 0002:00006910       ??_C@_06EFAGIKOH@Normal?$AA@ 0000000180103910     libucrtd:debug_heap.obj
 0002:00006918       ??_C@_03OGPFLFLO@CRT?$AA@  0000000180103918     libucrtd:debug_heap.obj
 0002:0000691c       ??_C@_06KMEJCCGM@Ignore?$AA@ 000000018010391c     libucrtd:debug_heap.obj
 0002:00006924       ??_C@_06PJIGMIJB@Client?$AA@ 0000000180103924     libucrtd:debug_heap.obj
 0002:00006930       ??_C@_1CE@LJFEPPMP@?$AA_?$AAC?$AAr?$AAt?$AAC?$AAh?$AAe?$AAc?$AAk?$AAM?$AAe?$AAm?$AAo?$AAr?$AAy?$AA?$CI?$AA?$CJ?$AA?$AA@ 0000000180103930     libucrtd:debug_heap.obj
 0002:00006960       ??_C@_1GG@OCLHPJPK@?$AAm?$AAi?$AAn?$AAk?$AAe?$AAr?$AAn?$AAe?$AAl?$AA?2?$AAc?$AAr?$AAt?$AAs?$AA?2?$AAu?$AAc?$AAr?$AAt?$AA?2?$AAs?$AAr?$AAc?$AA?2?$AAa?$AAp?$AAp?$AAc?$AAr?$AAt?$AA?2?$AAh@ 0000000180103960     libucrtd:debug_heap.obj
 0002:000069e0       ??_C@_0DF@BBEGIFEK@Client?5hook?5allocation?5failure?5a@ 00000001801039e0     libucrtd:debug_heap.obj
 0002:00006a20       ??_C@_0CB@CCLOLAHO@Client?5hook?5allocation?5failure?4?6@ 0000000180103a20     libucrtd:debug_heap.obj
 0002:00006a48       ??_C@_02DKCKIIND@?$CFs?$AA@ 0000000180103a48     libucrtd:debug_heap.obj
 0002:00006a50       ??_C@_0DC@JEMAGEKG@Error?3?5memory?5allocation?3?5bad?5me@ 0000000180103a50     libucrtd:debug_heap.obj
 0002:00006a90       ??_C@_0DI@KKJPDPGM@Client?5hook?5re?9allocation?5failur@ 0000000180103a90     libucrtd:debug_heap.obj
 0002:00006ad8       ??_C@_0CE@DOFMDOL@Client?5hook?5re?9allocation?5failur@ 0000000180103ad8     libucrtd:debug_heap.obj
 0002:00006b10       ??_C@_0FA@EFEIGJKG@Error?3?5memory?5allocation?3?5bad?5me@ 0000000180103b10     libucrtd:debug_heap.obj
 0002:00006b70       ??_C@_0EM@LGFLMAGJ@The?5Block?5at?50x?$CFp?5was?5allocated?5@ 0000000180103b70     libucrtd:debug_heap.obj
 0002:00006bd0       ??_C@_1DM@DEDLGNML@?$AA_?$AAC?$AAr?$AAt?$AAI?$AAs?$AAV?$AAa?$AAl?$AAi?$AAd?$AAH?$AAe?$AAa?$AAp?$AAP?$AAo?$AAi?$AAn?$AAt?$AAe?$AAr?$AA?$CI?$AAb?$AAl?$AAo?$AAc?$AAk?$AA?$CJ?$AA?$AA@ 0000000180103bd0     libucrtd:debug_heap.obj
 0002:00006c20       ??_C@_1PC@MCGKJLN@?$AAo?$AAl?$AAd?$AA_?$AAh?$AAe?$AAa?$AAd?$AA?9?$AA?$DO?$AA_?$AAl?$AAi?$AAn?$AAe?$AA_?$AAn?$AAu?$AAm?$AAb?$AAe?$AAr?$AA?5?$AA?$DN?$AA?$DN?$AA?5?$AAl?$AAi?$AAn?$AAe?$AA_?$AAn@ 0000000180103c20     libucrtd:debug_heap.obj
 0002:00006d48       ??_C@_0DA@HFBKENN@Error?3?5possible?5heap?5corruption?5@ 0000000180103d48     libucrtd:debug_heap.obj
 0002:00006d90       ??_C@_1JM@MCMEPJEP@?$AAr?$AAe?$AAa?$AAl?$AAl?$AAo?$AAc?$AAa?$AAt?$AAi?$AAo?$AAn?$AA_?$AAi?$AAs?$AA_?$AAa?$AAl?$AAl?$AAo?$AAw?$AAe?$AAd?$AA?5?$AA?$HM?$AA?$HM?$AA?5?$AA?$CI?$AA?$CB?$AAr?$AAe?$AAa@ 0000000180103d90     libucrtd:debug_heap.obj
 0002:00006e50       ??_C@_1DM@LNOPKAIJ@?$AA_?$AA_?$AAa?$AAc?$AAr?$AAt?$AA_?$AAl?$AAa?$AAs?$AAt?$AA_?$AAb?$AAl?$AAo?$AAc?$AAk?$AA?5?$AA?$DN?$AA?$DN?$AA?5?$AAo?$AAl?$AAd?$AA_?$AAh?$AAe?$AAa?$AAd?$AA?$AA@ 0000000180103e50     libucrtd:debug_heap.obj
 0002:00006e98       ??_C@_1DO@HABCJBHO@?$AA_?$AA_?$AAa?$AAc?$AAr?$AAt?$AA_?$AAf?$AAi?$AAr?$AAs?$AAt?$AA_?$AAb?$AAl?$AAo?$AAc?$AAk?$AA?5?$AA?$DN?$AA?$DN?$AA?5?$AAo?$AAl?$AAd?$AA_?$AAh?$AAe?$AAa?$AAd?$AA?$AA@ 0000000180103e98     libucrtd:debug_heap.obj
 0002:00006ee8       ??_C@_1CC@CKEAHJPH@?$AAb?$AAl?$AAo?$AAc?$AAk?$AA?5?$AA?$CB?$AA?$DN?$AA?5?$AAn?$AAu?$AAl?$AAl?$AAp?$AAt?$AAr?$AA?$AA@ 0000000180103ee8     libucrtd:debug_heap.obj
 0002:00006f10       ??_C@_1BI@HAPNGHDP@?$AA_?$AAe?$AAx?$AAp?$AAa?$AAn?$AAd?$AA_?$AAd?$AAb?$AAg?$AA?$AA@ 0000000180103f10     libucrtd:debug_heap.obj
 0002:00006f30       ??_C@_0EJ@HEIBCIMJ@The?5Block?5at?50x?$CFp?5was?5allocated?5@ 0000000180103f30     libucrtd:debug_heap.obj
 0002:00006f88       ??_C@_0BL@KEIPLFAC@Client?5hook?5free?5failure?4?6?$AA@ 0000000180103f88     libucrtd:debug_heap.obj
 0002:00006fb0       ??_C@_1FA@KDNEBILF@?$AAi?$AAs?$AA_?$AAb?$AAl?$AAo?$AAc?$AAk?$AA_?$AAt?$AAy?$AAp?$AAe?$AA_?$AAv?$AAa?$AAl?$AAi?$AAd?$AA?$CI?$AAh?$AAe?$AAa?$AAd?$AAe?$AAr?$AA?9?$AA?$DO?$AA_?$AAb?$AAl?$AAo@ 0000000180103fb0     libucrtd:debug_heap.obj
 0002:00007010       ??_C@_0KI@JGFOHMEB@HEAP?5CORRUPTION?5DETECTED?3?5before@ 0000000180104010     libucrtd:debug_heap.obj
 0002:000070e0       ??_C@_0IK@PJCGLBOB@HEAP?5CORRUPTION?5DETECTED?3?5before@ 00000001801040e0     libucrtd:debug_heap.obj
 0002:00007190       ??_C@_0KE@MBMNHHHN@HEAP?5CORRUPTION?5DETECTED?3?5after?5@ 0000000180104190     libucrtd:debug_heap.obj
 0002:00007260       ??_C@_0IG@LEMBDCJK@HEAP?5CORRUPTION?5DETECTED?3?5after?5@ 0000000180104260     libucrtd:debug_heap.obj
 0002:00007300       ??_C@_1OK@GFEOEJAF@?$AAh?$AAe?$AAa?$AAd?$AAe?$AAr?$AA?9?$AA?$DO?$AA_?$AAl?$AAi?$AAn?$AAe?$AA_?$AAn?$AAu?$AAm?$AAb?$AAe?$AAr?$AA?5?$AA?$DN?$AA?$DN?$AA?5?$AAl?$AAi?$AAn?$AAe?$AA_?$AAn?$AAu?$AAm@ 0000000180104300     libucrtd:debug_heap.obj
 0002:00007420       ??_C@_1ME@GFALMLNA@?$AAh?$AAe?$AAa?$AAd?$AAe?$AAr?$AA?9?$AA?$DO?$AA_?$AAb?$AAl?$AAo?$AAc?$AAk?$AA_?$AAu?$AAs?$AAe?$AA?5?$AA?$DN?$AA?$DN?$AA?5?$AAb?$AAl?$AAo?$AAc?$AAk?$AA_?$AAu?$AAs?$AAe?$AA?5@ 0000000180104420     libucrtd:debug_heap.obj
 0002:00007510       ??_C@_1DI@ILNOPEPI@?$AA_?$AA_?$AAa?$AAc?$AAr?$AAt?$AA_?$AAl?$AAa?$AAs?$AAt?$AA_?$AAb?$AAl?$AAo?$AAc?$AAk?$AA?5?$AA?$DN?$AA?$DN?$AA?5?$AAh?$AAe?$AAa?$AAd?$AAe?$AAr?$AA?$AA@ 0000000180104510     libucrtd:debug_heap.obj
 0002:00007558       ??_C@_1DK@KEHFGDIJ@?$AA_?$AA_?$AAa?$AAc?$AAr?$AAt?$AA_?$AAf?$AAi?$AAr?$AAs?$AAt?$AA_?$AAb?$AAl?$AAo?$AAc?$AAk?$AA?5?$AA?$DN?$AA?$DN?$AA?5?$AAh?$AAe?$AAa?$AAd?$AAe?$AAr?$AA?$AA@ 0000000180104558     libucrtd:debug_heap.obj
 0002:000075a0       ??_C@_1BG@MBKOGDLD@?$AA_?$AAm?$AAs?$AAi?$AAz?$AAe?$AA_?$AAd?$AAb?$AAg?$AA?$AA@ 00000001801045a0     libucrtd:debug_heap.obj
 0002:000075c0       ??_C@_07OHKEFPKJ@DAMAGED?$AA@ 00000001801045c0     libucrtd:debug_heap.obj
 0002:000075d0       ??_C@_0KA@IHNJJKPL@HEAP?5CORRUPTION?5DETECTED?3?5on?5top@ 00000001801045d0     libucrtd:debug_heap.obj
 0002:00007690       ??_C@_0IC@BBJIOOJH@HEAP?5CORRUPTION?5DETECTED?3?5on?5top@ 0000000180104690     libucrtd:debug_heap.obj
 0002:00007730       ??_C@_0EG@DGJMPDBH@?$CFhs?5located?5at?50x?$CFp?5is?5?$CFIu?5bytes@ 0000000180104730     libucrtd:debug_heap.obj
 0002:00007788       ??_C@_0CI@JMLBEDHJ@?$CFhs?5located?5at?50x?$CFp?5is?5?$CFIu?5bytes@ 0000000180104788     libucrtd:debug_heap.obj
 0002:000077c0       ??_C@_0EG@GPFHANHO@Cycle?5in?5block?5list?5detected?5whi@ 00000001801047c0     libucrtd:debug_heap.obj
 0002:00007818       ??_C@_0BJ@ELMAOCAJ@Heap?5validation?5failed?4?6?$AA@ 0000000180104818     libucrtd:debug_heap.obj
 0002:00007840       ??_C@_1IE@BBIFDGEB@?$AAn?$AAe?$AAw?$AA_?$AAb?$AAi?$AAt?$AAs?$AA?5?$AA?$DN?$AA?$DN?$AA?5?$AA_?$AAC?$AAR?$AAT?$AAD?$AAB?$AAG?$AA_?$AAR?$AAE?$AAP?$AAO?$AAR?$AAT?$AA_?$AAF?$AAL?$AAA?$AAG?$AA?5@ 0000000180104840     libucrtd:debug_heap.obj
 0002:000078e0       ??_C@_1BO@GJFDNMNF@?$AA_?$AAC?$AAr?$AAt?$AAS?$AAe?$AAt?$AAD?$AAb?$AAg?$AAF?$AAl?$AAa?$AAg?$AA?$AA@ 00000001801048e0     libucrtd:debug_heap.obj
 0002:00007908       ??_C@_1CI@CEIBPAIA@?$AAc?$AAa?$AAl?$AAl?$AAb?$AAa?$AAc?$AAk?$AA?5?$AA?$CB?$AA?$DN?$AA?5?$AAn?$AAu?$AAl?$AAl?$AAp?$AAt?$AAr?$AA?$AA@ 0000000180104908     libucrtd:debug_heap.obj
 0002:00007938       ??_C@_1DE@GJCKCKEC@?$AA_?$AAC?$AAr?$AAt?$AAD?$AAo?$AAF?$AAo?$AAr?$AAA?$AAl?$AAl?$AAC?$AAl?$AAi?$AAe?$AAn?$AAt?$AAO?$AAb?$AAj?$AAe?$AAc?$AAt?$AAs?$AA?$AA@ 0000000180104938     libucrtd:debug_heap.obj
 0002:00007978       ??_C@_1CC@BBKMONGA@?$AAs?$AAt?$AAa?$AAt?$AAe?$AA?5?$AA?$CB?$AA?$DN?$AA?5?$AAn?$AAu?$AAl?$AAl?$AAp?$AAt?$AAr?$AA?$AA@ 0000000180104978     libucrtd:debug_heap.obj
 0002:000079a0       ??_C@_1CE@NJJKELF@?$AA_?$AAC?$AAr?$AAt?$AAM?$AAe?$AAm?$AAC?$AAh?$AAe?$AAc?$AAk?$AAp?$AAo?$AAi?$AAn?$AAt?$AA?$AA@ 00000001801049a0     libucrtd:debug_heap.obj
 0002:000079d0       ??_C@_0DP@LEFMFBOD@Bad?5memory?5block?5found?5at?50x?$CFp?4?6@ 00000001801049d0     libucrtd:debug_heap.obj
 0002:00007a20       ??_C@_0CB@EAAIGELO@Bad?5memory?5block?5found?5at?50x?$CFp?4?6@ 0000000180104a20     libucrtd:debug_heap.obj
 0002:00007a48       ??_C@_1CE@PDIENACM@?$AA_?$AAC?$AAr?$AAt?$AAM?$AAe?$AAm?$AAD?$AAi?$AAf?$AAf?$AAe?$AAr?$AAe?$AAn?$AAc?$AAe?$AA?$AA@ 0000000180104a48     libucrtd:debug_heap.obj
 0002:00007a78       ??_C@_1CK@FFKLBHMD@?$AAo?$AAl?$AAd?$AA_?$AAs?$AAt?$AAa?$AAt?$AAe?$AA?5?$AA?$CB?$AA?$DN?$AA?5?$AAn?$AAu?$AAl?$AAl?$AAp?$AAt?$AAr?$AA?$AA@ 0000000180104a78     libucrtd:debug_heap.obj
 0002:00007ab0       ??_C@_1CK@NJPPHDJP@?$AAn?$AAe?$AAw?$AA_?$AAs?$AAt?$AAa?$AAt?$AAe?$AA?5?$AA?$CB?$AA?$DN?$AA?5?$AAn?$AAu?$AAl?$AAl?$AAp?$AAt?$AAr?$AA?$AA@ 0000000180104ab0     libucrtd:debug_heap.obj
 0002:00007ae8       ??_C@_1CC@DIJAHFFJ@?$AAp?$AAr?$AAi?$AAn?$AAt?$AA_?$AAb?$AAl?$AAo?$AAc?$AAk?$AA_?$AAd?$AAa?$AAt?$AAa?$AA?$AA@ 0000000180104ae8     libucrtd:debug_heap.obj
 0002:00007b10       ??_C@_0BA@HJBKCELP@?5Data?3?5?$DM?$CFs?$DO?5?$CFs?6?$AA@ 0000000180104b10     libucrtd:debug_heap.obj
 0002:00007b28       ??_C@_0BE@KCIPKCIA@Dumping?5objects?5?9?$DO?6?$AA@ 0000000180104b28     libucrtd:debug_heap.obj
 0002:00007b40       ??_C@_0BE@OIEFNFL@?$CDFile?5Error?$CD?$CI?$CFd?$CJ?5?3?5?$AA@ 0000000180104b40     libucrtd:debug_heap.obj
 0002:00007b58       ??_C@_0L@JMEFFCCJ@?$CFhs?$CI?$CFd?$CJ?5?3?5?$AA@ 0000000180104b58     libucrtd:debug_heap.obj
 0002:00007b68       ??_C@_06PKLGBFGM@?$HL?$CFld?$HN?5?$AA@ 0000000180104b68     libucrtd:debug_heap.obj
 0002:00007b70       ??_C@_0DD@GHNAAKBB@client?5block?5at?50x?$CFp?0?5subtype?5?$CFx@ 0000000180104b70     libucrtd:debug_heap.obj
 0002:00007bb0       ??_C@_0CH@FAGDDGPN@normal?5block?5at?50x?$CFp?0?5?$CFIu?5bytes?5@ 0000000180104bb0     libucrtd:debug_heap.obj
 0002:00007be0       ??_C@_0DA@MDLBNIBM@crt?5block?5at?50x?$CFp?0?5subtype?5?$CFx?0?5?$CF@ 0000000180104be0     libucrtd:debug_heap.obj
 0002:00007c20       ??_C@_0BH@GFGKJDCO@Object?5dump?5complete?4?6?$AA@ 0000000180104c20     libucrtd:debug_heap.obj
 0002:00007c40       ??_C@_0BI@JBFPOEJA@Detected?5memory?5leaks?$CB?6?$AA@ 0000000180104c40     libucrtd:debug_heap.obj
 0002:00007c60       ??_C@_1CM@MPNIBKGK@?$AA_?$AAC?$AAr?$AAt?$AAM?$AAe?$AAm?$AAD?$AAu?$AAm?$AAp?$AAS?$AAt?$AAa?$AAt?$AAi?$AAs?$AAt?$AAi?$AAc?$AAs?$AA?$AA@ 0000000180104c60     libucrtd:debug_heap.obj
 0002:00007c98       ??_C@_0BO@DACNIABB@?$CFId?5bytes?5in?5?$CFId?5?$CFhs?5Blocks?4?6?$AA@ 0000000180104c98     libucrtd:debug_heap.obj
 0002:00007cc0       ??_C@_0CB@BLHDAFNE@Largest?5number?5used?3?5?$CFId?5bytes?4?6@ 0000000180104cc0     libucrtd:debug_heap.obj
 0002:00007ce8       ??_C@_0BP@DEDHGGGI@Total?5allocations?3?5?$CFId?5bytes?4?6?$AA@ 0000000180104ce8     libucrtd:debug_heap.obj
 0002:00007d10       ??_C@_1CM@JKMDHENJ@?$AAI?$AAS?$AA_?$AA2?$AA_?$AAP?$AAO?$AAW?$AA_?$AAN?$AA?$CI?$AAa?$AAl?$AAi?$AAg?$AAn?$AAm?$AAe?$AAn?$AAt?$AA?$CJ?$AA?$AA@ 0000000180104d10     libucrtd:debug_heap.obj
 0002:00007d48       ??_C@_1DG@DONCJBBJ@?$AA_?$AAa?$AAl?$AAi?$AAg?$AAn?$AAe?$AAd?$AA_?$AAo?$AAf?$AAf?$AAs?$AAe?$AAt?$AA_?$AAm?$AAa?$AAl?$AAl?$AAo?$AAc?$AA_?$AAd?$AAb?$AAg?$AA?$AA@ 0000000180104d48     libucrtd:debug_heap.obj
 0002:00007d88       ??_C@_1DK@LFLKFPDA@?$AAo?$AAf?$AAf?$AAs?$AAe?$AAt?$AA?5?$AA?$DN?$AA?$DN?$AA?5?$AA0?$AA?5?$AA?$HM?$AA?$HM?$AA?5?$AAo?$AAf?$AAf?$AAs?$AAe?$AAt?$AA?5?$AA?$DM?$AA?5?$AAs?$AAi?$AAz?$AAe?$AA?$AA@ 0000000180104d88     libucrtd:debug_heap.obj
 0002:00007dd0       ??_C@_0EI@NDNJMAJK@The?5block?5at?50x?$CFp?5was?5not?5alloca@ 0000000180104dd0     libucrtd:debug_heap.obj
 0002:00007e28       ??_C@_0DL@PGHMMKNE@Damage?5before?50x?$CFp?5which?5was?5all@ 0000000180104e28     libucrtd:debug_heap.obj
 0002:00007e70       ??_C@_1DI@NINIKFFK@?$AA_?$AAa?$AAl?$AAi?$AAg?$AAn?$AAe?$AAd?$AA_?$AAo?$AAf?$AAf?$AAs?$AAe?$AAt?$AA_?$AAr?$AAe?$AAa?$AAl?$AAl?$AAo?$AAc?$AA_?$AAd?$AAb?$AAg?$AA?$AA@ 0000000180104e70     libucrtd:debug_heap.obj
 0002:00007eb8       ??_C@_1CG@CEGMHIMN@?$AA_?$AAa?$AAl?$AAi?$AAg?$AAn?$AAe?$AAd?$AA_?$AAm?$AAs?$AAi?$AAz?$AAe?$AA_?$AAd?$AAb?$AAg?$AA?$AA@ 0000000180104eb8     libucrtd:debug_heap.obj
 0002:00007ef0       ??_C@_0EF@PGELACII@The?5block?5at?50x?$CFp?5was?5not?5alloca@ 0000000180104ef0     libucrtd:debug_heap.obj
 0002:00007f50       __acrt_exception_action_table 0000000180104f50     libucrtd:exception_filter.obj
 0002:00008038       __acrt_signal_action_table_count 0000000180105038     libucrtd:exception_filter.obj
 0002:00008048       __acrt_signal_action_table_size 0000000180105048     libucrtd:exception_filter.obj
 0002:00008058       __acrt_signal_action_first_fpe_index 0000000180105058     libucrtd:exception_filter.obj
 0002:00008068       __acrt_signal_action_fpe_count 0000000180105068     libucrtd:exception_filter.obj
 0002:00008078       RtlNtPathSeperatorString   0000000180105078     libucrtd:exit.obj
 0002:0000808c       ??_C@_13FPGAJAPJ@?$AA?2?$AA?$AA@ 000000018010508c     libucrtd:exit.obj
 0002:00008090       RtlDosPathSeperatorsString 0000000180105090     libucrtd:exit.obj
 0002:000080a4       ??_C@_15MNCACJLI@?$AA?2?$AA?1?$AA?$AA@ 00000001801050a4     libucrtd:exit.obj
 0002:000080b0       RtlAlternateDosPathSeperatorString 00000001801050b0     libucrtd:exit.obj
 0002:000080c4       ??_C@_13CGOKJPIL@?$AA?1?$AA?$AA@ 00000001801050c4     libucrtd:exit.obj
 0002:000080c8       ??_C@_1BI@BGOHAHKC@?$AAm?$AAs?$AAc?$AAo?$AAr?$AAe?$AAe?$AA?4?$AAd?$AAl?$AAl?$AA?$AA@ 00000001801050c8     libucrtd:exit.obj
 0002:000080e8       ??_C@_0P@MIGLKIOC@CorExitProcess?$AA@ 00000001801050e8     libucrtd:exit.obj
 0002:00008100       ??_C@_0DI@KNDIGDEP@minkernel?2crts?2ucrt?2src?2appcrt?2s@ 0000000180105100     libucrtd:argv_parsing.obj
 0002:00008150       ??_C@_1JO@PGBIJBAM@?$AAm?$AAo?$AAd?$AAe?$AA?5?$AA?$DN?$AA?$DN?$AA?5?$AA_?$AAc?$AAr?$AAt?$AA_?$AAa?$AAr?$AAg?$AAv?$AA_?$AAe?$AAx?$AAp?$AAa?$AAn?$AAd?$AAe?$AAd?$AA_?$AAa?$AAr?$AAg?$AAu?$AAm@ 0000000180105150     libucrtd:argv_parsing.obj
 0002:00008210       ??_C@_1HA@JMLCANEE@?$AAm?$AAi?$AAn?$AAk?$AAe?$AAr?$AAn?$AAe?$AAl?$AA?2?$AAc?$AAr?$AAt?$AAs?$AA?2?$AAu?$AAc?$AAr?$AAt?$AA?2?$AAs?$AAr?$AAc?$AA?2?$AAa?$AAp?$AAp?$AAc?$AAr?$AAt?$AA?2?$AAs@ 0000000180105210     libucrtd:argv_parsing.obj
 0002:00008298       ??_C@_1CM@LHOJELIC@?$AAc?$AAo?$AAm?$AAm?$AAo?$AAn?$AA_?$AAc?$AAo?$AAn?$AAf?$AAi?$AAg?$AAu?$AAr?$AAe?$AA_?$AAa?$AAr?$AAg?$AAv?$AA?$AA@ 0000000180105298     libucrtd:argv_parsing.obj
 0002:000082d0       ??_C@_0EG@LEHKHOEH@minkernel?2crts?2ucrt?2src?2desktopc@ 00000001801052d0     libucrtd:environment_initialization.obj
 0002:00008330       ??_C@_1IM@IMOFFPLG@?$AAm?$AAi?$AAn?$AAk?$AAe?$AAr?$AAn?$AAe?$AAl?$AA?2?$AAc?$AAr?$AAt?$AAs?$AA?2?$AAu?$AAc?$AAr?$AAt?$AA?2?$AAs?$AAr?$AAc?$AA?2?$AAd?$AAe?$AAs?$AAk?$AAt?$AAo?$AAp?$AAc@ 0000000180105330     libucrtd:environment_initialization.obj
 0002:000083d8       ??_C@_1CG@MNNNBNAK@?$AAc?$AAr?$AAe?$AAa?$AAt?$AAe?$AA_?$AAe?$AAn?$AAv?$AAi?$AAr?$AAo?$AAn?$AAm?$AAe?$AAn?$AAt?$AA?$AA@ 00000001801053d8     libucrtd:environment_initialization.obj
 0002:00008410       ??_C@_1HI@OOPIFFGA@?$AAt?$AAr?$AAa?$AAi?$AAt?$AAs?$AA?3?$AA?3?$AAt?$AAc?$AAs?$AAc?$AAp?$AAy?$AA_?$AAs?$AA?$CI?$AAv?$AAa?$AAr?$AAi?$AAa?$AAb?$AAl?$AAe?$AA?4?$AAg?$AAe?$AAt?$AA?$CI?$AA?$CJ?$AA?0@ 0000000180105410     libucrtd:environment_initialization.obj
 0002:000084a0       ??_C@_0DC@NBHMIIKL@minkernel?2crts?2ucrt?2src?2appcrt?2s@ 00000001801054a0     libucrtd:onexit.obj
 0002:00008600       standard_lookup_table      0000000180105600     libucrtd:output.obj
 0002:00008670       format_validation_lookup_table 0000000180105670     libucrtd:output.obj
 0002:000086e0       ??_C@_1BDG@MKBKGHOH@?$AA?$CI?$AA?5?$AA?$CI?$AA_?$AAS?$AAt?$AAr?$AAe?$AAa?$AAm?$AA?4?$AAi?$AAs?$AA_?$AAs?$AAt?$AAr?$AAi?$AAn?$AAg?$AA_?$AAb?$AAa?$AAc?$AAk?$AAe?$AAd?$AA?$CI?$AA?$CJ?$AA?$CJ?$AA?5?$AA?$HM@ 00000001801056e0     libucrtd:output.obj
 0002:00008860       ??_C@_1GC@LCDLABEA@?$AAm?$AAi?$AAn?$AAk?$AAe?$AAr?$AAn?$AAe?$AAl?$AA?2?$AAc?$AAr?$AAt?$AAs?$AA?2?$AAu?$AAc?$AAr?$AAt?$AA?2?$AAi?$AAn?$AAc?$AA?2?$AAc?$AAo?$AAr?$AAe?$AAc?$AAr?$AAt?$AA_@ 0000000180105860     libucrtd:output.obj
 0002:000088e0       ??_C@_1II@DIIMCJOK@?$AA_?$AA_?$AAa?$AAc?$AAr?$AAt?$AA_?$AAs?$AAt?$AAd?$AAi?$AAo?$AA_?$AAc?$AAh?$AAa?$AAr?$AA_?$AAt?$AAr?$AAa?$AAi?$AAt?$AAs?$AA?$DM?$AAc?$AAh?$AAa?$AAr?$AA?$DO?$AA?3?$AA?3@ 00000001801058e0     libucrtd:output.obj
 0002:00008988       ??_C@_1CE@JLIJLEKO@?$AAs?$AAt?$AAr?$AAe?$AAa?$AAm?$AA?5?$AA?$CB?$AA?$DN?$AA?5?$AAn?$AAu?$AAl?$AAl?$AAp?$AAt?$AAr?$AA?$AA@ 0000000180105988     libucrtd:output.obj
 0002:000089c0       ??_C@_1GA@MOBAPGIO@?$AAm?$AAi?$AAn?$AAk?$AAe?$AAr?$AAn?$AAe?$AAl?$AA?2?$AAc?$AAr?$AAt?$AAs?$AA?2?$AAu?$AAc?$AAr?$AAt?$AA?2?$AAs?$AAr?$AAc?$AA?2?$AAa?$AAp?$AAp?$AAc?$AAr?$AAt?$AA?2?$AAs@ 00000001801059c0     libucrtd:output.obj
 0002:00008a38       ??_C@_1CA@GELIJBMC@?$AAc?$AAo?$AAm?$AAm?$AAo?$AAn?$AA_?$AAv?$AAf?$AAp?$AAr?$AAi?$AAn?$AAt?$AAf?$AA?$AA@ 0000000180105a38     libucrtd:output.obj
 0002:00008a60       ??_C@_1CE@EAKLPBKK@?$AAf?$AAo?$AAr?$AAm?$AAa?$AAt?$AA?5?$AA?$CB?$AA?$DN?$AA?5?$AAn?$AAu?$AAl?$AAl?$AAp?$AAt?$AAr?$AA?$AA@ 0000000180105a60     libucrtd:output.obj
 0002:00008a90       ??_C@_1CA@PIMGHCEK@?$AAc?$AAo?$AAm?$AAm?$AAo?$AAn?$AA_?$AAv?$AAs?$AAp?$AAr?$AAi?$AAn?$AAt?$AAf?$AA?$AA@ 0000000180105a90     libucrtd:output.obj
 0002:00008ac0       ??_C@_1EO@EGEEFEFM@?$AAb?$AAu?$AAf?$AAf?$AAe?$AAr?$AA_?$AAc?$AAo?$AAu?$AAn?$AAt?$AA?5?$AA?$DN?$AA?$DN?$AA?5?$AA0?$AA?5?$AA?$HM?$AA?$HM?$AA?5?$AAb?$AAu?$AAf?$AAf?$AAe?$AAr?$AA?5?$AA?$CB?$AA?$DN?$AA?5?$AAn@ 0000000180105ac0     libucrtd:output.obj
 0002:00008b20       ??_C@_1CE@JEILLNB@?$AAc?$AAo?$AAm?$AAm?$AAo?$AAn?$AA_?$AAv?$AAs?$AAp?$AAr?$AAi?$AAn?$AAt?$AAf?$AA_?$AAs?$AA?$AA@ 0000000180105b20     libucrtd:output.obj
 0002:00008b50       ??_C@_1EM@OAFHAOLH@?$AAb?$AAu?$AAf?$AAf?$AAe?$AAr?$AA?5?$AA?$CB?$AA?$DN?$AA?5?$AAn?$AAu?$AAl?$AAl?$AAp?$AAt?$AAr?$AA?5?$AA?$CG?$AA?$CG?$AA?5?$AAb?$AAu?$AAf?$AAf?$AAe?$AAr?$AA_?$AAc?$AAo?$AAu?$AAn@ 0000000180105b50     libucrtd:output.obj
 0002:00008bb0       ??_C@_1DA@HPBFKMEB@?$AA?$CI?$AA?$CC?$AAB?$AAu?$AAf?$AAf?$AAe?$AAr?$AA?5?$AAt?$AAo?$AAo?$AA?5?$AAs?$AAm?$AAa?$AAl?$AAl?$AA?$CC?$AA?0?$AA?5?$AA0?$AA?$CJ?$AA?$AA@ 0000000180105bb0     libucrtd:output.obj
 0002:00008bf0       ??_C@_1CG@LHFJHFBB@?$AAc?$AAo?$AAm?$AAm?$AAo?$AAn?$AA_?$AAv?$AAs?$AAn?$AAp?$AAr?$AAi?$AAn?$AAt?$AAf?$AA_?$AAs?$AA?$AA@ 0000000180105bf0     libucrtd:output.obj
 0002:00008c20       ??_C@_1CM@JOIJBMEM@?$AA_?$AAf?$AAo?$AAr?$AAm?$AAa?$AAt?$AA_?$AAi?$AAt?$AA?5?$AA?$CB?$AA?$DN?$AA?5?$AAn?$AAu?$AAl?$AAl?$AAp?$AAt?$AAr?$AA?$AA@ 0000000180105c20     libucrtd:output.obj
 0002:00008c60       ??_C@_1HA@DMAAKIJP@?$AAm?$AAi?$AAn?$AAk?$AAe?$AAr?$AAn?$AAe?$AAl?$AA?2?$AAc?$AAr?$AAt?$AAs?$AA?2?$AAu?$AAc?$AAr?$AAt?$AA?2?$AAi?$AAn?$AAc?$AA?2?$AAc?$AAo?$AAr?$AAe?$AAc?$AAr?$AAt?$AA_@ 0000000180105c60     libucrtd:output.obj
 0002:00008cf0       ??_C@_1BKA@IIAAOGBO@?$AA_?$AA_?$AAc?$AAr?$AAt?$AA_?$AAs?$AAt?$AAd?$AAi?$AAo?$AA_?$AAo?$AAu?$AAt?$AAp?$AAu?$AAt?$AA?3?$AA?3?$AAo?$AAu?$AAt?$AAp?$AAu?$AAt?$AA_?$AAp?$AAr?$AAo?$AAc?$AAe@ 0000000180105cf0     libucrtd:output.obj
 0002:00008ef0       ??_C@_1EE@DMAIGNBG@?$AA?$CI?$AA?$CC?$AAI?$AAn?$AAc?$AAo?$AAr?$AAr?$AAe?$AAc?$AAt?$AA?5?$AAf?$AAo?$AAr?$AAm?$AAa?$AAt?$AA?5?$AAs?$AAp?$AAe?$AAc?$AAi?$AAf?$AAi?$AAe?$AAr?$AA?$CC?$AA?0?$AA?5?$AA0@ 0000000180105ef0     libucrtd:output.obj
 0002:00008f50       ??_C@_1BLI@EEAAPJD@?$AA_?$AA_?$AAc?$AAr?$AAt?$AA_?$AAs?$AAt?$AAd?$AAi?$AAo?$AA_?$AAo?$AAu?$AAt?$AAp?$AAu?$AAt?$AA?3?$AA?3?$AAo?$AAu?$AAt?$AAp?$AAu?$AAt?$AA_?$AAp?$AAr?$AAo?$AAc?$AAe@ 0000000180105f50     libucrtd:output.obj
 0002:00009160       ??_C@_1BLC@PMCLHHAE@?$AA_?$AA_?$AAc?$AAr?$AAt?$AA_?$AAs?$AAt?$AAd?$AAi?$AAo?$AA_?$AAo?$AAu?$AAt?$AAp?$AAu?$AAt?$AA?3?$AA?3?$AAo?$AAu?$AAt?$AAp?$AAu?$AAt?$AA_?$AAp?$AAr?$AAo?$AAc?$AAe@ 0000000180106160     libucrtd:output.obj
 0002:00009370       ??_C@_1BMK@CPBKHDIH@?$AA_?$AA_?$AAc?$AAr?$AAt?$AA_?$AAs?$AAt?$AAd?$AAi?$AAo?$AA_?$AAo?$AAu?$AAt?$AAp?$AAu?$AAt?$AA?3?$AA?3?$AAo?$AAu?$AAt?$AAp?$AAu?$AAt?$AA_?$AAp?$AAr?$AAo?$AAc?$AAe@ 0000000180106370     libucrtd:output.obj
 0002:000095a0       ??_C@_1BLI@FOCNEPKJ@?$AA_?$AA_?$AAc?$AAr?$AAt?$AA_?$AAs?$AAt?$AAd?$AAi?$AAo?$AA_?$AAo?$AAu?$AAt?$AAp?$AAu?$AAt?$AA?3?$AA?3?$AAo?$AAu?$AAt?$AAp?$AAu?$AAt?$AA_?$AAp?$AAr?$AAo?$AAc?$AAe@ 00000001801065a0     libucrtd:output.obj
 0002:000097b0       ??_C@_1BNA@HGLCOOBP@?$AA_?$AA_?$AAc?$AAr?$AAt?$AA_?$AAs?$AAt?$AAd?$AAi?$AAo?$AA_?$AAo?$AAu?$AAt?$AAp?$AAu?$AAt?$AA?3?$AA?3?$AAo?$AAu?$AAt?$AAp?$AAu?$AAt?$AA_?$AAp?$AAr?$AAo?$AAc?$AAe@ 00000001801067b0     libucrtd:output.obj
 0002:000099e0       ??_C@_1BKA@DNADAJMC@?$AA_?$AA_?$AAc?$AAr?$AAt?$AA_?$AAs?$AAt?$AAd?$AAi?$AAo?$AA_?$AAo?$AAu?$AAt?$AAp?$AAu?$AAt?$AA?3?$AA?3?$AAo?$AAu?$AAt?$AAp?$AAu?$AAt?$AA_?$AAp?$AAr?$AAo?$AAc?$AAe@ 00000001801069e0     libucrtd:output.obj
 0002:00009be0       ??_C@_1BLI@IKDKMDHI@?$AA_?$AA_?$AAc?$AAr?$AAt?$AA_?$AAs?$AAt?$AAd?$AAi?$AAo?$AA_?$AAo?$AAu?$AAt?$AAp?$AAu?$AAt?$AA?3?$AA?3?$AAo?$AAu?$AAt?$AAp?$AAu?$AAt?$AA_?$AAp?$AAr?$AAo?$AAc?$AAe@ 0000000180106be0     libucrtd:output.obj
 0002:00009df0       ??_C@_1BLI@EGFICANE@?$AA_?$AA_?$AAc?$AAr?$AAt?$AA_?$AAs?$AAt?$AAd?$AAi?$AAo?$AA_?$AAo?$AAu?$AAt?$AAp?$AAu?$AAt?$AA?3?$AA?3?$AAo?$AAu?$AAt?$AAp?$AAu?$AAt?$AA_?$AAp?$AAr?$AAo?$AAc?$AAe@ 0000000180106df0     libucrtd:output.obj
 0002:0000a000       ??_C@_1BNA@OIIAGHJI@?$AA_?$AA_?$AAc?$AAr?$AAt?$AA_?$AAs?$AAt?$AAd?$AAi?$AAo?$AA_?$AAo?$AAu?$AAt?$AAp?$AAu?$AAt?$AA?3?$AA?3?$AAo?$AAu?$AAt?$AAp?$AAu?$AAt?$AA_?$AAp?$AAr?$AAo?$AAc?$AAe@ 0000000180107000     libucrtd:output.obj
 0002:0000a230       ??_C@_1CA@ONEGMNAN@?$AA_?$AAs?$AAt?$AAr?$AAe?$AAa?$AAm?$AA?4?$AAv?$AAa?$AAl?$AAi?$AAd?$AA?$CI?$AA?$CJ?$AA?$AA@ 0000000180107230     libucrtd:output.obj
 0002:0000a260       ??_C@_1HE@FGKHNBNL@?$AA_?$AA_?$AAc?$AAr?$AAt?$AA_?$AAs?$AAt?$AAd?$AAi?$AAo?$AA_?$AAo?$AAu?$AAt?$AAp?$AAu?$AAt?$AA?3?$AA?3?$AAs?$AAt?$AAr?$AAe?$AAa?$AAm?$AA_?$AAo?$AAu?$AAt?$AAp?$AAu@ 0000000180107260     libucrtd:output.obj
 0002:0000a2f0       ??_C@_1DG@CEJKFDMO@?$AAs?$AAt?$AAa?$AAt?$AAe?$AA_?$AAc?$AAa?$AAs?$AAe?$AA_?$AAn?$AAo?$AAr?$AAm?$AAa?$AAl?$AA_?$AAc?$AAo?$AAm?$AAm?$AAo?$AAn?$AA?$CI?$AA?$CJ?$AA?$AA@ 00000001801072f0     libucrtd:output.obj
 0002:0000a330       ??_C@_1BLE@PAACOKDK@?$AA_?$AA_?$AAc?$AAr?$AAt?$AA_?$AAs?$AAt?$AAd?$AAi?$AAo?$AA_?$AAo?$AAu?$AAt?$AAp?$AAu?$AAt?$AA?3?$AA?3?$AAo?$AAu?$AAt?$AAp?$AAu?$AAt?$AA_?$AAp?$AAr?$AAo?$AAc?$AAe@ 0000000180107330     libucrtd:output.obj
 0002:0000a540       ??_C@_1FG@OBJBDPAC@?$AA?$CI?$AA?$CC?$AAN?$AA?5?$AAl?$AAe?$AAn?$AAg?$AAt?$AAh?$AA?5?$AAm?$AAo?$AAd?$AAi?$AAf?$AAi?$AAe?$AAr?$AA?5?$AAn?$AAo?$AAt?$AA?5?$AAs?$AAp?$AAe?$AAc?$AAi?$AAf?$AAi?$AAe@ 0000000180107540     libucrtd:output.obj
 0002:0000a5b0       ??_C@_1BLA@GJNGKGIK@?$AA_?$AA_?$AAc?$AAr?$AAt?$AA_?$AAs?$AAt?$AAd?$AAi?$AAo?$AA_?$AAo?$AAu?$AAt?$AAp?$AAu?$AAt?$AA?3?$AA?3?$AAo?$AAu?$AAt?$AAp?$AAu?$AAt?$AA_?$AAp?$AAr?$AAo?$AAc?$AAe@ 00000001801075b0     libucrtd:output.obj
 0002:0000a7c0       ??_C@_1EC@GJPNJDCN@?$AA_?$AAl?$AAe?$AAn?$AAg?$AAt?$AAh?$AA?5?$AA?$DN?$AA?$DN?$AA?5?$AAl?$AAe?$AAn?$AAg?$AAt?$AAh?$AA_?$AAm?$AAo?$AAd?$AAi?$AAf?$AAi?$AAe?$AAr?$AA?3?$AA?3?$AAn?$AAo?$AAn?$AAe@ 00000001801077c0     libucrtd:output.obj
 0002:0000a810       ??_C@_1HK@MPBCDOK@?$AA_?$AA_?$AAc?$AAr?$AAt?$AA_?$AAs?$AAt?$AAd?$AAi?$AAo?$AA_?$AAo?$AAu?$AAt?$AAp?$AAu?$AAt?$AA?3?$AA?3?$AAs?$AAt?$AAr?$AAe?$AAa?$AAm?$AA_?$AAo?$AAu?$AAt?$AAp?$AAu@ 0000000180107810     libucrtd:output.obj
 0002:0000a8b0       ??_C@_1BMM@JHGFKAND@?$AA_?$AA_?$AAc?$AAr?$AAt?$AA_?$AAs?$AAt?$AAd?$AAi?$AAo?$AA_?$AAo?$AAu?$AAt?$AAp?$AAu?$AAt?$AA?3?$AA?3?$AAo?$AAu?$AAt?$AAp?$AAu?$AAt?$AA_?$AAp?$AAr?$AAo?$AAc?$AAe@ 00000001801078b0     libucrtd:output.obj
 0002:0000aae0       ??_C@_1BMI@DNMDMAAN@?$AA_?$AA_?$AAc?$AAr?$AAt?$AA_?$AAs?$AAt?$AAd?$AAi?$AAo?$AA_?$AAo?$AAu?$AAt?$AAp?$AAu?$AAt?$AA?3?$AA?3?$AAo?$AAu?$AAt?$AAp?$AAu?$AAt?$AA_?$AAp?$AAr?$AAo?$AAc?$AAe@ 0000000180107ae0     libucrtd:output.obj
 0002:0000ad10       ??_C@_1BMG@KOENKAMB@?$AA_?$AA_?$AAc?$AAr?$AAt?$AA_?$AAs?$AAt?$AAd?$AAi?$AAo?$AA_?$AAo?$AAu?$AAt?$AAp?$AAu?$AAt?$AA?3?$AA?3?$AAo?$AAu?$AAt?$AAp?$AAu?$AAt?$AA_?$AAp?$AAr?$AAo?$AAc?$AAe@ 0000000180107d10     libucrtd:output.obj
 0002:0000af30       ??_C@_1BMC@DAENMDAD@?$AA_?$AA_?$AAc?$AAr?$AAt?$AA_?$AAs?$AAt?$AAd?$AAi?$AAo?$AA_?$AAo?$AAu?$AAt?$AAp?$AAu?$AAt?$AA?3?$AA?3?$AAo?$AAu?$AAt?$AAp?$AAu?$AAt?$AA_?$AAp?$AAr?$AAo?$AAc?$AAe@ 0000000180107f30     libucrtd:output.obj
 0002:0000b150       ??_C@_1GC@BNMHNGKM@?$AA_?$AAs?$AAt?$AAa?$AAt?$AAe?$AA?5?$AA?$DN?$AA?$DN?$AA?5?$AAs?$AAt?$AAa?$AAt?$AAe?$AA?3?$AA?3?$AAn?$AAo?$AAr?$AAm?$AAa?$AAl?$AA?5?$AA?$HM?$AA?$HM?$AA?5?$AA_?$AAs?$AAt?$AAa?$AAt@ 0000000180108150     libucrtd:output.obj
 0002:0000b1d0       ??_C@_1BDG@PLANJEFE@?$AA_?$AA_?$AAc?$AAr?$AAt?$AA_?$AAs?$AAt?$AAd?$AAi?$AAo?$AA_?$AAo?$AAu?$AAt?$AAp?$AAu?$AAt?$AA?3?$AA?3?$AAf?$AAo?$AAr?$AAm?$AAa?$AAt?$AA_?$AAv?$AAa?$AAl?$AAi?$AAd@ 00000001801081d0     libucrtd:output.obj
 0002:0000b350       ??_C@_1BNO@LMMLJOOJ@?$AA_?$AA_?$AAc?$AAr?$AAt?$AA_?$AAs?$AAt?$AAd?$AAi?$AAo?$AA_?$AAo?$AAu?$AAt?$AAp?$AAu?$AAt?$AA?3?$AA?3?$AAo?$AAu?$AAt?$AAp?$AAu?$AAt?$AA_?$AAp?$AAr?$AAo?$AAc?$AAe@ 0000000180108350     libucrtd:output.obj
 0002:0000b590       ??_C@_1BNK@ONPHCEAM@?$AA_?$AA_?$AAc?$AAr?$AAt?$AA_?$AAs?$AAt?$AAd?$AAi?$AAo?$AA_?$AAo?$AAu?$AAt?$AAp?$AAu?$AAt?$AA?3?$AA?3?$AAo?$AAu?$AAt?$AAp?$AAu?$AAt?$AA_?$AAp?$AAr?$AAo?$AAc?$AAe@ 0000000180108590     libucrtd:output.obj
 0002:0000b7d0       ??_C@_1BEC@FNIGNBHI@?$AA_?$AA_?$AAc?$AAr?$AAt?$AA_?$AAs?$AAt?$AAd?$AAi?$AAo?$AA_?$AAo?$AAu?$AAt?$AAp?$AAu?$AAt?$AA?3?$AA?3?$AAf?$AAo?$AAr?$AAm?$AAa?$AAt?$AA_?$AAv?$AAa?$AAl?$AAi?$AAd@ 00000001801087d0     libucrtd:output.obj
 0002:0000b960       ??_C@_1BMM@BLBJDDIA@?$AA_?$AA_?$AAc?$AAr?$AAt?$AA_?$AAs?$AAt?$AAd?$AAi?$AAo?$AA_?$AAo?$AAu?$AAt?$AAp?$AAu?$AAt?$AA?3?$AA?3?$AAo?$AAu?$AAt?$AAp?$AAu?$AAt?$AA_?$AAp?$AAr?$AAo?$AAc?$AAe@ 0000000180108960     libucrtd:output.obj
 0002:0000bb90       ??_C@_1BMI@PKGBOKJK@?$AA_?$AA_?$AAc?$AAr?$AAt?$AA_?$AAs?$AAt?$AAd?$AAi?$AAo?$AA_?$AAo?$AAu?$AAt?$AAp?$AAu?$AAt?$AA?3?$AA?3?$AAo?$AAu?$AAt?$AAp?$AAu?$AAt?$AA_?$AAp?$AAr?$AAo?$AAc?$AAe@ 0000000180108b90     libucrtd:output.obj
 0002:0000bdc0       ??_C@_1FK@BCPANIEK@?$AA?$CI?$AA?$CC?$AAM?$AAi?$AAs?$AAs?$AAi?$AAn?$AAg?$AA?5?$AAp?$AAo?$AAs?$AAi?$AAt?$AAi?$AAo?$AAn?$AA?5?$AAi?$AAn?$AA?5?$AAt?$AAh?$AAe?$AA?5?$AAf?$AAo?$AAr?$AAm?$AAa?$AAt@ 0000000180108dc0     libucrtd:output.obj
 0002:0000be30       ??_C@_1BDM@FDOLKCHK@?$AA_?$AA_?$AAc?$AAr?$AAt?$AA_?$AAs?$AAt?$AAd?$AAi?$AAo?$AA_?$AAo?$AAu?$AAt?$AAp?$AAu?$AAt?$AA?3?$AA?3?$AAp?$AAo?$AAs?$AAi?$AAt?$AAi?$AAo?$AAn?$AAa?$AAl?$AA_?$AAp@ 0000000180108e30     libucrtd:output.obj
 0002:0000bfb0       ??_C@_1IC@NLEOMCDL@?$AA_?$AAt?$AAy?$AAp?$AAe?$AA_?$AAi?$AAn?$AAd?$AAe?$AAx?$AA?5?$AA?$DO?$AA?$DN?$AA?5?$AA0?$AA?5?$AA?$CG?$AA?$CG?$AA?5?$AA?$CK?$AAe?$AAn?$AAd?$AA_?$AAp?$AAo?$AAi?$AAn?$AAt?$AAe?$AAr@ 0000000180108fb0     libucrtd:output.obj
 0002:0000c050       ??_C@_1BEO@JEHLMMKB@?$AA_?$AA_?$AAc?$AAr?$AAt?$AA_?$AAs?$AAt?$AAd?$AAi?$AAo?$AA_?$AAo?$AAu?$AAt?$AAp?$AAu?$AAt?$AA?3?$AA?3?$AAp?$AAo?$AAs?$AAi?$AAt?$AAi?$AAo?$AAn?$AAa?$AAl?$AA_?$AAp@ 0000000180109050     libucrtd:output.obj
 0002:0000c1e0       ??_C@_1BOE@NLICFINO@?$AA_?$AA_?$AAc?$AAr?$AAt?$AA_?$AAs?$AAt?$AAd?$AAi?$AAo?$AA_?$AAo?$AAu?$AAt?$AAp?$AAu?$AAt?$AA?3?$AA?3?$AAo?$AAu?$AAt?$AAp?$AAu?$AAt?$AA_?$AAp?$AAr?$AAo?$AAc?$AAe@ 00000001801091e0     libucrtd:output.obj
 0002:0000c430       ??_C@_1BOA@CBIEMBEE@?$AA_?$AA_?$AAc?$AAr?$AAt?$AA_?$AAs?$AAt?$AAd?$AAi?$AAo?$AA_?$AAo?$AAu?$AAt?$AAp?$AAu?$AAt?$AA?3?$AA?3?$AAo?$AAu?$AAt?$AAp?$AAu?$AAt?$AA_?$AAp?$AAr?$AAo?$AAc?$AAe@ 0000000180109430     libucrtd:output.obj
 0002:0000c670       ??_C@_1BEI@JNJAFAD@?$AA_?$AA_?$AAc?$AAr?$AAt?$AA_?$AAs?$AAt?$AAd?$AAi?$AAo?$AA_?$AAo?$AAu?$AAt?$AAp?$AAu?$AAt?$AA?3?$AA?3?$AAp?$AAo?$AAs?$AAi?$AAt?$AAi?$AAo?$AAn?$AAa?$AAl?$AA_?$AAp@ 0000000180109670     libucrtd:output.obj
 0002:0000c800       ??_C@_1BFK@IOIDDMPJ@?$AA_?$AA_?$AAc?$AAr?$AAt?$AA_?$AAs?$AAt?$AAd?$AAi?$AAo?$AA_?$AAo?$AAu?$AAt?$AAp?$AAu?$AAt?$AA?3?$AA?3?$AAp?$AAo?$AAs?$AAi?$AAt?$AAi?$AAo?$AAn?$AAa?$AAl?$AA_?$AAp@ 0000000180109800     libucrtd:output.obj
 0002:0000c9a0       ??_C@_1CI@DDKMNCPP@?$AA_?$AAc?$AAo?$AAn?$AAt?$AAe?$AAx?$AAt?$AA?5?$AA?$CB?$AA?$DN?$AA?5?$AAn?$AAu?$AAl?$AAl?$AAp?$AAt?$AAr?$AA?$AA@ 00000001801099a0     libucrtd:output.obj
 0002:0000c9d0       ??_C@_1HE@IACOMEJF@?$AA_?$AA_?$AAc?$AAr?$AAt?$AA_?$AAs?$AAt?$AAd?$AAi?$AAo?$AA_?$AAo?$AAu?$AAt?$AAp?$AAu?$AAt?$AA?3?$AA?3?$AAs?$AAt?$AAr?$AAi?$AAn?$AAg?$AA_?$AAo?$AAu?$AAt?$AAp?$AAu@ 00000001801099d0     libucrtd:output.obj
 0002:0000ca60       ??_C@_1BLE@LCKPBJON@?$AA_?$AA_?$AAc?$AAr?$AAt?$AA_?$AAs?$AAt?$AAd?$AAi?$AAo?$AA_?$AAo?$AAu?$AAt?$AAp?$AAu?$AAt?$AA?3?$AA?3?$AAo?$AAu?$AAt?$AAp?$AAu?$AAt?$AA_?$AAp?$AAr?$AAo?$AAc?$AAe@ 0000000180109a60     libucrtd:output.obj
 0002:0000cc70       ??_C@_1BLA@MEDMHIOH@?$AA_?$AA_?$AAc?$AAr?$AAt?$AA_?$AAs?$AAt?$AAd?$AAi?$AAo?$AA_?$AAo?$AAu?$AAt?$AAp?$AAu?$AAt?$AA?3?$AA?3?$AAo?$AAu?$AAt?$AAp?$AAu?$AAt?$AA_?$AAp?$AAr?$AAo?$AAc?$AAe@ 0000000180109c70     libucrtd:output.obj
 0002:0000ce80       ??_C@_1HK@IIPGOADH@?$AA_?$AA_?$AAc?$AAr?$AAt?$AA_?$AAs?$AAt?$AAd?$AAi?$AAo?$AA_?$AAo?$AAu?$AAt?$AAp?$AAu?$AAt?$AA?3?$AA?3?$AAs?$AAt?$AAr?$AAi?$AAn?$AAg?$AA_?$AAo?$AAu?$AAt?$AAp?$AAu@ 0000000180109e80     libucrtd:output.obj
 0002:0000cf20       ??_C@_1BMM@PGHHMNDM@?$AA_?$AA_?$AAc?$AAr?$AAt?$AA_?$AAs?$AAt?$AAd?$AAi?$AAo?$AA_?$AAo?$AAu?$AAt?$AAp?$AAu?$AAt?$AA?3?$AA?3?$AAo?$AAu?$AAt?$AAp?$AAu?$AAt?$AA_?$AAp?$AAr?$AAo?$AAc?$AAe@ 0000000180109f20     libucrtd:output.obj
 0002:0000d150       ??_C@_1BMI@KBPJOJJI@?$AA_?$AA_?$AAc?$AAr?$AAt?$AA_?$AAs?$AAt?$AAd?$AAi?$AAo?$AA_?$AAo?$AAu?$AAt?$AAp?$AAu?$AAt?$AA?3?$AA?3?$AAo?$AAu?$AAt?$AAp?$AAu?$AAt?$AA_?$AAp?$AAr?$AAo?$AAc?$AAe@ 000000018010a150     libucrtd:output.obj
 0002:0000d380       ??_C@_1BMM@JGEKEBKL@?$AA_?$AA_?$AAc?$AAr?$AAt?$AA_?$AAs?$AAt?$AAd?$AAi?$AAo?$AA_?$AAo?$AAu?$AAt?$AAp?$AAu?$AAt?$AA?3?$AA?3?$AAo?$AAu?$AAt?$AAp?$AAu?$AAt?$AA_?$AAp?$AAr?$AAo?$AAc?$AAe@ 000000018010a380     libucrtd:output.obj
 0002:0000d5b0       ??_C@_1BMI@LKDDDFDL@?$AA_?$AA_?$AAc?$AAr?$AAt?$AA_?$AAs?$AAt?$AAd?$AAi?$AAo?$AA_?$AAo?$AAu?$AAt?$AAp?$AAu?$AAt?$AA?3?$AA?3?$AAo?$AAu?$AAt?$AAp?$AAu?$AAt?$AA_?$AAp?$AAr?$AAo?$AAc?$AAe@ 000000018010a5b0     libucrtd:output.obj
 0002:0000d7e0       ??_C@_1BDM@GFCGMNL@?$AA_?$AA_?$AAc?$AAr?$AAt?$AA_?$AAs?$AAt?$AAd?$AAi?$AAo?$AA_?$AAo?$AAu?$AAt?$AAp?$AAu?$AAt?$AA?3?$AA?3?$AAp?$AAo?$AAs?$AAi?$AAt?$AAi?$AAo?$AAn?$AAa?$AAl?$AA_?$AAp@ 000000018010a7e0     libucrtd:output.obj
 0002:0000d960       ??_C@_1BEO@ODGKIOAL@?$AA_?$AA_?$AAc?$AAr?$AAt?$AA_?$AAs?$AAt?$AAd?$AAi?$AAo?$AA_?$AAo?$AAu?$AAt?$AAp?$AAu?$AAt?$AA?3?$AA?3?$AAp?$AAo?$AAs?$AAi?$AAt?$AAi?$AAo?$AAn?$AAa?$AAl?$AA_?$AAp@ 000000018010a960     libucrtd:output.obj
 0002:0000daf0       ??_C@_1BOE@IPKNNOEE@?$AA_?$AA_?$AAc?$AAr?$AAt?$AA_?$AAs?$AAt?$AAd?$AAi?$AAo?$AA_?$AAo?$AAu?$AAt?$AAp?$AAu?$AAt?$AA?3?$AA?3?$AAo?$AAu?$AAt?$AAp?$AAu?$AAt?$AA_?$AAp?$AAr?$AAo?$AAc?$AAe@ 000000018010aaf0     libucrtd:output.obj
 0002:0000dd40       ??_C@_1BOA@BMEGDMHF@?$AA_?$AA_?$AAc?$AAr?$AAt?$AA_?$AAs?$AAt?$AAd?$AAi?$AAo?$AA_?$AAo?$AAu?$AAt?$AAp?$AAu?$AAt?$AA?3?$AA?3?$AAo?$AAu?$AAt?$AAp?$AAu?$AAt?$AA_?$AAp?$AAr?$AAo?$AAc?$AAe@ 000000018010ad40     libucrtd:output.obj
 0002:0000df80       ??_C@_1BEI@IHLBHMLJ@?$AA_?$AA_?$AAc?$AAr?$AAt?$AA_?$AAs?$AAt?$AAd?$AAi?$AAo?$AA_?$AAo?$AAu?$AAt?$AAp?$AAu?$AAt?$AA?3?$AA?3?$AAp?$AAo?$AAs?$AAi?$AAt?$AAi?$AAo?$AAn?$AAa?$AAl?$AA_?$AAp@ 000000018010af80     libucrtd:output.obj
 0002:0000e110       ??_C@_1BFK@KNCMELHH@?$AA_?$AA_?$AAc?$AAr?$AAt?$AA_?$AAs?$AAt?$AAd?$AAi?$AAo?$AA_?$AAo?$AAu?$AAt?$AAp?$AAu?$AAt?$AA?3?$AA?3?$AAp?$AAo?$AAs?$AAi?$AAt?$AAi?$AAo?$AAn?$AAa?$AAl?$AA_?$AAp@ 000000018010b110     libucrtd:output.obj
 0002:0000e2b0       ??_C@_1EK@PNGFDECN@?$AA?$CI?$AA?$CC?$AA?8?$AAn?$AA?8?$AA?5?$AAf?$AAo?$AAr?$AAm?$AAa?$AAt?$AA?5?$AAs?$AAp?$AAe?$AAc?$AAi?$AAf?$AAi?$AAe?$AAr?$AA?5?$AAd?$AAi?$AAs?$AAa?$AAb?$AAl?$AAe?$AAd?$AA?$CC@ 000000018010b2b0     libucrtd:output.obj
 0002:0000e310       ??_C@_1BKI@NDKBCDGP@?$AA_?$AA_?$AAc?$AAr?$AAt?$AA_?$AAs?$AAt?$AAd?$AAi?$AAo?$AA_?$AAo?$AAu?$AAt?$AAp?$AAu?$AAt?$AA?3?$AA?3?$AAo?$AAu?$AAt?$AAp?$AAu?$AAt?$AA_?$AAp?$AAr?$AAo?$AAc?$AAe@ 000000018010b310     libucrtd:output.obj
 0002:0000e510       ??_C@_1EO@GHKFGFKL@?$AA?$CI?$AA?$CC?$AAI?$AAn?$AAv?$AAa?$AAl?$AAi?$AAd?$AA?5?$AAi?$AAn?$AAt?$AAe?$AAg?$AAe?$AAr?$AA?5?$AAl?$AAe?$AAn?$AAg?$AAt?$AAh?$AA?5?$AAm?$AAo?$AAd?$AAi?$AAf?$AAi?$AAe@ 000000018010b510     libucrtd:output.obj
 0002:0000e570       ??_C@_1BMA@PGOJAHFP@?$AA_?$AA_?$AAc?$AAr?$AAt?$AA_?$AAs?$AAt?$AAd?$AAi?$AAo?$AA_?$AAo?$AAu?$AAt?$AAp?$AAu?$AAt?$AA?3?$AA?3?$AAo?$AAu?$AAt?$AAp?$AAu?$AAt?$AA_?$AAp?$AAr?$AAo?$AAc?$AAe@ 000000018010b570     libucrtd:output.obj
 0002:0000e790       ??_C@_1BLK@BGFMMAPO@?$AA_?$AA_?$AAc?$AAr?$AAt?$AA_?$AAs?$AAt?$AAd?$AAi?$AAo?$AA_?$AAo?$AAu?$AAt?$AAp?$AAu?$AAt?$AA?3?$AA?3?$AAo?$AAu?$AAt?$AAp?$AAu?$AAt?$AA_?$AAp?$AAr?$AAo?$AAc?$AAe@ 000000018010b790     libucrtd:output.obj
 0002:0000e9b0       ??_C@_1BNC@DONELHFF@?$AA_?$AA_?$AAc?$AAr?$AAt?$AA_?$AAs?$AAt?$AAd?$AAi?$AAo?$AA_?$AAo?$AAu?$AAt?$AAp?$AAu?$AAt?$AA?3?$AA?3?$AAo?$AAu?$AAt?$AAp?$AAu?$AAt?$AA_?$AAp?$AAr?$AAo?$AAc?$AAe@ 000000018010b9b0     libucrtd:output.obj
 0002:0000ebe0       ??_C@_1BMA@GACGPGHN@?$AA_?$AA_?$AAc?$AAr?$AAt?$AA_?$AAs?$AAt?$AAd?$AAi?$AAo?$AA_?$AAo?$AAu?$AAt?$AAp?$AAu?$AAt?$AA?3?$AA?3?$AAo?$AAu?$AAt?$AAp?$AAu?$AAt?$AA_?$AAp?$AAr?$AAo?$AAc?$AAe@ 000000018010bbe0     libucrtd:output.obj
 0002:0000ee00       ??_C@_1IC@KGDNLBNC@?$AAw?$AAi?$AAd?$AAt?$AAh?$AA_?$AAi?$AAn?$AAd?$AAe?$AAx?$AA?5?$AA?$DO?$AA?$DN?$AA?5?$AA0?$AA?5?$AA?$CG?$AA?$CG?$AA?5?$AA?$CK?$AAe?$AAn?$AAd?$AA_?$AAp?$AAo?$AAi?$AAn?$AAt?$AAe?$AAr@ 000000018010be00     libucrtd:output.obj
 0002:0000eea0       ??_C@_1PO@LKIIANED@?$AA_?$AA_?$AAc?$AAr?$AAt?$AA_?$AAs?$AAt?$AAd?$AAi?$AAo?$AA_?$AAo?$AAu?$AAt?$AAp?$AAu?$AAt?$AA?3?$AA?3?$AAp?$AAo?$AAs?$AAi?$AAt?$AAi?$AAo?$AAn?$AAa?$AAl?$AA_?$AAp@ 000000018010bea0     libucrtd:output.obj
 0002:0000efd0       ??_C@_1JC@PMCLKCOC@?$AAp?$AAr?$AAe?$AAc?$AAi?$AAs?$AAi?$AAo?$AAn?$AA_?$AAi?$AAn?$AAd?$AAe?$AAx?$AA?5?$AA?$DO?$AA?$DN?$AA?5?$AA0?$AA?5?$AA?$CG?$AA?$CG?$AA?5?$AA?$CK?$AAe?$AAn?$AAd?$AA_?$AAp?$AAo?$AAi@ 000000018010bfd0     libucrtd:output.obj
 0002:0000f080       ??_C@_1PK@KBJECIEM@?$AA_?$AA_?$AAc?$AAr?$AAt?$AA_?$AAs?$AAt?$AAd?$AAi?$AAo?$AA_?$AAo?$AAu?$AAt?$AAp?$AAu?$AAt?$AA?3?$AA?3?$AAp?$AAo?$AAs?$AAi?$AAt?$AAi?$AAo?$AAn?$AAa?$AAl?$AA_?$AAp@ 000000018010c080     libucrtd:output.obj
 0002:0000f1b0       ??_C@_1BNI@IMOCDBNE@?$AA_?$AA_?$AAc?$AAr?$AAt?$AA_?$AAs?$AAt?$AAd?$AAi?$AAo?$AA_?$AAo?$AAu?$AAt?$AAp?$AAu?$AAt?$AA?3?$AA?3?$AAo?$AAu?$AAt?$AAp?$AAu?$AAt?$AA_?$AAp?$AAr?$AAo?$AAc?$AAe@ 000000018010c1b0     libucrtd:output.obj
 0002:0000f3f0       ??_C@_1BAK@DALINHHB@?$AA_?$AA_?$AAc?$AAr?$AAt?$AA_?$AAs?$AAt?$AAd?$AAi?$AAo?$AA_?$AAo?$AAu?$AAt?$AAp?$AAu?$AAt?$AA?3?$AA?3?$AAp?$AAo?$AAs?$AAi?$AAt?$AAi?$AAo?$AAn?$AAa?$AAl?$AA_?$AAp@ 000000018010c3f0     libucrtd:output.obj
 0002:0000f530       ??_C@_1BAG@DOFNHDMF@?$AA_?$AA_?$AAc?$AAr?$AAt?$AA_?$AAs?$AAt?$AAd?$AAi?$AAo?$AA_?$AAo?$AAu?$AAt?$AAp?$AAu?$AAt?$AA?3?$AA?3?$AAp?$AAo?$AAs?$AAi?$AAt?$AAi?$AAo?$AAn?$AAa?$AAl?$AA_?$AAp@ 000000018010c530     libucrtd:output.obj
 0002:0000f670       ??_C@_1BKI@CJEIGDAI@?$AA_?$AA_?$AAc?$AAr?$AAt?$AA_?$AAs?$AAt?$AAd?$AAi?$AAo?$AA_?$AAo?$AAu?$AAt?$AAp?$AAu?$AAt?$AA?3?$AA?3?$AAo?$AAu?$AAt?$AAp?$AAu?$AAt?$AA_?$AAp?$AAr?$AAo?$AAc?$AAe@ 000000018010c670     libucrtd:output.obj
 0002:0000f870       ??_C@_1BMA@IHIBOLMD@?$AA_?$AA_?$AAc?$AAr?$AAt?$AA_?$AAs?$AAt?$AAd?$AAi?$AAo?$AA_?$AAo?$AAu?$AAt?$AAp?$AAu?$AAt?$AA?3?$AA?3?$AAo?$AAu?$AAt?$AAp?$AAu?$AAt?$AA_?$AAp?$AAr?$AAo?$AAc?$AAe@ 000000018010c870     libucrtd:output.obj
 0002:0000fa90       ??_C@_1BMA@CBPCAOAB@?$AA_?$AA_?$AAc?$AAr?$AAt?$AA_?$AAs?$AAt?$AAd?$AAi?$AAo?$AA_?$AAo?$AAu?$AAt?$AAp?$AAu?$AAt?$AA?3?$AA?3?$AAo?$AAu?$AAt?$AAp?$AAu?$AAt?$AA_?$AAp?$AAr?$AAo?$AAc?$AAe@ 000000018010ca90     libucrtd:output.obj
 0002:0000fcb0       ??_C@_1PO@PODEJAGE@?$AA_?$AA_?$AAc?$AAr?$AAt?$AA_?$AAs?$AAt?$AAd?$AAi?$AAo?$AA_?$AAo?$AAu?$AAt?$AAp?$AAu?$AAt?$AA?3?$AA?3?$AAp?$AAo?$AAs?$AAi?$AAt?$AAi?$AAo?$AAn?$AAa?$AAl?$AA_?$AAp@ 000000018010ccb0     libucrtd:output.obj
 0002:0000fde0       ??_C@_1PK@KBJLALII@?$AA_?$AA_?$AAc?$AAr?$AAt?$AA_?$AAs?$AAt?$AAd?$AAi?$AAo?$AA_?$AAo?$AAu?$AAt?$AAp?$AAu?$AAt?$AA?3?$AA?3?$AAp?$AAo?$AAs?$AAi?$AAt?$AAi?$AAo?$AAn?$AAa?$AAl?$AA_?$AAp@ 000000018010cde0     libucrtd:output.obj
 0002:0000ff10       ??_C@_1BDG@KOLEFKPF@?$AA_?$AA_?$AAc?$AAr?$AAt?$AA_?$AAs?$AAt?$AAd?$AAi?$AAo?$AA_?$AAo?$AAu?$AAt?$AAp?$AAu?$AAt?$AA?3?$AA?3?$AAf?$AAo?$AAr?$AAm?$AAa?$AAt?$AA_?$AAv?$AAa?$AAl?$AAi?$AAd@ 000000018010cf10     libucrtd:output.obj
 0002:00010090       ??_C@_1BNI@OPBGCNOB@?$AA_?$AA_?$AAc?$AAr?$AAt?$AA_?$AAs?$AAt?$AAd?$AAi?$AAo?$AA_?$AAo?$AAu?$AAt?$AAp?$AAu?$AAt?$AA?3?$AA?3?$AAo?$AAu?$AAt?$AAp?$AAu?$AAt?$AA_?$AAp?$AAr?$AAo?$AAc?$AAe@ 000000018010d090     libucrtd:output.obj
 0002:000102d0       ??_C@_1BAK@CDLANFGA@?$AA_?$AA_?$AAc?$AAr?$AAt?$AA_?$AAs?$AAt?$AAd?$AAi?$AAo?$AA_?$AAo?$AAu?$AAt?$AAp?$AAu?$AAt?$AA?3?$AA?3?$AAp?$AAo?$AAs?$AAi?$AAt?$AAi?$AAo?$AAn?$AAa?$AAl?$AA_?$AAp@ 000000018010d2d0     libucrtd:output.obj
 0002:00010410       ??_C@_1BAG@GKCGGKOF@?$AA_?$AA_?$AAc?$AAr?$AAt?$AA_?$AAs?$AAt?$AAd?$AAi?$AAo?$AA_?$AAo?$AAu?$AAt?$AAp?$AAu?$AAt?$AA?3?$AA?3?$AAp?$AAo?$AAs?$AAi?$AAt?$AAi?$AAo?$AAn?$AAa?$AAl?$AA_?$AAp@ 000000018010d410     libucrtd:output.obj
 0002:00010550       ??_C@_1BEC@NDOOKIMC@?$AA_?$AA_?$AAc?$AAr?$AAt?$AA_?$AAs?$AAt?$AAd?$AAi?$AAo?$AA_?$AAo?$AAu?$AAt?$AAp?$AAu?$AAt?$AA?3?$AA?3?$AAf?$AAo?$AAr?$AAm?$AAa?$AAt?$AA_?$AAv?$AAa?$AAl?$AAi?$AAd@ 000000018010d550     libucrtd:output.obj
 0002:000106d8       ??_C@_1CK@LGDCECDH@?$AA_?$AAf?$AAo?$AAr?$AAm?$AAa?$AAt?$AA_?$AAc?$AAh?$AAa?$AAr?$AA?5?$AA?$CB?$AA?$DN?$AA?5?$AA?8?$AA?2?$AA0?$AA?8?$AA?$AA@ 000000018010d6d8     libucrtd:output.obj
 0002:00010710       ??_C@_1BMA@MEBEEDJE@?$AA_?$AA_?$AAc?$AAr?$AAt?$AA_?$AAs?$AAt?$AAd?$AAi?$AAo?$AA_?$AAo?$AAu?$AAt?$AAp?$AAu?$AAt?$AA?3?$AA?3?$AAo?$AAu?$AAt?$AAp?$AAu?$AAt?$AA_?$AAp?$AAr?$AAo?$AAc?$AAe@ 000000018010d710     libucrtd:output.obj
 0002:00010930       ??_C@_1BLE@MHLEAOID@?$AA_?$AA_?$AAc?$AAr?$AAt?$AA_?$AAs?$AAt?$AAd?$AAi?$AAo?$AA_?$AAo?$AAu?$AAt?$AAp?$AAu?$AAt?$AA?3?$AA?3?$AAo?$AAu?$AAt?$AAp?$AAu?$AAt?$AA_?$AAp?$AAr?$AAo?$AAc?$AAe@ 000000018010d930     libucrtd:output.obj
 0002:00010b3c       ??_C@_06OJHGLDPL@?$CInull?$CJ?$AA@ 000000018010db3c     libucrtd:output.obj
 0002:00010b48       ??_C@_1O@CEDCILHN@?$AA?$CI?$AAn?$AAu?$AAl?$AAl?$AA?$CJ?$AA?$AA@ 000000018010db48     libucrtd:output.obj
 0002:00010b60       ??_C@_1BMM@KANDEEGK@?$AA_?$AA_?$AAc?$AAr?$AAt?$AA_?$AAs?$AAt?$AAd?$AAi?$AAo?$AA_?$AAo?$AAu?$AAt?$AAp?$AAu?$AAt?$AA?3?$AA?3?$AAo?$AAu?$AAt?$AAp?$AAu?$AAt?$AA_?$AAp?$AAr?$AAo?$AAc?$AAe@ 000000018010db60     libucrtd:output.obj
 0002:00010d90       ??_C@_1BNC@BAMNIOCM@?$AA_?$AA_?$AAc?$AAr?$AAt?$AA_?$AAs?$AAt?$AAd?$AAi?$AAo?$AA_?$AAo?$AAu?$AAt?$AAp?$AAu?$AAt?$AA?3?$AA?3?$AAo?$AAu?$AAt?$AAp?$AAu?$AAt?$AA_?$AAp?$AAr?$AAo?$AAc?$AAe@ 000000018010dd90     libucrtd:output.obj
 0002:00010fc0       ??_C@_1BMG@JJPLEEHI@?$AA_?$AA_?$AAc?$AAr?$AAt?$AA_?$AAs?$AAt?$AAd?$AAi?$AAo?$AA_?$AAo?$AAu?$AAt?$AAp?$AAu?$AAt?$AA?3?$AA?3?$AAo?$AAu?$AAt?$AAp?$AAu?$AAt?$AA_?$AAp?$AAr?$AAo?$AAc?$AAe@ 000000018010dfc0     libucrtd:output.obj
 0002:000111e0       ??_C@_1BNO@ILHNHKFA@?$AA_?$AA_?$AAc?$AAr?$AAt?$AA_?$AAs?$AAt?$AAd?$AAi?$AAo?$AA_?$AAo?$AAu?$AAt?$AAp?$AAu?$AAt?$AA?3?$AA?3?$AAo?$AAu?$AAt?$AAp?$AAu?$AAt?$AA_?$AAp?$AAr?$AAo?$AAc?$AAe@ 000000018010e1e0     libucrtd:output.obj
 0002:00011420       ??_C@_1BNI@EJPCEBAG@?$AA_?$AA_?$AAc?$AAr?$AAt?$AA_?$AAs?$AAt?$AAd?$AAi?$AAo?$AA_?$AAo?$AAu?$AAt?$AAp?$AAu?$AAt?$AA?3?$AA?3?$AAo?$AAu?$AAt?$AAp?$AAu?$AAt?$AA_?$AAp?$AAr?$AAo?$AAc?$AAe@ 000000018010e420     libucrtd:output.obj
 0002:00011660       ??_C@_1BMM@CMKPNHDJ@?$AA_?$AA_?$AAc?$AAr?$AAt?$AA_?$AAs?$AAt?$AAd?$AAi?$AAo?$AA_?$AAo?$AAu?$AAt?$AAp?$AAu?$AAt?$AA?3?$AA?3?$AAo?$AAu?$AAt?$AAp?$AAu?$AAt?$AA_?$AAp?$AAr?$AAo?$AAc?$AAe@ 000000018010e660     libucrtd:output.obj
 0002:00011890       ??_C@_1FE@IAFJEKN@?$AA_?$AAt?$AAy?$AAp?$AAe?$AA_?$AAi?$AAn?$AAd?$AAe?$AAx?$AA?5?$AA?$DO?$AA?$DN?$AA?5?$AA0?$AA?5?$AA?$CG?$AA?$CG?$AA?5?$AA_?$AAt?$AAy?$AAp?$AAe?$AA_?$AAi?$AAn?$AAd?$AAe?$AAx?$AA?5@ 000000018010e890     libucrtd:output.obj
 0002:00011900       ??_C@_1BBG@JLLDGFML@?$AA_?$AA_?$AAc?$AAr?$AAt?$AA_?$AAs?$AAt?$AAd?$AAi?$AAo?$AA_?$AAo?$AAu?$AAt?$AAp?$AAu?$AAt?$AA?3?$AA?3?$AAp?$AAo?$AAs?$AAi?$AAt?$AAi?$AAo?$AAn?$AAa?$AAl?$AA_?$AAp@ 000000018010e900     libucrtd:output.obj
 0002:00011a50       ??_C@_1LO@HECDHMMI@?$AAi?$AAs?$AA_?$AAp?$AAo?$AAs?$AAi?$AAt?$AAi?$AAo?$AAn?$AAa?$AAl?$AA_?$AAp?$AAa?$AAr?$AAa?$AAm?$AAe?$AAt?$AAe?$AAr?$AA_?$AAr?$AAe?$AAa?$AAp?$AAp?$AAe?$AAa?$AAr@ 000000018010ea50     libucrtd:output.obj
 0002:00011b40       ??_C@_1BBM@LLHBCDAF@?$AA_?$AA_?$AAc?$AAr?$AAt?$AA_?$AAs?$AAt?$AAd?$AAi?$AAo?$AA_?$AAo?$AAu?$AAt?$AAp?$AAu?$AAt?$AA?3?$AA?3?$AAp?$AAo?$AAs?$AAi?$AAt?$AAi?$AAo?$AAn?$AAa?$AAl?$AA_?$AAp@ 000000018010eb40     libucrtd:output.obj
 0002:00011ca0       ??_C@_1BOE@OMDELMGH@?$AA_?$AA_?$AAc?$AAr?$AAt?$AA_?$AAs?$AAt?$AAd?$AAi?$AAo?$AA_?$AAo?$AAu?$AAt?$AAp?$AAu?$AAt?$AA?3?$AA?3?$AAo?$AAu?$AAt?$AAp?$AAu?$AAt?$AA_?$AAp?$AAr?$AAo?$AAc?$AAe@ 000000018010eca0     libucrtd:output.obj
 0002:00011ef0       ??_C@_1BCC@PDNLFIHK@?$AA_?$AA_?$AAc?$AAr?$AAt?$AA_?$AAs?$AAt?$AAd?$AAi?$AAo?$AA_?$AAo?$AAu?$AAt?$AAp?$AAu?$AAt?$AA?3?$AA?3?$AAp?$AAo?$AAs?$AAi?$AAt?$AAi?$AAo?$AAn?$AAa?$AAl?$AA_?$AAp@ 000000018010eef0     libucrtd:output.obj
 0002:00012050       ??_C@_1BCI@ILAANKJG@?$AA_?$AA_?$AAc?$AAr?$AAt?$AA_?$AAs?$AAt?$AAd?$AAi?$AAo?$AA_?$AAo?$AAu?$AAt?$AAp?$AAu?$AAt?$AA?3?$AA?3?$AAp?$AAo?$AAs?$AAi?$AAt?$AAi?$AAo?$AAn?$AAa?$AAl?$AA_?$AAp@ 000000018010f050     libucrtd:output.obj
 0002:000121c0       ??_C@_1BMA@FANDDEHK@?$AA_?$AA_?$AAc?$AAr?$AAt?$AA_?$AAs?$AAt?$AAd?$AAi?$AAo?$AA_?$AAo?$AAu?$AAt?$AAp?$AAu?$AAt?$AA?3?$AA?3?$AAo?$AAu?$AAt?$AAp?$AAu?$AAt?$AA_?$AAp?$AAr?$AAo?$AAc?$AAe@ 000000018010f1c0     libucrtd:output.obj
 0002:000123e0       ??_C@_1BLE@IFBJPNFE@?$AA_?$AA_?$AAc?$AAr?$AAt?$AA_?$AAs?$AAt?$AAd?$AAi?$AAo?$AA_?$AAo?$AAu?$AAt?$AAp?$AAu?$AAt?$AA?3?$AA?3?$AAo?$AAu?$AAt?$AAp?$AAu?$AAt?$AA_?$AAp?$AAr?$AAo?$AAc?$AAe@ 000000018010f3e0     libucrtd:output.obj
 0002:000125f0       ??_C@_1BMM@MBMBCJIF@?$AA_?$AA_?$AAc?$AAr?$AAt?$AA_?$AAs?$AAt?$AAd?$AAi?$AAo?$AA_?$AAo?$AAu?$AAt?$AAp?$AAu?$AAt?$AA?3?$AA?3?$AAo?$AAu?$AAt?$AAp?$AAu?$AAt?$AA_?$AAp?$AAr?$AAo?$AAc?$AAe@ 000000018010f5f0     libucrtd:output.obj
 0002:00012820       ??_C@_1BNI@EDCGAPJB@?$AA_?$AA_?$AAc?$AAr?$AAt?$AA_?$AAs?$AAt?$AAd?$AAi?$AAo?$AA_?$AAo?$AAu?$AAt?$AAp?$AAu?$AAt?$AA?3?$AA?3?$AAo?$AAu?$AAt?$AAp?$AAu?$AAt?$AA_?$AAp?$AAr?$AAo?$AAc?$AAe@ 000000018010f820     libucrtd:output.obj
 0002:00012a60       ??_C@_1BMM@KBPMKFBC@?$AA_?$AA_?$AAc?$AAr?$AAt?$AA_?$AAs?$AAt?$AAd?$AAi?$AAo?$AA_?$AAo?$AAu?$AAt?$AAp?$AAu?$AAt?$AA?3?$AA?3?$AAo?$AAu?$AAt?$AAp?$AAu?$AAt?$AA_?$AAp?$AAr?$AAo?$AAc?$AAe@ 000000018010fa60     libucrtd:output.obj
 0002:00012c90       ??_C@_1BBG@KIHCHFIM@?$AA_?$AA_?$AAc?$AAr?$AAt?$AA_?$AAs?$AAt?$AAd?$AAi?$AAo?$AA_?$AAo?$AAu?$AAt?$AAp?$AAu?$AAt?$AA?3?$AA?3?$AAp?$AAo?$AAs?$AAi?$AAt?$AAi?$AAo?$AAn?$AAa?$AAl?$AA_?$AAp@ 000000018010fc90     libucrtd:output.obj
 0002:00012de0       ??_C@_1BBM@CBBAFMPJ@?$AA_?$AA_?$AAc?$AAr?$AAt?$AA_?$AAs?$AAt?$AAd?$AAi?$AAo?$AA_?$AAo?$AAu?$AAt?$AAp?$AAu?$AAt?$AA?3?$AA?3?$AAp?$AAo?$AAs?$AAi?$AAt?$AAi?$AAo?$AAn?$AAa?$AAl?$AA_?$AAp@ 000000018010fde0     libucrtd:output.obj
 0002:00012f40       ??_C@_1BOE@LIBLDKPN@?$AA_?$AA_?$AAc?$AAr?$AAt?$AA_?$AAs?$AAt?$AAd?$AAi?$AAo?$AA_?$AAo?$AAu?$AAt?$AAp?$AAu?$AAt?$AA?3?$AA?3?$AAo?$AAu?$AAt?$AAp?$AAu?$AAt?$AA_?$AAp?$AAr?$AAo?$AAc?$AAe@ 000000018010ff40     libucrtd:output.obj
 0002:00013190       ??_C@_1BCC@GJLKCHIG@?$AA_?$AA_?$AAc?$AAr?$AAt?$AA_?$AAs?$AAt?$AAd?$AAi?$AAo?$AA_?$AAo?$AAu?$AAt?$AAp?$AAu?$AAt?$AA?3?$AA?3?$AAp?$AAo?$AAs?$AAi?$AAt?$AAi?$AAo?$AAn?$AAa?$AAl?$AA_?$AAp@ 0000000180110190     libucrtd:output.obj
 0002:000132f0       ??_C@_1BCI@OBMMNJKK@?$AA_?$AA_?$AAc?$AAr?$AAt?$AA_?$AAs?$AAt?$AAd?$AAi?$AAo?$AA_?$AAo?$AAu?$AAt?$AAp?$AAu?$AAt?$AA?3?$AA?3?$AAp?$AAo?$AAs?$AAi?$AAt?$AAi?$AAo?$AAn?$AAa?$AAl?$AA_?$AAp@ 00000001801102f0     libucrtd:output.obj
 0002:00013458       ??_C@_0DI@KIFBHMNO@minkernel?2crts?2ucrt?2inc?2corecrt_@ 0000000180110458     libucrtd:output.obj
 0002:000134a0       ??_C@_1BBE@FLKADCDA@?$AA_?$AA_?$AAc?$AAr?$AAt?$AA_?$AAs?$AAt?$AAd?$AAi?$AAo?$AA_?$AAo?$AAu?$AAt?$AAp?$AAu?$AAt?$AA?3?$AA?3?$AAp?$AAo?$AAs?$AAi?$AAt?$AAi?$AAo?$AAn?$AAa?$AAl?$AA_?$AAp@ 00000001801104a0     libucrtd:output.obj
 0002:000135f0       ??_C@_1BCA@FCGNBIN@?$AA_?$AA_?$AAc?$AAr?$AAt?$AA_?$AAs?$AAt?$AAd?$AAi?$AAo?$AA_?$AAo?$AAu?$AAt?$AAp?$AAu?$AAt?$AA?3?$AA?3?$AAp?$AAo?$AAs?$AAi?$AAt?$AAi?$AAo?$AAn?$AAa?$AAl?$AA_?$AAp@ 00000001801105f0     libucrtd:output.obj
 0002:00013750       ??_C@_1BBE@IBPNPIIM@?$AA_?$AA_?$AAc?$AAr?$AAt?$AA_?$AAs?$AAt?$AAd?$AAi?$AAo?$AA_?$AAo?$AAu?$AAt?$AAp?$AAu?$AAt?$AA?3?$AA?3?$AAp?$AAo?$AAs?$AAi?$AAt?$AAi?$AAo?$AAn?$AAa?$AAl?$AA_?$AAp@ 0000000180110750     libucrtd:output.obj
 0002:000138a0       ??_C@_1BCA@HCPCJFGA@?$AA_?$AA_?$AAc?$AAr?$AAt?$AA_?$AAs?$AAt?$AAd?$AAi?$AAo?$AA_?$AAo?$AAu?$AAt?$AAp?$AAu?$AAt?$AA?3?$AA?3?$AAp?$AAo?$AAs?$AAi?$AAt?$AAi?$AAo?$AAn?$AAa?$AAl?$AA_?$AAp@ 00000001801108a0     libucrtd:output.obj
 0002:00013a00       ??_C@_1BLC@INKIGOCN@?$AA_?$AA_?$AAc?$AAr?$AAt?$AA_?$AAs?$AAt?$AAd?$AAi?$AAo?$AA_?$AAo?$AAu?$AAt?$AAp?$AAu?$AAt?$AA?3?$AA?3?$AAo?$AAu?$AAt?$AAp?$AAu?$AAt?$AA_?$AAp?$AAr?$AAo?$AAc?$AAe@ 0000000180110a00     libucrtd:output.obj
 0002:00013c10       ??_C@_1BMK@JGIBNIA@?$AA_?$AA_?$AAc?$AAr?$AAt?$AA_?$AAs?$AAt?$AAd?$AAi?$AAo?$AA_?$AAo?$AAu?$AAt?$AAp?$AAu?$AAt?$AA?3?$AA?3?$AAo?$AAu?$AAt?$AAp?$AAu?$AAt?$AA_?$AAp?$AAr?$AAo?$AAc?$AAe@ 0000000180110c10     libucrtd:output.obj
 0002:00013e40       ??_C@_1BMG@CGPDIFDK@?$AA_?$AA_?$AAc?$AAr?$AAt?$AA_?$AAs?$AAt?$AAd?$AAi?$AAo?$AA_?$AAo?$AAu?$AAt?$AAp?$AAu?$AAt?$AA?3?$AA?3?$AAo?$AAu?$AAt?$AAp?$AAu?$AAt?$AA_?$AAp?$AAr?$AAo?$AAc?$AAe@ 0000000180110e40     libucrtd:output.obj
 0002:00014060       ??_C@_1BMC@FAGJFBLI@?$AA_?$AA_?$AAc?$AAr?$AAt?$AA_?$AAs?$AAt?$AAd?$AAi?$AAo?$AA_?$AAo?$AAu?$AAt?$AAp?$AAu?$AAt?$AA?3?$AA?3?$AAo?$AAu?$AAt?$AAp?$AAu?$AAt?$AA_?$AAp?$AAr?$AAo?$AAc?$AAe@ 0000000180111060     libucrtd:output.obj
 0002:00014280       ??_C@_1BNO@OHFFMOOJ@?$AA_?$AA_?$AAc?$AAr?$AAt?$AA_?$AAs?$AAt?$AAd?$AAi?$AAo?$AA_?$AAo?$AAu?$AAt?$AAp?$AAu?$AAt?$AA?3?$AA?3?$AAo?$AAu?$AAt?$AAp?$AAu?$AAt?$AA_?$AAp?$AAr?$AAo?$AAc?$AAe@ 0000000180111280     libucrtd:output.obj
 0002:000144c0       ??_C@_1BNK@KHNJGCCP@?$AA_?$AA_?$AAc?$AAr?$AAt?$AA_?$AAs?$AAt?$AAd?$AAi?$AAo?$AA_?$AAo?$AAu?$AAt?$AAp?$AAu?$AAt?$AA?3?$AA?3?$AAo?$AAu?$AAt?$AAp?$AAu?$AAt?$AA_?$AAp?$AAr?$AAo?$AAc?$AAe@ 00000001801114c0     libucrtd:output.obj
 0002:00014700       ??_C@_1BLK@FOLFMPJH@?$AA_?$AA_?$AAc?$AAr?$AAt?$AA_?$AAs?$AAt?$AAd?$AAi?$AAo?$AA_?$AAo?$AAu?$AAt?$AAp?$AAu?$AAt?$AA?3?$AA?3?$AAo?$AAu?$AAt?$AAp?$AAu?$AAt?$AA_?$AAp?$AAr?$AAo?$AAc?$AAe@ 0000000180111700     libucrtd:output.obj
 0002:00014920       ??_C@_1BNC@OHPDPPJK@?$AA_?$AA_?$AAc?$AAr?$AAt?$AA_?$AAs?$AAt?$AAd?$AAi?$AAo?$AA_?$AAo?$AAu?$AAt?$AAp?$AAu?$AAt?$AA?3?$AA?3?$AAo?$AAu?$AAt?$AAp?$AAu?$AAt?$AA_?$AAp?$AAr?$AAo?$AAc?$AAe@ 0000000180111920     libucrtd:output.obj
 0002:00014b50       ??_C@_1BNC@JPKLPOHO@?$AA_?$AA_?$AAc?$AAr?$AAt?$AA_?$AAs?$AAt?$AAd?$AAi?$AAo?$AA_?$AAo?$AAu?$AAt?$AAp?$AAu?$AAt?$AA?3?$AA?3?$AAo?$AAu?$AAt?$AAp?$AAu?$AAt?$AA_?$AAp?$AAr?$AAo?$AAc?$AAe@ 0000000180111b50     libucrtd:output.obj
 0002:00014d80       ??_C@_1BMG@BBEFGBID@?$AA_?$AA_?$AAc?$AAr?$AAt?$AA_?$AAs?$AAt?$AAd?$AAi?$AAo?$AA_?$AAo?$AAu?$AAt?$AAp?$AAu?$AAt?$AA?3?$AA?3?$AAo?$AAu?$AAt?$AAp?$AAu?$AAt?$AA_?$AAp?$AAr?$AAo?$AAc?$AAe@ 0000000180111d80     libucrtd:output.obj
 0002:00014fa0       ??_C@_1BNO@NAODCKFA@?$AA_?$AA_?$AAc?$AAr?$AAt?$AA_?$AAs?$AAt?$AAd?$AAi?$AAo?$AA_?$AAo?$AAu?$AAt?$AAp?$AAu?$AAt?$AA?3?$AA?3?$AAo?$AAu?$AAt?$AAp?$AAu?$AAt?$AA_?$AAp?$AAr?$AAo?$AAc?$AAe@ 0000000180111fa0     libucrtd:output.obj
 0002:000151e0       ??_C@_1GE@IHIGNC@?$AA?$CI?$AA?$CI?$AAr?$AAe?$AAs?$AAu?$AAl?$AAt?$AA_?$AAb?$AAu?$AAf?$AAf?$AAe?$AAr?$AA?$CJ?$AA?$CJ?$AA?5?$AA?$CB?$AA?$DN?$AA?5?$AAN?$AAU?$AAL?$AAL?$AA?5?$AA?$CG?$AA?$CG?$AA?5?$AA?$CI?$AA?$CI?$AAr@ 00000001801121e0     libucrtd:makepath.obj
 0002:00015260       ??_C@_1GO@CPMBDHKK@?$AAm?$AAi?$AAn?$AAk?$AAe?$AAr?$AAn?$AAe?$AAl?$AA?2?$AAc?$AAr?$AAt?$AAs?$AA?2?$AAu?$AAc?$AAr?$AAt?$AA?2?$AAs?$AAr?$AAc?$AA?2?$AAa?$AAp?$AAp?$AAc?$AAr?$AAt?$AA?2?$AAf@ 0000000180112260     libucrtd:makepath.obj
 0002:000152e8       ??_C@_1CE@GNNMAAIL@?$AAc?$AAo?$AAm?$AAm?$AAo?$AAn?$AA_?$AAm?$AAa?$AAk?$AAe?$AAp?$AAa?$AAt?$AAh?$AA_?$AAs?$AA?$AA@ 00000001801122e8     libucrtd:makepath.obj
 0002:00015318       ??_C@_1CI@HCPHDDLE@?$AAB?$AAu?$AAf?$AAf?$AAe?$AAr?$AA?5?$AAi?$AAs?$AA?5?$AAt?$AAo?$AAo?$AA?5?$AAs?$AAm?$AAa?$AAl?$AAl?$AA?$AA@ 0000000180112318     libucrtd:makepath.obj
 0002:00015348       ??_C@_1DM@MADKGDLO@?$AA?$CI?$AAL?$AA?$CC?$AAB?$AAu?$AAf?$AAf?$AAe?$AAr?$AA?5?$AAi?$AAs?$AA?5?$AAt?$AAo?$AAo?$AA?5?$AAs?$AAm?$AAa?$AAl?$AAl?$AA?$CC?$AA?5?$AA?$CG?$AA?$CG?$AA?5?$AA0?$AA?$CJ?$AA?$AA@ 0000000180112348     libucrtd:makepath.obj
 0002:00015390       ??_C@_1CI@KGHCCPCN@?$AAc?$AAl?$AAe?$AAa?$AAn?$AAu?$AAp?$AA_?$AAa?$AAf?$AAt?$AAe?$AAr?$AA_?$AAe?$AAr?$AAr?$AAo?$AAr?$AA?$AA@ 0000000180112390     libucrtd:makepath.obj
 0002:000153c0       ??_C@_1M@HLGKFCJM@?$AAf?$AAa?$AAl?$AAs?$AAe?$AA?$AA@ 00000001801123c0     libucrtd:splitpath.obj
 0002:000153d0       ??_C@_1HA@BEJINBHO@?$AAm?$AAi?$AAn?$AAk?$AAe?$AAr?$AAn?$AAe?$AAl?$AA?2?$AAc?$AAr?$AAt?$AAs?$AA?2?$AAu?$AAc?$AAr?$AAt?$AA?2?$AAs?$AAr?$AAc?$AA?2?$AAa?$AAp?$AAp?$AAc?$AAr?$AAt?$AA?2?$AAf@ 00000001801123d0     libucrtd:splitpath.obj
 0002:00015458       ??_C@_1DE@EEECINKG@?$AAc?$AAo?$AAm?$AAm?$AAo?$AAn?$AA_?$AAs?$AAp?$AAl?$AAi?$AAt?$AAp?$AAa?$AAt?$AAh?$AA_?$AAi?$AAn?$AAt?$AAe?$AAr?$AAn?$AAa?$AAl?$AA?$AA@ 0000000180112458     libucrtd:splitpath.obj
 0002:000154a0       ??_C@_1GI@BBAEIKL@?$AA?$CI?$AA?$CI?$AAd?$AAe?$AAs?$AAt?$AAi?$AAn?$AAa?$AAt?$AAi?$AAo?$AAn?$AA?$CJ?$AA?$CJ?$AA?5?$AA?$CB?$AA?$DN?$AA?5?$AAN?$AAU?$AAL?$AAL?$AA?5?$AA?$CG?$AA?$CG?$AA?5?$AA?$CI?$AA?$CI?$AAs?$AAi?$AAz@ 00000001801124a0     libucrtd:wcscpy_s.obj
 0002:00015520       ??_C@_1HI@PBJPCEBC@?$AAm?$AAi?$AAn?$AAk?$AAe?$AAr?$AAn?$AAe?$AAl?$AA?2?$AAc?$AAr?$AAt?$AAs?$AA?2?$AAu?$AAc?$AAr?$AAt?$AA?2?$AAi?$AAn?$AAc?$AA?2?$AAc?$AAo?$AAr?$AAe?$AAc?$AAr?$AAt?$AA_@ 0000000180112520     libucrtd:wcscpy_s.obj
 0002:000155b0       ??_C@_1CA@FHIAGDFH@?$AAc?$AAo?$AAm?$AAm?$AAo?$AAn?$AA_?$AAt?$AAc?$AAs?$AAc?$AAp?$AAy?$AA_?$AAs?$AA?$AA@ 00000001801125b0     libucrtd:wcscpy_s.obj
 0002:000155d8       ??_C@_1CK@EIOKGPJL@?$AA?$CI?$AA?$CI?$AA?$CI?$AAs?$AAo?$AAu?$AAr?$AAc?$AAe?$AA?$CJ?$AA?$CJ?$AA?$CJ?$AA?5?$AA?$CB?$AA?$DN?$AA?5?$AAN?$AAU?$AAL?$AAL?$AA?$AA@ 00000001801125d8     libucrtd:wcscpy_s.obj
 0002:00015610       ??_C@_1DA@LLLMNMKI@?$AAa?$AAb?$AAo?$AAr?$AAt?$AA?$CI?$AA?$CJ?$AA?5?$AAh?$AAa?$AAs?$AA?5?$AAb?$AAe?$AAe?$AAn?$AA?5?$AAc?$AAa?$AAl?$AAl?$AAe?$AAd?$AA?$AA@ 0000000180112610     libucrtd:abort.obj
 0002:00015650       _Fenv0                     0000000180112650     libucrtd:atox.obj
 0002:00015660       ??_C@_1GE@DPGDJKLM@?$AAm?$AAi?$AAn?$AAk?$AAe?$AAr?$AAn?$AAe?$AAl?$AA?2?$AAc?$AAr?$AAt?$AAs?$AA?2?$AAu?$AAc?$AAr?$AAt?$AA?2?$AAi?$AAn?$AAc?$AA?2?$AAc?$AAo?$AAr?$AAe?$AAc?$AAr?$AAt?$AA_@ 0000000180112660     libucrtd:atox.obj
 0002:000156e0       ??_C@_1EO@MLJCKPIB@?$AAb?$AAa?$AAs?$AAe?$AA?5?$AA?$DN?$AA?$DN?$AA?5?$AA0?$AA?5?$AA?$HM?$AA?$HM?$AA?5?$AA?$CI?$AA2?$AA?5?$AA?$DM?$AA?$DN?$AA?5?$AAb?$AAa?$AAs?$AAe?$AA?5?$AA?$CG?$AA?$CG?$AA?5?$AAb?$AAa?$AAs?$AAe?$AA?5@ 00000001801126e0     libucrtd:atox.obj
 0002:00015740       ??_C@_1DI@BANODKFL@?$AA_?$AA_?$AAc?$AAr?$AAt?$AA_?$AAs?$AAt?$AAr?$AAt?$AAo?$AAx?$AA?3?$AA?3?$AAp?$AAa?$AAr?$AAs?$AAe?$AA_?$AAi?$AAn?$AAt?$AAe?$AAg?$AAe?$AAr?$AA?$AA@ 0000000180112740     libucrtd:atox.obj
 0002:00015788       ??_C@_1BM@PNEBBBDO@?$AA_?$AAp?$AA?5?$AA?$CB?$AA?$DN?$AA?5?$AAn?$AAu?$AAl?$AAl?$AAp?$AAt?$AAr?$AA?$AA@ 0000000180112788     libucrtd:atox.obj
 0002:000157b0       ??_C@_1HA@MKKIHBHP@?$AA_?$AA_?$AAc?$AAr?$AAt?$AA_?$AAs?$AAt?$AAr?$AAt?$AAo?$AAx?$AA?3?$AA?3?$AAc?$AA_?$AAs?$AAt?$AAr?$AAi?$AAn?$AAg?$AA_?$AAc?$AAh?$AAa?$AAr?$AAa?$AAc?$AAt?$AAe?$AAr@ 00000001801127b0     libucrtd:atox.obj
 0002:00015838       ??_C@_1CM@GJENOOEJ@?$AAc?$AA?5?$AA?$DN?$AA?$DN?$AA?5?$AA?8?$AA?2?$AA0?$AA?8?$AA?5?$AA?$HM?$AA?$HM?$AA?5?$AA?$CK?$AA_?$AAp?$AA?5?$AA?$DN?$AA?$DN?$AA?5?$AAc?$AA?$AA@ 0000000180112838     libucrtd:atox.obj
 0002:00015870       ??_C@_1GK@MNHIDABG@?$AA_?$AA_?$AAc?$AAr?$AAt?$AA_?$AAs?$AAt?$AAr?$AAt?$AAo?$AAx?$AA?3?$AA?3?$AAc?$AA_?$AAs?$AAt?$AAr?$AAi?$AAn?$AAg?$AA_?$AAc?$AAh?$AAa?$AAr?$AAa?$AAc?$AAt?$AAe?$AAr@ 0000000180112870     libucrtd:atox.obj
 0002:000158f0       ??_C@_1HG@FCDBLOEG@?$AA_?$AA_?$AAc?$AAr?$AAt?$AA_?$AAs?$AAt?$AAr?$AAt?$AAo?$AAx?$AA?3?$AA?3?$AAc?$AA_?$AAs?$AAt?$AAr?$AAi?$AAn?$AAg?$AA_?$AAc?$AAh?$AAa?$AAr?$AAa?$AAc?$AAt?$AAe?$AAr@ 00000001801128f0     libucrtd:atox.obj
 0002:00015980       ??_C@_1HA@CONLANFI@?$AA_?$AA_?$AAc?$AAr?$AAt?$AA_?$AAs?$AAt?$AAr?$AAt?$AAo?$AAx?$AA?3?$AA?3?$AAc?$AA_?$AAs?$AAt?$AAr?$AAi?$AAn?$AAg?$AA_?$AAc?$AAh?$AAa?$AAr?$AAa?$AAc?$AAt?$AAe?$AAr@ 0000000180112980     libucrtd:atox.obj
 0002:00015a08       _d_inf                     0000000180112a08     libucrtd:util.obj
 0002:00015a18       _d_ind                     0000000180112a18     libucrtd:util.obj
 0002:00015a28       _d_max                     0000000180112a28     libucrtd:util.obj
 0002:00015a38       _d_min                     0000000180112a38     libucrtd:util.obj
 0002:00015a48       _d_mzero                   0000000180112a48     libucrtd:util.obj
 0002:00015a58       __real@0000000000000000    0000000180112a58     libucrtd:util.obj
 0002:00015a70       ??_C@_1FA@IFFFOLDJ@?$AAn?$AAR?$AAp?$AAt?$AAT?$AAy?$AAp?$AAe?$AA?5?$AA?$DO?$AA?$DN?$AA?5?$AA0?$AA?5?$AA?$CG?$AA?$CG?$AA?5?$AAn?$AAR?$AAp?$AAt?$AAT?$AAy?$AAp?$AAe?$AA?5?$AA?$DM?$AA?5?$AA_?$AAC?$AAR?$AAT@ 0000000180112a70     libucrtd:dbgrptt.obj
 0002:00015ad0       ??_C@_1GA@LFAOKOOP@?$AAm?$AAi?$AAn?$AAk?$AAe?$AAr?$AAn?$AAe?$AAl?$AA?2?$AAc?$AAr?$AAt?$AAs?$AA?2?$AAu?$AAc?$AAr?$AAt?$AA?2?$AAs?$AAr?$AAc?$AA?2?$AAa?$AAp?$AAp?$AAc?$AAr?$AAt?$AA?2?$AAm@ 0000000180112ad0     libucrtd:dbgrptt.obj
 0002:00015b48       ??_C@_1CE@FIHIECNJ@?$AA_?$AAC?$AAr?$AAt?$AAS?$AAe?$AAt?$AAR?$AAe?$AAp?$AAo?$AAr?$AAt?$AAM?$AAo?$AAd?$AAe?$AA?$AA@ 0000000180112b48     libucrtd:dbgrptt.obj
 0002:00015b80       ??_C@_1NK@LOFHIHFC@?$AAf?$AAM?$AAo?$AAd?$AAe?$AA?5?$AA?$DN?$AA?$DN?$AA?5?$AA_?$AAC?$AAR?$AAT?$AAD?$AAB?$AAG?$AA_?$AAR?$AAE?$AAP?$AAO?$AAR?$AAT?$AA_?$AAM?$AAO?$AAD?$AAE?$AA?5?$AA?$HM?$AA?$HM?$AA?5@ 0000000180112b80     libucrtd:dbgrptt.obj
 0002:00015c88       ??_C@_1CE@IKKEDCME@?$AA_?$AAC?$AAr?$AAt?$AAS?$AAe?$AAt?$AAR?$AAe?$AAp?$AAo?$AAr?$AAt?$AAF?$AAi?$AAl?$AAe?$AA?$AA@ 0000000180112c88     libucrtd:dbgrptt.obj
 0002:00015cb8       ??_C@_1CA@KHJHLKA@?$AA_?$AAV?$AAC?$AAr?$AAt?$AAD?$AAb?$AAg?$AAR?$AAe?$AAp?$AAo?$AAr?$AAt?$AAA?$AA?$AA@ 0000000180112cb8     libucrtd:dbgrptt.obj
 0002:00015ce0       ??_C@_1FA@JPHJBHEM@?$AA_?$AAi?$AAt?$AAo?$AAa?$AA_?$AAs?$AA?$CI?$AAn?$AAL?$AAi?$AAn?$AAe?$AA?0?$AA?5?$AAs?$AAz?$AAL?$AAi?$AAn?$AAe?$AAM?$AAe?$AAs?$AAs?$AAa?$AAg?$AAe?$AA?0?$AA?5?$AA4?$AA0@ 0000000180112ce0     libucrtd:dbgrptt.obj
 0002:00015d40       ??_C@_0CG@BNGLOCEO@Second?5Chance?5Assertion?5Failed?3?5@ 0000000180112d40     libucrtd:dbgrptt.obj
 0002:00015d70       ??_C@_0P@DFJNDPOP@?$DMfile?5unknown?$DO?$AA@ 0000000180112d70     libucrtd:dbgrptt.obj
 0002:00015d88       ??_C@_07BHGABMGB@?0?5Line?5?$AA@ 0000000180112d88     libucrtd:dbgrptt.obj
 0002:00015da0       ??_C@_1JI@GAALPGBM@?$AAs?$AAt?$AAr?$AAc?$AAp?$AAy?$AA_?$AAs?$AA?$CI?$AAs?$AAz?$AAU?$AAs?$AAe?$AAr?$AAM?$AAe?$AAs?$AAs?$AAa?$AAg?$AAe?$AA?0?$AA?5?$AA4?$AA0?$AA9?$AA6?$AA?0?$AA?5?$AA?$CC?$AA_@ 0000000180112da0     libucrtd:dbgrptt.obj
 0002:00015e58       ??_C@_0CL@EACFGMNB@_CrtDbgReport?3?5String?5too?5long?5o@ 0000000180112e58     libucrtd:dbgrptt.obj
 0002:00015e90       ??_C@_1KK@GIGAEDMO@?$AAs?$AAt?$AAr?$AAc?$AAp?$AAy?$AA_?$AAs?$AA?$CI?$AAs?$AAz?$AAL?$AAi?$AAn?$AAe?$AAM?$AAe?$AAs?$AAs?$AAa?$AAg?$AAe?$AA?0?$AA?5?$AA4?$AA0?$AA9?$AA6?$AA?0?$AA?5?$AAs?$AAz@ 0000000180112e90     libucrtd:dbgrptt.obj
 0002:00015f60       ??_C@_0BD@CAENFOHP@Assertion?5failed?3?5?$AA@ 0000000180112f60     libucrtd:dbgrptt.obj
 0002:00015f78       ??_C@_0BC@LAIDCHCH@Assertion?5failed?$CB?$AA@ 0000000180112f78     libucrtd:dbgrptt.obj
 0002:00015f90       ??_C@_1FK@NPGBPOFO@?$AAs?$AAt?$AAr?$AAc?$AAa?$AAt?$AA_?$AAs?$AA?$CI?$AAs?$AAz?$AAL?$AAi?$AAn?$AAe?$AAM?$AAe?$AAs?$AAs?$AAa?$AAg?$AAe?$AA?0?$AA?5?$AA4?$AA0?$AA9?$AA6?$AA?0?$AA?5?$AAs?$AAz@ 0000000180112f90     libucrtd:dbgrptt.obj
 0002:00016000       ??_C@_1EI@CACDLAFK@?$AAs?$AAt?$AAr?$AAc?$AAa?$AAt?$AA_?$AAs?$AA?$CI?$AAs?$AAz?$AAL?$AAi?$AAn?$AAe?$AAM?$AAe?$AAs?$AAs?$AAa?$AAg?$AAe?$AA?0?$AA?5?$AA4?$AA0?$AA9?$AA6?$AA?0?$AA?5?$AA?$CC?$AA?2@ 0000000180113000     libucrtd:dbgrptt.obj
 0002:00016058       ??_C@_01LIIJDEN@?$AN?$AA@  0000000180113058     libucrtd:dbgrptt.obj
 0002:00016060       ??_C@_1EI@LDHJEDO@?$AAs?$AAt?$AAr?$AAc?$AAa?$AAt?$AA_?$AAs?$AA?$CI?$AAs?$AAz?$AAL?$AAi?$AAn?$AAe?$AAM?$AAe?$AAs?$AAs?$AAa?$AAg?$AAe?$AA?0?$AA?5?$AA4?$AA0?$AA9?$AA6?$AA?0?$AA?5?$AA?$CC?$AA?2@ 0000000180113060     libucrtd:dbgrptt.obj
 0002:000160b8       ??_C@_0M@IPILFDFN@?$CFs?$CI?$CFd?$CJ?5?3?5?$CFs?$AA@ 00000001801130b8     libucrtd:dbgrptt.obj
 0002:000160d0       ??_C@_1JG@CPKCIOEE@?$AAs?$AAt?$AAr?$AAc?$AAp?$AAy?$AA_?$AAs?$AA?$CI?$AAs?$AAz?$AAO?$AAu?$AAt?$AAM?$AAe?$AAs?$AAs?$AAa?$AAg?$AAe?$AA?0?$AA?5?$AA4?$AA0?$AA9?$AA6?$AA?0?$AA?5?$AA?$CC?$AA_?$AAC@ 00000001801130d0     libucrtd:dbgrptt.obj
 0002:00016190       ??_C@_1FI@IBIOIHEG@?$AAs?$AAt?$AAr?$AAc?$AAp?$AAy?$AA_?$AAs?$AA?$CI?$AAs?$AAz?$AAO?$AAu?$AAt?$AAM?$AAe?$AAs?$AAs?$AAa?$AAg?$AAe?$AA?0?$AA?5?$AA4?$AA0?$AA9?$AA6?$AA?0?$AA?5?$AAs?$AAz?$AAL@ 0000000180113190     libucrtd:dbgrptt.obj
 0002:00016200       ??_C@_1IM@OOKIFKOH@?$AAe?$AA?5?$AA?$DN?$AA?5?$AAm?$AAb?$AAs?$AAt?$AAo?$AAw?$AAc?$AAs?$AA_?$AAs?$AA?$CI?$AA?$CG?$AAr?$AAe?$AAt?$AA?0?$AA?5?$AAs?$AAz?$AAO?$AAu?$AAt?$AAM?$AAe?$AAs?$AAs?$AAa?$AAg@ 0000000180113200     libucrtd:dbgrptt.obj
 0002:000162b0       ??_C@_1MC@IGEECMDB@?$AAw?$AAc?$AAs?$AAc?$AAp?$AAy?$AA_?$AAs?$AA?$CI?$AAs?$AAz?$AAO?$AAu?$AAt?$AAM?$AAe?$AAs?$AAs?$AAa?$AAg?$AAe?$AA2?$AA?0?$AA?5?$AA4?$AA0?$AA9?$AA6?$AA?0?$AA?5?$AAL?$AA?$CC@ 00000001801132b0     libucrtd:dbgrptt.obj
 0002:000163a0       ??_C@_1HO@PJOFIKFE@?$AA_?$AAC?$AAr?$AAt?$AAD?$AAb?$AAg?$AAR?$AAe?$AAp?$AAo?$AAr?$AAt?$AA?3?$AA?5?$AAS?$AAt?$AAr?$AAi?$AAn?$AAg?$AA?5?$AAt?$AAo?$AAo?$AA?5?$AAl?$AAo?$AAn?$AAg?$AA?5?$AAo@ 00000001801133a0     libucrtd:dbgrptt.obj
 0002:00016438       ??_C@_1CA@HPALHDOD@?$AA_?$AAV?$AAC?$AAr?$AAt?$AAD?$AAb?$AAg?$AAR?$AAe?$AAp?$AAo?$AAr?$AAt?$AAW?$AA?$AA@ 0000000180113438     libucrtd:dbgrptt.obj
 0002:00016460       ??_C@_1FA@CNLLOMHI@?$AA_?$AAi?$AAt?$AAo?$AAw?$AA_?$AAs?$AA?$CI?$AAn?$AAL?$AAi?$AAn?$AAe?$AA?0?$AA?5?$AAs?$AAz?$AAL?$AAi?$AAn?$AAe?$AAM?$AAe?$AAs?$AAs?$AAa?$AAg?$AAe?$AA?0?$AA?5?$AA4?$AA0@ 0000000180113460     libucrtd:dbgrptt.obj
 0002:000164c0       ??_C@_1EM@MJFLEDMB@?$AAS?$AAe?$AAc?$AAo?$AAn?$AAd?$AA?5?$AAC?$AAh?$AAa?$AAn?$AAc?$AAe?$AA?5?$AAA?$AAs?$AAs?$AAe?$AAr?$AAt?$AAi?$AAo?$AAn?$AA?5?$AAF?$AAa?$AAi?$AAl?$AAe?$AAd?$AA?3?$AA?5@ 00000001801134c0     libucrtd:dbgrptt.obj
 0002:00016520       ??_C@_1BO@OCHMLCAG@?$AA?$DM?$AAf?$AAi?$AAl?$AAe?$AA?5?$AAu?$AAn?$AAk?$AAn?$AAo?$AAw?$AAn?$AA?$DO?$AA?$AA@ 0000000180113520     libucrtd:dbgrptt.obj
 0002:00016548       ??_C@_1BA@ELMMDCFC@?$AA?0?$AA?5?$AAL?$AAi?$AAn?$AAe?$AA?5?$AA?$AA@ 0000000180113548     libucrtd:dbgrptt.obj
 0002:0001655c       ??_C@_13LBAGMAIH@?$AA?6?$AA?$AA@ 000000018011355c     libucrtd:dbgrptt.obj
 0002:00016560       ??_C@_1JK@KHFABAEO@?$AAw?$AAc?$AAs?$AAc?$AAp?$AAy?$AA_?$AAs?$AA?$CI?$AAs?$AAz?$AAU?$AAs?$AAe?$AAr?$AAM?$AAe?$AAs?$AAs?$AAa?$AAg?$AAe?$AA?0?$AA?5?$AA4?$AA0?$AA9?$AA6?$AA?0?$AA?5?$AAL?$AA?$CC@ 0000000180113560     libucrtd:dbgrptt.obj
 0002:00016620       ??_C@_1KO@DGAHENCH@?$AAw?$AAc?$AAs?$AAc?$AAp?$AAy?$AA_?$AAs?$AA?$CI?$AAs?$AAz?$AAL?$AAi?$AAn?$AAe?$AAM?$AAe?$AAs?$AAs?$AAa?$AAg?$AAe?$AA?0?$AA?5?$AA4?$AA0?$AA9?$AA6?$AA?0?$AA?5?$AAs?$AAz@ 0000000180113620     libucrtd:dbgrptt.obj
 0002:000166f0       ??_C@_1CG@FFFGGODN@?$AAA?$AAs?$AAs?$AAe?$AAr?$AAt?$AAi?$AAo?$AAn?$AA?5?$AAf?$AAa?$AAi?$AAl?$AAe?$AAd?$AA?3?$AA?5?$AA?$AA@ 00000001801136f0     libucrtd:dbgrptt.obj
 0002:00016720       ??_C@_1CE@OJBNHDMO@?$AAA?$AAs?$AAs?$AAe?$AAr?$AAt?$AAi?$AAo?$AAn?$AA?5?$AAf?$AAa?$AAi?$AAl?$AAe?$AAd?$AA?$CB?$AA?$AA@ 0000000180113720     libucrtd:dbgrptt.obj
 0002:00016750       ??_C@_1FK@HPADHBBD@?$AAw?$AAc?$AAs?$AAc?$AAa?$AAt?$AA_?$AAs?$AA?$CI?$AAs?$AAz?$AAL?$AAi?$AAn?$AAe?$AAM?$AAe?$AAs?$AAs?$AAa?$AAg?$AAe?$AA?0?$AA?5?$AA4?$AA0?$AA9?$AA6?$AA?0?$AA?5?$AAs?$AAz@ 0000000180113750     libucrtd:dbgrptt.obj
 0002:000167c0       ??_C@_1EK@NMDFGHMF@?$AAw?$AAc?$AAs?$AAc?$AAa?$AAt?$AA_?$AAs?$AA?$CI?$AAs?$AAz?$AAL?$AAi?$AAn?$AAe?$AAM?$AAe?$AAs?$AAs?$AAa?$AAg?$AAe?$AA?0?$AA?5?$AA4?$AA0?$AA9?$AA6?$AA?0?$AA?5?$AAL?$AA?$CC@ 00000001801137c0     libucrtd:dbgrptt.obj
 0002:00016818       ??_C@_13CMNBPIDO@?$AA?$AN?$AA?$AA@ 0000000180113818     libucrtd:dbgrptt.obj
 0002:00016820       ??_C@_1EK@PHCBEDKB@?$AAw?$AAc?$AAs?$AAc?$AAa?$AAt?$AA_?$AAs?$AA?$CI?$AAs?$AAz?$AAL?$AAi?$AAn?$AAe?$AAM?$AAe?$AAs?$AAs?$AAa?$AAg?$AAe?$AA?0?$AA?5?$AA4?$AA0?$AA9?$AA6?$AA?0?$AA?5?$AAL?$AA?$CC@ 0000000180113820     libucrtd:dbgrptt.obj
 0002:00016878       ??_C@_1BM@GIBPMLNL@?$AA?$CF?$AAl?$AAs?$AA?$CI?$AA?$CF?$AAd?$AA?$CJ?$AA?5?$AA?3?$AA?5?$AA?$CF?$AAl?$AAs?$AA?$AA@ 0000000180113878     libucrtd:dbgrptt.obj
 0002:000168a0       ??_C@_1JI@EACPGHID@?$AAw?$AAc?$AAs?$AAc?$AAp?$AAy?$AA_?$AAs?$AA?$CI?$AAs?$AAz?$AAO?$AAu?$AAt?$AAM?$AAe?$AAs?$AAs?$AAa?$AAg?$AAe?$AA?0?$AA?5?$AA4?$AA0?$AA9?$AA6?$AA?0?$AA?5?$AAL?$AA?$CC?$AA_@ 00000001801138a0     libucrtd:dbgrptt.obj
 0002:00016960       ??_C@_1FI@DBAIJPJE@?$AAw?$AAc?$AAs?$AAc?$AAp?$AAy?$AA_?$AAs?$AA?$CI?$AAs?$AAz?$AAO?$AAu?$AAt?$AAM?$AAe?$AAs?$AAs?$AAa?$AAg?$AAe?$AA?0?$AA?5?$AA4?$AA0?$AA9?$AA6?$AA?0?$AA?5?$AAs?$AAz?$AAL@ 0000000180113960     libucrtd:dbgrptt.obj
 0002:000169d0       ??_C@_1IK@LEBMBAP@?$AAw?$AAc?$AAs?$AAt?$AAo?$AAm?$AAb?$AAs?$AA_?$AAs?$AA?$CI?$AAn?$AAu?$AAl?$AAl?$AAp?$AAt?$AAr?$AA?0?$AA?5?$AAs?$AAz?$AAO?$AAu?$AAt?$AAM?$AAe?$AAs?$AAs?$AAa?$AAg?$AAe@ 00000001801139d0     libucrtd:dbgrptt.obj
 0002:00016a80       ??_C@_1MA@LBAMNNOB@?$AAs?$AAt?$AAr?$AAc?$AAp?$AAy?$AA_?$AAs?$AA?$CI?$AAs?$AAz?$AAO?$AAu?$AAt?$AAM?$AAe?$AAs?$AAs?$AAa?$AAg?$AAe?$AA2?$AA?0?$AA?5?$AA4?$AA0?$AA9?$AA6?$AA?0?$AA?5?$AA?$CC?$AA_@ 0000000180113a80     libucrtd:dbgrptt.obj
 0002:00016b68       ??_C@_0DP@GNPEPHJD@_CrtDbgReport?3?5String?5too?5long?5o@ 0000000180113b68     libucrtd:dbgrptt.obj
 0002:00016bc0       ??_C@_1IE@CPGKIAGP@?$AAw?$AAc?$AAs?$AAt?$AAo?$AAm?$AAb?$AAs?$AA_?$AAs?$AA?$CI?$AA?$CG?$AAr?$AAe?$AAt?$AA?0?$AA?5?$AAs?$AAz?$AAa?$AAO?$AAu?$AAt?$AAM?$AAe?$AAs?$AAs?$AAa?$AAg?$AAe?$AA?0?$AA?5@ 0000000180113bc0     libucrtd:dbgrptt.obj
 0002:00016e10       ??_C@_1CE@JMFACANE@?$AAr?$AAe?$AAs?$AAu?$AAl?$AAt?$AA?5?$AA?$CB?$AA?$DN?$AA?5?$AAn?$AAu?$AAl?$AAl?$AAp?$AAt?$AAr?$AA?$AA@ 0000000180113e10     libucrtd:errno.obj
 0002:00016e40       ??_C@_1FM@MJJGEFKM@?$AAm?$AAi?$AAn?$AAk?$AAe?$AAr?$AAn?$AAe?$AAl?$AA?2?$AAc?$AAr?$AAt?$AAs?$AA?2?$AAu?$AAc?$AAr?$AAt?$AA?2?$AAs?$AAr?$AAc?$AA?2?$AAa?$AAp?$AAp?$AAc?$AAr?$AAt?$AA?2?$AAm@ 0000000180113e40     libucrtd:errno.obj
 0002:00016eb0       ??_C@_1BG@KCMPBBDK@?$AA_?$AAg?$AAe?$AAt?$AA_?$AAe?$AAr?$AAr?$AAn?$AAo?$AA?$AA@ 0000000180113eb0     libucrtd:errno.obj
 0002:00016ed0       ??_C@_1BM@INIPHHDD@?$AA_?$AAg?$AAe?$AAt?$AA_?$AAd?$AAo?$AAs?$AAe?$AAr?$AAr?$AAn?$AAo?$AA?$AA@ 0000000180113ed0     libucrtd:errno.obj
 0002:00016ef8       ??_C@_0CP@JIIONAG@minkernel?2crts?2ucrt?2src?2appcrt?2m@ 0000000180113ef8     libucrtd:signal.obj
 0002:00016f30       ??_C@_1DA@NBILLKNO@?$AAl?$AAo?$AAc?$AAa?$AAl?$AA_?$AAa?$AAc?$AAt?$AAi?$AAo?$AAn?$AA?5?$AA?$CB?$AA?$DN?$AA?5?$AAn?$AAu?$AAl?$AAl?$AAp?$AAt?$AAr?$AA?$AA@ 0000000180113f30     libucrtd:signal.obj
 0002:00016f70       ??_C@_1FO@CCGDPEKE@?$AAm?$AAi?$AAn?$AAk?$AAe?$AAr?$AAn?$AAe?$AAl?$AA?2?$AAc?$AAr?$AAt?$AAs?$AA?2?$AAu?$AAc?$AAr?$AAt?$AA?2?$AAs?$AAr?$AAc?$AA?2?$AAa?$AAp?$AAp?$AAc?$AAr?$AAt?$AA?2?$AAm@ 0000000180113f70     libucrtd:signal.obj
 0002:00016fe0       ??_C@_1M@DMJEIKHL@?$AAr?$AAa?$AAi?$AAs?$AAe?$AA?$AA@ 0000000180113fe0     libucrtd:signal.obj
 0002:00016ff0       ??_C@_1DO@MLNEDKGB@?$AA?$CI?$AA?$CC?$AAI?$AAn?$AAv?$AAa?$AAl?$AAi?$AAd?$AA?5?$AAs?$AAi?$AAg?$AAn?$AAa?$AAl?$AA?5?$AAo?$AAr?$AA?5?$AAe?$AAr?$AAr?$AAo?$AAr?$AA?$CC?$AA?0?$AA?5?$AA0?$AA?$CJ?$AA?$AA@ 0000000180113ff0     libucrtd:signal.obj
 0002:00017040       ??_C@_1CC@LLFJPCJO@?$AAn?$AAe?$AAw?$AA_?$AAh?$AAa?$AAn?$AAd?$AAl?$AAe?$AAr?$AA?5?$AA?$DN?$AA?$DN?$AA?5?$AA0?$AA?$AA@ 0000000180114040     libucrtd:new_handler.obj
 0002:00017070       ??_C@_1GI@GALDAPMM@?$AAm?$AAi?$AAn?$AAk?$AAe?$AAr?$AAn?$AAe?$AAl?$AA?2?$AAc?$AAr?$AAt?$AAs?$AA?2?$AAu?$AAc?$AAr?$AAt?$AA?2?$AAs?$AAr?$AAc?$AA?2?$AAa?$AAp?$AAp?$AAc?$AAr?$AAt?$AA?2?$AAh@ 0000000180114070     libucrtd:new_handler.obj
 0002:000170f0       ??_C@_1BG@HHIFPOEK@?$AAm?$AAs?$AAv?$AAc?$AAr?$AAt?$AA?4?$AAd?$AAl?$AAl?$AA?$AA@ 00000001801140f0     libucrtd:free_base.obj
 0002:00017110       ??_C@_1CE@NPMGPNNP@?$AAI?$AAS?$AA_?$AA2?$AA_?$AAP?$AAO?$AAW?$AA_?$AAN?$AA?$CI?$AAa?$AAl?$AAi?$AAg?$AAn?$AA?$CJ?$AA?$AA@ 0000000180114110     libucrtd:align.obj
 0002:00017140       ??_C@_1FM@GHAMPDNO@?$AAm?$AAi?$AAn?$AAk?$AAe?$AAr?$AAn?$AAe?$AAl?$AA?2?$AAc?$AAr?$AAt?$AAs?$AA?2?$AAu?$AAc?$AAr?$AAt?$AA?2?$AAs?$AAr?$AAc?$AA?2?$AAa?$AAp?$AAp?$AAc?$AAr?$AAt?$AA?2?$AAh@ 0000000180114140     libucrtd:align.obj
 0002:000171b0       ??_C@_1DI@LCGAEAA@?$AA_?$AAa?$AAl?$AAi?$AAg?$AAn?$AAe?$AAd?$AA_?$AAo?$AAf?$AAf?$AAs?$AAe?$AAt?$AA_?$AAm?$AAa?$AAl?$AAl?$AAo?$AAc?$AA_?$AAb?$AAa?$AAs?$AAe?$AA?$AA@ 00000001801141b0     libucrtd:align.obj
 0002:000171f8       ??_C@_1DK@PBMGAKHJ@?$AA_?$AAa?$AAl?$AAi?$AAg?$AAn?$AAe?$AAd?$AA_?$AAo?$AAf?$AAf?$AAs?$AAe?$AAt?$AA_?$AAr?$AAe?$AAa?$AAl?$AAl?$AAo?$AAc?$AA_?$AAb?$AAa?$AAs?$AAe?$AA?$AA@ 00000001801141f8     libucrtd:align.obj
 0002:00017240       ??_C@_1CI@DHKEEEHJ@?$AA_?$AAa?$AAl?$AAi?$AAg?$AAn?$AAe?$AAd?$AA_?$AAm?$AAs?$AAi?$AAz?$AAe?$AA_?$AAb?$AAa?$AAs?$AAe?$AA?$AA@ 0000000180114240     libucrtd:align.obj
 0002:00017270       ??_C@_1CI@JELMFMDH@?$AAc?$AA?5?$AA?$DO?$AA?$DN?$AA?5?$AA?9?$AA1?$AA?5?$AA?$CG?$AA?$CG?$AA?5?$AAc?$AA?5?$AA?$DM?$AA?$DN?$AA?5?$AA2?$AA5?$AA5?$AA?$AA@ 0000000180114270     libucrtd:isctype.obj
 0002:000172a0       ??_C@_1GG@KPBGDFHJ@?$AAm?$AAi?$AAn?$AAk?$AAe?$AAr?$AAn?$AAe?$AAl?$AA?2?$AAc?$AAr?$AAt?$AAs?$AA?2?$AAu?$AAc?$AAr?$AAt?$AA?2?$AAs?$AAr?$AAc?$AA?2?$AAa?$AAp?$AAp?$AAc?$AAr?$AAt?$AA?2?$AAc@ 00000001801142a0     libucrtd:isctype.obj
 0002:00017320       ??_C@_0DM@DKIFNNOL@minkernel?2crts?2ucrt?2src?2appcrt?2i@ 0000000180114320     libucrtd:per_thread_data.obj
 0002:00017370       ??_C@_1FO@GEKPJHID@?$AAm?$AAi?$AAn?$AAk?$AAe?$AAr?$AAn?$AAe?$AAl?$AA?2?$AAc?$AAr?$AAt?$AAs?$AA?2?$AAu?$AAc?$AAr?$AAt?$AA?2?$AAs?$AAr?$AAc?$AA?2?$AAa?$AAp?$AAp?$AAc?$AAr?$AAt?$AA?2?$AAh@ 0000000180114370     libucrtd:expand.obj
 0002:000173e0       ??_C@_1BK@JMCGJOCC@?$AA_?$AAe?$AAx?$AAp?$AAa?$AAn?$AAd?$AA_?$AAb?$AAa?$AAs?$AAe?$AA?$AA@ 00000001801143e0     libucrtd:expand.obj
 0002:00017400       ??_C@_1CO@JKFLNGDK@?$AAm?$AAo?$AAd?$AAe?$AA?5?$AA?$DN?$AA?$DN?$AA?5?$AA0?$AA?5?$AA?$HM?$AA?$HM?$AA?5?$AAm?$AAo?$AAd?$AAe?$AA?5?$AA?$DN?$AA?$DN?$AA?5?$AA1?$AA?$AA@ 0000000180114400     libucrtd:new_mode.obj
 0002:00017440       ??_C@_1GC@PJMKBHEK@?$AAm?$AAi?$AAn?$AAk?$AAe?$AAr?$AAn?$AAe?$AAl?$AA?2?$AAc?$AAr?$AAt?$AAs?$AA?2?$AAu?$AAc?$AAr?$AAt?$AA?2?$AAs?$AAr?$AAc?$AA?2?$AAa?$AAp?$AAp?$AAc?$AAr?$AAt?$AA?2?$AAh@ 0000000180114440     libucrtd:new_mode.obj
 0002:000174b8       ??_C@_1BM@PDPAKJNF@?$AA_?$AAs?$AAe?$AAt?$AA_?$AAn?$AAe?$AAw?$AA_?$AAm?$AAo?$AAd?$AAe?$AA?$AA@ 00000001801144b8     libucrtd:new_mode.obj
 0002:000174e0       __lc_category              00000001801144e0     libucrtd:wsetlocale.obj
 0002:00017590       ??_C@_1O@GIFLHMA@?$AAL?$AAC?$AA_?$AAA?$AAL?$AAL?$AA?$AA@ 0000000180114590     libucrtd:wsetlocale.obj
 0002:000175a0       ??_C@_1BG@PPOMIBNJ@?$AAL?$AAC?$AA_?$AAC?$AAO?$AAL?$AAL?$AAA?$AAT?$AAE?$AA?$AA@ 00000001801145a0     libucrtd:wsetlocale.obj
 0002:000175c0       ??_C@_1BC@FFJGAPJM@?$AAL?$AAC?$AA_?$AAC?$AAT?$AAY?$AAP?$AAE?$AA?$AA@ 00000001801145c0     libucrtd:wsetlocale.obj
 0002:000175d8       ??_C@_1BI@PCKFNJFB@?$AAL?$AAC?$AA_?$AAM?$AAO?$AAN?$AAE?$AAT?$AAA?$AAR?$AAY?$AA?$AA@ 00000001801145d8     libucrtd:wsetlocale.obj
 0002:000175f8       ??_C@_1BG@ENIEDKID@?$AAL?$AAC?$AA_?$AAN?$AAU?$AAM?$AAE?$AAR?$AAI?$AAC?$AA?$AA@ 00000001801145f8     libucrtd:wsetlocale.obj
 0002:00017618       ??_C@_1BA@HAAOMIIG@?$AAL?$AAC?$AA_?$AAT?$AAI?$AAM?$AAE?$AA?$AA@ 0000000180114618     libucrtd:wsetlocale.obj
 0002:000176d0       ??_C@_1GA@LDEGDKD@?$AA?$CI?$AA?$CC?$AAI?$AAn?$AAv?$AAa?$AAl?$AAi?$AAd?$AA?5?$AAp?$AAa?$AAr?$AAa?$AAm?$AAe?$AAt?$AAe?$AAr?$AA?5?$AAf?$AAo?$AAr?$AA?5?$AA_?$AAc?$AAo?$AAn?$AAf?$AAi?$AAg?$AAt@ 00000001801146d0     libucrtd:wsetlocale.obj
 0002:00017750       ??_C@_1GK@DPKNLBIE@?$AAm?$AAi?$AAn?$AAk?$AAe?$AAr?$AAn?$AAe?$AAl?$AA?2?$AAc?$AAr?$AAt?$AAs?$AA?2?$AAu?$AAc?$AAr?$AAt?$AA?2?$AAs?$AAr?$AAc?$AA?2?$AAa?$AAp?$AAp?$AAc?$AAr?$AAt?$AA?2?$AAl@ 0000000180114750     libucrtd:wsetlocale.obj
 0002:000177d0       ??_C@_1CI@FGIONOJM@?$AA_?$AAc?$AAo?$AAn?$AAf?$AAi?$AAg?$AAt?$AAh?$AAr?$AAe?$AAa?$AAd?$AAl?$AAo?$AAc?$AAa?$AAl?$AAe?$AA?$AA@ 00000001801147d0     libucrtd:wsetlocale.obj
 0002:00017800       ??_C@_0DF@MKMHJGEJ@minkernel?2crts?2ucrt?2src?2appcrt?2l@ 0000000180114800     libucrtd:wsetlocale.obj
 0002:00017840       ??_C@_1FG@OHLFEKMC@?$AAL?$AAC?$AA_?$AAM?$AAI?$AAN?$AA?5?$AA?$DM?$AA?$DN?$AA?5?$AA_?$AAc?$AAa?$AAt?$AAe?$AAg?$AAo?$AAr?$AAy?$AA?5?$AA?$CG?$AA?$CG?$AA?5?$AA_?$AAc?$AAa?$AAt?$AAe?$AAg?$AAo?$AAr?$AAy@ 0000000180114840     libucrtd:wsetlocale.obj
 0002:000178a8       ??_C@_1BI@KJNPAEHL@?$AA_?$AAw?$AAs?$AAe?$AAt?$AAl?$AAo?$AAc?$AAa?$AAl?$AAe?$AA?$AA@ 00000001801148a8     libucrtd:wsetlocale.obj
 0002:000178c4       ??_C@_15NBPDDFIP@?$AA?$DN?$AA?$DL?$AA?$AA@ 00000001801148c4     libucrtd:wsetlocale.obj
 0002:000178cc       ??_C@_13PJJBFPED@?$AA?$DL?$AA?$AA@ 00000001801148cc     libucrtd:wsetlocale.obj
 0002:000178d0       ??_C@_1CG@DKJCBBPP@?$AA_?$AAw?$AAs?$AAe?$AAt?$AAl?$AAo?$AAc?$AAa?$AAl?$AAe?$AA_?$AAn?$AAo?$AAl?$AAo?$AAc?$AAk?$AA?$AA@ 00000001801148d0     libucrtd:wsetlocale.obj
 0002:00017900       ??_C@_1IG@NGDCPCDE@?$AAw?$AAc?$AAs?$AAn?$AAc?$AAp?$AAy?$AA_?$AAs?$AA?$CI?$AAl?$AAc?$AAt?$AAe?$AAm?$AAp?$AA?0?$AA?5?$AA?$CI?$AAs?$AAi?$AAz?$AAe?$AAo?$AAf?$AA?$CI?$AA?$CK?$AA_?$AA_?$AAc?$AAo?$AAu@ 0000000180114900     libucrtd:wsetlocale.obj
 0002:000179a0       ??_C@_1CI@ODOPEMNJ@?$AA_?$AAw?$AAs?$AAe?$AAt?$AAl?$AAo?$AAc?$AAa?$AAl?$AAe?$AA_?$AAs?$AAe?$AAt?$AA_?$AAc?$AAa?$AAt?$AA?$AA@ 00000001801149a0     libucrtd:wsetlocale.obj
 0002:000179d0       ??_C@_1EM@MHOCNIAA@?$AAw?$AAc?$AAs?$AAc?$AAp?$AAy?$AA_?$AAs?$AA?$CI?$AAp?$AAc?$AAh?$AA_?$AAc?$AAa?$AAt?$AA_?$AAl?$AAo?$AAc?$AAa?$AAl?$AAe?$AA?0?$AA?5?$AAc?$AAc?$AAh?$AA?0?$AA?5?$AAl?$AAc@ 00000001801149d0     libucrtd:wsetlocale.obj
 0002:00017a2c       ??_C@_13NMPKAAJP@?$AA?$DN?$AA?$AA@ 0000000180114a2c     libucrtd:wsetlocale.obj
 0002:00017a30       ??_C@_1CI@LKOPFFBD@?$AA_?$AAw?$AAs?$AAe?$AAt?$AAl?$AAo?$AAc?$AAa?$AAl?$AAe?$AA_?$AAg?$AAe?$AAt?$AA_?$AAa?$AAl?$AAl?$AA?$AA@ 0000000180114a30     libucrtd:wsetlocale.obj
 0002:00017a60       ??_C@_1DC@HMLJMODP@?$AAw?$AAc?$AAs?$AAc?$AAa?$AAt?$AA_?$AAs?$AA?$CI?$AAp?$AAc?$AAh?$AA?0?$AA?5?$AAc?$AAc?$AAh?$AA?0?$AA?5?$AAL?$AA?$CC?$AA?$DL?$AA?$CC?$AA?$CJ?$AA?$AA@ 0000000180114a60     libucrtd:wsetlocale.obj
 0002:00017aa0       ??_C@_1BM@OIIBLEFG@?$AA_?$AAe?$AAx?$AAp?$AAa?$AAn?$AAd?$AAl?$AAo?$AAc?$AAa?$AAl?$AAe?$AA?$AA@ 0000000180114aa0     libucrtd:wsetlocale.obj
 0002:00017ad0       ??_C@_1BCM@BOFLACKH@?$AAw?$AAc?$AAs?$AAn?$AAc?$AAp?$AAy?$AA_?$AAs?$AA?$CI?$AAl?$AAo?$AAc?$AAa?$AAl?$AAe?$AAN?$AAa?$AAm?$AAe?$AAO?$AAu?$AAt?$AAp?$AAu?$AAt?$AA?0?$AA?5?$AAl?$AAo?$AAc?$AAa@ 0000000180114ad0     libucrtd:wsetlocale.obj
 0002:00017c40       ??_C@_1EI@OCINLCHN@?$AAw?$AAc?$AAs?$AAc?$AAp?$AAy?$AA_?$AAs?$AA?$CI?$AAo?$AAu?$AAt?$AAp?$AAu?$AAt?$AA?0?$AA?5?$AAs?$AAi?$AAz?$AAe?$AAI?$AAn?$AAC?$AAh?$AAa?$AAr?$AAs?$AA?0?$AA?5?$AAL?$AA?$CC@ 0000000180114c40     libucrtd:wsetlocale.obj
 0002:00017c98       ??_C@_13FHBKNHDA@?$AAC?$AA?$AA@ 0000000180114c98     libucrtd:wsetlocale.obj
 0002:00017ca0       ??_C@_1MO@NNCNEOAP@?$AAw?$AAc?$AAs?$AAn?$AAc?$AAp?$AAy?$AA_?$AAs?$AA?$CI?$AAl?$AAo?$AAc?$AAa?$AAl?$AAe?$AAN?$AAa?$AAm?$AAe?$AAO?$AAu?$AAt?$AAp?$AAu?$AAt?$AA?0?$AA?5?$AAl?$AAo?$AAc?$AAa@ 0000000180114ca0     libucrtd:wsetlocale.obj
 0002:00017da0       ??_C@_1IG@MKDIEKFD@?$AAw?$AAc?$AAs?$AAn?$AAc?$AAp?$AAy?$AA_?$AAs?$AA?$CI?$AAc?$AAa?$AAc?$AAh?$AAe?$AAo?$AAu?$AAt?$AA?0?$AA?5?$AAc?$AAa?$AAc?$AAh?$AAe?$AAo?$AAu?$AAt?$AAL?$AAe?$AAn?$AA?0@ 0000000180114da0     libucrtd:wsetlocale.obj
 0002:00017e40       ??_C@_1KK@KMIFPBBC@?$AAw?$AAc?$AAs?$AAn?$AAc?$AAp?$AAy?$AA_?$AAs?$AA?$CI?$AAl?$AAo?$AAc?$AAa?$AAl?$AAe?$AAN?$AAa?$AAm?$AAe?$AAO?$AAu?$AAt?$AAp?$AAu?$AAt?$AA?0?$AA?5?$AAl?$AAo?$AAc?$AAa@ 0000000180114e40     libucrtd:wsetlocale.obj
 0002:00017f10       ??_C@_1BBO@MGLBPLBP@?$AAw?$AAc?$AAs?$AAn?$AAc?$AAp?$AAy?$AA_?$AAs?$AA?$CI?$AA_?$AAp?$AAs?$AAe?$AAt?$AAl?$AAo?$AAc?$AA_?$AAd?$AAa?$AAt?$AAa?$AA?9?$AA?$DO?$AA_?$AAc?$AAa?$AAc?$AAh?$AAe?$AAL@ 0000000180114f10     libucrtd:wsetlocale.obj
 0002:00018070       ??_C@_1BDK@DHHMOMPJ@?$AAw?$AAc?$AAs?$AAn?$AAc?$AAp?$AAy?$AA_?$AAs?$AA?$CI?$AA_?$AAp?$AAs?$AAe?$AAt?$AAl?$AAo?$AAc?$AA_?$AAd?$AAa?$AAt?$AAa?$AA?9?$AA?$DO?$AA_?$AAc?$AAa?$AAc?$AAh?$AAe?$AAL@ 0000000180115070     libucrtd:wsetlocale.obj
 0002:000181f0       ??_C@_1IC@FCCDBGLL@?$AAw?$AAc?$AAs?$AAn?$AAc?$AAp?$AAy?$AA_?$AAs?$AA?$CI?$AAc?$AAa?$AAc?$AAh?$AAe?$AAi?$AAn?$AA?0?$AA?5?$AAc?$AAa?$AAc?$AAh?$AAe?$AAi?$AAn?$AAL?$AAe?$AAn?$AA?0?$AA?5?$AAe@ 00000001801151f0     libucrtd:wsetlocale.obj
 0002:00018290       ??_C@_1FA@HOOAAHFF@?$AAw?$AAc?$AAs?$AAc?$AAp?$AAy?$AA_?$AAs?$AA?$CI?$AAo?$AAu?$AAt?$AAp?$AAu?$AAt?$AA?0?$AA?5?$AAs?$AAi?$AAz?$AAe?$AAI?$AAn?$AAC?$AAh?$AAa?$AAr?$AAs?$AA?0?$AA?5?$AAc?$AAa@ 0000000180115290     libucrtd:wsetlocale.obj
 0002:000182f0       ??_C@_1BC@LEOKFFML@?$AA_?$AAw?$AAc?$AAs?$AAc?$AAa?$AAt?$AAs?$AA?$AA@ 00000001801152f0     libucrtd:wsetlocale.obj
 0002:00018310       ??_C@_1CAG@PIBCFPMG@?$AAw?$AAc?$AAs?$AAc?$AAa?$AAt?$AA_?$AAs?$AA?$CI?$AAo?$AAu?$AAt?$AAs?$AAt?$AAr?$AA?0?$AA?5?$AAn?$AAu?$AAm?$AAb?$AAe?$AAr?$AAO?$AAf?$AAE?$AAl?$AAe?$AAm?$AAe?$AAn?$AAt@ 0000000180115310     libucrtd:wsetlocale.obj
 0002:00018580       ??_C@_1BK@GNCHCGCN@?$AA_?$AA_?$AAl?$AAc?$AA_?$AAw?$AAc?$AAs?$AAt?$AAo?$AAl?$AAc?$AA?$AA@ 0000000180115580     libucrtd:wsetlocale.obj
 0002:000185a0       ??_C@_1MI@MGHKCMFH@?$AAw?$AAc?$AAs?$AAn?$AAc?$AAp?$AAy?$AA_?$AAs?$AA?$CI?$AAn?$AAa?$AAm?$AAe?$AAs?$AA?9?$AA?$DO?$AAs?$AAz?$AAC?$AAo?$AAd?$AAe?$AAP?$AAa?$AAg?$AAe?$AA?0?$AA?5?$AA?$CI?$AAs?$AAi@ 00000001801155a0     libucrtd:wsetlocale.obj
 0002:00018690       ??_C@_17MBJJLFDM@?$AA_?$AA?4?$AA?0?$AA?$AA@ 0000000180115690     libucrtd:wsetlocale.obj
 0002:000186a0       ??_C@_1LO@GGCCDNLJ@?$AAw?$AAc?$AAs?$AAn?$AAc?$AAp?$AAy?$AA_?$AAs?$AA?$CI?$AAn?$AAa?$AAm?$AAe?$AAs?$AA?9?$AA?$DO?$AAs?$AAz?$AAL?$AAa?$AAn?$AAg?$AAu?$AAa?$AAg?$AAe?$AA?0?$AA?5?$AA?$CI?$AAs?$AAi@ 00000001801156a0     libucrtd:wsetlocale.obj
 0002:00018790       ??_C@_1LK@JOIOCOID@?$AAw?$AAc?$AAs?$AAn?$AAc?$AAp?$AAy?$AA_?$AAs?$AA?$CI?$AAn?$AAa?$AAm?$AAe?$AAs?$AA?9?$AA?$DO?$AAs?$AAz?$AAC?$AAo?$AAu?$AAn?$AAt?$AAr?$AAy?$AA?0?$AA?5?$AA?$CI?$AAs?$AAi?$AAz@ 0000000180115790     libucrtd:wsetlocale.obj
 0002:00018870       ??_C@_1LO@OJICFEP@?$AAw?$AAc?$AAs?$AAn?$AAc?$AAp?$AAy?$AA_?$AAs?$AA?$CI?$AAn?$AAa?$AAm?$AAe?$AAs?$AA?9?$AA?$DO?$AAs?$AAz?$AAC?$AAo?$AAd?$AAe?$AAP?$AAa?$AAg?$AAe?$AA?0?$AA?5?$AA?$CI?$AAs?$AAi@ 0000000180115870     libucrtd:wsetlocale.obj
 0002:00018958       ??_C@_1BK@HEBMGPEK@?$AA_?$AA_?$AAl?$AAc?$AA_?$AAl?$AAc?$AAt?$AAo?$AAw?$AAc?$AAs?$AA?$AA@ 0000000180115958     libucrtd:wsetlocale.obj
 0002:00018980       ??_C@_1GM@FOFMGOEK@?$AAw?$AAc?$AAs?$AAc?$AAp?$AAy?$AA_?$AAs?$AA?$CI?$AAl?$AAo?$AAc?$AAa?$AAl?$AAe?$AA?0?$AA?5?$AAn?$AAu?$AAm?$AAb?$AAe?$AAr?$AAO?$AAf?$AAE?$AAl?$AAe?$AAm?$AAe?$AAn?$AAt@ 0000000180115980     libucrtd:wsetlocale.obj
 0002:00018a04       ??_C@_13ENNFDPBH@?$AA_?$AA?$AA@ 0000000180115a04     libucrtd:wsetlocale.obj
 0002:00018a08       ??_C@_13JOFGPIOO@?$AA?4?$AA?$AA@ 0000000180115a08     libucrtd:wsetlocale.obj
 0002:00018a10       ??_C@_1DA@BBIOOKDN@?$AA_?$AA_?$AAa?$AAc?$AAr?$AAt?$AA_?$AAc?$AAo?$AAp?$AAy?$AA_?$AAl?$AAo?$AAc?$AAa?$AAl?$AAe?$AA_?$AAn?$AAa?$AAm?$AAe?$AA?$AA@ 0000000180115a10     libucrtd:wsetlocale.obj
 0002:00018a50       ??_C@_1GI@HBNMCKGD@?$AAw?$AAc?$AAs?$AAn?$AAc?$AAp?$AAy?$AA_?$AAs?$AA?$CI?$AAl?$AAo?$AAc?$AAa?$AAl?$AAe?$AAN?$AAa?$AAm?$AAe?$AAC?$AAo?$AAp?$AAy?$AA?0?$AA?5?$AAc?$AAc?$AAh?$AA?$CL?$AA1?$AA?0@ 0000000180115a50     libucrtd:wsetlocale.obj
 0002:00018ad0       __lc_time_c                0000000180115ad0     libucrtd:nlsdata.obj
 0002:00018e1c       ??_C@_03KOEHGMDN@Sun?$AA@  0000000180115e1c     libucrtd:nlsdata.obj
 0002:00018e20       ??_C@_03PDAGKDH@Mon?$AA@   0000000180115e20     libucrtd:nlsdata.obj
 0002:00018e24       ??_C@_03NAGEINEP@Tue?$AA@  0000000180115e24     libucrtd:nlsdata.obj
 0002:00018e28       ??_C@_03MHOMLAJA@Wed?$AA@  0000000180115e28     libucrtd:nlsdata.obj
 0002:00018e2c       ??_C@_03IOFIKPDN@Thu?$AA@  0000000180115e2c     libucrtd:nlsdata.obj
 0002:00018e30       ??_C@_03IDIOELNC@Fri?$AA@  0000000180115e30     libucrtd:nlsdata.obj
 0002:00018e34       ??_C@_03FEFJNEK@Sat?$AA@   0000000180115e34     libucrtd:nlsdata.obj
 0002:00018e38       ??_C@_06OOPIFAJ@Sunday?$AA@ 0000000180115e38     libucrtd:nlsdata.obj
 0002:00018e40       ??_C@_06JLEDEDGH@Monday?$AA@ 0000000180115e40     libucrtd:nlsdata.obj
 0002:00018e48       ??_C@_07BAAGCFCM@Tuesday?$AA@ 0000000180115e48     libucrtd:nlsdata.obj
 0002:00018e58       ??_C@_09DLIGFAKA@Wednesday?$AA@ 0000000180115e58     libucrtd:nlsdata.obj
 0002:00018e68       ??_C@_08HACCIKIA@Thursday?$AA@ 0000000180115e68     libucrtd:nlsdata.obj
 0002:00018e74       ??_C@_06JECMNKMI@Friday?$AA@ 0000000180115e74     libucrtd:nlsdata.obj
 0002:00018e80       ??_C@_08INBOOONO@Saturday?$AA@ 0000000180115e80     libucrtd:nlsdata.obj
 0002:00018e8c       ??_C@_03JIHJHPIE@Jan?$AA@  0000000180115e8c     libucrtd:nlsdata.obj
 0002:00018e90       ??_C@_03HJBDCHOM@Feb?$AA@  0000000180115e90     libucrtd:nlsdata.obj
 0002:00018e94       ??_C@_03ODNJBKGA@Mar?$AA@  0000000180115e94     libucrtd:nlsdata.obj
 0002:00018e98       ??_C@_03LEOLGMJP@Apr?$AA@  0000000180115e98     libucrtd:nlsdata.obj
 0002:00018e9c       ??_C@_03CNMDKL@May?$AA@    0000000180115e9c     libucrtd:nlsdata.obj
 0002:00018ea0       ??_C@_03IDFGHECI@Jun?$AA@  0000000180115ea0     libucrtd:nlsdata.obj
 0002:00018ea4       ??_C@_03LBGABGKK@Jul?$AA@  0000000180115ea4     libucrtd:nlsdata.obj
 0002:00018ea8       ??_C@_03IFJFEIGA@Aug?$AA@  0000000180115ea8     libucrtd:nlsdata.obj
 0002:00018eac       ??_C@_03GGCAPAJC@Sep?$AA@  0000000180115eac     libucrtd:nlsdata.obj
 0002:00018eb0       ??_C@_03BMAOKBAD@Oct?$AA@  0000000180115eb0     libucrtd:nlsdata.obj
 0002:00018eb4       ??_C@_03JPJOFNIA@Nov?$AA@  0000000180115eb4     libucrtd:nlsdata.obj
 0002:00018eb8       ??_C@_03MKABNOCG@Dec?$AA@  0000000180115eb8     libucrtd:nlsdata.obj
 0002:00018ec0       ??_C@_07CGJPFGJA@January?$AA@ 0000000180115ec0     libucrtd:nlsdata.obj
 0002:00018ed0       ??_C@_08GNJGEPFN@February?$AA@ 0000000180115ed0     libucrtd:nlsdata.obj
 0002:00018edc       ??_C@_05HPCKOFNC@March?$AA@ 0000000180115edc     libucrtd:nlsdata.obj
 0002:00018ee4       ??_C@_05DMJDNLEJ@April?$AA@ 0000000180115ee4     libucrtd:nlsdata.obj
 0002:00018eec       ??_C@_04CNLMGBGM@June?$AA@ 0000000180115eec     libucrtd:nlsdata.obj
 0002:00018ef4       ??_C@_04MIEPOIFP@July?$AA@ 0000000180115ef4     libucrtd:nlsdata.obj
 0002:00018efc       ??_C@_06LBBHFDDG@August?$AA@ 0000000180115efc     libucrtd:nlsdata.obj
 0002:00018f08       ??_C@_09BHHEALKD@September?$AA@ 0000000180115f08     libucrtd:nlsdata.obj
 0002:00018f18       ??_C@_07JJNFCEND@October?$AA@ 0000000180115f18     libucrtd:nlsdata.obj
 0002:00018f28       ??_C@_08HCHEGEOA@November?$AA@ 0000000180115f28     libucrtd:nlsdata.obj
 0002:00018f38       ??_C@_08EDHMEBNP@December?$AA@ 0000000180115f38     libucrtd:nlsdata.obj
 0002:00018f44       ??_C@_02DEDBPAFC@AM?$AA@   0000000180115f44     libucrtd:nlsdata.obj
 0002:00018f48       ??_C@_02CJNFDJBF@PM?$AA@   0000000180115f48     libucrtd:nlsdata.obj
 0002:00018f50       ??_C@_08BPBNCDIB@MM?1dd?1yy?$AA@ 0000000180115f50     libucrtd:nlsdata.obj
 0002:00018f60       ??_C@_0BE@CKGJFCPC@dddd?0?5MMMM?5dd?0?5yyyy?$AA@ 0000000180115f60     libucrtd:nlsdata.obj
 0002:00018f78       ??_C@_08JCCMCCIL@HH?3mm?3ss?$AA@ 0000000180115f78     libucrtd:nlsdata.obj
 0002:00018f88       ??_C@_17MBGCMIPB@?$AAS?$AAu?$AAn?$AA?$AA@ 0000000180115f88     libucrtd:nlsdata.obj
 0002:00018f98       ??_C@_17KBOMKBF@?$AAM?$AAo?$AAn?$AA?$AA@ 0000000180115f98     libucrtd:nlsdata.obj
 0002:00018fa8       ??_C@_17BMKGEGOJ@?$AAT?$AAu?$AAe?$AA?$AA@ 0000000180115fa8     libucrtd:nlsdata.obj
 0002:00018fb8       ??_C@_17CJEDCEPE@?$AAW?$AAe?$AAd?$AA?$AA@ 0000000180115fb8     libucrtd:nlsdata.obj
 0002:00018fc8       ??_C@_17PDPHAADD@?$AAT?$AAh?$AAu?$AA?$AA@ 0000000180115fc8     libucrtd:nlsdata.obj
 0002:00018fd8       ??_C@_17HFOLPPLP@?$AAF?$AAr?$AAi?$AA?$AA@ 0000000180115fd8     libucrtd:nlsdata.obj
 0002:00018fe8       ??_C@_17GGIBDPIH@?$AAS?$AAa?$AAt?$AA?$AA@ 0000000180115fe8     libucrtd:nlsdata.obj
 0002:00018ff8       ??_C@_1O@IHNHDHPB@?$AAS?$AAu?$AAn?$AAd?$AAa?$AAy?$AA?$AA@ 0000000180115ff8     libucrtd:nlsdata.obj
 0002:00019008       ??_C@_1O@MMNBFLIA@?$AAM?$AAo?$AAn?$AAd?$AAa?$AAy?$AA?$AA@ 0000000180116008     libucrtd:nlsdata.obj
 0002:00019018       ??_C@_1BA@ENFBFFEK@?$AAT?$AAu?$AAe?$AAs?$AAd?$AAa?$AAy?$AA?$AA@ 0000000180116018     libucrtd:nlsdata.obj
 0002:00019030       ??_C@_1BE@EBOGMDOH@?$AAW?$AAe?$AAd?$AAn?$AAe?$AAs?$AAd?$AAa?$AAy?$AA?$AA@ 0000000180116030     libucrtd:nlsdata.obj
 0002:00019048       ??_C@_1BC@HHMNLIHE@?$AAT?$AAh?$AAu?$AAr?$AAs?$AAd?$AAa?$AAy?$AA?$AA@ 0000000180116048     libucrtd:nlsdata.obj
 0002:00019060       ??_C@_1O@PDICJHAG@?$AAF?$AAr?$AAi?$AAd?$AAa?$AAy?$AA?$AA@ 0000000180116060     libucrtd:nlsdata.obj
 0002:00019070       ??_C@_1BC@ENMNNPAJ@?$AAS?$AAa?$AAt?$AAu?$AAr?$AAd?$AAa?$AAy?$AA?$AA@ 0000000180116070     libucrtd:nlsdata.obj
 0002:00019088       ??_C@_17DKNBKCHM@?$AAJ?$AAa?$AAn?$AA?$AA@ 0000000180116088     libucrtd:nlsdata.obj
 0002:00019098       ??_C@_17LMDJEKJN@?$AAF?$AAe?$AAb?$AA?$AA@ 0000000180116098     libucrtd:nlsdata.obj
 0002:000190a8       ??_C@_17CKNLEDEC@?$AAM?$AAa?$AAr?$AA?$AA@ 00000001801160a8     libucrtd:nlsdata.obj
 0002:000190b8       ??_C@_17LFPOIHDD@?$AAA?$AAp?$AAr?$AA?$AA@ 00000001801160b8     libucrtd:nlsdata.obj
 0002:000190c8       ??_C@_17PNNKMEED@?$AAM?$AAa?$AAy?$AA?$AA@ 00000001801160c8     libucrtd:nlsdata.obj
 0002:000190d8       ??_C@_17KCJGOCPB@?$AAJ?$AAu?$AAn?$AA?$AA@ 00000001801160d8     libucrtd:nlsdata.obj
 0002:000190e8       ??_C@_17IJPCKHK@?$AAJ?$AAu?$AAl?$AA?$AA@ 00000001801160e8     libucrtd:nlsdata.obj
 0002:000190f8       ??_C@_17ICPELBCN@?$AAA?$AAu?$AAg?$AA?$AA@ 00000001801160f8     libucrtd:nlsdata.obj
 0002:00019108       ??_C@_17HCHCOKMG@?$AAS?$AAe?$AAp?$AA?$AA@ 0000000180116108     libucrtd:nlsdata.obj
 0002:00019118       ??_C@_17FNLKOI@?$AAO?$AAc?$AAt?$AA?$AA@ 0000000180116118     libucrtd:nlsdata.obj
 0002:00019128       ??_C@_17BBDMLCIG@?$AAN?$AAo?$AAv?$AA?$AA@ 0000000180116128     libucrtd:nlsdata.obj
 0002:00019138       ??_C@_17EGKACKIF@?$AAD?$AAe?$AAc?$AA?$AA@ 0000000180116138     libucrtd:nlsdata.obj
 0002:00019148       ??_C@_1BA@EFMEIEBA@?$AAJ?$AAa?$AAn?$AAu?$AAa?$AAr?$AAy?$AA?$AA@ 0000000180116148     libucrtd:nlsdata.obj
 0002:00019160       ??_C@_1BC@JGDDFFAM@?$AAF?$AAe?$AAb?$AAr?$AAu?$AAa?$AAr?$AAy?$AA?$AA@ 0000000180116160     libucrtd:nlsdata.obj
 0002:00019178       ??_C@_1M@IKEENEDF@?$AAM?$AAa?$AAr?$AAc?$AAh?$AA?$AA@ 0000000180116178     libucrtd:nlsdata.obj
 0002:00019188       ??_C@_1M@GJNLMHFD@?$AAA?$AAp?$AAr?$AAi?$AAl?$AA?$AA@ 0000000180116188     libucrtd:nlsdata.obj
 0002:00019198       ??_C@_19EPFLPGAP@?$AAJ?$AAu?$AAn?$AAe?$AA?$AA@ 0000000180116198     libucrtd:nlsdata.obj
 0002:000191a8       ??_C@_19BIFMLPCD@?$AAJ?$AAu?$AAl?$AAy?$AA?$AA@ 00000001801161a8     libucrtd:nlsdata.obj
 0002:000191b8       ??_C@_1O@PAHLKOAC@?$AAA?$AAu?$AAg?$AAu?$AAs?$AAt?$AA?$AA@ 00000001801161b8     libucrtd:nlsdata.obj
 0002:000191c8       ??_C@_1BE@DKAAMBJL@?$AAS?$AAe?$AAp?$AAt?$AAe?$AAm?$AAb?$AAe?$AAr?$AA?$AA@ 00000001801161c8     libucrtd:nlsdata.obj
 0002:000191e0       ??_C@_1BA@EPANDLNG@?$AAO?$AAc?$AAt?$AAo?$AAb?$AAe?$AAr?$AA?$AA@ 00000001801161e0     libucrtd:nlsdata.obj
 0002:000191f8       ??_C@_1BC@BGLIFPF@?$AAN?$AAo?$AAv?$AAe?$AAm?$AAb?$AAe?$AAr?$AA?$AA@ 00000001801161f8     libucrtd:nlsdata.obj
 0002:00019210       ??_C@_1BC@FEMKIFH@?$AAD?$AAe?$AAc?$AAe?$AAm?$AAb?$AAe?$AAr?$AA?$AA@ 0000000180116210     libucrtd:nlsdata.obj
 0002:00019228       ??_C@_15ODEHAHHF@?$AAA?$AAM?$AA?$AA@ 0000000180116228     libucrtd:nlsdata.obj
 0002:00019230       ??_C@_15CLMNNGEL@?$AAP?$AAM?$AA?$AA@ 0000000180116230     libucrtd:nlsdata.obj
 0002:00019238       ??_C@_1BC@IEBCMHCM@?$AAM?$AAM?$AA?1?$AAd?$AAd?$AA?1?$AAy?$AAy?$AA?$AA@ 0000000180116238     libucrtd:nlsdata.obj
 0002:00019250       ??_C@_1CI@KNAKOEBC@?$AAd?$AAd?$AAd?$AAd?$AA?0?$AA?5?$AAM?$AAM?$AAM?$AAM?$AA?5?$AAd?$AAd?$AA?0?$AA?5?$AAy?$AAy?$AAy?$AAy?$AA?$AA@ 0000000180116250     libucrtd:nlsdata.obj
 0002:00019280       ??_C@_1BC@GDGBMEMK@?$AAH?$AAH?$AA?3?$AAm?$AAm?$AA?3?$AAs?$AAs?$AA?$AA@ 0000000180116280     libucrtd:nlsdata.obj
 0002:00019298       ??_C@_1M@BMHNFIME@?$AAe?$AAn?$AA?9?$AAU?$AAS?$AA?$AA@ 0000000180116298     libucrtd:nlsdata.obj
 0002:000192a8       ??_C@_1CO@HCPPKOH@?$AA_?$AA_?$AAa?$AAc?$AAr?$AAt?$AA_?$AAh?$AAe?$AAa?$AAp?$AA?5?$AA?$CB?$AA?$DN?$AA?5?$AAn?$AAu?$AAl?$AAl?$AAp?$AAt?$AAr?$AA?$AA@ 00000001801162a8     libucrtd:heap_handle.obj
 0002:000192e0       ??_C@_1GI@OADBAEGE@?$AAm?$AAi?$AAn?$AAk?$AAe?$AAr?$AAn?$AAe?$AAl?$AA?2?$AAc?$AAr?$AAt?$AAs?$AA?2?$AAu?$AAc?$AAr?$AAt?$AA?2?$AAs?$AAr?$AAc?$AA?2?$AAa?$AAp?$AAp?$AAc?$AAr?$AAt?$AA?2?$AAh@ 00000001801162e0     libucrtd:heap_handle.obj
 0002:00019420       ??_C@_1EG@CNNIPFIM@?$AAa?$AAp?$AAi?$AA?9?$AAm?$AAs?$AA?9?$AAw?$AAi?$AAn?$AA?9?$AAa?$AAp?$AAp?$AAm?$AAo?$AAd?$AAe?$AAl?$AA?9?$AAr?$AAu?$AAn?$AAt?$AAi?$AAm?$AAe?$AA?9?$AAl?$AA1?$AA?9?$AA1@ 0000000180116420     libucrtd:winapi_thunks.obj
 0002:00019480       ??_C@_1EA@JGEFHKEI@?$AAa?$AAp?$AAi?$AA?9?$AAm?$AAs?$AA?9?$AAw?$AAi?$AAn?$AA?9?$AAc?$AAo?$AAr?$AAe?$AA?9?$AAd?$AAa?$AAt?$AAe?$AAt?$AAi?$AAm?$AAe?$AA?9?$AAl?$AA1?$AA?9?$AA1?$AA?9?$AA1?$AA?$AA@ 0000000180116480     libucrtd:winapi_thunks.obj
 0002:000194d0       ??_C@_1DI@GCIAAENM@?$AAa?$AAp?$AAi?$AA?9?$AAm?$AAs?$AA?9?$AAw?$AAi?$AAn?$AA?9?$AAc?$AAo?$AAr?$AAe?$AA?9?$AAf?$AAi?$AAl?$AAe?$AA?9?$AAl?$AA2?$AA?9?$AA1?$AA?9?$AA1?$AA?$AA@ 00000001801164d0     libucrtd:winapi_thunks.obj
 0002:00019520       ??_C@_1EI@MPIAOHOC@?$AAa?$AAp?$AAi?$AA?9?$AAm?$AAs?$AA?9?$AAw?$AAi?$AAn?$AA?9?$AAc?$AAo?$AAr?$AAe?$AA?9?$AAl?$AAo?$AAc?$AAa?$AAl?$AAi?$AAz?$AAa?$AAt?$AAi?$AAo?$AAn?$AA?9?$AAl?$AA1?$AA?9@ 0000000180116520     libucrtd:winapi_thunks.obj
 0002:00019580       ??_C@_1FK@FPHCKFIE@?$AAa?$AAp?$AAi?$AA?9?$AAm?$AAs?$AA?9?$AAw?$AAi?$AAn?$AA?9?$AAc?$AAo?$AAr?$AAe?$AA?9?$AAl?$AAo?$AAc?$AAa?$AAl?$AAi?$AAz?$AAa?$AAt?$AAi?$AAo?$AAn?$AA?9?$AAo?$AAb?$AAs@ 0000000180116580     libucrtd:winapi_thunks.obj
 0002:000195f0       ??_C@_1EM@DILCGIIO@?$AAa?$AAp?$AAi?$AA?9?$AAm?$AAs?$AA?9?$AAw?$AAi?$AAn?$AA?9?$AAc?$AAo?$AAr?$AAe?$AA?9?$AAp?$AAr?$AAo?$AAc?$AAe?$AAs?$AAs?$AAt?$AAh?$AAr?$AAe?$AAa?$AAd?$AAs?$AA?9?$AAl@ 00000001801165f0     libucrtd:winapi_thunks.obj
 0002:00019650       ??_C@_1DM@LNCGDDPN@?$AAa?$AAp?$AAi?$AA?9?$AAm?$AAs?$AA?9?$AAw?$AAi?$AAn?$AA?9?$AAc?$AAo?$AAr?$AAe?$AA?9?$AAs?$AAt?$AAr?$AAi?$AAn?$AAg?$AA?9?$AAl?$AA1?$AA?9?$AA1?$AA?9?$AA0?$AA?$AA@ 0000000180116650     libucrtd:winapi_thunks.obj
 0002:00019698       ??_C@_1DO@FPAPJEMD@?$AAa?$AAp?$AAi?$AA?9?$AAm?$AAs?$AA?9?$AAw?$AAi?$AAn?$AA?9?$AAc?$AAo?$AAr?$AAe?$AA?9?$AAs?$AAy?$AAs?$AAi?$AAn?$AAf?$AAo?$AA?9?$AAl?$AA1?$AA?9?$AA2?$AA?9?$AA1?$AA?$AA@ 0000000180116698     libucrtd:winapi_thunks.obj
 0002:000196e8       ??_C@_1DK@NDHNAHIO@?$AAa?$AAp?$AAi?$AA?9?$AAm?$AAs?$AA?9?$AAw?$AAi?$AAn?$AA?9?$AAc?$AAo?$AAr?$AAe?$AA?9?$AAw?$AAi?$AAn?$AAr?$AAt?$AA?9?$AAl?$AA1?$AA?9?$AA1?$AA?9?$AA0?$AA?$AA@ 00000001801166e8     libucrtd:winapi_thunks.obj
 0002:00019730       ??_C@_1DM@KGHDGBCM@?$AAa?$AAp?$AAi?$AA?9?$AAm?$AAs?$AA?9?$AAw?$AAi?$AAn?$AA?9?$AAc?$AAo?$AAr?$AAe?$AA?9?$AAx?$AAs?$AAt?$AAa?$AAt?$AAe?$AA?9?$AAl?$AA2?$AA?9?$AA1?$AA?9?$AA0?$AA?$AA@ 0000000180116730     libucrtd:winapi_thunks.obj
 0002:00019780       ??_C@_1EO@IJIOEFOH@?$AAa?$AAp?$AAi?$AA?9?$AAm?$AAs?$AA?9?$AAw?$AAi?$AAn?$AA?9?$AAr?$AAt?$AAc?$AAo?$AAr?$AAe?$AA?9?$AAn?$AAt?$AAu?$AAs?$AAe?$AAr?$AA?9?$AAw?$AAi?$AAn?$AAd?$AAo?$AAw?$AA?9@ 0000000180116780     libucrtd:winapi_thunks.obj
 0002:000197e0       ??_C@_1FG@HHGEKANL@?$AAa?$AAp?$AAi?$AA?9?$AAm?$AAs?$AA?9?$AAw?$AAi?$AAn?$AA?9?$AAs?$AAe?$AAc?$AAu?$AAr?$AAi?$AAt?$AAy?$AA?9?$AAs?$AAy?$AAs?$AAt?$AAe?$AAm?$AAf?$AAu?$AAn?$AAc?$AAt?$AAi@ 00000001801167e0     libucrtd:winapi_thunks.obj
 0002:00019850       ??_C@_1FG@NCKKOLKO@?$AAe?$AAx?$AAt?$AA?9?$AAm?$AAs?$AA?9?$AAw?$AAi?$AAn?$AA?9?$AAk?$AAe?$AAr?$AAn?$AAe?$AAl?$AA3?$AA2?$AA?9?$AAp?$AAa?$AAc?$AAk?$AAa?$AAg?$AAe?$AA?9?$AAc?$AAu?$AAr?$AAr@ 0000000180116850     libucrtd:winapi_thunks.obj
 0002:000198c0       ??_C@_1EG@DBIOJECG@?$AAe?$AAx?$AAt?$AA?9?$AAm?$AAs?$AA?9?$AAw?$AAi?$AAn?$AA?9?$AAn?$AAt?$AAu?$AAs?$AAe?$AAr?$AA?9?$AAd?$AAi?$AAa?$AAl?$AAo?$AAg?$AAb?$AAo?$AAx?$AA?9?$AAl?$AA1?$AA?9?$AA1@ 00000001801168c0     libucrtd:winapi_thunks.obj
 0002:00019920       ??_C@_1EO@FIHMJCLF@?$AAe?$AAx?$AAt?$AA?9?$AAm?$AAs?$AA?9?$AAw?$AAi?$AAn?$AA?9?$AAn?$AAt?$AAu?$AAs?$AAe?$AAr?$AA?9?$AAw?$AAi?$AAn?$AAd?$AAo?$AAw?$AAs?$AAt?$AAa?$AAt?$AAi?$AAo?$AAn?$AA?9@ 0000000180116920     libucrtd:winapi_thunks.obj
 0002:00019980       ??_C@_1O@BCCLBEOE@?$AAu?$AAs?$AAe?$AAr?$AA3?$AA2?$AA?$AA@ 0000000180116980     libucrtd:winapi_thunks.obj
 0002:00019990       ??_C@_1HE@OILMBOBA@?$AAm?$AAi?$AAn?$AAk?$AAe?$AAr?$AAn?$AAe?$AAl?$AA?2?$AAc?$AAr?$AAt?$AAs?$AA?2?$AAu?$AAc?$AAr?$AAt?$AA?2?$AAs?$AAr?$AAc?$AA?2?$AAa?$AAp?$AAp?$AAc?$AAr?$AAt?$AA?2?$AAi@ 0000000180116990     libucrtd:winapi_thunks.obj
 0002:00019a20       ??_C@_0BA@FHFNEAED@AreFileApisANSI?$AA@ 0000000180116a20     libucrtd:winapi_thunks.obj
 0002:00019a48       ??_C@_0BA@IHGNDAEB@CompareStringEx?$AA@ 0000000180116a48     libucrtd:winapi_thunks.obj
 0002:00019a70       ??_C@_0BE@LJANKFHF@EnumSystemLocalesEx?$AA@ 0000000180116a70     libucrtd:winapi_thunks.obj
 0002:00019ad8       ??_C@_0BA@HNOPNCHB@GetActiveWindow?$AA@ 0000000180116ad8     libucrtd:winapi_thunks.obj
 0002:00019b00       ??_C@_0BE@JOGNEJCI@GetCurrentPackageId?$AA@ 0000000180116b00     libucrtd:winapi_thunks.obj
 0002:00019b28       ??_C@_0BA@EPCJIIPD@GetDateFormatEx?$AA@ 0000000180116b28     libucrtd:winapi_thunks.obj
 0002:00019b50       ??_C@_0BJ@DIBIJBHA@GetEnabledXStateFeatures?$AA@ 0000000180116b50     libucrtd:winapi_thunks.obj
 0002:00019b80       ??_C@_0BN@NEEHBBPO@GetFileInformationByHandleEx?$AA@ 0000000180116b80     libucrtd:winapi_thunks.obj
 0002:00019bb8       ??_C@_0BD@HHGDFDBJ@GetLastActivePopup?$AA@ 0000000180116bb8     libucrtd:winapi_thunks.obj
 0002:00019be0       ??_C@_0BA@ONOKGCMP@GetLocaleInfoEx?$AA@ 0000000180116be0     libucrtd:winapi_thunks.obj
 0002:00019c08       ??_C@_0BI@DFKBFLJE@GetProcessWindowStation?$AA@ 0000000180116c08     libucrtd:winapi_thunks.obj
 0002:00019c28       ??_C@_0BP@FPNJPEJC@GetSystemTimePreciseAsFileTime?$AA@ 0000000180116c28     libucrtd:winapi_thunks.obj
 0002:00019c60       ??_C@_0BA@CIJJKCJJ@GetTimeFormatEx?$AA@ 0000000180116c60     libucrtd:winapi_thunks.obj
 0002:00019c88       ??_C@_0BJ@PBCCBIPI@GetUserDefaultLocaleName?$AA@ 0000000180116c88     libucrtd:winapi_thunks.obj
 0002:00019cb8       ??_C@_0BK@DEKFELLI@GetUserObjectInformationW?$AA@ 0000000180116cb8     libucrtd:winapi_thunks.obj
 0002:00019ce8       ??_C@_0BG@IKLDMBLM@GetXStateFeaturesMask?$AA@ 0000000180116ce8     libucrtd:winapi_thunks.obj
 0002:00019d28       ??_C@_0BC@CELBKLLA@IsValidLocaleName?$AA@ 0000000180116d28     libucrtd:winapi_thunks.obj
 0002:00019d50       ??_C@_0O@KKBNKAPF@LCMapStringEx?$AA@ 0000000180116d50     libucrtd:winapi_thunks.obj
 0002:00019d70       ??_C@_0BB@CDHDDLLP@LCIDToLocaleName?$AA@ 0000000180116d70     libucrtd:winapi_thunks.obj
 0002:00019d98       ??_C@_0BB@HBDEELFH@LocaleNameToLCID?$AA@ 0000000180116d98     libucrtd:winapi_thunks.obj
 0002:00019dc0       ??_C@_0BE@KINNKFDA@LocateXStateFeature?$AA@ 0000000180116dc0     libucrtd:winapi_thunks.obj
 0002:00019de8       ??_C@_0M@CHKKJDAI@MessageBoxA?$AA@ 0000000180116de8     libucrtd:winapi_thunks.obj
 0002:00019e08       ??_C@_0M@DLDCCGNP@MessageBoxW?$AA@ 0000000180116e08     libucrtd:winapi_thunks.obj
 0002:00019e20       ??_C@_0N@PPOMPGGK@RoInitialize?$AA@ 0000000180116e20     libucrtd:winapi_thunks.obj
 0002:00019e38       ??_C@_0P@LLFHBIJD@RoUninitialize?$AA@ 0000000180116e38     libucrtd:winapi_thunks.obj
 0002:00019e60       ??_C@_0BI@BKLFFAPO@SetThreadStackGuarantee?$AA@ 0000000180116e60     libucrtd:winapi_thunks.obj
 0002:00019e90       ??_C@_0BC@JEAENNKH@SystemFunction036?$AA@ 0000000180116e90     libucrtd:winapi_thunks.obj
 0002:00019ea8       ??_C@_1DC@JKJAOJNC@?$AAc?$AAa?$AAc?$AAh?$AAe?$AAd?$AA_?$AAs?$AAt?$AAa?$AAt?$AAe?$AA?5?$AA?$DN?$AA?$DN?$AA?5?$AAp?$AAa?$AAc?$AAk?$AAa?$AAg?$AAe?$AAd?$AA?$AA@ 0000000180116ea8     libucrtd:winapi_thunks.obj
 0002:00019ee8       ??_C@_1DK@JOPMHFDB@?$AAc?$AAa?$AAc?$AAh?$AAe?$AAd?$AA_?$AAs?$AAt?$AAa?$AAt?$AAe?$AA?5?$AA?$DN?$AA?$DN?$AA?5?$AAn?$AAo?$AAt?$AA_?$AAp?$AAa?$AAc?$AAk?$AAa?$AAg?$AAe?$AAd?$AA?$AA@ 0000000180116ee8     libucrtd:winapi_thunks.obj
 0002:00019f30       ??_C@_1HE@CEMHPOHH@?$AAm?$AAi?$AAn?$AAk?$AAe?$AAr?$AAn?$AAe?$AAl?$AA?2?$AAc?$AAr?$AAt?$AAs?$AA?2?$AAu?$AAc?$AAr?$AAt?$AA?2?$AAs?$AAr?$AAc?$AA?2?$AAa?$AAp?$AAp?$AAc?$AAr?$AAt?$AA?2?$AAs@ 0000000180116f30     libucrtd:argv_wildcards.obj
 0002:00019fc0       ??_C@_1DK@IBFFOJGB@?$AAc?$AAo?$AAm?$AAm?$AAo?$AAn?$AA_?$AAe?$AAx?$AAp?$AAa?$AAn?$AAd?$AA_?$AAa?$AAr?$AAg?$AAv?$AA_?$AAw?$AAi?$AAl?$AAd?$AAc?$AAa?$AAr?$AAd?$AAs?$AA?$AA@ 0000000180116fc0     libucrtd:argv_wildcards.obj
 0002:0001a010       ??_C@_1MC@FLPKOFON@?$AAt?$AAr?$AAa?$AAi?$AAt?$AAs?$AA?3?$AA?3?$AAt?$AAc?$AAs?$AAn?$AAc?$AAp?$AAy?$AA_?$AAs?$AA?$CI?$AA?5?$AAc?$AAh?$AAa?$AAr?$AAa?$AAc?$AAt?$AAe?$AAr?$AA_?$AAi?$AAt?$AA?0@ 0000000180117010     libucrtd:argv_wildcards.obj
 0002:0001a0f8       ??_C@_0DK@FPFMIIJB@minkernel?2crts?2ucrt?2src?2appcrt?2s@ 00000001801170f8     libucrtd:argv_wildcards.obj
 0002:0001a140       ??_C@_1EA@KOCCBLAD@?$AAc?$AAo?$AAp?$AAy?$AA_?$AAa?$AAn?$AAd?$AA_?$AAa?$AAd?$AAd?$AA_?$AAa?$AAr?$AAg?$AAu?$AAm?$AAe?$AAn?$AAt?$AA_?$AAt?$AAo?$AA_?$AAb?$AAu?$AAf?$AAf?$AAe?$AAr?$AA?$AA@ 0000000180117140     libucrtd:argv_wildcards.obj
 0002:0001a190       ??_C@_1KM@GDJIGAGL@?$AAt?$AAr?$AAa?$AAi?$AAt?$AAs?$AA?3?$AA?3?$AAt?$AAc?$AAs?$AAn?$AAc?$AAp?$AAy?$AA_?$AAs?$AA?$CI?$AAa?$AAr?$AAg?$AAu?$AAm?$AAe?$AAn?$AAt?$AA_?$AAb?$AAu?$AAf?$AAf?$AAe@ 0000000180117190     libucrtd:argv_wildcards.obj
 0002:0001a260       ??_C@_1PI@FGFLAGCC@?$AAt?$AAr?$AAa?$AAi?$AAt?$AAs?$AA?3?$AA?3?$AAt?$AAc?$AAs?$AAn?$AAc?$AAp?$AAy?$AA_?$AAs?$AA?$CI?$AA?5?$AAa?$AAr?$AAg?$AAu?$AAm?$AAe?$AAn?$AAt?$AA_?$AAb?$AAu?$AAf?$AAf@ 0000000180117260     libucrtd:argv_wildcards.obj
 0002:0001a3b8       ??_C@_1M@HPNHIDJI@?$AAj?$AAa?$AA?9?$AAJ?$AAP?$AA?$AA@ 00000001801173b8     libucrtd:mbctype.obj
 0002:0001a3c8       ??_C@_1M@BIBDDEMK@?$AAz?$AAh?$AA?9?$AAC?$AAN?$AA?$AA@ 00000001801173c8     libucrtd:mbctype.obj
 0002:0001a3d8       ??_C@_1M@JLOOOEGK@?$AAk?$AAo?$AA?9?$AAK?$AAR?$AA?$AA@ 00000001801173d8     libucrtd:mbctype.obj
 0002:0001a3e8       ??_C@_1M@CLNBBOPM@?$AAz?$AAh?$AA?9?$AAT?$AAW?$AA?$AA@ 00000001801173e8     libucrtd:mbctype.obj
 0002:0001a3f8       ??_C@_0DE@HGDKNBFD@minkernel?2crts?2ucrt?2src?2appcrt?2m@ 00000001801173f8     libucrtd:mbctype.obj
 0002:0001a440       ??_C@_1GK@EMNILMBI@?$AAm?$AAi?$AAn?$AAk?$AAe?$AAr?$AAn?$AAe?$AAl?$AA?2?$AAc?$AAr?$AAt?$AAs?$AA?2?$AAu?$AAc?$AAr?$AAt?$AA?2?$AAs?$AAr?$AAc?$AA?2?$AAa?$AAp?$AAp?$AAc?$AAr?$AAt?$AA?2?$AAs@ 0000000180117440     libucrtd:argv_data.obj
 0002:0001a4c0       ??_C@_1BK@PNLDCCDP@?$AA_?$AAg?$AAe?$AAt?$AA_?$AAw?$AAp?$AAg?$AAm?$AAp?$AAt?$AAr?$AA?$AA@ 00000001801174c0     libucrtd:argv_data.obj
 0002:0001a4e0       ??_C@_1CI@ENCADPBF@?$AA_?$AAw?$AAp?$AAg?$AAm?$AAp?$AAt?$AAr?$AA?5?$AA?$CB?$AA?$DN?$AA?5?$AAn?$AAu?$AAl?$AAl?$AAp?$AAt?$AAr?$AA?$AA@ 00000001801174e0     libucrtd:argv_data.obj
 0002:0001a510       ??_C@_1BI@COAAPHJK@?$AA_?$AAg?$AAe?$AAt?$AA_?$AAp?$AAg?$AAm?$AAp?$AAt?$AAr?$AA?$AA@ 0000000180117510     libucrtd:argv_data.obj
 0002:0001a530       ??_C@_1CG@CKJHPBDG@?$AA_?$AAp?$AAg?$AAm?$AAp?$AAt?$AAr?$AA?5?$AA?$CB?$AA?$DN?$AA?5?$AAn?$AAu?$AAl?$AAl?$AAp?$AAt?$AAr?$AA?$AA@ 0000000180117530     libucrtd:argv_data.obj
 0002:0001a560       ??_C@_0ED@BLPEHJAI@minkernel?2crts?2ucrt?2src?2desktopc@ 0000000180117560     libucrtd:get_environment_from_os.obj
 0002:0001a5b0       ??_C@_1DO@PANKIJNP@?$AAe?$AAq?$AAu?$AAa?$AAl?$AA_?$AAs?$AAi?$AAg?$AAn?$AA?5?$AA?9?$AA?5?$AAo?$AAp?$AAt?$AAi?$AAo?$AAn?$AA?5?$AA?$DM?$AA?5?$AA_?$AAM?$AAA?$AAX?$AA_?$AAE?$AAN?$AAV?$AA?$AA@ 00000001801175b0     libucrtd:setenv.obj
 0002:0001a600       ??_C@_1GE@MMOHBENP@?$AAm?$AAi?$AAn?$AAk?$AAe?$AAr?$AAn?$AAe?$AAl?$AA?2?$AAc?$AAr?$AAt?$AAs?$AA?2?$AAu?$AAc?$AAr?$AAt?$AA?2?$AAs?$AAr?$AAc?$AA?2?$AAd?$AAe?$AAs?$AAk?$AAt?$AAo?$AAp?$AAc@ 0000000180117600     libucrtd:setenv.obj
 0002:0001a680       ??_C@_1GK@KBABANDM@?$AAt?$AAr?$AAa?$AAi?$AAt?$AAs?$AA?3?$AA?3?$AAt?$AAc?$AAs?$AAn?$AAl?$AAe?$AAn?$AA?$CI?$AAe?$AAq?$AAu?$AAa?$AAl?$AA_?$AAs?$AAi?$AAg?$AAn?$AA?5?$AA?$CL?$AA?5?$AA1?$AA?0?$AA?5@ 0000000180117680     libucrtd:setenv.obj
 0002:0001a700       ??_C@_0DC@NJKMKCIL@minkernel?2crts?2ucrt?2src?2desktopc@ 0000000180117700     libucrtd:setenv.obj
 0002:0001a740       ??_C@_1EC@IKJPFBIM@?$AA?$CI?$AA?$CC?$AAC?$AAR?$AAT?$AA?5?$AAl?$AAo?$AAg?$AAi?$AAc?$AA?5?$AAe?$AAr?$AAr?$AAo?$AAr?$AA?5?$AAi?$AAn?$AA?5?$AAs?$AAe?$AAt?$AAe?$AAn?$AAv?$AA?$CC?$AA?0?$AA?5?$AA0?$AA?$CJ@ 0000000180117740     libucrtd:setenv.obj
 0002:0001a790       ??_C@_1FE@KHMDCEEJ@?$AAc?$AAo?$AAm?$AAm?$AAo?$AAn?$AA_?$AAs?$AAe?$AAt?$AA_?$AAv?$AAa?$AAr?$AAi?$AAa?$AAb?$AAl?$AAe?$AA_?$AAi?$AAn?$AA_?$AAe?$AAn?$AAv?$AAi?$AAr?$AAo?$AAn?$AAm?$AAe@ 0000000180117790     libucrtd:setenv.obj
 0002:0001a800       ??_C@_1EM@NIOJJLEA@?$AAt?$AAr?$AAa?$AAi?$AAt?$AAs?$AA?3?$AA?3?$AAt?$AAc?$AAs?$AAc?$AAp?$AAy?$AA_?$AAs?$AA?$CI?$AAn?$AAa?$AAm?$AAe?$AA?0?$AA?5?$AAc?$AAo?$AAu?$AAn?$AAt?$AA?0?$AA?5?$AAo?$AAp@ 0000000180117800     libucrtd:setenv.obj
 0002:0001a860       ??_C@_1CC@PIMGMDJH@?$AAc?$AAo?$AAp?$AAy?$AA_?$AAe?$AAn?$AAv?$AAi?$AAr?$AAo?$AAn?$AAm?$AAe?$AAn?$AAt?$AA?$AA@ 0000000180117860     libucrtd:setenv.obj
 0002:0001a890       ??_C@_1GG@EDHOMIDL@?$AAt?$AAr?$AAa?$AAi?$AAt?$AAs?$AA?3?$AA?3?$AAt?$AAc?$AAs?$AAc?$AAp?$AAy?$AA_?$AAs?$AA?$CI?$AA?$CK?$AAn?$AAe?$AAw?$AA_?$AAi?$AAt?$AA?0?$AA?5?$AAr?$AAe?$AAq?$AAu?$AAi?$AAr@ 0000000180117890     libucrtd:setenv.obj
 0002:0001a910       ??_C@_1DC@OGOLMDEL@?$AAp?$AAu?$AAb?$AAl?$AAi?$AAc?$AA_?$AAs?$AAt?$AAr?$AAe?$AAa?$AAm?$AA?5?$AA?$CB?$AA?$DN?$AA?5?$AAn?$AAu?$AAl?$AAl?$AAp?$AAt?$AAr?$AA?$AA@ 0000000180117910     libucrtd:_sftbuf.obj
 0002:0001a950       ??_C@_1GC@GBMDABED@?$AAm?$AAi?$AAn?$AAk?$AAe?$AAr?$AAn?$AAe?$AAl?$AA?2?$AAc?$AAr?$AAt?$AAs?$AA?2?$AAu?$AAc?$AAr?$AAt?$AA?2?$AAs?$AAr?$AAc?$AA?2?$AAa?$AAp?$AAp?$AAc?$AAr?$AAt?$AA?2?$AAs@ 0000000180117950     libucrtd:_sftbuf.obj
 0002:0001a9c8       ??_C@_0DB@EPIHMFLB@minkernel?2crts?2ucrt?2src?2appcrt?2s@ 00000001801179c8     libucrtd:_sftbuf.obj
 0002:0001aa10       ??_C@_1BBC@DECGKMGJ@?$AA_?$AAl?$AAo?$AAc?$AA_?$AAu?$AAp?$AAd?$AAa?$AAt?$AAe?$AA?4?$AAG?$AAe?$AAt?$AAL?$AAo?$AAc?$AAa?$AAl?$AAe?$AAT?$AA?$CI?$AA?$CJ?$AA?9?$AA?$DO?$AAl?$AAo?$AAc?$AAi?$AAn?$AAf@ 0000000180117a10     libucrtd:mbtowc.obj
 0002:0001ab60       ??_C@_1GE@CGIHMDEJ@?$AAm?$AAi?$AAn?$AAk?$AAe?$AAr?$AAn?$AAe?$AAl?$AA?2?$AAc?$AAr?$AAt?$AAs?$AA?2?$AAu?$AAc?$AAr?$AAt?$AA?2?$AAs?$AAr?$AAc?$AA?2?$AAa?$AAp?$AAp?$AAc?$AAr?$AAt?$AA?2?$AAc@ 0000000180117b60     libucrtd:mbtowc.obj
 0002:0001abd8       ??_C@_1DK@NBNOAGKB@?$AAd?$AAe?$AAs?$AAt?$AAi?$AAn?$AAa?$AAt?$AAi?$AAo?$AAn?$AA_?$AAc?$AAo?$AAu?$AAn?$AAt?$AA?5?$AA?$DM?$AA?$DN?$AA?5?$AAI?$AAN?$AAT?$AA_?$AAM?$AAA?$AAX?$AA?$AA@ 0000000180117bd8     libucrtd:wctomb.obj
 0002:0001ac20       ??_C@_1GE@FCCEPHFG@?$AAm?$AAi?$AAn?$AAk?$AAe?$AAr?$AAn?$AAe?$AAl?$AA?2?$AAc?$AAr?$AAt?$AAs?$AA?2?$AAu?$AAc?$AAr?$AAt?$AA?2?$AAs?$AAr?$AAc?$AA?2?$AAa?$AAp?$AAp?$AAc?$AAr?$AAt?$AA?2?$AAc@ 0000000180117c20     libucrtd:wctomb.obj
 0002:0001ac98       ??_C@_1BI@IEADNOHF@?$AA_?$AAw?$AAc?$AAt?$AAo?$AAm?$AAb?$AA_?$AAs?$AA_?$AAl?$AA?$AA@ 0000000180117c98     libucrtd:wctomb.obj
 0002:0001acb8       ??_C@_1CM@ENFEGCNE@?$AAd?$AAe?$AAs?$AAt?$AAi?$AAn?$AAa?$AAt?$AAi?$AAo?$AAn?$AA_?$AAc?$AAo?$AAu?$AAn?$AAt?$AA?5?$AA?$DO?$AA?5?$AA0?$AA?$AA@ 0000000180117cb8     libucrtd:wctomb.obj
 0002:0001ad20       ??_C@_03OEIAHPBN@INF?$AA@  0000000180117d20     libucrtd:cvt.obj
 0002:0001ad24       ??_C@_03OJHLLCGB@inf?$AA@  0000000180117d24     libucrtd:cvt.obj
 0002:0001ad28       ??_C@_03LKNCIKJB@NAN?$AA@  0000000180117d28     libucrtd:cvt.obj
 0002:0001ad2c       ??_C@_03LHCJEHON@nan?$AA@  0000000180117d2c     libucrtd:cvt.obj
 0002:0001ad30       ??_C@_09OFJJIMPC@NAN?$CISNAN?$CJ?$AA@ 0000000180117d30     libucrtd:cvt.obj
 0002:0001ad40       ??_C@_09IPFBKMDL@nan?$CIsnan?$CJ?$AA@ 0000000180117d40     libucrtd:cvt.obj
 0002:0001ad50       ??_C@_08IKHNHAJ@NAN?$CIIND?$CJ?$AA@ 0000000180117d50     libucrtd:cvt.obj
 0002:0001ad60       ??_C@_08OFCDMILK@nan?$CIind?$CJ?$AA@ 0000000180117d60     libucrtd:cvt.obj
 0002:0001ad70       ??_C@_1FO@GKAKAPLI@?$AAm?$AAi?$AAn?$AAk?$AAe?$AAr?$AAn?$AAe?$AAl?$AA?2?$AAc?$AAr?$AAt?$AAs?$AA?2?$AAu?$AAc?$AAr?$AAt?$AA?2?$AAs?$AAr?$AAc?$AA?2?$AAa?$AAp?$AAp?$AAc?$AAr?$AAt?$AA?2?$AAc@ 0000000180117d70     libucrtd:cvt.obj
 0002:0001ade0       ??_C@_1DE@EHGIGIDK@?$AAf?$AAp?$AA_?$AAf?$AAo?$AAr?$AAm?$AAa?$AAt?$AA_?$AAn?$AAa?$AAn?$AA_?$AAo?$AAr?$AA_?$AAi?$AAn?$AAf?$AAi?$AAn?$AAi?$AAt?$AAy?$AA?$AA@ 0000000180117de0     libucrtd:cvt.obj
 0002:0001ae20       ??_C@_1LI@PCMLJPCO@?$AAs?$AAt?$AAr?$AAc?$AAp?$AAy?$AA_?$AAs?$AA?$CI?$AA?5?$AAr?$AAe?$AAs?$AAu?$AAl?$AAt?$AA_?$AAb?$AAu?$AAf?$AAf?$AAe?$AAr?$AA?0?$AA?5?$AAr?$AAe?$AAs?$AAu?$AAl?$AAt?$AA_@ 0000000180117e20     libucrtd:cvt.obj
 0002:0001af00       ??_C@_1KO@LJHOFBCD@?$AAr?$AAe?$AAs?$AAu?$AAl?$AAt?$AA_?$AAb?$AAu?$AAf?$AAf?$AAe?$AAr?$AA_?$AAc?$AAo?$AAu?$AAn?$AAt?$AA?5?$AA?$DO?$AA?5?$AAs?$AAt?$AAa?$AAt?$AAi?$AAc?$AA_?$AAc?$AAa?$AAs@ 0000000180117f00     libucrtd:cvt.obj
 0002:0001afd0       ??_C@_1CK@BOLHOMFO@?$AAf?$AAp?$AA_?$AAf?$AAo?$AAr?$AAm?$AAa?$AAt?$AA_?$AAe?$AA_?$AAi?$AAn?$AAt?$AAe?$AAr?$AAn?$AAa?$AAl?$AA?$AA@ 0000000180117fd0     libucrtd:cvt.obj
 0002:0001b010       ??_C@_1BBA@FHDJNBGM@?$AAs?$AAt?$AAr?$AAc?$AAp?$AAy?$AA_?$AAs?$AA?$CI?$AA?5?$AAp?$AA?0?$AA?5?$AAr?$AAe?$AAs?$AAu?$AAl?$AAt?$AA_?$AAb?$AAu?$AAf?$AAf?$AAe?$AAr?$AA_?$AAc?$AAo?$AAu?$AAn?$AAt@ 0000000180118010     libucrtd:cvt.obj
 0002:0001b158       ??_C@_05KLBDPFGC@e?$CL000?$AA@ 0000000180118158     libucrtd:cvt.obj
 0002:0001b160       ??_C@_1IC@FILKPBAB@?$AAr?$AAe?$AAs?$AAu?$AAl?$AAt?$AA_?$AAb?$AAu?$AAf?$AAf?$AAe?$AAr?$AA_?$AAc?$AAo?$AAu?$AAn?$AAt?$AA?5?$AA?$DO?$AA?5?$AAs?$AAt?$AAa?$AAt?$AAi?$AAc?$AA_?$AAc?$AAa?$AAs@ 0000000180118160     libucrtd:cvt.obj
 0002:0001b200       ??_C@_1BI@PNBDLNBB@?$AAf?$AAp?$AA_?$AAf?$AAo?$AAr?$AAm?$AAa?$AAt?$AA_?$AAa?$AA?$AA@ 0000000180118200     libucrtd:cvt.obj
 0002:0001b220       ??_C@_1DC@MGKAFPFD@?$AAr?$AAe?$AAs?$AAu?$AAl?$AAt?$AA_?$AAb?$AAu?$AAf?$AAf?$AAe?$AAr?$AA?5?$AA?$CB?$AA?$DN?$AA?5?$AAn?$AAu?$AAl?$AAl?$AAp?$AAt?$AAr?$AA?$AA@ 0000000180118220     libucrtd:cvt.obj
 0002:0001b260       ??_C@_1CC@LDAHJAKK@?$AA_?$AA_?$AAa?$AAc?$AAr?$AAt?$AA_?$AAf?$AAp?$AA_?$AAf?$AAo?$AAr?$AAm?$AAa?$AAt?$AA?$AA@ 0000000180118260     libucrtd:cvt.obj
 0002:0001b288       ??_C@_1DA@NMLJJOCO@?$AAr?$AAe?$AAs?$AAu?$AAl?$AAt?$AA_?$AAb?$AAu?$AAf?$AAf?$AAe?$AAr?$AA_?$AAc?$AAo?$AAu?$AAn?$AAt?$AA?5?$AA?$DO?$AA?5?$AA0?$AA?$AA@ 0000000180118288     libucrtd:cvt.obj
 0002:0001b2c8       ??_C@_1DE@MNOPBCOK@?$AAs?$AAc?$AAr?$AAa?$AAt?$AAc?$AAh?$AA_?$AAb?$AAu?$AAf?$AAf?$AAe?$AAr?$AA?5?$AA?$CB?$AA?$DN?$AA?5?$AAn?$AAu?$AAl?$AAl?$AAp?$AAt?$AAr?$AA?$AA@ 00000001801182c8     libucrtd:cvt.obj
 0002:0001b308       ??_C@_1DC@CKBKNFKH@?$AAs?$AAc?$AAr?$AAa?$AAt?$AAc?$AAh?$AA_?$AAb?$AAu?$AAf?$AAf?$AAe?$AAr?$AA_?$AAc?$AAo?$AAu?$AAn?$AAt?$AA?5?$AA?$DO?$AA?5?$AA0?$AA?$AA@ 0000000180118308     libucrtd:cvt.obj
 0002:0001b350       ??_C@_1EI@JAHBOGIM@?$AA?$CI?$AA?$CC?$AAU?$AAn?$AAs?$AAu?$AAp?$AAp?$AAo?$AAr?$AAt?$AAe?$AAd?$AA?5?$AAf?$AAo?$AAr?$AAm?$AAa?$AAt?$AA?5?$AAs?$AAp?$AAe?$AAc?$AAi?$AAf?$AAi?$AAe?$AAr?$AA?$CC?$AA?0@ 0000000180118350     libucrtd:cvt.obj
 0002:0001b3b0       ??_C@_1GA@OJHMFOOJ@?$AAm?$AAi?$AAn?$AAk?$AAe?$AAr?$AAn?$AAe?$AAl?$AA?2?$AAc?$AAr?$AAt?$AAs?$AA?2?$AAu?$AAc?$AAr?$AAt?$AA?2?$AAs?$AAr?$AAc?$AA?2?$AAa?$AAp?$AAp?$AAc?$AAr?$AAt?$AA?2?$AAs@ 00000001801183b0     libucrtd:fputwc.obj
 0002:0001b428       ??_C@_1O@HJNPHHHB@?$AAf?$AAp?$AAu?$AAt?$AAw?$AAc?$AA?$AA@ 0000000180118428     libucrtd:fputwc.obj
 0002:0001b438       ??_C@_1BO@MHPFFFJJ@?$AAs?$AAt?$AAr?$AAe?$AAa?$AAm?$AA?4?$AAv?$AAa?$AAl?$AAi?$AAd?$AA?$CI?$AA?$CJ?$AA?$AA@ 0000000180118438     libucrtd:fileno.obj
 0002:0001b460       ??_C@_1GA@KCAHHNGP@?$AAm?$AAi?$AAn?$AAk?$AAe?$AAr?$AAn?$AAe?$AAl?$AA?2?$AAc?$AAr?$AAt?$AAs?$AA?2?$AAu?$AAc?$AAr?$AAt?$AA?2?$AAs?$AAr?$AAc?$AA?2?$AAa?$AAp?$AAp?$AAc?$AAr?$AAt?$AA?2?$AAs@ 0000000180118460     libucrtd:fileno.obj
 0002:0001b4d8       ??_C@_1BA@JGHIEKKM@?$AA_?$AAf?$AAi?$AAl?$AAe?$AAn?$AAo?$AA?$AA@ 00000001801184d8     libucrtd:fileno.obj
 0002:0001b4f0       ??_C@_0CP@GDJHIDC@minkernel?2crts?2ucrt?2src?2appcrt?2s@ 00000001801184f0     libucrtd:_file.obj
 0002:0001b530       ??_C@_1FO@IEGKHABE@?$AAm?$AAi?$AAn?$AAk?$AAe?$AAr?$AAn?$AAe?$AAl?$AA?2?$AAc?$AAr?$AAt?$AAs?$AA?2?$AAu?$AAc?$AAr?$AAt?$AA?2?$AAs?$AAr?$AAc?$AA?2?$AAa?$AAp?$AAp?$AAc?$AAr?$AAt?$AA?2?$AAs@ 0000000180118530     libucrtd:_file.obj
 0002:0001b5a0       ??_C@_1DI@PJGMCDLC@?$AA_?$AAg?$AAe?$AAt?$AA_?$AAs?$AAt?$AAr?$AAe?$AAa?$AAm?$AA_?$AAb?$AAu?$AAf?$AAf?$AAe?$AAr?$AA_?$AAp?$AAo?$AAi?$AAn?$AAt?$AAe?$AAr?$AAs?$AA?$AA@ 00000001801185a0     libucrtd:_file.obj
 0002:0001b5f0       ??_C@_1FO@FNOAOMLP@?$AAm?$AAi?$AAn?$AAk?$AAe?$AAr?$AAn?$AAe?$AAl?$AA?2?$AAc?$AAr?$AAt?$AAs?$AA?2?$AAu?$AAc?$AAr?$AAt?$AA?2?$AAs?$AAr?$AAc?$AA?2?$AAa?$AAp?$AAp?$AAc?$AAr?$AAt?$AA?2?$AAs@ 00000001801185f0     libucrtd:fputc.obj
 0002:0001b660       ??_C@_1M@OIJMPNCO@?$AAf?$AAp?$AAu?$AAt?$AAc?$AA?$AA@ 0000000180118660     libucrtd:fputc.obj
 0002:0001b670       ??_C@_1CE@BLLJFLOH@?$AAs?$AAt?$AAr?$AAi?$AAn?$AAg?$AA?5?$AA?$CB?$AA?$DN?$AA?5?$AAn?$AAu?$AAl?$AAl?$AAp?$AAt?$AAr?$AA?$AA@ 0000000180118670     libucrtd:mbsdec.obj
 0002:0001b6a0       ??_C@_1GO@DDOMFNGF@?$AAm?$AAi?$AAn?$AAk?$AAe?$AAr?$AAn?$AAe?$AAl?$AA?2?$AAc?$AAr?$AAt?$AAs?$AA?2?$AAu?$AAc?$AAr?$AAt?$AA?2?$AAs?$AAr?$AAc?$AA?2?$AAd?$AAe?$AAs?$AAk?$AAt?$AAo?$AAp?$AAc@ 00000001801186a0     libucrtd:mbsdec.obj
 0002:0001b728       ??_C@_1BE@KLNCOLCD@?$AA_?$AAm?$AAb?$AAs?$AAd?$AAe?$AAc?$AA_?$AAl?$AA?$AA@ 0000000180118728     libucrtd:mbsdec.obj
 0002:0001b740       ??_C@_1CG@CMGPGAOD@?$AAc?$AAu?$AAr?$AAr?$AAe?$AAn?$AAt?$AA?5?$AA?$CB?$AA?$DN?$AA?5?$AAn?$AAu?$AAl?$AAl?$AAp?$AAt?$AAr?$AA?$AA@ 0000000180118740     libucrtd:mbsdec.obj
 0002:0001b770       ??_C@_1CC@CHNFGJIC@?$AAc?$AAo?$AAm?$AAm?$AAo?$AAn?$AA_?$AAt?$AAc?$AAs?$AAn?$AAc?$AAp?$AAy?$AA_?$AAs?$AA?$AA@ 0000000180118770     libucrtd:wcsncpy_s.obj
 0002:0001b7a0       ??_C@_1IC@DCNEKBE@?$AAm?$AAi?$AAn?$AAk?$AAe?$AAr?$AAn?$AAe?$AAl?$AA?2?$AAc?$AAr?$AAt?$AAs?$AA?2?$AAu?$AAc?$AAr?$AAt?$AA?2?$AAs?$AAr?$AAc?$AA?2?$AAa?$AAp?$AAp?$AAc?$AAr?$AAt?$AA?2?$AAi@ 00000001801187a0     libucrtd:report_runtime_error.obj
 0002:0001b840       ??_C@_1DI@BLFJHKKP@?$AA_?$AA_?$AAa?$AAc?$AAr?$AAt?$AA_?$AAr?$AAe?$AAp?$AAo?$AAr?$AAt?$AA_?$AAr?$AAu?$AAn?$AAt?$AAi?$AAm?$AAe?$AA_?$AAe?$AAr?$AAr?$AAo?$AAr?$AA?$AA@ 0000000180118840     libucrtd:report_runtime_error.obj
 0002:0001b890       ??_C@_1LE@MHPGJGKE@?$AAw?$AAc?$AAs?$AAc?$AAp?$AAy?$AA_?$AAs?$AA?$CI?$AAo?$AAu?$AAt?$AAm?$AAs?$AAg?$AA?0?$AA?5?$AA?$CI?$AAs?$AAi?$AAz?$AAe?$AAo?$AAf?$AA?$CI?$AA?$CK?$AA_?$AA_?$AAc?$AAo?$AAu?$AAn@ 0000000180118890     libucrtd:report_runtime_error.obj
 0002:0001b968       ??_C@_1DE@JNGNBFGO@?$AAR?$AAu?$AAn?$AAt?$AAi?$AAm?$AAe?$AA?5?$AAE?$AAr?$AAr?$AAo?$AAr?$AA?$CB?$AA?6?$AA?6?$AAP?$AAr?$AAo?$AAg?$AAr?$AAa?$AAm?$AA?3?$AA?5?$AA?$AA@ 0000000180118968     libucrtd:report_runtime_error.obj
 0002:0001b9b0       ??_C@_1HK@FJJNAABO@?$AAw?$AAc?$AAs?$AAc?$AAp?$AAy?$AA_?$AAs?$AA?$CI?$AAp?$AAr?$AAo?$AAg?$AAn?$AAa?$AAm?$AAe?$AA?0?$AA?5?$AAp?$AAr?$AAo?$AAg?$AAn?$AAa?$AAm?$AAe?$AA_?$AAs?$AAi?$AAz?$AAe@ 00000001801189b0     libucrtd:report_runtime_error.obj
 0002:0001ba50       ??_C@_1HI@FLHKGEBE@?$AAw?$AAc?$AAs?$AAn?$AAc?$AAp?$AAy?$AA_?$AAs?$AA?$CI?$AAp?$AAc?$AAh?$AA?0?$AA?5?$AAp?$AAr?$AAo?$AAg?$AAn?$AAa?$AAm?$AAe?$AA_?$AAs?$AAi?$AAz?$AAe?$AA?5?$AA?9?$AA?5?$AA?$CI@ 0000000180118a50     libucrtd:report_runtime_error.obj
 0002:0001bae0       ??_C@_1IG@MNNKBLBI@?$AAw?$AAc?$AAs?$AAc?$AAa?$AAt?$AA_?$AAs?$AA?$CI?$AAo?$AAu?$AAt?$AAm?$AAs?$AAg?$AA?0?$AA?5?$AA?$CI?$AAs?$AAi?$AAz?$AAe?$AAo?$AAf?$AA?$CI?$AA?$CK?$AA_?$AA_?$AAc?$AAo?$AAu?$AAn@ 0000000180118ae0     libucrtd:report_runtime_error.obj
 0002:0001bb80       ??_C@_1IG@DFBBBDAN@?$AAw?$AAc?$AAs?$AAc?$AAa?$AAt?$AA_?$AAs?$AA?$CI?$AAo?$AAu?$AAt?$AAm?$AAs?$AAg?$AA?0?$AA?5?$AA?$CI?$AAs?$AAi?$AAz?$AAe?$AAo?$AAf?$AA?$CI?$AA?$CK?$AA_?$AA_?$AAc?$AAo?$AAu?$AAn@ 0000000180118b80     libucrtd:report_runtime_error.obj
 0002:0001be6c       ??_C@_03KHJOGHMM@exp?$AA@  0000000180118e6c     libucrtd:fpexcept.obj
 0002:0001be70       ??_C@_03JGHBODFD@pow?$AA@  0000000180118e70     libucrtd:fpexcept.obj
 0002:0001be74       ??_C@_03MGHMBJCF@log?$AA@  0000000180118e74     libucrtd:fpexcept.obj
 0002:0001be78       ??_C@_05HGHHAHAP@log10?$AA@ 0000000180118e78     libucrtd:fpexcept.obj
 0002:0001be80       ??_C@_04COOMCNPB@sinh?$AA@ 0000000180118e80     libucrtd:fpexcept.obj
 0002:0001be88       ??_C@_04HPJJNFIM@cosh?$AA@ 0000000180118e88     libucrtd:fpexcept.obj
 0002:0001be90       ??_C@_04FJHINJAO@tanh?$AA@ 0000000180118e90     libucrtd:fpexcept.obj
 0002:0001be98       ??_C@_04FIHNOPOL@asin?$AA@ 0000000180118e98     libucrtd:fpexcept.obj
 0002:0001bea0       ??_C@_04PDIFKINK@acos?$AA@ 0000000180118ea0     libucrtd:fpexcept.obj
 0002:0001bea8       ??_C@_04MLLJIGOK@atan?$AA@ 0000000180118ea8     libucrtd:fpexcept.obj
 0002:0001beb0       ??_C@_05KNGEOGJB@atan2?$AA@ 0000000180118eb0     libucrtd:fpexcept.obj
 0002:0001beb8       ??_C@_04EIAKFFMI@sqrt?$AA@ 0000000180118eb8     libucrtd:fpexcept.obj
 0002:0001bec0       ??_C@_03BLEJJJBH@sin?$AA@  0000000180118ec0     libucrtd:fpexcept.obj
 0002:0001bec4       ??_C@_03LALBNOCG@cos?$AA@  0000000180118ec4     libucrtd:fpexcept.obj
 0002:0001bec8       ??_C@_03IIINPABG@tan?$AA@  0000000180118ec8     libucrtd:fpexcept.obj
 0002:0001becc       ??_C@_04GFPJNGEK@ceil?$AA@ 0000000180118ecc     libucrtd:fpexcept.obj
 0002:0001bed4       ??_C@_05PBJFFIGL@floor?$AA@ 0000000180118ed4     libucrtd:fpexcept.obj
 0002:0001bedc       ??_C@_04ODHECPBC@fabs?$AA@ 0000000180118edc     libucrtd:fpexcept.obj
 0002:0001bee4       ??_C@_04EHEDPDJG@modf?$AA@ 0000000180118ee4     libucrtd:fpexcept.obj
 0002:0001beec       ??_C@_05CEJMAHNP@ldexp?$AA@ 0000000180118eec     libucrtd:fpexcept.obj
 0002:0001bef4       ??_C@_05KBKMEMPO@_cabs?$AA@ 0000000180118ef4     libucrtd:fpexcept.obj
 0002:0001befc       ??_C@_06MEIMCGCF@_hypot?$AA@ 0000000180118efc     libucrtd:fpexcept.obj
 0002:0001bf04       ??_C@_04KEPJIHGP@fmod?$AA@ 0000000180118f04     libucrtd:fpexcept.obj
 0002:0001bf0c       ??_C@_05GKKHEGJL@frexp?$AA@ 0000000180118f0c     libucrtd:fpexcept.obj
 0002:0001bf14       ??_C@_03MJLDFKDL@_y0?$AA@  0000000180118f14     libucrtd:fpexcept.obj
 0002:0001bf18       ??_C@_03NAKIGLHK@_y1?$AA@  0000000180118f18     libucrtd:fpexcept.obj
 0002:0001bf1c       ??_C@_03ONILCKOB@_yn?$AA@  0000000180118f1c     libucrtd:fpexcept.obj
 0002:0001bf20       ??_C@_05JGDBENOH@_logb?$AA@ 0000000180118f20     libucrtd:fpexcept.obj
 0002:0001bf28       ??_C@_0L@KDOEJCKC@_nextafter?$AA@ 0000000180118f28     libucrtd:fpexcept.obj
 0002:0001bf38       ??_C@_1CE@MCCHPLBM@?$AAb?$AAu?$AAf?$AAf?$AAe?$AAr?$AA?5?$AA?$CB?$AA?$DN?$AA?5?$AAn?$AAu?$AAl?$AAl?$AAp?$AAt?$AAr?$AA?$AA@ 0000000180118f38     libucrtd:xtoa.obj
 0002:0001bf70       ??_C@_1GA@HBEFGMHK@?$AAm?$AAi?$AAn?$AAk?$AAe?$AAr?$AAn?$AAe?$AAl?$AA?2?$AAc?$AAr?$AAt?$AAs?$AA?2?$AAu?$AAc?$AAr?$AAt?$AA?2?$AAs?$AAr?$AAc?$AA?2?$AAa?$AAp?$AAp?$AAc?$AAr?$AAt?$AA?2?$AAc@ 0000000180118f70     libucrtd:xtoa.obj
 0002:0001bfe8       ??_C@_1BM@HMPEMLNP@?$AAc?$AAo?$AAm?$AAm?$AAo?$AAn?$AA_?$AAx?$AAt?$AAo?$AAx?$AA_?$AAs?$AA?$AA@ 0000000180118fe8     libucrtd:xtoa.obj
 0002:0001c010       ??_C@_1CC@ONIJBMJF@?$AAb?$AAu?$AAf?$AAf?$AAe?$AAr?$AA_?$AAc?$AAo?$AAu?$AAn?$AAt?$AA?5?$AA?$DO?$AA?5?$AA0?$AA?$AA@ 0000000180119010     libucrtd:xtoa.obj
 0002:0001c040       ??_C@_1HA@JFIOFNKD@?$AAb?$AAu?$AAf?$AAf?$AAe?$AAr?$AA_?$AAc?$AAo?$AAu?$AAn?$AAt?$AA?5?$AA?$DO?$AA?5?$AAs?$AAt?$AAa?$AAt?$AAi?$AAc?$AA_?$AAc?$AAa?$AAs?$AAt?$AA?$DM?$AAs?$AAi?$AAz?$AAe?$AA_@ 0000000180119040     libucrtd:xtoa.obj
 0002:0001c0c8       ??_C@_1DE@PCJGDBBD@?$AA2?$AA?5?$AA?$DM?$AA?$DN?$AA?5?$AAr?$AAa?$AAd?$AAi?$AAx?$AA?5?$AA?$CG?$AA?$CG?$AA?5?$AAr?$AAa?$AAd?$AAi?$AAx?$AA?5?$AA?$DM?$AA?$DN?$AA?5?$AA3?$AA6?$AA?$AA@ 00000001801190c8     libucrtd:xtoa.obj
 0002:0001c108       ??_C@_1CM@LONILNIJ@?$AAl?$AAe?$AAn?$AAg?$AAt?$AAh?$AA?5?$AA?$DM?$AA?5?$AAb?$AAu?$AAf?$AAf?$AAe?$AAr?$AA_?$AAc?$AAo?$AAu?$AAn?$AAt?$AA?$AA@ 0000000180119108     libucrtd:xtoa.obj
 0002:0001c140       ??_C@_1BI@OLPLFKOE@?$AAc?$AAo?$AAm?$AAm?$AAo?$AAn?$AA_?$AAx?$AAt?$AAo?$AAx?$AA?$AA@ 0000000180119140     libucrtd:xtoa.obj
 0002:0001c160       ??_C@_1BK@FPAMLIDG@?$AAs?$AA?5?$AA?$CB?$AA?$DN?$AA?5?$AAn?$AAu?$AAl?$AAl?$AAp?$AAt?$AAr?$AA?$AA@ 0000000180119160     libucrtd:mbstowcs.obj
 0002:0001c180       ??_C@_1GI@KABMHNPH@?$AAm?$AAi?$AAn?$AAk?$AAe?$AAr?$AAn?$AAe?$AAl?$AA?2?$AAc?$AAr?$AAt?$AAs?$AA?2?$AAu?$AAc?$AAr?$AAt?$AA?2?$AAs?$AAr?$AAc?$AA?2?$AAa?$AAp?$AAp?$AAc?$AAr?$AAt?$AA?2?$AAc@ 0000000180119180     libucrtd:mbstowcs.obj
 0002:0001c200       ??_C@_1CG@JEHFHLNG@?$AA_?$AAm?$AAb?$AAs?$AAt?$AAo?$AAw?$AAc?$AAs?$AA_?$AAl?$AA_?$AAh?$AAe?$AAl?$AAp?$AAe?$AAr?$AA?$AA@ 0000000180119200     libucrtd:mbstowcs.obj
 0002:0001c230       ??_C@_1JM@MEKBACIG@?$AA?$CI?$AAp?$AAw?$AAc?$AAs?$AA?5?$AA?$DN?$AA?$DN?$AA?5?$AAn?$AAu?$AAl?$AAl?$AAp?$AAt?$AAr?$AA?5?$AA?$CG?$AA?$CG?$AA?5?$AAs?$AAi?$AAz?$AAe?$AAI?$AAn?$AAW?$AAo?$AAr?$AAd?$AAs?$AA?5@ 0000000180119230     libucrtd:mbstowcs.obj
 0002:0001c2f0       ??_C@_1BM@PHENIGHD@?$AA_?$AAm?$AAb?$AAs?$AAt?$AAo?$AAw?$AAc?$AAs?$AA_?$AAs?$AA_?$AAl?$AA?$AA@ 00000001801192f0     libucrtd:mbstowcs.obj
 0002:0001c318       ??_C@_1CM@LLECFMFH@?$AAb?$AAu?$AAf?$AAf?$AAe?$AAr?$AAS?$AAi?$AAz?$AAe?$AA?5?$AA?$DM?$AA?$DN?$AA?5?$AAI?$AAN?$AAT?$AA_?$AAM?$AAA?$AAX?$AA?$AA@ 0000000180119318     libucrtd:mbstowcs.obj
 0002:0001c350       ??_C@_1CO@JNPEPJAL@?$AAr?$AAe?$AAt?$AAs?$AAi?$AAz?$AAe?$AA?5?$AA?$DM?$AA?$DN?$AA?5?$AAs?$AAi?$AAz?$AAe?$AAI?$AAn?$AAW?$AAo?$AAr?$AAd?$AAs?$AA?$AA@ 0000000180119350     libucrtd:mbstowcs.obj
 0002:0001c3b8       ??_C@_1CA@NOKNKDIG@?$AAp?$AAw?$AAc?$AAs?$AA?5?$AA?$CB?$AA?$DN?$AA?5?$AAn?$AAu?$AAl?$AAl?$AAp?$AAt?$AAr?$AA?$AA@ 00000001801193b8     libucrtd:wcstombs.obj
 0002:0001c3e0       ??_C@_1GI@EEJDEALP@?$AAm?$AAi?$AAn?$AAk?$AAe?$AAr?$AAn?$AAe?$AAl?$AA?2?$AAc?$AAr?$AAt?$AAs?$AA?2?$AAu?$AAc?$AAr?$AAt?$AA?2?$AAs?$AAr?$AAc?$AA?2?$AAa?$AAp?$AAp?$AAc?$AAr?$AAt?$AA?2?$AAc@ 00000001801193e0     libucrtd:wcstombs.obj
 0002:0001c460       ??_C@_1CG@LLJCAOHF@?$AA_?$AAw?$AAc?$AAs?$AAt?$AAo?$AAm?$AAb?$AAs?$AA_?$AAl?$AA_?$AAh?$AAe?$AAl?$AAp?$AAe?$AAr?$AA?$AA@ 0000000180119460     libucrtd:wcstombs.obj
 0002:0001c490       ??_C@_1JI@DFNKFCLG@?$AA?$CI?$AAd?$AAs?$AAt?$AA?5?$AA?$CB?$AA?$DN?$AA?5?$AAn?$AAu?$AAl?$AAl?$AAp?$AAt?$AAr?$AA?5?$AA?$CG?$AA?$CG?$AA?5?$AAs?$AAi?$AAz?$AAe?$AAI?$AAn?$AAB?$AAy?$AAt?$AAe?$AAs?$AA?5?$AA?$DO@ 0000000180119490     libucrtd:wcstombs.obj
 0002:0001c548       ??_C@_1BM@BDMCLLDL@?$AA_?$AAw?$AAc?$AAs?$AAt?$AAo?$AAm?$AAb?$AAs?$AA_?$AAs?$AA_?$AAl?$AA?$AA@ 0000000180119548     libucrtd:wcstombs.obj
 0002:0001c570       ??_C@_1CM@KEOGBFLI@?$AAs?$AAi?$AAz?$AAe?$AAI?$AAn?$AAB?$AAy?$AAt?$AAe?$AAs?$AA?5?$AA?$DO?$AA?5?$AAr?$AAe?$AAt?$AAs?$AAi?$AAz?$AAe?$AA?$AA@ 0000000180119570     libucrtd:wcstombs.obj
 0002:0001c5a8       ??_C@_1CA@EOJJMFA@?$AAc?$AAo?$AAm?$AAm?$AAo?$AAn?$AA_?$AAt?$AAc?$AAs?$AAc?$AAa?$AAt?$AA_?$AAs?$AA?$AA@ 00000001801195a8     libucrtd:wcscat_s.obj
 0002:0001c5d0       ??_C@_1DM@FHLMIEG@?$AAS?$AAt?$AAr?$AAi?$AAn?$AAg?$AA?5?$AAi?$AAs?$AA?5?$AAn?$AAo?$AAt?$AA?5?$AAn?$AAu?$AAl?$AAl?$AA?5?$AAt?$AAe?$AAr?$AAm?$AAi?$AAn?$AAa?$AAt?$AAe?$AAd?$AA?$AA@ 00000001801195d0     libucrtd:wcscat_s.obj
 0002:0001c620       ??_C@_1FA@MJKDNFFB@?$AA?$CI?$AAL?$AA?$CC?$AAS?$AAt?$AAr?$AAi?$AAn?$AAg?$AA?5?$AAi?$AAs?$AA?5?$AAn?$AAo?$AAt?$AA?5?$AAn?$AAu?$AAl?$AAl?$AA?5?$AAt?$AAe?$AAr?$AAm?$AAi?$AAn?$AAa?$AAt?$AAe?$AAd@ 0000000180119620     libucrtd:wcscat_s.obj
 0002:0001c680       ??_C@_1FE@KNPCCODH@?$AA?$CI?$AA?$CC?$AAC?$AAo?$AAr?$AAr?$AAu?$AAp?$AAt?$AAe?$AAd?$AA?5?$AAp?$AAo?$AAi?$AAn?$AAt?$AAe?$AAr?$AA?5?$AAp?$AAa?$AAs?$AAs?$AAe?$AAd?$AA?5?$AAt?$AAo?$AA?5?$AA_?$AAf@ 0000000180119680     libucrtd:getstringtypea.obj
 0002:0001c6f0       ??_C@_1HG@NGPLHMCI@?$AAm?$AAi?$AAn?$AAk?$AAe?$AAr?$AAn?$AAe?$AAl?$AA?2?$AAc?$AAr?$AAt?$AAs?$AA?2?$AAu?$AAc?$AAr?$AAt?$AA?2?$AAd?$AAe?$AAv?$AAd?$AAi?$AAv?$AA?2?$AAv?$AAc?$AAr?$AAu?$AAn@ 00000001801196f0     libucrtd:getstringtypea.obj
 0002:0001c780       ??_C@_0DJ@HCPJODDK@minkernel?2crts?2ucrt?2src?2appcrt?2l@ 0000000180119780     libucrtd:getstringtypea.obj
 0002:0001c7d0       ??_C@_1BKC@NBNHJIDM@?$AA?$CI?$AAp?$AAt?$AAl?$AAo?$AAc?$AAi?$AA?9?$AA?$DO?$AAl?$AAc?$AA_?$AAc?$AAa?$AAt?$AAe?$AAg?$AAo?$AAr?$AAy?$AA?$FL?$AAc?$AAa?$AAt?$AAe?$AAg?$AAo?$AAr?$AAy?$AA?$FN?$AA?4?$AAl@ 00000001801197d0     libucrtd:locale_refcounting.obj
 0002:0001c9d0       ??_C@_1HK@HCNMEOLA@?$AAm?$AAi?$AAn?$AAk?$AAe?$AAr?$AAn?$AAe?$AAl?$AA?2?$AAc?$AAr?$AAt?$AAs?$AA?2?$AAu?$AAc?$AAr?$AAt?$AA?2?$AAs?$AAr?$AAc?$AA?2?$AAa?$AAp?$AAp?$AAc?$AAr?$AAt?$AA?2?$AAl@ 00000001801199d0     libucrtd:locale_refcounting.obj
 0002:0001ca68       ??_C@_0DE@PKCHMIOF@minkernel?2crts?2ucrt?2src?2appcrt?2l@ 0000000180119a68     libucrtd:initctype.obj
 0002:0001cab0       ??_C@_1GI@DPHPBMAL@?$AAm?$AAi?$AAn?$AAk?$AAe?$AAr?$AAn?$AAe?$AAl?$AA?2?$AAc?$AAr?$AAt?$AAs?$AA?2?$AAu?$AAc?$AAr?$AAt?$AA?2?$AAs?$AAr?$AAc?$AA?2?$AAa?$AAp?$AAp?$AAc?$AAr?$AAt?$AA?2?$AAl@ 0000000180119ab0     libucrtd:initctype.obj
 0002:0001cb30       ??_C@_1DG@NMBGBDM@?$AAp?$AAl?$AAo?$AAc?$AAi?$AA?9?$AA?$DO?$AAc?$AAt?$AAy?$AAp?$AAe?$AA1?$AA_?$AAr?$AAe?$AAf?$AAc?$AAo?$AAu?$AAn?$AAt?$AA?5?$AA?$DO?$AA?5?$AA0?$AA?$AA@ 0000000180119b30     libucrtd:initctype.obj
 0002:0001cb70       ??_C@_0DC@GMDOHFAP@minkernel?2crts?2ucrt?2src?2appcrt?2l@ 0000000180119b70     libucrtd:initmon.obj
 0002:0001cbb0       ??_C@_1DM@GKAPAMDO@?$AAp?$AAl?$AAo?$AAc?$AAi?$AA?9?$AA?$DO?$AAl?$AAc?$AAo?$AAn?$AAv?$AA_?$AAm?$AAo?$AAn?$AA_?$AAr?$AAe?$AAf?$AAc?$AAo?$AAu?$AAn?$AAt?$AA?5?$AA?$DO?$AA?5?$AA0?$AA?$AA@ 0000000180119bb0     libucrtd:initmon.obj
 0002:0001cc00       ??_C@_1GE@IEFGCKMH@?$AAm?$AAi?$AAn?$AAk?$AAe?$AAr?$AAn?$AAe?$AAl?$AA?2?$AAc?$AAr?$AAt?$AAs?$AA?2?$AAu?$AAc?$AAr?$AAt?$AA?2?$AAs?$AAr?$AAc?$AA?2?$AAa?$AAp?$AAp?$AAc?$AAr?$AAt?$AA?2?$AAl@ 0000000180119c00     libucrtd:initmon.obj
 0002:0001cc78       ??_C@_0DC@KHILMDMC@minkernel?2crts?2ucrt?2src?2appcrt?2l@ 0000000180119c78     libucrtd:initnum.obj
 0002:0001ccb8       ??_C@_1DM@IFKAINNE@?$AAp?$AAl?$AAo?$AAc?$AAi?$AA?9?$AA?$DO?$AAl?$AAc?$AAo?$AAn?$AAv?$AA_?$AAn?$AAu?$AAm?$AA_?$AAr?$AAe?$AAf?$AAc?$AAo?$AAu?$AAn?$AAt?$AA?5?$AA?$DO?$AA?5?$AA0?$AA?$AA@ 0000000180119cb8     libucrtd:initnum.obj
 0002:0001cd00       ??_C@_1GE@GOIFKKDC@?$AAm?$AAi?$AAn?$AAk?$AAe?$AAr?$AAn?$AAe?$AAl?$AA?2?$AAc?$AAr?$AAt?$AAs?$AA?2?$AAu?$AAc?$AAr?$AAt?$AA?2?$AAs?$AAr?$AAc?$AA?2?$AAa?$AAp?$AAp?$AAc?$AAr?$AAt?$AA?2?$AAl@ 0000000180119d00     libucrtd:initnum.obj
 0002:0001cd78       ??_C@_0DD@MPFICDAE@minkernel?2crts?2ucrt?2src?2appcrt?2l@ 0000000180119d78     libucrtd:inittime.obj
 0002:0001cdc0       ??_C@_1HK@HACABKKK@?$AA?$CI?$AA?$CC?$AAl?$AAc?$AA_?$AAt?$AAi?$AAm?$AAe?$AA_?$AAc?$AAu?$AAr?$AAr?$AA?5?$AAu?$AAn?$AAe?$AAx?$AAp?$AAe?$AAc?$AAt?$AAe?$AAd?$AAl?$AAy?$AA?5?$AAh?$AAa?$AAs?$AA?5@ 0000000180119dc0     libucrtd:inittime.obj
 0002:0001ce60       ??_C@_1GG@BFOOANHJ@?$AAm?$AAi?$AAn?$AAk?$AAe?$AAr?$AAn?$AAe?$AAl?$AA?2?$AAc?$AAr?$AAt?$AAs?$AA?2?$AAu?$AAc?$AAr?$AAt?$AA?2?$AAs?$AAr?$AAc?$AA?2?$AAa?$AAp?$AAp?$AAc?$AAr?$AAt?$AA?2?$AAl@ 0000000180119e60     libucrtd:inittime.obj
 0002:0001cee0       __newctype                 0000000180119ee0     libucrtd:ctype.obj
 0002:0001d280       __newclmap                 000000018011a280     libucrtd:ctype.obj
 0002:0001d450       __newcumap                 000000018011a450     libucrtd:ctype.obj
 0002:0001d620       _wctype                    000000018011a620     libucrtd:ctype.obj
 0002:0001d890       ??_C@_1BK@FIHMCKAM@?$AAs?$AAo?$AAu?$AAt?$AAh?$AA?5?$AAa?$AAf?$AAr?$AAi?$AAc?$AAa?$AA?$AA@ 000000018011a890     libucrtd:get_qualified_locale.obj
 0002:0001d8b0       ??_C@_1BI@NAEOODKB@?$AAs?$AAo?$AAu?$AAt?$AAh?$AA?5?$AAk?$AAo?$AAr?$AAe?$AAa?$AA?$AA@ 000000018011a8b0     libucrtd:get_qualified_locale.obj
 0002:0001d8d0       ??_C@_1BK@FBDGGIFF@?$AAs?$AAo?$AAu?$AAt?$AAh?$AA?9?$AAa?$AAf?$AAr?$AAi?$AAc?$AAa?$AA?$AA@ 000000018011a8d0     libucrtd:get_qualified_locale.obj
 0002:0001d8f0       ??_C@_1BI@GHLEJDPK@?$AAs?$AAo?$AAu?$AAt?$AAh?$AA?9?$AAk?$AAo?$AAr?$AAe?$AAa?$AA?$AA@ 000000018011a8f0     libucrtd:get_qualified_locale.obj
 0002:0001d910       ??_C@_1CE@PLHLOMJF@?$AAt?$AAr?$AAi?$AAn?$AAi?$AAd?$AAa?$AAd?$AA?5?$AA?$CG?$AA?5?$AAt?$AAo?$AAb?$AAa?$AAg?$AAo?$AA?$AA@ 000000018011a910     libucrtd:get_qualified_locale.obj
 0002:0001d940       ??_C@_1BO@MODIMHHI@?$AAu?$AAn?$AAi?$AAt?$AAe?$AAd?$AA?9?$AAk?$AAi?$AAn?$AAg?$AAd?$AAo?$AAm?$AA?$AA@ 000000018011a940     libucrtd:get_qualified_locale.obj
 0002:0001d968       ??_C@_1BM@FFHJONBJ@?$AAu?$AAn?$AAi?$AAt?$AAe?$AAd?$AA?9?$AAs?$AAt?$AAa?$AAt?$AAe?$AAs?$AA?$AA@ 000000018011a968     libucrtd:get_qualified_locale.obj
 0002:0001d990       __acrt_rg_language         000000018011a990     libucrtd:get_qualified_locale.obj
 0002:0001de70       __acrt_rg_language_count   000000018011ae70     libucrtd:get_qualified_locale.obj
 0002:0001de80       __acrt_rg_country          000000018011ae80     libucrtd:get_qualified_locale.obj
 0002:0001e040       __acrt_rg_country_count    000000018011b040     libucrtd:get_qualified_locale.obj
 0002:0001e050       ??_C@_1BC@LLOKLNP@?$AAa?$AAm?$AAe?$AAr?$AAi?$AAc?$AAa?$AAn?$AA?$AA@ 000000018011b050     libucrtd:get_qualified_locale.obj
 0002:0001e068       ??_C@_1CC@HEIGCDGG@?$AAa?$AAm?$AAe?$AAr?$AAi?$AAc?$AAa?$AAn?$AA?5?$AAe?$AAn?$AAg?$AAl?$AAi?$AAs?$AAh?$AA?$AA@ 000000018011b068     libucrtd:get_qualified_locale.obj
 0002:0001e090       ??_C@_1CC@IHCNOMIN@?$AAa?$AAm?$AAe?$AAr?$AAi?$AAc?$AAa?$AAn?$AA?9?$AAe?$AAn?$AAg?$AAl?$AAi?$AAs?$AAh?$AA?$AA@ 000000018011b090     libucrtd:get_qualified_locale.obj
 0002:0001e0b8       ??_C@_1BG@GKAGPCGG@?$AAa?$AAu?$AAs?$AAt?$AAr?$AAa?$AAl?$AAi?$AAa?$AAn?$AA?$AA@ 000000018011b0b8     libucrtd:get_qualified_locale.obj
 0002:0001e0d8       ??_C@_1BA@GMENCENF@?$AAb?$AAe?$AAl?$AAg?$AAi?$AAa?$AAn?$AA?$AA@ 000000018011b0d8     libucrtd:get_qualified_locale.obj
 0002:0001e0f0       ??_C@_1BC@PJMIIAAN@?$AAc?$AAa?$AAn?$AAa?$AAd?$AAi?$AAa?$AAn?$AA?$AA@ 000000018011b0f0     libucrtd:get_qualified_locale.obj
 0002:0001e108       ??_C@_17NOIMNFBF@?$AAc?$AAh?$AAh?$AA?$AA@ 000000018011b108     libucrtd:get_qualified_locale.obj
 0002:0001e118       ??_C@_17GGDALCHA@?$AAc?$AAh?$AAi?$AA?$AA@ 000000018011b118     libucrtd:get_qualified_locale.obj
 0002:0001e128       ??_C@_1BA@NPNJKIBL@?$AAc?$AAh?$AAi?$AAn?$AAe?$AAs?$AAe?$AA?$AA@ 000000018011b128     libucrtd:get_qualified_locale.obj
 0002:0001e140       ??_C@_1CC@DINBAMMJ@?$AAc?$AAh?$AAi?$AAn?$AAe?$AAs?$AAe?$AA?9?$AAh?$AAo?$AAn?$AAg?$AAk?$AAo?$AAn?$AAg?$AA?$AA@ 000000018011b140     libucrtd:get_qualified_locale.obj
 0002:0001e168       ??_C@_1CG@IOBJPACO@?$AAc?$AAh?$AAi?$AAn?$AAe?$AAs?$AAe?$AA?9?$AAs?$AAi?$AAm?$AAp?$AAl?$AAi?$AAf?$AAi?$AAe?$AAd?$AA?$AA@ 000000018011b168     libucrtd:get_qualified_locale.obj
 0002:0001e198       ??_C@_1CE@GAJNDCKG@?$AAc?$AAh?$AAi?$AAn?$AAe?$AAs?$AAe?$AA?9?$AAs?$AAi?$AAn?$AAg?$AAa?$AAp?$AAo?$AAr?$AAe?$AA?$AA@ 000000018011b198     libucrtd:get_qualified_locale.obj
 0002:0001e1c8       ??_C@_1CI@PAJPIOOD@?$AAc?$AAh?$AAi?$AAn?$AAe?$AAs?$AAe?$AA?9?$AAt?$AAr?$AAa?$AAd?$AAi?$AAt?$AAi?$AAo?$AAn?$AAa?$AAl?$AA?$AA@ 000000018011b1c8     libucrtd:get_qualified_locale.obj
 0002:0001e1f8       ??_C@_1BM@NILJBMMD@?$AAd?$AAu?$AAt?$AAc?$AAh?$AA?9?$AAb?$AAe?$AAl?$AAg?$AAi?$AAa?$AAn?$AA?$AA@ 000000018011b1f8     libucrtd:get_qualified_locale.obj
 0002:0001e220       ??_C@_1CC@OOJPJNEJ@?$AAe?$AAn?$AAg?$AAl?$AAi?$AAs?$AAh?$AA?9?$AAa?$AAm?$AAe?$AAr?$AAi?$AAc?$AAa?$AAn?$AA?$AA@ 000000018011b220     libucrtd:get_qualified_locale.obj
 0002:0001e248       ??_C@_1BI@IOLFEEM@?$AAe?$AAn?$AAg?$AAl?$AAi?$AAs?$AAh?$AA?9?$AAa?$AAu?$AAs?$AA?$AA@ 000000018011b248     libucrtd:get_qualified_locale.obj
 0002:0001e268       ??_C@_1BO@HFFNLENJ@?$AAe?$AAn?$AAg?$AAl?$AAi?$AAs?$AAh?$AA?9?$AAb?$AAe?$AAl?$AAi?$AAz?$AAe?$AA?$AA@ 000000018011b268     libucrtd:get_qualified_locale.obj
 0002:0001e290       ??_C@_1BI@HAPKJMPO@?$AAe?$AAn?$AAg?$AAl?$AAi?$AAs?$AAh?$AA?9?$AAc?$AAa?$AAn?$AA?$AA@ 000000018011b290     libucrtd:get_qualified_locale.obj
 0002:0001e2b0       ??_C@_1CE@HLNDMIOJ@?$AAe?$AAn?$AAg?$AAl?$AAi?$AAs?$AAh?$AA?9?$AAc?$AAa?$AAr?$AAi?$AAb?$AAb?$AAe?$AAa?$AAn?$AA?$AA@ 000000018011b2b0     libucrtd:get_qualified_locale.obj
 0002:0001e2e0       ??_C@_1BI@LDHJHHAC@?$AAe?$AAn?$AAg?$AAl?$AAi?$AAs?$AAh?$AA?9?$AAi?$AAr?$AAe?$AA?$AA@ 000000018011b2e0     libucrtd:get_qualified_locale.obj
 0002:0001e300       ??_C@_1CA@NJMMCFOC@?$AAe?$AAn?$AAg?$AAl?$AAi?$AAs?$AAh?$AA?9?$AAj?$AAa?$AAm?$AAa?$AAi?$AAc?$AAa?$AA?$AA@ 000000018011b300     libucrtd:get_qualified_locale.obj
 0002:0001e328       ??_C@_1BG@BHJEBBGG@?$AAe?$AAn?$AAg?$AAl?$AAi?$AAs?$AAh?$AA?9?$AAn?$AAz?$AA?$AA@ 000000018011b328     libucrtd:get_qualified_locale.obj
 0002:0001e348       ??_C@_1CK@FGOEJJCO@?$AAe?$AAn?$AAg?$AAl?$AAi?$AAs?$AAh?$AA?9?$AAs?$AAo?$AAu?$AAt?$AAh?$AA?5?$AAa?$AAf?$AAr?$AAi?$AAc?$AAa?$AA?$AA@ 000000018011b348     libucrtd:get_qualified_locale.obj
 0002:0001e380       ??_C@_1DE@PDBJPCJ@?$AAe?$AAn?$AAg?$AAl?$AAi?$AAs?$AAh?$AA?9?$AAt?$AAr?$AAi?$AAn?$AAi?$AAd?$AAa?$AAd?$AA?5?$AAy?$AA?5?$AAt?$AAo?$AAb?$AAa?$AAg?$AAo?$AA?$AA@ 000000018011b380     libucrtd:get_qualified_locale.obj
 0002:0001e3c0       ??_C@_1BG@JGCANDME@?$AAe?$AAn?$AAg?$AAl?$AAi?$AAs?$AAh?$AA?9?$AAu?$AAk?$AA?$AA@ 000000018011b3c0     libucrtd:get_qualified_locale.obj
 0002:0001e3e0       ??_C@_1BG@DINKMLE@?$AAe?$AAn?$AAg?$AAl?$AAi?$AAs?$AAh?$AA?9?$AAu?$AAs?$AA?$AA@ 000000018011b3e0     libucrtd:get_qualified_locale.obj
 0002:0001e400       ??_C@_1BI@NMFDBHJE@?$AAe?$AAn?$AAg?$AAl?$AAi?$AAs?$AAh?$AA?9?$AAu?$AAs?$AAa?$AA?$AA@ 000000018011b400     libucrtd:get_qualified_locale.obj
 0002:0001e420       ??_C@_1BO@OIHKJKII@?$AAf?$AAr?$AAe?$AAn?$AAc?$AAh?$AA?9?$AAb?$AAe?$AAl?$AAg?$AAi?$AAa?$AAn?$AA?$AA@ 000000018011b420     libucrtd:get_qualified_locale.obj
 0002:0001e448       ??_C@_1CA@NKAELJKI@?$AAf?$AAr?$AAe?$AAn?$AAc?$AAh?$AA?9?$AAc?$AAa?$AAn?$AAa?$AAd?$AAi?$AAa?$AAn?$AA?$AA@ 000000018011b448     libucrtd:get_qualified_locale.obj
 0002:0001e470       ??_C@_1CE@MGKCNLGN@?$AAf?$AAr?$AAe?$AAn?$AAc?$AAh?$AA?9?$AAl?$AAu?$AAx?$AAe?$AAm?$AAb?$AAo?$AAu?$AAr?$AAg?$AA?$AA@ 000000018011b470     libucrtd:get_qualified_locale.obj
 0002:0001e4a0       ??_C@_1BK@CEGEAILM@?$AAf?$AAr?$AAe?$AAn?$AAc?$AAh?$AA?9?$AAs?$AAw?$AAi?$AAs?$AAs?$AA?$AA@ 000000018011b4a0     libucrtd:get_qualified_locale.obj
 0002:0001e4c0       ??_C@_1CA@PAFKEOCC@?$AAg?$AAe?$AAr?$AAm?$AAa?$AAn?$AA?9?$AAa?$AAu?$AAs?$AAt?$AAr?$AAi?$AAa?$AAn?$AA?$AA@ 000000018011b4c0     libucrtd:get_qualified_locale.obj
 0002:0001e4e8       ??_C@_1CI@HCFHGOFD@?$AAg?$AAe?$AAr?$AAm?$AAa?$AAn?$AA?9?$AAl?$AAi?$AAc?$AAh?$AAt?$AAe?$AAn?$AAs?$AAt?$AAe?$AAi?$AAn?$AA?$AA@ 000000018011b4e8     libucrtd:get_qualified_locale.obj
 0002:0001e518       ??_C@_1CE@FEDDNPDG@?$AAg?$AAe?$AAr?$AAm?$AAa?$AAn?$AA?9?$AAl?$AAu?$AAx?$AAe?$AAm?$AAb?$AAo?$AAu?$AAr?$AAg?$AA?$AA@ 000000018011b518     libucrtd:get_qualified_locale.obj
 0002:0001e548       ??_C@_1BK@LIMINNMN@?$AAg?$AAe?$AAr?$AAm?$AAa?$AAn?$AA?9?$AAs?$AAw?$AAi?$AAs?$AAs?$AA?$AA@ 000000018011b548     libucrtd:get_qualified_locale.obj
 0002:0001e568       ??_C@_1BM@LGMDBEPD@?$AAi?$AAr?$AAi?$AAs?$AAh?$AA?9?$AAe?$AAn?$AAg?$AAl?$AAi?$AAs?$AAh?$AA?$AA@ 000000018011b568     libucrtd:get_qualified_locale.obj
 0002:0001e590       ??_C@_1BM@NNCFBAEE@?$AAi?$AAt?$AAa?$AAl?$AAi?$AAa?$AAn?$AA?9?$AAs?$AAw?$AAi?$AAs?$AAs?$AA?$AA@ 000000018011b590     libucrtd:get_qualified_locale.obj
 0002:0001e5b8       ??_C@_1BE@FEDJNPIB@?$AAn?$AAo?$AAr?$AAw?$AAe?$AAg?$AAi?$AAa?$AAn?$AA?$AA@ 000000018011b5b8     libucrtd:get_qualified_locale.obj
 0002:0001e5d0       ??_C@_1CC@CILKDEIE@?$AAn?$AAo?$AAr?$AAw?$AAe?$AAg?$AAi?$AAa?$AAn?$AA?9?$AAb?$AAo?$AAk?$AAm?$AAa?$AAl?$AA?$AA@ 000000018011b5d0     libucrtd:get_qualified_locale.obj
 0002:0001e5f8       ??_C@_1CE@DHMMHEPL@?$AAn?$AAo?$AAr?$AAw?$AAe?$AAg?$AAi?$AAa?$AAn?$AA?9?$AAn?$AAy?$AAn?$AAo?$AAr?$AAs?$AAk?$AA?$AA@ 000000018011b5f8     libucrtd:get_qualified_locale.obj
 0002:0001e628       ??_C@_1CK@OPNMHECD@?$AAp?$AAo?$AAr?$AAt?$AAu?$AAg?$AAu?$AAe?$AAs?$AAe?$AA?9?$AAb?$AAr?$AAa?$AAz?$AAi?$AAl?$AAi?$AAa?$AAn?$AA?$AA@ 000000018011b628     libucrtd:get_qualified_locale.obj
 0002:0001e660       ??_C@_1CE@KEEHCDB@?$AAs?$AAp?$AAa?$AAn?$AAi?$AAs?$AAh?$AA?9?$AAa?$AAr?$AAg?$AAe?$AAn?$AAt?$AAi?$AAn?$AAa?$AA?$AA@ 000000018011b660     libucrtd:get_qualified_locale.obj
 0002:0001e690       ??_C@_1CA@GIAOLHJD@?$AAs?$AAp?$AAa?$AAn?$AAi?$AAs?$AAh?$AA?9?$AAb?$AAo?$AAl?$AAi?$AAv?$AAi?$AAa?$AA?$AA@ 000000018011b690     libucrtd:get_qualified_locale.obj
 0002:0001e6b8       ??_C@_1BM@OJNDFNPD@?$AAs?$AAp?$AAa?$AAn?$AAi?$AAs?$AAh?$AA?9?$AAc?$AAh?$AAi?$AAl?$AAe?$AA?$AA@ 000000018011b6b8     libucrtd:get_qualified_locale.obj
 0002:0001e6e0       ??_C@_1CC@OCOLPALL@?$AAs?$AAp?$AAa?$AAn?$AAi?$AAs?$AAh?$AA?9?$AAc?$AAo?$AAl?$AAo?$AAm?$AAb?$AAi?$AAa?$AA?$AA@ 000000018011b6e0     libucrtd:get_qualified_locale.obj
 0002:0001e708       ??_C@_1CG@BPOFMKBB@?$AAs?$AAp?$AAa?$AAn?$AAi?$AAs?$AAh?$AA?9?$AAc?$AAo?$AAs?$AAt?$AAa?$AA?5?$AAr?$AAi?$AAc?$AAa?$AA?$AA@ 000000018011b708     libucrtd:get_qualified_locale.obj
 0002:0001e738       ??_C@_1DG@IGOBAPBB@?$AAs?$AAp?$AAa?$AAn?$AAi?$AAs?$AAh?$AA?9?$AAd?$AAo?$AAm?$AAi?$AAn?$AAi?$AAc?$AAa?$AAn?$AA?5?$AAr?$AAe?$AAp?$AAu?$AAb?$AAl?$AAi?$AAc?$AA?$AA@ 000000018011b738     libucrtd:get_qualified_locale.obj
 0002:0001e778       ??_C@_1CA@JHAPGEGI@?$AAs?$AAp?$AAa?$AAn?$AAi?$AAs?$AAh?$AA?9?$AAe?$AAc?$AAu?$AAa?$AAd?$AAo?$AAr?$AA?$AA@ 000000018011b778     libucrtd:get_qualified_locale.obj
 0002:0001e7a0       ??_C@_1CI@LAPALJPP@?$AAs?$AAp?$AAa?$AAn?$AAi?$AAs?$AAh?$AA?9?$AAe?$AAl?$AA?5?$AAs?$AAa?$AAl?$AAv?$AAa?$AAd?$AAo?$AAr?$AA?$AA@ 000000018011b7a0     libucrtd:get_qualified_locale.obj
 0002:0001e7d0       ??_C@_1CE@PDGBOFOM@?$AAs?$AAp?$AAa?$AAn?$AAi?$AAs?$AAh?$AA?9?$AAg?$AAu?$AAa?$AAt?$AAe?$AAm?$AAa?$AAl?$AAa?$AA?$AA@ 000000018011b7d0     libucrtd:get_qualified_locale.obj
 0002:0001e800       ??_C@_1CC@NBEBAODI@?$AAs?$AAp?$AAa?$AAn?$AAi?$AAs?$AAh?$AA?9?$AAh?$AAo?$AAn?$AAd?$AAu?$AAr?$AAa?$AAs?$AA?$AA@ 000000018011b800     libucrtd:get_qualified_locale.obj
 0002:0001e828       ??_C@_1CA@LLKGHBMF@?$AAs?$AAp?$AAa?$AAn?$AAi?$AAs?$AAh?$AA?9?$AAm?$AAe?$AAx?$AAi?$AAc?$AAa?$AAn?$AA?$AA@ 000000018011b828     libucrtd:get_qualified_locale.obj
 0002:0001e850       ??_C@_1BO@LKNDOIGD@?$AAs?$AAp?$AAa?$AAn?$AAi?$AAs?$AAh?$AA?9?$AAm?$AAo?$AAd?$AAe?$AAr?$AAn?$AA?$AA@ 000000018011b850     libucrtd:get_qualified_locale.obj
 0002:0001e878       ??_C@_1CE@NMDMOEEB@?$AAs?$AAp?$AAa?$AAn?$AAi?$AAs?$AAh?$AA?9?$AAn?$AAi?$AAc?$AAa?$AAr?$AAa?$AAg?$AAu?$AAa?$AA?$AA@ 000000018011b878     libucrtd:get_qualified_locale.obj
 0002:0001e8a8       ??_C@_1BO@LLCBEJGB@?$AAs?$AAp?$AAa?$AAn?$AAi?$AAs?$AAh?$AA?9?$AAp?$AAa?$AAn?$AAa?$AAm?$AAa?$AA?$AA@ 000000018011b8a8     libucrtd:get_qualified_locale.obj
 0002:0001e8d0       ??_C@_1CC@FKPGGIHO@?$AAs?$AAp?$AAa?$AAn?$AAi?$AAs?$AAh?$AA?9?$AAp?$AAa?$AAr?$AAa?$AAg?$AAu?$AAa?$AAy?$AA?$AA@ 000000018011b8d0     libucrtd:get_qualified_locale.obj
 0002:0001e8f8       ??_C@_1BK@CDEIHOOP@?$AAs?$AAp?$AAa?$AAn?$AAi?$AAs?$AAh?$AA?9?$AAp?$AAe?$AAr?$AAu?$AA?$AA@ 000000018011b8f8     libucrtd:get_qualified_locale.obj
 0002:0001e918       ??_C@_1CI@GAHAKKGP@?$AAs?$AAp?$AAa?$AAn?$AAi?$AAs?$AAh?$AA?9?$AAp?$AAu?$AAe?$AAr?$AAt?$AAo?$AA?5?$AAr?$AAi?$AAc?$AAo?$AA?$AA@ 000000018011b918     libucrtd:get_qualified_locale.obj
 0002:0001e948       ??_C@_1CA@NKJBCAGP@?$AAs?$AAp?$AAa?$AAn?$AAi?$AAs?$AAh?$AA?9?$AAu?$AAr?$AAu?$AAg?$AAu?$AAa?$AAy?$AA?$AA@ 000000018011b948     libucrtd:get_qualified_locale.obj
 0002:0001e970       ??_C@_1CE@ODILCONM@?$AAs?$AAp?$AAa?$AAn?$AAi?$AAs?$AAh?$AA?9?$AAv?$AAe?$AAn?$AAe?$AAz?$AAu?$AAe?$AAl?$AAa?$AA?$AA@ 000000018011b970     libucrtd:get_qualified_locale.obj
 0002:0001e9a0       ??_C@_1CA@OBNMCGFO@?$AAs?$AAw?$AAe?$AAd?$AAi?$AAs?$AAh?$AA?9?$AAf?$AAi?$AAn?$AAl?$AAa?$AAn?$AAd?$AA?$AA@ 000000018011b9a0     libucrtd:get_qualified_locale.obj
 0002:0001e9c8       ??_C@_1M@PIPDDPPI@?$AAs?$AAw?$AAi?$AAs?$AAs?$AA?$AA@ 000000018011b9c8     libucrtd:get_qualified_locale.obj
 0002:0001e9d8       ??_C@_15PJPFLCCM@?$AAu?$AAk?$AA?$AA@ 000000018011b9d8     libucrtd:get_qualified_locale.obj
 0002:0001e9e0       ??_C@_15GMFIMNFM@?$AAu?$AAs?$AA?$AA@ 000000018011b9e0     libucrtd:get_qualified_locale.obj
 0002:0001e9e8       ??_C@_17HAEBFAGL@?$AAu?$AAs?$AAa?$AA?$AA@ 000000018011b9e8     libucrtd:get_qualified_locale.obj
 0002:0001e9f8       ??_C@_1BA@DPFJEPHB@?$AAa?$AAm?$AAe?$AAr?$AAi?$AAc?$AAa?$AA?$AA@ 000000018011b9f8     libucrtd:get_qualified_locale.obj
 0002:0001ea10       ??_C@_1BA@ELOGGFK@?$AAb?$AAr?$AAi?$AAt?$AAa?$AAi?$AAn?$AA?$AA@ 000000018011ba10     libucrtd:get_qualified_locale.obj
 0002:0001ea28       ??_C@_1M@GHBGIGDA@?$AAc?$AAh?$AAi?$AAn?$AAa?$AA?$AA@ 000000018011ba28     libucrtd:get_qualified_locale.obj
 0002:0001ea38       ??_C@_1M@NCHEJOPO@?$AAc?$AAz?$AAe?$AAc?$AAh?$AA?$AA@ 000000018011ba38     libucrtd:get_qualified_locale.obj
 0002:0001ea48       ??_C@_1BA@BKPAPBLA@?$AAe?$AAn?$AAg?$AAl?$AAa?$AAn?$AAd?$AA?$AA@ 000000018011ba48     libucrtd:get_qualified_locale.obj
 0002:0001ea60       ??_C@_1BM@HKBCKIPC@?$AAg?$AAr?$AAe?$AAa?$AAt?$AA?5?$AAb?$AAr?$AAi?$AAt?$AAa?$AAi?$AAn?$AA?$AA@ 000000018011ba60     libucrtd:get_qualified_locale.obj
 0002:0001ea88       ??_C@_1BA@PPCHPGJB@?$AAh?$AAo?$AAl?$AAl?$AAa?$AAn?$AAd?$AA?$AA@ 000000018011ba88     libucrtd:get_qualified_locale.obj
 0002:0001eaa0       ??_C@_1BE@JBMPEGDG@?$AAh?$AAo?$AAn?$AAg?$AA?9?$AAk?$AAo?$AAn?$AAg?$AA?$AA@ 000000018011baa0     libucrtd:get_qualified_locale.obj
 0002:0001eab8       ??_C@_1BI@KOELBBPJ@?$AAn?$AAe?$AAw?$AA?9?$AAz?$AAe?$AAa?$AAl?$AAa?$AAn?$AAd?$AA?$AA@ 000000018011bab8     libucrtd:get_qualified_locale.obj
 0002:0001ead4       ??_C@_15HIEBHAIO@?$AAn?$AAz?$AA?$AA@ 000000018011bad4     libucrtd:get_qualified_locale.obj
 0002:0001eae0       ??_C@_1BC@CHBCPFPI@?$AAp?$AAr?$AA?5?$AAc?$AAh?$AAi?$AAn?$AAa?$AA?$AA@ 000000018011bae0     libucrtd:get_qualified_locale.obj
 0002:0001eaf8       ??_C@_1BC@JAOIIFKD@?$AAp?$AAr?$AA?9?$AAc?$AAh?$AAi?$AAn?$AAa?$AA?$AA@ 000000018011baf8     libucrtd:get_qualified_locale.obj
 0002:0001eb10       ??_C@_1BI@BEHPPHKC@?$AAp?$AAu?$AAe?$AAr?$AAt?$AAo?$AA?9?$AAr?$AAi?$AAc?$AAo?$AA?$AA@ 000000018011bb10     libucrtd:get_qualified_locale.obj
 0002:0001eb30       ??_C@_1O@PAEOFKDI@?$AAs?$AAl?$AAo?$AAv?$AAa?$AAk?$AA?$AA@ 000000018011bb30     libucrtd:get_qualified_locale.obj
 0002:0001eb40       ??_C@_1HO@CKHMGCFN@?$AAm?$AAi?$AAn?$AAk?$AAe?$AAr?$AAn?$AAe?$AAl?$AA?2?$AAc?$AAr?$AAt?$AAs?$AA?2?$AAu?$AAc?$AAr?$AAt?$AA?2?$AAs?$AAr?$AAc?$AA?2?$AAa?$AAp?$AAp?$AAc?$AAr?$AAt?$AA?2?$AAl@ 000000018011bb40     libucrtd:get_qualified_locale.obj
 0002:0001ebd8       ??_C@_1DI@HCPCNHHP@?$AA_?$AA_?$AAa?$AAc?$AAr?$AAt?$AA_?$AAg?$AAe?$AAt?$AA_?$AAq?$AAu?$AAa?$AAl?$AAi?$AAf?$AAi?$AAe?$AAd?$AA_?$AAl?$AAo?$AAc?$AAa?$AAl?$AAe?$AA?$AA@ 000000018011bbd8     libucrtd:get_qualified_locale.obj
 0002:0001ec20       ??_C@_1BFC@DEALMEIM@?$AAw?$AAc?$AAs?$AAn?$AAc?$AAp?$AAy?$AA_?$AAs?$AA?$CI?$AAl?$AAp?$AAO?$AAu?$AAt?$AAS?$AAt?$AAr?$AA?9?$AA?$DO?$AAs?$AAz?$AAL?$AAo?$AAc?$AAa?$AAl?$AAe?$AAN?$AAa?$AAm?$AAe@ 000000018011bc20     libucrtd:get_qualified_locale.obj
 0002:0001edb8       ??_C@_1CM@OGEMFJNJ@?$AAL?$AAa?$AAn?$AAg?$AAC?$AAo?$AAu?$AAn?$AAt?$AAr?$AAy?$AAE?$AAn?$AAu?$AAm?$AAP?$AAr?$AAo?$AAc?$AAE?$AAx?$AA?$AA@ 000000018011bdb8     libucrtd:get_qualified_locale.obj
 0002:0001edf0       ??_C@_1BDC@CGCEDIGP@?$AAw?$AAc?$AAs?$AAn?$AAc?$AAp?$AAy?$AA_?$AAs?$AA?$CI?$AA_?$AAp?$AAs?$AAe?$AAt?$AAl?$AAo?$AAc?$AA_?$AAd?$AAa?$AAt?$AAa?$AA?9?$AA?$DO?$AA_?$AAc?$AAa?$AAc?$AAh?$AAe?$AAL@ 000000018011bdf0     libucrtd:get_qualified_locale.obj
 0002:0001ef60       ??_C@_1CG@PGLLICHO@?$AAL?$AAa?$AAn?$AAg?$AAu?$AAa?$AAg?$AAe?$AAE?$AAn?$AAu?$AAm?$AAP?$AAr?$AAo?$AAc?$AAE?$AAx?$AA?$AA@ 000000018011bf60     libucrtd:get_qualified_locale.obj
 0002:0001ef90       ??_C@_1DC@CPKFANGP@?$AAG?$AAe?$AAt?$AAL?$AAo?$AAc?$AAa?$AAl?$AAe?$AAN?$AAa?$AAm?$AAe?$AAF?$AAr?$AAo?$AAm?$AAD?$AAe?$AAf?$AAa?$AAu?$AAl?$AAt?$AA?$AA@ 000000018011bf90     libucrtd:get_qualified_locale.obj
 0002:0001efd0       ??_C@_1BCC@GMJIFDHO@?$AAw?$AAc?$AAs?$AAn?$AAc?$AAp?$AAy?$AA_?$AAs?$AA?$CI?$AA_?$AAp?$AAs?$AAe?$AAt?$AAl?$AAo?$AAc?$AA_?$AAd?$AAa?$AAt?$AAa?$AA?9?$AA?$DO?$AA_?$AAc?$AAa?$AAc?$AAh?$AAe?$AAL@ 000000018011bfd0     libucrtd:get_qualified_locale.obj
 0002:0001f130       ??_C@_17DNCLJFIF@?$AAA?$AAC?$AAP?$AA?$AA@ 000000018011c130     libucrtd:get_qualified_locale.obj
 0002:0001f140       ??_C@_17CIKBIHLH@?$AAO?$AAC?$AAP?$AA?$AA@ 000000018011c140     libucrtd:get_qualified_locale.obj
 0002:0001f150       __rglangidNotDefault       000000018011c150     libucrtd:getqloc_downlevel.obj
 0002:0001f168       ??_C@_1BG@NDGMJIMJ@?$AAu?$AAz?$AA?9?$AAU?$AAZ?$AA?9?$AAL?$AAa?$AAt?$AAn?$AA?$AA@ 000000018011c168     libucrtd:lcidtoname_downlevel.obj
 0002:0001f188       ??_C@_1M@IDCCIHBC@?$AAt?$AAt?$AA?9?$AAR?$AAU?$AA?$AA@ 000000018011c188     libucrtd:lcidtoname_downlevel.obj
 0002:0001f198       ??_C@_1M@LOICPMOJ@?$AAb?$AAn?$AA?9?$AAI?$AAN?$AA?$AA@ 000000018011c198     libucrtd:lcidtoname_downlevel.obj
 0002:0001f1a8       ??_C@_1M@KPKKNEAH@?$AAp?$AAa?$AA?9?$AAI?$AAN?$AA?$AA@ 000000018011c1a8     libucrtd:lcidtoname_downlevel.obj
 0002:0001f1b8       ??_C@_1M@PJGPPBOG@?$AAg?$AAu?$AA?9?$AAI?$AAN?$AA?$AA@ 000000018011c1b8     libucrtd:lcidtoname_downlevel.obj
 0002:0001f1c8       ??_C@_1M@KMKMOPHI@?$AAt?$AAa?$AA?9?$AAI?$AAN?$AA?$AA@ 000000018011c1c8     libucrtd:lcidtoname_downlevel.obj
 0002:0001f1d8       ??_C@_1M@KFEHEPAC@?$AAt?$AAe?$AA?9?$AAI?$AAN?$AA?$AA@ 000000018011c1d8     libucrtd:lcidtoname_downlevel.obj
 0002:0001f1e8       ??_C@_1M@CDCLMGHI@?$AAk?$AAn?$AA?9?$AAI?$AAN?$AA?$AA@ 000000018011c1e8     libucrtd:lcidtoname_downlevel.obj
 0002:0001f1f8       ??_C@_1M@MIODLDKF@?$AAm?$AAl?$AA?9?$AAI?$AAN?$AA?$AA@ 000000018011c1f8     libucrtd:lcidtoname_downlevel.obj
 0002:0001f208       ??_C@_1M@PBIEACPO@?$AAm?$AAr?$AA?9?$AAI?$AAN?$AA?$AA@ 000000018011c208     libucrtd:lcidtoname_downlevel.obj
 0002:0001f218       ??_C@_1M@NIDEAGPH@?$AAs?$AAa?$AA?9?$AAI?$AAN?$AA?$AA@ 000000018011c218     libucrtd:lcidtoname_downlevel.obj
 0002:0001f228       ??_C@_1M@FHIHCBIO@?$AAm?$AAn?$AA?9?$AAM?$AAN?$AA?$AA@ 000000018011c228     libucrtd:lcidtoname_downlevel.obj
 0002:0001f238       ??_C@_1M@JAIJPENP@?$AAc?$AAy?$AA?9?$AAG?$AAB?$AA?$AA@ 000000018011c238     libucrtd:lcidtoname_downlevel.obj
 0002:0001f248       ??_C@_1M@PHGFBEPN@?$AAg?$AAl?$AA?9?$AAE?$AAS?$AA?$AA@ 000000018011c248     libucrtd:lcidtoname_downlevel.obj
 0002:0001f258       ??_C@_1O@KPIPDNCP@?$AAk?$AAo?$AAk?$AA?9?$AAI?$AAN?$AA?$AA@ 000000018011c258     libucrtd:lcidtoname_downlevel.obj
 0002:0001f268       ??_C@_1O@KNHJLDJA@?$AAs?$AAy?$AAr?$AA?9?$AAS?$AAY?$AA?$AA@ 000000018011c268     libucrtd:lcidtoname_downlevel.obj
 0002:0001f278       ??_C@_1O@MKEKBLAH@?$AAd?$AAi?$AAv?$AA?9?$AAM?$AAV?$AA?$AA@ 000000018011c278     libucrtd:lcidtoname_downlevel.obj
 0002:0001f288       ??_C@_1O@OHDCKDDF@?$AAq?$AAu?$AAz?$AA?9?$AAB?$AAO?$AA?$AA@ 000000018011c288     libucrtd:lcidtoname_downlevel.obj
 0002:0001f298       ??_C@_1M@LEPJNLFD@?$AAn?$AAs?$AA?9?$AAZ?$AAA?$AA?$AA@ 000000018011c298     libucrtd:lcidtoname_downlevel.obj
 0002:0001f2a8       ??_C@_1M@OMLEIIJB@?$AAm?$AAi?$AA?9?$AAN?$AAZ?$AA?$AA@ 000000018011c2a8     libucrtd:lcidtoname_downlevel.obj
 0002:0001f2b8       ??_C@_1M@PMPEAILG@?$AAa?$AAr?$AA?9?$AAI?$AAQ?$AA?$AA@ 000000018011c2b8     libucrtd:lcidtoname_downlevel.obj
 0002:0001f2c8       ??_C@_1M@CNKPNOEE@?$AAd?$AAe?$AA?9?$AAC?$AAH?$AA?$AA@ 000000018011c2c8     libucrtd:lcidtoname_downlevel.obj
 0002:0001f2d8       ??_C@_1M@LKMGMLKO@?$AAe?$AAn?$AA?9?$AAG?$AAB?$AA?$AA@ 000000018011c2d8     libucrtd:lcidtoname_downlevel.obj
 0002:0001f2e8       ??_C@_1M@PGKJFFGL@?$AAe?$AAs?$AA?9?$AAM?$AAX?$AA?$AA@ 000000018011c2e8     libucrtd:lcidtoname_downlevel.obj
 0002:0001f2f8       ??_C@_1M@DNNANBDC@?$AAf?$AAr?$AA?9?$AAB?$AAE?$AA?$AA@ 000000018011c2f8     libucrtd:lcidtoname_downlevel.obj
 0002:0001f308       ??_C@_1M@HLGMDFHM@?$AAi?$AAt?$AA?9?$AAC?$AAH?$AA?$AA@ 000000018011c308     libucrtd:lcidtoname_downlevel.obj
 0002:0001f318       ??_C@_1M@CLLBGJH@?$AAn?$AAl?$AA?9?$AAB?$AAE?$AA?$AA@ 000000018011c318     libucrtd:lcidtoname_downlevel.obj
 0002:0001f328       ??_C@_1M@BODBOGLF@?$AAn?$AAn?$AA?9?$AAN?$AAO?$AA?$AA@ 000000018011c328     libucrtd:lcidtoname_downlevel.obj
 0002:0001f338       ??_C@_1M@HFFAHKAD@?$AAp?$AAt?$AA?9?$AAP?$AAT?$AA?$AA@ 000000018011c338     libucrtd:lcidtoname_downlevel.obj
 0002:0001f348       ??_C@_1BG@LNOAKHIE@?$AAs?$AAr?$AA?9?$AAS?$AAP?$AA?9?$AAL?$AAa?$AAt?$AAn?$AA?$AA@ 000000018011c348     libucrtd:lcidtoname_downlevel.obj
 0002:0001f368       ??_C@_1M@HBMHBGAK@?$AAs?$AAv?$AA?9?$AAF?$AAI?$AA?$AA@ 000000018011c368     libucrtd:lcidtoname_downlevel.obj
 0002:0001f378       ??_C@_1BG@DGCJGJBE@?$AAa?$AAz?$AA?9?$AAA?$AAZ?$AA?9?$AAC?$AAy?$AAr?$AAl?$AA?$AA@ 000000018011c378     libucrtd:lcidtoname_downlevel.obj
 0002:0001f398       ??_C@_1M@KEJDAAHB@?$AAs?$AAe?$AA?9?$AAS?$AAE?$AA?$AA@ 000000018011c398     libucrtd:lcidtoname_downlevel.obj
 0002:0001f3a8       ??_C@_1M@HEIBJJAD@?$AAm?$AAs?$AA?9?$AAB?$AAN?$AA?$AA@ 000000018011c3a8     libucrtd:lcidtoname_downlevel.obj
 0002:0001f3b8       ??_C@_1BG@PBGJMCEM@?$AAu?$AAz?$AA?9?$AAU?$AAZ?$AA?9?$AAC?$AAy?$AAr?$AAl?$AA?$AA@ 000000018011c3b8     libucrtd:lcidtoname_downlevel.obj
 0002:0001f3d8       ??_C@_1O@LAOBCMDF@?$AAq?$AAu?$AAz?$AA?9?$AAE?$AAC?$AA?$AA@ 000000018011c3d8     libucrtd:lcidtoname_downlevel.obj
 0002:0001f3e8       ??_C@_1M@POEEMAIO@?$AAa?$AAr?$AA?9?$AAE?$AAG?$AA?$AA@ 000000018011c3e8     libucrtd:lcidtoname_downlevel.obj
 0002:0001f3f8       ??_C@_1M@EFAKDEDL@?$AAz?$AAh?$AA?9?$AAH?$AAK?$AA?$AA@ 000000018011c3f8     libucrtd:lcidtoname_downlevel.obj
 0002:0001f408       ??_C@_1M@HKKIJHGI@?$AAd?$AAe?$AA?9?$AAA?$AAT?$AA?$AA@ 000000018011c408     libucrtd:lcidtoname_downlevel.obj
 0002:0001f418       ??_C@_1M@KBFBEHJF@?$AAe?$AAn?$AA?9?$AAA?$AAU?$AA?$AA@ 000000018011c418     libucrtd:lcidtoname_downlevel.obj
 0002:0001f428       ??_C@_1M@MNPLFAAH@?$AAe?$AAs?$AA?9?$AAE?$AAS?$AA?$AA@ 000000018011c428     libucrtd:lcidtoname_downlevel.obj
 0002:0001f438       ??_C@_1M@HJOOJFMA@?$AAf?$AAr?$AA?9?$AAC?$AAA?$AA?$AA@ 000000018011c438     libucrtd:lcidtoname_downlevel.obj
 0002:0001f448       ??_C@_1BG@JPOFPNAB@?$AAs?$AAr?$AA?9?$AAS?$AAP?$AA?9?$AAC?$AAy?$AAr?$AAl?$AA?$AA@ 000000018011c448     libucrtd:lcidtoname_downlevel.obj
 0002:0001f468       ??_C@_1M@LNFOCMOB@?$AAs?$AAe?$AA?9?$AAF?$AAI?$AA?$AA@ 000000018011c468     libucrtd:lcidtoname_downlevel.obj
 0002:0001f478       ??_C@_1O@MGJBOAMB@?$AAq?$AAu?$AAz?$AA?9?$AAP?$AAE?$AA?$AA@ 000000018011c478     libucrtd:lcidtoname_downlevel.obj
 0002:0001f488       ??_C@_1M@GJINLBOK@?$AAa?$AAr?$AA?9?$AAL?$AAY?$AA?$AA@ 000000018011c488     libucrtd:lcidtoname_downlevel.obj
 0002:0001f498       ??_C@_1M@GGMNHJNL@?$AAz?$AAh?$AA?9?$AAS?$AAG?$AA?$AA@ 000000018011c498     libucrtd:lcidtoname_downlevel.obj
 0002:0001f4a8       ??_C@_1M@HOIKODND@?$AAd?$AAe?$AA?9?$AAL?$AAU?$AA?$AA@ 000000018011c4a8     libucrtd:lcidtoname_downlevel.obj
 0002:0001f4b8       ??_C@_1M@DDOCCGFG@?$AAe?$AAn?$AA?9?$AAC?$AAA?$AA?$AA@ 000000018011c4b8     libucrtd:lcidtoname_downlevel.obj
 0002:0001f4c8       ??_C@_1M@BNOEMJLF@?$AAe?$AAs?$AA?9?$AAG?$AAT?$AA?$AA@ 000000018011c4c8     libucrtd:lcidtoname_downlevel.obj
 0002:0001f4d8       ??_C@_1M@EOGNKEK@?$AAf?$AAr?$AA?9?$AAC?$AAH?$AA?$AA@ 000000018011c4d8     libucrtd:lcidtoname_downlevel.obj
 0002:0001f4e8       ??_C@_1M@FLIDJFHL@?$AAh?$AAr?$AA?9?$AAB?$AAA?$AA?$AA@ 000000018011c4e8     libucrtd:lcidtoname_downlevel.obj
 0002:0001f4f8       ??_C@_1O@FMCELNAJ@?$AAs?$AAm?$AAj?$AA?9?$AAN?$AAO?$AA?$AA@ 000000018011c4f8     libucrtd:lcidtoname_downlevel.obj
 0002:0001f508       ??_C@_1M@JHGLJMGJ@?$AAa?$AAr?$AA?9?$AAD?$AAZ?$AA?$AA@ 000000018011c508     libucrtd:lcidtoname_downlevel.obj
 0002:0001f518       ??_C@_1M@JKKFDCNP@?$AAz?$AAh?$AA?9?$AAM?$AAO?$AA?$AA@ 000000018011c518     libucrtd:lcidtoname_downlevel.obj
 0002:0001f528       ??_C@_1M@GEEFALPE@?$AAd?$AAe?$AA?9?$AAL?$AAI?$AA?$AA@ 000000018011c528     libucrtd:lcidtoname_downlevel.obj
 0002:0001f538       ??_C@_1M@IGEOFBG@?$AAe?$AAn?$AA?9?$AAN?$AAZ?$AA?$AA@ 000000018011c538     libucrtd:lcidtoname_downlevel.obj
 0002:0001f548       ??_C@_1M@KDBONEHP@?$AAe?$AAs?$AA?9?$AAC?$AAR?$AA?$AA@ 000000018011c548     libucrtd:lcidtoname_downlevel.obj
 0002:0001f558       ??_C@_1M@FHMDOHNN@?$AAf?$AAr?$AA?9?$AAL?$AAU?$AA?$AA@ 000000018011c558     libucrtd:lcidtoname_downlevel.obj
 0002:0001f568       ??_C@_1BG@NFKKMAFG@?$AAb?$AAs?$AA?9?$AAB?$AAA?$AA?9?$AAL?$AAa?$AAt?$AAn?$AA?$AA@ 000000018011c568     libucrtd:lcidtoname_downlevel.obj
 0002:0001f588       ??_C@_1O@IMNBEMCI@?$AAs?$AAm?$AAj?$AA?9?$AAS?$AAE?$AA?$AA@ 000000018011c588     libucrtd:lcidtoname_downlevel.obj
 0002:0001f598       ??_C@_1M@DHHMBNDP@?$AAa?$AAr?$AA?9?$AAM?$AAA?$AA?$AA@ 000000018011c598     libucrtd:lcidtoname_downlevel.obj
 0002:0001f5a8       ??_C@_1M@BNBLJCGH@?$AAe?$AAn?$AA?9?$AAI?$AAE?$AA?$AA@ 000000018011c5a8     libucrtd:lcidtoname_downlevel.obj
 0002:0001f5b8       ??_C@_1M@GEPAFMDL@?$AAe?$AAs?$AA?9?$AAP?$AAA?$AA?$AA@ 000000018011c5b8     libucrtd:lcidtoname_downlevel.obj
 0002:0001f5c8       ??_C@_1M@OJONDMDL@?$AAf?$AAr?$AA?9?$AAM?$AAC?$AA?$AA@ 000000018011c5c8     libucrtd:lcidtoname_downlevel.obj
 0002:0001f5d8       ??_C@_1BG@OBCNFJB@?$AAs?$AAr?$AA?9?$AAB?$AAA?$AA?9?$AAL?$AAa?$AAt?$AAn?$AA?$AA@ 000000018011c5d8     libucrtd:lcidtoname_downlevel.obj
 0002:0001f5f8       ??_C@_1O@KEMEEGPO@?$AAs?$AAm?$AAa?$AA?9?$AAN?$AAO?$AA?$AA@ 000000018011c5f8     libucrtd:lcidtoname_downlevel.obj
 0002:0001f608       ??_C@_1M@ELMGFODK@?$AAa?$AAr?$AA?9?$AAT?$AAN?$AA?$AA@ 000000018011c608     libucrtd:lcidtoname_downlevel.obj
 0002:0001f618       ??_C@_1M@BHDLHFAF@?$AAe?$AAn?$AA?9?$AAZ?$AAA?$AA?$AA@ 000000018011c618     libucrtd:lcidtoname_downlevel.obj
 0002:0001f628       ??_C@_1M@BMGIGLIF@?$AAe?$AAs?$AA?9?$AAD?$AAO?$AA?$AA@ 000000018011c628     libucrtd:lcidtoname_downlevel.obj
 0002:0001f638       ??_C@_1BG@CMBHIPBE@?$AAs?$AAr?$AA?9?$AAB?$AAA?$AA?9?$AAC?$AAy?$AAr?$AAl?$AA?$AA@ 000000018011c638     libucrtd:lcidtoname_downlevel.obj
 0002:0001f658       ??_C@_1O@HEDBLHNP@?$AAs?$AAm?$AAa?$AA?9?$AAS?$AAE?$AA?$AA@ 000000018011c658     libucrtd:lcidtoname_downlevel.obj
 0002:0001f668       ??_C@_1M@DAGCADIM@?$AAa?$AAr?$AA?9?$AAO?$AAM?$AA?$AA@ 000000018011c668     libucrtd:lcidtoname_downlevel.obj
 0002:0001f678       ??_C@_1M@FODLMICG@?$AAe?$AAn?$AA?9?$AAJ?$AAM?$AA?$AA@ 000000018011c678     libucrtd:lcidtoname_downlevel.obj
 0002:0001f688       ??_C@_1M@DNMLCIHB@?$AAe?$AAs?$AA?9?$AAV?$AAE?$AA?$AA@ 000000018011c688     libucrtd:lcidtoname_downlevel.obj
 0002:0001f698       ??_C@_1O@EOKHMKJK@?$AAs?$AAm?$AAs?$AA?9?$AAF?$AAI?$AA?$AA@ 000000018011c698     libucrtd:lcidtoname_downlevel.obj
 0002:0001f6a8       ??_C@_1M@CAFJMKOF@?$AAa?$AAr?$AA?9?$AAY?$AAE?$AA?$AA@ 000000018011c6a8     libucrtd:lcidtoname_downlevel.obj
 0002:0001f6b8       ??_C@_1M@CBFHIJLI@?$AAe?$AAn?$AA?9?$AAC?$AAB?$AA?$AA@ 000000018011c6b8     libucrtd:lcidtoname_downlevel.obj
 0002:0001f6c8       ??_C@_1M@BGNFLDN@?$AAe?$AAs?$AA?9?$AAC?$AAO?$AA?$AA@ 000000018011c6c8     libucrtd:lcidtoname_downlevel.obj
 0002:0001f6d8       ??_C@_1O@JMPHMAMC@?$AAs?$AAm?$AAn?$AA?9?$AAF?$AAI?$AA?$AA@ 000000018011c6d8     libucrtd:lcidtoname_downlevel.obj
 0002:0001f6e8       ??_C@_1M@JLANABKE@?$AAa?$AAr?$AA?9?$AAS?$AAY?$AA?$AA@ 000000018011c6e8     libucrtd:lcidtoname_downlevel.obj
 0002:0001f6f8       ??_C@_1M@HPKGCFGN@?$AAe?$AAn?$AA?9?$AAB?$AAZ?$AA?$AA@ 000000018011c6f8     libucrtd:lcidtoname_downlevel.obj
 0002:0001f708       ??_C@_1M@OLJCMLGM@?$AAe?$AAs?$AA?9?$AAP?$AAE?$AA?$AA@ 000000018011c708     libucrtd:lcidtoname_downlevel.obj
 0002:0001f718       ??_C@_1M@MKKGFKLE@?$AAa?$AAr?$AA?9?$AAJ?$AAO?$AA?$AA@ 000000018011c718     libucrtd:lcidtoname_downlevel.obj
 0002:0001f728       ??_C@_1M@EKPGLDNI@?$AAe?$AAn?$AA?9?$AAT?$AAT?$AA?$AA@ 000000018011c728     libucrtd:lcidtoname_downlevel.obj
 0002:0001f738       ??_C@_1M@OONGHFHE@?$AAe?$AAs?$AA?9?$AAA?$AAR?$AA?$AA@ 000000018011c738     libucrtd:lcidtoname_downlevel.obj
 0002:0001f748       ??_C@_1M@OOJFGBHE@?$AAa?$AAr?$AA?9?$AAL?$AAB?$AA?$AA@ 000000018011c748     libucrtd:lcidtoname_downlevel.obj
 0002:0001f758       ??_C@_1M@GCEJHNEG@?$AAe?$AAn?$AA?9?$AAZ?$AAW?$AA?$AA@ 000000018011c758     libucrtd:lcidtoname_downlevel.obj
 0002:0001f768       ??_C@_1M@JNOCAHJI@?$AAe?$AAs?$AA?9?$AAE?$AAC?$AA?$AA@ 000000018011c768     libucrtd:lcidtoname_downlevel.obj
 0002:0001f778       ??_C@_1M@JEFHPGGB@?$AAa?$AAr?$AA?9?$AAK?$AAW?$AA?$AA@ 000000018011c778     libucrtd:lcidtoname_downlevel.obj
 0002:0001f788       ??_C@_1M@MLKIBJOJ@?$AAe?$AAn?$AA?9?$AAP?$AAH?$AA?$AA@ 000000018011c788     libucrtd:lcidtoname_downlevel.obj
 0002:0001f798       ??_C@_1M@BDNIPEND@?$AAe?$AAs?$AA?9?$AAC?$AAL?$AA?$AA@ 000000018011c798     libucrtd:lcidtoname_downlevel.obj
 0002:0001f7a8       ??_C@_1M@MPNMEKBD@?$AAa?$AAr?$AA?9?$AAA?$AAE?$AA?$AA@ 000000018011c7a8     libucrtd:lcidtoname_downlevel.obj
 0002:0001f7b8       ??_C@_1M@KBJALCPI@?$AAe?$AAs?$AA?9?$AAU?$AAY?$AA?$AA@ 000000018011c7b8     libucrtd:lcidtoname_downlevel.obj
 0002:0001f7c8       ??_C@_1M@LLCCOAGA@?$AAa?$AAr?$AA?9?$AAB?$AAH?$AA?$AA@ 000000018011c7c8     libucrtd:lcidtoname_downlevel.obj
 0002:0001f7d8       ??_C@_1M@PBFNCDEL@?$AAe?$AAs?$AA?9?$AAP?$AAY?$AA?$AA@ 000000018011c7d8     libucrtd:lcidtoname_downlevel.obj
 0002:0001f7e8       ??_C@_1M@EDGINPNP@?$AAa?$AAr?$AA?9?$AAQ?$AAA?$AA?$AA@ 000000018011c7e8     libucrtd:lcidtoname_downlevel.obj
 0002:0001f7f8       ??_C@_1M@MKDBIIJI@?$AAe?$AAs?$AA?9?$AAB?$AAO?$AA?$AA@ 000000018011c7f8     libucrtd:lcidtoname_downlevel.obj
 0002:0001f808       ??_C@_1M@CPKKEBLD@?$AAe?$AAs?$AA?9?$AAS?$AAV?$AA?$AA@ 000000018011c808     libucrtd:lcidtoname_downlevel.obj
 0002:0001f818       ??_C@_1M@NDBGMMJL@?$AAe?$AAs?$AA?9?$AAH?$AAN?$AA?$AA@ 000000018011c818     libucrtd:lcidtoname_downlevel.obj
 0002:0001f828       ??_C@_1M@JIJIBHDP@?$AAe?$AAs?$AA?9?$AAN?$AAI?$AA?$AA@ 000000018011c828     libucrtd:lcidtoname_downlevel.obj
 0002:0001f838       ??_C@_1M@CGFMKEEK@?$AAe?$AAs?$AA?9?$AAP?$AAR?$AA?$AA@ 000000018011c838     libucrtd:lcidtoname_downlevel.obj
 0002:0001f848       ??_C@_1O@ICJHKIIK@?$AAz?$AAh?$AA?9?$AAC?$AAH?$AAT?$AA?$AA@ 000000018011c848     libucrtd:lcidtoname_downlevel.obj
 0002:0001f858       ??_C@_15CLNEJCE@?$AAs?$AAr?$AA?$AA@ 000000018011c858     libucrtd:lcidtoname_downlevel.obj
 0002:00020980       ??_C@_1M@KAHEKEIG@?$AAa?$AAf?$AA?9?$AAz?$AAa?$AA?$AA@ 000000018011d980     libucrtd:lcidtoname_downlevel.obj
 0002:00020990       ??_C@_1M@GIECOABL@?$AAa?$AAr?$AA?9?$AAa?$AAe?$AA?$AA@ 000000018011d990     libucrtd:lcidtoname_downlevel.obj
 0002:000209a0       ??_C@_1M@BMLMEKGI@?$AAa?$AAr?$AA?9?$AAb?$AAh?$AA?$AA@ 000000018011d9a0     libucrtd:lcidtoname_downlevel.obj
 0002:000209b0       ??_C@_1M@DAPFDGGB@?$AAa?$AAr?$AA?9?$AAd?$AAz?$AA?$AA@ 000000018011d9b0     libucrtd:lcidtoname_downlevel.obj
 0002:000209c0       ??_C@_1M@FJNKGKIG@?$AAa?$AAr?$AA?9?$AAe?$AAg?$AA?$AA@ 000000018011d9c0     libucrtd:lcidtoname_downlevel.obj
 0002:000209d0       ??_C@_1M@FLGKKCLO@?$AAa?$AAr?$AA?9?$AAi?$AAq?$AA?$AA@ 000000018011d9d0     libucrtd:lcidtoname_downlevel.obj
 0002:000209e0       ??_C@_1M@GNDIPALM@?$AAa?$AAr?$AA?9?$AAj?$AAo?$AA?$AA@ 000000018011d9e0     libucrtd:lcidtoname_downlevel.obj
 0002:000209f0       ??_C@_1M@DDMJFMGJ@?$AAa?$AAr?$AA?9?$AAk?$AAw?$AA?$AA@ 000000018011d9f0     libucrtd:lcidtoname_downlevel.obj
 0002:00020a00       ??_C@_1M@EJALMLHM@?$AAa?$AAr?$AA?9?$AAl?$AAb?$AA?$AA@ 000000018011da00     libucrtd:lcidtoname_downlevel.obj
 0002:00020a10       ??_C@_1M@MOBDBLOC@?$AAa?$AAr?$AA?9?$AAl?$AAy?$AA?$AA@ 000000018011da10     libucrtd:lcidtoname_downlevel.obj
 0002:00020a20       ??_C@_1M@JAOCLHDH@?$AAa?$AAr?$AA?9?$AAm?$AAa?$AA?$AA@ 000000018011da20     libucrtd:lcidtoname_downlevel.obj
 0002:00020a30       ??_C@_1M@JHPMKJIE@?$AAa?$AAr?$AA?9?$AAo?$AAm?$AA?$AA@ 000000018011da30     libucrtd:lcidtoname_downlevel.obj
 0002:00020a40       ??_C@_1M@OEPGHFNH@?$AAa?$AAr?$AA?9?$AAq?$AAa?$AA?$AA@ 000000018011da40     libucrtd:lcidtoname_downlevel.obj
 0002:00020a50       ??_C@_1M@KJDONENM@?$AAa?$AAr?$AA?9?$AAs?$AAa?$AA?$AA@ 000000018011da50     libucrtd:lcidtoname_downlevel.obj
 0002:00020a60       ??_C@_1M@DMJDKLKM@?$AAa?$AAr?$AA?9?$AAs?$AAy?$AA?$AA@ 000000018011da60     libucrtd:lcidtoname_downlevel.obj
 0002:00020a70       ??_C@_1M@OMFIPEDC@?$AAa?$AAr?$AA?9?$AAt?$AAn?$AA?$AA@ 000000018011da70     libucrtd:lcidtoname_downlevel.obj
 0002:00020a80       ??_C@_1M@IHMHGAON@?$AAa?$AAr?$AA?9?$AAy?$AAe?$AA?$AA@ 000000018011da80     libucrtd:lcidtoname_downlevel.obj
 0002:00020a90       ??_C@_1BG@KDCPGJGB@?$AAa?$AAz?$AA?9?$AAa?$AAz?$AA?9?$AAc?$AAy?$AAr?$AAl?$AA?$AA@ 000000018011da90     libucrtd:lcidtoname_downlevel.obj
 0002:00020ab0       ??_C@_1BG@IBCKDDOE@?$AAa?$AAz?$AA?9?$AAa?$AAz?$AA?9?$AAl?$AAa?$AAt?$AAn?$AA?$AA@ 000000018011dab0     libucrtd:lcidtoname_downlevel.obj
 0002:00020ad0       ??_C@_1M@EGPFDCPD@?$AAb?$AAe?$AA?9?$AAb?$AAy?$AA?$AA@ 000000018011dad0     libucrtd:lcidtoname_downlevel.obj
 0002:00020ae0       ??_C@_1M@PCMGMCGC@?$AAb?$AAg?$AA?9?$AAb?$AAg?$AA?$AA@ 000000018011dae0     libucrtd:lcidtoname_downlevel.obj
 0002:00020af0       ??_C@_1M@BJBMFGOB@?$AAb?$AAn?$AA?9?$AAi?$AAn?$AA?$AA@ 000000018011daf0     libucrtd:lcidtoname_downlevel.obj
 0002:00020b00       ??_C@_1BG@EAKMMACD@?$AAb?$AAs?$AA?9?$AAb?$AAa?$AA?9?$AAl?$AAa?$AAt?$AAn?$AA?$AA@ 000000018011db00     libucrtd:lcidtoname_downlevel.obj
 0002:00020b20       ??_C@_1M@KGADAODK@?$AAc?$AAa?$AA?9?$AAe?$AAs?$AA?$AA@ 000000018011db20     libucrtd:lcidtoname_downlevel.obj
 0002:00020b30       ??_C@_1M@COAJPDHI@?$AAc?$AAs?$AA?9?$AAc?$AAz?$AA?$AA@ 000000018011db30     libucrtd:lcidtoname_downlevel.obj
 0002:00020b40       ??_C@_1M@DHBHFONH@?$AAc?$AAy?$AA?9?$AAg?$AAb?$AA?$AA@ 000000018011db40     libucrtd:lcidtoname_downlevel.obj
 0002:00020b50       ??_C@_1M@IMGKELGA@?$AAd?$AAa?$AA?9?$AAd?$AAk?$AA?$AA@ 000000018011db50     libucrtd:lcidtoname_downlevel.obj
 0002:00020b60       ??_C@_1M@NNDGDNGA@?$AAd?$AAe?$AA?9?$AAa?$AAt?$AA?$AA@ 000000018011db60     libucrtd:lcidtoname_downlevel.obj
 0002:00020b70       ??_C@_1M@IKDBHEEM@?$AAd?$AAe?$AA?9?$AAc?$AAh?$AA?$AA@ 000000018011db70     libucrtd:lcidtoname_downlevel.obj
 0002:00020b80       ??_C@_1M@GFFOJMCJ@?$AAd?$AAe?$AA?9?$AAd?$AAe?$AA?$AA@ 000000018011db80     libucrtd:lcidtoname_downlevel.obj
 0002:00020b90       ??_C@_1M@MDNLKBPM@?$AAd?$AAe?$AA?9?$AAl?$AAi?$AA?$AA@ 000000018011db90     libucrtd:lcidtoname_downlevel.obj
 0002:00020ba0       ??_C@_1M@NJBEEJNL@?$AAd?$AAe?$AA?9?$AAl?$AAu?$AA?$AA@ 000000018011dba0     libucrtd:lcidtoname_downlevel.obj
 0002:00020bb0       ??_C@_1O@GNNELBAP@?$AAd?$AAi?$AAv?$AA?9?$AAm?$AAv?$AA?$AA@ 000000018011dbb0     libucrtd:lcidtoname_downlevel.obj
 0002:00020bc0       ??_C@_1M@EJLEOGAE@?$AAe?$AAl?$AA?9?$AAg?$AAr?$AA?$AA@ 000000018011dbc0     libucrtd:lcidtoname_downlevel.obj
 0002:00020bd0       ??_C@_1M@GMPONJN@?$AAe?$AAn?$AA?9?$AAa?$AAu?$AA?$AA@ 000000018011dbd0     libucrtd:lcidtoname_downlevel.obj
 0002:00020be0       ??_C@_1M@NIDIIPGF@?$AAe?$AAn?$AA?9?$AAb?$AAz?$AA?$AA@ 000000018011dbe0     libucrtd:lcidtoname_downlevel.obj
 0002:00020bf0       ??_C@_1M@JEHMIMFO@?$AAe?$AAn?$AA?9?$AAc?$AAa?$AA?$AA@ 000000018011dbf0     libucrtd:lcidtoname_downlevel.obj
 0002:00020c00       ??_C@_1M@IGMJCDLA@?$AAe?$AAn?$AA?9?$AAc?$AAb?$AA?$AA@ 000000018011dc00     libucrtd:lcidtoname_downlevel.obj
 0002:00020c10       ??_C@_1M@BNFIGBKG@?$AAe?$AAn?$AA?9?$AAg?$AAb?$AA?$AA@ 000000018011dc10     libucrtd:lcidtoname_downlevel.obj
 0002:00020c20       ??_C@_1M@LKIFDIGP@?$AAe?$AAn?$AA?9?$AAi?$AAe?$AA?$AA@ 000000018011dc20     libucrtd:lcidtoname_downlevel.obj
 0002:00020c30       ??_C@_1M@PJKFGCCO@?$AAe?$AAn?$AA?9?$AAj?$AAm?$AA?$AA@ 000000018011dc30     libucrtd:lcidtoname_downlevel.obj
 0002:00020c40       ??_C@_1M@KPPKEPBO@?$AAe?$AAn?$AA?9?$AAn?$AAz?$AA?$AA@ 000000018011dc40     libucrtd:lcidtoname_downlevel.obj
 0002:00020c50       ??_C@_1M@GMDGLDOB@?$AAe?$AAn?$AA?9?$AAp?$AAh?$AA?$AA@ 000000018011dc50     libucrtd:lcidtoname_downlevel.obj
 0002:00020c60       ??_C@_1M@ONGIBJNA@?$AAe?$AAn?$AA?9?$AAt?$AAt?$AA?$AA@ 000000018011dc60     libucrtd:lcidtoname_downlevel.obj
 0002:00020c70       ??_C@_1M@LLODPCMM@?$AAe?$AAn?$AA?9?$AAu?$AAs?$AA?$AA@ 000000018011dc70     libucrtd:lcidtoname_downlevel.obj
 0002:00020c80       ??_C@_1M@LAKFNPAN@?$AAe?$AAn?$AA?9?$AAz?$AAa?$AA?$AA@ 000000018011dc80     libucrtd:lcidtoname_downlevel.obj
 0002:00020c90       ??_C@_1M@MFNHNHEO@?$AAe?$AAn?$AA?9?$AAz?$AAw?$AA?$AA@ 000000018011dc90     libucrtd:lcidtoname_downlevel.obj
 0002:00020ca0       ??_C@_1M@EJEINPHM@?$AAe?$AAs?$AA?9?$AAa?$AAr?$AA?$AA@ 000000018011dca0     libucrtd:lcidtoname_downlevel.obj
 0002:00020cb0       ??_C@_1M@GNKPCCJA@?$AAe?$AAs?$AA?9?$AAb?$AAo?$AA?$AA@ 000000018011dcb0     libucrtd:lcidtoname_downlevel.obj
 0002:00020cc0       ??_C@_1M@LEEGFONL@?$AAe?$AAs?$AA?9?$AAc?$AAl?$AA?$AA@ 000000018011dcc0     libucrtd:lcidtoname_downlevel.obj
 0002:00020cd0       ??_C@_1M@KGPDPBDF@?$AAe?$AAs?$AA?9?$AAc?$AAo?$AA?$AA@ 000000018011dcd0     libucrtd:lcidtoname_downlevel.obj
 0002:00020ce0       ??_C@_1M@EIAHOHH@?$AAe?$AAs?$AA?9?$AAc?$AAr?$AA?$AA@ 000000018011dce0     libucrtd:lcidtoname_downlevel.obj
 0002:00020cf0       ??_C@_1M@LLPGMBIN@?$AAe?$AAs?$AA?9?$AAd?$AAo?$AA?$AA@ 000000018011dcf0     libucrtd:lcidtoname_downlevel.obj
 0002:00020d00       ??_C@_1M@DKHMKNJA@?$AAe?$AAs?$AA?9?$AAe?$AAc?$AA?$AA@ 000000018011dd00     libucrtd:lcidtoname_downlevel.obj
 0002:00020d10       ??_C@_1M@GKGFPKAP@?$AAe?$AAs?$AA?9?$AAe?$AAs?$AA?$AA@ 000000018011dd10     libucrtd:lcidtoname_downlevel.obj
 0002:00020d20       ??_C@_1M@LKHKGDLN@?$AAe?$AAs?$AA?9?$AAg?$AAt?$AA?$AA@ 000000018011dd20     libucrtd:lcidtoname_downlevel.obj
 0002:00020d30       ??_C@_1M@HEIIGGJD@?$AAe?$AAs?$AA?9?$AAh?$AAn?$AA?$AA@ 000000018011dd30     libucrtd:lcidtoname_downlevel.obj
 0002:00020d40       ??_C@_1M@FBDHPPGD@?$AAe?$AAs?$AA?9?$AAm?$AAx?$AA?$AA@ 000000018011dd40     libucrtd:lcidtoname_downlevel.obj
 0002:00020d50       ??_C@_1M@DPAGLNDH@?$AAe?$AAs?$AA?9?$AAn?$AAi?$AA?$AA@ 000000018011dd50     libucrtd:lcidtoname_downlevel.obj
 0002:00020d60       ??_C@_1M@MDGOPGDD@?$AAe?$AAs?$AA?9?$AAp?$AAa?$AA?$AA@ 000000018011dd60     libucrtd:lcidtoname_downlevel.obj
 0002:00020d70       ??_C@_1M@EMAMGBGE@?$AAe?$AAs?$AA?9?$AAp?$AAe?$AA?$AA@ 000000018011dd70     libucrtd:lcidtoname_downlevel.obj
 0002:00020d80       ??_C@_1M@IBMCAOEC@?$AAe?$AAs?$AA?9?$AAp?$AAr?$AA?$AA@ 000000018011dd80     libucrtd:lcidtoname_downlevel.obj
 0002:00020d90       ??_C@_1M@FGMDIJED@?$AAe?$AAs?$AA?9?$AAp?$AAy?$AA?$AA@ 000000018011dd90     libucrtd:lcidtoname_downlevel.obj
 0002:00020da0       ??_C@_1M@IIDEOLLL@?$AAe?$AAs?$AA?9?$AAs?$AAv?$AA?$AA@ 000000018011dda0     libucrtd:lcidtoname_downlevel.obj
 0002:00020db0       ??_C@_1M@GAOBIPA@?$AAe?$AAs?$AA?9?$AAu?$AAy?$AA?$AA@ 000000018011ddb0     libucrtd:lcidtoname_downlevel.obj
 0002:00020dc0       ??_C@_1M@JKFFICHJ@?$AAe?$AAs?$AA?9?$AAv?$AAe?$AA?$AA@ 000000018011ddc0     libucrtd:lcidtoname_downlevel.obj
 0002:00020dd0       ??_C@_1M@PNMLOJDF@?$AAe?$AAt?$AA?9?$AAe?$AAe?$AA?$AA@ 000000018011ddd0     libucrtd:lcidtoname_downlevel.obj
 0002:00020de0       ??_C@_1M@GHHLIKEI@?$AAe?$AAu?$AA?9?$AAe?$AAs?$AA?$AA@ 000000018011dde0     libucrtd:lcidtoname_downlevel.obj
 0002:00020df0       ??_C@_1M@PBNONODE@?$AAf?$AAa?$AA?9?$AAi?$AAr?$AA?$AA@ 000000018011ddf0     libucrtd:lcidtoname_downlevel.obj
 0002:00020e00       ??_C@_1M@JEEHPMIL@?$AAf?$AAi?$AA?9?$AAf?$AAi?$AA?$AA@ 000000018011de00     libucrtd:lcidtoname_downlevel.obj
 0002:00020e10       ??_C@_1M@LMDCNDBA@?$AAf?$AAo?$AA?9?$AAf?$AAo?$AA?$AA@ 000000018011de10     libucrtd:lcidtoname_downlevel.obj
 0002:00020e20       ??_C@_1M@JKEOHLDK@?$AAf?$AAr?$AA?9?$AAb?$AAe?$AA?$AA@ 000000018011de20     libucrtd:lcidtoname_downlevel.obj
 0002:00020e30       ??_C@_1M@NOHADPMI@?$AAf?$AAr?$AA?9?$AAc?$AAa?$AA?$AA@ 000000018011de30     libucrtd:lcidtoname_downlevel.obj
 0002:00020e40       ??_C@_1M@KDHIHAEC@?$AAf?$AAr?$AA?9?$AAc?$AAh?$AA?$AA@ 000000018011de40     libucrtd:lcidtoname_downlevel.obj
 0002:00020e50       ??_C@_1M@MMBBFGAK@?$AAf?$AAr?$AA?9?$AAf?$AAr?$AA?$AA@ 000000018011de50     libucrtd:lcidtoname_downlevel.obj
 0002:00020e60       ??_C@_1M@PAFNENNF@?$AAf?$AAr?$AA?9?$AAl?$AAu?$AA?$AA@ 000000018011de60     libucrtd:lcidtoname_downlevel.obj
 0002:00020e70       ??_C@_1M@EOHDJGDD@?$AAf?$AAr?$AA?9?$AAm?$AAc?$AA?$AA@ 000000018011de70     libucrtd:lcidtoname_downlevel.obj
 0002:00020e80       ??_C@_1M@FAPLLOPF@?$AAg?$AAl?$AA?9?$AAe?$AAs?$AA?$AA@ 000000018011de80     libucrtd:lcidtoname_downlevel.obj
 0002:00020e90       ??_C@_1M@FOPBFLOO@?$AAg?$AAu?$AA?9?$AAi?$AAn?$AA?$AA@ 000000018011de90     libucrtd:lcidtoname_downlevel.obj
 0002:00020ea0       ??_C@_1M@KBMCINPM@?$AAh?$AAe?$AA?9?$AAi?$AAl?$AA?$AA@ 000000018011dea0     libucrtd:lcidtoname_downlevel.obj
 0002:00020eb0       ??_C@_1M@BBPHKFPJ@?$AAh?$AAi?$AA?9?$AAi?$AAn?$AA?$AA@ 000000018011deb0     libucrtd:lcidtoname_downlevel.obj
 0002:00020ec0       ??_C@_1M@PMBNDPHD@?$AAh?$AAr?$AA?9?$AAb?$AAa?$AA?$AA@ 000000018011dec0     libucrtd:lcidtoname_downlevel.obj
 0002:00020ed0       ??_C@_1M@BPCKOEGE@?$AAh?$AAr?$AA?9?$AAh?$AAr?$AA?$AA@ 000000018011ded0     libucrtd:lcidtoname_downlevel.obj
 0002:00020ee0       ??_C@_1M@GACBMHKE@?$AAh?$AAu?$AA?9?$AAh?$AAu?$AA?$AA@ 000000018011dee0     libucrtd:lcidtoname_downlevel.obj
 0002:00020ef0       ??_C@_1M@MILPAJJC@?$AAh?$AAy?$AA?9?$AAa?$AAm?$AA?$AA@ 000000018011def0     libucrtd:lcidtoname_downlevel.obj
 0002:00020f00       ??_C@_1M@BABBICEC@?$AAi?$AAd?$AA?9?$AAi?$AAd?$AA?$AA@ 000000018011df00     libucrtd:lcidtoname_downlevel.obj
 0002:00020f10       ??_C@_1M@BIKNHHPF@?$AAi?$AAs?$AA?9?$AAi?$AAs?$AA?$AA@ 000000018011df10     libucrtd:lcidtoname_downlevel.obj
 0002:00020f20       ??_C@_1M@NMPCJPHE@?$AAi?$AAt?$AA?9?$AAc?$AAh?$AA?$AA@ 000000018011df20     libucrtd:lcidtoname_downlevel.obj
 0002:00020f30       ??_C@_1M@GHKGFEDF@?$AAi?$AAt?$AA?9?$AAi?$AAt?$AA?$AA@ 000000018011df30     libucrtd:lcidtoname_downlevel.obj
 0002:00020f40       ??_C@_1M@NIEJCJJA@?$AAj?$AAa?$AA?9?$AAj?$AAp?$AA?$AA@ 000000018011df40     libucrtd:lcidtoname_downlevel.obj
 0002:00020f50       ??_C@_1M@JILFNBIM@?$AAk?$AAa?$AA?9?$AAg?$AAe?$AA?$AA@ 000000018011df50     libucrtd:lcidtoname_downlevel.obj
 0002:00020f60       ??_C@_1M@PACPMGPH@?$AAk?$AAk?$AA?9?$AAk?$AAz?$AA?$AA@ 000000018011df60     libucrtd:lcidtoname_downlevel.obj
 0002:00020f70       ??_C@_1M@IELFGMHA@?$AAk?$AAn?$AA?9?$AAi?$AAn?$AA?$AA@ 000000018011df70     libucrtd:lcidtoname_downlevel.obj
 0002:00020f80       ??_C@_1O@IBBJHCH@?$AAk?$AAo?$AAk?$AA?9?$AAi?$AAn?$AA?$AA@ 000000018011df80     libucrtd:lcidtoname_downlevel.obj
 0002:00020f90       ??_C@_1M@DMHAEOGC@?$AAk?$AAo?$AA?9?$AAk?$AAr?$AA?$AA@ 000000018011df90     libucrtd:lcidtoname_downlevel.obj
 0002:00020fa0       ??_C@_1M@HBAHBIGA@?$AAk?$AAy?$AA?9?$AAk?$AAg?$AA?$AA@ 000000018011dfa0     libucrtd:lcidtoname_downlevel.obj
 0002:00020fb0       ??_C@_1M@KPMILCJG@?$AAl?$AAt?$AA?9?$AAl?$AAt?$AA?$AA@ 000000018011dfb0     libucrtd:lcidtoname_downlevel.obj
 0002:00020fc0       ??_C@_1M@BDEKKCA@?$AAl?$AAv?$AA?9?$AAl?$AAv?$AA?$AA@ 000000018011dfc0     libucrtd:lcidtoname_downlevel.obj
 0002:00020fd0       ??_C@_1M@ELCKCCJJ@?$AAm?$AAi?$AA?9?$AAn?$AAz?$AA?$AA@ 000000018011dfd0     libucrtd:lcidtoname_downlevel.obj
 0002:00020fe0       ??_C@_1M@CBOOLAPA@?$AAm?$AAk?$AA?9?$AAm?$AAk?$AA?$AA@ 000000018011dfe0     libucrtd:lcidtoname_downlevel.obj
 0002:00020ff0       ??_C@_1M@GPHNBJKN@?$AAm?$AAl?$AA?9?$AAi?$AAn?$AA?$AA@ 000000018011dff0     libucrtd:lcidtoname_downlevel.obj
 0002:00021000       ??_C@_1M@PABJILIG@?$AAm?$AAn?$AA?9?$AAm?$AAn?$AA?$AA@ 000000018011e000     libucrtd:lcidtoname_downlevel.obj
 0002:00021010       ??_C@_1M@FGBKKIPG@?$AAm?$AAr?$AA?9?$AAi?$AAn?$AA?$AA@ 000000018011e010     libucrtd:lcidtoname_downlevel.obj
 0002:00021020       ??_C@_1M@NDBPDDAL@?$AAm?$AAs?$AA?9?$AAb?$AAn?$AA?$AA@ 000000018011e020     libucrtd:lcidtoname_downlevel.obj
 0002:00021030       ??_C@_1M@OPIHOOPI@?$AAm?$AAs?$AA?9?$AAm?$AAy?$AA?$AA@ 000000018011e030     libucrtd:lcidtoname_downlevel.obj
 0002:00021040       ??_C@_1M@PPDBCNFM@?$AAm?$AAt?$AA?9?$AAm?$AAt?$AA?$AA@ 000000018011e040     libucrtd:lcidtoname_downlevel.obj
 0002:00021050       ??_C@_1M@KDJDKMDD@?$AAn?$AAb?$AA?9?$AAn?$AAo?$AA?$AA@ 000000018011e050     libucrtd:lcidtoname_downlevel.obj
 0002:00021060       ??_C@_1M@KFCFLMJP@?$AAn?$AAl?$AA?9?$AAb?$AAe?$AA?$AA@ 000000018011e060     libucrtd:lcidtoname_downlevel.obj
 0002:00021070       ??_C@_1M@KPOPDDGO@?$AAn?$AAl?$AA?9?$AAn?$AAl?$AA?$AA@ 000000018011e070     libucrtd:lcidtoname_downlevel.obj
 0002:00021080       ??_C@_1M@LJKPEMLN@?$AAn?$AAn?$AA?9?$AAn?$AAo?$AA?$AA@ 000000018011e080     libucrtd:lcidtoname_downlevel.obj
 0002:00021090       ??_C@_1M@BDGHHBFL@?$AAn?$AAs?$AA?9?$AAz?$AAa?$AA?$AA@ 000000018011e090     libucrtd:lcidtoname_downlevel.obj
 0002:000210a0       ??_C@_1M@IDEHOAP@?$AAp?$AAa?$AA?9?$AAi?$AAn?$AA?$AA@ 000000018011e0a0     libucrtd:lcidtoname_downlevel.obj
 0002:000210b0       ??_C@_1M@HDBKGOGH@?$AAp?$AAl?$AA?9?$AAp?$AAl?$AA?$AA@ 000000018011e0b0     libucrtd:lcidtoname_downlevel.obj
 0002:000210c0       ??_C@_1M@LJLLCMEH@?$AAp?$AAt?$AA?9?$AAb?$AAr?$AA?$AA@ 000000018011e0c0     libucrtd:lcidtoname_downlevel.obj
 0002:000210d0       ??_C@_1M@NCMONAAL@?$AAp?$AAt?$AA?9?$AAp?$AAt?$AA?$AA@ 000000018011e0d0     libucrtd:lcidtoname_downlevel.obj
 0002:000210e0       ??_C@_1O@EAKMAJDN@?$AAq?$AAu?$AAz?$AA?9?$AAb?$AAo?$AA?$AA@ 000000018011e0e0     libucrtd:lcidtoname_downlevel.obj
 0002:000210f0       ??_C@_1O@BHHPIGDN@?$AAq?$AAu?$AAz?$AA?9?$AAe?$AAc?$AA?$AA@ 000000018011e0f0     libucrtd:lcidtoname_downlevel.obj
 0002:00021100       ??_C@_1O@GBAPEKMJ@?$AAq?$AAu?$AAz?$AA?9?$AAp?$AAe?$AA?$AA@ 000000018011e100     libucrtd:lcidtoname_downlevel.obj
 0002:00021110       ??_C@_1M@CLGLEFBO@?$AAr?$AAo?$AA?9?$AAr?$AAo?$AA?$AA@ 000000018011e110     libucrtd:lcidtoname_downlevel.obj
 0002:00021120       ??_C@_1M@CEEDODME@?$AAr?$AAu?$AA?9?$AAr?$AAu?$AA?$AA@ 000000018011e120     libucrtd:lcidtoname_downlevel.obj
 0002:00021130       ??_C@_1M@HPKKKMPP@?$AAs?$AAa?$AA?9?$AAi?$AAn?$AA?$AA@ 000000018011e130     libucrtd:lcidtoname_downlevel.obj
 0002:00021140       ??_C@_1M@BKMAIGOJ@?$AAs?$AAe?$AA?9?$AAf?$AAi?$AA?$AA@ 000000018011e140     libucrtd:lcidtoname_downlevel.obj
 0002:00021150       ??_C@_1M@NDPIFLFI@?$AAs?$AAe?$AA?9?$AAn?$AAo?$AA?$AA@ 000000018011e150     libucrtd:lcidtoname_downlevel.obj
 0002:00021160       ??_C@_1M@DANKKHJ@?$AAs?$AAe?$AA?9?$AAs?$AAe?$AA?$AA@ 000000018011e160     libucrtd:lcidtoname_downlevel.obj
 0002:00021170       ??_C@_1M@PNBLONPJ@?$AAs?$AAk?$AA?9?$AAs?$AAk?$AA?$AA@ 000000018011e170     libucrtd:lcidtoname_downlevel.obj
 0002:00021180       ??_C@_1M@LFMODOAL@?$AAs?$AAl?$AA?9?$AAs?$AAi?$AA?$AA@ 000000018011e180     libucrtd:lcidtoname_downlevel.obj
 0002:00021190       ??_C@_1O@DFKOMPG@?$AAs?$AAm?$AAa?$AA?9?$AAn?$AAo?$AA?$AA@ 000000018011e190     libucrtd:lcidtoname_downlevel.obj
 0002:000211a0       ??_C@_1O@NDKPBNNH@?$AAs?$AAm?$AAa?$AA?9?$AAs?$AAe?$AA?$AA@ 000000018011e1a0     libucrtd:lcidtoname_downlevel.obj
 0002:000211b0       ??_C@_1O@PLLKBHAB@?$AAs?$AAm?$AAj?$AA?9?$AAn?$AAo?$AA?$AA@ 000000018011e1b0     libucrtd:lcidtoname_downlevel.obj
 0002:000211c0       ??_C@_1O@CLEPOGCA@?$AAs?$AAm?$AAj?$AA?9?$AAs?$AAe?$AA?$AA@ 000000018011e1c0     libucrtd:lcidtoname_downlevel.obj
 0002:000211d0       ??_C@_1O@DLGJGKMK@?$AAs?$AAm?$AAn?$AA?9?$AAf?$AAi?$AA?$AA@ 000000018011e1d0     libucrtd:lcidtoname_downlevel.obj
 0002:000211e0       ??_C@_1O@OJDJGAJC@?$AAs?$AAm?$AAs?$AA?9?$AAf?$AAi?$AA?$AA@ 000000018011e1e0     libucrtd:lcidtoname_downlevel.obj
 0002:000211f0       ??_C@_1M@BOFOGHPB@?$AAs?$AAq?$AA?9?$AAa?$AAl?$AA?$AA@ 000000018011e1f0     libucrtd:lcidtoname_downlevel.obj
 0002:00021200       ??_C@_1BG@LJBBIPGB@?$AAs?$AAr?$AA?9?$AAb?$AAa?$AA?9?$AAc?$AAy?$AAr?$AAl?$AA?$AA@ 000000018011e200     libucrtd:lcidtoname_downlevel.obj
 0002:00021220       ??_C@_1BG@JLBENFOE@?$AAs?$AAr?$AA?9?$AAb?$AAa?$AA?9?$AAl?$AAa?$AAt?$AAn?$AA?$AA@ 000000018011e220     libucrtd:lcidtoname_downlevel.obj
 0002:00021240       ??_C@_1BG@KODPNHE@?$AAs?$AAr?$AA?9?$AAs?$AAp?$AA?9?$AAc?$AAy?$AAr?$AAl?$AA?$AA@ 000000018011e240     libucrtd:lcidtoname_downlevel.obj
 0002:00021260       ??_C@_1BG@CIOGKHPB@?$AAs?$AAr?$AA?9?$AAs?$AAp?$AA?9?$AAl?$AAa?$AAt?$AAn?$AA?$AA@ 000000018011e260     libucrtd:lcidtoname_downlevel.obj
 0002:00021280       ??_C@_1M@NGFJLMAC@?$AAs?$AAv?$AA?9?$AAf?$AAi?$AA?$AA@ 000000018011e280     libucrtd:lcidtoname_downlevel.obj
 0002:00021290       ??_C@_1M@MPJEJAJC@?$AAs?$AAv?$AA?9?$AAs?$AAe?$AA?$AA@ 000000018011e290     libucrtd:lcidtoname_downlevel.obj
 0002:000212a0       ??_C@_1M@MPNDHLFK@?$AAs?$AAw?$AA?9?$AAk?$AAe?$AA?$AA@ 000000018011e2a0     libucrtd:lcidtoname_downlevel.obj
 0002:000212b0       ??_C@_1O@KOHBJJI@?$AAs?$AAy?$AAr?$AA?9?$AAs?$AAy?$AA?$AA@ 000000018011e2b0     libucrtd:lcidtoname_downlevel.obj
 0002:000212c0       ??_C@_1M@LDCEFHA@?$AAt?$AAa?$AA?9?$AAi?$AAn?$AA?$AA@ 000000018011e2c0     libucrtd:lcidtoname_downlevel.obj
 0002:000212d0       ??_C@_1M@CNJOFAK@?$AAt?$AAe?$AA?9?$AAi?$AAn?$AA?$AA@ 000000018011e2d0     libucrtd:lcidtoname_downlevel.obj
 0002:000212e0       ??_C@_1M@GNAECACD@?$AAt?$AAh?$AA?9?$AAt?$AAh?$AA?$AA@ 000000018011e2e0     libucrtd:lcidtoname_downlevel.obj
 0002:000212f0       ??_C@_1M@CHBIHOJO@?$AAt?$AAn?$AA?9?$AAz?$AAa?$AA?$AA@ 000000018011e2f0     libucrtd:lcidtoname_downlevel.obj
 0002:00021300       ??_C@_1M@GCCMIGPJ@?$AAt?$AAr?$AA?9?$AAt?$AAr?$AA?$AA@ 000000018011e300     libucrtd:lcidtoname_downlevel.obj
 0002:00021310       ??_C@_1M@CELMCNBK@?$AAt?$AAt?$AA?9?$AAr?$AAu?$AA?$AA@ 000000018011e310     libucrtd:lcidtoname_downlevel.obj
 0002:00021320       ??_C@_1M@KLMCELGA@?$AAu?$AAk?$AA?9?$AAu?$AAa?$AA?$AA@ 000000018011e320     libucrtd:lcidtoname_downlevel.obj
 0002:00021330       ??_C@_1M@EPAJJAJF@?$AAu?$AAr?$AA?9?$AAp?$AAk?$AA?$AA@ 000000018011e330     libucrtd:lcidtoname_downlevel.obj
 0002:00021340       ??_C@_1BG@GEGPMCDJ@?$AAu?$AAz?$AA?9?$AAu?$AAz?$AA?9?$AAc?$AAy?$AAr?$AAl?$AA?$AA@ 000000018011e340     libucrtd:lcidtoname_downlevel.obj
 0002:00021360       ??_C@_1BG@EGGKJILM@?$AAu?$AAz?$AA?9?$AAu?$AAz?$AA?9?$AAl?$AAa?$AAt?$AAn?$AA?$AA@ 000000018011e360     libucrtd:lcidtoname_downlevel.obj
 0002:00021380       ??_C@_1M@GFOCLFF@?$AAv?$AAi?$AA?9?$AAv?$AAn?$AA?$AA@ 000000018011e380     libucrtd:lcidtoname_downlevel.obj
 0002:00021390       ??_C@_1M@CPAMEDFI@?$AAx?$AAh?$AA?9?$AAz?$AAa?$AA?$AA@ 000000018011e390     libucrtd:lcidtoname_downlevel.obj
 0002:000213a0       ??_C@_1O@EBKIFIGN@?$AAz?$AAh?$AA?9?$AAc?$AAh?$AAs?$AA?$AA@ 000000018011e3a0     libucrtd:lcidtoname_downlevel.obj
 0002:000213b0       ??_C@_1O@NMHPGANE@?$AAz?$AAh?$AA?9?$AAc?$AAh?$AAt?$AA?$AA@ 000000018011e3b0     libucrtd:lcidtoname_downlevel.obj
 0002:000213c0       ??_C@_1M@LPINJOMC@?$AAz?$AAh?$AA?9?$AAc?$AAn?$AA?$AA@ 000000018011e3c0     libucrtd:lcidtoname_downlevel.obj
 0002:000213d0       ??_C@_1M@OCJEJODD@?$AAz?$AAh?$AA?9?$AAh?$AAk?$AA?$AA@ 000000018011e3d0     libucrtd:lcidtoname_downlevel.obj
 0002:000213e0       ??_C@_1M@DNDLJINH@?$AAz?$AAh?$AA?9?$AAm?$AAo?$AA?$AA@ 000000018011e3e0     libucrtd:lcidtoname_downlevel.obj
 0002:000213f0       ??_C@_1M@MBFDNDND@?$AAz?$AAh?$AA?9?$AAs?$AAg?$AA?$AA@ 000000018011e3f0     libucrtd:lcidtoname_downlevel.obj
 0002:00021400       ??_C@_1M@IMEPLEPE@?$AAz?$AAh?$AA?9?$AAt?$AAw?$AA?$AA@ 000000018011e400     libucrtd:lcidtoname_downlevel.obj
 0002:00021410       ??_C@_1M@BBGHNHJP@?$AAz?$AAu?$AA?9?$AAz?$AAa?$AA?$AA@ 000000018011e410     libucrtd:lcidtoname_downlevel.obj
 0002:0002253c       ??_C@_15EMKDOKLE@?$AAa?$AAr?$AA?$AA@ 000000018011f53c     libucrtd:lcidtoname_downlevel.obj
 0002:00022544       ??_C@_15KNPADPLH@?$AAb?$AAg?$AA?$AA@ 000000018011f544     libucrtd:lcidtoname_downlevel.obj
 0002:0002254c       ??_C@_15EDMHLDMO@?$AAc?$AAa?$AA?$AA@ 000000018011f54c     libucrtd:lcidtoname_downlevel.obj
 0002:00022558       ??_C@_1O@BPEAJADD@?$AAz?$AAh?$AA?9?$AAC?$AAH?$AAS?$AA?$AA@ 000000018011f558     libucrtd:lcidtoname_downlevel.obj
 0002:00022568       ??_C@_15LJNHCMNK@?$AAc?$AAs?$AA?$AA@ 000000018011f568     libucrtd:lcidtoname_downlevel.obj
 0002:00022570       ??_C@_15FOMCIDHG@?$AAd?$AAa?$AA?$AA@ 000000018011f570     libucrtd:lcidtoname_downlevel.obj
 0002:00022578       ??_C@_15NBKABECB@?$AAd?$AAe?$AA?$AA@ 000000018011f578     libucrtd:lcidtoname_downlevel.obj
 0002:00022580       ??_C@_15GHPEIIAO@?$AAe?$AAl?$AA?$AA@ 000000018011f580     libucrtd:lcidtoname_downlevel.obj
 0002:00022588       ??_C@_15MNPNEAIF@?$AAe?$AAn?$AA?$AA@ 000000018011f588     libucrtd:lcidtoname_downlevel.obj
 0002:00022590       ??_C@_15GPIOMPMH@?$AAe?$AAs?$AA?$AA@ 000000018011f590     libucrtd:lcidtoname_downlevel.obj
 0002:00022598       ??_C@_15NGLOAKJC@?$AAf?$AAi?$AA?$AA@ 000000018011f598     libucrtd:lcidtoname_downlevel.obj
 0002:000225a0       ??_C@_15FBKGNKAM@?$AAf?$AAr?$AA?$AA@ 000000018011f5a0     libucrtd:lcidtoname_downlevel.obj
 0002:000225a8       ??_C@_15KGGCNEFK@?$AAh?$AAe?$AA?$AA@ 000000018011f5a8     libucrtd:lcidtoname_downlevel.obj
 0002:000225b0       ??_C@_15PGHLIDMF@?$AAh?$AAu?$AA?$AA@ 000000018011f5b0     libucrtd:lcidtoname_downlevel.obj
 0002:000225b8       ??_C@_15BIEMAPLM@?$AAi?$AAs?$AA?$AA@ 000000018011f5b8     libucrtd:lcidtoname_downlevel.obj
 0002:000225c0       ??_C@_15IFJLDHAF@?$AAi?$AAt?$AA?$AA@ 000000018011f5c0     libucrtd:lcidtoname_downlevel.obj
 0002:000225c8       ??_C@_15GEMIOCAG@?$AAj?$AAa?$AA?$AA@ 000000018011f5c8     libucrtd:lcidtoname_downlevel.obj
 0002:000225d0       ??_C@_15EPELEGJA@?$AAk?$AAo?$AA?$AA@ 000000018011f5d0     libucrtd:lcidtoname_downlevel.obj
 0002:000225d8       ??_C@_15NDDHIMN@?$AAn?$AAl?$AA?$AA@ 000000018011f5d8     libucrtd:lcidtoname_downlevel.obj
 0002:000225e0       ??_C@_15BPIGNHCD@?$AAn?$AAo?$AA?$AA@ 000000018011f5e0     libucrtd:lcidtoname_downlevel.obj
 0002:000225e8       ??_C@_15DEOPBLCG@?$AAp?$AAl?$AA?$AA@ 000000018011f5e8     libucrtd:lcidtoname_downlevel.obj
 0002:000225f0       ??_C@_15KBECGEFG@?$AAp?$AAt?$AA?$AA@ 000000018011f5f0     libucrtd:lcidtoname_downlevel.obj
 0002:000225f8       ??_C@_15GLJCBFMD@?$AAr?$AAo?$AA?$AA@ 000000018011f5f8     libucrtd:lcidtoname_downlevel.obj
 0002:00022600       ??_C@_15FEDGKCDI@?$AAr?$AAu?$AA?$AA@ 000000018011f600     libucrtd:lcidtoname_downlevel.obj
 0002:00022608       ??_C@_15GLKMLLHM@?$AAh?$AAr?$AA?$AA@ 000000018011f608     libucrtd:lcidtoname_downlevel.obj
 0002:00022610       ??_C@_15CPKMFBDB@?$AAs?$AAk?$AA?$AA@ 000000018011f610     libucrtd:lcidtoname_downlevel.obj
 0002:00022618       ??_C@_15BAAIOGMK@?$AAs?$AAq?$AA?$AA@ 000000018011f618     libucrtd:lcidtoname_downlevel.obj
 0002:00022620       ??_C@_15INNPNOHD@?$AAs?$AAv?$AA?$AA@ 000000018011f620     libucrtd:lcidtoname_downlevel.obj
 0002:00022628       ??_C@_15CABMMOGH@?$AAt?$AAh?$AA?$AA@ 000000018011f628     libucrtd:lcidtoname_downlevel.obj
 0002:00022630       ??_C@_15BPLIHJJM@?$AAt?$AAr?$AA?$AA@ 000000018011f630     libucrtd:lcidtoname_downlevel.obj
 0002:00022638       ??_C@_15NEOEKKDJ@?$AAu?$AAr?$AA?$AA@ 000000018011f638     libucrtd:lcidtoname_downlevel.obj
 0002:00022640       ??_C@_15NFICGAJK@?$AAi?$AAd?$AA?$AA@ 000000018011f640     libucrtd:lcidtoname_downlevel.obj
 0002:00022648       ??_C@_15HPJPHDM@?$AAb?$AAe?$AA?$AA@ 000000018011f648     libucrtd:lcidtoname_downlevel.obj
 0002:00022650       ??_C@_15LCHLGJII@?$AAs?$AAl?$AA?$AA@ 000000018011f650     libucrtd:lcidtoname_downlevel.obj
 0002:00022658       ??_C@_15PCFJPHHO@?$AAe?$AAt?$AA?$AA@ 000000018011f658     libucrtd:lcidtoname_downlevel.obj
 0002:00022660       ??_C@_15HPFPGODN@?$AAl?$AAv?$AA?$AA@ 000000018011f660     libucrtd:lcidtoname_downlevel.obj
 0002:00022668       ??_C@_15NFFGKGLG@?$AAl?$AAt?$AA?$AA@ 000000018011f668     libucrtd:lcidtoname_downlevel.obj
 0002:00022670       ??_C@_15BDAKCCHN@?$AAf?$AAa?$AA?$AA@ 000000018011f670     libucrtd:lcidtoname_downlevel.obj
 0002:00022678       ??_C@_15NFGIAIAJ@?$AAv?$AAi?$AA?$AA@ 000000018011f678     libucrtd:lcidtoname_downlevel.obj
 0002:00022680       ??_C@_15LMKNDMHN@?$AAh?$AAy?$AA?$AA@ 000000018011f680     libucrtd:lcidtoname_downlevel.obj
 0002:00022688       ??_C@_15IJBHMCFL@?$AAa?$AAz?$AA?$AA@ 000000018011f688     libucrtd:lcidtoname_downlevel.obj
 0002:00022690       ??_C@_15EKOFJABL@?$AAe?$AAu?$AA?$AA@ 000000018011f690     libucrtd:lcidtoname_downlevel.obj
 0002:00022698       ??_C@_15BGHADCNK@?$AAm?$AAk?$AA?$AA@ 000000018011f698     libucrtd:lcidtoname_downlevel.obj
 0002:000226a0       ??_C@_15JDNICKHM@?$AAa?$AAf?$AA?$AA@ 000000018011f6a0     libucrtd:lcidtoname_downlevel.obj
 0002:000226a8       ??_C@_15KPJEDBKD@?$AAk?$AAa?$AA?$AA@ 000000018011f6a8     libucrtd:lcidtoname_downlevel.obj
 0002:000226b0       ??_C@_15PDNFFFEO@?$AAf?$AAo?$AA?$AA@ 000000018011f6b0     libucrtd:lcidtoname_downlevel.obj
 0002:000226b8       ??_C@_15OMLEGLOC@?$AAh?$AAi?$AA?$AA@ 000000018011f6b8     libucrtd:lcidtoname_downlevel.obj
 0002:000226c0       ??_C@_15IDNNENKK@?$AAm?$AAs?$AA?$AA@ 000000018011f6c0     libucrtd:lcidtoname_downlevel.obj
 0002:000226c8       ??_C@_15MACJNBMH@?$AAk?$AAk?$AA?$AA@ 000000018011f6c8     libucrtd:lcidtoname_downlevel.obj
 0002:000226d0       ??_C@_15DKDJEOND@?$AAk?$AAy?$AA?$AA@ 000000018011f6d0     libucrtd:lcidtoname_downlevel.obj
 0002:000226d8       ??_C@_15DFGDLJBG@?$AAs?$AAw?$AA?$AA@ 000000018011f6d8     libucrtd:lcidtoname_downlevel.obj
 0002:000226e0       ??_C@_15BBFAICNG@?$AAu?$AAz?$AA?$AA@ 000000018011f6e0     libucrtd:lcidtoname_downlevel.obj
 0002:000226e8       ??_C@_15DKNDCGEA@?$AAt?$AAt?$AA?$AA@ 000000018011f6e8     libucrtd:lcidtoname_downlevel.obj
 0002:000226f0       ??_C@_15MGIFMDPL@?$AAp?$AAa?$AA?$AA@ 000000018011f6f0     libucrtd:lcidtoname_downlevel.obj
 0002:000226f8       ??_C@_15HCNDBBA@?$AAg?$AAu?$AA?$AA@ 000000018011f6f8     libucrtd:lcidtoname_downlevel.obj
 0002:00022700       ??_C@_15FNBEIBON@?$AAt?$AAa?$AA?$AA@ 000000018011f700     libucrtd:lcidtoname_downlevel.obj
 0002:00022708       ??_C@_15NCHGBGLK@?$AAt?$AAe?$AA?$AA@ 000000018011f708     libucrtd:lcidtoname_downlevel.obj
 0002:00022710       ??_C@_15PHPHCBPF@?$AAk?$AAn?$AA?$AA@ 000000018011f710     libucrtd:lcidtoname_downlevel.obj
 0002:00022718       ??_C@_15DLGBCKMP@?$AAm?$AAr?$AA?$AA@ 000000018011f718     libucrtd:lcidtoname_downlevel.obj
 0002:00022720       ??_C@_15EABBLBFF@?$AAs?$AAa?$AA?$AA@ 000000018011f720     libucrtd:lcidtoname_downlevel.obj
 0002:00022728       ??_C@_15CBKOMCOI@?$AAm?$AAn?$AA?$AA@ 000000018011f728     libucrtd:lcidtoname_downlevel.obj
 0002:00022730       ??_C@_15CKDMCJAF@?$AAg?$AAl?$AA?$AA@ 000000018011f730     libucrtd:lcidtoname_downlevel.obj
 0002:00022738       ??_C@_17CNJFBPG@?$AAk?$AAo?$AAk?$AA?$AA@ 000000018011f738     libucrtd:lcidtoname_downlevel.obj
 0002:00022748       ??_C@_17FFBJICPL@?$AAs?$AAy?$AAr?$AA?$AA@ 000000018011f748     libucrtd:lcidtoname_downlevel.obj
 0002:00022758       ??_C@_17KPNDCPAF@?$AAd?$AAi?$AAv?$AA?$AA@ 000000018011f758     libucrtd:lcidtoname_downlevel.obj
 0002:00022768       ??_C@_1M@OKAHONE@?$AAa?$AAr?$AA?9?$AAS?$AAA?$AA?$AA@ 000000018011f768     libucrtd:lcidtoname_downlevel.obj
 0002:00022778       ??_C@_1M@FFFIGIGK@?$AAb?$AAg?$AA?9?$AAB?$AAG?$AA?$AA@ 000000018011f778     libucrtd:lcidtoname_downlevel.obj
 0002:00022788       ??_C@_1M@BJNKEDC@?$AAc?$AAa?$AA?9?$AAE?$AAS?$AA?$AA@ 000000018011f788     libucrtd:lcidtoname_downlevel.obj
 0002:00022798       ??_C@_1M@IJJHFJHA@?$AAc?$AAs?$AA?9?$AAC?$AAZ?$AA?$AA@ 000000018011f798     libucrtd:lcidtoname_downlevel.obj
 0002:000227a8       ??_C@_1M@CLPEOBGI@?$AAd?$AAa?$AA?9?$AAD?$AAK?$AA?$AA@ 000000018011f7a8     libucrtd:lcidtoname_downlevel.obj
 0002:000227b8       ??_C@_1M@MCMADGCB@?$AAd?$AAe?$AA?9?$AAD?$AAE?$AA?$AA@ 000000018011f7b8     libucrtd:lcidtoname_downlevel.obj
 0002:000227c8       ??_C@_1M@OOCKEMAM@?$AAe?$AAl?$AA?9?$AAG?$AAR?$AA?$AA@ 000000018011f7c8     libucrtd:lcidtoname_downlevel.obj
 0002:000227d8       ??_C@_1M@DDNJFGID@?$AAf?$AAi?$AA?9?$AAF?$AAI?$AA?$AA@ 000000018011f7d8     libucrtd:lcidtoname_downlevel.obj
 0002:000227e8       ??_C@_1M@GLIPPMAC@?$AAf?$AAr?$AA?9?$AAF?$AAR?$AA?$AA@ 000000018011f7e8     libucrtd:lcidtoname_downlevel.obj
 0002:000227f8       ??_C@_1M@GFMCHPE@?$AAh?$AAe?$AA?9?$AAI?$AAL?$AA?$AA@ 000000018011f7f8     libucrtd:lcidtoname_downlevel.obj
 0002:00022808       ??_C@_1M@MHLPGNKM@?$AAh?$AAu?$AA?9?$AAH?$AAU?$AA?$AA@ 000000018011f808     libucrtd:lcidtoname_downlevel.obj
 0002:00022818       ??_C@_1M@LPDDNNPN@?$AAi?$AAs?$AA?9?$AAI?$AAS?$AA?$AA@ 000000018011f818     libucrtd:lcidtoname_downlevel.obj
 0002:00022828       ??_C@_1M@MADIPODN@?$AAi?$AAt?$AA?9?$AAI?$AAT?$AA?$AA@ 000000018011f828     libucrtd:lcidtoname_downlevel.obj
 0002:00022838       ??_C@_1M@IHBJJGG@?$AAn?$AAl?$AA?9?$AAN?$AAL?$AA?$AA@ 000000018011f838     libucrtd:lcidtoname_downlevel.obj
 0002:00022848       ??_C@_1M@EANAGDL@?$AAn?$AAb?$AA?9?$AAN?$AAO?$AA?$AA@ 000000018011f848     libucrtd:lcidtoname_downlevel.obj
 0002:00022858       ??_C@_1M@NEIEMEGP@?$AAp?$AAl?$AA?9?$AAP?$AAL?$AA?$AA@ 000000018011f858     libucrtd:lcidtoname_downlevel.obj
 0002:00022868       ??_C@_1M@BOCFIGEP@?$AAp?$AAt?$AA?9?$AAB?$AAR?$AA?$AA@ 000000018011f868     libucrtd:lcidtoname_downlevel.obj
 0002:00022878       ??_C@_1M@IMPFOPBG@?$AAr?$AAo?$AA?9?$AAR?$AAO?$AA?$AA@ 000000018011f878     libucrtd:lcidtoname_downlevel.obj
 0002:00022888       ??_C@_1M@IDNNEJMM@?$AAr?$AAu?$AA?9?$AAR?$AAU?$AA?$AA@ 000000018011f888     libucrtd:lcidtoname_downlevel.obj
 0002:00022898       ??_C@_1M@LILEEOGM@?$AAh?$AAr?$AA?9?$AAH?$AAR?$AA?$AA@ 000000018011f898     libucrtd:lcidtoname_downlevel.obj
 0002:000228a8       ??_C@_1M@FKIFEHPB@?$AAs?$AAk?$AA?9?$AAS?$AAK?$AA?$AA@ 000000018011f8a8     libucrtd:lcidtoname_downlevel.obj
 0002:000228b8       ??_C@_1M@LJMAMNPJ@?$AAs?$AAq?$AA?9?$AAA?$AAL?$AA?$AA@ 000000018011f8b8     libucrtd:lcidtoname_downlevel.obj
 0002:000228c8       ??_C@_1M@GIAKDKJK@?$AAs?$AAv?$AA?9?$AAS?$AAE?$AA?$AA@ 000000018011f8c8     libucrtd:lcidtoname_downlevel.obj
 0002:000228d8       ??_C@_1M@MKJKIKCL@?$AAt?$AAh?$AA?9?$AAT?$AAH?$AA?$AA@ 000000018011f8d8     libucrtd:lcidtoname_downlevel.obj
 0002:000228e8       ??_C@_1M@MFLCCMPB@?$AAt?$AAr?$AA?9?$AAT?$AAR?$AA?$AA@ 000000018011f8e8     libucrtd:lcidtoname_downlevel.obj
 0002:000228f8       ??_C@_1M@OIJHDKJN@?$AAu?$AAr?$AA?9?$AAP?$AAK?$AA?$AA@ 000000018011f8f8     libucrtd:lcidtoname_downlevel.obj
 0002:00022908       ??_C@_1M@LHIPCIEK@?$AAi?$AAd?$AA?9?$AAI?$AAD?$AA?$AA@ 000000018011f908     libucrtd:lcidtoname_downlevel.obj
 0002:00022918       ??_C@_1M@MFMOBGI@?$AAu?$AAk?$AA?9?$AAU?$AAA?$AA?$AA@ 000000018011f918     libucrtd:lcidtoname_downlevel.obj
 0002:00022928       ??_C@_1M@OBGLJIPL@?$AAb?$AAe?$AA?9?$AAB?$AAY?$AA?$AA@ 000000018011f928     libucrtd:lcidtoname_downlevel.obj
 0002:00022938       ??_C@_1M@BCFAJEAD@?$AAs?$AAl?$AA?9?$AAS?$AAI?$AA?$AA@ 000000018011f938     libucrtd:lcidtoname_downlevel.obj
 0002:00022948       ??_C@_1M@FKFFEDDN@?$AAe?$AAt?$AA?9?$AAE?$AAE?$AA?$AA@ 000000018011f948     libucrtd:lcidtoname_downlevel.obj
 0002:00022958       ??_C@_1M@KGKKAACI@?$AAl?$AAv?$AA?9?$AAL?$AAV?$AA?$AA@ 000000018011f958     libucrtd:lcidtoname_downlevel.obj
 0002:00022968       ??_C@_1M@IFGBIJO@?$AAl?$AAt?$AA?9?$AAL?$AAT?$AA?$AA@ 000000018011f968     libucrtd:lcidtoname_downlevel.obj
 0002:00022978       ??_C@_1M@FGEAHEDM@?$AAf?$AAa?$AA?9?$AAI?$AAR?$AA?$AA@ 000000018011f978     libucrtd:lcidtoname_downlevel.obj
 0002:00022988       ??_C@_1M@KBMAIBFN@?$AAv?$AAi?$AA?9?$AAV?$AAN?$AA?$AA@ 000000018011f988     libucrtd:lcidtoname_downlevel.obj
 0002:00022998       ??_C@_1M@GPCBKDJK@?$AAh?$AAy?$AA?9?$AAA?$AAM?$AA?$AA@ 000000018011f998     libucrtd:lcidtoname_downlevel.obj
 0002:000229a8       ??_C@_1BG@BECMDDJB@?$AAa?$AAz?$AA?9?$AAA?$AAZ?$AA?9?$AAL?$AAa?$AAt?$AAn?$AA?$AA@ 000000018011f9a8     libucrtd:lcidtoname_downlevel.obj
 0002:000229c8       ??_C@_1M@MAOFCAEA@?$AAe?$AAu?$AA?9?$AAE?$AAS?$AA?$AA@ 000000018011f9c8     libucrtd:lcidtoname_downlevel.obj
 0002:000229d8       ??_C@_1M@IGHABKPI@?$AAm?$AAk?$AA?9?$AAM?$AAK?$AA?$AA@ 000000018011f9d8     libucrtd:lcidtoname_downlevel.obj
 0002:000229e8       ??_C@_1M@IAIGNEJG@?$AAt?$AAn?$AA?9?$AAZ?$AAA?$AA?$AA@ 000000018011f9e8     libucrtd:lcidtoname_downlevel.obj
 0002:000229f8       ??_C@_1M@IIJCOJFA@?$AAx?$AAh?$AA?9?$AAZ?$AAA?$AA?$AA@ 000000018011f9f8     libucrtd:lcidtoname_downlevel.obj
 0002:00022a08       ??_C@_1M@LGPJHNJH@?$AAz?$AAu?$AA?9?$AAZ?$AAA?$AA?$AA@ 000000018011fa08     libucrtd:lcidtoname_downlevel.obj
 0002:00022a18       ??_C@_1M@HOKAOIO@?$AAa?$AAf?$AA?9?$AAZ?$AAA?$AA?$AA@ 000000018011fa18     libucrtd:lcidtoname_downlevel.obj
 0002:00022a28       ??_C@_1M@DPCLHLIE@?$AAk?$AAa?$AA?9?$AAG?$AAE?$AA?$AA@ 000000018011fa28     libucrtd:lcidtoname_downlevel.obj
 0002:00022a38       ??_C@_1M@BLKMHJBI@?$AAf?$AAo?$AA?9?$AAF?$AAO?$AA?$AA@ 000000018011fa38     libucrtd:lcidtoname_downlevel.obj
 0002:00022a48       ??_C@_1M@LGGJAPPB@?$AAh?$AAi?$AA?9?$AAI?$AAN?$AA?$AA@ 000000018011fa48     libucrtd:lcidtoname_downlevel.obj
 0002:00022a58       ??_C@_1M@FIKPIHFE@?$AAm?$AAt?$AA?9?$AAM?$AAT?$AA?$AA@ 000000018011fa58     libucrtd:lcidtoname_downlevel.obj
 0002:00022a68       ??_C@_1M@HEGGPBFA@?$AAs?$AAe?$AA?9?$AAN?$AAO?$AA?$AA@ 000000018011fa68     libucrtd:lcidtoname_downlevel.obj
 0002:00022a78       ??_C@_1M@EIBJEEPA@?$AAm?$AAs?$AA?9?$AAM?$AAY?$AA?$AA@ 000000018011fa78     libucrtd:lcidtoname_downlevel.obj
 0002:00022a88       ??_C@_1M@FHLBGMPP@?$AAk?$AAk?$AA?9?$AAK?$AAZ?$AA?$AA@ 000000018011fa88     libucrtd:lcidtoname_downlevel.obj
 0002:00022a98       ??_C@_1M@NGJJLCGI@?$AAk?$AAy?$AA?9?$AAK?$AAG?$AA?$AA@ 000000018011fa98     libucrtd:lcidtoname_downlevel.obj
 0002:00022aa8       ??_C@_1M@GIENNBFC@?$AAs?$AAw?$AA?9?$AAK?$AAE?$AA?$AA@ 000000018011faa8     libucrtd:lcidtoname_downlevel.obj
 0002:00022ac0       ??_C@_1HO@KHHMOCBO@?$AAm?$AAi?$AAn?$AAk?$AAe?$AAr?$AAn?$AAe?$AAl?$AA?2?$AAc?$AAr?$AAt?$AAs?$AA?2?$AAu?$AAc?$AAr?$AAt?$AA?2?$AAs?$AAr?$AAc?$AA?2?$AAa?$AAp?$AAp?$AAc?$AAr?$AAt?$AA?2?$AAl@ 000000018011fac0     libucrtd:lcidtoname_downlevel.obj
 0002:00022b60       ??_C@_1EC@MDFDCHIL@?$AA_?$AA_?$AAa?$AAc?$AAr?$AAt?$AA_?$AAD?$AAo?$AAw?$AAn?$AAl?$AAe?$AAv?$AAe?$AAl?$AAL?$AAC?$AAI?$AAD?$AAT?$AAo?$AAL?$AAo?$AAc?$AAa?$AAl?$AAe?$AAN?$AAa?$AAm?$AAe@ 000000018011fb60     libucrtd:lcidtoname_downlevel.obj
 0002:00022bb0       ??_C@_1FO@LFACCMJH@?$AAw?$AAc?$AAs?$AAc?$AAp?$AAy?$AA_?$AAs?$AA?$CI?$AAo?$AAu?$AAt?$AAL?$AAo?$AAc?$AAa?$AAl?$AAe?$AAN?$AAa?$AAm?$AAe?$AA?0?$AA?5?$AAc?$AAc?$AAh?$AAL?$AAo?$AAc?$AAa?$AAl@ 000000018011fbb0     libucrtd:lcidtoname_downlevel.obj
 0002:00022c50       ??_C@_1DI@OOEEHOBJ@?$AAb?$AAa?$AAs?$AAe?$AA?5?$AA?$CB?$AA?$DN?$AA?5?$AAn?$AAu?$AAl?$AAl?$AAp?$AAt?$AAr?$AA?5?$AA?$HM?$AA?$HM?$AA?5?$AAn?$AAu?$AAm?$AA?5?$AA?$DN?$AA?$DN?$AA?5?$AA0?$AA?$AA@ 000000018011fc50     libucrtd:qsort.obj
 0002:00022ca0       ??_C@_1GA@KPPCKKGE@?$AAm?$AAi?$AAn?$AAk?$AAe?$AAr?$AAn?$AAe?$AAl?$AA?2?$AAc?$AAr?$AAt?$AAs?$AA?2?$AAu?$AAc?$AAr?$AAt?$AA?2?$AAs?$AAr?$AAc?$AA?2?$AAa?$AAp?$AAp?$AAc?$AAr?$AAt?$AA?2?$AAs@ 000000018011fca0     libucrtd:qsort.obj
 0002:00022d18       ??_C@_1M@INMHODIG@?$AAq?$AAs?$AAo?$AAr?$AAt?$AA?$AA@ 000000018011fd18     libucrtd:qsort.obj
 0002:00022d28       ??_C@_1BE@NJBEBBME@?$AAw?$AAi?$AAd?$AAt?$AAh?$AA?5?$AA?$DO?$AA?5?$AA0?$AA?$AA@ 000000018011fd28     libucrtd:qsort.obj
 0002:00022d40       ??_C@_1CA@LIDFOMIN@?$AAc?$AAo?$AAm?$AAp?$AA?5?$AA?$CB?$AA?$DN?$AA?5?$AAn?$AAu?$AAl?$AAl?$AAp?$AAt?$AAr?$AA?$AA@ 000000018011fd40     libucrtd:qsort.obj
 0002:00022d68       ??_C@_0DH@IKPCBLP@minkernel?2crts?2ucrt?2src?2appcrt?2l@ 000000018011fd68     libucrtd:lcmapstringa.obj
 0002:00022db0       ??_C@_1CI@CCKDLILB@?$AA_?$AAs?$AAt?$AAr?$AAi?$AAn?$AAg?$AA1?$AA?5?$AA?$CB?$AA?$DN?$AA?5?$AAn?$AAu?$AAl?$AAl?$AAp?$AAt?$AAr?$AA?$AA@ 000000018011fdb0     libucrtd:wcsnicol.obj
 0002:00022de0       ??_C@_1GG@MDOKJCAE@?$AAm?$AAi?$AAn?$AAk?$AAe?$AAr?$AAn?$AAe?$AAl?$AA?2?$AAc?$AAr?$AAt?$AAs?$AA?2?$AAu?$AAc?$AAr?$AAt?$AA?2?$AAs?$AAr?$AAc?$AA?2?$AAa?$AAp?$AAp?$AAc?$AAr?$AAt?$AA?2?$AAs@ 000000018011fde0     libucrtd:wcsnicol.obj
 0002:00022e60       ??_C@_1BK@EONLMOKH@?$AA_?$AAw?$AAc?$AAs?$AAn?$AAi?$AAc?$AAo?$AAl?$AAl?$AA_?$AAl?$AA?$AA@ 000000018011fe60     libucrtd:wcsnicol.obj
 0002:00022e80       ??_C@_1CI@NAPEFFEJ@?$AA_?$AAs?$AAt?$AAr?$AAi?$AAn?$AAg?$AA2?$AA?5?$AA?$CB?$AA?$DN?$AA?5?$AAn?$AAu?$AAl?$AAl?$AAp?$AAt?$AAr?$AA?$AA@ 000000018011fe80     libucrtd:wcsnicol.obj
 0002:00022eb0       ??_C@_1CC@JLPHKJPH@?$AAc?$AAo?$AAu?$AAn?$AAt?$AA?5?$AA?$DM?$AA?$DN?$AA?5?$AAI?$AAN?$AAT?$AA_?$AAM?$AAA?$AAX?$AA?$AA@ 000000018011feb0     libucrtd:wcsnicol.obj
 0002:00022ed8       ??_C@_1BG@PCPANGGF@?$AA_?$AAw?$AAc?$AAs?$AAn?$AAi?$AAc?$AAo?$AAl?$AAl?$AA?$AA@ 000000018011fed8     libucrtd:wcsnicol.obj
 0002:00022f00       ??_C@_1GG@LACFCIFA@?$AAm?$AAi?$AAn?$AAk?$AAe?$AAr?$AAn?$AAe?$AAl?$AA?2?$AAc?$AAr?$AAt?$AAs?$AA?2?$AAu?$AAc?$AAr?$AAt?$AA?2?$AAs?$AAr?$AAc?$AA?2?$AAa?$AAp?$AAp?$AAc?$AAr?$AAt?$AA?2?$AAs@ 000000018011ff00     libucrtd:strnicol.obj
 0002:00022f80       ??_C@_1BK@IOJEBPLP@?$AA_?$AAs?$AAt?$AAr?$AAn?$AAi?$AAc?$AAo?$AAl?$AAl?$AA_?$AAl?$AA?$AA@ 000000018011ff80     libucrtd:strnicol.obj
 0002:00022fa0       ??_C@_0DB@JFFPGLDM@minkernel?2crts?2ucrt?2src?2appcrt?2l@ 000000018011ffa0     libucrtd:osfinfo.obj
 0002:00022fe0       ??_C@_1EM@BPODPNEJ@?$AAs?$AAt?$AAa?$AAt?$AAi?$AAc?$AA_?$AAc?$AAa?$AAs?$AAt?$AA?$DM?$AAu?$AAn?$AAs?$AAi?$AAg?$AAn?$AAe?$AAd?$AA?$DO?$AA?$CI?$AAf?$AAh?$AA?$CJ?$AA?5?$AA?$DM?$AA?5?$AA_?$AAN?$AAH?$AAA@ 000000018011ffe0     libucrtd:osfinfo.obj
 0002:00023040       ??_C@_1GC@LDGKBAFM@?$AAm?$AAi?$AAn?$AAk?$AAe?$AAr?$AAn?$AAe?$AAl?$AA?2?$AAc?$AAr?$AAt?$AAs?$AA?2?$AAu?$AAc?$AAr?$AAt?$AA?2?$AAs?$AAr?$AAc?$AA?2?$AAa?$AAp?$AAp?$AAc?$AAr?$AAt?$AA?2?$AAl@ 0000000180120040     libucrtd:osfinfo.obj
 0002:000230b8       ??_C@_1DM@JELNOMLN@?$AA_?$AA_?$AAa?$AAc?$AAr?$AAt?$AA_?$AAl?$AAo?$AAw?$AAi?$AAo?$AA_?$AAe?$AAn?$AAs?$AAu?$AAr?$AAe?$AA_?$AAf?$AAh?$AA_?$AAe?$AAx?$AAi?$AAs?$AAt?$AAs?$AA?$AA@ 00000001801200b8     libucrtd:osfinfo.obj
 0002:00023100       ??_C@_1FK@MGHFJLAL@?$AAf?$AAh?$AA?5?$AA?$DO?$AA?$DN?$AA?5?$AA0?$AA?5?$AA?$CG?$AA?$CG?$AA?5?$AA?$CI?$AAu?$AAn?$AAs?$AAi?$AAg?$AAn?$AAe?$AAd?$AA?$CJ?$AAf?$AAh?$AA?5?$AA?$DM?$AA?5?$AA?$CI?$AAu?$AAn?$AAs?$AAi?$AAg@ 0000000180120100     libucrtd:osfinfo.obj
 0002:00023170       ??_C@_1BO@EMBOBGKE@?$AA_?$AAg?$AAe?$AAt?$AA_?$AAo?$AAs?$AAf?$AAh?$AAa?$AAn?$AAd?$AAl?$AAe?$AA?$AA@ 0000000180120170     libucrtd:osfinfo.obj
 0002:00023198       ??_C@_1CI@ILOIOBLM@?$AA_?$AAo?$AAs?$AAf?$AAi?$AAl?$AAe?$AA?$CI?$AAf?$AAh?$AA?$CJ?$AA?5?$AA?$CG?$AA?5?$AAF?$AAO?$AAP?$AAE?$AAN?$AA?$AA@ 0000000180120198     libucrtd:osfinfo.obj
 0002:000231d0       ??_C@_1FO@LPCLHKGE@?$AA?$CI?$AAf?$AAh?$AA?5?$AA?$DO?$AA?$DN?$AA?5?$AA0?$AA?5?$AA?$CG?$AA?$CG?$AA?5?$AA?$CI?$AAu?$AAn?$AAs?$AAi?$AAg?$AAn?$AAe?$AAd?$AA?$CJ?$AAf?$AAh?$AA?5?$AA?$DM?$AA?5?$AA?$CI?$AAu?$AAn?$AAs?$AAi@ 00000001801201d0     libucrtd:isatty.obj
 0002:00023240       ??_C@_1GA@DEPMKPD@?$AAm?$AAi?$AAn?$AAk?$AAe?$AAr?$AAn?$AAe?$AAl?$AA?2?$AAc?$AAr?$AAt?$AAs?$AA?2?$AAu?$AAc?$AAr?$AAt?$AA?2?$AAs?$AAr?$AAc?$AA?2?$AAa?$AAp?$AAp?$AAc?$AAr?$AAt?$AA?2?$AAl@ 0000000180120240     libucrtd:isatty.obj
 0002:000232b8       ??_C@_1BA@LEBDGIHM@?$AA_?$AAi?$AAs?$AAa?$AAt?$AAt?$AAy?$AA?$AA@ 00000001801202b8     libucrtd:isatty.obj
 0002:000232d0       ??_C@_1GI@IMEEHIAK@?$AAm?$AAi?$AAn?$AAk?$AAe?$AAr?$AAn?$AAe?$AAl?$AA?2?$AAc?$AAr?$AAt?$AAs?$AA?2?$AAu?$AAc?$AAr?$AAt?$AA?2?$AAs?$AAr?$AAc?$AA?2?$AAa?$AAp?$AAp?$AAc?$AAr?$AAt?$AA?2?$AAc@ 00000001801202d0     libucrtd:_fptostr.obj
 0002:00023350       ??_C@_1DG@NMGBKPMI@?$AA_?$AA_?$AAa?$AAc?$AAr?$AAt?$AA_?$AAf?$AAp?$AA_?$AAs?$AAt?$AAr?$AAf?$AAl?$AAt?$AA_?$AAt?$AAo?$AA_?$AAs?$AAt?$AAr?$AAi?$AAn?$AAg?$AA?$AA@ 0000000180120350     libucrtd:_fptostr.obj
 0002:00023390       ??_C@_1IE@EAOKIIFP@?$AAb?$AAu?$AAf?$AAf?$AAe?$AAr?$AA_?$AAc?$AAo?$AAu?$AAn?$AAt?$AA?5?$AA?$DO?$AA?5?$AAs?$AAt?$AAa?$AAt?$AAi?$AAc?$AA_?$AAc?$AAa?$AAs?$AAt?$AA?$DM?$AAs?$AAi?$AAz?$AAe?$AA_@ 0000000180120390     libucrtd:_fptostr.obj
 0002:00023430       ??_C@_1CA@EDEEBMBB@?$AAp?$AAf?$AAl?$AAt?$AA?5?$AA?$CB?$AA?$DN?$AA?5?$AAn?$AAu?$AAl?$AAl?$AAp?$AAt?$AAr?$AA?$AA@ 0000000180120430     libucrtd:_fptostr.obj
 0002:00023460       ?large_power_data@?1??multiply_by_power_of_ten@__crt_strtox@@YA_NAEAUbig_integer@2@I@Z@4QBIB 0000000180120460     libucrtd:cfout.obj
 0002:00023f40       ?large_power_indices@?1??multiply_by_power_of_ten@__crt_strtox@@YA_NAEAUbig_integer@2@I@Z@4QBUunpack_index@?1??12@YA_N0I@Z@B 0000000180120f40     libucrtd:cfout.obj
 0002:00023ff8       ?small_powers_of_ten@?6??multiply_by_power_of_ten@__crt_strtox@@YA_NAEAUbig_integer@2@I@Z@4QBIB 0000000180120ff8     libucrtd:cfout.obj
 0002:00024028       ??_C@_1DI@GICAMMFM@?$AA?$CI?$AA?$CC?$AAD?$AAi?$AAv?$AAi?$AAs?$AAi?$AAo?$AAn?$AA?5?$AAb?$AAy?$AA?5?$AAz?$AAe?$AAr?$AAo?$AA?$CC?$AA?0?$AA?5?$AAf?$AAa?$AAl?$AAs?$AAe?$AA?$CJ?$AA?$AA@ 0000000180121028     libucrtd:cfout.obj
 0002:00024070       ??_C@_1GO@BFGDDONN@?$AAm?$AAi?$AAn?$AAk?$AAe?$AAr?$AAn?$AAe?$AAl?$AA?2?$AAc?$AAr?$AAt?$AAs?$AA?2?$AAu?$AAc?$AAr?$AAt?$AA?2?$AAi?$AAn?$AAc?$AA?2?$AAc?$AAo?$AAr?$AAe?$AAc?$AAr?$AAt?$AA_@ 0000000180121070     libucrtd:cfout.obj
 0002:00024100       ??_C@_1GC@DDAKNBNC@?$AAm?$AAi?$AAn?$AAk?$AAe?$AAr?$AAn?$AAe?$AAl?$AA?2?$AAc?$AAr?$AAt?$AAs?$AA?2?$AAu?$AAc?$AAr?$AAt?$AA?2?$AAs?$AAr?$AAc?$AA?2?$AAa?$AAp?$AAp?$AAc?$AAr?$AAt?$AA?2?$AAc@ 0000000180121100     libucrtd:cfout.obj
 0002:00024178       ??_C@_1BM@FAAOAKKO@?$AA_?$AA_?$AAa?$AAc?$AAr?$AAt?$AA_?$AAf?$AAl?$AAt?$AAo?$AAu?$AAt?$AA?$AA@ 0000000180121178     libucrtd:cfout.obj
 0002:000241a0       ??_C@_1EI@OACEJKEP@?$AAs?$AAt?$AAr?$AAc?$AAp?$AAy?$AA_?$AAs?$AA?$CI?$AAr?$AAe?$AAs?$AAu?$AAl?$AAt?$AA?0?$AA?5?$AAr?$AAe?$AAs?$AAu?$AAl?$AAt?$AA_?$AAc?$AAo?$AAu?$AAn?$AAt?$AA?0?$AA?5?$AA?$CC@ 00000001801211a0     libucrtd:cfout.obj
 0002:00024200       ??_C@_1FC@KIECGFMP@?$AAs?$AAt?$AAr?$AAc?$AAp?$AAy?$AA_?$AAs?$AA?$CI?$AAr?$AAe?$AAs?$AAu?$AAl?$AAt?$AA?0?$AA?5?$AAr?$AAe?$AAs?$AAu?$AAl?$AAt?$AA_?$AAc?$AAo?$AAu?$AAn?$AAt?$AA?0?$AA?5?$AA?$CC@ 0000000180121200     libucrtd:cfout.obj
 0002:00024264       ??_C@_05DNEBIAHO@1?$CDINF?$AA@ 0000000180121264     libucrtd:cfout.obj
 0002:00024270       ??_C@_1FC@NFPJEIBD@?$AAs?$AAt?$AAr?$AAc?$AAp?$AAy?$AA_?$AAs?$AA?$CI?$AAr?$AAe?$AAs?$AAu?$AAl?$AAt?$AA?0?$AA?5?$AAr?$AAe?$AAs?$AAu?$AAl?$AAt?$AA_?$AAc?$AAo?$AAu?$AAn?$AAt?$AA?0?$AA?5?$AA?$CC@ 0000000180121270     libucrtd:cfout.obj
 0002:000242d4       ??_C@_06IMKFLFPG@1?$CDQNAN?$AA@ 00000001801212d4     libucrtd:cfout.obj
 0002:000242e0       ??_C@_1FC@DEJHIMLO@?$AAs?$AAt?$AAr?$AAc?$AAp?$AAy?$AA_?$AAs?$AA?$CI?$AAr?$AAe?$AAs?$AAu?$AAl?$AAt?$AA?0?$AA?5?$AAr?$AAe?$AAs?$AAu?$AAl?$AAt?$AA_?$AAc?$AAo?$AAu?$AAn?$AAt?$AA?0?$AA?5?$AA?$CC@ 00000001801212e0     libucrtd:cfout.obj
 0002:00024344       ??_C@_06PGGFOGJG@1?$CDSNAN?$AA@ 0000000180121344     libucrtd:cfout.obj
 0002:00024350       ??_C@_1FC@KMLHLFPC@?$AAs?$AAt?$AAr?$AAc?$AAp?$AAy?$AA_?$AAs?$AA?$CI?$AAr?$AAe?$AAs?$AAu?$AAl?$AAt?$AA?0?$AA?5?$AAr?$AAe?$AAs?$AAu?$AAl?$AAt?$AA_?$AAc?$AAo?$AAu?$AAn?$AAt?$AA?0?$AA?5?$AA?$CC@ 0000000180121350     libucrtd:cfout.obj
 0002:000243b4       ??_C@_05PHHOCPM@1?$CDIND?$AA@ 00000001801213b4     libucrtd:cfout.obj
 0002:000243c0       ??_C@_1DE@KHKADFOO@?$AAm?$AAa?$AAn?$AAt?$AAi?$AAs?$AAs?$AAa?$AA_?$AAb?$AAu?$AAf?$AAf?$AAe?$AAr?$AA_?$AAc?$AAo?$AAu?$AAn?$AAt?$AA?5?$AA?$DO?$AA?5?$AA0?$AA?$AA@ 00000001801213c0     libucrtd:cfout.obj
 0002:00024400       ??_C@_1FI@LFKLOPAC@?$AA?$CI?$AA?$CC?$AAu?$AAn?$AAe?$AAx?$AAp?$AAe?$AAc?$AAt?$AAe?$AAd?$AA?5?$AAi?$AAn?$AAp?$AAu?$AAt?$AA?5?$AAv?$AAa?$AAl?$AAu?$AAe?$AA?$DL?$AA?5?$AAl?$AAo?$AAg?$AA1?$AA0?$AA?5@ 0000000180121400     libucrtd:cfout.obj
 0002:00024470       ??_C@_1FG@MLHBDPBG@?$AAq?$AAu?$AAo?$AAt?$AAi?$AAe?$AAn?$AAt?$AA?5?$AA?$DM?$AA?5?$AAd?$AAi?$AAg?$AAi?$AAt?$AAs?$AA_?$AAp?$AAe?$AAr?$AA_?$AAi?$AAt?$AAe?$AAr?$AAa?$AAt?$AAi?$AAo?$AAn?$AA_@ 0000000180121470     libucrtd:cfout.obj
 0002:000244e0       ??_C@_1GC@DFIGBGJI@?$AAm?$AAi?$AAn?$AAk?$AAe?$AAr?$AAn?$AAe?$AAl?$AA?2?$AAc?$AAr?$AAt?$AAs?$AA?2?$AAu?$AAc?$AAr?$AAt?$AA?2?$AAs?$AAr?$AAc?$AA?2?$AAa?$AAp?$AAp?$AAc?$AAr?$AAt?$AA?2?$AAs@ 00000001801214e0     libucrtd:_flsbuf.obj
 0002:00024560       ??_C@_1HO@MLMGPAFH@?$AA?$CI?$AA?$CC?$AAi?$AAn?$AAc?$AAo?$AAn?$AAs?$AAi?$AAs?$AAt?$AAe?$AAn?$AAt?$AA?5?$AAI?$AAO?$AAB?$AA?5?$AAf?$AAi?$AAe?$AAl?$AAd?$AAs?$AA?$CC?$AA?0?$AA?5?$AAs?$AAt?$AAr?$AAe@ 0000000180121560     libucrtd:_flsbuf.obj
 0002:00024600       ??_C@_1GE@GPOPIOIG@?$AAm?$AAi?$AAn?$AAk?$AAe?$AAr?$AAn?$AAe?$AAl?$AA?2?$AAc?$AAr?$AAt?$AAs?$AA?2?$AAu?$AAc?$AAr?$AAt?$AA?2?$AAs?$AAr?$AAc?$AA?2?$AAa?$AAp?$AAp?$AAc?$AAr?$AAt?$AA?2?$AAs@ 0000000180121600     libucrtd:_freebuf.obj
 0002:00024678       ??_C@_1DE@BCNCAIK@?$AA?$CI?$AA?$CC?$AAI?$AAn?$AAv?$AAa?$AAl?$AAi?$AAd?$AA?5?$AAe?$AAr?$AAr?$AAo?$AAr?$AA_?$AAm?$AAo?$AAd?$AAe?$AA?$CC?$AA?0?$AA?5?$AA0?$AA?$CJ?$AA?$AA@ 0000000180121678     libucrtd:set_error_mode.obj
 0002:000246c0       ??_C@_1GO@EBFPMMIJ@?$AAm?$AAi?$AAn?$AAk?$AAe?$AAr?$AAn?$AAe?$AAl?$AA?2?$AAc?$AAr?$AAt?$AAs?$AA?2?$AAu?$AAc?$AAr?$AAt?$AA?2?$AAs?$AAr?$AAc?$AA?2?$AAa?$AAp?$AAp?$AAc?$AAr?$AAt?$AA?2?$AAm@ 00000001801216c0     libucrtd:set_error_mode.obj
 0002:00024748       ??_C@_1CA@LFDHAMEM@?$AA_?$AAs?$AAe?$AAt?$AA_?$AAe?$AAr?$AAr?$AAo?$AAr?$AA_?$AAm?$AAo?$AAd?$AAe?$AA?$AA@ 0000000180121748     libucrtd:set_error_mode.obj
 0002:00024800       ??_C@_0DJ@JBBOOIAE@minkernel?2crts?2ucrt?2src?2appcrt?2l@ 0000000180121800     libucrtd:getlocaleinfoa.obj
 0002:00024850       ??_C@_1HC@KAIIOBKJ@?$AAm?$AAi?$AAn?$AAk?$AAe?$AAr?$AAn?$AAe?$AAl?$AA?2?$AAc?$AAr?$AAt?$AAs?$AA?2?$AAu?$AAc?$AAr?$AAt?$AA?2?$AAs?$AAr?$AAc?$AA?2?$AAa?$AAp?$AAp?$AAc?$AAr?$AAt?$AA?2?$AAl@ 0000000180121850     libucrtd:getlocaleinfoa.obj
 0002:000248d8       ??_C@_1CM@LGLMFNOK@?$AA_?$AA_?$AAa?$AAc?$AAr?$AAt?$AA_?$AAG?$AAe?$AAt?$AAL?$AAo?$AAc?$AAa?$AAl?$AAe?$AAI?$AAn?$AAf?$AAo?$AAA?$AA?$AA@ 00000001801218d8     libucrtd:getlocaleinfoa.obj
 0002:00024910       ??_C@_1IM@HJPPDDKJ@?$AAs?$AAt?$AAr?$AAn?$AAc?$AAp?$AAy?$AA_?$AAs?$AA?$CI?$AA?$CK?$AAc?$AAh?$AAa?$AAr?$AA_?$AAr?$AAe?$AAs?$AAu?$AAl?$AAt?$AA?0?$AA?5?$AAl?$AAo?$AAc?$AAa?$AAl?$AA_?$AAl?$AAe@ 0000000180121910     libucrtd:getlocaleinfoa.obj
 0002:000249b8       ??_C@_1BO@GCPMHDON@?$AAd?$AAs?$AAt?$AA?5?$AA?$CB?$AA?$DN?$AA?5?$AAn?$AAu?$AAl?$AAl?$AAp?$AAt?$AAr?$AA?$AA@ 00000001801219b8     libucrtd:wcsicmp.obj
 0002:000249e0       ??_C@_1GE@FNNJGCGI@?$AAm?$AAi?$AAn?$AAk?$AAe?$AAr?$AAn?$AAe?$AAl?$AA?2?$AAc?$AAr?$AAt?$AAs?$AA?2?$AAu?$AAc?$AAr?$AAt?$AA?2?$AAs?$AAr?$AAc?$AA?2?$AAa?$AAp?$AAp?$AAc?$AAr?$AAt?$AA?2?$AAs@ 00000001801219e0     libucrtd:wcsicmp.obj
 0002:00024a58       ??_C@_1BG@EELGPCPD@?$AA_?$AAw?$AAc?$AAs?$AAi?$AAc?$AAm?$AAp?$AA_?$AAl?$AA?$AA@ 0000000180121a58     libucrtd:wcsicmp.obj
 0002:00024a78       ??_C@_1BO@NEBGDLJE@?$AAs?$AAr?$AAc?$AA?5?$AA?$CB?$AA?$DN?$AA?5?$AAn?$AAu?$AAl?$AAl?$AAp?$AAt?$AAr?$AA?$AA@ 0000000180121a78     libucrtd:wcsicmp.obj
 0002:00024aa0       ??_C@_1BC@NHIBDOMC@?$AA_?$AAw?$AAc?$AAs?$AAi?$AAc?$AAm?$AAp?$AA?$AA@ 0000000180121aa0     libucrtd:wcsicmp.obj
 0002:00024ab8       ??_C@_1CC@IBIHLDLG@?$AAf?$AAi?$AAr?$AAs?$AAt?$AA?5?$AA?$CB?$AA?$DN?$AA?5?$AAn?$AAu?$AAl?$AAl?$AAp?$AAt?$AAr?$AA?$AA@ 0000000180121ab8     libucrtd:wcsnicmp.obj
 0002:00024ae0       ??_C@_1GG@CLJGPGNE@?$AAm?$AAi?$AAn?$AAk?$AAe?$AAr?$AAn?$AAe?$AAl?$AA?2?$AAc?$AAr?$AAt?$AAs?$AA?2?$AAu?$AAc?$AAr?$AAt?$AA?2?$AAs?$AAr?$AAc?$AA?2?$AAa?$AAp?$AAp?$AAc?$AAr?$AAt?$AA?2?$AAs@ 0000000180121ae0     libucrtd:wcsnicmp.obj
 0002:00024b60       ??_C@_1BI@KLMFNDBC@?$AA_?$AAw?$AAc?$AAs?$AAn?$AAi?$AAc?$AAm?$AAp?$AA_?$AAl?$AA?$AA@ 0000000180121b60     libucrtd:wcsnicmp.obj
 0002:00024b80       ??_C@_1CA@GLFIDPNF@?$AAl?$AAa?$AAs?$AAt?$AA?5?$AA?$CB?$AA?$DN?$AA?5?$AAn?$AAu?$AAl?$AAl?$AAp?$AAt?$AAr?$AA?$AA@ 0000000180121b80     libucrtd:wcsnicmp.obj
 0002:00024ba8       ??_C@_1BE@JKOKKFEL@?$AA_?$AAw?$AAc?$AAs?$AAn?$AAi?$AAc?$AAm?$AAp?$AA?$AA@ 0000000180121ba8     libucrtd:wcsnicmp.obj
 0002:00024bc0       ??_C@_1GG@FIFJEMIA@?$AAm?$AAi?$AAn?$AAk?$AAe?$AAr?$AAn?$AAe?$AAl?$AA?2?$AAc?$AAr?$AAt?$AAs?$AA?2?$AAu?$AAc?$AAr?$AAt?$AA?2?$AAs?$AAr?$AAc?$AA?2?$AAa?$AAp?$AAp?$AAc?$AAr?$AAt?$AA?2?$AAs@ 0000000180121bc0     libucrtd:strnicmp.obj
 0002:00024c40       ??_C@_1BI@BJLEPLEF@?$AA_?$AAs?$AAt?$AAr?$AAn?$AAi?$AAc?$AAm?$AAp?$AA_?$AAl?$AA?$AA@ 0000000180121c40     libucrtd:strnicmp.obj
 0002:00024c60       ??_C@_1BE@BHJDFFNA@?$AA_?$AAs?$AAt?$AAr?$AAn?$AAi?$AAc?$AAm?$AAp?$AA?$AA@ 0000000180121c60     libucrtd:strnicmp.obj
 0002:00024c80       ??_C@_1HK@ELDMAMK@?$AAc?$AAc?$AAh?$AAC?$AAo?$AAu?$AAn?$AAt?$AA1?$AA?$DN?$AA?$DN?$AA0?$AA?5?$AA?$CG?$AA?$CG?$AA?5?$AAc?$AAc?$AAh?$AAC?$AAo?$AAu?$AAn?$AAt?$AA2?$AA?$DN?$AA?$DN?$AA1?$AA?5?$AA?$HM?$AA?$HM?$AA?5@ 0000000180121c80     libucrtd:comparestringa.obj
 0002:00024d20       ??_C@_1HC@NLKDIKED@?$AAm?$AAi?$AAn?$AAk?$AAe?$AAr?$AAn?$AAe?$AAl?$AA?2?$AAc?$AAr?$AAt?$AAs?$AA?2?$AAu?$AAc?$AAr?$AAt?$AA?2?$AAs?$AAr?$AAc?$AA?2?$AAa?$AAp?$AAp?$AAc?$AAr?$AAt?$AA?2?$AAl@ 0000000180121d20     libucrtd:comparestringa.obj
 0002:00024da8       ??_C@_0DJ@MBLHFEOE@minkernel?2crts?2ucrt?2src?2appcrt?2l@ 0000000180121da8     libucrtd:comparestringa.obj
 0002:00024df0       ??_C@_1GA@MPOOLHCO@?$AAm?$AAi?$AAn?$AAk?$AAe?$AAr?$AAn?$AAe?$AAl?$AA?2?$AAc?$AAr?$AAt?$AAs?$AA?2?$AAu?$AAc?$AAr?$AAt?$AA?2?$AAs?$AAr?$AAc?$AA?2?$AAa?$AAp?$AAp?$AAc?$AAr?$AAt?$AA?2?$AAl@ 0000000180121df0     libucrtd:commit.obj
 0002:00024e68       ??_C@_1BA@FLNMBBIM@?$AA_?$AAc?$AAo?$AAm?$AAm?$AAi?$AAt?$AA?$AA@ 0000000180121e68     libucrtd:commit.obj
 0002:00024e80       ??_C@_1CM@OKGMMMDH@?$AA?$CI?$AA_?$AAo?$AAs?$AAf?$AAi?$AAl?$AAe?$AA?$CI?$AAf?$AAh?$AA?$CJ?$AA?5?$AA?$CG?$AA?5?$AAF?$AAO?$AAP?$AAE?$AAN?$AA?$CJ?$AA?$AA@ 0000000180121e80     libucrtd:commit.obj
 0002:00024ec0       ??_C@_1JE@ECKHFIFP@?$AA?$CI?$AA?$CC?$AAI?$AAn?$AAv?$AAa?$AAl?$AAi?$AAd?$AA?5?$AAf?$AAi?$AAl?$AAe?$AA?5?$AAd?$AAe?$AAs?$AAc?$AAr?$AAi?$AAp?$AAt?$AAo?$AAr?$AA?4?$AA?5?$AAF?$AAi?$AAl?$AAe?$AA?5@ 0000000180121ec0     libucrtd:commit.obj
 0002:00024f80       ??_C@_1FO@CAMPMGCN@?$AAm?$AAi?$AAn?$AAk?$AAe?$AAr?$AAn?$AAe?$AAl?$AA?2?$AAc?$AAr?$AAt?$AAs?$AA?2?$AAu?$AAc?$AAr?$AAt?$AA?2?$AAs?$AAr?$AAc?$AA?2?$AAa?$AAp?$AAp?$AAc?$AAr?$AAt?$AA?2?$AAl@ 0000000180121f80     libucrtd:write.obj
 0002:00024ff0       ??_C@_1O@KOFKDHPL@?$AA_?$AAw?$AAr?$AAi?$AAt?$AAe?$AA?$AA@ 0000000180121ff0     libucrtd:write.obj
 0002:00025000       ??_C@_1DI@CNMHHHLG@?$AAi?$AAs?$AAl?$AAe?$AAa?$AAd?$AAb?$AAy?$AAt?$AAe?$AA?$CI?$AA_?$AAd?$AAb?$AAc?$AAs?$AAB?$AAu?$AAf?$AAf?$AAe?$AAr?$AA?$CI?$AAf?$AAh?$AA?$CJ?$AA?$CJ?$AA?$AA@ 0000000180122000     libucrtd:write.obj
 0002:00025048       ??_C@_1BM@NCANHCIP@?$AA_?$AAw?$AAr?$AAi?$AAt?$AAe?$AA_?$AAn?$AAo?$AAl?$AAo?$AAc?$AAk?$AA?$AA@ 0000000180122048     libucrtd:write.obj
 0002:00025070       ??_C@_1CK@CPEAGIIP@?$AAb?$AAu?$AAf?$AAf?$AAe?$AAr?$AA_?$AAs?$AAi?$AAz?$AAe?$AA?5?$AA?$CF?$AA?5?$AA2?$AA?5?$AA?$DN?$AA?$DN?$AA?5?$AA0?$AA?$AA@ 0000000180122070     libucrtd:write.obj
 0002:00025378       __real@3ff0000000000000    0000000180122378     libucrtd:ceil.obj
 0002:00025390       ??_C@_1FO@KIIHJNFN@?$AAm?$AAi?$AAn?$AAk?$AAe?$AAr?$AAn?$AAe?$AAl?$AA?2?$AAc?$AAr?$AAt?$AAs?$AA?2?$AAu?$AAc?$AAr?$AAt?$AA?2?$AAs?$AAr?$AAc?$AA?2?$AAa?$AAp?$AAp?$AAc?$AAr?$AAt?$AA?2?$AAl@ 0000000180122390     libucrtd:lseek.obj
 0002:00025400       ??_C@_1BK@JOMBNFIM@?$AAc?$AAo?$AAm?$AAm?$AAo?$AAn?$AA_?$AAl?$AAs?$AAe?$AAe?$AAk?$AA?$AA@ 0000000180122400     libucrtd:lseek.obj
 0002:00025420       ??_C@_1DM@LMLOLGJ@?$AA?$CI?$AA?$CC?$AAI?$AAn?$AAv?$AAa?$AAl?$AAi?$AAd?$AA?5?$AAf?$AAi?$AAl?$AAe?$AA?5?$AAd?$AAe?$AAs?$AAc?$AAr?$AAi?$AAp?$AAt?$AAo?$AAr?$AA?$CC?$AA?0?$AA0?$AA?$CJ?$AA?$AA@ 0000000180122420     libucrtd:lseek.obj
 0002:00025470       ??_C@_1GC@DLDMJFMI@?$AAm?$AAi?$AAn?$AAk?$AAe?$AAr?$AAn?$AAe?$AAl?$AA?2?$AAc?$AAr?$AAt?$AAs?$AA?2?$AAu?$AAc?$AAr?$AAt?$AA?2?$AAs?$AAr?$AAc?$AA?2?$AAa?$AAp?$AAp?$AAc?$AAr?$AAt?$AA?2?$AAs@ 0000000180122470     libucrtd:_getbuf.obj
 0002:000254e8       ??_C@_0DB@LKJPMJPL@minkernel?2crts?2ucrt?2src?2appcrt?2s@ 00000001801224e8     libucrtd:_getbuf.obj
 0002:00025530       ??_C@_1GA@DKNOMDCL@?$AAm?$AAi?$AAn?$AAk?$AAe?$AAr?$AAn?$AAe?$AAl?$AA?2?$AAc?$AAr?$AAt?$AAs?$AA?2?$AAu?$AAc?$AAr?$AAt?$AA?2?$AAs?$AAr?$AAc?$AA?2?$AAa?$AAp?$AAp?$AAc?$AAr?$AAt?$AA?2?$AAs@ 0000000180122530     libucrtd:fclose.obj
 0002:000255a8       ??_C@_1O@EGMJNCOI@?$AAf?$AAc?$AAl?$AAo?$AAs?$AAe?$AA?$AA@ 00000001801225a8     libucrtd:fclose.obj
 0002:000255b8       ??_C@_1BO@JINCABEC@?$AA_?$AAf?$AAc?$AAl?$AAo?$AAs?$AAe?$AA_?$AAn?$AAo?$AAl?$AAo?$AAc?$AAk?$AA?$AA@ 00000001801225b8     libucrtd:fclose.obj
 0002:000255e0       __log10_256_lead           00000001801225e0     libucrtd:log10_256_lead_tail_table.obj
 0002:00025df0       __log10_256_tail           0000000180122df0     libucrtd:log10_256_lead_tail_table.obj
 0002:00026930       __log_F_inv_qword          0000000180123930     libucrtd:log_f_inv_qword_table.obj
 0002:000272dc       ??_C@_04HIGFGEHP@logf?$AA@ 00000001801242dc     libucrtd:log_special.obj
 0002:000272e4       ??_C@_06KDGOKGLH@log10f?$AA@ 00000001801242e4     libucrtd:log_special.obj
 0002:000272f0       ??_C@_1EK@PDBKILLM@?$AA?$CI?$AAm?$AAa?$AAs?$AAk?$AA?$CG?$AA?$HO?$AA?$CI?$AA_?$AAM?$AAC?$AAW?$AA_?$AAD?$AAN?$AA?$HM?$AA_?$AAM?$AAC?$AAW?$AA_?$AAE?$AAM?$AA?$HM?$AA_?$AAM?$AAC?$AAW?$AA_?$AAR?$AAC?$AA?$CJ@ 00000001801242f0     libucrtd:ieee.obj
 0002:00027350       ??_C@_1GC@IEFABLII@?$AAm?$AAi?$AAn?$AAk?$AAe?$AAr?$AAn?$AAe?$AAl?$AA?2?$AAc?$AAr?$AAt?$AAs?$AA?2?$AAu?$AAc?$AAr?$AAt?$AA?2?$AAs?$AAr?$AAc?$AA?2?$AAa?$AAp?$AAp?$AAc?$AAr?$AAt?$AA?2?$AAt@ 0000000180124350     libucrtd:ieee.obj
 0002:000273d0       ??_C@_1FO@IPDGALOE@?$AAm?$AAi?$AAn?$AAk?$AAe?$AAr?$AAn?$AAe?$AAl?$AA?2?$AAc?$AAr?$AAt?$AAs?$AA?2?$AAu?$AAc?$AAr?$AAt?$AA?2?$AAs?$AAr?$AAc?$AA?2?$AAa?$AAp?$AAp?$AAc?$AAr?$AAt?$AA?2?$AAl@ 00000001801243d0     libucrtd:close.obj
 0002:00027440       ??_C@_1O@EDEJGJBM@?$AA_?$AAc?$AAl?$AAo?$AAs?$AAe?$AA?$AA@ 0000000180124440     libucrtd:close.obj
 0002:00027450       ??_C@_0DA@OGKFKCBE@minkernel?2crts?2ucrt?2src?2appcrt?2s@ 0000000180124450     libucrtd:stream.obj
 0002:00027490       ??_C@_1BA@BALFACEM@?$AAC?$AAO?$AAN?$AAO?$AAU?$AAT?$AA$?$AA?$AA@ 0000000180124490     libucrtd:initcon.obj
 0002:00027568       _pDestructExceptionObject  0000000180124568     libvcruntimed:frame.obj
 0002:00027580       ??_7exception@std@@6B@     0000000180124580     libvcruntimed:frame.obj
 0002:00027598       ??_C@_0BC@EOODALEL@Unknown?5exception?$AA@ 0000000180124598     libvcruntimed:frame.obj
 0002:000275b8       ??_7bad_exception@std@@6B@ 00000001801245b8     libvcruntimed:frame.obj
 0002:000275d0       ??_C@_0O@DPKOEFFH@bad?5exception?$AA@ 00000001801245d0     libvcruntimed:frame.obj
 0002:000275e0       ??_C@_1FK@OACNEHHA@?$AAt?$AAo?$AA?9?$AA?$DO?$AA_?$AAW?$AAh?$AAa?$AAt?$AA?5?$AA?$DN?$AA?$DN?$AA?5?$AAn?$AAu?$AAl?$AAl?$AAp?$AAt?$AAr?$AA?5?$AA?$CG?$AA?$CG?$AA?5?$AAt?$AAo?$AA?9?$AA?$DO?$AA_?$AAD?$AAo?$AAF@ 00000001801245e0     libvcruntimed:std_exception.obj
 0002:00027650       ??_C@_1GK@GJEBHBCE@?$AAf?$AA?3?$AA?2?$AAd?$AAd?$AA?2?$AAv?$AAc?$AAt?$AAo?$AAo?$AAl?$AAs?$AA?2?$AAc?$AAr?$AAt?$AA?2?$AAv?$AAc?$AAr?$AAu?$AAn?$AAt?$AAi?$AAm?$AAe?$AA?2?$AAs?$AAr?$AAc?$AA?2@ 0000000180124650     libvcruntimed:std_exception.obj
 0002:00027760       _load_config_used          0000000180124760     LIBCMTD:loadcfg.obj
 0002:000281a8       ??_R4type_info@@6B@        00000001801251a8     LIBCMTD:std_type_info_static.obj
 0002:000281d8       ??_R3type_info@@8          00000001801251d8     LIBCMTD:std_type_info_static.obj
 0002:000281f0       ??_R2type_info@@8          00000001801251f0     LIBCMTD:std_type_info_static.obj
 0002:00028200       ??_R1A@?0A@EA@type_info@@8 0000000180125200     LIBCMTD:std_type_info_static.obj
 0002:00028230       ??_R4DNameNode@@6B@        0000000180125230     libvcruntimed:undname.obj
 0002:00028260       ??_R3DNameNode@@8          0000000180125260     libvcruntimed:undname.obj
 0002:00028278       ??_R2DNameNode@@8          0000000180125278     libvcruntimed:undname.obj
 0002:00028288       ??_R1A@?0A@EA@DNameNode@@8 0000000180125288     libvcruntimed:undname.obj
 0002:000282b8       ??_R4charNode@@6B@         00000001801252b8     libvcruntimed:undname.obj
 0002:000282e8       ??_R3charNode@@8           00000001801252e8     libvcruntimed:undname.obj
 0002:00028300       ??_R2charNode@@8           0000000180125300     libvcruntimed:undname.obj
 0002:00028318       ??_R1A@?0A@EA@charNode@@8  0000000180125318     libvcruntimed:undname.obj
 0002:00028348       ??_R4pcharNode@@6B@        0000000180125348     libvcruntimed:undname.obj
 0002:00028378       ??_R3pcharNode@@8          0000000180125378     libvcruntimed:undname.obj
 0002:00028390       ??_R2pcharNode@@8          0000000180125390     libvcruntimed:undname.obj
 0002:000283a8       ??_R1A@?0A@EA@pcharNode@@8 00000001801253a8     libvcruntimed:undname.obj
 0002:000283d8       ??_R4pDNameNode@@6B@       00000001801253d8     libvcruntimed:undname.obj
 0002:00028408       ??_R3pDNameNode@@8         0000000180125408     libvcruntimed:undname.obj
 0002:00028420       ??_R2pDNameNode@@8         0000000180125420     libvcruntimed:undname.obj
 0002:00028438       ??_R1A@?0A@EA@pDNameNode@@8 0000000180125438     libvcruntimed:undname.obj
 0002:00028468       ??_R4DNameStatusNode@@6B@  0000000180125468     libvcruntimed:undname.obj
 0002:00028498       ??_R3DNameStatusNode@@8    0000000180125498     libvcruntimed:undname.obj
 0002:000284b0       ??_R2DNameStatusNode@@8    00000001801254b0     libvcruntimed:undname.obj
 0002:000284c8       ??_R1A@?0A@EA@DNameStatusNode@@8 00000001801254c8     libvcruntimed:undname.obj
 0002:000284f8       ??_R4pairNode@@6B@         00000001801254f8     libvcruntimed:undname.obj
 0002:00028528       ??_R3pairNode@@8           0000000180125528     libvcruntimed:undname.obj
 0002:00028540       ??_R2pairNode@@8           0000000180125540     libvcruntimed:undname.obj
 0002:00028558       ??_R1A@?0A@EA@pairNode@@8  0000000180125558     libvcruntimed:undname.obj
 0002:00028588       ??_R4exception@std@@6B@    0000000180125588     libvcruntimed:frame.obj
 0002:000285b8       ??_R3exception@std@@8      00000001801255b8     libvcruntimed:frame.obj
 0002:000285d0       ??_R2exception@std@@8      00000001801255d0     libvcruntimed:frame.obj
 0002:000285e0       ??_R1A@?0A@EA@exception@std@@8 00000001801255e0     libvcruntimed:frame.obj
 0002:00028610       ??_R4bad_exception@std@@6B@ 0000000180125610     libvcruntimed:frame.obj
 0002:00028640       ??_R3bad_exception@std@@8  0000000180125640     libvcruntimed:frame.obj
 0002:00028658       ??_R2bad_exception@std@@8  0000000180125658     libvcruntimed:frame.obj
 0002:00028670       ??_R1A@?0A@EA@bad_exception@std@@8 0000000180125670     libvcruntimed:frame.obj
 0002:00028958       __rtc_iaa                  0000000180125958     LIBCMTD:_initsect_.obj
 0002:00028c38       __rtc_izz                  0000000180125c38     LIBCMTD:_initsect_.obj
 0002:00028d48       __rtc_taa                  0000000180125d48     LIBCMTD:_initsect_.obj
 0002:00029028       __rtc_tzz                  0000000180126028     LIBCMTD:_initsect_.obj
 0002:00031af0       _TI2?AVbad_exception@std@@ 000000018012eaf0     libvcruntimed:frame.obj
 0002:00031b10       _CTA2?AVbad_exception@std@@ 000000018012eb10     libvcruntimed:frame.obj
 0002:00031b28       _CT??_R0?AVbad_exception@std@@@8??0bad_exception@std@@QEAA@AEBV01@@Z24 000000018012eb28     libvcruntimed:frame.obj
 0002:00031b50       _CT??_R0?AVexception@std@@@8??0exception@std@@QEAA@AEBV01@@Z24 000000018012eb50     libvcruntimed:frame.obj
 0003:00000074       _fltused                   0000000180130074     LIBCMTD:fltused.obj
 0003:00000080       __scrt_native_dllmain_reason 0000000180130080     LIBCMTD:utility.obj
 0003:00000088       ?_RTC_ErrorLevels@@3PAHA   0000000180130088     LIBCMTD:_error_.obj
 0003:000000a0       __isa_available            00000001801300a0     LIBCMTD:_cpu_disp_.obj
 0003:000000a4       __isa_enabled              00000001801300a4     LIBCMTD:_cpu_disp_.obj
 0003:000000a8       __memcpy_nt_iters          00000001801300a8     LIBCMTD:_cpu_disp_.obj
 0003:000000b8       __security_cookie          00000001801300b8     LIBCMTD:gs_cookie.obj
 0003:000000c0       __security_cookie_complement 00000001801300c0     LIBCMTD:gs_cookie.obj
 0003:000000d8       _crtDbgFlag                00000001801300d8     libucrtd:debug_heap.obj
 0003:000000dc       _crtBreakAlloc             00000001801300dc     libucrtd:debug_heap.obj
 0003:000000e0       __abort_behavior           00000001801300e0     libucrtd:abort.obj
 0003:000000f4       _crtAssertBusy             00000001801300f4     libucrtd:dbgrptt.obj
 0003:000000f8       _CrtDbgMode                00000001801300f8     libucrtd:dbgrptt.obj
 0003:00000108       _CrtDbgFile                0000000180130108     libucrtd:dbgrptt.obj
 0003:00000140       _pfnAllocHook              0000000180130140     libucrtd:debug_heap_hook.obj
 0003:0000015c       __mb_cur_max               000000018013015c     libucrtd:nlsdata.obj
 0003:00000160       __acrt_initial_locale_data 0000000180130160     libucrtd:nlsdata.obj
 0003:00000300       __acrt_initial_locale_pointers 0000000180130300     libucrtd:nlsdata.obj
 0003:00000314       __acrt_wide_c_locale_string 0000000180130314     libucrtd:nlsdata.obj
 0003:00000320       __acrt_initial_multibyte_data 0000000180130320     libucrtd:mbctype.obj
 0003:000005b8       __acrt_current_multibyte_data 00000001801305b8     libucrtd:mbctype.obj
 0003:000006f0       _mbctype                   00000001801306f0     libucrtd:mbctype.obj
 0003:00000830       _mbcasemap                 0000000180130830     libucrtd:mbctype.obj
 0003:00000970       __badioinfo                0000000180130970     libucrtd:ioinit.obj
 0003:000009d0       _iob                       00000001801309d0     libucrtd:_file.obj
 0003:00000b10       __globallocalestatus       0000000180130b10     libucrtd:glstatus.obj
 0003:00000b18       _pctype                    0000000180130b18     libucrtd:ctype.obj
 0003:00000b28       _pwctype                   0000000180130b28     libucrtd:ctype.obj
 0003:00000b40       __acrt_lconv_c             0000000180130b40     libucrtd:localeconv.obj
 0003:00000bf8       __acrt_lconv               0000000180130bf8     libucrtd:localeconv.obj
 0003:00000c04       __acrt_lconv_static_decimal 0000000180130c04     libucrtd:localeconv.obj
 0003:00000c08       __acrt_lconv_static_W_decimal 0000000180130c08     libucrtd:localeconv.obj
 0003:00000c18       __dcrt_lowio_console_output_handle 0000000180130c18     libucrtd:initcon.obj
 0003:00000d70       ??_R0?AVMutexImpl@shdfnd@physx@@@8 0000000180130d70     CctCharacterControllerManager.obj
 0003:00000da8       ??_R0?AVCharacterControllerManager@Cct@physx@@@8 0000000180130da8     CctCharacterControllerManager.obj
 0003:00000df0       ??_R0?AVObstacleContext@Cct@physx@@@8 0000000180130df0     CctCharacterControllerManager.obj
 0003:00000e30       ??_R0?AVCapsuleController@Cct@physx@@@8 0000000180130e30     CctCharacterControllerManager.obj
 0003:00000e70       ??_R0?AVBoxController@Cct@physx@@@8 0000000180130e70     CctCharacterControllerManager.obj
 0003:00000ea8       ??_R0?AVRenderBuffer@Cm@physx@@@8 0000000180130ea8     CctCharacterControllerManager.obj
 0003:00000ee0       ??_R0?AVtype_info@@@8      0000000180130ee0     LIBCMTD:std_type_info_static.obj
 0003:00000f08       ??_R0?AVDNameNode@@@8      0000000180130f08     libvcruntimed:undname.obj
 0003:00000f30       ??_R0?AVcharNode@@@8       0000000180130f30     libvcruntimed:undname.obj
 0003:00000f58       ??_R0?AVpcharNode@@@8      0000000180130f58     libvcruntimed:undname.obj
 0003:00000f80       ??_R0?AVpDNameNode@@@8     0000000180130f80     libvcruntimed:undname.obj
 0003:00000fa8       ??_R0?AVDNameStatusNode@@@8 0000000180130fa8     libvcruntimed:undname.obj
 0003:00000fd8       ??_R0?AVpairNode@@@8       0000000180130fd8     libvcruntimed:undname.obj
 0003:00001000       ??_R0?AVbad_exception@std@@@8 0000000180131000     libvcruntimed:frame.obj
 0003:00001030       ??_R0?AVexception@std@@@8  0000000180131030     libvcruntimed:frame.obj
 0003:00001060       ??_R0?AVbad_alloc@std@@@8  0000000180131060     libvcruntimed:frame.obj
 0003:000011a3       ?_ignore@?2???0PxTransform@physx@@QEAA@AEBVPxVec3@2@AEBVPxQuat@2@@Z@4_NA 00000001801311a3     CctCharacterController.obj
 0003:000011a4       ?_ignore@?2???DPxTransform@physx@@QEBA?AV12@AEBV12@@Z@4_NA 00000001801311a4     CctCharacterController.obj
 0003:000011a5       ?_ignore@?2??transform@PxTransform@physx@@QEBA?AVPxVec3@3@AEBV43@@Z@4_NA 00000001801311a5     CctCharacterController.obj
 0003:000011a6       ?_ignore@?2??transformInv@PxTransform@physx@@QEBA?AVPxVec3@3@AEBV43@@Z@4_NA 00000001801311a6     CctCharacterController.obj
 0003:000011a7       ?_ignore@?2??transform@PxTransform@physx@@QEBA?AV23@AEBV23@@Z@4_NA 00000001801311a7     CctCharacterController.obj
 0003:000011a8       ?_ignore@?3??transform@PxTransform@physx@@QEBA?AV23@AEBV23@@Z@4_NA 00000001801311a8     CctCharacterController.obj
 0003:000011a9       ?_ignore@?2??getCenter@PxBounds3@physx@@QEBA?AVPxVec3@3@XZ@4_NA 00000001801311a9     CctCharacterController.obj
 0003:000011aa       ?_ignore@?2??getDimensions@PxBounds3@physx@@QEBA?AVPxVec3@3@XZ@4_NA 00000001801311aa     CctCharacterController.obj
 0003:000011ab       ?_ignore@?2??getExtents@PxBounds3@physx@@QEBA?AVPxVec3@3@XZ@4_NA 00000001801311ab     CctCharacterController.obj
 0003:000011ac       ?_ignore@?2??encodeUserObject@Cct@physx@@YAIIW4UserObjectType@23@@Z@4_NA 00000001801311ac     CctCharacterController.obj
 0003:000011ad       ?_ignore@?3??encodeUserObject@Cct@physx@@YAIIW4UserObjectType@23@@Z@4_NA 00000001801311ad     CctCharacterController.obj
 0003:000011d6       ?_ignore@?4??postFilter@ControllerFilter@@UEAA?AW4Enum@PxQueryHitType@physx@@AEBUPxFilterData@5@AEBUPxQueryHit@5@@Z@4_NA 00000001801311d6     CctCharacterController.obj
 0003:000011e3       ?_ignore@?2???A?$Array@UInternalCapsuleObstacle@ObstacleContext@Cct@physx@@VNamedAllocator@shdfnd@4@@shdfnd@physx@@QEBAAEBUInternalCapsuleObstacle@ObstacleContext@Cct@3@I@Z@4_NA 00000001801311e3     CctCharacterController.obj
 0003:000011e4       ?_ignore@?2???A?$Array@UInternalBoxObstacle@ObstacleContext@Cct@physx@@VNamedAllocator@shdfnd@4@@shdfnd@physx@@QEBAAEBUInternalBoxObstacle@ObstacleContext@Cct@3@I@Z@4_NA 00000001801311e4     CctCharacterController.obj
 0003:000011e5       ?_ignore@?2??forceSize_Unsafe@?$Array@VPxTriangle@physx@@VNamedAllocator@shdfnd@2@@shdfnd@physx@@QEAAXI@Z@4_NA 00000001801311e5     CctCharacterController.obj
 0003:000011e6       ?_ignore@?2???A?$Array@VPxTriangle@physx@@VNamedAllocator@shdfnd@2@@shdfnd@physx@@QEBAAEBVPxTriangle@3@I@Z@4_NA 00000001801311e6     CctCharacterController.obj
 0003:000011e7       ?_ignore@?2??forceSize_Unsafe@?$Array@IVNamedAllocator@shdfnd@physx@@@shdfnd@physx@@QEAAXI@Z@4_NA 00000001801311e7     CctCharacterController.obj
 0003:000011e8       ?_ignore@?2???A?$Array@IVNamedAllocator@shdfnd@physx@@@shdfnd@physx@@QEAAAEAII@Z@4_NA 00000001801311e8     CctCharacterController.obj
 0003:000011e9       ?_ignore@?2???A?$Array@IVNamedAllocator@shdfnd@physx@@@shdfnd@physx@@QEBAAEBII@Z@4_NA 00000001801311e9     CctCharacterController.obj
 0003:000011ea       ?_ignore@?2??getAnyHit@?$PxHitBuffer@UPxRaycastHit@physx@@@physx@@QEBAAEBUPxRaycastHit@3@I@Z@4_NA 00000001801311ea     CctCharacterController.obj
 0003:000011eb       ?_ignore@?2??growAndPushBack@?$Array@PEBXVNamedAllocator@shdfnd@physx@@@shdfnd@physx@@IEAAAEAPEBXAEBQEBX@Z@4_NA 00000001801311eb     CctCharacterController.obj
 0003:000011ec       ?_ignore@?2??growAndPushBack@?$Array@VPxExtendedBox@physx@@VNamedAllocator@shdfnd@2@@shdfnd@physx@@IEAAAEAVPxExtendedBox@4@AEBV54@@Z@4_NA 00000001801311ec     CctCharacterController.obj
 0003:000011ed       ?_ignore@?2??growAndPushBack@?$Array@UPxExtendedCapsule@physx@@VNamedAllocator@shdfnd@2@@shdfnd@physx@@IEAAAEAUPxExtendedCapsule@4@AEBU54@@Z@4_NA 00000001801311ed     CctCharacterController.obj
 0003:000011ee       ?_ignore@?2??grow@?$Array@IVNamedAllocator@shdfnd@physx@@@shdfnd@physx@@IEAAXI@Z@4_NA 00000001801311ee     CctCharacterController.obj
 0003:000011ef       ?_ignore@?2??recreate@?$Array@IVNamedAllocator@shdfnd@physx@@@shdfnd@physx@@IEAAXI@Z@4_NA 00000001801311ef     CctCharacterController.obj
 0003:000011f0       ?_ignore@?2???APxVec3@physx@@QEBAAEBMI@Z@4_NA 00000001801311f0     CctCharacterControllerCallbacks.obj
 0003:000011f1       ?_ignore@?2??rotate@PxTransform@physx@@QEBA?AVPxVec3@3@AEBV43@@Z@4_NA 00000001801311f1     CctCharacterControllerCallbacks.obj
 0003:00001283       ?_ignore@?2??getAnyHit@?$PxHitBuffer@UPxOverlapHit@physx@@@physx@@QEBAAEBUPxOverlapHit@3@I@Z@4_NA 0000000180131283     CctCharacterControllerCallbacks.obj
 0003:00001284       ?_ignore@?2??grow@?$Array@VPxTriangle@physx@@VNamedAllocator@shdfnd@2@@shdfnd@physx@@IEAAXI@Z@4_NA 0000000180131284     CctCharacterControllerCallbacks.obj
 0003:00001285       ?_ignore@?2??growAndPushBack@?$Array@IVNamedAllocator@shdfnd@physx@@@shdfnd@physx@@IEAAAEAIAEBI@Z@4_NA 0000000180131285     CctCharacterControllerCallbacks.obj
 0003:00001286       ?_ignore@?2??recreate@?$Array@VPxTriangle@physx@@VNamedAllocator@shdfnd@2@@shdfnd@physx@@IEAAXI@Z@4_NA 0000000180131286     CctCharacterControllerCallbacks.obj
 0003:00001297       ?_ignore@?2???A?$Array@PEAVObstacleContext@Cct@physx@@VNamedAllocator@shdfnd@3@@shdfnd@physx@@QEAAAEAPEAVObstacleContext@Cct@3@I@Z@4_NA 0000000180131297     CctCharacterControllerManager.obj
 0003:00001298       ?_ignore@?2??replaceWithLast@?$Array@PEAVController@Cct@physx@@VNamedAllocator@shdfnd@3@@shdfnd@physx@@QEAAXI@Z@4_NA 0000000180131298     CctCharacterControllerManager.obj
 0003:00001299       ?_ignore@?2???A?$Array@PEAVController@Cct@physx@@VNamedAllocator@shdfnd@3@@shdfnd@physx@@QEAAAEAPEAVController@Cct@3@I@Z@4_NA 0000000180131299     CctCharacterControllerManager.obj
 0003:0000129a       ?_ignore@?2???A?$Array@PEAVController@Cct@physx@@VNamedAllocator@shdfnd@3@@shdfnd@physx@@QEBAAEBQEAVController@Cct@3@I@Z@4_NA 000000018013129a     CctCharacterControllerManager.obj
 0003:0000129b       ?_ignore@?2???A?$Array@UPxDebugText@physx@@VNamedAllocator@shdfnd@2@@shdfnd@physx@@QEAAAEAUPxDebugText@3@I@Z@4_NA 000000018013129b     CctCharacterControllerManager.obj
 0003:0000129c       ?_ignore@?2???A?$Array@UPxDebugTriangle@physx@@VNamedAllocator@shdfnd@2@@shdfnd@physx@@QEAAAEAUPxDebugTriangle@3@I@Z@4_NA 000000018013129c     CctCharacterControllerManager.obj
 0003:0000129d       ?_ignore@?2???A?$Array@UPxDebugLine@physx@@VNamedAllocator@shdfnd@2@@shdfnd@physx@@QEAAAEAUPxDebugLine@3@I@Z@4_NA 000000018013129d     CctCharacterControllerManager.obj
 0003:0000129e       ?_ignore@?2???A?$Array@UPxDebugPoint@physx@@VNamedAllocator@shdfnd@2@@shdfnd@physx@@QEAAAEAUPxDebugPoint@3@I@Z@4_NA 000000018013129e     CctCharacterControllerManager.obj
 0003:0000129f       ?_ignore@?2??replaceWithLast@?$Array@PEAVObstacleContext@Cct@physx@@VNamedAllocator@shdfnd@3@@shdfnd@physx@@QEAAXI@Z@4_NA 000000018013129f     CctCharacterControllerManager.obj
 0003:000012a0       ?_ignore@?2??grow@?$HashBase@V?$Pair@QEBVPxBase@physx@@UObservedRefCounter@Cct@2@@shdfnd@physx@@PEBVPxBase@3@U?$Hash@PEBVPxBase@physx@@@23@UGetKey@?$HashMapBase@PEBVPxBase@physx@@UObservedRefCounter@Cct@2@U?$Hash@PEBVPxBase@physx@@@shdfnd@2@VNonTrackingAllocator@62@@internal@23@VNonTrackingAllocator@23@$00@internal@shdfnd@physx@@AEAAXXZ@4_NA 00000001801312a0     CctCharacterControllerManager.obj
 0003:000012a1       ?_ignore@?2??freeListGetNext@?$HashBase@V?$Pair@QEBVPxBase@physx@@UObservedRefCounter@Cct@2@@shdfnd@physx@@PEBVPxBase@3@U?$Hash@PEBVPxBase@physx@@@23@UGetKey@?$HashMapBase@PEBVPxBase@physx@@UObservedRefCounter@Cct@2@U?$Hash@PEBVPxBase@physx@@@shdfnd@2@VNonTrackingAllocator@62@@internal@23@VNonTrackingAllocator@23@$00@internal@shdfnd@physx@@AEAAIXZ@4_NA 00000001801312a1     CctCharacterControllerManager.obj
 0003:000012a2       ?_ignore@?6??freeListGetNext@?$HashBase@V?$Pair@QEBVPxBase@physx@@UObservedRefCounter@Cct@2@@shdfnd@physx@@PEBVPxBase@3@U?$Hash@PEBVPxBase@physx@@@23@UGetKey@?$HashMapBase@PEBVPxBase@physx@@UObservedRefCounter@Cct@2@U?$Hash@PEBVPxBase@physx@@@shdfnd@2@VNonTrackingAllocator@62@@internal@23@VNonTrackingAllocator@23@$00@internal@shdfnd@physx@@AEAAIXZ@4_NA 00000001801312a2     CctCharacterControllerManager.obj
 0003:000012a3       ?_ignore@?2??grow@?$HashBase@PEAVPxShape@physx@@PEAV12@U?$Hash@PEAVPxShape@physx@@@shdfnd@2@UGetKey@?$HashSetBase@PEAVPxShape@physx@@U?$Hash@PEAVPxShape@physx@@@shdfnd@2@VNonTrackingAllocator@42@$0A@@internal@42@VNonTrackingAllocator@42@$0A@@internal@shdfnd@physx@@AEAAXXZ@4_NA 00000001801312a3     CctCharacterControllerManager.obj
 0003:000012a4       ?_ignore@?2??freeListGetNext@?$HashBase@PEAVPxShape@physx@@PEAV12@U?$Hash@PEAVPxShape@physx@@@shdfnd@2@UGetKey@?$HashSetBase@PEAVPxShape@physx@@U?$Hash@PEAVPxShape@physx@@@shdfnd@2@VNonTrackingAllocator@42@$0A@@internal@42@VNonTrackingAllocator@42@$0A@@internal@shdfnd@physx@@AEAAIXZ@4_NA 00000001801312a4     CctCharacterControllerManager.obj
 0003:000012a5       ?_ignore@?6??freeListGetNext@?$HashBase@PEAVPxShape@physx@@PEAV12@U?$Hash@PEAVPxShape@physx@@@shdfnd@2@UGetKey@?$HashSetBase@PEAVPxShape@physx@@U?$Hash@PEAVPxShape@physx@@@shdfnd@2@VNonTrackingAllocator@42@$0A@@internal@42@VNonTrackingAllocator@42@$0A@@internal@shdfnd@physx@@AEAAIXZ@4_NA 00000001801312a5     CctCharacterControllerManager.obj
 0003:000012a6       ?_ignore@?3??replaceWithLast@?$HashBase@V?$Pair@QEBVPxBase@physx@@UObservedRefCounter@Cct@2@@shdfnd@physx@@PEBVPxBase@3@U?$Hash@PEBVPxBase@physx@@@23@UGetKey@?$HashMapBase@PEBVPxBase@physx@@UObservedRefCounter@Cct@2@U?$Hash@PEBVPxBase@physx@@@shdfnd@2@VNonTrackingAllocator@62@@internal@23@VNonTrackingAllocator@23@$00@internal@shdfnd@physx@@AEAAXI@Z@4_NA 00000001801312a6     CctCharacterControllerManager.obj
 0003:000012a7       ?_ignore@?5??freeListAdd@?$HashBase@V?$Pair@QEBVPxBase@physx@@UObservedRefCounter@Cct@2@@shdfnd@physx@@PEBVPxBase@3@U?$Hash@PEBVPxBase@physx@@@23@UGetKey@?$HashMapBase@PEBVPxBase@physx@@UObservedRefCounter@Cct@2@U?$Hash@PEBVPxBase@physx@@@shdfnd@2@VNonTrackingAllocator@62@@internal@23@VNonTrackingAllocator@23@$00@internal@shdfnd@physx@@AEAAXI@Z@4_NA 00000001801312a7     CctCharacterControllerManager.obj
 0003:000012a8       ?_ignore@?3??replaceWithLast@?$HashBase@PEAVPxShape@physx@@PEAV12@U?$Hash@PEAVPxShape@physx@@@shdfnd@2@UGetKey@?$HashSetBase@PEAVPxShape@physx@@U?$Hash@PEAVPxShape@physx@@@shdfnd@2@VNonTrackingAllocator@42@$0A@@internal@42@VNonTrackingAllocator@42@$0A@@internal@shdfnd@physx@@AEAAXI@Z@4_NA 00000001801312a8     CctCharacterControllerManager.obj
 0003:000012a9       ?_ignore@?5??freeListAdd@?$HashBase@PEAVPxShape@physx@@PEAV12@U?$Hash@PEAVPxShape@physx@@@shdfnd@2@UGetKey@?$HashSetBase@PEAVPxShape@physx@@U?$Hash@PEAVPxShape@physx@@@shdfnd@2@VNonTrackingAllocator@42@$0A@@internal@42@VNonTrackingAllocator@42@$0A@@internal@shdfnd@physx@@AEAAXI@Z@4_NA 00000001801312a9     CctCharacterControllerManager.obj
 0003:000012aa       ?_ignore@?4??reserveInternal@?$HashBase@V?$Pair@QEBVPxBase@physx@@UObservedRefCounter@Cct@2@@shdfnd@physx@@PEBVPxBase@3@U?$Hash@PEBVPxBase@physx@@@23@UGetKey@?$HashMapBase@PEBVPxBase@physx@@UObservedRefCounter@Cct@2@U?$Hash@PEBVPxBase@physx@@@shdfnd@2@VNonTrackingAllocator@62@@internal@23@VNonTrackingAllocator@23@$00@internal@shdfnd@physx@@AEAAXI@Z@4_NA 00000001801312aa     CctCharacterControllerManager.obj
 0003:000012ab       ?_ignore@?6??reserveInternal@?$HashBase@V?$Pair@QEBVPxBase@physx@@UObservedRefCounter@Cct@2@@shdfnd@physx@@PEBVPxBase@3@U?$Hash@PEBVPxBase@physx@@@23@UGetKey@?$HashMapBase@PEBVPxBase@physx@@UObservedRefCounter@Cct@2@U?$Hash@PEBVPxBase@physx@@@shdfnd@2@VNonTrackingAllocator@62@@internal@23@VNonTrackingAllocator@23@$00@internal@shdfnd@physx@@AEAAXI@Z@4_NA 00000001801312ab     CctCharacterControllerManager.obj
 0003:000012ac       ?_ignore@?BE@??reserveInternal@?$HashBase@V?$Pair@QEBVPxBase@physx@@UObservedRefCounter@Cct@2@@shdfnd@physx@@PEBVPxBase@3@U?$Hash@PEBVPxBase@physx@@@23@UGetKey@?$HashMapBase@PEBVPxBase@physx@@UObservedRefCounter@Cct@2@U?$Hash@PEBVPxBase@physx@@@shdfnd@2@VNonTrackingAllocator@62@@internal@23@VNonTrackingAllocator@23@$00@internal@shdfnd@physx@@AEAAXI@Z@4_NA 00000001801312ac     CctCharacterControllerManager.obj
 0003:000012ad       ?_ignore@?4??reserveInternal@?$HashBase@PEAVPxShape@physx@@PEAV12@U?$Hash@PEAVPxShape@physx@@@shdfnd@2@UGetKey@?$HashSetBase@PEAVPxShape@physx@@U?$Hash@PEAVPxShape@physx@@@shdfnd@2@VNonTrackingAllocator@42@$0A@@internal@42@VNonTrackingAllocator@42@$0A@@internal@shdfnd@physx@@AEAAXI@Z@4_NA 00000001801312ad     CctCharacterControllerManager.obj
 0003:000012ae       ?_ignore@?6??reserveInternal@?$HashBase@PEAVPxShape@physx@@PEAV12@U?$Hash@PEAVPxShape@physx@@@shdfnd@2@UGetKey@?$HashSetBase@PEAVPxShape@physx@@U?$Hash@PEAVPxShape@physx@@@shdfnd@2@VNonTrackingAllocator@42@$0A@@internal@42@VNonTrackingAllocator@42@$0A@@internal@shdfnd@physx@@AEAAXI@Z@4_NA 00000001801312ae     CctCharacterControllerManager.obj
 0003:000012af       ?_ignore@?L@??reserveInternal@?$HashBase@PEAVPxShape@physx@@PEAV12@U?$Hash@PEAVPxShape@physx@@@shdfnd@2@UGetKey@?$HashSetBase@PEAVPxShape@physx@@U?$Hash@PEAVPxShape@physx@@@shdfnd@2@VNonTrackingAllocator@42@$0A@@internal@42@VNonTrackingAllocator@42@$0A@@internal@shdfnd@physx@@AEAAXI@Z@4_NA 00000001801312af     CctCharacterControllerManager.obj
 0003:000012b0       ?_ignore@?BE@??reserveInternal@?$HashBase@PEAVPxShape@physx@@PEAV12@U?$Hash@PEAVPxShape@physx@@@shdfnd@2@UGetKey@?$HashSetBase@PEAVPxShape@physx@@U?$Hash@PEAVPxShape@physx@@@shdfnd@2@VNonTrackingAllocator@42@$0A@@internal@42@VNonTrackingAllocator@42@$0A@@internal@shdfnd@physx@@AEAAXI@Z@4_NA 00000001801312b0     CctCharacterControllerManager.obj
 0003:000012b1       ?_ignore@?6??freeListAdd@?$HashBase@V?$Pair@QEBVPxBase@physx@@UObservedRefCounter@Cct@2@@shdfnd@physx@@PEBVPxBase@3@U?$Hash@PEBVPxBase@physx@@@23@UGetKey@?$HashMapBase@PEBVPxBase@physx@@UObservedRefCounter@Cct@2@U?$Hash@PEBVPxBase@physx@@@shdfnd@2@VNonTrackingAllocator@62@@internal@23@VNonTrackingAllocator@23@$00@internal@shdfnd@physx@@AEAAXII@Z@4_NA 00000001801312b1     CctCharacterControllerManager.obj
 0003:000012b2       ?_ignore@?6??freeListAdd@?$HashBase@PEAVPxShape@physx@@PEAV12@U?$Hash@PEAVPxShape@physx@@@shdfnd@2@UGetKey@?$HashSetBase@PEAVPxShape@physx@@U?$Hash@PEAVPxShape@physx@@@shdfnd@2@VNonTrackingAllocator@42@$0A@@internal@42@VNonTrackingAllocator@42@$0A@@internal@shdfnd@physx@@AEAAXII@Z@4_NA 00000001801312b2     CctCharacterControllerManager.obj
 0003:000012b3       ?_ignore@?2??growAndPushBack@?$Array@PEAVController@Cct@physx@@VNamedAllocator@shdfnd@3@@shdfnd@physx@@IEAAAEAPEAVController@Cct@4@AEBQEAV564@@Z@4_NA 00000001801312b3     CctCharacterControllerManager.obj
 0003:000012b4       ?_ignore@?2??growAndPushBack@?$Array@PEAVObstacleContext@Cct@physx@@VNamedAllocator@shdfnd@3@@shdfnd@physx@@IEAAAEAPEAVObstacleContext@Cct@4@AEBQEAV564@@Z@4_NA 00000001801312b4     CctCharacterControllerManager.obj
 0003:000012b5       ?_ignore@?2??grow@?$Array@UPxDebugText@physx@@VNamedAllocator@shdfnd@2@@shdfnd@physx@@IEAAXI@Z@4_NA 00000001801312b5     CctCharacterControllerManager.obj
 0003:000012b6       ?_ignore@?2??grow@?$Array@UPxDebugTriangle@physx@@VNamedAllocator@shdfnd@2@@shdfnd@physx@@IEAAXI@Z@4_NA 00000001801312b6     CctCharacterControllerManager.obj
 0003:000012b7       ?_ignore@?2??grow@?$Array@UPxDebugLine@physx@@VNamedAllocator@shdfnd@2@@shdfnd@physx@@IEAAXI@Z@4_NA 00000001801312b7     CctCharacterControllerManager.obj
 0003:000012b8       ?_ignore@?2??grow@?$Array@UPxDebugPoint@physx@@VNamedAllocator@shdfnd@2@@shdfnd@physx@@IEAAXI@Z@4_NA 00000001801312b8     CctCharacterControllerManager.obj
 0003:000012b9       ?_ignore@?2??growAndPushBack@?$Array@UPxDebugPoint@physx@@VNamedAllocator@shdfnd@2@@shdfnd@physx@@IEAAAEAUPxDebugPoint@4@AEBU54@@Z@4_NA 00000001801312b9     CctCharacterControllerManager.obj
 0003:000012ba       ?_ignore@?2??recreate@?$Array@UPxDebugPoint@physx@@VNamedAllocator@shdfnd@2@@shdfnd@physx@@IEAAXI@Z@4_NA 00000001801312ba     CctCharacterControllerManager.obj
 0003:000012bb       ?_ignore@?2??growAndPushBack@?$Array@UPxDebugLine@physx@@VNamedAllocator@shdfnd@2@@shdfnd@physx@@IEAAAEAUPxDebugLine@4@AEBU54@@Z@4_NA 00000001801312bb     CctCharacterControllerManager.obj
 0003:000012bc       ?_ignore@?2??recreate@?$Array@UPxDebugLine@physx@@VNamedAllocator@shdfnd@2@@shdfnd@physx@@IEAAXI@Z@4_NA 00000001801312bc     CctCharacterControllerManager.obj
 0003:000012bd       ?_ignore@?2??growAndPushBack@?$Array@UPxDebugTriangle@physx@@VNamedAllocator@shdfnd@2@@shdfnd@physx@@IEAAAEAUPxDebugTriangle@4@AEBU54@@Z@4_NA 00000001801312bd     CctCharacterControllerManager.obj
 0003:000012be       ?_ignore@?2??recreate@?$Array@UPxDebugTriangle@physx@@VNamedAllocator@shdfnd@2@@shdfnd@physx@@IEAAXI@Z@4_NA 00000001801312be     CctCharacterControllerManager.obj
 0003:000012bf       ?_ignore@?2??growAndPushBack@?$Array@UPxDebugText@physx@@VNamedAllocator@shdfnd@2@@shdfnd@physx@@IEAAAEAUPxDebugText@4@AEBU54@@Z@4_NA 00000001801312bf     CctCharacterControllerManager.obj
 0003:000012c0       ?_ignore@?2??recreate@?$Array@UPxDebugText@physx@@VNamedAllocator@shdfnd@2@@shdfnd@physx@@IEAAXI@Z@4_NA 00000001801312c0     CctCharacterControllerManager.obj
 0003:000012c1       ?_ignore@?2??recreate@?$Array@PEBXVNamedAllocator@shdfnd@physx@@@shdfnd@physx@@IEAAXI@Z@4_NA 00000001801312c1     CctCharacterControllerManager.obj
 0003:000012c2       ?_ignore@?2??recreate@?$Array@VPxExtendedBox@physx@@VNamedAllocator@shdfnd@2@@shdfnd@physx@@IEAAXI@Z@4_NA 00000001801312c2     CctCharacterControllerManager.obj
 0003:000012c3       ?_ignore@?2??recreate@?$Array@UPxExtendedCapsule@physx@@VNamedAllocator@shdfnd@2@@shdfnd@physx@@IEAAXI@Z@4_NA 00000001801312c3     CctCharacterControllerManager.obj
 0003:000012c4       ?_ignore@?2??grow@?$Array@UPxExtendedCapsule@physx@@VNamedAllocator@shdfnd@2@@shdfnd@physx@@IEAAXI@Z@4_NA 00000001801312c4     CctCharacterControllerManager.obj
 0003:000012c5       ?_ignore@?2??grow@?$Array@VPxExtendedBox@physx@@VNamedAllocator@shdfnd@2@@shdfnd@physx@@IEAAXI@Z@4_NA 00000001801312c5     CctCharacterControllerManager.obj
 0003:000012c6       ?_ignore@?2??grow@?$Array@PEBXVNamedAllocator@shdfnd@physx@@@shdfnd@physx@@IEAAXI@Z@4_NA 00000001801312c6     CctCharacterControllerManager.obj
 0003:000012c8       ?_ignore@?2??to16@shdfnd@physx@@YAGI@Z@4_NA 00000001801312c8     CctObstacleContext.obj
 0003:000012d6       ?_ignore@?2??replaceWithLast@?$Array@UInternalCapsuleObstacle@ObstacleContext@Cct@physx@@VNamedAllocator@shdfnd@4@@shdfnd@physx@@QEAAXI@Z@4_NA 00000001801312d6     CctObstacleContext.obj
 0003:000012d7       ?_ignore@?2???A?$Array@UInternalCapsuleObstacle@ObstacleContext@Cct@physx@@VNamedAllocator@shdfnd@4@@shdfnd@physx@@QEAAAEAUInternalCapsuleObstacle@ObstacleContext@Cct@3@I@Z@4_NA 00000001801312d7     CctObstacleContext.obj
 0003:000012d8       ?_ignore@?2??replaceWithLast@?$Array@UInternalBoxObstacle@ObstacleContext@Cct@physx@@VNamedAllocator@shdfnd@4@@shdfnd@physx@@QEAAXI@Z@4_NA 00000001801312d8     CctObstacleContext.obj
 0003:000012d9       ?_ignore@?2???A?$Array@UInternalBoxObstacle@ObstacleContext@Cct@physx@@VNamedAllocator@shdfnd@4@@shdfnd@physx@@QEAAAEAUInternalBoxObstacle@ObstacleContext@Cct@3@I@Z@4_NA 00000001801312d9     CctObstacleContext.obj
 0003:000012da       ?_ignore@?2??growAndPushBack@?$Array@UInternalBoxObstacle@ObstacleContext@Cct@physx@@VNamedAllocator@shdfnd@4@@shdfnd@physx@@IEAAAEAUInternalBoxObstacle@ObstacleContext@Cct@4@AEBU5674@@Z@4_NA 00000001801312da     CctObstacleContext.obj
 0003:000012db       ?_ignore@?2??growAndPushBack@?$Array@UInternalCapsuleObstacle@ObstacleContext@Cct@physx@@VNamedAllocator@shdfnd@4@@shdfnd@physx@@IEAAAEAUInternalCapsuleObstacle@ObstacleContext@Cct@4@AEBU5674@@Z@4_NA 00000001801312db     CctObstacleContext.obj
 0003:000012e0       ?_ignore@?2???APxVec3@physx@@QEAAAEAMI@Z@4_NA 00000001801312e0     PhysX3ExtensionsDEBUG:ExtRigidBodyExt.obj
 0003:000012e1       ?_ignore@?2??getInverse@PxTransform@physx@@QEBA?AV23@XZ@4_NA 00000001801312e1     PhysX3ExtensionsDEBUG:ExtRigidBodyExt.obj
 0003:000012e2       ?_ignore@?2??transformFast@PxBounds3@physx@@SA?AV23@AEBVPxTransform@3@AEBV23@@Z@4_NA 00000001801312e2     PhysX3ExtensionsDEBUG:ExtRigidBodyExt.obj
 0003:000012e3       ?_ignore@?9???0PxMassProperties@physx@@QEAA@AEBVPxGeometry@2@@Z@4_NA 00000001801312e3     PhysX3ExtensionsDEBUG:ExtRigidBodyExt.obj
 0003:000012e4       ?_ignore@?L@???0PxMassProperties@physx@@QEAA@AEBVPxGeometry@2@@Z@4_NA 00000001801312e4     PhysX3ExtensionsDEBUG:ExtRigidBodyExt.obj
 0003:000012e5       ?_ignore@?M@???0PxMassProperties@physx@@QEAA@AEBVPxGeometry@2@@Z@4_NA 00000001801312e5     PhysX3ExtensionsDEBUG:ExtRigidBodyExt.obj
 0003:000012e6       ?_ignore@?2??translateInertia@PxMassProperties@physx@@SA?AVPxMat33@3@AEBV43@MAEBVPxVec3@3@@Z@4_NA 00000001801312e6     PhysX3ExtensionsDEBUG:ExtRigidBodyExt.obj
 0003:000012e7       ?_ignore@?3??translateInertia@PxMassProperties@physx@@SA?AVPxMat33@3@AEBV43@MAEBVPxVec3@3@@Z@4_NA 00000001801312e7     PhysX3ExtensionsDEBUG:ExtRigidBodyExt.obj
 0003:000012e8       ?_ignore@?4??translateInertia@PxMassProperties@physx@@SA?AVPxMat33@3@AEBV43@MAEBVPxVec3@3@@Z@4_NA 00000001801312e8     PhysX3ExtensionsDEBUG:ExtRigidBodyExt.obj
 0003:000012e9       ?_ignore@?5??translateInertia@PxMassProperties@physx@@SA?AVPxMat33@3@AEBV43@MAEBVPxVec3@3@@Z@4_NA 00000001801312e9     PhysX3ExtensionsDEBUG:ExtRigidBodyExt.obj
 0003:000012ea       ?_ignore@?2??rotateInertia@PxMassProperties@physx@@SA?AVPxMat33@3@AEBV43@AEBVPxQuat@3@@Z@4_NA 00000001801312ea     PhysX3ExtensionsDEBUG:ExtRigidBodyExt.obj
 0003:000012eb       ?_ignore@?3??rotateInertia@PxMassProperties@physx@@SA?AVPxMat33@3@AEBV43@AEBVPxQuat@3@@Z@4_NA 00000001801312eb     PhysX3ExtensionsDEBUG:ExtRigidBodyExt.obj
 0003:000012ec       ?_ignore@?4??rotateInertia@PxMassProperties@physx@@SA?AVPxMat33@3@AEBV43@AEBVPxQuat@3@@Z@4_NA 00000001801312ec     PhysX3ExtensionsDEBUG:ExtRigidBodyExt.obj
 0003:000012ed       ?_ignore@?2??scaleInertia@PxMassProperties@physx@@SA?AVPxMat33@3@AEBV43@AEBVPxQuat@3@AEBVPxVec3@3@@Z@4_NA 00000001801312ed     PhysX3ExtensionsDEBUG:ExtRigidBodyExt.obj
 0003:000012ee       ?_ignore@?3??scaleInertia@PxMassProperties@physx@@SA?AVPxMat33@3@AEBV43@AEBVPxQuat@3@AEBVPxVec3@3@@Z@4_NA 00000001801312ee     PhysX3ExtensionsDEBUG:ExtRigidBodyExt.obj
 0003:000012ef       ?_ignore@?4??scaleInertia@PxMassProperties@physx@@SA?AVPxMat33@3@AEBV43@AEBVPxQuat@3@AEBVPxVec3@3@@Z@4_NA 00000001801312ef     PhysX3ExtensionsDEBUG:ExtRigidBodyExt.obj
 0003:000012f0       ?_ignore@?5??scaleInertia@PxMassProperties@physx@@SA?AVPxMat33@3@AEBV43@AEBVPxQuat@3@AEBVPxVec3@3@@Z@4_NA 00000001801312f0     PhysX3ExtensionsDEBUG:ExtRigidBodyExt.obj
 0003:000012f1       ?_ignore@?4??sum@PxMassProperties@physx@@SA?AV23@PEBV23@PEBVPxTransform@3@I@Z@4_NA 00000001801312f1     PhysX3ExtensionsDEBUG:ExtRigidBodyExt.obj
 0003:000012f2       ?_ignore@?5??sum@PxMassProperties@physx@@SA?AV23@PEBV23@PEBVPxTransform@3@I@Z@4_NA 00000001801312f2     PhysX3ExtensionsDEBUG:ExtRigidBodyExt.obj
 0003:000012f3       ?_ignore@?6??sum@PxMassProperties@physx@@SA?AV23@PEBV23@PEBVPxTransform@3@I@Z@4_NA 00000001801312f3     PhysX3ExtensionsDEBUG:ExtRigidBodyExt.obj
 0003:000012f4       ?_ignore@?9??sum@PxMassProperties@physx@@SA?AV23@PEBV23@PEBVPxTransform@3@I@Z@4_NA 00000001801312f4     PhysX3ExtensionsDEBUG:ExtRigidBodyExt.obj
 0003:000012f5       ?_ignore@?L@??sum@PxMassProperties@physx@@SA?AV23@PEBV23@PEBVPxTransform@3@I@Z@4_NA 00000001801312f5     PhysX3ExtensionsDEBUG:ExtRigidBodyExt.obj
 0003:000012f6       ?_ignore@?M@??sum@PxMassProperties@physx@@SA?AV23@PEBV23@PEBVPxTransform@3@I@Z@4_NA 00000001801312f6     PhysX3ExtensionsDEBUG:ExtRigidBodyExt.obj
 0003:000012fc       ?_ignore@?2??setDiagonal@InertiaTensorComputer@Ext@physx@@QEAAXMAEBVPxVec3@4@@Z@4_NA 00000001801312fc     PhysX3ExtensionsDEBUG:ExtRigidBodyExt.obj
 0003:000012fd       ?_ignore@?3??setDiagonal@InertiaTensorComputer@Ext@physx@@QEAAXMAEBVPxVec3@4@@Z@4_NA 00000001801312fd     PhysX3ExtensionsDEBUG:ExtRigidBodyExt.obj
 0003:000012fe       ?_ignore@?2??rotate@InertiaTensorComputer@Ext@physx@@QEAAXAEBVPxMat33@4@@Z@4_NA 00000001801312fe     PhysX3ExtensionsDEBUG:ExtRigidBodyExt.obj
 0003:000012ff       ?_ignore@?3??rotate@InertiaTensorComputer@Ext@physx@@QEAAXAEBVPxMat33@4@@Z@4_NA 00000001801312ff     PhysX3ExtensionsDEBUG:ExtRigidBodyExt.obj
 0003:00001302       ?_ignore@?2??scaleDensity@InertiaTensorComputer@Ext@physx@@QEAAXM@Z@4_NA 0000000180131302     PhysX3ExtensionsDEBUG:ExtRigidBodyExt.obj
 0003:00001303       ?_ignore@?3??scaleDensity@InertiaTensorComputer@Ext@physx@@QEAAXM@Z@4_NA 0000000180131303     PhysX3ExtensionsDEBUG:ExtRigidBodyExt.obj
 0003:00001304       ?_ignore@?2??add@InertiaTensorComputer@Ext@physx@@QEAAXAEBV234@@Z@4_NA 0000000180131304     PhysX3ExtensionsDEBUG:ExtRigidBodyExt.obj
 0003:00001305       ?_ignore@?3??add@InertiaTensorComputer@Ext@physx@@QEAAXAEBV234@@Z@4_NA 0000000180131305     PhysX3ExtensionsDEBUG:ExtRigidBodyExt.obj
 0003:00001306       ?_ignore@?4??add@InertiaTensorComputer@Ext@physx@@QEAAXAEBV234@@Z@4_NA 0000000180131306     PhysX3ExtensionsDEBUG:ExtRigidBodyExt.obj
 0003:00001316       ?_ignore@?2???A?$Array@PEAVPxShape@physx@@V?$InlineAllocator@$0IA@VNamedAllocator@shdfnd@physx@@@shdfnd@2@@shdfnd@physx@@QEAAAEAPEAVPxShape@3@I@Z@4_NA 0000000180131316     PhysX3ExtensionsDEBUG:ExtRigidBodyExt.obj
 0003:00001317       ?_ignore@?2??grow@?$Array@VPxTransform@physx@@V?$InlineAllocator@$0BMA@VNamedAllocator@shdfnd@physx@@@shdfnd@2@@shdfnd@physx@@IEAAXI@Z@4_NA 0000000180131317     PhysX3ExtensionsDEBUG:ExtRigidBodyExt.obj
 0003:00001318       ?_ignore@?2??grow@?$Array@VPxMassProperties@physx@@V?$InlineAllocator@$0DEA@VNamedAllocator@shdfnd@physx@@@shdfnd@2@@shdfnd@physx@@IEAAXI@Z@4_NA 0000000180131318     PhysX3ExtensionsDEBUG:ExtRigidBodyExt.obj
 0003:00001319       ?_ignore@?2??growAndPushBack@?$Array@VPxMassProperties@physx@@V?$InlineAllocator@$0DEA@VNamedAllocator@shdfnd@physx@@@shdfnd@2@@shdfnd@physx@@IEAAAEAVPxMassProperties@4@AEBV54@@Z@4_NA 0000000180131319     PhysX3ExtensionsDEBUG:ExtRigidBodyExt.obj
 0003:0000131a       ?_ignore@?2??recreate@?$Array@VPxMassProperties@physx@@V?$InlineAllocator@$0DEA@VNamedAllocator@shdfnd@physx@@@shdfnd@2@@shdfnd@physx@@IEAAXI@Z@4_NA 000000018013131a     PhysX3ExtensionsDEBUG:ExtRigidBodyExt.obj
 0003:0000131b       ?_ignore@?2??growAndPushBack@?$Array@VPxTransform@physx@@V?$InlineAllocator@$0BMA@VNamedAllocator@shdfnd@physx@@@shdfnd@2@@shdfnd@physx@@IEAAAEAVPxTransform@4@AEBV54@@Z@4_NA 000000018013131b     PhysX3ExtensionsDEBUG:ExtRigidBodyExt.obj
 0003:0000131c       ?_ignore@?2??recreate@?$Array@VPxTransform@physx@@V?$InlineAllocator@$0BMA@VNamedAllocator@shdfnd@physx@@@shdfnd@2@@shdfnd@physx@@IEAAXI@Z@4_NA 000000018013131c     PhysX3ExtensionsDEBUG:ExtRigidBodyExt.obj
 0003:0000131d       ?_ignore@?2??grow@?$Array@PEAVPxShape@physx@@V?$InlineAllocator@$0IA@VNamedAllocator@shdfnd@physx@@@shdfnd@2@@shdfnd@physx@@IEAAXI@Z@4_NA 000000018013131d     PhysX3ExtensionsDEBUG:ExtRigidBodyExt.obj
 0003:0000131e       ?_ignore@?2??recreate@?$Array@PEAVPxShape@physx@@V?$InlineAllocator@$0IA@VNamedAllocator@shdfnd@physx@@@shdfnd@2@@shdfnd@physx@@IEAAXI@Z@4_NA 000000018013131e     PhysX3ExtensionsDEBUG:ExtRigidBodyExt.obj
 0003:00001320       ?__type_info_root_node@@3U__type_info_node@@A 0000000180131320     LIBCMTD:tncleanup.obj
 0003:00001350       __scrt_current_native_startup_state 0000000180131350     LIBCMTD:utility.obj
 0003:00001358       __scrt_native_startup_lock 0000000180131358     LIBCMTD:utility.obj
 0003:000013a0       ?_OptionsStorage@?1??__local_stdio_printf_options@@9@4_KA 00000001801313a0     LIBCMTD:default_local_stdio_options.obj
 0003:000013b0       ?_OptionsStorage@?1??__local_stdio_scanf_options@@9@4_KA 00000001801313b0     LIBCMTD:default_local_stdio_options.obj
 0003:000013bc       __scrt_debugger_hook_flag  00000001801313bc     LIBCMTD:utility_desktop.obj
 0003:000013c0       __favor                    00000001801313c0     LIBCMTD:_cpu_disp_.obj
 0003:00001a68       __pPurecall                0000000180131a68     libvcruntimed:purevirt_data.obj
 0003:00001a78       ?m_pGetParameter@UnDecorator@@0P6APEADJ@ZEA 0000000180131a78     libvcruntimed:undname.obj
 0003:00001a80       ?pArgList@UnDecorator@@0PEAVReplicator@@EA 0000000180131a80     libvcruntimed:undname.obj
 0003:00001a88       ?pZNameList@UnDecorator@@0PEAVReplicator@@EA 0000000180131a88     libvcruntimed:undname.obj
 0003:00001a90       ?pTemplateArgList@UnDecorator@@0PEAVReplicator@@EA 0000000180131a90     libvcruntimed:undname.obj
 0003:00001a98       ?gName@UnDecorator@@0PEBDEB 0000000180131a98     libvcruntimed:undname.obj
 0003:00001aa0       ?name@UnDecorator@@0PEBDEB 0000000180131aa0     libvcruntimed:undname.obj
 0003:00001aa8       ?outputString@UnDecorator@@0PEADEA 0000000180131aa8     libvcruntimed:undname.obj
 0003:00001ab0       ?maxStringLength@UnDecorator@@0HA 0000000180131ab0     libvcruntimed:undname.obj
 0003:00001ab4       ?disableFlags@UnDecorator@@0KA 0000000180131ab4     libvcruntimed:undname.obj
 0003:00001ab8       ?fExplicitTemplateParams@UnDecorator@@0_NA 0000000180131ab8     libvcruntimed:undname.obj
 0003:00001ab9       ?fGetTemplateArgumentList@UnDecorator@@0_NA 0000000180131ab9     libvcruntimed:undname.obj
 0003:00001b60       ?nodes@?1??make@DNameStatusNode@@SAPEAV2@W4DNameStatus@@@Z@4PAV2@A 0000000180131b60     libvcruntimed:undname.obj
 0003:00001bac       ??_B?1??make@DNameStatusNode@@SAPEAV1@W4DNameStatus@@@Z@51 0000000180131bac     libvcruntimed:undname.obj
 0003:00001d58       _pfnDumpClient             0000000180131d58     libucrtd:debug_heap.obj
 0003:00002138       _environ_table             0000000180132138     libucrtd:environment_initialization.obj
 0003:00002140       _wenviron_table            0000000180132140     libucrtd:environment_initialization.obj
 0003:00002150       __dcrt_initial_wide_environment 0000000180132150     libucrtd:environment_initialization.obj
 0003:00002160       __dcrt_initial_narrow_environment 0000000180132160     libucrtd:environment_initialization.obj
 0003:00002170       __acrt_atexit_table        0000000180132170     libucrtd:onexit.obj
 0003:00002190       __acrt_at_quick_exit_table 0000000180132190     libucrtd:onexit.obj
 0003:000021c0       _pfnReportHook             00000001801321c0     libucrtd:dbgrptt.obj
 0003:000021c8       _pReportHookList           00000001801321c8     libucrtd:dbgrptt.obj
 0003:000021d0       _pReportHookListW          00000001801321d0     libucrtd:dbgrptt.obj
 0003:00002490       __acrt_locale_changed_data 0000000180132490     libucrtd:wsetlocale.obj
 0003:00002498       __acrt_current_locale_data 0000000180132498     libucrtd:nlsdata.obj
 0003:000024a8       __acrt_heap                00000001801324a8     libucrtd:heap_handle.obj
 0003:000026c8       __mbcodepage               00000001801326c8     libucrtd:mbctype.obj
 0003:000026cc       __ismbcodepage             00000001801326cc     libucrtd:mbctype.obj
 0003:000026d0       __mbulinfo                 00000001801326d0     libucrtd:mbctype.obj
 0003:000026e8       __mblocalename             00000001801326e8     libucrtd:mbctype.obj
 0003:000026f4       __argc                     00000001801326f4     libucrtd:argv_data.obj
 0003:000026f8       __argv                     00000001801326f8     libucrtd:argv_data.obj
 0003:00002708       __wargv                    0000000180132708     libucrtd:argv_data.obj
 0003:00002718       _acmdln                    0000000180132718     libucrtd:argv_data.obj
 0003:00002728       _wcmdln                    0000000180132728     libucrtd:argv_data.obj
 0003:00002738       _pgmptr                    0000000180132738     libucrtd:argv_data.obj
 0003:00002748       _wpgmptr                   0000000180132748     libucrtd:argv_data.obj
 0003:00002760       __pioinfo                  0000000180132760     libucrtd:ioinit.obj
 0003:00002c2c       _nhandle                   0000000180132c2c     libucrtd:ioinit.obj
 0003:00002c40       __acrt_stdout_buffer       0000000180132c40     libucrtd:_sftbuf.obj
 0003:00002c50       __acrt_stderr_buffer       0000000180132c50     libucrtd:_sftbuf.obj
 0003:00002c60       _nstream                   0000000180132c60     libucrtd:_file.obj
 0003:00002c68       __piob                     0000000180132c68     libucrtd:_file.obj
 0003:00002c74       _cflush                    0000000180132c74     libucrtd:_file.obj
 0003:000033f3       __acrt_lconv_static_null   00000001801333f3     libucrtd:localeconv.obj
 0003:000033f4       __acrt_lconv_static_W_null 00000001801333f4     libucrtd:localeconv.obj
 0003:000033fc       __fma3_is_available        00000001801333fc     libucrtd:fma3_available.obj
 0003:00003400       __use_fma3_lib             0000000180133400     libucrtd:fma3_available.obj
 0003:00003408       ?g_OutOfMemoryExceptionCallback@@3P6APEAXXZEA 0000000180133408     libvcruntimed:frame.obj
 0003:00003414       __scrt_ucrt_dll_is_in_use  0000000180133414     <common>
 0003:00003420       __dyn_tls_init_callback    0000000180133420     <common>
 0005:00000000       __imp_GetProcAddress       000000018013f000     kernel32:KERNEL32.dll
 0005:00000008       __imp_RtlPcToFileHeader    000000018013f008     kernel32:KERNEL32.dll
 0005:00000010       __imp_CreateFileW          000000018013f010     kernel32:KERNEL32.dll
 0005:00000018       __imp_SetFilePointerEx     000000018013f018     kernel32:KERNEL32.dll
 0005:00000020       __imp_GetConsoleMode       000000018013f020     kernel32:KERNEL32.dll
 0005:00000028       __imp_GetConsoleCP         000000018013f028     kernel32:KERNEL32.dll
 0005:00000030       __imp_FlushFileBuffers     000000018013f030     kernel32:KERNEL32.dll
 0005:00000038       __imp_SetStdHandle         000000018013f038     kernel32:KERNEL32.dll
 0005:00000040       __imp_GetStringTypeW       000000018013f040     kernel32:KERNEL32.dll
 0005:00000048       __imp_SetEnvironmentVariableW 000000018013f048     kernel32:KERNEL32.dll
 0005:00000050       __imp_SetEnvironmentVariableA 000000018013f050     kernel32:KERNEL32.dll
 0005:00000058       __imp_FreeEnvironmentStringsW 000000018013f058     kernel32:KERNEL32.dll
 0005:00000060       __imp_GetEnvironmentStringsW 000000018013f060     kernel32:KERNEL32.dll
 0005:00000068       __imp_GetCommandLineW      000000018013f068     kernel32:KERNEL32.dll
 0005:00000070       __imp_GetCommandLineA      000000018013f070     kernel32:KERNEL32.dll
 0005:00000078       __imp_GetCPInfo            000000018013f078     kernel32:KERNEL32.dll
 0005:00000080       __imp_GetOEMCP             000000018013f080     kernel32:KERNEL32.dll
 0005:00000088       __imp_IsValidCodePage      000000018013f088     kernel32:KERNEL32.dll
 0005:00000090       __imp_FindNextFileW        000000018013f090     kernel32:KERNEL32.dll
 0005:00000098       __imp_FindNextFileA        000000018013f098     kernel32:KERNEL32.dll
 0005:000000a0       __imp_FindFirstFileExW     000000018013f0a0     kernel32:KERNEL32.dll
 0005:000000a8       __imp_FindFirstFileExA     000000018013f0a8     kernel32:KERNEL32.dll
 0005:000000b0       __imp_FindClose            000000018013f0b0     kernel32:KERNEL32.dll
 0005:000000b8       __imp_EnumSystemLocalesW   000000018013f0b8     kernel32:KERNEL32.dll
 0005:000000c0       __imp_GetUserDefaultLCID   000000018013f0c0     kernel32:KERNEL32.dll
 0005:000000c8       __imp_IsValidLocale        000000018013f0c8     kernel32:KERNEL32.dll
 0005:000000d0       __imp_GetLocaleInfoW       000000018013f0d0     kernel32:KERNEL32.dll
 0005:000000d8       __imp_LCMapStringW         000000018013f0d8     kernel32:KERNEL32.dll
 0005:000000e0       __imp_CompareStringW       000000018013f0e0     kernel32:KERNEL32.dll
 0005:000000e8       __imp_GetTimeFormatW       000000018013f0e8     kernel32:KERNEL32.dll
 0005:000000f0       __imp_GetDateFormatW       000000018013f0f0     kernel32:KERNEL32.dll
 0005:000000f8       __imp_GetACP               000000018013f0f8     kernel32:KERNEL32.dll
 0005:00000100       __imp_HeapQueryInformation 000000018013f100     kernel32:KERNEL32.dll
 0005:00000108       __imp_GetCurrentThread     000000018013f108     kernel32:KERNEL32.dll
 0005:00000110       __imp_HeapReAlloc          000000018013f110     kernel32:KERNEL32.dll
 0005:00000118       __imp_SetConsoleCtrlHandler 000000018013f118     kernel32:KERNEL32.dll
 0005:00000120       __imp_CreateThread         000000018013f120     kernel32:KERNEL32.dll
 0005:00000128       __imp_WaitForSingleObjectEx 000000018013f128     kernel32:KERNEL32.dll
 0005:00000130       __imp_CloseHandle          000000018013f130     kernel32:KERNEL32.dll
 0005:00000138       __imp_WriteConsoleW        000000018013f138     kernel32:KERNEL32.dll
 0005:00000140       __imp_OutputDebugStringW   000000018013f140     kernel32:KERNEL32.dll
 0005:00000148       __imp_OutputDebugStringA   000000018013f148     kernel32:KERNEL32.dll
 0005:00000150       __imp_WriteFile            000000018013f150     kernel32:KERNEL32.dll
 0005:00000158       __imp_GetFileType          000000018013f158     kernel32:KERNEL32.dll
 0005:00000160       __imp_InitializeSListHead  000000018013f160     kernel32:KERNEL32.dll
 0005:00000168       __imp_QueryPerformanceCounter 000000018013f168     kernel32:KERNEL32.dll
 0005:00000170       __imp_GetCurrentProcessId  000000018013f170     kernel32:KERNEL32.dll
 0005:00000178       __imp_GetCurrentThreadId   000000018013f178     kernel32:KERNEL32.dll
 0005:00000180       __imp_GetSystemTimeAsFileTime 000000018013f180     kernel32:KERNEL32.dll
 0005:00000188       __imp_RtlCaptureContext    000000018013f188     kernel32:KERNEL32.dll
 0005:00000190       __imp_RtlLookupFunctionEntry 000000018013f190     kernel32:KERNEL32.dll
 0005:00000198       __imp_RtlVirtualUnwind     000000018013f198     kernel32:KERNEL32.dll
 0005:000001a0       __imp_IsDebuggerPresent    000000018013f1a0     kernel32:KERNEL32.dll
 0005:000001a8       __imp_UnhandledExceptionFilter 000000018013f1a8     kernel32:KERNEL32.dll
 0005:000001b0       __imp_SetUnhandledExceptionFilter 000000018013f1b0     kernel32:KERNEL32.dll
 0005:000001b8       __imp_GetStartupInfoW      000000018013f1b8     kernel32:KERNEL32.dll
 0005:000001c0       __imp_IsProcessorFeaturePresent 000000018013f1c0     kernel32:KERNEL32.dll
 0005:000001c8       __imp_GetModuleHandleW     000000018013f1c8     kernel32:KERNEL32.dll
 0005:000001d0       __imp_RaiseException       000000018013f1d0     kernel32:KERNEL32.dll
 0005:000001d8       __imp_MultiByteToWideChar  000000018013f1d8     kernel32:KERNEL32.dll
 0005:000001e0       __imp_WideCharToMultiByte  000000018013f1e0     kernel32:KERNEL32.dll
 0005:000001e8       __imp_GetLastError         000000018013f1e8     kernel32:KERNEL32.dll
 0005:000001f0       __imp_HeapAlloc            000000018013f1f0     kernel32:KERNEL32.dll
 0005:000001f8       __imp_HeapFree             000000018013f1f8     kernel32:KERNEL32.dll
 0005:00000200       __imp_GetProcessHeap       000000018013f200     kernel32:KERNEL32.dll
 0005:00000208       __imp_VirtualQuery         000000018013f208     kernel32:KERNEL32.dll
 0005:00000210       __imp_FreeLibrary          000000018013f210     kernel32:KERNEL32.dll
 0005:00000218       __imp_EncodePointer        000000018013f218     kernel32:KERNEL32.dll
 0005:00000220       __imp_GetCurrentProcess    000000018013f220     kernel32:KERNEL32.dll
 0005:00000228       __imp_TerminateProcess     000000018013f228     kernel32:KERNEL32.dll
 0005:00000230       __imp_InterlockedPushEntrySList 000000018013f230     kernel32:KERNEL32.dll
 0005:00000238       __imp_InterlockedFlushSList 000000018013f238     kernel32:KERNEL32.dll
 0005:00000240       __imp_RtlUnwindEx          000000018013f240     kernel32:KERNEL32.dll
 0005:00000248       __imp_GetModuleFileNameW   000000018013f248     kernel32:KERNEL32.dll
 0005:00000250       __imp_LoadLibraryExW       000000018013f250     kernel32:KERNEL32.dll
 0005:00000258       __imp_SetLastError         000000018013f258     kernel32:KERNEL32.dll
 0005:00000260       __imp_EnterCriticalSection 000000018013f260     kernel32:KERNEL32.dll
 0005:00000268       __imp_LeaveCriticalSection 000000018013f268     kernel32:KERNEL32.dll
 0005:00000270       __imp_DeleteCriticalSection 000000018013f270     kernel32:KERNEL32.dll
 0005:00000278       __imp_InitializeCriticalSectionAndSpinCount 000000018013f278     kernel32:KERNEL32.dll
 0005:00000280       __imp_TlsAlloc             000000018013f280     kernel32:KERNEL32.dll
 0005:00000288       __imp_TlsGetValue          000000018013f288     kernel32:KERNEL32.dll
 0005:00000290       __imp_TlsSetValue          000000018013f290     kernel32:KERNEL32.dll
 0005:00000298       __imp_TlsFree              000000018013f298     kernel32:KERNEL32.dll
 0005:000002a0       __imp_GetModuleFileNameA   000000018013f2a0     kernel32:KERNEL32.dll
 0005:000002a8       __imp_GetModuleHandleExW   000000018013f2a8     kernel32:KERNEL32.dll
 0005:000002b0       __imp_HeapSize             000000018013f2b0     kernel32:KERNEL32.dll
 0005:000002b8       __imp_HeapValidate         000000018013f2b8     kernel32:KERNEL32.dll
 0005:000002c0       __imp_GetSystemInfo        000000018013f2c0     kernel32:KERNEL32.dll
 0005:000002c8       __imp_ExitProcess          000000018013f2c8     kernel32:KERNEL32.dll
 0005:000002d0       __imp_GetStdHandle         000000018013f2d0     kernel32:KERNEL32.dll
 0005:000002d8       \177KERNEL32_NULL_THUNK_DATA 000000018013f2d8     kernel32:KERNEL32.dll
 0005:000003c0       __imp_?findOverlapHeightField@PxMeshQuery@physx@@SAIAEBVPxGeometry@2@AEBVPxTransform@2@AEBVPxHeightFieldGeometry@2@1PEAIIIAEA_N@Z 000000018013f3c0     PhysX3CommonDEBUG_x64:PhysX3CommonDEBUG_x64.dll
 0005:000003c8       __imp_?findOverlapTriangleMesh@PxMeshQuery@physx@@SAIAEBVPxGeometry@2@AEBVPxTransform@2@AEBVPxTriangleMeshGeometry@2@1PEAIIIAEA_N@Z 000000018013f3c8     PhysX3CommonDEBUG_x64:PhysX3CommonDEBUG_x64.dll
 0005:000003d0       __imp_?getRaycastFuncTable@Gu@physx@@YAAEAY06Q6AIAEBVPxGeometry@2@AEBVPxTransform@2@AEBVPxVec3@2@2MV?$PxFlags@W4Enum@PxHitFlag@physx@@G@2@IPEIAUPxRaycastHit@2@@ZXZ 000000018013f3d0     PhysX3CommonDEBUG_x64:PhysX3CommonDEBUG_x64.dll
 0005:000003d8       __imp_?distanceSegmentSegmentSquared@Gu@physx@@YAMAEBVPxVec3@2@000PEAM1@Z 000000018013f3d8     PhysX3CommonDEBUG_x64:PhysX3CommonDEBUG_x64.dll
 0005:000003e0       __imp_?CompleteBoxPruning@Cm@physx@@YA_NPEBVPxBounds3@2@IAEAV?$Array@IVNamedAllocator@shdfnd@physx@@@shdfnd@2@AEBVAxes@Gu@2@@Z 000000018013f3e0     PhysX3CommonDEBUG_x64:PhysX3CommonDEBUG_x64.dll
 0005:000003e8       __imp_?intersectTriangleBox_Unsafe@Gu@physx@@YAHAEBVPxVec3@2@0000@Z 000000018013f3e8     PhysX3CommonDEBUG_x64:PhysX3CommonDEBUG_x64.dll
 0005:000003f0       __imp_??6RenderOutput@Cm@physx@@QEAAAEAV012@VPxVec3@2@@Z 000000018013f3f0     PhysX3CommonDEBUG_x64:PhysX3CommonDEBUG_x64.dll
 0005:000003f8       __imp_??6RenderOutput@Cm@physx@@QEAAAEAV012@W4Primitive@012@@Z 000000018013f3f8     PhysX3CommonDEBUG_x64:PhysX3CommonDEBUG_x64.dll
 0005:00000400       __imp_?getTriangle@PxMeshQuery@physx@@SAXAEBVPxHeightFieldGeometry@2@AEBVPxTransform@2@IAEAVPxTriangle@2@PEAI3@Z 000000018013f400     PhysX3CommonDEBUG_x64:PhysX3CommonDEBUG_x64.dll
 0005:00000408       __imp_?getTriangle@PxMeshQuery@physx@@SAXAEBVPxTriangleMeshGeometry@2@AEBVPxTransform@2@IAEAVPxTriangle@2@PEAI3@Z 000000018013f408     PhysX3CommonDEBUG_x64:PhysX3CommonDEBUG_x64.dll
 0005:00000410       __imp_?distanceSegmentBoxSquared@Gu@physx@@YAMAEBVPxVec3@2@000AEBVPxMat33@2@PEAMPEAV32@@Z 000000018013f410     PhysX3CommonDEBUG_x64:PhysX3CommonDEBUG_x64.dll
 0005:00000418       __imp_?intersectOBBOBB@Gu@physx@@YA_NAEBVPxVec3@2@0AEBVPxMat33@2@001_N@Z 000000018013f418     PhysX3CommonDEBUG_x64:PhysX3CommonDEBUG_x64.dll
 0005:00000420       __imp_??1Box@Gu@physx@@QEAA@XZ 000000018013f420     PhysX3CommonDEBUG_x64:PhysX3CommonDEBUG_x64.dll
 0005:00000428       __imp_??0Box@Gu@physx@@QEAA@AEBVPxVec3@2@0AEBVPxMat33@2@@Z 000000018013f428     PhysX3CommonDEBUG_x64:PhysX3CommonDEBUG_x64.dll
 0005:00000430       __imp_?computePenetration@PxGeometryQuery@physx@@SA_NAEAVPxVec3@2@AEAMAEBVPxGeometry@2@AEBVPxTransform@2@23@Z 000000018013f430     PhysX3CommonDEBUG_x64:PhysX3CommonDEBUG_x64.dll
 0005:00000438       __imp_?sweep@PxGeometryQuery@physx@@SA_NAEBVPxVec3@2@MAEBVPxGeometry@2@AEBVPxTransform@2@12AEAUPxSweepHit@2@V?$PxFlags@W4Enum@PxHitFlag@physx@@G@2@M@Z 000000018013f438     PhysX3CommonDEBUG_x64:PhysX3CommonDEBUG_x64.dll
 0005:00000440       __imp_?PxTransformFromSegment@physx@@YA?AVPxTransform@1@AEBVPxVec3@1@0PEAM@Z 000000018013f440     PhysX3CommonDEBUG_x64:PhysX3CommonDEBUG_x64.dll
 0005:00000448       __imp_??6Cm@physx@@YAAEAVRenderOutput@01@AEAV201@AEBUDebugBox@01@@Z 000000018013f448     PhysX3CommonDEBUG_x64:PhysX3CommonDEBUG_x64.dll
 0005:00000450       __imp_?outputCapsule@RenderOutput@Cm@physx@@QEAAAEAV123@MMAEBVPxMat44@3@@Z 000000018013f450     PhysX3CommonDEBUG_x64:PhysX3CommonDEBUG_x64.dll
 0005:00000458       __imp_??6RenderOutput@Cm@physx@@QEAAAEAV012@AEBVPxTransform@2@@Z 000000018013f458     PhysX3CommonDEBUG_x64:PhysX3CommonDEBUG_x64.dll
 0005:00000460       __imp_??6RenderOutput@Cm@physx@@QEAAAEAV012@I@Z 000000018013f460     PhysX3CommonDEBUG_x64:PhysX3CommonDEBUG_x64.dll
 0005:00000468       __imp_??0RenderOutput@Cm@physx@@QEAA@AEAVRenderBuffer@12@@Z 000000018013f468     PhysX3CommonDEBUG_x64:PhysX3CommonDEBUG_x64.dll
 0005:00000470       __imp_?sweep@PxMeshQuery@physx@@SA_NAEBVPxVec3@2@MAEBVPxGeometry@2@AEBVPxTransform@2@IPEBVPxTriangle@2@AEAUPxSweepHit@2@V?$PxFlags@W4Enum@PxHitFlag@physx@@G@2@PEBIM_N@Z 000000018013f470     PhysX3CommonDEBUG_x64:PhysX3CommonDEBUG_x64.dll
 0005:00000478       \177PhysX3CommonDEBUG_x64_NULL_THUNK_DATA 000000018013f478     PhysX3CommonDEBUG_x64:PhysX3CommonDEBUG_x64.dll
 0005:000004f0       __imp_?PxDiagonalize@physx@@YA?AVPxVec3@1@AEBVPxMat33@1@AEAVPxQuat@1@@Z 000000018013f4f0     PxFoundationDEBUG_x64:PxFoundationDEBUG_x64.dll
 0005:000004f8       __imp_?PxShortestRotation@physx@@YA?AVPxQuat@1@AEBVPxVec3@1@0@Z 000000018013f4f8     PxFoundationDEBUG_x64:PxFoundationDEBUG_x64.dll
 0005:00000500       __imp_?error@Foundation@shdfnd@physx@@QEAAXW4Enum@PxErrorCode@3@PEBDH1ZZ 000000018013f500     PxFoundationDEBUG_x64:PxFoundationDEBUG_x64.dll
 0005:00000508       __imp_?decRefCount@Foundation@shdfnd@physx@@SAXXZ 000000018013f508     PxFoundationDEBUG_x64:PxFoundationDEBUG_x64.dll
 0005:00000510       __imp_?incRefCount@Foundation@shdfnd@physx@@SAXXZ 000000018013f510     PxFoundationDEBUG_x64:PxFoundationDEBUG_x64.dll
 0005:00000518       __imp_?getInstance@Foundation@shdfnd@physx@@SAAEAV123@XZ 000000018013f518     PxFoundationDEBUG_x64:PxFoundationDEBUG_x64.dll
 0005:00000520       __imp_?getSize@MutexImpl@shdfnd@physx@@SAAEBIXZ 000000018013f520     PxFoundationDEBUG_x64:PxFoundationDEBUG_x64.dll
 0005:00000528       __imp_??1MutexImpl@shdfnd@physx@@QEAA@XZ 000000018013f528     PxFoundationDEBUG_x64:PxFoundationDEBUG_x64.dll
 0005:00000530       __imp_??0MutexImpl@shdfnd@physx@@QEAA@XZ 000000018013f530     PxFoundationDEBUG_x64:PxFoundationDEBUG_x64.dll
 0005:00000538       __imp_PxGetFoundation      000000018013f538     PxFoundationDEBUG_x64:PxFoundationDEBUG_x64.dll
 0005:00000540       __imp_?deallocate@NamedAllocator@shdfnd@physx@@QEAAXPEAX@Z 000000018013f540     PxFoundationDEBUG_x64:PxFoundationDEBUG_x64.dll
 0005:00000548       __imp_?allocate@NamedAllocator@shdfnd@physx@@QEAAPEAX_KPEBDH@Z 000000018013f548     PxFoundationDEBUG_x64:PxFoundationDEBUG_x64.dll
 0005:00000550       __imp_??1NamedAllocator@shdfnd@physx@@QEAA@XZ 000000018013f550     PxFoundationDEBUG_x64:PxFoundationDEBUG_x64.dll
 0005:00000558       __imp_??0NamedAllocator@shdfnd@physx@@QEAA@AEBV012@@Z 000000018013f558     PxFoundationDEBUG_x64:PxFoundationDEBUG_x64.dll
 0005:00000560       __imp_PxGetProfilerCallback 000000018013f560     PxFoundationDEBUG_x64:PxFoundationDEBUG_x64.dll
 0005:00000568       __imp_?unlock@MutexImpl@shdfnd@physx@@QEAAXXZ 000000018013f568     PxFoundationDEBUG_x64:PxFoundationDEBUG_x64.dll
 0005:00000570       __imp_?lock@MutexImpl@shdfnd@physx@@QEAAXXZ 000000018013f570     PxFoundationDEBUG_x64:PxFoundationDEBUG_x64.dll
 0005:00000578       __imp_??0NamedAllocator@shdfnd@physx@@QEAA@PEBD@Z 000000018013f578     PxFoundationDEBUG_x64:PxFoundationDEBUG_x64.dll
 0005:00000580       __imp_?getAllocator@shdfnd@physx@@YAAEAVPxAllocatorCallback@2@XZ 000000018013f580     PxFoundationDEBUG_x64:PxFoundationDEBUG_x64.dll
 0005:00000588       __imp_?PxGetAssertHandler@physx@@YAAEAVPxAssertHandler@1@XZ 000000018013f588     PxFoundationDEBUG_x64:PxFoundationDEBUG_x64.dll
 0005:00000590       \177PxFoundationDEBUG_x64_NULL_THUNK_DATA 000000018013f590     PxFoundationDEBUG_x64:PxFoundationDEBUG_x64.dll
 0005:00000608       __IMPORT_DESCRIPTOR_PxFoundationDEBUG_x64 000000018013f608     PxFoundationDEBUG_x64:PxFoundationDEBUG_x64.dll
 0005:0000061c       __IMPORT_DESCRIPTOR_PhysX3CommonDEBUG_x64 000000018013f61c     PhysX3CommonDEBUG_x64:PhysX3CommonDEBUG_x64.dll
 0005:00000630       __IMPORT_DESCRIPTOR_KERNEL32 000000018013f630     kernel32:KERNEL32.dll
 0005:00000644       __NULL_IMPORT_DESCRIPTOR   000000018013f644     PxFoundationDEBUG_x64:PxFoundationDEBUG_x64.dll
 0007:00000000       __guard_check_icall_fptr   0000000180143000     LIBCMTD:guard_support.obj
 0007:00000010       __guard_dispatch_icall_fptr 0000000180143010     LIBCMTD:guard_support.obj
